   1              		.cpu cortex-m4
   2              		.arch armv7e-m
   3              		.fpu fpv4-sp-d16
   4              		.eabi_attribute 27, 1
   5              		.eabi_attribute 20, 1
   6              		.eabi_attribute 21, 1
   7              		.eabi_attribute 23, 3
   8              		.eabi_attribute 24, 1
   9              		.eabi_attribute 25, 1
  10              		.eabi_attribute 26, 1
  11              		.eabi_attribute 30, 2
  12              		.eabi_attribute 34, 1
  13              		.eabi_attribute 18, 4
  14              		.file	"HANcoder_E407_TTA_CombineModel_V2.c"
  15              		.text
  16              	.Ltext0:
  17              		.cfi_sections	.debug_frame
  18              		.file 1 "HANcoder_E407_TTA_CombineModel_V2.c"
  19              		.section	.text.PwmoutIRQ_PWMOUT_MODULE_TIM14,"ax",%progbits
  20              		.align	1
  21              		.p2align 2,,3
  22              		.global	PwmoutIRQ_PWMOUT_MODULE_TIM14
  23              		.syntax unified
  24              		.thumb
  25              		.thumb_func
  27              	PwmoutIRQ_PWMOUT_MODULE_TIM14:
  28              	.LFB114:
   1:HANcoder_E407_TTA_CombineModel_V2.c **** /*
   2:HANcoder_E407_TTA_CombineModel_V2.c ****  * Academic License - for use in teaching, academic research, and meeting
   3:HANcoder_E407_TTA_CombineModel_V2.c ****  * course requirements at degree granting institutions only.  Not for
   4:HANcoder_E407_TTA_CombineModel_V2.c ****  * government, commercial, or other organizational use.
   5:HANcoder_E407_TTA_CombineModel_V2.c ****  *
   6:HANcoder_E407_TTA_CombineModel_V2.c ****  * File: HANcoder_E407_TTA_CombineModel_V2.c
   7:HANcoder_E407_TTA_CombineModel_V2.c ****  *
   8:HANcoder_E407_TTA_CombineModel_V2.c ****  * Code generated for Simulink model 'HANcoder_E407_TTA_CombineModel_V2'.
   9:HANcoder_E407_TTA_CombineModel_V2.c ****  *
  10:HANcoder_E407_TTA_CombineModel_V2.c ****  * Model version                  : 18.12
  11:HANcoder_E407_TTA_CombineModel_V2.c ****  * Simulink Coder version         : 9.9 (R2023a) 19-Nov-2022
  12:HANcoder_E407_TTA_CombineModel_V2.c ****  * C/C++ source code generated on : Fri Jun  9 15:34:05 2023
  13:HANcoder_E407_TTA_CombineModel_V2.c ****  *
  14:HANcoder_E407_TTA_CombineModel_V2.c ****  * Target selection: ert.tlc
  15:HANcoder_E407_TTA_CombineModel_V2.c ****  * Embedded hardware selection: ARM Compatible->ARM Cortex
  16:HANcoder_E407_TTA_CombineModel_V2.c ****  * Code generation objectives: Unspecified
  17:HANcoder_E407_TTA_CombineModel_V2.c ****  * Validation result: Not run
  18:HANcoder_E407_TTA_CombineModel_V2.c ****  */
  19:HANcoder_E407_TTA_CombineModel_V2.c **** 
  20:HANcoder_E407_TTA_CombineModel_V2.c **** #include "HANcoder_E407_TTA_CombineModel_V2.h"
  21:HANcoder_E407_TTA_CombineModel_V2.c **** #include "rtwtypes.h"
  22:HANcoder_E407_TTA_CombineModel_V2.c **** #include "HANcoder_E407_TTA_CombineModel_V2_types.h"
  23:HANcoder_E407_TTA_CombineModel_V2.c **** #include "HANcoder_E407_TTA_CombineModel_V2_private.h"
  24:HANcoder_E407_TTA_CombineModel_V2.c **** #include <math.h>
  25:HANcoder_E407_TTA_CombineModel_V2.c **** #include "zero_crossing_types.h"
  26:HANcoder_E407_TTA_CombineModel_V2.c **** 
  27:HANcoder_E407_TTA_CombineModel_V2.c **** /* map ByteSwap function */
  28:HANcoder_E407_TTA_CombineModel_V2.c **** #define ByteSwap(x)                    (ByteSwap_x((uint8_t *) &x, sizeof(x)))
  29:HANcoder_E407_TTA_CombineModel_V2.c **** 
  30:HANcoder_E407_TTA_CombineModel_V2.c **** void PwmoutIRQ_PWMOUT_MODULE_TIM14(void);
  31:HANcoder_E407_TTA_CombineModel_V2.c **** void TimeoutEventIRQ_TIMEOUT_TIM4_PIN_PD12(void);
  32:HANcoder_E407_TTA_CombineModel_V2.c **** void TimeoutOverflowIRQ_TIMEOUT_MODULE_TIM4(void);
  33:HANcoder_E407_TTA_CombineModel_V2.c **** 
  34:HANcoder_E407_TTA_CombineModel_V2.c **** /* Exported block signals */
  35:HANcoder_E407_TTA_CombineModel_V2.c **** real_T reqAngle;                       /* '<S26>/Data Store Read' */
  36:HANcoder_E407_TTA_CombineModel_V2.c **** real_T Gamma1;                         /* '<S60>/Sum1' */
  37:HANcoder_E407_TTA_CombineModel_V2.c **** real_T steering;                       /* '<S59>/Gain2' */
  38:HANcoder_E407_TTA_CombineModel_V2.c **** real_T position;                       /* '<S59>/Gain1' */
  39:HANcoder_E407_TTA_CombineModel_V2.c **** real_T control;                        /* '<S59>/Sum' */
  40:HANcoder_E407_TTA_CombineModel_V2.c **** uint32_T SI_FreeHeap;                  /* '<S178>/Level-2 M-file S-Function' */
  41:HANcoder_E407_TTA_CombineModel_V2.c **** uint32_T SI_FreeStack;                 /* '<S179>/Level-2 M-file S-Function' */
  42:HANcoder_E407_TTA_CombineModel_V2.c **** real32_T delta12K;                     /* '<S115>/tan 1' */
  43:HANcoder_E407_TTA_CombineModel_V2.c **** uint16_T t2Angle;                      /* '<S26>/Data Store Read2' */
  44:HANcoder_E407_TTA_CombineModel_V2.c **** uint16_T t1Angle;                      /* '<S26>/Data Store Read1' */
  45:HANcoder_E407_TTA_CombineModel_V2.c **** uint16_T Gamma2;                       /* '<S60>/Sum2' */
  46:HANcoder_E407_TTA_CombineModel_V2.c **** uint16_T mospeed;                      /* '<S59>/Add' */
  47:HANcoder_E407_TTA_CombineModel_V2.c **** uint16_T analogPot1;                   /* '<S51>/Level-2 M-file S-Function' */
  48:HANcoder_E407_TTA_CombineModel_V2.c **** uint16_T pot1;                         /* '<S47>/Cast1' */
  49:HANcoder_E407_TTA_CombineModel_V2.c **** uint16_T analogPot2;                   /* '<S52>/Level-2 M-file S-Function' */
  50:HANcoder_E407_TTA_CombineModel_V2.c **** uint16_T pot2;                         /* '<S47>/Cast2' */
  51:HANcoder_E407_TTA_CombineModel_V2.c **** uint16_T testCounter;                  /* '<S24>/Data Store Read1' */
  52:HANcoder_E407_TTA_CombineModel_V2.c **** uint8_T SI_CPUload;                    /* '<S177>/Level-2 M-file S-Function' */
  53:HANcoder_E407_TTA_CombineModel_V2.c **** uint8_T buttonpress2;                  /* '<S161>/In6' */
  54:HANcoder_E407_TTA_CombineModel_V2.c **** uint8_T buttonpress1;                  /* '<S149>/In6' */
  55:HANcoder_E407_TTA_CombineModel_V2.c **** uint8_T amounttrailers;                /* '<S13>/Add' */
  56:HANcoder_E407_TTA_CombineModel_V2.c **** uint8_T positionID5;                   /* '<S13>/Cast3' */
  57:HANcoder_E407_TTA_CombineModel_V2.c **** uint8_T positionID4;                   /* '<S13>/Cast2' */
  58:HANcoder_E407_TTA_CombineModel_V2.c **** uint8_T local_ticks_interrupt;         /* '<S7>/Switch' */
  59:HANcoder_E407_TTA_CombineModel_V2.c **** uint8_T setSlotTime;                   /* '<S7>/Data Store Read3' */
  60:HANcoder_E407_TTA_CombineModel_V2.c **** uint8_T slotSelected;                  /* '<S16>/Switch' */
  61:HANcoder_E407_TTA_CombineModel_V2.c **** boolean_T masterID;                    /* '<S1>/Equal' */
  62:HANcoder_E407_TTA_CombineModel_V2.c **** boolean_T boolCan;                     /* '<S8>/AND' */
  63:HANcoder_E407_TTA_CombineModel_V2.c **** boolean_T cw;                          /* '<S59>/Cast1' */
  64:HANcoder_E407_TTA_CombineModel_V2.c **** boolean_T ccw;                         /* '<S59>/NOT' */
  65:HANcoder_E407_TTA_CombineModel_V2.c **** boolean_T canActive;                   /* '<S7>/Clock_State' */
  66:HANcoder_E407_TTA_CombineModel_V2.c **** 
  67:HANcoder_E407_TTA_CombineModel_V2.c **** /* Exported block parameters */
  68:HANcoder_E407_TTA_CombineModel_V2.c **** real_T ClockOn = 0.0;                  /* Variable: ClockOn
  69:HANcoder_E407_TTA_CombineModel_V2.c ****                                         * Referenced by: '<S10>/Constant'
  70:HANcoder_E407_TTA_CombineModel_V2.c ****                                         */
  71:HANcoder_E407_TTA_CombineModel_V2.c **** real_T ResetPosition = 0.0;            /* Variable: ResetPosition
  72:HANcoder_E407_TTA_CombineModel_V2.c ****                                         * Referenced by: '<S181>/Constant'
  73:HANcoder_E407_TTA_CombineModel_V2.c ****                                         */
  74:HANcoder_E407_TTA_CombineModel_V2.c **** real_T controlWidth = 3.0;             /* Variable: controlWidth
  75:HANcoder_E407_TTA_CombineModel_V2.c ****                                         * Referenced by: '<S59>/Constant'
  76:HANcoder_E407_TTA_CombineModel_V2.c ****                                         */
  77:HANcoder_E407_TTA_CombineModel_V2.c **** real_T desiredAngle = 0.0;             /* Variable: desiredAngle
  78:HANcoder_E407_TTA_CombineModel_V2.c ****                                         * Referenced by: '<S47>/Constant2'
  79:HANcoder_E407_TTA_CombineModel_V2.c ****                                         */
  80:HANcoder_E407_TTA_CombineModel_V2.c **** real_T intVal = 0.15;                  /* Variable: intVal
  81:HANcoder_E407_TTA_CombineModel_V2.c ****                                         * Referenced by: '<S92>/Integral Gain'
  82:HANcoder_E407_TTA_CombineModel_V2.c ****                                         */
  83:HANcoder_E407_TTA_CombineModel_V2.c **** real_T matrixRows = 10.0;              /* Variable: matrixRows
  84:HANcoder_E407_TTA_CombineModel_V2.c ****                                         * Referenced by: '<S16>/Constant1'
  85:HANcoder_E407_TTA_CombineModel_V2.c ****                                         */
  86:HANcoder_E407_TTA_CombineModel_V2.c **** real_T propVal = 1.0;                  /* Variable: propVal
  87:HANcoder_E407_TTA_CombineModel_V2.c ****                                         * Referenced by: '<S100>/Proportional Gain'
  88:HANcoder_E407_TTA_CombineModel_V2.c ****                                         */
  89:HANcoder_E407_TTA_CombineModel_V2.c **** uint32_T MMBS1_ID = 12U;               /* Variable: MMBS1_ID
  90:HANcoder_E407_TTA_CombineModel_V2.c ****                                         * Referenced by: '<S8>/Constant12'
  91:HANcoder_E407_TTA_CombineModel_V2.c ****                                         */
  92:HANcoder_E407_TTA_CombineModel_V2.c **** uint32_T SSTM1_ID = 13U;               /* Variable: SSTM1_ID
  93:HANcoder_E407_TTA_CombineModel_V2.c ****                                         * Referenced by: '<S8>/Constant14'
  94:HANcoder_E407_TTA_CombineModel_V2.c ****                                         */
  95:HANcoder_E407_TTA_CombineModel_V2.c **** uint32_T SYNC1_ID = 11U;               /* Variable: SYNC1_ID
  96:HANcoder_E407_TTA_CombineModel_V2.c ****                                         * Referenced by:
  97:HANcoder_E407_TTA_CombineModel_V2.c ****                                         *   '<S8>/Constant10'
  98:HANcoder_E407_TTA_CombineModel_V2.c ****                                         *   '<S170>/Constant10'
  99:HANcoder_E407_TTA_CombineModel_V2.c ****                                         */
 100:HANcoder_E407_TTA_CombineModel_V2.c **** uint32_T TRCK1_ID1 = 14U;              /* Variable: TRCK1_ID1
 101:HANcoder_E407_TTA_CombineModel_V2.c ****                                         * Referenced by: '<S8>/Constant3'
 102:HANcoder_E407_TTA_CombineModel_V2.c ****                                         */
 103:HANcoder_E407_TTA_CombineModel_V2.c **** uint32_T TRCK1_ID2 = 26U;              /* Variable: TRCK1_ID2
 104:HANcoder_E407_TTA_CombineModel_V2.c ****                                         * Referenced by: '<S8>/Constant5'
 105:HANcoder_E407_TTA_CombineModel_V2.c ****                                         */
 106:HANcoder_E407_TTA_CombineModel_V2.c **** uint32_T TRCK1_ID3 = 37U;              /* Variable: TRCK1_ID3
 107:HANcoder_E407_TTA_CombineModel_V2.c ****                                         * Referenced by: '<S8>/Constant26'
 108:HANcoder_E407_TTA_CombineModel_V2.c ****                                         */
 109:HANcoder_E407_TTA_CombineModel_V2.c **** uint32_T TRLS1_ID4 = 48U;              /* Variable: TRLS1_ID4
 110:HANcoder_E407_TTA_CombineModel_V2.c ****                                         * Referenced by: '<S8>/Constant8'
 111:HANcoder_E407_TTA_CombineModel_V2.c ****                                         */
 112:HANcoder_E407_TTA_CombineModel_V2.c **** uint32_T TRLS1_ID5 = 59U;              /* Variable: TRLS1_ID5
 113:HANcoder_E407_TTA_CombineModel_V2.c ****                                         * Referenced by: '<S8>/Constant18'
 114:HANcoder_E407_TTA_CombineModel_V2.c ****                                         */
 115:HANcoder_E407_TTA_CombineModel_V2.c **** uint8_T slotTime = 50U;                /* Variable: slotTime
 116:HANcoder_E407_TTA_CombineModel_V2.c ****                                         * Referenced by: '<S169>/Constant3'
 117:HANcoder_E407_TTA_CombineModel_V2.c ****                                         */
 118:HANcoder_E407_TTA_CombineModel_V2.c **** 
 119:HANcoder_E407_TTA_CombineModel_V2.c **** /* Block signals (default storage) */
 120:HANcoder_E407_TTA_CombineModel_V2.c **** BlockIO rtB;
 121:HANcoder_E407_TTA_CombineModel_V2.c **** 
 122:HANcoder_E407_TTA_CombineModel_V2.c **** /* Block states (default storage) */
 123:HANcoder_E407_TTA_CombineModel_V2.c **** D_Work rtDWork;
 124:HANcoder_E407_TTA_CombineModel_V2.c **** 
 125:HANcoder_E407_TTA_CombineModel_V2.c **** /* Previous zero-crossings (trigger) states */
 126:HANcoder_E407_TTA_CombineModel_V2.c **** PrevZCSigStates rtPrevZCSigState;
 127:HANcoder_E407_TTA_CombineModel_V2.c **** 
 128:HANcoder_E407_TTA_CombineModel_V2.c **** /* Forward declaration for local functions */
 129:HANcoder_E407_TTA_CombineModel_V2.c **** static void SystemCore_setup(dsp_simulink_MovingAverage *obj);
 130:HANcoder_E407_TTA_CombineModel_V2.c **** static tCanDataTypes canRxData_0_rtu_In1;
 131:HANcoder_E407_TTA_CombineModel_V2.c **** static tCanDataTypes canTxData;
 132:HANcoder_E407_TTA_CombineModel_V2.c **** static tCanDataTypes canRxData_0_SYNC1_ID;
 133:HANcoder_E407_TTA_CombineModel_V2.c **** static tCanDataTypes canRxData_0_TRCK1_ID3;
 134:HANcoder_E407_TTA_CombineModel_V2.c **** static tCanDataTypes canRxData_0_TRLS1_ID4;
 135:HANcoder_E407_TTA_CombineModel_V2.c **** static tCanDataTypes canRxData_0_TRLS1_ID5;
 136:HANcoder_E407_TTA_CombineModel_V2.c **** static tCanDataTypes canRxData_0_SYNC1_ID;
 137:HANcoder_E407_TTA_CombineModel_V2.c **** 
 138:HANcoder_E407_TTA_CombineModel_V2.c **** /*
 139:HANcoder_E407_TTA_CombineModel_V2.c ****  * Swaps the values of two bytes.
 140:HANcoder_E407_TTA_CombineModel_V2.c ****  * a, b pointers to data values that need swapping
 141:HANcoder_E407_TTA_CombineModel_V2.c ****  */
 142:HANcoder_E407_TTA_CombineModel_V2.c **** static void swap(unsigned char *a, unsigned char *b)
 143:HANcoder_E407_TTA_CombineModel_V2.c **** {
 144:HANcoder_E407_TTA_CombineModel_V2.c ****   register char i = *a;
 145:HANcoder_E407_TTA_CombineModel_V2.c ****   *a = *b;
 146:HANcoder_E407_TTA_CombineModel_V2.c ****   *b = i;
 147:HANcoder_E407_TTA_CombineModel_V2.c **** }                                      /*** end of swap ***/
 148:HANcoder_E407_TTA_CombineModel_V2.c **** 
 149:HANcoder_E407_TTA_CombineModel_V2.c **** /*
 150:HANcoder_E407_TTA_CombineModel_V2.c ****  * Swaps all bytes in b. Typically used to fix endianes.
 151:HANcoder_E407_TTA_CombineModel_V2.c ****  * b pointer to data with bytes to swap
 152:HANcoder_E407_TTA_CombineModel_V2.c ****  * n number of bytes to swap
 153:HANcoder_E407_TTA_CombineModel_V2.c ****  */
 154:HANcoder_E407_TTA_CombineModel_V2.c **** void ByteSwap_x(uint8_t *b, size_t n)
 155:HANcoder_E407_TTA_CombineModel_V2.c **** {
 156:HANcoder_E407_TTA_CombineModel_V2.c ****   int i = 0;
 157:HANcoder_E407_TTA_CombineModel_V2.c ****   int j = n-1;
 158:HANcoder_E407_TTA_CombineModel_V2.c ****   while (i<j) {
 159:HANcoder_E407_TTA_CombineModel_V2.c ****     swap(&b[i], &b[j]);
 160:HANcoder_E407_TTA_CombineModel_V2.c ****     i++, j--;
 161:HANcoder_E407_TTA_CombineModel_V2.c ****   }
 162:HANcoder_E407_TTA_CombineModel_V2.c **** }
 163:HANcoder_E407_TTA_CombineModel_V2.c **** 
 164:HANcoder_E407_TTA_CombineModel_V2.c **** void TimeoutEventIRQ_TIMEOUT_TIM4_PIN_PD12(void)
 165:HANcoder_E407_TTA_CombineModel_V2.c **** {
 166:HANcoder_E407_TTA_CombineModel_V2.c ****   /* Output and update for function-call system: '<S1>/Local Time generation' */
 167:HANcoder_E407_TTA_CombineModel_V2.c ****   {
 168:HANcoder_E407_TTA_CombineModel_V2.c ****     /* local block i/o variables */
 169:HANcoder_E407_TTA_CombineModel_V2.c ****     uint16_T rtb_Level2MfileSFunction;
 170:HANcoder_E407_TTA_CombineModel_V2.c ****     boolean_T rtb_Equal;
 171:HANcoder_E407_TTA_CombineModel_V2.c **** 
 172:HANcoder_E407_TTA_CombineModel_V2.c ****     /* SignalConversion generated from: '<S7>/Clock_State' */
 173:HANcoder_E407_TTA_CombineModel_V2.c ****     canActive = rtB.OR;
 174:HANcoder_E407_TTA_CombineModel_V2.c **** 
 175:HANcoder_E407_TTA_CombineModel_V2.c ****     /* Switch: '<S7>/Switch' */
 176:HANcoder_E407_TTA_CombineModel_V2.c ****     if (canActive) {
 177:HANcoder_E407_TTA_CombineModel_V2.c ****       /* Switch: '<S7>/Switch' incorporates:
 178:HANcoder_E407_TTA_CombineModel_V2.c ****        *  Constant: '<S7>/Constant2'
 179:HANcoder_E407_TTA_CombineModel_V2.c ****        *  DataStoreRead: '<S7>/Data Store Read'
 180:HANcoder_E407_TTA_CombineModel_V2.c ****        *  Sum: '<S7>/Sum1'
 181:HANcoder_E407_TTA_CombineModel_V2.c ****        */
 182:HANcoder_E407_TTA_CombineModel_V2.c ****       local_ticks_interrupt = (uint8_T)((uint32_T)rtDWork.Local_Ticks +
 183:HANcoder_E407_TTA_CombineModel_V2.c ****         ((uint8_T)1U));
 184:HANcoder_E407_TTA_CombineModel_V2.c ****     } else {
 185:HANcoder_E407_TTA_CombineModel_V2.c ****       /* Switch: '<S7>/Switch' incorporates:
 186:HANcoder_E407_TTA_CombineModel_V2.c ****        *  DataStoreRead: '<S7>/Data Store Read1'
 187:HANcoder_E407_TTA_CombineModel_V2.c ****        */
 188:HANcoder_E407_TTA_CombineModel_V2.c ****       local_ticks_interrupt = rtDWork.Local_Ticks;
 189:HANcoder_E407_TTA_CombineModel_V2.c ****     }
 190:HANcoder_E407_TTA_CombineModel_V2.c **** 
 191:HANcoder_E407_TTA_CombineModel_V2.c ****     /* End of Switch: '<S7>/Switch' */
 192:HANcoder_E407_TTA_CombineModel_V2.c **** 
 193:HANcoder_E407_TTA_CombineModel_V2.c ****     /* DataStoreWrite: '<S7>/Data Store Write' */
 194:HANcoder_E407_TTA_CombineModel_V2.c ****     rtDWork.Local_Ticks = local_ticks_interrupt;
 195:HANcoder_E407_TTA_CombineModel_V2.c **** 
 196:HANcoder_E407_TTA_CombineModel_V2.c ****     /* DataStoreRead: '<S7>/Data Store Read3' */
 197:HANcoder_E407_TTA_CombineModel_V2.c ****     setSlotTime = rtDWork.SlotTime;
 198:HANcoder_E407_TTA_CombineModel_V2.c **** 
 199:HANcoder_E407_TTA_CombineModel_V2.c ****     /* M-S-Function: '<S17>/Level-2 M-file S-Function' incorporates:
 200:HANcoder_E407_TTA_CombineModel_V2.c ****      *  DataTypeConversion: '<S7>/Cast'
 201:HANcoder_E407_TTA_CombineModel_V2.c ****      */
 202:HANcoder_E407_TTA_CombineModel_V2.c ****     rtb_Level2MfileSFunction = setSlotTime;
 203:HANcoder_E407_TTA_CombineModel_V2.c **** 
 204:HANcoder_E407_TTA_CombineModel_V2.c ****     /* RelationalOperator: '<S7>/Equal' incorporates:
 205:HANcoder_E407_TTA_CombineModel_V2.c ****      *  DataStoreRead: '<S7>/Data Store Read2'
 206:HANcoder_E407_TTA_CombineModel_V2.c ****      */
 207:HANcoder_E407_TTA_CombineModel_V2.c ****     rtb_Equal = (rtDWork.Local_Ticks >= rtb_Level2MfileSFunction);
 208:HANcoder_E407_TTA_CombineModel_V2.c **** 
 209:HANcoder_E407_TTA_CombineModel_V2.c ****     /* Outputs for Triggered SubSystem: '<S7>/Enabled Subsystem' incorporates:
 210:HANcoder_E407_TTA_CombineModel_V2.c ****      *  TriggerPort: '<S16>/Trigger'
 211:HANcoder_E407_TTA_CombineModel_V2.c ****      */
 212:HANcoder_E407_TTA_CombineModel_V2.c ****     if (rtb_Equal && (rtPrevZCSigState.EnabledSubsystem_Trig_ZCE != POS_ZCSIG))
 213:HANcoder_E407_TTA_CombineModel_V2.c ****     {
 214:HANcoder_E407_TTA_CombineModel_V2.c ****       /* Switch: '<S16>/Switch' incorporates:
 215:HANcoder_E407_TTA_CombineModel_V2.c ****        *  Constant: '<S16>/Constant1'
 216:HANcoder_E407_TTA_CombineModel_V2.c ****        *  DataStoreRead: '<S16>/Data Store Read1'
 217:HANcoder_E407_TTA_CombineModel_V2.c ****        *  DataTypeConversion: '<S16>/Cast'
 218:HANcoder_E407_TTA_CombineModel_V2.c ****        *  RelationalOperator: '<S16>/Equal'
 219:HANcoder_E407_TTA_CombineModel_V2.c ****        */
 220:HANcoder_E407_TTA_CombineModel_V2.c ****       if (rtDWork.slot < (uint8_T)matrixRows) {
 221:HANcoder_E407_TTA_CombineModel_V2.c ****         /* Switch: '<S16>/Switch' incorporates:
 222:HANcoder_E407_TTA_CombineModel_V2.c ****          *  Constant: '<S16>/Constant'
 223:HANcoder_E407_TTA_CombineModel_V2.c ****          *  DataStoreRead: '<S16>/Data Store Read'
 224:HANcoder_E407_TTA_CombineModel_V2.c ****          *  Sum: '<S16>/Plus'
 225:HANcoder_E407_TTA_CombineModel_V2.c ****          */
 226:HANcoder_E407_TTA_CombineModel_V2.c ****         slotSelected = (uint8_T)((uint32_T)rtDWork.slot + ((uint8_T)1U));
 227:HANcoder_E407_TTA_CombineModel_V2.c ****       } else {
 228:HANcoder_E407_TTA_CombineModel_V2.c ****         /* Switch: '<S16>/Switch' incorporates:
 229:HANcoder_E407_TTA_CombineModel_V2.c ****          *  Constant: '<S16>/Constant2'
 230:HANcoder_E407_TTA_CombineModel_V2.c ****          */
 231:HANcoder_E407_TTA_CombineModel_V2.c ****         slotSelected = (uint8_T)1.0;
 232:HANcoder_E407_TTA_CombineModel_V2.c ****       }
 233:HANcoder_E407_TTA_CombineModel_V2.c **** 
 234:HANcoder_E407_TTA_CombineModel_V2.c ****       /* End of Switch: '<S16>/Switch' */
 235:HANcoder_E407_TTA_CombineModel_V2.c **** 
 236:HANcoder_E407_TTA_CombineModel_V2.c ****       /* DataStoreWrite: '<S16>/Data Store Write' */
 237:HANcoder_E407_TTA_CombineModel_V2.c ****       rtDWork.slot = slotSelected;
 238:HANcoder_E407_TTA_CombineModel_V2.c **** 
 239:HANcoder_E407_TTA_CombineModel_V2.c ****       /* DataStoreWrite: '<S16>/Data Store Write1' incorporates:
 240:HANcoder_E407_TTA_CombineModel_V2.c ****        *  Constant: '<S16>/Constant3'
 241:HANcoder_E407_TTA_CombineModel_V2.c ****        */
 242:HANcoder_E407_TTA_CombineModel_V2.c ****       rtDWork.Local_Ticks = ((uint8_T)0U);
 243:HANcoder_E407_TTA_CombineModel_V2.c ****     }
 244:HANcoder_E407_TTA_CombineModel_V2.c **** 
 245:HANcoder_E407_TTA_CombineModel_V2.c ****     rtPrevZCSigState.EnabledSubsystem_Trig_ZCE = rtb_Equal;
 246:HANcoder_E407_TTA_CombineModel_V2.c **** 
 247:HANcoder_E407_TTA_CombineModel_V2.c ****     /* End of Outputs for SubSystem: '<S7>/Enabled Subsystem' */
 248:HANcoder_E407_TTA_CombineModel_V2.c ****     /* M-S-Function: '<S17>/Level-2 M-file S-Function' */
 249:HANcoder_E407_TTA_CombineModel_V2.c ****     /* read 16-bit free running counter timestamp of the last output compare event */
 250:HANcoder_E407_TTA_CombineModel_V2.c ****     rtb_Level2MfileSFunction = TimeoutGetLastEventCounter(TIMEOUT_TIM4_PIN_PD12);
 251:HANcoder_E407_TTA_CombineModel_V2.c **** 
 252:HANcoder_E407_TTA_CombineModel_V2.c ****     /* Sum: '<S7>/Sum' incorporates:
 253:HANcoder_E407_TTA_CombineModel_V2.c ****      *  Constant: '<S7>/Constant'
 254:HANcoder_E407_TTA_CombineModel_V2.c ****      */
 255:HANcoder_E407_TTA_CombineModel_V2.c ****     rtB.Sum = (uint16_T)((uint32_T)rtb_Level2MfileSFunction + ((uint16_T)1000U));
 256:HANcoder_E407_TTA_CombineModel_V2.c **** 
 257:HANcoder_E407_TTA_CombineModel_V2.c ****     /* Update for M-S-Function: '<S18>/Level-2 M-file S-Function' incorporates:
 258:HANcoder_E407_TTA_CombineModel_V2.c ****      *  Constant: '<S7>/Constant1'
 259:HANcoder_E407_TTA_CombineModel_V2.c ****      */
 260:HANcoder_E407_TTA_CombineModel_V2.c ****     /* schedule the next output compare event */
 261:HANcoder_E407_TTA_CombineModel_V2.c ****     TimeoutScheduleCompareEvent(TIMEOUT_TIM4_PIN_PD12, rtB.Sum, (tTimeoutAction)
 262:HANcoder_E407_TTA_CombineModel_V2.c ****       ((uint8_T)3U));
 263:HANcoder_E407_TTA_CombineModel_V2.c ****   }
 264:HANcoder_E407_TTA_CombineModel_V2.c **** }
 265:HANcoder_E407_TTA_CombineModel_V2.c **** 
 266:HANcoder_E407_TTA_CombineModel_V2.c **** void PwmoutIRQ_PWMOUT_MODULE_TIM14(void)
 267:HANcoder_E407_TTA_CombineModel_V2.c **** {
  29              		.loc 1 267 1 view -0
  30              		.cfi_startproc
  31              		@ args = 0, pretend = 0, frame = 0
  32              		@ frame_needed = 0, uses_anonymous_args = 0
  33              		@ link register save eliminated.
 268:HANcoder_E407_TTA_CombineModel_V2.c **** }
  34              		.loc 1 268 1 view .LVU1
  35 0000 7047     		bx	lr
  36              		.cfi_endproc
  37              	.LFE114:
  39              		.global	__aeabi_d2uiz
  40 0002 00BF     		.section	.text.TimeoutEventIRQ_TIMEOUT_TIM4_PIN_PD12,"ax",%progbits
  41              		.align	1
  42              		.p2align 2,,3
  43              		.global	TimeoutEventIRQ_TIMEOUT_TIM4_PIN_PD12
  44              		.syntax unified
  45              		.thumb
  46              		.thumb_func
  48              	TimeoutEventIRQ_TIMEOUT_TIM4_PIN_PD12:
  49              	.LFB113:
 165:HANcoder_E407_TTA_CombineModel_V2.c ****   /* Output and update for function-call system: '<S1>/Local Time generation' */
  50              		.loc 1 165 1 view -0
  51              		.cfi_startproc
  52              		@ args = 0, pretend = 0, frame = 0
  53              		@ frame_needed = 0, uses_anonymous_args = 0
  54              	.LBB61:
 169:HANcoder_E407_TTA_CombineModel_V2.c ****     boolean_T rtb_Equal;
  55              		.loc 1 169 5 view .LVU3
 170:HANcoder_E407_TTA_CombineModel_V2.c **** 
  56              		.loc 1 170 5 view .LVU4
 173:HANcoder_E407_TTA_CombineModel_V2.c **** 
  57              		.loc 1 173 5 view .LVU5
  58              	.LBE61:
 165:HANcoder_E407_TTA_CombineModel_V2.c ****   /* Output and update for function-call system: '<S1>/Local Time generation' */
  59              		.loc 1 165 1 is_stmt 0 view .LVU6
  60 0000 2DE9F041 		push	{r4, r5, r6, r7, r8, lr}
  61              		.cfi_def_cfa_offset 24
  62              		.cfi_offset 4, -24
  63              		.cfi_offset 5, -20
  64              		.cfi_offset 6, -16
  65              		.cfi_offset 7, -12
  66              		.cfi_offset 8, -8
  67              		.cfi_offset 14, -4
  68              	.LBB62:
 173:HANcoder_E407_TTA_CombineModel_V2.c **** 
  69              		.loc 1 173 20 view .LVU7
  70 0004 224D     		ldr	r5, .L15
 173:HANcoder_E407_TTA_CombineModel_V2.c **** 
  71              		.loc 1 173 15 view .LVU8
  72 0006 234A     		ldr	r2, .L15+4
 173:HANcoder_E407_TTA_CombineModel_V2.c **** 
  73              		.loc 1 173 20 view .LVU9
  74 0008 95F82330 		ldrb	r3, [r5, #35]	@ zero_extendqisi2
 182:HANcoder_E407_TTA_CombineModel_V2.c ****         ((uint8_T)1U));
  75              		.loc 1 182 58 view .LVU10
  76 000c 224C     		ldr	r4, .L15+8
 173:HANcoder_E407_TTA_CombineModel_V2.c **** 
  77              		.loc 1 173 15 view .LVU11
  78 000e 1370     		strb	r3, [r2]
 176:HANcoder_E407_TTA_CombineModel_V2.c ****       /* Switch: '<S7>/Switch' incorporates:
  79              		.loc 1 176 5 is_stmt 1 view .LVU12
 176:HANcoder_E407_TTA_CombineModel_V2.c ****       /* Switch: '<S7>/Switch' incorporates:
  80              		.loc 1 176 8 is_stmt 0 view .LVU13
  81 0010 002B     		cmp	r3, #0
  82 0012 3AD0     		beq	.L4
 182:HANcoder_E407_TTA_CombineModel_V2.c ****         ((uint8_T)1U));
  83              		.loc 1 182 7 is_stmt 1 view .LVU14
 182:HANcoder_E407_TTA_CombineModel_V2.c ****         ((uint8_T)1U));
  84              		.loc 1 182 31 is_stmt 0 view .LVU15
  85 0014 94F83A30 		ldrb	r3, [r4, #58]	@ zero_extendqisi2
  86 0018 0133     		adds	r3, r3, #1
  87 001a DBB2     		uxtb	r3, r3
  88              	.L5:
  89 001c 1F49     		ldr	r1, .L15+12
 197:HANcoder_E407_TTA_CombineModel_V2.c **** 
  90              		.loc 1 197 26 view .LVU16
  91 001e 94F84120 		ldrb	r2, [r4, #65]	@ zero_extendqisi2
  92 0022 0B70     		strb	r3, [r1]
 194:HANcoder_E407_TTA_CombineModel_V2.c **** 
  93              		.loc 1 194 5 is_stmt 1 view .LVU17
 197:HANcoder_E407_TTA_CombineModel_V2.c **** 
  94              		.loc 1 197 17 is_stmt 0 view .LVU18
  95 0024 1E49     		ldr	r1, .L15+16
 212:HANcoder_E407_TTA_CombineModel_V2.c ****     {
  96              		.loc 1 212 39 view .LVU19
  97 0026 1F4E     		ldr	r6, .L15+20
 194:HANcoder_E407_TTA_CombineModel_V2.c **** 
  98              		.loc 1 194 25 view .LVU20
  99 0028 84F83A30 		strb	r3, [r4, #58]
 197:HANcoder_E407_TTA_CombineModel_V2.c **** 
 100              		.loc 1 197 5 is_stmt 1 view .LVU21
 207:HANcoder_E407_TTA_CombineModel_V2.c **** 
 101              		.loc 1 207 38 is_stmt 0 view .LVU22
 102 002c 9A42     		cmp	r2, r3
 197:HANcoder_E407_TTA_CombineModel_V2.c **** 
 103              		.loc 1 197 17 view .LVU23
 104 002e 0A70     		strb	r2, [r1]
 202:HANcoder_E407_TTA_CombineModel_V2.c **** 
 105              		.loc 1 202 5 is_stmt 1 view .LVU24
 106              	.LVL0:
 207:HANcoder_E407_TTA_CombineModel_V2.c **** 
 107              		.loc 1 207 5 view .LVU25
 207:HANcoder_E407_TTA_CombineModel_V2.c **** 
 108              		.loc 1 207 15 is_stmt 0 view .LVU26
 109 0030 94BF     		ite	ls
 110 0032 4FF00108 		movls	r8, #1
 111 0036 4FF00008 		movhi	r8, #0
 112              	.LVL1:
 212:HANcoder_E407_TTA_CombineModel_V2.c ****     {
 113              		.loc 1 212 5 is_stmt 1 view .LVU27
 212:HANcoder_E407_TTA_CombineModel_V2.c ****     {
 114              		.loc 1 212 8 is_stmt 0 view .LVU28
 115 003a 17D8     		bhi	.L6
 212:HANcoder_E407_TTA_CombineModel_V2.c ****     {
 116              		.loc 1 212 19 discriminator 1 view .LVU29
 117 003c 737B     		ldrb	r3, [r6, #13]	@ zero_extendqisi2
 118 003e 012B     		cmp	r3, #1
 119 0040 14D0     		beq	.L6
 220:HANcoder_E407_TTA_CombineModel_V2.c ****         /* Switch: '<S16>/Switch' incorporates:
 120              		.loc 1 220 7 is_stmt 1 view .LVU30
 220:HANcoder_E407_TTA_CombineModel_V2.c ****         /* Switch: '<S16>/Switch' incorporates:
 121              		.loc 1 220 26 is_stmt 0 view .LVU31
 122 0042 194B     		ldr	r3, .L15+24
 220:HANcoder_E407_TTA_CombineModel_V2.c ****         /* Switch: '<S16>/Switch' incorporates:
 123              		.loc 1 220 18 view .LVU32
 124 0044 94F83B70 		ldrb	r7, [r4, #59]	@ zero_extendqisi2
 220:HANcoder_E407_TTA_CombineModel_V2.c ****         /* Switch: '<S16>/Switch' incorporates:
 125              		.loc 1 220 26 view .LVU33
 126 0048 D3E90001 		ldrd	r0, [r3]
 127 004c FFF7FEFF 		bl	__aeabi_d2uiz
 128              	.LVL2:
 220:HANcoder_E407_TTA_CombineModel_V2.c ****         /* Switch: '<S16>/Switch' incorporates:
 129              		.loc 1 220 10 view .LVU34
 130 0050 C0B2     		uxtb	r0, r0
 131 0052 B842     		cmp	r0, r7
 226:HANcoder_E407_TTA_CombineModel_V2.c ****       } else {
 132              		.loc 1 226 9 is_stmt 1 view .LVU35
 226:HANcoder_E407_TTA_CombineModel_V2.c ****       } else {
 133              		.loc 1 226 24 is_stmt 0 view .LVU36
 134 0054 88BF     		it	hi
 135 0056 7B1C     		addhi	r3, r7, #1
 136 0058 144A     		ldr	r2, .L15+28
 137 005a 8CBF     		ite	hi
 138 005c DBB2     		uxtbhi	r3, r3
 231:HANcoder_E407_TTA_CombineModel_V2.c ****       }
 139              		.loc 1 231 22 view .LVU37
 140 005e 0123     		movls	r3, #1
 237:HANcoder_E407_TTA_CombineModel_V2.c **** 
 141              		.loc 1 237 20 view .LVU38
 142 0060 84F83B30 		strb	r3, [r4, #59]
 143 0064 1370     		strb	r3, [r2]
 237:HANcoder_E407_TTA_CombineModel_V2.c **** 
 144              		.loc 1 237 7 is_stmt 1 view .LVU39
 242:HANcoder_E407_TTA_CombineModel_V2.c ****     }
 145              		.loc 1 242 7 view .LVU40
 242:HANcoder_E407_TTA_CombineModel_V2.c ****     }
 146              		.loc 1 242 27 is_stmt 0 view .LVU41
 147 0066 0023     		movs	r3, #0
 148 0068 84F83A30 		strb	r3, [r4, #58]
 149              	.L6:
 245:HANcoder_E407_TTA_CombineModel_V2.c **** 
 150              		.loc 1 245 5 is_stmt 1 view .LVU42
 250:HANcoder_E407_TTA_CombineModel_V2.c **** 
 151              		.loc 1 250 32 is_stmt 0 view .LVU43
 152 006c 0720     		movs	r0, #7
 245:HANcoder_E407_TTA_CombineModel_V2.c **** 
 153              		.loc 1 245 48 view .LVU44
 154 006e 86F80D80 		strb	r8, [r6, #13]
 250:HANcoder_E407_TTA_CombineModel_V2.c **** 
 155              		.loc 1 250 5 is_stmt 1 view .LVU45
 250:HANcoder_E407_TTA_CombineModel_V2.c **** 
 156              		.loc 1 250 32 is_stmt 0 view .LVU46
 157 0072 FFF7FEFF 		bl	TimeoutGetLastEventCounter
 158              	.LVL3:
 255:HANcoder_E407_TTA_CombineModel_V2.c **** 
 159              		.loc 1 255 5 is_stmt 1 view .LVU47
 255:HANcoder_E407_TTA_CombineModel_V2.c **** 
 160              		.loc 1 255 15 is_stmt 0 view .LVU48
 161 0076 00F57A71 		add	r1, r0, #1000
 162 007a 89B2     		uxth	r1, r1
 255:HANcoder_E407_TTA_CombineModel_V2.c **** 
 163              		.loc 1 255 13 view .LVU49
 164 007c 6981     		strh	r1, [r5, #10]	@ movhi
 261:HANcoder_E407_TTA_CombineModel_V2.c ****       ((uint8_T)3U));
 165              		.loc 1 261 5 is_stmt 1 view .LVU50
 166 007e 0322     		movs	r2, #3
 167              	.LBE62:
 264:HANcoder_E407_TTA_CombineModel_V2.c **** 
 168              		.loc 1 264 1 is_stmt 0 view .LVU51
 169 0080 BDE8F041 		pop	{r4, r5, r6, r7, r8, lr}
 170              		.cfi_remember_state
 171              		.cfi_restore 14
 172              		.cfi_restore 8
 173              		.cfi_restore 7
 174              		.cfi_restore 6
 175              		.cfi_restore 5
 176              		.cfi_restore 4
 177              		.cfi_def_cfa_offset 0
 178              	.LVL4:
 179              	.LBB63:
 261:HANcoder_E407_TTA_CombineModel_V2.c ****       ((uint8_T)3U));
 180              		.loc 1 261 5 view .LVU52
 181 0084 0720     		movs	r0, #7
 182              	.LVL5:
 261:HANcoder_E407_TTA_CombineModel_V2.c ****       ((uint8_T)3U));
 183              		.loc 1 261 5 view .LVU53
 184 0086 FFF7FEBF 		b	TimeoutScheduleCompareEvent
 185              	.LVL6:
 186              	.L4:
 187              		.cfi_restore_state
 188:HANcoder_E407_TTA_CombineModel_V2.c ****     }
 188              		.loc 1 188 7 is_stmt 1 view .LVU54
 188:HANcoder_E407_TTA_CombineModel_V2.c ****     }
 189              		.loc 1 188 38 is_stmt 0 view .LVU55
 190 008a 94F83A30 		ldrb	r3, [r4, #58]	@ zero_extendqisi2
 191 008e C5E7     		b	.L5
 192              	.L16:
 193              		.align	2
 194              	.L15:
 195 0090 00000000 		.word	rtB
 196 0094 00000000 		.word	canActive
 197 0098 00000000 		.word	rtDWork
 198 009c 00000000 		.word	local_ticks_interrupt
 199 00a0 00000000 		.word	setSlotTime
 200 00a4 00000000 		.word	rtPrevZCSigState
 201 00a8 00000000 		.word	matrixRows
 202 00ac 00000000 		.word	slotSelected
 203              	.LBE63:
 204              		.cfi_endproc
 205              	.LFE113:
 207              		.section	.text.TimeoutOverflowIRQ_TIMEOUT_MODULE_TIM4,"ax",%progbits
 208              		.align	1
 209              		.p2align 2,,3
 210              		.global	TimeoutOverflowIRQ_TIMEOUT_MODULE_TIM4
 211              		.syntax unified
 212              		.thumb
 213              		.thumb_func
 215              	TimeoutOverflowIRQ_TIMEOUT_MODULE_TIM4:
 216              	.LFB132:
 217              		.cfi_startproc
 269:HANcoder_E407_TTA_CombineModel_V2.c **** 
 270:HANcoder_E407_TTA_CombineModel_V2.c **** void TimeoutOverflowIRQ_TIMEOUT_MODULE_TIM4(void)
 218              		.loc 1 270 6 is_stmt 1 view -0
 219              		@ args = 0, pretend = 0, frame = 0
 220              		@ frame_needed = 0, uses_anonymous_args = 0
 221              		@ link register save eliminated.
 222 0000 7047     		bx	lr
 223              		.cfi_endproc
 224              	.LFE132:
 226 0002 00BF     		.section	.text.ByteSwap_x,"ax",%progbits
 227              		.align	1
 228              		.p2align 2,,3
 229              		.global	ByteSwap_x
 230              		.syntax unified
 231              		.thumb
 232              		.thumb_func
 234              	ByteSwap_x:
 235              	.LVL7:
 236              	.LFB112:
 155:HANcoder_E407_TTA_CombineModel_V2.c ****   int i = 0;
 237              		.loc 1 155 1 view -0
 238              		.cfi_startproc
 239              		@ args = 0, pretend = 0, frame = 0
 240              		@ frame_needed = 0, uses_anonymous_args = 0
 156:HANcoder_E407_TTA_CombineModel_V2.c ****   int j = n-1;
 241              		.loc 1 156 3 view .LVU58
 157:HANcoder_E407_TTA_CombineModel_V2.c ****   while (i<j) {
 242              		.loc 1 157 3 view .LVU59
 158:HANcoder_E407_TTA_CombineModel_V2.c ****     swap(&b[i], &b[j]);
 243              		.loc 1 158 3 view .LVU60
 158:HANcoder_E407_TTA_CombineModel_V2.c ****     swap(&b[i], &b[j]);
 244              		.loc 1 158 11 view .LVU61
 157:HANcoder_E407_TTA_CombineModel_V2.c ****   while (i<j) {
 245              		.loc 1 157 12 is_stmt 0 view .LVU62
 246 0000 4B1E     		subs	r3, r1, #1
 247              	.LVL8:
 158:HANcoder_E407_TTA_CombineModel_V2.c ****     swap(&b[i], &b[j]);
 248              		.loc 1 158 11 view .LVU63
 249 0002 002B     		cmp	r3, #0
 250 0004 18DD     		ble	.L23
 155:HANcoder_E407_TTA_CombineModel_V2.c ****   int i = 0;
 251              		.loc 1 155 1 view .LVU64
 252 0006 70B5     		push	{r4, r5, r6, lr}
 253              		.cfi_def_cfa_offset 16
 254              		.cfi_offset 4, -16
 255              		.cfi_offset 5, -12
 256              		.cfi_offset 6, -8
 257              		.cfi_offset 14, -4
 258 0008 00F1FF3C 		add	ip, r0, #-1
 259 000c 00EB010E 		add	lr, r0, r1
 158:HANcoder_E407_TTA_CombineModel_V2.c ****     swap(&b[i], &b[j]);
 260              		.loc 1 158 11 view .LVU65
 261 0010 6FF00106 		mvn	r6, #1
 262              	.LVL9:
 263              	.L20:
 159:HANcoder_E407_TTA_CombineModel_V2.c ****     i++, j--;
 264              		.loc 1 159 5 is_stmt 1 view .LVU66
 265              	.LBB64:
 266              	.LBI64:
 142:HANcoder_E407_TTA_CombineModel_V2.c **** {
 267              		.loc 1 142 13 view .LVU67
 268              	.LBB65:
 144:HANcoder_E407_TTA_CombineModel_V2.c ****   *a = *b;
 269              		.loc 1 144 3 view .LVU68
 270 0014 6246     		mov	r2, ip
 144:HANcoder_E407_TTA_CombineModel_V2.c ****   *a = *b;
 271              		.loc 1 144 17 is_stmt 0 view .LVU69
 272 0016 1CF8014F 		ldrb	r4, [ip, #1]!	@ zero_extendqisi2
 273              	.LVL10:
 145:HANcoder_E407_TTA_CombineModel_V2.c ****   *b = i;
 274              		.loc 1 145 3 is_stmt 1 view .LVU70
 145:HANcoder_E407_TTA_CombineModel_V2.c ****   *b = i;
 275              		.loc 1 145 8 is_stmt 0 view .LVU71
 276 001a 1EF8015D 		ldrb	r5, [lr, #-1]!	@ zero_extendqisi2
 277              	.LVL11:
 145:HANcoder_E407_TTA_CombineModel_V2.c ****   *b = i;
 278              		.loc 1 145 6 view .LVU72
 279 001e 8CF80050 		strb	r5, [ip]
 146:HANcoder_E407_TTA_CombineModel_V2.c **** }                                      /*** end of swap ***/
 280              		.loc 1 146 3 is_stmt 1 view .LVU73
 281              	.LBE65:
 282              	.LBE64:
 158:HANcoder_E407_TTA_CombineModel_V2.c ****     swap(&b[i], &b[j]);
 283              		.loc 1 158 11 is_stmt 0 view .LVU74
 284 0022 A6EB0C03 		sub	r3, r6, ip
 285 0026 0232     		adds	r2, r2, #2
 286              	.LVL12:
 158:HANcoder_E407_TTA_CombineModel_V2.c ****     swap(&b[i], &b[j]);
 287              		.loc 1 158 11 view .LVU75
 288 0028 0344     		add	r3, r3, r0
 289 002a 121A     		subs	r2, r2, r0
 290              	.LVL13:
 158:HANcoder_E407_TTA_CombineModel_V2.c ****     swap(&b[i], &b[j]);
 291              		.loc 1 158 11 view .LVU76
 292 002c 0B44     		add	r3, r3, r1
 293 002e 9A42     		cmp	r2, r3
 294              	.LBB67:
 295              	.LBB66:
 146:HANcoder_E407_TTA_CombineModel_V2.c **** }                                      /*** end of swap ***/
 296              		.loc 1 146 6 view .LVU77
 297 0030 8EF80040 		strb	r4, [lr]
 298              	.LVL14:
 146:HANcoder_E407_TTA_CombineModel_V2.c **** }                                      /*** end of swap ***/
 299              		.loc 1 146 6 view .LVU78
 300              	.LBE66:
 301              	.LBE67:
 160:HANcoder_E407_TTA_CombineModel_V2.c ****   }
 302              		.loc 1 160 5 is_stmt 1 view .LVU79
 158:HANcoder_E407_TTA_CombineModel_V2.c ****     swap(&b[i], &b[j]);
 303              		.loc 1 158 11 view .LVU80
 304 0034 EEDB     		blt	.L20
 162:HANcoder_E407_TTA_CombineModel_V2.c **** 
 305              		.loc 1 162 1 is_stmt 0 view .LVU81
 306 0036 70BD     		pop	{r4, r5, r6, pc}
 307              	.LVL15:
 308              	.L23:
 309              		.cfi_def_cfa_offset 0
 310              		.cfi_restore 4
 311              		.cfi_restore 5
 312              		.cfi_restore 6
 313              		.cfi_restore 14
 162:HANcoder_E407_TTA_CombineModel_V2.c **** 
 314              		.loc 1 162 1 view .LVU82
 315 0038 7047     		bx	lr
 316              		.cfi_endproc
 317              	.LFE112:
 319 003a 00BF     		.section	.text.EnabledSubsystem,"ax",%progbits
 320              		.align	1
 321              		.p2align 2,,3
 322              		.global	EnabledSubsystem
 323              		.syntax unified
 324              		.thumb
 325              		.thumb_func
 327              	EnabledSubsystem:
 328              	.LVL16:
 329              	.LFB116:
 271:HANcoder_E407_TTA_CombineModel_V2.c **** {
 272:HANcoder_E407_TTA_CombineModel_V2.c **** }
 273:HANcoder_E407_TTA_CombineModel_V2.c **** 
 274:HANcoder_E407_TTA_CombineModel_V2.c **** /*
 275:HANcoder_E407_TTA_CombineModel_V2.c ****  * Output and update for enable system:
 276:HANcoder_E407_TTA_CombineModel_V2.c ****  *    '<S37>/Enabled Subsystem'
 277:HANcoder_E407_TTA_CombineModel_V2.c ****  *    '<S40>/Enabled Subsystem'
 278:HANcoder_E407_TTA_CombineModel_V2.c ****  *    '<S43>/Enabled Subsystem'
 279:HANcoder_E407_TTA_CombineModel_V2.c ****  *    '<S118>/Enabled Subsystem'
 280:HANcoder_E407_TTA_CombineModel_V2.c ****  *    '<S134>/Enabled Subsystem'
 281:HANcoder_E407_TTA_CombineModel_V2.c ****  *    '<S143>/Enabled Subsystem'
 282:HANcoder_E407_TTA_CombineModel_V2.c ****  *    '<S171>/Enabled Subsystem'
 283:HANcoder_E407_TTA_CombineModel_V2.c ****  */
 284:HANcoder_E407_TTA_CombineModel_V2.c **** void EnabledSubsystem(int8_T rtu_Enable, uint8_T rtu_In1, rtB_EnabledSubsystem
 285:HANcoder_E407_TTA_CombineModel_V2.c ****                       *localB)
 286:HANcoder_E407_TTA_CombineModel_V2.c **** {
 330              		.loc 1 286 1 is_stmt 1 view -0
 331              		.cfi_startproc
 332              		@ args = 0, pretend = 0, frame = 0
 333              		@ frame_needed = 0, uses_anonymous_args = 0
 334              		@ link register save eliminated.
 287:HANcoder_E407_TTA_CombineModel_V2.c ****   /* Outputs for Enabled SubSystem: '<S37>/Enabled Subsystem' incorporates:
 288:HANcoder_E407_TTA_CombineModel_V2.c ****    *  EnablePort: '<S38>/Enable'
 289:HANcoder_E407_TTA_CombineModel_V2.c ****    */
 290:HANcoder_E407_TTA_CombineModel_V2.c ****   if (rtu_Enable > 0) {
 335              		.loc 1 290 3 view .LVU84
 336              		.loc 1 290 6 is_stmt 0 view .LVU85
 337 0000 0028     		cmp	r0, #0
 291:HANcoder_E407_TTA_CombineModel_V2.c ****     /* SignalConversion generated from: '<S38>/In1' */
 292:HANcoder_E407_TTA_CombineModel_V2.c ****     localB->In1 = rtu_In1;
 338              		.loc 1 292 5 is_stmt 1 view .LVU86
 339              		.loc 1 292 17 is_stmt 0 view .LVU87
 340 0002 C8BF     		it	gt
 341 0004 1170     		strbgt	r1, [r2]
 293:HANcoder_E407_TTA_CombineModel_V2.c ****   }
 294:HANcoder_E407_TTA_CombineModel_V2.c **** 
 295:HANcoder_E407_TTA_CombineModel_V2.c ****   /* End of Outputs for SubSystem: '<S37>/Enabled Subsystem' */
 296:HANcoder_E407_TTA_CombineModel_V2.c **** }
 342              		.loc 1 296 1 view .LVU88
 343 0006 7047     		bx	lr
 344              		.cfi_endproc
 345              	.LFE116:
 347              		.section	.text.MMBS1_RX_Disable,"ax",%progbits
 348              		.align	1
 349              		.p2align 2,,3
 350              		.global	MMBS1_RX_Disable
 351              		.syntax unified
 352              		.thumb
 353              		.thumb_func
 355              	MMBS1_RX_Disable:
 356              	.LVL17:
 357              	.LFB117:
 297:HANcoder_E407_TTA_CombineModel_V2.c **** 
 298:HANcoder_E407_TTA_CombineModel_V2.c **** /*
 299:HANcoder_E407_TTA_CombineModel_V2.c ****  * Disable for enable system:
 300:HANcoder_E407_TTA_CombineModel_V2.c ****  *    '<S8>/MMBS1_RX'
 301:HANcoder_E407_TTA_CombineModel_V2.c ****  *    '<S8>/SSTM1_RX'
 302:HANcoder_E407_TTA_CombineModel_V2.c ****  *    '<S8>/TRCK1_ID2_RX'
 303:HANcoder_E407_TTA_CombineModel_V2.c ****  *    '<S8>/TRCK1_RX'
 304:HANcoder_E407_TTA_CombineModel_V2.c ****  */
 305:HANcoder_E407_TTA_CombineModel_V2.c **** void MMBS1_RX_Disable(rtDW_MMBS1_RX *localDW)
 306:HANcoder_E407_TTA_CombineModel_V2.c **** {
 358              		.loc 1 306 1 is_stmt 1 view -0
 359              		.cfi_startproc
 360              		@ args = 0, pretend = 0, frame = 0
 361              		@ frame_needed = 0, uses_anonymous_args = 0
 362              		@ link register save eliminated.
 307:HANcoder_E407_TTA_CombineModel_V2.c ****   localDW->MMBS1_RX_MODE = false;
 363              		.loc 1 307 3 view .LVU90
 364              		.loc 1 307 26 is_stmt 0 view .LVU91
 365 0000 0023     		movs	r3, #0
 366 0002 0370     		strb	r3, [r0]
 308:HANcoder_E407_TTA_CombineModel_V2.c **** }
 367              		.loc 1 308 1 view .LVU92
 368 0004 7047     		bx	lr
 369              		.cfi_endproc
 370              	.LFE117:
 372 0006 00BF     		.section	.text.MMBS1_RX_Start,"ax",%progbits
 373              		.align	1
 374              		.p2align 2,,3
 375              		.global	MMBS1_RX_Start
 376              		.syntax unified
 377              		.thumb
 378              		.thumb_func
 380              	MMBS1_RX_Start:
 381              	.LVL18:
 382              	.LFB118:
 309:HANcoder_E407_TTA_CombineModel_V2.c **** 
 310:HANcoder_E407_TTA_CombineModel_V2.c **** /*
 311:HANcoder_E407_TTA_CombineModel_V2.c ****  * Start for enable system:
 312:HANcoder_E407_TTA_CombineModel_V2.c ****  *    '<S8>/MMBS1_RX'
 313:HANcoder_E407_TTA_CombineModel_V2.c ****  *    '<S8>/SSTM1_RX'
 314:HANcoder_E407_TTA_CombineModel_V2.c ****  *    '<S8>/TRCK1_ID2_RX'
 315:HANcoder_E407_TTA_CombineModel_V2.c ****  *    '<S8>/TRCK1_RX'
 316:HANcoder_E407_TTA_CombineModel_V2.c ****  */
 317:HANcoder_E407_TTA_CombineModel_V2.c **** void MMBS1_RX_Start(uint32_T rtu_In1)
 318:HANcoder_E407_TTA_CombineModel_V2.c **** {
 383              		.loc 1 318 1 is_stmt 1 view -0
 384              		.cfi_startproc
 385              		@ args = 0, pretend = 0, frame = 0
 386              		@ frame_needed = 0, uses_anonymous_args = 0
 387              		@ link register save eliminated.
 319:HANcoder_E407_TTA_CombineModel_V2.c ****   /* Start for M-S-Function: '<S37>/S-Function' */
 320:HANcoder_E407_TTA_CombineModel_V2.c **** 
 321:HANcoder_E407_TTA_CombineModel_V2.c ****   /* register a CAN storage buffer for the message with this ID */
 322:HANcoder_E407_TTA_CombineModel_V2.c ****   CanIoCreateMessageReceivedStorage(0, rtu_In1);
 388              		.loc 1 322 3 view .LVU94
 318:HANcoder_E407_TTA_CombineModel_V2.c ****   /* Start for M-S-Function: '<S37>/S-Function' */
 389              		.loc 1 318 1 is_stmt 0 view .LVU95
 390 0000 0146     		mov	r1, r0
 391              		.loc 1 322 3 view .LVU96
 392 0002 0020     		movs	r0, #0
 393              	.LVL19:
 394              		.loc 1 322 3 view .LVU97
 395 0004 FFF7FEBF 		b	CanIoCreateMessageReceivedStorage
 396              	.LVL20:
 397              		.loc 1 322 3 view .LVU98
 398              		.cfi_endproc
 399              	.LFE118:
 401              		.section	.text.MMBS1_RX,"ax",%progbits
 402              		.align	1
 403              		.p2align 2,,3
 404              		.global	MMBS1_RX
 405              		.syntax unified
 406              		.thumb
 407              		.thumb_func
 409              	MMBS1_RX:
 410              	.LVL21:
 411              	.LFB119:
 323:HANcoder_E407_TTA_CombineModel_V2.c **** }
 324:HANcoder_E407_TTA_CombineModel_V2.c **** 
 325:HANcoder_E407_TTA_CombineModel_V2.c **** /*
 326:HANcoder_E407_TTA_CombineModel_V2.c ****  * Outputs for enable system:
 327:HANcoder_E407_TTA_CombineModel_V2.c ****  *    '<S8>/MMBS1_RX'
 328:HANcoder_E407_TTA_CombineModel_V2.c ****  *    '<S8>/SSTM1_RX'
 329:HANcoder_E407_TTA_CombineModel_V2.c ****  *    '<S8>/TRCK1_ID2_RX'
 330:HANcoder_E407_TTA_CombineModel_V2.c ****  *    '<S8>/TRCK1_RX'
 331:HANcoder_E407_TTA_CombineModel_V2.c ****  */
 332:HANcoder_E407_TTA_CombineModel_V2.c **** void MMBS1_RX(boolean_T rtu_Enable, uint32_T rtu_In1, rtB_MMBS1_RX *localB,
 333:HANcoder_E407_TTA_CombineModel_V2.c ****               rtDW_MMBS1_RX *localDW)
 334:HANcoder_E407_TTA_CombineModel_V2.c **** {
 412              		.loc 1 334 1 is_stmt 1 view -0
 413              		.cfi_startproc
 414              		@ args = 0, pretend = 0, frame = 0
 415              		@ frame_needed = 0, uses_anonymous_args = 0
 335:HANcoder_E407_TTA_CombineModel_V2.c ****   /* local block i/o variables */
 336:HANcoder_E407_TTA_CombineModel_V2.c ****   uint8_T rtb_SFunction_o2_n;
 416              		.loc 1 336 3 view .LVU100
 337:HANcoder_E407_TTA_CombineModel_V2.c ****   uint8_T rtb_SFunction_o3_b;
 417              		.loc 1 337 3 view .LVU101
 338:HANcoder_E407_TTA_CombineModel_V2.c ****   uint8_T rtb_SFunction_o4_l;
 418              		.loc 1 338 3 view .LVU102
 339:HANcoder_E407_TTA_CombineModel_V2.c ****   uint8_T rtb_SFunction_o5_e;
 419              		.loc 1 339 3 view .LVU103
 340:HANcoder_E407_TTA_CombineModel_V2.c ****   uint8_T rtb_SFunction_o6_k;
 420              		.loc 1 340 3 view .LVU104
 341:HANcoder_E407_TTA_CombineModel_V2.c ****   uint8_T rtb_SFunction_o7_dj;
 421              		.loc 1 341 3 view .LVU105
 342:HANcoder_E407_TTA_CombineModel_V2.c ****   uint8_T rtb_SFunction_o8_n1;
 422              		.loc 1 342 3 view .LVU106
 343:HANcoder_E407_TTA_CombineModel_V2.c ****   uint8_T rtb_SFunction_o9_o;
 423              		.loc 1 343 3 view .LVU107
 344:HANcoder_E407_TTA_CombineModel_V2.c ****   int8_T rtb_SFunction_o1_g;
 424              		.loc 1 344 3 view .LVU108
 345:HANcoder_E407_TTA_CombineModel_V2.c **** 
 346:HANcoder_E407_TTA_CombineModel_V2.c ****   /* Outputs for Enabled SubSystem: '<S8>/MMBS1_RX' incorporates:
 347:HANcoder_E407_TTA_CombineModel_V2.c ****    *  EnablePort: '<S19>/Enable'
 348:HANcoder_E407_TTA_CombineModel_V2.c ****    */
 349:HANcoder_E407_TTA_CombineModel_V2.c ****   if (rtu_Enable) {
 425              		.loc 1 349 3 view .LVU109
 426              		.loc 1 349 6 is_stmt 0 view .LVU110
 427 0000 20B9     		cbnz	r0, .L42
 350:HANcoder_E407_TTA_CombineModel_V2.c ****     localDW->MMBS1_RX_MODE = true;
 351:HANcoder_E407_TTA_CombineModel_V2.c **** 
 352:HANcoder_E407_TTA_CombineModel_V2.c ****     /* M-S-Function: '<S37>/S-Function' */
 353:HANcoder_E407_TTA_CombineModel_V2.c **** 
 354:HANcoder_E407_TTA_CombineModel_V2.c ****     /* read the message data and store the new parameter */
 355:HANcoder_E407_TTA_CombineModel_V2.c ****     rtb_SFunction_o1_g = CanIoGetMessage(0, rtu_In1, NULL,
 356:HANcoder_E407_TTA_CombineModel_V2.c ****       &canRxData_0_rtu_In1.uint8_T_info[0], NULL);
 357:HANcoder_E407_TTA_CombineModel_V2.c **** 
 358:HANcoder_E407_TTA_CombineModel_V2.c ****     /* process the message data */
 359:HANcoder_E407_TTA_CombineModel_V2.c ****     if (rtb_SFunction_o1_g > 0) {
 360:HANcoder_E407_TTA_CombineModel_V2.c ****       /* read the data */
 361:HANcoder_E407_TTA_CombineModel_V2.c ****       rtb_SFunction_o2_n = canRxData_0_rtu_In1.uint8_T_info[0];
 362:HANcoder_E407_TTA_CombineModel_V2.c ****       rtb_SFunction_o3_b = canRxData_0_rtu_In1.uint8_T_info[1];
 363:HANcoder_E407_TTA_CombineModel_V2.c ****       rtb_SFunction_o4_l = canRxData_0_rtu_In1.uint8_T_info[2];
 364:HANcoder_E407_TTA_CombineModel_V2.c ****       rtb_SFunction_o5_e = canRxData_0_rtu_In1.uint8_T_info[3];
 365:HANcoder_E407_TTA_CombineModel_V2.c ****       rtb_SFunction_o6_k = canRxData_0_rtu_In1.uint8_T_info[4];
 366:HANcoder_E407_TTA_CombineModel_V2.c ****       rtb_SFunction_o7_dj = canRxData_0_rtu_In1.uint8_T_info[5];
 367:HANcoder_E407_TTA_CombineModel_V2.c ****       rtb_SFunction_o8_n1 = canRxData_0_rtu_In1.uint8_T_info[6];
 368:HANcoder_E407_TTA_CombineModel_V2.c ****       rtb_SFunction_o9_o = canRxData_0_rtu_In1.uint8_T_info[7];
 369:HANcoder_E407_TTA_CombineModel_V2.c ****     }
 370:HANcoder_E407_TTA_CombineModel_V2.c **** 
 371:HANcoder_E407_TTA_CombineModel_V2.c ****     /* Outputs for Enabled SubSystem: '<S37>/Enabled Subsystem' */
 372:HANcoder_E407_TTA_CombineModel_V2.c ****     EnabledSubsystem(rtb_SFunction_o1_g, rtb_SFunction_o2_n,
 373:HANcoder_E407_TTA_CombineModel_V2.c ****                      &localB->EnabledSubsystem_k);
 374:HANcoder_E407_TTA_CombineModel_V2.c **** 
 375:HANcoder_E407_TTA_CombineModel_V2.c ****     /* End of Outputs for SubSystem: '<S37>/Enabled Subsystem' */
 376:HANcoder_E407_TTA_CombineModel_V2.c ****   } else if (localDW->MMBS1_RX_MODE) {
 428              		.loc 1 376 10 is_stmt 1 view .LVU111
 429              		.loc 1 376 13 is_stmt 0 view .LVU112
 430 0002 1A78     		ldrb	r2, [r3]	@ zero_extendqisi2
 431              	.LVL22:
 432              		.loc 1 376 13 view .LVU113
 433 0004 0AB1     		cbz	r2, .L39
 377:HANcoder_E407_TTA_CombineModel_V2.c ****     MMBS1_RX_Disable(localDW);
 434              		.loc 1 377 5 is_stmt 1 view .LVU114
 435              	.LVL23:
 436              	.LBB78:
 437              	.LBI78:
 305:HANcoder_E407_TTA_CombineModel_V2.c **** {
 438              		.loc 1 305 6 view .LVU115
 439              	.LBB79:
 307:HANcoder_E407_TTA_CombineModel_V2.c **** }
 440              		.loc 1 307 3 view .LVU116
 307:HANcoder_E407_TTA_CombineModel_V2.c **** }
 441              		.loc 1 307 26 is_stmt 0 view .LVU117
 442 0006 1870     		strb	r0, [r3]
 443              	.LVL24:
 307:HANcoder_E407_TTA_CombineModel_V2.c **** }
 444              		.loc 1 307 26 view .LVU118
 445              	.LBE79:
 446              	.LBE78:
 378:HANcoder_E407_TTA_CombineModel_V2.c ****   }
 379:HANcoder_E407_TTA_CombineModel_V2.c **** 
 380:HANcoder_E407_TTA_CombineModel_V2.c ****   /* End of Outputs for SubSystem: '<S8>/MMBS1_RX' */
 381:HANcoder_E407_TTA_CombineModel_V2.c **** }
 447              		.loc 1 381 1 view .LVU119
 448 0008 7047     		bx	lr
 449              	.L39:
 450              		.loc 1 381 1 view .LVU120
 451 000a 7047     		bx	lr
 452              	.LVL25:
 453              	.L42:
 334:HANcoder_E407_TTA_CombineModel_V2.c ****   /* local block i/o variables */
 454              		.loc 1 334 1 view .LVU121
 455 000c 30B5     		push	{r4, r5, lr}
 456              		.cfi_def_cfa_offset 12
 457              		.cfi_offset 4, -12
 458              		.cfi_offset 5, -8
 459              		.cfi_offset 14, -4
 460              	.LBB80:
 461              	.LBB81:
 355:HANcoder_E407_TTA_CombineModel_V2.c ****       &canRxData_0_rtu_In1.uint8_T_info[0], NULL);
 462              		.loc 1 355 26 view .LVU122
 463 000e 084D     		ldr	r5, .L43
 464              	.LBE81:
 465              	.LBE80:
 334:HANcoder_E407_TTA_CombineModel_V2.c ****   /* local block i/o variables */
 466              		.loc 1 334 1 view .LVU123
 467 0010 83B0     		sub	sp, sp, #12
 468              		.cfi_def_cfa_offset 24
 469              	.LBB86:
 470              	.LBB84:
 350:HANcoder_E407_TTA_CombineModel_V2.c **** 
 471              		.loc 1 350 28 view .LVU124
 472 0012 0120     		movs	r0, #1
 473              	.LVL26:
 350:HANcoder_E407_TTA_CombineModel_V2.c **** 
 474              		.loc 1 350 28 view .LVU125
 475 0014 1446     		mov	r4, r2
 476              	.LVL27:
 350:HANcoder_E407_TTA_CombineModel_V2.c **** 
 477              		.loc 1 350 28 view .LVU126
 478              	.LBE84:
 479              	.LBI80:
 332:HANcoder_E407_TTA_CombineModel_V2.c ****               rtDW_MMBS1_RX *localDW)
 480              		.loc 1 332 6 is_stmt 1 view .LVU127
 481              	.LBB85:
 350:HANcoder_E407_TTA_CombineModel_V2.c **** 
 482              		.loc 1 350 5 view .LVU128
 355:HANcoder_E407_TTA_CombineModel_V2.c ****       &canRxData_0_rtu_In1.uint8_T_info[0], NULL);
 483              		.loc 1 355 26 is_stmt 0 view .LVU129
 484 0016 0022     		movs	r2, #0
 485              	.LVL28:
 350:HANcoder_E407_TTA_CombineModel_V2.c **** 
 486              		.loc 1 350 28 view .LVU130
 487 0018 1870     		strb	r0, [r3]
 355:HANcoder_E407_TTA_CombineModel_V2.c ****       &canRxData_0_rtu_In1.uint8_T_info[0], NULL);
 488              		.loc 1 355 5 is_stmt 1 view .LVU131
 355:HANcoder_E407_TTA_CombineModel_V2.c ****       &canRxData_0_rtu_In1.uint8_T_info[0], NULL);
 489              		.loc 1 355 26 is_stmt 0 view .LVU132
 490 001a 0092     		str	r2, [sp]
 491 001c 2B46     		mov	r3, r5
 492              	.LVL29:
 355:HANcoder_E407_TTA_CombineModel_V2.c ****       &canRxData_0_rtu_In1.uint8_T_info[0], NULL);
 493              		.loc 1 355 26 view .LVU133
 494 001e 1046     		mov	r0, r2
 495 0020 FFF7FEFF 		bl	CanIoGetMessage
 496              	.LVL30:
 359:HANcoder_E407_TTA_CombineModel_V2.c ****       /* read the data */
 497              		.loc 1 359 5 is_stmt 1 view .LVU134
 359:HANcoder_E407_TTA_CombineModel_V2.c ****       /* read the data */
 498              		.loc 1 359 8 is_stmt 0 view .LVU135
 499 0024 0028     		cmp	r0, #0
 500 0026 01DD     		ble	.L30
 361:HANcoder_E407_TTA_CombineModel_V2.c ****       rtb_SFunction_o3_b = canRxData_0_rtu_In1.uint8_T_info[1];
 501              		.loc 1 361 7 is_stmt 1 view .LVU136
 502              	.LVL31:
 362:HANcoder_E407_TTA_CombineModel_V2.c ****       rtb_SFunction_o4_l = canRxData_0_rtu_In1.uint8_T_info[2];
 503              		.loc 1 362 7 view .LVU137
 363:HANcoder_E407_TTA_CombineModel_V2.c ****       rtb_SFunction_o5_e = canRxData_0_rtu_In1.uint8_T_info[3];
 504              		.loc 1 363 7 view .LVU138
 364:HANcoder_E407_TTA_CombineModel_V2.c ****       rtb_SFunction_o6_k = canRxData_0_rtu_In1.uint8_T_info[4];
 505              		.loc 1 364 7 view .LVU139
 365:HANcoder_E407_TTA_CombineModel_V2.c ****       rtb_SFunction_o7_dj = canRxData_0_rtu_In1.uint8_T_info[5];
 506              		.loc 1 365 7 view .LVU140
 366:HANcoder_E407_TTA_CombineModel_V2.c ****       rtb_SFunction_o8_n1 = canRxData_0_rtu_In1.uint8_T_info[6];
 507              		.loc 1 366 7 view .LVU141
 367:HANcoder_E407_TTA_CombineModel_V2.c ****       rtb_SFunction_o9_o = canRxData_0_rtu_In1.uint8_T_info[7];
 508              		.loc 1 367 7 view .LVU142
 368:HANcoder_E407_TTA_CombineModel_V2.c ****     }
 509              		.loc 1 368 7 view .LVU143
 372:HANcoder_E407_TTA_CombineModel_V2.c ****                      &localB->EnabledSubsystem_k);
 510              		.loc 1 372 5 view .LVU144
 511              	.LBB82:
 512              	.LBI82:
 284:HANcoder_E407_TTA_CombineModel_V2.c ****                       *localB)
 513              		.loc 1 284 6 view .LVU145
 514              	.LBB83:
 290:HANcoder_E407_TTA_CombineModel_V2.c ****     /* SignalConversion generated from: '<S38>/In1' */
 515              		.loc 1 290 3 view .LVU146
 292:HANcoder_E407_TTA_CombineModel_V2.c ****   }
 516              		.loc 1 292 5 view .LVU147
 292:HANcoder_E407_TTA_CombineModel_V2.c ****   }
 517              		.loc 1 292 17 is_stmt 0 view .LVU148
 518 0028 2B78     		ldrb	r3, [r5]	@ zero_extendqisi2
 519 002a 2370     		strb	r3, [r4]
 520              	.LVL32:
 521              	.L30:
 292:HANcoder_E407_TTA_CombineModel_V2.c ****   }
 522              		.loc 1 292 17 view .LVU149
 523              	.LBE83:
 524              	.LBE82:
 525              	.LBE85:
 526              	.LBE86:
 527              		.loc 1 381 1 view .LVU150
 528 002c 03B0     		add	sp, sp, #12
 529              		.cfi_def_cfa_offset 12
 530              		@ sp needed
 531 002e 30BD     		pop	{r4, r5, pc}
 532              	.LVL33:
 533              	.L44:
 534              		.loc 1 381 1 view .LVU151
 535              		.align	2
 536              	.L43:
 537 0030 00000000 		.word	canRxData_0_rtu_In1
 538              		.cfi_endproc
 539              	.LFE119:
 541              		.section	.text.MMBS1_TX,"ax",%progbits
 542              		.align	1
 543              		.p2align 2,,3
 544              		.global	MMBS1_TX
 545              		.syntax unified
 546              		.thumb
 547              		.thumb_func
 549              	MMBS1_TX:
 550              	.LVL34:
 551              	.LFB120:
 382:HANcoder_E407_TTA_CombineModel_V2.c **** 
 383:HANcoder_E407_TTA_CombineModel_V2.c **** /*
 384:HANcoder_E407_TTA_CombineModel_V2.c ****  * Output and update for trigger system:
 385:HANcoder_E407_TTA_CombineModel_V2.c ****  *    '<S8>/MMBS1_TX'
 386:HANcoder_E407_TTA_CombineModel_V2.c ****  *    '<S8>/SSTM1_TX'
 387:HANcoder_E407_TTA_CombineModel_V2.c ****  */
 388:HANcoder_E407_TTA_CombineModel_V2.c **** void MMBS1_TX(boolean_T rtu_Trigger, uint32_T rtu_In1, rtZCE_MMBS1_TX *localZCE)
 389:HANcoder_E407_TTA_CombineModel_V2.c **** {
 552              		.loc 1 389 1 is_stmt 1 view -0
 553              		.cfi_startproc
 554              		@ args = 0, pretend = 0, frame = 0
 555              		@ frame_needed = 0, uses_anonymous_args = 0
 390:HANcoder_E407_TTA_CombineModel_V2.c ****   /* Outputs for Triggered SubSystem: '<S8>/MMBS1_TX' incorporates:
 391:HANcoder_E407_TTA_CombineModel_V2.c ****    *  TriggerPort: '<S20>/Trigger'
 392:HANcoder_E407_TTA_CombineModel_V2.c ****    */
 393:HANcoder_E407_TTA_CombineModel_V2.c ****   if (rtu_Trigger && (localZCE->MMBS1_TX_Trig_ZCE != POS_ZCSIG)) {
 556              		.loc 1 393 3 view .LVU153
 389:HANcoder_E407_TTA_CombineModel_V2.c ****   /* Outputs for Triggered SubSystem: '<S8>/MMBS1_TX' incorporates:
 557              		.loc 1 389 1 is_stmt 0 view .LVU154
 558 0000 38B5     		push	{r3, r4, r5, lr}
 559              		.cfi_def_cfa_offset 16
 560              		.cfi_offset 3, -16
 561              		.cfi_offset 4, -12
 562              		.cfi_offset 5, -8
 563              		.cfi_offset 14, -4
 389:HANcoder_E407_TTA_CombineModel_V2.c ****   /* Outputs for Triggered SubSystem: '<S8>/MMBS1_TX' incorporates:
 564              		.loc 1 389 1 view .LVU155
 565 0002 1546     		mov	r5, r2
 566              		.loc 1 393 6 view .LVU156
 567 0004 0446     		mov	r4, r0
 568 0006 10B1     		cbz	r0, .L46
 569              		.loc 1 393 19 discriminator 1 view .LVU157
 570 0008 1378     		ldrb	r3, [r2]	@ zero_extendqisi2
 571 000a 012B     		cmp	r3, #1
 572 000c 01D1     		bne	.L54
 573              	.L46:
 394:HANcoder_E407_TTA_CombineModel_V2.c ****     /* Update for M-S-Function: '<S39>/S-Function' */
 395:HANcoder_E407_TTA_CombineModel_V2.c ****     {
 396:HANcoder_E407_TTA_CombineModel_V2.c ****       /* prepare the data */
 397:HANcoder_E407_TTA_CombineModel_V2.c ****       canTxData.uint8_T_info[0] = 0U;
 398:HANcoder_E407_TTA_CombineModel_V2.c **** 
 399:HANcoder_E407_TTA_CombineModel_V2.c ****       /* send the data */
 400:HANcoder_E407_TTA_CombineModel_V2.c ****       CanTransmit(0, rtu_In1, 1, &canTxData.uint8_T_info[0]);
 401:HANcoder_E407_TTA_CombineModel_V2.c ****     }
 402:HANcoder_E407_TTA_CombineModel_V2.c ****   }
 403:HANcoder_E407_TTA_CombineModel_V2.c **** 
 404:HANcoder_E407_TTA_CombineModel_V2.c ****   localZCE->MMBS1_TX_Trig_ZCE = rtu_Trigger;
 574              		.loc 1 404 3 is_stmt 1 view .LVU158
 575              		.loc 1 404 31 is_stmt 0 view .LVU159
 576 000e 2C70     		strb	r4, [r5]
 405:HANcoder_E407_TTA_CombineModel_V2.c **** 
 406:HANcoder_E407_TTA_CombineModel_V2.c ****   /* End of Outputs for SubSystem: '<S8>/MMBS1_TX' */
 407:HANcoder_E407_TTA_CombineModel_V2.c **** }
 577              		.loc 1 407 1 view .LVU160
 578 0010 38BD     		pop	{r3, r4, r5, pc}
 579              	.L54:
 397:HANcoder_E407_TTA_CombineModel_V2.c **** 
 580              		.loc 1 397 7 is_stmt 1 view .LVU161
 397:HANcoder_E407_TTA_CombineModel_V2.c **** 
 581              		.loc 1 397 33 is_stmt 0 view .LVU162
 582 0012 044B     		ldr	r3, .L55
 583 0014 0020     		movs	r0, #0
 584              	.LVL35:
 400:HANcoder_E407_TTA_CombineModel_V2.c ****     }
 585              		.loc 1 400 7 view .LVU163
 586 0016 0122     		movs	r2, #1
 587              	.LVL36:
 397:HANcoder_E407_TTA_CombineModel_V2.c **** 
 588              		.loc 1 397 33 view .LVU164
 589 0018 1870     		strb	r0, [r3]
 400:HANcoder_E407_TTA_CombineModel_V2.c ****     }
 590              		.loc 1 400 7 is_stmt 1 view .LVU165
 591 001a FFF7FEFF 		bl	CanTransmit
 592              	.LVL37:
 404:HANcoder_E407_TTA_CombineModel_V2.c **** 
 593              		.loc 1 404 3 view .LVU166
 404:HANcoder_E407_TTA_CombineModel_V2.c **** 
 594              		.loc 1 404 31 is_stmt 0 view .LVU167
 595 001e 2C70     		strb	r4, [r5]
 596              		.loc 1 407 1 view .LVU168
 597 0020 38BD     		pop	{r3, r4, r5, pc}
 598              	.LVL38:
 599              	.L56:
 600              		.loc 1 407 1 view .LVU169
 601 0022 00BF     		.align	2
 602              	.L55:
 603 0024 00000000 		.word	canTxData
 604              		.cfi_endproc
 605              	.LFE120:
 607              		.section	.text.MovingAverage_Init,"ax",%progbits
 608              		.align	1
 609              		.p2align 2,,3
 610              		.global	MovingAverage_Init
 611              		.syntax unified
 612              		.thumb
 613              		.thumb_func
 615              	MovingAverage_Init:
 616              	.LVL39:
 617              	.LFB122:
 408:HANcoder_E407_TTA_CombineModel_V2.c **** 
 409:HANcoder_E407_TTA_CombineModel_V2.c **** static void SystemCore_setup(dsp_simulink_MovingAverage *obj)
 410:HANcoder_E407_TTA_CombineModel_V2.c **** {
 411:HANcoder_E407_TTA_CombineModel_V2.c ****   obj->isSetupComplete = false;
 412:HANcoder_E407_TTA_CombineModel_V2.c ****   obj->isInitialized = 1;
 413:HANcoder_E407_TTA_CombineModel_V2.c ****   obj->NumChannels = 1;
 414:HANcoder_E407_TTA_CombineModel_V2.c ****   obj->FrameLength = 1;
 415:HANcoder_E407_TTA_CombineModel_V2.c ****   obj->_pobj0.isInitialized = 0;
 416:HANcoder_E407_TTA_CombineModel_V2.c ****   obj->_pobj0.isInitialized = 0;
 417:HANcoder_E407_TTA_CombineModel_V2.c ****   obj->pStatistic = &obj->_pobj0;
 418:HANcoder_E407_TTA_CombineModel_V2.c ****   obj->isSetupComplete = true;
 419:HANcoder_E407_TTA_CombineModel_V2.c ****   obj->TunablePropsChanged = false;
 420:HANcoder_E407_TTA_CombineModel_V2.c **** }
 421:HANcoder_E407_TTA_CombineModel_V2.c **** 
 422:HANcoder_E407_TTA_CombineModel_V2.c **** /* System initialize for atomic system: */
 423:HANcoder_E407_TTA_CombineModel_V2.c **** void MovingAverage_Init(rtDW_MovingAverage *localDW)
 424:HANcoder_E407_TTA_CombineModel_V2.c **** {
 618              		.loc 1 424 1 is_stmt 1 view -0
 619              		.cfi_startproc
 620              		@ args = 0, pretend = 0, frame = 0
 621              		@ frame_needed = 0, uses_anonymous_args = 0
 425:HANcoder_E407_TTA_CombineModel_V2.c ****   g_dsp_internal_SlidingWindowAve *obj;
 622              		.loc 1 425 3 view .LVU171
 426:HANcoder_E407_TTA_CombineModel_V2.c ****   int32_T i;
 623              		.loc 1 426 3 view .LVU172
 427:HANcoder_E407_TTA_CombineModel_V2.c **** 
 428:HANcoder_E407_TTA_CombineModel_V2.c ****   /* InitializeConditions for MATLABSystem: '<S47>/Moving Average' */
 429:HANcoder_E407_TTA_CombineModel_V2.c ****   obj = localDW->obj.pStatistic;
 624              		.loc 1 429 3 view .LVU173
 424:HANcoder_E407_TTA_CombineModel_V2.c ****   g_dsp_internal_SlidingWindowAve *obj;
 625              		.loc 1 424 1 is_stmt 0 view .LVU174
 626 0000 38B5     		push	{r3, r4, r5, lr}
 627              		.cfi_def_cfa_offset 16
 628              		.cfi_offset 3, -16
 629              		.cfi_offset 4, -12
 630              		.cfi_offset 5, -8
 631              		.cfi_offset 14, -4
 632              		.loc 1 429 7 view .LVU175
 633 0002 C46A     		ldr	r4, [r0, #44]
 634              	.LVL40:
 430:HANcoder_E407_TTA_CombineModel_V2.c ****   if (obj->isInitialized == 1) {
 635              		.loc 1 430 3 is_stmt 1 view .LVU176
 636              		.loc 1 430 6 is_stmt 0 view .LVU177
 637 0004 2368     		ldr	r3, [r4]
 638 0006 012B     		cmp	r3, #1
 639 0008 00D0     		beq	.L60
 431:HANcoder_E407_TTA_CombineModel_V2.c ****     obj->pCumSum = 0.0F;
 432:HANcoder_E407_TTA_CombineModel_V2.c ****     for (i = 0; i < 59; i++) {
 433:HANcoder_E407_TTA_CombineModel_V2.c ****       obj->pCumSumRev[i] = 0.0F;
 434:HANcoder_E407_TTA_CombineModel_V2.c ****     }
 435:HANcoder_E407_TTA_CombineModel_V2.c **** 
 436:HANcoder_E407_TTA_CombineModel_V2.c ****     obj->pCumRevIndex = 1.0F;
 437:HANcoder_E407_TTA_CombineModel_V2.c ****     obj->pModValueRev = 0.0F;
 438:HANcoder_E407_TTA_CombineModel_V2.c ****   }
 439:HANcoder_E407_TTA_CombineModel_V2.c **** 
 440:HANcoder_E407_TTA_CombineModel_V2.c ****   /* End of InitializeConditions for MATLABSystem: '<S47>/Moving Average' */
 441:HANcoder_E407_TTA_CombineModel_V2.c **** }
 640              		.loc 1 441 1 view .LVU178
 641 000a 38BD     		pop	{r3, r4, r5, pc}
 642              	.LVL41:
 643              	.L60:
 431:HANcoder_E407_TTA_CombineModel_V2.c ****     obj->pCumSum = 0.0F;
 644              		.loc 1 431 5 is_stmt 1 view .LVU179
 431:HANcoder_E407_TTA_CombineModel_V2.c ****     obj->pCumSum = 0.0F;
 645              		.loc 1 431 18 is_stmt 0 view .LVU180
 646 000c 0025     		movs	r5, #0
 433:HANcoder_E407_TTA_CombineModel_V2.c ****     }
 647              		.loc 1 433 26 view .LVU181
 648 000e EC22     		movs	r2, #236
 431:HANcoder_E407_TTA_CombineModel_V2.c ****     obj->pCumSum = 0.0F;
 649              		.loc 1 431 18 view .LVU182
 650 0010 A560     		str	r5, [r4, #8]	@ float
 432:HANcoder_E407_TTA_CombineModel_V2.c ****       obj->pCumSumRev[i] = 0.0F;
 651              		.loc 1 432 5 is_stmt 1 view .LVU183
 652              	.LVL42:
 432:HANcoder_E407_TTA_CombineModel_V2.c ****       obj->pCumSumRev[i] = 0.0F;
 653              		.loc 1 432 19 view .LVU184
 433:HANcoder_E407_TTA_CombineModel_V2.c ****     }
 654              		.loc 1 433 26 is_stmt 0 view .LVU185
 655 0012 0021     		movs	r1, #0
 656 0014 04F10C00 		add	r0, r4, #12
 657              	.LVL43:
 433:HANcoder_E407_TTA_CombineModel_V2.c ****     }
 658              		.loc 1 433 26 view .LVU186
 659 0018 FFF7FEFF 		bl	memset
 660              	.LVL44:
 436:HANcoder_E407_TTA_CombineModel_V2.c ****     obj->pModValueRev = 0.0F;
 661              		.loc 1 436 5 is_stmt 1 view .LVU187
 436:HANcoder_E407_TTA_CombineModel_V2.c ****     obj->pModValueRev = 0.0F;
 662              		.loc 1 436 23 is_stmt 0 view .LVU188
 663 001c 4FF07E53 		mov	r3, #1065353216
 664 0020 C4F8F830 		str	r3, [r4, #248]	@ float
 437:HANcoder_E407_TTA_CombineModel_V2.c ****   }
 665              		.loc 1 437 5 is_stmt 1 view .LVU189
 437:HANcoder_E407_TTA_CombineModel_V2.c ****   }
 666              		.loc 1 437 23 is_stmt 0 view .LVU190
 667 0024 C4F8FC50 		str	r5, [r4, #252]	@ float
 668              		.loc 1 441 1 view .LVU191
 669 0028 38BD     		pop	{r3, r4, r5, pc}
 670              		.loc 1 441 1 view .LVU192
 671              		.cfi_endproc
 672              	.LFE122:
 674 002a 00BF     		.section	.text.MovingAverage_Start,"ax",%progbits
 675              		.align	1
 676              		.p2align 2,,3
 677              		.global	MovingAverage_Start
 678              		.syntax unified
 679              		.thumb
 680              		.thumb_func
 682              	MovingAverage_Start:
 683              	.LVL45:
 684              	.LFB123:
 442:HANcoder_E407_TTA_CombineModel_V2.c **** 
 443:HANcoder_E407_TTA_CombineModel_V2.c **** /* Start for atomic system: */
 444:HANcoder_E407_TTA_CombineModel_V2.c **** void MovingAverage_Start(rtDW_MovingAverage *localDW)
 445:HANcoder_E407_TTA_CombineModel_V2.c **** {
 685              		.loc 1 445 1 is_stmt 1 view -0
 686              		.cfi_startproc
 687              		@ args = 0, pretend = 0, frame = 0
 688              		@ frame_needed = 0, uses_anonymous_args = 0
 689              		@ link register save eliminated.
 446:HANcoder_E407_TTA_CombineModel_V2.c ****   /* Start for MATLABSystem: '<S47>/Moving Average' */
 447:HANcoder_E407_TTA_CombineModel_V2.c ****   localDW->obj.isInitialized = 0;
 690              		.loc 1 447 3 view .LVU194
 448:HANcoder_E407_TTA_CombineModel_V2.c ****   localDW->obj.NumChannels = -1;
 691              		.loc 1 448 3 view .LVU195
 449:HANcoder_E407_TTA_CombineModel_V2.c ****   localDW->obj.FrameLength = -1;
 692              		.loc 1 449 3 view .LVU196
 450:HANcoder_E407_TTA_CombineModel_V2.c ****   localDW->obj.matlabCodegenIsDeleted = false;
 693              		.loc 1 450 3 view .LVU197
 694              	.LBB87:
 695              	.LBB88:
 415:HANcoder_E407_TTA_CombineModel_V2.c ****   obj->_pobj0.isInitialized = 0;
 696              		.loc 1 415 29 is_stmt 0 view .LVU198
 697 0000 0246     		mov	r2, r0
 698              	.LBE88:
 699              	.LBE87:
 451:HANcoder_E407_TTA_CombineModel_V2.c ****   localDW->objisempty = true;
 700              		.loc 1 451 23 view .LVU199
 701 0002 0123     		movs	r3, #1
 450:HANcoder_E407_TTA_CombineModel_V2.c ****   localDW->obj.matlabCodegenIsDeleted = false;
 702              		.loc 1 450 39 view .LVU200
 703 0004 0021     		movs	r1, #0
 704              	.LBB91:
 705              	.LBB89:
 414:HANcoder_E407_TTA_CombineModel_V2.c ****   obj->_pobj0.isInitialized = 0;
 706              		.loc 1 414 20 view .LVU201
 707 0006 C0E90C33 		strd	r3, r3, [r0, #48]
 708              	.LBE89:
 709              	.LBE91:
 450:HANcoder_E407_TTA_CombineModel_V2.c ****   localDW->objisempty = true;
 710              		.loc 1 450 39 view .LVU202
 711 000a 0170     		strb	r1, [r0]
 712              		.loc 1 451 3 is_stmt 1 view .LVU203
 713              		.loc 1 451 23 is_stmt 0 view .LVU204
 714 000c 80F83831 		strb	r3, [r0, #312]
 452:HANcoder_E407_TTA_CombineModel_V2.c ****   SystemCore_setup(&localDW->obj);
 715              		.loc 1 452 3 is_stmt 1 view .LVU205
 716              	.LVL46:
 717              	.LBB92:
 718              	.LBI87:
 409:HANcoder_E407_TTA_CombineModel_V2.c **** {
 719              		.loc 1 409 13 view .LVU206
 720              	.LBB90:
 411:HANcoder_E407_TTA_CombineModel_V2.c ****   obj->isInitialized = 1;
 721              		.loc 1 411 3 view .LVU207
 412:HANcoder_E407_TTA_CombineModel_V2.c ****   obj->NumChannels = 1;
 722              		.loc 1 412 3 view .LVU208
 412:HANcoder_E407_TTA_CombineModel_V2.c ****   obj->NumChannels = 1;
 723              		.loc 1 412 22 is_stmt 0 view .LVU209
 724 0010 4360     		str	r3, [r0, #4]
 413:HANcoder_E407_TTA_CombineModel_V2.c ****   obj->FrameLength = 1;
 725              		.loc 1 413 3 is_stmt 1 view .LVU210
 415:HANcoder_E407_TTA_CombineModel_V2.c ****   obj->_pobj0.isInitialized = 0;
 726              		.loc 1 415 3 view .LVU211
 415:HANcoder_E407_TTA_CombineModel_V2.c ****   obj->_pobj0.isInitialized = 0;
 727              		.loc 1 415 29 is_stmt 0 view .LVU212
 728 0012 42F8381F 		str	r1, [r2, #56]!
 416:HANcoder_E407_TTA_CombineModel_V2.c ****   obj->pStatistic = &obj->_pobj0;
 729              		.loc 1 416 3 is_stmt 1 view .LVU213
 417:HANcoder_E407_TTA_CombineModel_V2.c ****   obj->isSetupComplete = true;
 730              		.loc 1 417 3 view .LVU214
 418:HANcoder_E407_TTA_CombineModel_V2.c ****   obj->TunablePropsChanged = false;
 731              		.loc 1 418 24 is_stmt 0 view .LVU215
 732 0016 0381     		strh	r3, [r0, #8]	@ movhi
 417:HANcoder_E407_TTA_CombineModel_V2.c ****   obj->isSetupComplete = true;
 733              		.loc 1 417 19 view .LVU216
 734 0018 C262     		str	r2, [r0, #44]
 418:HANcoder_E407_TTA_CombineModel_V2.c ****   obj->TunablePropsChanged = false;
 735              		.loc 1 418 3 is_stmt 1 view .LVU217
 419:HANcoder_E407_TTA_CombineModel_V2.c **** }
 736              		.loc 1 419 3 view .LVU218
 737              	.LVL47:
 419:HANcoder_E407_TTA_CombineModel_V2.c **** }
 738              		.loc 1 419 3 is_stmt 0 view .LVU219
 739              	.LBE90:
 740              	.LBE92:
 453:HANcoder_E407_TTA_CombineModel_V2.c **** }
 741              		.loc 1 453 1 view .LVU220
 742 001a 7047     		bx	lr
 743              		.cfi_endproc
 744              	.LFE123:
 746              		.section	.text.MovingAverage,"ax",%progbits
 747              		.align	1
 748              		.p2align 2,,3
 749              		.global	MovingAverage
 750              		.syntax unified
 751              		.thumb
 752              		.thumb_func
 754              	MovingAverage:
 755              	.LVL48:
 756              	.LFB124:
 454:HANcoder_E407_TTA_CombineModel_V2.c **** 
 455:HANcoder_E407_TTA_CombineModel_V2.c **** /* Output and update for atomic system: */
 456:HANcoder_E407_TTA_CombineModel_V2.c **** void MovingAverage(real32_T rtu_0, rtB_MovingAverage *localB, rtDW_MovingAverage
 457:HANcoder_E407_TTA_CombineModel_V2.c ****                    *localDW)
 458:HANcoder_E407_TTA_CombineModel_V2.c **** {
 757              		.loc 1 458 1 is_stmt 1 view -0
 758              		.cfi_startproc
 759              		@ args = 0, pretend = 0, frame = 240
 760              		@ frame_needed = 0, uses_anonymous_args = 0
 459:HANcoder_E407_TTA_CombineModel_V2.c ****   g_dsp_internal_SlidingWindowAve *obj;
 761              		.loc 1 459 3 view .LVU222
 460:HANcoder_E407_TTA_CombineModel_V2.c ****   int32_T i;
 762              		.loc 1 460 3 view .LVU223
 461:HANcoder_E407_TTA_CombineModel_V2.c ****   real32_T csumrev[59];
 763              		.loc 1 461 3 view .LVU224
 462:HANcoder_E407_TTA_CombineModel_V2.c ****   real32_T csum;
 764              		.loc 1 462 3 view .LVU225
 463:HANcoder_E407_TTA_CombineModel_V2.c ****   real32_T cumRevIndex;
 765              		.loc 1 463 3 view .LVU226
 464:HANcoder_E407_TTA_CombineModel_V2.c ****   real32_T modValueRev;
 766              		.loc 1 464 3 view .LVU227
 465:HANcoder_E407_TTA_CombineModel_V2.c ****   real32_T z;
 767              		.loc 1 465 3 view .LVU228
 466:HANcoder_E407_TTA_CombineModel_V2.c **** 
 467:HANcoder_E407_TTA_CombineModel_V2.c ****   /* MATLABSystem: '<S47>/Moving Average' */
 468:HANcoder_E407_TTA_CombineModel_V2.c ****   if (localDW->obj.TunablePropsChanged) {
 768              		.loc 1 468 3 view .LVU229
 458:HANcoder_E407_TTA_CombineModel_V2.c ****   g_dsp_internal_SlidingWindowAve *obj;
 769              		.loc 1 458 1 is_stmt 0 view .LVU230
 770 0000 2DE9F041 		push	{r4, r5, r6, r7, r8, lr}
 771              		.cfi_def_cfa_offset 24
 772              		.cfi_offset 4, -24
 773              		.cfi_offset 5, -20
 774              		.cfi_offset 6, -16
 775              		.cfi_offset 7, -12
 776              		.cfi_offset 8, -8
 777              		.cfi_offset 14, -4
 778 0004 2DED048B 		vpush.64	{d8, d9}
 779              		.cfi_def_cfa_offset 40
 780              		.cfi_offset 80, -40
 781              		.cfi_offset 81, -36
 782              		.cfi_offset 82, -32
 783              		.cfi_offset 83, -28
 784              		.loc 1 468 6 view .LVU231
 785 0008 537A     		ldrb	r3, [r2, #9]	@ zero_extendqisi2
 458:HANcoder_E407_TTA_CombineModel_V2.c ****   g_dsp_internal_SlidingWindowAve *obj;
 786              		.loc 1 458 1 view .LVU232
 787 000a 09EE100A 		vmov	s18, r0
 788 000e BCB0     		sub	sp, sp, #240
 789              		.cfi_def_cfa_offset 280
 458:HANcoder_E407_TTA_CombineModel_V2.c ****   g_dsp_internal_SlidingWindowAve *obj;
 790              		.loc 1 458 1 view .LVU233
 791 0010 0F46     		mov	r7, r1
 792              		.loc 1 468 6 view .LVU234
 793 0012 0BB1     		cbz	r3, .L63
 469:HANcoder_E407_TTA_CombineModel_V2.c ****     localDW->obj.TunablePropsChanged = false;
 794              		.loc 1 469 5 is_stmt 1 view .LVU235
 795              		.loc 1 469 38 is_stmt 0 view .LVU236
 796 0014 0023     		movs	r3, #0
 797 0016 5372     		strb	r3, [r2, #9]
 798              	.L63:
 470:HANcoder_E407_TTA_CombineModel_V2.c ****   }
 471:HANcoder_E407_TTA_CombineModel_V2.c **** 
 472:HANcoder_E407_TTA_CombineModel_V2.c ****   obj = localDW->obj.pStatistic;
 799              		.loc 1 472 3 is_stmt 1 view .LVU237
 800              		.loc 1 472 7 is_stmt 0 view .LVU238
 801 0018 D56A     		ldr	r5, [r2, #44]
 802              	.LVL49:
 473:HANcoder_E407_TTA_CombineModel_V2.c ****   if (obj->isInitialized != 1) {
 803              		.loc 1 473 3 is_stmt 1 view .LVU239
 804              		.loc 1 473 6 is_stmt 0 view .LVU240
 805 001a 2B68     		ldr	r3, [r5]
 806 001c 012B     		cmp	r3, #1
 807 001e 5FD0     		beq	.L64
 474:HANcoder_E407_TTA_CombineModel_V2.c ****     obj->isSetupComplete = false;
 808              		.loc 1 474 5 is_stmt 1 view .LVU241
 475:HANcoder_E407_TTA_CombineModel_V2.c ****     obj->isInitialized = 1;
 809              		.loc 1 475 5 view .LVU242
 476:HANcoder_E407_TTA_CombineModel_V2.c ****     obj->pCumSum = 0.0F;
 810              		.loc 1 476 18 is_stmt 0 view .LVU243
 811 0020 DFED498A 		vldr.32	s17, .L82
 475:HANcoder_E407_TTA_CombineModel_V2.c ****     obj->isInitialized = 1;
 812              		.loc 1 475 24 view .LVU244
 813 0024 0123     		movs	r3, #1
 477:HANcoder_E407_TTA_CombineModel_V2.c ****     for (i = 0; i < 59; i++) {
 478:HANcoder_E407_TTA_CombineModel_V2.c ****       obj->pCumSumRev[i] = 0.0F;
 479:HANcoder_E407_TTA_CombineModel_V2.c ****     }
 480:HANcoder_E407_TTA_CombineModel_V2.c **** 
 481:HANcoder_E407_TTA_CombineModel_V2.c ****     obj->pCumRevIndex = 1.0F;
 482:HANcoder_E407_TTA_CombineModel_V2.c ****     obj->pModValueRev = 0.0F;
 483:HANcoder_E407_TTA_CombineModel_V2.c ****     obj->isSetupComplete = true;
 484:HANcoder_E407_TTA_CombineModel_V2.c ****     obj->pCumSum = 0.0F;
 485:HANcoder_E407_TTA_CombineModel_V2.c ****     for (i = 0; i < 59; i++) {
 486:HANcoder_E407_TTA_CombineModel_V2.c ****       obj->pCumSumRev[i] = 0.0F;
 814              		.loc 1 486 26 view .LVU245
 815 0026 05F10C08 		add	r8, r5, #12
 481:HANcoder_E407_TTA_CombineModel_V2.c ****     obj->pModValueRev = 0.0F;
 816              		.loc 1 481 23 view .LVU246
 817 002a B7EE008A 		vmov.f32	s16, #1.0e+0
 818              		.loc 1 486 26 view .LVU247
 819 002e EC22     		movs	r2, #236
 820              	.LVL50:
 475:HANcoder_E407_TTA_CombineModel_V2.c ****     obj->pCumSum = 0.0F;
 821              		.loc 1 475 24 view .LVU248
 822 0030 2B60     		str	r3, [r5]
 476:HANcoder_E407_TTA_CombineModel_V2.c ****     for (i = 0; i < 59; i++) {
 823              		.loc 1 476 5 is_stmt 1 view .LVU249
 483:HANcoder_E407_TTA_CombineModel_V2.c ****     obj->pCumSum = 0.0F;
 824              		.loc 1 483 26 is_stmt 0 view .LVU250
 825 0032 2B71     		strb	r3, [r5, #4]
 826              		.loc 1 486 26 view .LVU251
 827 0034 0021     		movs	r1, #0
 828              	.LVL51:
 476:HANcoder_E407_TTA_CombineModel_V2.c ****     for (i = 0; i < 59; i++) {
 829              		.loc 1 476 18 view .LVU252
 830 0036 C5ED028A 		vstr.32	s17, [r5, #8]
 477:HANcoder_E407_TTA_CombineModel_V2.c ****       obj->pCumSumRev[i] = 0.0F;
 831              		.loc 1 477 5 is_stmt 1 view .LVU253
 832              	.LVL52:
 477:HANcoder_E407_TTA_CombineModel_V2.c ****       obj->pCumSumRev[i] = 0.0F;
 833              		.loc 1 477 19 view .LVU254
 481:HANcoder_E407_TTA_CombineModel_V2.c ****     obj->pModValueRev = 0.0F;
 834              		.loc 1 481 5 view .LVU255
 481:HANcoder_E407_TTA_CombineModel_V2.c ****     obj->pModValueRev = 0.0F;
 835              		.loc 1 481 23 is_stmt 0 view .LVU256
 836 003a 85ED3E8A 		vstr.32	s16, [r5, #248]
 482:HANcoder_E407_TTA_CombineModel_V2.c ****     obj->isSetupComplete = true;
 837              		.loc 1 482 5 is_stmt 1 view .LVU257
 482:HANcoder_E407_TTA_CombineModel_V2.c ****     obj->isSetupComplete = true;
 838              		.loc 1 482 23 is_stmt 0 view .LVU258
 839 003e C5ED3F8A 		vstr.32	s17, [r5, #252]
 483:HANcoder_E407_TTA_CombineModel_V2.c ****     obj->pCumSum = 0.0F;
 840              		.loc 1 483 5 is_stmt 1 view .LVU259
 484:HANcoder_E407_TTA_CombineModel_V2.c ****     for (i = 0; i < 59; i++) {
 841              		.loc 1 484 5 view .LVU260
 485:HANcoder_E407_TTA_CombineModel_V2.c ****       obj->pCumSumRev[i] = 0.0F;
 842              		.loc 1 485 5 view .LVU261
 843              	.LVL53:
 485:HANcoder_E407_TTA_CombineModel_V2.c ****       obj->pCumSumRev[i] = 0.0F;
 844              		.loc 1 485 19 view .LVU262
 845              		.loc 1 486 26 is_stmt 0 view .LVU263
 846 0042 4046     		mov	r0, r8
 847              	.LVL54:
 487:HANcoder_E407_TTA_CombineModel_V2.c ****     }
 488:HANcoder_E407_TTA_CombineModel_V2.c **** 
 489:HANcoder_E407_TTA_CombineModel_V2.c ****     obj->pCumRevIndex = 1.0F;
 490:HANcoder_E407_TTA_CombineModel_V2.c ****     obj->pModValueRev = 0.0F;
 491:HANcoder_E407_TTA_CombineModel_V2.c ****   }
 492:HANcoder_E407_TTA_CombineModel_V2.c **** 
 493:HANcoder_E407_TTA_CombineModel_V2.c ****   cumRevIndex = obj->pCumRevIndex;
 494:HANcoder_E407_TTA_CombineModel_V2.c ****   csum = obj->pCumSum;
 495:HANcoder_E407_TTA_CombineModel_V2.c ****   for (i = 0; i < 59; i++) {
 496:HANcoder_E407_TTA_CombineModel_V2.c ****     csumrev[i] = obj->pCumSumRev[i];
 848              		.loc 1 496 16 view .LVU264
 849 0044 01AC     		add	r4, sp, #4
 486:HANcoder_E407_TTA_CombineModel_V2.c ****     }
 850              		.loc 1 486 26 view .LVU265
 851 0046 FFF7FEFF 		bl	memset
 852              	.LVL55:
 493:HANcoder_E407_TTA_CombineModel_V2.c ****   csum = obj->pCumSum;
 853              		.loc 1 493 3 is_stmt 1 view .LVU266
 494:HANcoder_E407_TTA_CombineModel_V2.c ****   for (i = 0; i < 59; i++) {
 854              		.loc 1 494 3 view .LVU267
 495:HANcoder_E407_TTA_CombineModel_V2.c ****     csumrev[i] = obj->pCumSumRev[i];
 855              		.loc 1 495 3 view .LVU268
 495:HANcoder_E407_TTA_CombineModel_V2.c ****     csumrev[i] = obj->pCumSumRev[i];
 856              		.loc 1 495 17 view .LVU269
 857              		.loc 1 496 16 is_stmt 0 view .LVU270
 858 004a EC22     		movs	r2, #236
 859 004c 4146     		mov	r1, r8
 860 004e 2046     		mov	r0, r4
 861 0050 FFF7FEFF 		bl	memcpy
 862              	.LVL56:
 497:HANcoder_E407_TTA_CombineModel_V2.c ****   }
 498:HANcoder_E407_TTA_CombineModel_V2.c **** 
 499:HANcoder_E407_TTA_CombineModel_V2.c ****   modValueRev = obj->pModValueRev;
 863              		.loc 1 499 3 is_stmt 1 view .LVU271
 500:HANcoder_E407_TTA_CombineModel_V2.c ****   z = 0.0F;
 864              		.loc 1 500 3 view .LVU272
 501:HANcoder_E407_TTA_CombineModel_V2.c **** 
 502:HANcoder_E407_TTA_CombineModel_V2.c ****   /* MATLABSystem: '<S47>/Moving Average' */
 503:HANcoder_E407_TTA_CombineModel_V2.c ****   localB->MovingAverage_n = 0.0F;
 865              		.loc 1 503 3 view .LVU273
 504:HANcoder_E407_TTA_CombineModel_V2.c **** 
 505:HANcoder_E407_TTA_CombineModel_V2.c ****   /* MATLABSystem: '<S47>/Moving Average' */
 506:HANcoder_E407_TTA_CombineModel_V2.c ****   csum += rtu_0;
 866              		.loc 1 506 8 is_stmt 0 view .LVU274
 867 0054 79EE287A 		vadd.f32	s15, s18, s17
 868 0058 F0EE689A 		vmov.f32	s19, s17
 869 005c 0026     		movs	r6, #0
 503:HANcoder_E407_TTA_CombineModel_V2.c **** 
 870              		.loc 1 503 27 view .LVU275
 871 005e C7ED008A 		vstr.32	s17, [r7]
 872              		.loc 1 506 3 is_stmt 1 view .LVU276
 873              	.LVL57:
 507:HANcoder_E407_TTA_CombineModel_V2.c ****   if (modValueRev == 0.0F) {
 874              		.loc 1 507 3 view .LVU277
 875              	.L65:
 508:HANcoder_E407_TTA_CombineModel_V2.c ****     z = csumrev[(int32_T)cumRevIndex - 1] + csum;
 876              		.loc 1 508 5 view .LVU278
 877              		.loc 1 508 16 is_stmt 0 view .LVU279
 878 0062 3CAB     		add	r3, sp, #240
 879 0064 03EB8603 		add	r3, r3, r6, lsl #2
 880              		.loc 1 508 7 view .LVU280
 881 0068 13ED3B7A 		vldr.32	s14, [r3, #-236]
 882 006c 77EE876A 		vadd.f32	s13, s15, s14
 883              	.LVL58:
 884              		.loc 1 508 16 view .LVU281
 885 0070 B600     		lsls	r6, r6, #2
 886              	.LVL59:
 887              	.L66:
 509:HANcoder_E407_TTA_CombineModel_V2.c ****   }
 510:HANcoder_E407_TTA_CombineModel_V2.c **** 
 511:HANcoder_E407_TTA_CombineModel_V2.c ****   csumrev[(int32_T)cumRevIndex - 1] = rtu_0;
 888              		.loc 1 511 3 is_stmt 1 view .LVU282
 512:HANcoder_E407_TTA_CombineModel_V2.c ****   if (cumRevIndex != 59.0F) {
 889              		.loc 1 512 6 is_stmt 0 view .LVU283
 890 0072 9FED367A 		vldr.32	s14, .L82+4
 511:HANcoder_E407_TTA_CombineModel_V2.c ****   if (cumRevIndex != 59.0F) {
 891              		.loc 1 511 37 view .LVU284
 892 0076 06F1F003 		add	r3, r6, #240
 893              		.loc 1 512 6 view .LVU285
 894 007a B4EE478A 		vcmp.f32	s16, s14
 511:HANcoder_E407_TTA_CombineModel_V2.c ****   if (cumRevIndex != 59.0F) {
 895              		.loc 1 511 37 view .LVU286
 896 007e 0DEB0306 		add	r6, sp, r3
 897              		.loc 1 512 6 view .LVU287
 898 0082 F1EE10FA 		vmrs	APSR_nzcv, FPSCR
 511:HANcoder_E407_TTA_CombineModel_V2.c ****   if (cumRevIndex != 59.0F) {
 899              		.loc 1 511 37 view .LVU288
 900 0086 06ED3B9A 		vstr.32	s18, [r6, #-236]
 901              		.loc 1 512 3 is_stmt 1 view .LVU289
 902              		.loc 1 512 6 is_stmt 0 view .LVU290
 903 008a 4CD0     		beq	.L67
 513:HANcoder_E407_TTA_CombineModel_V2.c ****     cumRevIndex++;
 904              		.loc 1 513 5 is_stmt 1 view .LVU291
 905              		.loc 1 513 16 is_stmt 0 view .LVU292
 906 008c B7EE007A 		vmov.f32	s14, #1.0e+0
 907 0090 38EE078A 		vadd.f32	s16, s16, s14
 908              	.LVL60:
 909              	.L68:
 514:HANcoder_E407_TTA_CombineModel_V2.c ****   } else {
 515:HANcoder_E407_TTA_CombineModel_V2.c ****     cumRevIndex = 1.0F;
 516:HANcoder_E407_TTA_CombineModel_V2.c ****     csum = 0.0F;
 517:HANcoder_E407_TTA_CombineModel_V2.c ****     for (i = 57; i >= 0; i--) {
 518:HANcoder_E407_TTA_CombineModel_V2.c ****       csumrev[i] += csumrev[i + 1];
 519:HANcoder_E407_TTA_CombineModel_V2.c ****     }
 520:HANcoder_E407_TTA_CombineModel_V2.c ****   }
 521:HANcoder_E407_TTA_CombineModel_V2.c **** 
 522:HANcoder_E407_TTA_CombineModel_V2.c ****   if (modValueRev == 0.0F) {
 910              		.loc 1 522 3 is_stmt 1 view .LVU293
 911              		.loc 1 522 6 is_stmt 0 view .LVU294
 912 0094 F5EE409A 		vcmp.f32	s19, #0
 913 0098 F1EE10FA 		vmrs	APSR_nzcv, FPSCR
 914 009c 05D1     		bne	.L70
 523:HANcoder_E407_TTA_CombineModel_V2.c ****     /* MATLABSystem: '<S47>/Moving Average' */
 524:HANcoder_E407_TTA_CombineModel_V2.c ****     localB->MovingAverage_n = z / 60.0F;
 915              		.loc 1 524 5 is_stmt 1 view .LVU295
 916              		.loc 1 524 33 is_stmt 0 view .LVU296
 917 009e 9FED2C6A 		vldr.32	s12, .L82+8
 918 00a2 86EE867A 		vdiv.f32	s14, s13, s12
 919              		.loc 1 524 29 view .LVU297
 920 00a6 87ED007A 		vstr.32	s14, [r7]
 921              	.L70:
 525:HANcoder_E407_TTA_CombineModel_V2.c ****   }
 526:HANcoder_E407_TTA_CombineModel_V2.c **** 
 527:HANcoder_E407_TTA_CombineModel_V2.c ****   obj->pCumSum = csum;
 922              		.loc 1 527 3 is_stmt 1 view .LVU298
 923              		.loc 1 527 16 is_stmt 0 view .LVU299
 924 00aa C5ED027A 		vstr.32	s15, [r5, #8]
 528:HANcoder_E407_TTA_CombineModel_V2.c ****   for (i = 0; i < 59; i++) {
 925              		.loc 1 528 3 is_stmt 1 view .LVU300
 926              	.LVL61:
 927              		.loc 1 528 17 view .LVU301
 529:HANcoder_E407_TTA_CombineModel_V2.c ****     obj->pCumSumRev[i] = csumrev[i];
 928              		.loc 1 529 24 is_stmt 0 view .LVU302
 929 00ae EC22     		movs	r2, #236
 930 00b0 2146     		mov	r1, r4
 931 00b2 4046     		mov	r0, r8
 932 00b4 FFF7FEFF 		bl	memcpy
 933              	.LVL62:
 530:HANcoder_E407_TTA_CombineModel_V2.c ****   }
 531:HANcoder_E407_TTA_CombineModel_V2.c **** 
 532:HANcoder_E407_TTA_CombineModel_V2.c ****   obj->pCumRevIndex = cumRevIndex;
 934              		.loc 1 532 3 is_stmt 1 view .LVU303
 533:HANcoder_E407_TTA_CombineModel_V2.c ****   if (modValueRev > 0.0F) {
 935              		.loc 1 533 6 is_stmt 0 view .LVU304
 936 00b8 F5EEC09A 		vcmpe.f32	s19, #0
 937 00bc F1EE10FA 		vmrs	APSR_nzcv, FPSCR
 534:HANcoder_E407_TTA_CombineModel_V2.c ****     obj->pModValueRev = modValueRev - 1.0F;
 938              		.loc 1 534 37 view .LVU305
 939 00c0 C6BF     		itte	gt
 940 00c2 F7EE007A 		vmovgt.f32	s15, #1.0e+0
 941 00c6 79EEE77A 		vsubgt.f32	s15, s19, s15
 535:HANcoder_E407_TTA_CombineModel_V2.c ****   } else {
 536:HANcoder_E407_TTA_CombineModel_V2.c ****     obj->pModValueRev = 0.0F;
 942              		.loc 1 536 23 view .LVU306
 943 00ca DFED1F7A 		vldrle.32	s15, .L82
 532:HANcoder_E407_TTA_CombineModel_V2.c ****   if (modValueRev > 0.0F) {
 944              		.loc 1 532 21 view .LVU307
 945 00ce 85ED3E8A 		vstr.32	s16, [r5, #248]
 533:HANcoder_E407_TTA_CombineModel_V2.c ****     obj->pModValueRev = modValueRev - 1.0F;
 946              		.loc 1 533 3 is_stmt 1 view .LVU308
 534:HANcoder_E407_TTA_CombineModel_V2.c ****   } else {
 947              		.loc 1 534 5 view .LVU309
 948 00d2 C5ED3F7A 		vstr.32	s15, [r5, #252]
 537:HANcoder_E407_TTA_CombineModel_V2.c ****   }
 538:HANcoder_E407_TTA_CombineModel_V2.c **** }
 949              		.loc 1 538 1 is_stmt 0 view .LVU310
 950 00d6 3CB0     		add	sp, sp, #240
 951              		.cfi_remember_state
 952              		.cfi_def_cfa_offset 40
 953              		@ sp needed
 954 00d8 BDEC048B 		vldm	sp!, {d8-d9}
 955              		.cfi_restore 82
 956              		.cfi_restore 83
 957              		.cfi_restore 80
 958              		.cfi_restore 81
 959              		.cfi_def_cfa_offset 24
 960              	.LVL63:
 961              		.loc 1 538 1 view .LVU311
 962 00dc BDE8F081 		pop	{r4, r5, r6, r7, r8, pc}
 963              	.LVL64:
 964              	.L64:
 965              		.cfi_restore_state
 493:HANcoder_E407_TTA_CombineModel_V2.c ****   csum = obj->pCumSum;
 966              		.loc 1 493 15 view .LVU312
 967 00e0 95ED3E8A 		vldr.32	s16, [r5, #248]
 494:HANcoder_E407_TTA_CombineModel_V2.c ****   for (i = 0; i < 59; i++) {
 968              		.loc 1 494 8 view .LVU313
 969 00e4 D5ED028A 		vldr.32	s17, [r5, #8]
 499:HANcoder_E407_TTA_CombineModel_V2.c ****   z = 0.0F;
 970              		.loc 1 499 15 view .LVU314
 971 00e8 D5ED3F9A 		vldr.32	s19, [r5, #252]
 493:HANcoder_E407_TTA_CombineModel_V2.c ****   csum = obj->pCumSum;
 972              		.loc 1 493 3 is_stmt 1 view .LVU315
 973              	.LVL65:
 494:HANcoder_E407_TTA_CombineModel_V2.c ****   for (i = 0; i < 59; i++) {
 974              		.loc 1 494 3 view .LVU316
 495:HANcoder_E407_TTA_CombineModel_V2.c ****     csumrev[i] = obj->pCumSumRev[i];
 975              		.loc 1 495 3 view .LVU317
 495:HANcoder_E407_TTA_CombineModel_V2.c ****     csumrev[i] = obj->pCumSumRev[i];
 976              		.loc 1 495 17 view .LVU318
 508:HANcoder_E407_TTA_CombineModel_V2.c ****   }
 977              		.loc 1 508 17 is_stmt 0 view .LVU319
 978 00ec FDEEC87A 		vcvt.s32.f32	s15, s16
 979 00f0 05F10C08 		add	r8, r5, #12
 496:HANcoder_E407_TTA_CombineModel_V2.c ****   }
 980              		.loc 1 496 16 view .LVU320
 981 00f4 01AC     		add	r4, sp, #4
 982 00f6 EC22     		movs	r2, #236
 983              	.LVL66:
 496:HANcoder_E407_TTA_CombineModel_V2.c ****   }
 984              		.loc 1 496 16 view .LVU321
 985 00f8 4146     		mov	r1, r8
 986              	.LVL67:
 496:HANcoder_E407_TTA_CombineModel_V2.c ****   }
 987              		.loc 1 496 16 view .LVU322
 988 00fa 2046     		mov	r0, r4
 989              	.LVL68:
 508:HANcoder_E407_TTA_CombineModel_V2.c ****   }
 990              		.loc 1 508 17 view .LVU323
 991 00fc 17EE906A 		vmov	r6, s15	@ int
 496:HANcoder_E407_TTA_CombineModel_V2.c ****   }
 992              		.loc 1 496 16 view .LVU324
 993 0100 FFF7FEFF 		bl	memcpy
 994              	.LVL69:
 499:HANcoder_E407_TTA_CombineModel_V2.c ****   z = 0.0F;
 995              		.loc 1 499 3 is_stmt 1 view .LVU325
 500:HANcoder_E407_TTA_CombineModel_V2.c **** 
 996              		.loc 1 500 3 view .LVU326
 503:HANcoder_E407_TTA_CombineModel_V2.c **** 
 997              		.loc 1 503 3 view .LVU327
 503:HANcoder_E407_TTA_CombineModel_V2.c **** 
 998              		.loc 1 503 27 is_stmt 0 view .LVU328
 999 0104 9FED107A 		vldr.32	s14, .L82
 507:HANcoder_E407_TTA_CombineModel_V2.c ****     z = csumrev[(int32_T)cumRevIndex - 1] + csum;
 1000              		.loc 1 507 6 view .LVU329
 1001 0108 F4EE479A 		vcmp.f32	s19, s14
 1002 010c F1EE10FA 		vmrs	APSR_nzcv, FPSCR
 506:HANcoder_E407_TTA_CombineModel_V2.c ****   if (modValueRev == 0.0F) {
 1003              		.loc 1 506 8 view .LVU330
 1004 0110 78EE897A 		vadd.f32	s15, s17, s18
 508:HANcoder_E407_TTA_CombineModel_V2.c ****   }
 1005              		.loc 1 508 38 view .LVU331
 1006 0114 06F1FF36 		add	r6, r6, #-1
 503:HANcoder_E407_TTA_CombineModel_V2.c **** 
 1007              		.loc 1 503 27 view .LVU332
 1008 0118 87ED007A 		vstr.32	s14, [r7]
 506:HANcoder_E407_TTA_CombineModel_V2.c ****   if (modValueRev == 0.0F) {
 1009              		.loc 1 506 3 is_stmt 1 view .LVU333
 1010              	.LVL70:
 507:HANcoder_E407_TTA_CombineModel_V2.c ****     z = csumrev[(int32_T)cumRevIndex - 1] + csum;
 1011              		.loc 1 507 3 view .LVU334
 507:HANcoder_E407_TTA_CombineModel_V2.c ****     z = csumrev[(int32_T)cumRevIndex - 1] + csum;
 1012              		.loc 1 507 6 is_stmt 0 view .LVU335
 1013 011c A1D0     		beq	.L65
 500:HANcoder_E407_TTA_CombineModel_V2.c **** 
 1014              		.loc 1 500 5 view .LVU336
 1015 011e F0EE476A 		vmov.f32	s13, s14
 1016 0122 B600     		lsls	r6, r6, #2
 1017 0124 A5E7     		b	.L66
 1018              	.LVL71:
 1019              	.L67:
 500:HANcoder_E407_TTA_CombineModel_V2.c **** 
 1020              		.loc 1 500 5 view .LVU337
 1021 0126 DDED3B7A 		vldr.32	s15, [sp, #236]
 1022              	.LVL72:
 500:HANcoder_E407_TTA_CombineModel_V2.c **** 
 1023              		.loc 1 500 5 view .LVU338
 1024 012a 3BAB     		add	r3, sp, #236
 1025              	.LVL73:
 1026              	.L69:
 518:HANcoder_E407_TTA_CombineModel_V2.c ****     }
 1027              		.loc 1 518 7 is_stmt 1 discriminator 3 view .LVU339
 518:HANcoder_E407_TTA_CombineModel_V2.c ****     }
 1028              		.loc 1 518 18 is_stmt 0 discriminator 3 view .LVU340
 1029 012c 33ED017A 		vldmdb.32	r3!, {s14}
 1030 0130 77EE877A 		vadd.f32	s15, s15, s14
 517:HANcoder_E407_TTA_CombineModel_V2.c ****       csumrev[i] += csumrev[i + 1];
 1031              		.loc 1 517 20 discriminator 3 view .LVU341
 1032 0134 A342     		cmp	r3, r4
 518:HANcoder_E407_TTA_CombineModel_V2.c ****     }
 1033              		.loc 1 518 18 discriminator 3 view .LVU342
 1034 0136 C3ED007A 		vstr.32	s15, [r3]
 517:HANcoder_E407_TTA_CombineModel_V2.c ****       csumrev[i] += csumrev[i + 1];
 1035              		.loc 1 517 27 is_stmt 1 discriminator 3 view .LVU343
 517:HANcoder_E407_TTA_CombineModel_V2.c ****       csumrev[i] += csumrev[i + 1];
 1036              		.loc 1 517 20 discriminator 3 view .LVU344
 1037 013a F7D1     		bne	.L69
 516:HANcoder_E407_TTA_CombineModel_V2.c ****     for (i = 57; i >= 0; i--) {
 1038              		.loc 1 516 10 is_stmt 0 view .LVU345
 1039 013c DFED027A 		vldr.32	s15, .L82
 515:HANcoder_E407_TTA_CombineModel_V2.c ****     csum = 0.0F;
 1040              		.loc 1 515 17 view .LVU346
 1041 0140 B7EE008A 		vmov.f32	s16, #1.0e+0
 1042 0144 A6E7     		b	.L68
 1043              	.L83:
 1044 0146 00BF     		.align	2
 1045              	.L82:
 1046 0148 00000000 		.word	0
 1047 014c 00006C42 		.word	1114374144
 1048 0150 00007042 		.word	1114636288
 1049              		.cfi_endproc
 1050              	.LFE124:
 1052              		.section	.text.BitShift,"ax",%progbits
 1053              		.align	1
 1054              		.p2align 2,,3
 1055              		.global	BitShift
 1056              		.syntax unified
 1057              		.thumb
 1058              		.thumb_func
 1060              	BitShift:
 1061              	.LVL74:
 1062              	.LFB125:
 539:HANcoder_E407_TTA_CombineModel_V2.c **** 
 540:HANcoder_E407_TTA_CombineModel_V2.c **** /*
 541:HANcoder_E407_TTA_CombineModel_V2.c ****  * Output and update for atomic system:
 542:HANcoder_E407_TTA_CombineModel_V2.c ****  *    '<S121>/Bit Shift'
 543:HANcoder_E407_TTA_CombineModel_V2.c ****  *    '<S122>/Bit Shift'
 544:HANcoder_E407_TTA_CombineModel_V2.c ****  *    '<S128>/Bit Shift'
 545:HANcoder_E407_TTA_CombineModel_V2.c ****  *    '<S129>/Bit Shift'
 546:HANcoder_E407_TTA_CombineModel_V2.c ****  *    '<S137>/Bit Shift'
 547:HANcoder_E407_TTA_CombineModel_V2.c ****  *    '<S138>/Bit Shift'
 548:HANcoder_E407_TTA_CombineModel_V2.c ****  *    '<S151>/Bit Shift'
 549:HANcoder_E407_TTA_CombineModel_V2.c ****  *    '<S152>/Bit Shift'
 550:HANcoder_E407_TTA_CombineModel_V2.c ****  *    '<S163>/Bit Shift'
 551:HANcoder_E407_TTA_CombineModel_V2.c ****  *    '<S164>/Bit Shift'
 552:HANcoder_E407_TTA_CombineModel_V2.c ****  */
 553:HANcoder_E407_TTA_CombineModel_V2.c **** void BitShift(uint16_T rtu_u, rtB_BitShift *localB)
 554:HANcoder_E407_TTA_CombineModel_V2.c **** {
 1063              		.loc 1 554 1 is_stmt 1 view -0
 1064              		.cfi_startproc
 1065              		@ args = 0, pretend = 0, frame = 0
 1066              		@ frame_needed = 0, uses_anonymous_args = 0
 1067              		@ link register save eliminated.
 555:HANcoder_E407_TTA_CombineModel_V2.c ****   /* MATLAB Function: '<S123>/bit_shift' */
 556:HANcoder_E407_TTA_CombineModel_V2.c ****   /* MATLAB Function 'Logic and Bit Operations/Bit Shift/bit_shift': '<S124>:1' */
 557:HANcoder_E407_TTA_CombineModel_V2.c ****   /* '<S124>:1:8' */
 558:HANcoder_E407_TTA_CombineModel_V2.c ****   localB->y = (uint16_T)((uint32_T)rtu_u >> 8);
 1068              		.loc 1 558 3 view .LVU348
 1069              		.loc 1 558 15 is_stmt 0 view .LVU349
 1070 0000 000A     		lsrs	r0, r0, #8
 1071              	.LVL75:
 1072              		.loc 1 558 13 view .LVU350
 1073 0002 0880     		strh	r0, [r1]	@ movhi
 559:HANcoder_E407_TTA_CombineModel_V2.c **** }
 1074              		.loc 1 559 1 view .LVU351
 1075 0004 7047     		bx	lr
 1076              		.cfi_endproc
 1077              	.LFE125:
 1079 0006 00BF     		.section	.text.TRCK1_ID2_TX,"ax",%progbits
 1080              		.align	1
 1081              		.p2align 2,,3
 1082              		.global	TRCK1_ID2_TX
 1083              		.syntax unified
 1084              		.thumb
 1085              		.thumb_func
 1087              	TRCK1_ID2_TX:
 1088              	.LVL76:
 1089              	.LFB126:
 560:HANcoder_E407_TTA_CombineModel_V2.c **** 
 561:HANcoder_E407_TTA_CombineModel_V2.c **** /*
 562:HANcoder_E407_TTA_CombineModel_V2.c ****  * Output and update for trigger system:
 563:HANcoder_E407_TTA_CombineModel_V2.c ****  *    '<S8>/TRCK1_ID2_TX'
 564:HANcoder_E407_TTA_CombineModel_V2.c ****  *    '<S8>/TRCK1_ID3_TX'
 565:HANcoder_E407_TTA_CombineModel_V2.c ****  *    '<S8>/TRCK1_TX'
 566:HANcoder_E407_TTA_CombineModel_V2.c ****  */
 567:HANcoder_E407_TTA_CombineModel_V2.c **** void TRCK1_ID2_TX(boolean_T rtu_Trigger, uint32_T rtu_In1, const uint8_T
 568:HANcoder_E407_TTA_CombineModel_V2.c ****                   *rtd_Local_Ticks, const uint16_T *rtd_potentiometer1, const
 569:HANcoder_E407_TTA_CombineModel_V2.c ****                   uint16_T *rtd_potentiometer2, rtB_TRCK1_ID2_TX *localB,
 570:HANcoder_E407_TTA_CombineModel_V2.c ****                   rtZCE_TRCK1_ID2_TX *localZCE)
 571:HANcoder_E407_TTA_CombineModel_V2.c **** {
 1090              		.loc 1 571 1 is_stmt 1 view -0
 1091              		.cfi_startproc
 1092              		@ args = 12, pretend = 0, frame = 0
 1093              		@ frame_needed = 0, uses_anonymous_args = 0
 572:HANcoder_E407_TTA_CombineModel_V2.c ****   /* Outputs for Triggered SubSystem: '<S8>/TRCK1_ID2_TX' incorporates:
 573:HANcoder_E407_TTA_CombineModel_V2.c ****    *  TriggerPort: '<S28>/Trigger'
 574:HANcoder_E407_TTA_CombineModel_V2.c ****    */
 575:HANcoder_E407_TTA_CombineModel_V2.c ****   if (rtu_Trigger && (localZCE->TRCK1_ID2_TX_Trig_ZCE != POS_ZCSIG)) {
 1094              		.loc 1 575 3 view .LVU353
 571:HANcoder_E407_TTA_CombineModel_V2.c ****   /* Outputs for Triggered SubSystem: '<S8>/TRCK1_ID2_TX' incorporates:
 1095              		.loc 1 571 1 is_stmt 0 view .LVU354
 1096 0000 70B5     		push	{r4, r5, r6, lr}
 1097              		.cfi_def_cfa_offset 16
 1098              		.cfi_offset 4, -16
 1099              		.cfi_offset 5, -12
 1100              		.cfi_offset 6, -8
 1101              		.cfi_offset 14, -4
 1102              		.loc 1 575 6 view .LVU355
 1103 0002 0446     		mov	r4, r0
 571:HANcoder_E407_TTA_CombineModel_V2.c ****   /* Outputs for Triggered SubSystem: '<S8>/TRCK1_ID2_TX' incorporates:
 1104              		.loc 1 571 1 view .LVU356
 1105 0004 DDE90556 		ldrd	r5, r6, [sp, #20]
 1106              		.loc 1 575 6 view .LVU357
 1107 0008 10B1     		cbz	r0, .L86
 1108              		.loc 1 575 19 discriminator 1 view .LVU358
 1109 000a 3078     		ldrb	r0, [r6]	@ zero_extendqisi2
 1110              	.LVL77:
 1111              		.loc 1 575 19 discriminator 1 view .LVU359
 1112 000c 0128     		cmp	r0, #1
 1113 000e 01D1     		bne	.L94
 1114              	.L86:
 576:HANcoder_E407_TTA_CombineModel_V2.c ****     /* DataStoreRead: '<S28>/Data Store Read2' */
 577:HANcoder_E407_TTA_CombineModel_V2.c ****     localB->DataStoreRead2 = *rtd_Local_Ticks;
 578:HANcoder_E407_TTA_CombineModel_V2.c **** 
 579:HANcoder_E407_TTA_CombineModel_V2.c ****     /* Outputs for Atomic SubSystem: '<S121>/Bit Shift' */
 580:HANcoder_E407_TTA_CombineModel_V2.c ****     /* DataStoreRead: '<S28>/Data Store Read1' */
 581:HANcoder_E407_TTA_CombineModel_V2.c ****     BitShift(*rtd_potentiometer2, &localB->BitShift_o);
 582:HANcoder_E407_TTA_CombineModel_V2.c **** 
 583:HANcoder_E407_TTA_CombineModel_V2.c ****     /* End of Outputs for SubSystem: '<S121>/Bit Shift' */
 584:HANcoder_E407_TTA_CombineModel_V2.c **** 
 585:HANcoder_E407_TTA_CombineModel_V2.c ****     /* DataTypeConversion: '<S121>/Cast' */
 586:HANcoder_E407_TTA_CombineModel_V2.c ****     localB->Cast = (uint8_T)localB->BitShift_o.y;
 587:HANcoder_E407_TTA_CombineModel_V2.c **** 
 588:HANcoder_E407_TTA_CombineModel_V2.c ****     /* DataTypeConversion: '<S121>/Cast1' incorporates:
 589:HANcoder_E407_TTA_CombineModel_V2.c ****      *  DataStoreRead: '<S28>/Data Store Read1'
 590:HANcoder_E407_TTA_CombineModel_V2.c ****      */
 591:HANcoder_E407_TTA_CombineModel_V2.c ****     localB->Cast1 = (uint8_T)*rtd_potentiometer2;
 592:HANcoder_E407_TTA_CombineModel_V2.c **** 
 593:HANcoder_E407_TTA_CombineModel_V2.c ****     /* Outputs for Atomic SubSystem: '<S122>/Bit Shift' */
 594:HANcoder_E407_TTA_CombineModel_V2.c ****     /* DataStoreRead: '<S28>/Data Store Read' */
 595:HANcoder_E407_TTA_CombineModel_V2.c ****     BitShift(*rtd_potentiometer1, &localB->BitShift_h);
 596:HANcoder_E407_TTA_CombineModel_V2.c **** 
 597:HANcoder_E407_TTA_CombineModel_V2.c ****     /* End of Outputs for SubSystem: '<S122>/Bit Shift' */
 598:HANcoder_E407_TTA_CombineModel_V2.c **** 
 599:HANcoder_E407_TTA_CombineModel_V2.c ****     /* DataTypeConversion: '<S122>/Cast' */
 600:HANcoder_E407_TTA_CombineModel_V2.c ****     localB->Cast_k = (uint8_T)localB->BitShift_h.y;
 601:HANcoder_E407_TTA_CombineModel_V2.c **** 
 602:HANcoder_E407_TTA_CombineModel_V2.c ****     /* DataTypeConversion: '<S122>/Cast1' incorporates:
 603:HANcoder_E407_TTA_CombineModel_V2.c ****      *  DataStoreRead: '<S28>/Data Store Read'
 604:HANcoder_E407_TTA_CombineModel_V2.c ****      */
 605:HANcoder_E407_TTA_CombineModel_V2.c ****     localB->Cast1_i = (uint8_T)*rtd_potentiometer1;
 606:HANcoder_E407_TTA_CombineModel_V2.c **** 
 607:HANcoder_E407_TTA_CombineModel_V2.c ****     /* Update for M-S-Function: '<S120>/S-Function' */
 608:HANcoder_E407_TTA_CombineModel_V2.c ****     {
 609:HANcoder_E407_TTA_CombineModel_V2.c ****       /* prepare the data */
 610:HANcoder_E407_TTA_CombineModel_V2.c ****       canTxData.uint8_T_info[0] = localB->Cast_k;
 611:HANcoder_E407_TTA_CombineModel_V2.c ****       canTxData.uint8_T_info[1] = localB->Cast1_i;
 612:HANcoder_E407_TTA_CombineModel_V2.c ****       canTxData.uint8_T_info[2] = localB->Cast;
 613:HANcoder_E407_TTA_CombineModel_V2.c ****       canTxData.uint8_T_info[3] = localB->Cast1;
 614:HANcoder_E407_TTA_CombineModel_V2.c ****       canTxData.uint8_T_info[4] = localB->DataStoreRead2;
 615:HANcoder_E407_TTA_CombineModel_V2.c **** 
 616:HANcoder_E407_TTA_CombineModel_V2.c ****       /* send the data */
 617:HANcoder_E407_TTA_CombineModel_V2.c ****       CanTransmit(0, rtu_In1, 5, &canTxData.uint8_T_info[0]);
 618:HANcoder_E407_TTA_CombineModel_V2.c ****     }
 619:HANcoder_E407_TTA_CombineModel_V2.c ****   }
 620:HANcoder_E407_TTA_CombineModel_V2.c **** 
 621:HANcoder_E407_TTA_CombineModel_V2.c ****   localZCE->TRCK1_ID2_TX_Trig_ZCE = rtu_Trigger;
 1115              		.loc 1 621 3 is_stmt 1 view .LVU360
 1116              		.loc 1 621 35 is_stmt 0 view .LVU361
 1117 0010 3470     		strb	r4, [r6]
 622:HANcoder_E407_TTA_CombineModel_V2.c **** 
 623:HANcoder_E407_TTA_CombineModel_V2.c ****   /* End of Outputs for SubSystem: '<S8>/TRCK1_ID2_TX' */
 624:HANcoder_E407_TTA_CombineModel_V2.c **** }
 1118              		.loc 1 624 1 view .LVU362
 1119 0012 70BD     		pop	{r4, r5, r6, pc}
 1120              	.LVL78:
 1121              	.L94:
 577:HANcoder_E407_TTA_CombineModel_V2.c **** 
 1122              		.loc 1 577 5 is_stmt 1 view .LVU363
 577:HANcoder_E407_TTA_CombineModel_V2.c **** 
 1123              		.loc 1 577 30 is_stmt 0 view .LVU364
 1124 0014 92F800C0 		ldrb	ip, [r2]	@ zero_extendqisi2
 1125              	.LBB93:
 1126              	.LBB94:
 558:HANcoder_E407_TTA_CombineModel_V2.c **** }
 1127              		.loc 1 558 15 view .LVU365
 1128 0018 049A     		ldr	r2, [sp, #16]
 1129              	.LVL79:
 558:HANcoder_E407_TTA_CombineModel_V2.c **** }
 1130              		.loc 1 558 15 view .LVU366
 1131              	.LBE94:
 1132              	.LBE93:
 577:HANcoder_E407_TTA_CombineModel_V2.c **** 
 1133              		.loc 1 577 28 view .LVU367
 1134 001a 85F800C0 		strb	ip, [r5]
 581:HANcoder_E407_TTA_CombineModel_V2.c **** 
 1135              		.loc 1 581 5 is_stmt 1 view .LVU368
 1136              	.LVL80:
 1137              	.LBB97:
 1138              	.LBI93:
 553:HANcoder_E407_TTA_CombineModel_V2.c **** {
 1139              		.loc 1 553 6 view .LVU369
 1140              	.LBB95:
 558:HANcoder_E407_TTA_CombineModel_V2.c **** }
 1141              		.loc 1 558 3 view .LVU370
 558:HANcoder_E407_TTA_CombineModel_V2.c **** }
 1142              		.loc 1 558 15 is_stmt 0 view .LVU371
 1143 001e 1288     		ldrh	r2, [r2]
 1144              	.LVL81:
 558:HANcoder_E407_TTA_CombineModel_V2.c **** }
 1145              		.loc 1 558 15 view .LVU372
 1146              	.LBE95:
 1147              	.LBE97:
 591:HANcoder_E407_TTA_CombineModel_V2.c **** 
 1148              		.loc 1 591 21 view .LVU373
 1149 0020 0498     		ldr	r0, [sp, #16]
 1150              	.LBB98:
 1151              	.LBB96:
 558:HANcoder_E407_TTA_CombineModel_V2.c **** }
 1152              		.loc 1 558 15 view .LVU374
 1153 0022 120A     		lsrs	r2, r2, #8
 558:HANcoder_E407_TTA_CombineModel_V2.c **** }
 1154              		.loc 1 558 13 view .LVU375
 1155 0024 2A81     		strh	r2, [r5, #8]	@ movhi
 1156              	.LVL82:
 558:HANcoder_E407_TTA_CombineModel_V2.c **** }
 1157              		.loc 1 558 13 view .LVU376
 1158              	.LBE96:
 1159              	.LBE98:
 586:HANcoder_E407_TTA_CombineModel_V2.c **** 
 1160              		.loc 1 586 5 is_stmt 1 view .LVU377
 586:HANcoder_E407_TTA_CombineModel_V2.c **** 
 1161              		.loc 1 586 20 is_stmt 0 view .LVU378
 1162 0026 D2B2     		uxtb	r2, r2
 586:HANcoder_E407_TTA_CombineModel_V2.c **** 
 1163              		.loc 1 586 18 view .LVU379
 1164 0028 6A70     		strb	r2, [r5, #1]
 591:HANcoder_E407_TTA_CombineModel_V2.c **** 
 1165              		.loc 1 591 5 is_stmt 1 view .LVU380
 591:HANcoder_E407_TTA_CombineModel_V2.c **** 
 1166              		.loc 1 591 21 is_stmt 0 view .LVU381
 1167 002a 90F800E0 		ldrb	lr, [r0]	@ zero_extendqisi2
 591:HANcoder_E407_TTA_CombineModel_V2.c **** 
 1168              		.loc 1 591 19 view .LVU382
 1169 002e 85F802E0 		strb	lr, [r5, #2]
 595:HANcoder_E407_TTA_CombineModel_V2.c **** 
 1170              		.loc 1 595 5 is_stmt 1 view .LVU383
 1171              	.LVL83:
 1172              	.LBB99:
 1173              	.LBI99:
 553:HANcoder_E407_TTA_CombineModel_V2.c **** {
 1174              		.loc 1 553 6 view .LVU384
 1175              	.LBB100:
 558:HANcoder_E407_TTA_CombineModel_V2.c **** }
 1176              		.loc 1 558 3 view .LVU385
 558:HANcoder_E407_TTA_CombineModel_V2.c **** }
 1177              		.loc 1 558 15 is_stmt 0 view .LVU386
 1178 0032 1888     		ldrh	r0, [r3]
 1179 0034 000A     		lsrs	r0, r0, #8
 558:HANcoder_E407_TTA_CombineModel_V2.c **** }
 1180              		.loc 1 558 13 view .LVU387
 1181 0036 E880     		strh	r0, [r5, #6]	@ movhi
 1182              	.LVL84:
 558:HANcoder_E407_TTA_CombineModel_V2.c **** }
 1183              		.loc 1 558 13 view .LVU388
 1184              	.LBE100:
 1185              	.LBE99:
 600:HANcoder_E407_TTA_CombineModel_V2.c **** 
 1186              		.loc 1 600 5 is_stmt 1 view .LVU389
 600:HANcoder_E407_TTA_CombineModel_V2.c **** 
 1187              		.loc 1 600 22 is_stmt 0 view .LVU390
 1188 0038 C0B2     		uxtb	r0, r0
 600:HANcoder_E407_TTA_CombineModel_V2.c **** 
 1189              		.loc 1 600 20 view .LVU391
 1190 003a E870     		strb	r0, [r5, #3]
 605:HANcoder_E407_TTA_CombineModel_V2.c **** 
 1191              		.loc 1 605 5 is_stmt 1 view .LVU392
 605:HANcoder_E407_TTA_CombineModel_V2.c **** 
 1192              		.loc 1 605 23 is_stmt 0 view .LVU393
 1193 003c 1B78     		ldrb	r3, [r3]	@ zero_extendqisi2
 1194              	.LVL85:
 605:HANcoder_E407_TTA_CombineModel_V2.c **** 
 1195              		.loc 1 605 21 view .LVU394
 1196 003e 2B71     		strb	r3, [r5, #4]
 610:HANcoder_E407_TTA_CombineModel_V2.c ****       canTxData.uint8_T_info[1] = localB->Cast1_i;
 1197              		.loc 1 610 7 is_stmt 1 view .LVU395
 611:HANcoder_E407_TTA_CombineModel_V2.c ****       canTxData.uint8_T_info[2] = localB->Cast;
 1198              		.loc 1 611 7 view .LVU396
 612:HANcoder_E407_TTA_CombineModel_V2.c ****       canTxData.uint8_T_info[3] = localB->Cast1;
 1199              		.loc 1 612 7 view .LVU397
 613:HANcoder_E407_TTA_CombineModel_V2.c ****       canTxData.uint8_T_info[4] = localB->DataStoreRead2;
 1200              		.loc 1 613 7 view .LVU398
 610:HANcoder_E407_TTA_CombineModel_V2.c ****       canTxData.uint8_T_info[1] = localB->Cast1_i;
 1201              		.loc 1 610 33 is_stmt 0 view .LVU399
 1202 0040 0025     		movs	r5, #0
 1203 0042 60F30705 		bfi	r5, r0, #0, #8
 1204 0046 63F30F25 		bfi	r5, r3, #8, #8
 1205 004a 62F31745 		bfi	r5, r2, #16, #8
 1206 004e 064B     		ldr	r3, .L95
 1207 0050 6EF31F65 		bfi	r5, lr, #24, #8
 617:HANcoder_E407_TTA_CombineModel_V2.c ****     }
 1208              		.loc 1 617 7 view .LVU400
 1209 0054 0522     		movs	r2, #5
 1210 0056 0020     		movs	r0, #0
 610:HANcoder_E407_TTA_CombineModel_V2.c ****       canTxData.uint8_T_info[1] = localB->Cast1_i;
 1211              		.loc 1 610 33 view .LVU401
 1212 0058 1D60     		str	r5, [r3]
 614:HANcoder_E407_TTA_CombineModel_V2.c **** 
 1213              		.loc 1 614 7 is_stmt 1 view .LVU402
 614:HANcoder_E407_TTA_CombineModel_V2.c **** 
 1214              		.loc 1 614 33 is_stmt 0 view .LVU403
 1215 005a 83F804C0 		strb	ip, [r3, #4]
 617:HANcoder_E407_TTA_CombineModel_V2.c ****     }
 1216              		.loc 1 617 7 is_stmt 1 view .LVU404
 1217 005e FFF7FEFF 		bl	CanTransmit
 1218              	.LVL86:
 621:HANcoder_E407_TTA_CombineModel_V2.c **** 
 1219              		.loc 1 621 3 view .LVU405
 621:HANcoder_E407_TTA_CombineModel_V2.c **** 
 1220              		.loc 1 621 35 is_stmt 0 view .LVU406
 1221 0062 3470     		strb	r4, [r6]
 1222              		.loc 1 624 1 view .LVU407
 1223 0064 70BD     		pop	{r4, r5, r6, pc}
 1224              	.LVL87:
 1225              	.L96:
 1226              		.loc 1 624 1 view .LVU408
 1227 0066 00BF     		.align	2
 1228              	.L95:
 1229 0068 00000000 		.word	canTxData
 1230              		.cfi_endproc
 1231              	.LFE126:
 1233              		.section	.text.BitShift_j,"ax",%progbits
 1234              		.align	1
 1235              		.p2align 2,,3
 1236              		.global	BitShift_j
 1237              		.syntax unified
 1238              		.thumb
 1239              		.thumb_func
 1241              	BitShift_j:
 1242              	.LVL88:
 1243              	.LFB127:
 625:HANcoder_E407_TTA_CombineModel_V2.c **** 
 626:HANcoder_E407_TTA_CombineModel_V2.c **** /*
 627:HANcoder_E407_TTA_CombineModel_V2.c ****  * Output and update for atomic system:
 628:HANcoder_E407_TTA_CombineModel_V2.c ****  *    '<S145>/Bit Shift'
 629:HANcoder_E407_TTA_CombineModel_V2.c ****  *    '<S157>/Bit Shift'
 630:HANcoder_E407_TTA_CombineModel_V2.c ****  */
 631:HANcoder_E407_TTA_CombineModel_V2.c **** void BitShift_j(uint16_T rtu_u, rtB_BitShift_i *localB)
 632:HANcoder_E407_TTA_CombineModel_V2.c **** {
 1244              		.loc 1 632 1 is_stmt 1 view -0
 1245              		.cfi_startproc
 1246              		@ args = 0, pretend = 0, frame = 0
 1247              		@ frame_needed = 0, uses_anonymous_args = 0
 1248              		@ link register save eliminated.
 633:HANcoder_E407_TTA_CombineModel_V2.c ****   /* MATLAB Function: '<S147>/bit_shift' */
 634:HANcoder_E407_TTA_CombineModel_V2.c ****   /* MATLAB Function 'Logic and Bit Operations/Bit Shift/bit_shift': '<S148>:1' */
 635:HANcoder_E407_TTA_CombineModel_V2.c ****   /* '<S148>:1:6' */
 636:HANcoder_E407_TTA_CombineModel_V2.c ****   localB->y = (uint16_T)(rtu_u << 8);
 1249              		.loc 1 636 3 view .LVU410
 1250              		.loc 1 636 15 is_stmt 0 view .LVU411
 1251 0000 0002     		lsls	r0, r0, #8
 1252              	.LVL89:
 1253              		.loc 1 636 13 view .LVU412
 1254 0002 0880     		strh	r0, [r1]	@ movhi
 637:HANcoder_E407_TTA_CombineModel_V2.c **** }
 1255              		.loc 1 637 1 view .LVU413
 1256 0004 7047     		bx	lr
 1257              		.cfi_endproc
 1258              	.LFE127:
 1260              		.global	__aeabi_dcmpeq
 1261              		.global	__aeabi_dadd
 1262              		.global	__aeabi_i2d
 1263              		.global	__aeabi_dmul
 1264              		.global	__aeabi_dcmplt
 1265              		.global	__aeabi_ui2d
 1266              		.global	__aeabi_dsub
 1267              		.global	__aeabi_dcmpgt
 1268              		.global	__aeabi_ddiv
 1269              		.global	__aeabi_d2f
 1270              		.global	__aeabi_f2d
 1271              		.global	__aeabi_dcmpge
 1272              		.global	__aeabi_dcmple
 1273 0006 00BF     		.section	.rodata.HANcoder_E407_TTA_CombineModel_V2_step.str1.4,"aMS",%progbits,1
 1274              		.align	2
 1275              	.LC0:
 1276 0000 41707043 		.ascii	"AppCtrlTask\000"
 1276      74726C54 
 1276      61736B00 
 1277              		.section	.text.HANcoder_E407_TTA_CombineModel_V2_step,"ax",%progbits
 1278              		.align	1
 1279              		.p2align 2,,3
 1280              		.global	HANcoder_E407_TTA_CombineModel_V2_step
 1281              		.syntax unified
 1282              		.thumb
 1283              		.thumb_func
 1285              	HANcoder_E407_TTA_CombineModel_V2_step:
 1286              	.LFB128:
 638:HANcoder_E407_TTA_CombineModel_V2.c **** 
 639:HANcoder_E407_TTA_CombineModel_V2.c **** /* Model step function */
 640:HANcoder_E407_TTA_CombineModel_V2.c **** void HANcoder_E407_TTA_CombineModel_V2_step(void)
 641:HANcoder_E407_TTA_CombineModel_V2.c **** {
 1287              		.loc 1 641 1 is_stmt 1 view -0
 1288              		.cfi_startproc
 1289              		@ args = 0, pretend = 0, frame = 48
 1290              		@ frame_needed = 0, uses_anonymous_args = 0
 642:HANcoder_E407_TTA_CombineModel_V2.c ****   /* local block i/o variables */
 643:HANcoder_E407_TTA_CombineModel_V2.c ****   real32_T rtb_Cast_m;
 1291              		.loc 1 643 3 view .LVU415
 644:HANcoder_E407_TTA_CombineModel_V2.c ****   real32_T rtb_Cast3;
 1292              		.loc 1 644 3 view .LVU416
 645:HANcoder_E407_TTA_CombineModel_V2.c ****   int32_T rtb_Level2MfileSFunction_o;
 1293              		.loc 1 645 3 view .LVU417
 646:HANcoder_E407_TTA_CombineModel_V2.c ****   uint8_T rtb_SFunction_o2;
 1294              		.loc 1 646 3 view .LVU418
 647:HANcoder_E407_TTA_CombineModel_V2.c ****   uint8_T rtb_SFunction_o3;
 1295              		.loc 1 647 3 view .LVU419
 648:HANcoder_E407_TTA_CombineModel_V2.c ****   uint8_T rtb_SFunction_o4;
 1296              		.loc 1 648 3 view .LVU420
 649:HANcoder_E407_TTA_CombineModel_V2.c ****   uint8_T rtb_SFunction_o5;
 1297              		.loc 1 649 3 view .LVU421
 650:HANcoder_E407_TTA_CombineModel_V2.c ****   uint8_T rtb_SFunction_o6;
 1298              		.loc 1 650 3 view .LVU422
 651:HANcoder_E407_TTA_CombineModel_V2.c ****   uint8_T rtb_SFunction_o7;
 1299              		.loc 1 651 3 view .LVU423
 652:HANcoder_E407_TTA_CombineModel_V2.c ****   uint8_T rtb_SFunction_o8;
 1300              		.loc 1 652 3 view .LVU424
 653:HANcoder_E407_TTA_CombineModel_V2.c ****   uint8_T rtb_SFunction_o9;
 1301              		.loc 1 653 3 view .LVU425
 654:HANcoder_E407_TTA_CombineModel_V2.c ****   uint8_T rtb_SFunction_o2_l;
 1302              		.loc 1 654 3 view .LVU426
 655:HANcoder_E407_TTA_CombineModel_V2.c ****   uint8_T rtb_SFunction_o3_m;
 1303              		.loc 1 655 3 view .LVU427
 656:HANcoder_E407_TTA_CombineModel_V2.c ****   uint8_T rtb_SFunction_o4_b;
 1304              		.loc 1 656 3 view .LVU428
 657:HANcoder_E407_TTA_CombineModel_V2.c ****   uint8_T rtb_SFunction_o5_o;
 1305              		.loc 1 657 3 view .LVU429
 658:HANcoder_E407_TTA_CombineModel_V2.c ****   uint8_T rtb_SFunction_o6_i;
 1306              		.loc 1 658 3 view .LVU430
 659:HANcoder_E407_TTA_CombineModel_V2.c ****   uint8_T rtb_SFunction_o7_f;
 1307              		.loc 1 659 3 view .LVU431
 660:HANcoder_E407_TTA_CombineModel_V2.c ****   uint8_T rtb_SFunction_o8_p;
 1308              		.loc 1 660 3 view .LVU432
 661:HANcoder_E407_TTA_CombineModel_V2.c ****   uint8_T rtb_SFunction_o9_l;
 1309              		.loc 1 661 3 view .LVU433
 662:HANcoder_E407_TTA_CombineModel_V2.c ****   uint8_T rtb_SFunction_o2_e;
 1310              		.loc 1 662 3 view .LVU434
 663:HANcoder_E407_TTA_CombineModel_V2.c ****   uint8_T rtb_SFunction_o3_p;
 1311              		.loc 1 663 3 view .LVU435
 664:HANcoder_E407_TTA_CombineModel_V2.c ****   uint8_T rtb_SFunction_o4_c;
 1312              		.loc 1 664 3 view .LVU436
 665:HANcoder_E407_TTA_CombineModel_V2.c ****   uint8_T rtb_SFunction_o5_c;
 1313              		.loc 1 665 3 view .LVU437
 666:HANcoder_E407_TTA_CombineModel_V2.c ****   uint8_T rtb_SFunction_o6_e;
 1314              		.loc 1 666 3 view .LVU438
 667:HANcoder_E407_TTA_CombineModel_V2.c ****   uint8_T rtb_SFunction_o7_l;
 1315              		.loc 1 667 3 view .LVU439
 668:HANcoder_E407_TTA_CombineModel_V2.c ****   uint8_T rtb_SFunction_o8_f;
 1316              		.loc 1 668 3 view .LVU440
 669:HANcoder_E407_TTA_CombineModel_V2.c ****   uint8_T rtb_SFunction_o9_h;
 1317              		.loc 1 669 3 view .LVU441
 670:HANcoder_E407_TTA_CombineModel_V2.c ****   uint8_T rtb_SFunction_o2_j;
 1318              		.loc 1 670 3 view .LVU442
 671:HANcoder_E407_TTA_CombineModel_V2.c ****   uint8_T rtb_SFunction_o3_a;
 1319              		.loc 1 671 3 view .LVU443
 672:HANcoder_E407_TTA_CombineModel_V2.c ****   uint8_T rtb_SFunction_o4_i;
 1320              		.loc 1 672 3 view .LVU444
 673:HANcoder_E407_TTA_CombineModel_V2.c ****   uint8_T rtb_SFunction_o5_k;
 1321              		.loc 1 673 3 view .LVU445
 674:HANcoder_E407_TTA_CombineModel_V2.c ****   uint8_T rtb_SFunction_o6_c;
 1322              		.loc 1 674 3 view .LVU446
 675:HANcoder_E407_TTA_CombineModel_V2.c ****   uint8_T rtb_SFunction_o7_d;
 1323              		.loc 1 675 3 view .LVU447
 676:HANcoder_E407_TTA_CombineModel_V2.c ****   uint8_T rtb_SFunction_o8_h;
 1324              		.loc 1 676 3 view .LVU448
 677:HANcoder_E407_TTA_CombineModel_V2.c ****   uint8_T rtb_SFunction_o9_b;
 1325              		.loc 1 677 3 view .LVU449
 678:HANcoder_E407_TTA_CombineModel_V2.c ****   uint8_T rtb_SFunction_o2_i;
 1326              		.loc 1 678 3 view .LVU450
 679:HANcoder_E407_TTA_CombineModel_V2.c ****   uint8_T rtb_SFunction_o3_g;
 1327              		.loc 1 679 3 view .LVU451
 680:HANcoder_E407_TTA_CombineModel_V2.c ****   uint8_T rtb_SFunction_o4_j;
 1328              		.loc 1 680 3 view .LVU452
 681:HANcoder_E407_TTA_CombineModel_V2.c ****   uint8_T rtb_SFunction_o5_f;
 1329              		.loc 1 681 3 view .LVU453
 682:HANcoder_E407_TTA_CombineModel_V2.c ****   uint8_T rtb_SFunction_o6_g;
 1330              		.loc 1 682 3 view .LVU454
 683:HANcoder_E407_TTA_CombineModel_V2.c ****   uint8_T rtb_SFunction_o7_k;
 1331              		.loc 1 683 3 view .LVU455
 684:HANcoder_E407_TTA_CombineModel_V2.c ****   uint8_T rtb_SFunction_o8_n;
 1332              		.loc 1 684 3 view .LVU456
 685:HANcoder_E407_TTA_CombineModel_V2.c ****   uint8_T rtb_SFunction_o9_b1;
 1333              		.loc 1 685 3 view .LVU457
 686:HANcoder_E407_TTA_CombineModel_V2.c ****   int8_T rtb_SFunction_o1;
 1334              		.loc 1 686 3 view .LVU458
 687:HANcoder_E407_TTA_CombineModel_V2.c ****   int8_T rtb_SFunction_o1_n;
 1335              		.loc 1 687 3 view .LVU459
 688:HANcoder_E407_TTA_CombineModel_V2.c ****   int8_T rtb_SFunction_o1_k;
 1336              		.loc 1 688 3 view .LVU460
 689:HANcoder_E407_TTA_CombineModel_V2.c ****   int8_T rtb_SFunction_o1_k1;
 1337              		.loc 1 689 3 view .LVU461
 690:HANcoder_E407_TTA_CombineModel_V2.c ****   int8_T rtb_SFunction_o1_h;
 1338              		.loc 1 690 3 view .LVU462
 691:HANcoder_E407_TTA_CombineModel_V2.c ****   boolean_T rtb_Level2MfileSFunction_d;
 1339              		.loc 1 691 3 view .LVU463
 692:HANcoder_E407_TTA_CombineModel_V2.c ****   boolean_T rtb_Level2MfileSFunction_j;
 1340              		.loc 1 692 3 view .LVU464
 693:HANcoder_E407_TTA_CombineModel_V2.c ****   boolean_T rtb_Equal17;
 1341              		.loc 1 693 3 view .LVU465
 694:HANcoder_E407_TTA_CombineModel_V2.c ****   real_T rtb_IntegralGain;
 1342              		.loc 1 694 3 view .LVU466
 695:HANcoder_E407_TTA_CombineModel_V2.c ****   real_T rtb_Integrator_tmp;
 1343              		.loc 1 695 3 view .LVU467
 696:HANcoder_E407_TTA_CombineModel_V2.c ****   real_T rtb_Multiply;
 1344              		.loc 1 696 3 view .LVU468
 697:HANcoder_E407_TTA_CombineModel_V2.c ****   real_T rtb_Multiply1;
 1345              		.loc 1 697 3 view .LVU469
 698:HANcoder_E407_TTA_CombineModel_V2.c ****   real_T tmp_0;
 1346              		.loc 1 698 3 view .LVU470
 699:HANcoder_E407_TTA_CombineModel_V2.c ****   uint32_T tmp;
 1347              		.loc 1 699 3 view .LVU471
 700:HANcoder_E407_TTA_CombineModel_V2.c ****   uint16_T rtb_Cast_bt;
 1348              		.loc 1 700 3 view .LVU472
 701:HANcoder_E407_TTA_CombineModel_V2.c ****   uint16_T rtb_Cast_g1;
 1349              		.loc 1 701 3 view .LVU473
 702:HANcoder_E407_TTA_CombineModel_V2.c ****   int8_T rtAction;
 1350              		.loc 1 702 3 view .LVU474
 703:HANcoder_E407_TTA_CombineModel_V2.c ****   int8_T rtPrevAction;
 1351              		.loc 1 703 3 view .LVU475
 704:HANcoder_E407_TTA_CombineModel_V2.c ****   uint8_T u1;
 1352              		.loc 1 704 3 view .LVU476
 705:HANcoder_E407_TTA_CombineModel_V2.c ****   uint8_T u1_0;
 1353              		.loc 1 705 3 view .LVU477
 706:HANcoder_E407_TTA_CombineModel_V2.c ****   boolean_T AND3;
 1354              		.loc 1 706 3 view .LVU478
 707:HANcoder_E407_TTA_CombineModel_V2.c ****   boolean_T AND5;
 1355              		.loc 1 707 3 view .LVU479
 708:HANcoder_E407_TTA_CombineModel_V2.c ****   boolean_T AND7;
 1356              		.loc 1 708 3 view .LVU480
 709:HANcoder_E407_TTA_CombineModel_V2.c ****   boolean_T AND9;
 1357              		.loc 1 709 3 view .LVU481
 710:HANcoder_E407_TTA_CombineModel_V2.c ****   boolean_T Master_ID;
 1358              		.loc 1 710 3 view .LVU482
 711:HANcoder_E407_TTA_CombineModel_V2.c ****   boolean_T rtb_AND;
 1359              		.loc 1 711 3 view .LVU483
 712:HANcoder_E407_TTA_CombineModel_V2.c ****   boolean_T rtb_AND10;
 1360              		.loc 1 712 3 view .LVU484
 713:HANcoder_E407_TTA_CombineModel_V2.c ****   boolean_T rtb_AND13;
 1361              		.loc 1 713 3 view .LVU485
 714:HANcoder_E407_TTA_CombineModel_V2.c ****   boolean_T rtb_AND15;
 1362              		.loc 1 714 3 view .LVU486
 715:HANcoder_E407_TTA_CombineModel_V2.c ****   boolean_T rtb_AND1_k;
 1363              		.loc 1 715 3 view .LVU487
 716:HANcoder_E407_TTA_CombineModel_V2.c ****   boolean_T rtb_AND2;
 1364              		.loc 1 716 3 view .LVU488
 717:HANcoder_E407_TTA_CombineModel_V2.c ****   boolean_T rtb_AND4;
 1365              		.loc 1 717 3 view .LVU489
 718:HANcoder_E407_TTA_CombineModel_V2.c ****   boolean_T rtb_AND6;
 1366              		.loc 1 718 3 view .LVU490
 719:HANcoder_E407_TTA_CombineModel_V2.c ****   boolean_T rtb_AND8;
 1367              		.loc 1 719 3 view .LVU491
 720:HANcoder_E407_TTA_CombineModel_V2.c ****   boolean_T rtb_Equal14;
 1368              		.loc 1 720 3 view .LVU492
 721:HANcoder_E407_TTA_CombineModel_V2.c ****   boolean_T rtb_Equal16;
 1369              		.loc 1 721 3 view .LVU493
 722:HANcoder_E407_TTA_CombineModel_V2.c ****   boolean_T rtb_NotEqual;
 1370              		.loc 1 722 3 view .LVU494
 723:HANcoder_E407_TTA_CombineModel_V2.c ****   ZCEventType zcEvent;
 1371              		.loc 1 723 3 view .LVU495
 724:HANcoder_E407_TTA_CombineModel_V2.c **** 
 725:HANcoder_E407_TTA_CombineModel_V2.c ****   /* Outputs for Enabled SubSystem: '<S1>/Initialize Clock Schedule' incorporates:
 726:HANcoder_E407_TTA_CombineModel_V2.c ****    *  EnablePort: '<S6>/Enable'
 727:HANcoder_E407_TTA_CombineModel_V2.c ****    */
 728:HANcoder_E407_TTA_CombineModel_V2.c ****   /* Logic: '<S1>/NOT' incorporates:
 729:HANcoder_E407_TTA_CombineModel_V2.c ****    *  DataStoreRead: '<S1>/If 1 -> Clock initialized '
 730:HANcoder_E407_TTA_CombineModel_V2.c ****    */
 731:HANcoder_E407_TTA_CombineModel_V2.c ****   if (rtDWork.init_clock == 0.0) {
 1372              		.loc 1 731 3 view .LVU496
 641:HANcoder_E407_TTA_CombineModel_V2.c ****   /* local block i/o variables */
 1373              		.loc 1 641 1 is_stmt 0 view .LVU497
 1374 0000 2DE9F04F 		push	{r4, r5, r6, r7, r8, r9, r10, fp, lr}
 1375              		.cfi_def_cfa_offset 36
 1376              		.cfi_offset 4, -36
 1377              		.cfi_offset 5, -32
 1378              		.cfi_offset 6, -28
 1379              		.cfi_offset 7, -24
 1380              		.cfi_offset 8, -20
 1381              		.cfi_offset 9, -16
 1382              		.cfi_offset 10, -12
 1383              		.cfi_offset 11, -8
 1384              		.cfi_offset 14, -4
 1385 0004 2DED028B 		vpush.64	{d8}
 1386              		.cfi_def_cfa_offset 44
 1387              		.cfi_offset 80, -44
 1388              		.cfi_offset 81, -40
 1389              		.loc 1 731 14 view .LVU498
 1390 0008 6D4C     		ldr	r4, .L383
 641:HANcoder_E407_TTA_CombineModel_V2.c ****   /* local block i/o variables */
 1391              		.loc 1 641 1 view .LVU499
 1392 000a 91B0     		sub	sp, sp, #68
 1393              		.cfi_def_cfa_offset 112
 1394              		.loc 1 731 6 view .LVU500
 1395 000c D4E90401 		ldrd	r0, [r4, #16]
 1396 0010 0022     		movs	r2, #0
 1397 0012 0023     		movs	r3, #0
 1398 0014 FFF7FEFF 		bl	__aeabi_dcmpeq
 1399              	.LVL90:
 1400 0018 0028     		cmp	r0, #0
 1401 001a 40F09E86 		bne	.L359
 732:HANcoder_E407_TTA_CombineModel_V2.c ****     rtDWork.InitializeClockSchedule_MODE = true;
 733:HANcoder_E407_TTA_CombineModel_V2.c **** 
 734:HANcoder_E407_TTA_CombineModel_V2.c ****     /* DataStoreWrite: '<S6>/Data Store Write' incorporates:
 735:HANcoder_E407_TTA_CombineModel_V2.c ****      *  Constant: '<S6>/Constant2'
 736:HANcoder_E407_TTA_CombineModel_V2.c ****      */
 737:HANcoder_E407_TTA_CombineModel_V2.c ****     rtDWork.init_clock = 1.0;
 738:HANcoder_E407_TTA_CombineModel_V2.c **** 
 739:HANcoder_E407_TTA_CombineModel_V2.c ****     /* Update for M-S-Function: '<S15>/Level-2 M-file S-Function' incorporates:
 740:HANcoder_E407_TTA_CombineModel_V2.c ****      *  Constant: '<S6>/Constant'
 741:HANcoder_E407_TTA_CombineModel_V2.c ****      *  Constant: '<S6>/Constant1'
 742:HANcoder_E407_TTA_CombineModel_V2.c ****      */
 743:HANcoder_E407_TTA_CombineModel_V2.c ****     /* schedule the next output compare event */
 744:HANcoder_E407_TTA_CombineModel_V2.c ****     TimeoutScheduleCompareEvent(TIMEOUT_TIM4_PIN_PD12, ((uint16_T)1U),
 745:HANcoder_E407_TTA_CombineModel_V2.c ****       (tTimeoutAction)((uint8_T)3U));
 746:HANcoder_E407_TTA_CombineModel_V2.c ****   } else if (rtDWork.InitializeClockSchedule_MODE) {
 1402              		.loc 1 746 10 is_stmt 1 view .LVU501
 1403              		.loc 1 746 13 is_stmt 0 view .LVU502
 1404 001e 94F84D30 		ldrb	r3, [r4, #77]	@ zero_extendqisi2
 1405 0022 002B     		cmp	r3, #0
 1406 0024 40F0C880 		bne	.L360
 1407              	.L101:
 747:HANcoder_E407_TTA_CombineModel_V2.c ****     rtDWork.InitializeClockSchedule_MODE = false;
 748:HANcoder_E407_TTA_CombineModel_V2.c ****   }
 749:HANcoder_E407_TTA_CombineModel_V2.c **** 
 750:HANcoder_E407_TTA_CombineModel_V2.c ****   /* End of Logic: '<S1>/NOT' */
 751:HANcoder_E407_TTA_CombineModel_V2.c ****   /* End of Outputs for SubSystem: '<S1>/Initialize Clock Schedule' */
 752:HANcoder_E407_TTA_CombineModel_V2.c **** 
 753:HANcoder_E407_TTA_CombineModel_V2.c ****   /* If: '<S1>/If1' incorporates:
 754:HANcoder_E407_TTA_CombineModel_V2.c ****    *  DataStoreRead: '<S1>/Data Store Read2'
 755:HANcoder_E407_TTA_CombineModel_V2.c ****    */
 756:HANcoder_E407_TTA_CombineModel_V2.c ****   rtPrevAction = rtDWork.If1_ActiveSubsystem;
 1408              		.loc 1 756 3 is_stmt 1 view .LVU503
 1409              	.LVL91:
 757:HANcoder_E407_TTA_CombineModel_V2.c ****   rtAction = -1;
 1410              		.loc 1 757 3 view .LVU504
 758:HANcoder_E407_TTA_CombineModel_V2.c ****   if (rtDWork.Board_ID == 0.0) {
 1411              		.loc 1 758 3 view .LVU505
 1412              		.loc 1 758 6 is_stmt 0 view .LVU506
 1413 0028 D4E90601 		ldrd	r0, [r4, #24]
 1414 002c 0022     		movs	r2, #0
 1415 002e 0023     		movs	r3, #0
 1416 0030 FFF7FEFF 		bl	__aeabi_dcmpeq
 1417              	.LVL92:
 1418              		.loc 1 758 6 view .LVU507
 1419 0034 0028     		cmp	r0, #0
 1420 0036 40F0FF85 		bne	.L102
 759:HANcoder_E407_TTA_CombineModel_V2.c ****     rtAction = 0;
 760:HANcoder_E407_TTA_CombineModel_V2.c ****   }
 761:HANcoder_E407_TTA_CombineModel_V2.c **** 
 762:HANcoder_E407_TTA_CombineModel_V2.c ****   rtDWork.If1_ActiveSubsystem = rtAction;
 1421              		.loc 1 762 3 is_stmt 1 view .LVU508
 763:HANcoder_E407_TTA_CombineModel_V2.c ****   if ((rtPrevAction != rtAction) && (rtPrevAction == 0)) {
 764:HANcoder_E407_TTA_CombineModel_V2.c ****   }
 765:HANcoder_E407_TTA_CombineModel_V2.c **** 
 766:HANcoder_E407_TTA_CombineModel_V2.c ****   if (rtAction == 0) {
 767:HANcoder_E407_TTA_CombineModel_V2.c ****     /* Outputs for IfAction SubSystem: '<S1>/Setting ID' incorporates:
 768:HANcoder_E407_TTA_CombineModel_V2.c ****      *  ActionPort: '<S11>/Action Port'
 769:HANcoder_E407_TTA_CombineModel_V2.c ****      */
 770:HANcoder_E407_TTA_CombineModel_V2.c ****     /* M-S-Function: '<S174>/Level-2 M-file S-Function' */
 771:HANcoder_E407_TTA_CombineModel_V2.c ****     /* read from digital input */
 772:HANcoder_E407_TTA_CombineModel_V2.c ****     rtb_Level2MfileSFunction_j = DiginGet(DIGIN_PORTG_PIN12);
 773:HANcoder_E407_TTA_CombineModel_V2.c **** 
 774:HANcoder_E407_TTA_CombineModel_V2.c ****     /* Product: '<S11>/Multiply' incorporates:
 775:HANcoder_E407_TTA_CombineModel_V2.c ****      *  Constant: '<S11>/Constant1'
 776:HANcoder_E407_TTA_CombineModel_V2.c ****      */
 777:HANcoder_E407_TTA_CombineModel_V2.c ****     rtb_Multiply = rtb_Level2MfileSFunction_j ? 1.0 : 0.0;
 778:HANcoder_E407_TTA_CombineModel_V2.c **** 
 779:HANcoder_E407_TTA_CombineModel_V2.c ****     /* M-S-Function: '<S175>/Level-2 M-file S-Function' */
 780:HANcoder_E407_TTA_CombineModel_V2.c ****     /* read from digital input */
 781:HANcoder_E407_TTA_CombineModel_V2.c ****     rtb_Level2MfileSFunction_j = DiginGet(DIGIN_PORTG_PIN15);
 782:HANcoder_E407_TTA_CombineModel_V2.c **** 
 783:HANcoder_E407_TTA_CombineModel_V2.c ****     /* Product: '<S11>/Multiply1' incorporates:
 784:HANcoder_E407_TTA_CombineModel_V2.c ****      *  Constant: '<S11>/Constant4'
 785:HANcoder_E407_TTA_CombineModel_V2.c ****      */
 786:HANcoder_E407_TTA_CombineModel_V2.c ****     rtb_Multiply1 = rtb_Level2MfileSFunction_j ? 2.0 : 0.0;
 787:HANcoder_E407_TTA_CombineModel_V2.c **** 
 788:HANcoder_E407_TTA_CombineModel_V2.c ****     /* M-S-Function: '<S176>/Level-2 M-file S-Function' */
 789:HANcoder_E407_TTA_CombineModel_V2.c ****     /* read from digital input */
 790:HANcoder_E407_TTA_CombineModel_V2.c ****     rtb_Level2MfileSFunction_j = DiginGet(DIGIN_PORTA_PIN4);
 791:HANcoder_E407_TTA_CombineModel_V2.c **** 
 792:HANcoder_E407_TTA_CombineModel_V2.c ****     /* Sum: '<S11>/Add' incorporates:
 793:HANcoder_E407_TTA_CombineModel_V2.c ****      *  Constant: '<S11>/Constant6'
 794:HANcoder_E407_TTA_CombineModel_V2.c ****      *  Product: '<S11>/Multiply2'
 795:HANcoder_E407_TTA_CombineModel_V2.c ****      */
 796:HANcoder_E407_TTA_CombineModel_V2.c ****     rtB.Add = (rtb_Multiply + rtb_Multiply1) + (rtb_Level2MfileSFunction_j ? 4.0
 797:HANcoder_E407_TTA_CombineModel_V2.c ****       : 0.0);
 798:HANcoder_E407_TTA_CombineModel_V2.c **** 
 799:HANcoder_E407_TTA_CombineModel_V2.c ****     /* End of Outputs for SubSystem: '<S1>/Setting ID' */
 800:HANcoder_E407_TTA_CombineModel_V2.c ****   }
 801:HANcoder_E407_TTA_CombineModel_V2.c **** 
 802:HANcoder_E407_TTA_CombineModel_V2.c ****   /* End of If: '<S1>/If1' */
 803:HANcoder_E407_TTA_CombineModel_V2.c **** 
 804:HANcoder_E407_TTA_CombineModel_V2.c ****   /* DataStoreWrite: '<S1>/Data Store Write1' */
 805:HANcoder_E407_TTA_CombineModel_V2.c ****   rtDWork.Board_ID = rtB.Add;
 1422              		.loc 1 805 25 is_stmt 0 view .LVU509
 1423 003a DFF8B0A1 		ldr	r10, .L383+44
 1424 003e DAE90067 		ldrd	r6, [r10]
 762:HANcoder_E407_TTA_CombineModel_V2.c ****   if ((rtPrevAction != rtAction) && (rtPrevAction == 0)) {
 1425              		.loc 1 762 31 view .LVU510
 1426 0042 FF23     		movs	r3, #255
 1427 0044 84F83830 		strb	r3, [r4, #56]
 763:HANcoder_E407_TTA_CombineModel_V2.c ****   if ((rtPrevAction != rtAction) && (rtPrevAction == 0)) {
 1428              		.loc 1 763 3 is_stmt 1 view .LVU511
 764:HANcoder_E407_TTA_CombineModel_V2.c **** 
 1429              		.loc 1 764 3 view .LVU512
 766:HANcoder_E407_TTA_CombineModel_V2.c ****     /* Outputs for IfAction SubSystem: '<S1>/Setting ID' incorporates:
 1430              		.loc 1 766 3 view .LVU513
 1431              	.LVL93:
 1432              	.L103:
 1433              		.loc 1 805 3 view .LVU514
 806:HANcoder_E407_TTA_CombineModel_V2.c **** 
 807:HANcoder_E407_TTA_CombineModel_V2.c ****   /* RelationalOperator: '<S1>/Equal' incorporates:
 808:HANcoder_E407_TTA_CombineModel_V2.c ****    *  Constant: '<S1>/Constant'
 809:HANcoder_E407_TTA_CombineModel_V2.c ****    *  DataStoreRead: '<S1>/Data Store Read1'
 810:HANcoder_E407_TTA_CombineModel_V2.c ****    */
 811:HANcoder_E407_TTA_CombineModel_V2.c ****   masterID = (rtDWork.Board_ID == 1.0);
 1434              		.loc 1 811 32 is_stmt 0 view .LVU515
 1435 0048 5E4B     		ldr	r3, .L383+4
 1436 004a 0022     		movs	r2, #0
 1437 004c 3946     		mov	r1, r7
 805:HANcoder_E407_TTA_CombineModel_V2.c **** 
 1438              		.loc 1 805 20 view .LVU516
 1439 004e C4E90667 		strd	r6, [r4, #24]
 1440              		.loc 1 811 3 is_stmt 1 view .LVU517
 1441              		.loc 1 811 32 is_stmt 0 view .LVU518
 1442 0052 3046     		mov	r0, r6
 1443 0054 FFF7FEFF 		bl	__aeabi_dcmpeq
 1444              	.LVL94:
 812:HANcoder_E407_TTA_CombineModel_V2.c **** 
 813:HANcoder_E407_TTA_CombineModel_V2.c ****   /* DataStoreWrite: '<S1>/Data Store Write2' */
 814:HANcoder_E407_TTA_CombineModel_V2.c ****   Master_ID = masterID;
 815:HANcoder_E407_TTA_CombineModel_V2.c **** 
 816:HANcoder_E407_TTA_CombineModel_V2.c ****   /* Logic: '<S10>/AND' incorporates:
 817:HANcoder_E407_TTA_CombineModel_V2.c ****    *  Constant: '<S10>/Constant'
 818:HANcoder_E407_TTA_CombineModel_V2.c ****    *  DataStoreRead: '<S10>/Data Store Read1'
 819:HANcoder_E407_TTA_CombineModel_V2.c ****    *  DataStoreWrite: '<S1>/Data Store Write2'
 820:HANcoder_E407_TTA_CombineModel_V2.c ****    *  RelationalOperator: '<S10>/Less Than'
 821:HANcoder_E407_TTA_CombineModel_V2.c ****    */
 822:HANcoder_E407_TTA_CombineModel_V2.c ****   rtb_AND = ((ClockOn != 0.0) && (rtDWork.Board_ID == masterID));
 1445              		.loc 1 822 23 view .LVU519
 1446 0058 5B4B     		ldr	r3, .L383+8
 811:HANcoder_E407_TTA_CombineModel_V2.c **** 
 1447              		.loc 1 811 12 view .LVU520
 1448 005a 5C4A     		ldr	r2, .L383+12
 811:HANcoder_E407_TTA_CombineModel_V2.c **** 
 1449              		.loc 1 811 32 view .LVU521
 1450 005c 0038     		subs	r0, r0, #0
 1451 005e 18BF     		it	ne
 1452 0060 0120     		movne	r0, #1
 811:HANcoder_E407_TTA_CombineModel_V2.c **** 
 1453              		.loc 1 811 12 view .LVU522
 1454 0062 1070     		strb	r0, [r2]
 811:HANcoder_E407_TTA_CombineModel_V2.c **** 
 1455              		.loc 1 811 32 view .LVU523
 1456 0064 0546     		mov	r5, r0
 1457 0066 0590     		str	r0, [sp, #20]
 814:HANcoder_E407_TTA_CombineModel_V2.c **** 
 1458              		.loc 1 814 3 is_stmt 1 view .LVU524
 1459              	.LVL95:
 1460              		.loc 1 822 3 view .LVU525
 1461              		.loc 1 822 31 is_stmt 0 view .LVU526
 1462 0068 0022     		movs	r2, #0
 1463 006a D3E90001 		ldrd	r0, [r3]
 1464              	.LVL96:
 1465              		.loc 1 822 31 view .LVU527
 1466 006e 0023     		movs	r3, #0
 1467 0070 FFF7FEFF 		bl	__aeabi_dcmpeq
 1468              	.LVL97:
 1469              		.loc 1 822 31 view .LVU528
 1470 0074 48B9     		cbnz	r0, .L109
 1471              		.loc 1 822 52 discriminator 1 view .LVU529
 1472 0076 2846     		mov	r0, r5
 1473 0078 FFF7FEFF 		bl	__aeabi_i2d
 1474              	.LVL98:
 1475              		.loc 1 822 31 discriminator 1 view .LVU530
 1476 007c 3246     		mov	r2, r6
 1477 007e 3B46     		mov	r3, r7
 1478 0080 FFF7FEFF 		bl	__aeabi_dcmpeq
 1479              	.LVL99:
 1480 0084 0028     		cmp	r0, #0
 1481 0086 40F03685 		bne	.L247
 1482              	.L109:
 1483              	.LVL100:
 823:HANcoder_E407_TTA_CombineModel_V2.c **** 
 824:HANcoder_E407_TTA_CombineModel_V2.c ****   /* Logic: '<S10>/OR' incorporates:
 825:HANcoder_E407_TTA_CombineModel_V2.c ****    *  DataStoreRead: '<S10>/Data Store Read2'
 826:HANcoder_E407_TTA_CombineModel_V2.c ****    */
 827:HANcoder_E407_TTA_CombineModel_V2.c ****   rtB.OR = (rtb_AND || rtDWork.slaveClockOn);
 1484              		.loc 1 827 3 is_stmt 1 view .LVU531
 1485              		.loc 1 827 21 is_stmt 0 view .LVU532
 1486 008a 94F84230 		ldrb	r3, [r4, #66]	@ zero_extendqisi2
 1487              		.loc 1 827 10 view .LVU533
 1488 008e 003B     		subs	r3, r3, #0
 1489 0090 18BF     		it	ne
 1490 0092 0123     		movne	r3, #1
 1491 0094 8AF82330 		strb	r3, [r10, #35]
 828:HANcoder_E407_TTA_CombineModel_V2.c **** 
 829:HANcoder_E407_TTA_CombineModel_V2.c ****   /* End of Outputs for S-Function (sfcn_timeout_event_irq): '<S4>/S-Function' */
 830:HANcoder_E407_TTA_CombineModel_V2.c **** 
 831:HANcoder_E407_TTA_CombineModel_V2.c ****   /* Outputs for Enabled SubSystem: '<S1>/Message selector' incorporates:
 832:HANcoder_E407_TTA_CombineModel_V2.c ****    *  EnablePort: '<S8>/Enable'
 833:HANcoder_E407_TTA_CombineModel_V2.c ****    *
 834:HANcoder_E407_TTA_CombineModel_V2.c ****    * Block description for '<S1>/Message selector':
 835:HANcoder_E407_TTA_CombineModel_V2.c ****    *  Truck 1
 836:HANcoder_E407_TTA_CombineModel_V2.c ****    */
 837:HANcoder_E407_TTA_CombineModel_V2.c ****   if (canActive) {
 1492              		.loc 1 837 3 is_stmt 1 view .LVU534
 1493              		.loc 1 837 7 is_stmt 0 view .LVU535
 1494 0098 4D4B     		ldr	r3, .L383+16
 1495              		.loc 1 837 6 view .LVU536
 1496 009a 1B78     		ldrb	r3, [r3]	@ zero_extendqisi2
 822:HANcoder_E407_TTA_CombineModel_V2.c **** 
 1497              		.loc 1 822 11 view .LVU537
 1498 009c 0022     		movs	r2, #0
 1499 009e 0492     		str	r2, [sp, #16]
 1500              		.loc 1 837 6 view .LVU538
 1501 00a0 002B     		cmp	r3, #0
 1502 00a2 00F03185 		beq	.L111
 1503              	.L372:
 838:HANcoder_E407_TTA_CombineModel_V2.c ****     rtDWork.Messageselector_MODE = true;
 1504              		.loc 1 838 5 is_stmt 1 view .LVU539
 839:HANcoder_E407_TTA_CombineModel_V2.c **** 
 840:HANcoder_E407_TTA_CombineModel_V2.c ****     /* RelationalOperator: '<S8>/Equal1' incorporates:
 841:HANcoder_E407_TTA_CombineModel_V2.c ****      *  Constant: '<S8>/Constant1'
 842:HANcoder_E407_TTA_CombineModel_V2.c ****      */
 843:HANcoder_E407_TTA_CombineModel_V2.c ****     rtb_NotEqual = (slotSelected == 2.0);
 1505              		.loc 1 843 34 is_stmt 0 view .LVU540
 1506 00a6 DFF848B1 		ldr	fp, .L383+48
 1507 00aa 9BF80080 		ldrb	r8, [fp]	@ zero_extendqisi2
 1508 00ae 07EE908A 		vmov	s15, r8	@ int
 1509 00b2 F8EEE77A 		vcvt.f32.s32	s15, s15
 844:HANcoder_E407_TTA_CombineModel_V2.c **** 
 845:HANcoder_E407_TTA_CombineModel_V2.c ****     /* RelationalOperator: '<S8>/Equal11' incorporates:
 846:HANcoder_E407_TTA_CombineModel_V2.c ****      *  Constant: '<S8>/Constant13'
 847:HANcoder_E407_TTA_CombineModel_V2.c ****      *  DataStoreRead: '<S1>/Data Store Read'
 848:HANcoder_E407_TTA_CombineModel_V2.c ****      */
 849:HANcoder_E407_TTA_CombineModel_V2.c ****     rtb_Equal14 = (rtDWork.Board_ID == 1.0);
 850:HANcoder_E407_TTA_CombineModel_V2.c **** 
 851:HANcoder_E407_TTA_CombineModel_V2.c ****     /* Logic: '<S8>/AND3' incorporates:
 852:HANcoder_E407_TTA_CombineModel_V2.c ****      *  Logic: '<S8>/NOT1'
 853:HANcoder_E407_TTA_CombineModel_V2.c ****      */
 854:HANcoder_E407_TTA_CombineModel_V2.c ****     AND3 = (rtb_NotEqual && (!rtb_Equal14));
 1510              		.loc 1 854 26 view .LVU541
 1511 00b6 B0EE007A 		vmov.f32	s14, #2.0e+0
 1512 00ba F4EE477A 		vcmp.f32	s15, s14
 838:HANcoder_E407_TTA_CombineModel_V2.c **** 
 1513              		.loc 1 838 34 view .LVU542
 1514 00be 0125     		movs	r5, #1
 1515              	.LVL101:
 1516              		.loc 1 854 26 view .LVU543
 1517 00c0 F1EE10FA 		vmrs	APSR_nzcv, FPSCR
 838:HANcoder_E407_TTA_CombineModel_V2.c **** 
 1518              		.loc 1 838 34 view .LVU544
 1519 00c4 84F84850 		strb	r5, [r4, #72]
 843:HANcoder_E407_TTA_CombineModel_V2.c **** 
 1520              		.loc 1 843 5 is_stmt 1 view .LVU545
 1521              	.LVL102:
 849:HANcoder_E407_TTA_CombineModel_V2.c **** 
 1522              		.loc 1 849 5 view .LVU546
 1523              		.loc 1 854 5 view .LVU547
 1524              		.loc 1 854 26 is_stmt 0 view .LVU548
 1525 00c8 40F09680 		bne	.L112
 1526              		.loc 1 854 26 discriminator 1 view .LVU549
 1527 00cc 0022     		movs	r2, #0
 1528 00ce 3D4B     		ldr	r3, .L383+4
 1529 00d0 3046     		mov	r0, r6
 1530 00d2 3946     		mov	r1, r7
 1531 00d4 FFF7FEFF 		bl	__aeabi_dcmpeq
 1532              	.LVL103:
 1533              		.loc 1 854 26 discriminator 1 view .LVU550
 1534 00d8 0246     		mov	r2, r0
 1535 00da 0028     		cmp	r0, #0
 1536 00dc 40F06586 		bne	.L337
 1537              	.LVL104:
 855:HANcoder_E407_TTA_CombineModel_V2.c **** 
 856:HANcoder_E407_TTA_CombineModel_V2.c ****     /* Outputs for Enabled SubSystem: '<S8>/MMBS1_RX' */
 857:HANcoder_E407_TTA_CombineModel_V2.c ****     /* Constant: '<S8>/Constant12' */
 858:HANcoder_E407_TTA_CombineModel_V2.c ****     MMBS1_RX(AND3, MMBS1_ID, &rtB.MMBS1_RX_j, &rtDWork.MMBS1_RX_j);
 1538              		.loc 1 858 5 is_stmt 1 view .LVU551
 1539              	.LBB171:
 1540              	.LBB172:
 1541              	.LBB173:
 1542              	.LBB174:
 350:HANcoder_E407_TTA_CombineModel_V2.c **** 
 1543              		.loc 1 350 28 is_stmt 0 view .LVU552
 1544 00e0 84F8C952 		strb	r5, [r4, #713]
 1545              	.LBE174:
 1546              	.LBE173:
 1547              	.LBE172:
 1548              	.LBE171:
 1549              		.loc 1 858 5 view .LVU553
 1550 00e4 3B4B     		ldr	r3, .L383+20
 1551              	.LVL105:
 1552              	.LBB190:
 1553              	.LBI171:
 332:HANcoder_E407_TTA_CombineModel_V2.c ****               rtDW_MMBS1_RX *localDW)
 1554              		.loc 1 332 6 is_stmt 1 view .LVU554
 1555              	.LBB185:
 336:HANcoder_E407_TTA_CombineModel_V2.c ****   uint8_T rtb_SFunction_o3_b;
 1556              		.loc 1 336 3 view .LVU555
 337:HANcoder_E407_TTA_CombineModel_V2.c ****   uint8_T rtb_SFunction_o4_l;
 1557              		.loc 1 337 3 view .LVU556
 338:HANcoder_E407_TTA_CombineModel_V2.c ****   uint8_T rtb_SFunction_o5_e;
 1558              		.loc 1 338 3 view .LVU557
 339:HANcoder_E407_TTA_CombineModel_V2.c ****   uint8_T rtb_SFunction_o6_k;
 1559              		.loc 1 339 3 view .LVU558
 340:HANcoder_E407_TTA_CombineModel_V2.c ****   uint8_T rtb_SFunction_o7_dj;
 1560              		.loc 1 340 3 view .LVU559
 341:HANcoder_E407_TTA_CombineModel_V2.c ****   uint8_T rtb_SFunction_o8_n1;
 1561              		.loc 1 341 3 view .LVU560
 342:HANcoder_E407_TTA_CombineModel_V2.c ****   uint8_T rtb_SFunction_o9_o;
 1562              		.loc 1 342 3 view .LVU561
 343:HANcoder_E407_TTA_CombineModel_V2.c ****   int8_T rtb_SFunction_o1_g;
 1563              		.loc 1 343 3 view .LVU562
 344:HANcoder_E407_TTA_CombineModel_V2.c **** 
 1564              		.loc 1 344 3 view .LVU563
 349:HANcoder_E407_TTA_CombineModel_V2.c ****     localDW->MMBS1_RX_MODE = true;
 1565              		.loc 1 349 3 view .LVU564
 1566              	.LBB178:
 1567              	.LBI173:
 332:HANcoder_E407_TTA_CombineModel_V2.c ****               rtDW_MMBS1_RX *localDW)
 1568              		.loc 1 332 6 view .LVU565
 1569              	.LBB177:
 350:HANcoder_E407_TTA_CombineModel_V2.c **** 
 1570              		.loc 1 350 5 view .LVU566
 355:HANcoder_E407_TTA_CombineModel_V2.c ****       &canRxData_0_rtu_In1.uint8_T_info[0], NULL);
 1571              		.loc 1 355 5 view .LVU567
 355:HANcoder_E407_TTA_CombineModel_V2.c ****       &canRxData_0_rtu_In1.uint8_T_info[0], NULL);
 1572              		.loc 1 355 26 is_stmt 0 view .LVU568
 1573 00e6 3C4D     		ldr	r5, .L383+24
 1574 00e8 0090     		str	r0, [sp]
 1575 00ea 1968     		ldr	r1, [r3]
 1576 00ec 2B46     		mov	r3, r5
 1577              	.LVL106:
 355:HANcoder_E407_TTA_CombineModel_V2.c ****       &canRxData_0_rtu_In1.uint8_T_info[0], NULL);
 1578              		.loc 1 355 26 view .LVU569
 1579 00ee FFF7FEFF 		bl	CanIoGetMessage
 1580              	.LVL107:
 359:HANcoder_E407_TTA_CombineModel_V2.c ****       /* read the data */
 1581              		.loc 1 359 5 is_stmt 1 view .LVU570
 359:HANcoder_E407_TTA_CombineModel_V2.c ****       /* read the data */
 1582              		.loc 1 359 8 is_stmt 0 view .LVU571
 1583 00f2 0028     		cmp	r0, #0
 1584 00f4 02DD     		ble	.L115
 361:HANcoder_E407_TTA_CombineModel_V2.c ****       rtb_SFunction_o3_b = canRxData_0_rtu_In1.uint8_T_info[1];
 1585              		.loc 1 361 7 is_stmt 1 view .LVU572
 1586              	.LVL108:
 362:HANcoder_E407_TTA_CombineModel_V2.c ****       rtb_SFunction_o4_l = canRxData_0_rtu_In1.uint8_T_info[2];
 1587              		.loc 1 362 7 view .LVU573
 363:HANcoder_E407_TTA_CombineModel_V2.c ****       rtb_SFunction_o5_e = canRxData_0_rtu_In1.uint8_T_info[3];
 1588              		.loc 1 363 7 view .LVU574
 364:HANcoder_E407_TTA_CombineModel_V2.c ****       rtb_SFunction_o6_k = canRxData_0_rtu_In1.uint8_T_info[4];
 1589              		.loc 1 364 7 view .LVU575
 365:HANcoder_E407_TTA_CombineModel_V2.c ****       rtb_SFunction_o7_dj = canRxData_0_rtu_In1.uint8_T_info[5];
 1590              		.loc 1 365 7 view .LVU576
 366:HANcoder_E407_TTA_CombineModel_V2.c ****       rtb_SFunction_o8_n1 = canRxData_0_rtu_In1.uint8_T_info[6];
 1591              		.loc 1 366 7 view .LVU577
 367:HANcoder_E407_TTA_CombineModel_V2.c ****       rtb_SFunction_o9_o = canRxData_0_rtu_In1.uint8_T_info[7];
 1592              		.loc 1 367 7 view .LVU578
 368:HANcoder_E407_TTA_CombineModel_V2.c ****     }
 1593              		.loc 1 368 7 view .LVU579
 372:HANcoder_E407_TTA_CombineModel_V2.c ****                      &localB->EnabledSubsystem_k);
 1594              		.loc 1 372 5 view .LVU580
 1595              	.LBB175:
 1596              	.LBI175:
 284:HANcoder_E407_TTA_CombineModel_V2.c ****                       *localB)
 1597              		.loc 1 284 6 view .LVU581
 1598              	.LBB176:
 290:HANcoder_E407_TTA_CombineModel_V2.c ****     /* SignalConversion generated from: '<S38>/In1' */
 1599              		.loc 1 290 3 view .LVU582
 292:HANcoder_E407_TTA_CombineModel_V2.c ****   }
 1600              		.loc 1 292 5 view .LVU583
 292:HANcoder_E407_TTA_CombineModel_V2.c ****   }
 1601              		.loc 1 292 17 is_stmt 0 view .LVU584
 1602 00f6 2B78     		ldrb	r3, [r5]	@ zero_extendqisi2
 1603 00f8 8AF86630 		strb	r3, [r10, #102]
 1604              	.LVL109:
 1605              	.L115:
 292:HANcoder_E407_TTA_CombineModel_V2.c ****   }
 1606              		.loc 1 292 17 view .LVU585
 1607              	.LBE176:
 1608              	.LBE175:
 1609              	.LBE177:
 1610              	.LBE178:
 1611              	.LBE185:
 1612              	.LBE190:
 859:HANcoder_E407_TTA_CombineModel_V2.c **** 
 860:HANcoder_E407_TTA_CombineModel_V2.c ****     /* End of Outputs for SubSystem: '<S8>/MMBS1_RX' */
 861:HANcoder_E407_TTA_CombineModel_V2.c **** 
 862:HANcoder_E407_TTA_CombineModel_V2.c ****     /* Logic: '<S8>/AND2' */
 863:HANcoder_E407_TTA_CombineModel_V2.c ****     rtb_AND2 = (rtb_NotEqual && rtb_Equal14);
 1613              		.loc 1 863 5 is_stmt 1 view .LVU586
 1614              		.loc 1 863 30 is_stmt 0 view .LVU587
 1615 00fc 314B     		ldr	r3, .L383+4
 1616 00fe 0022     		movs	r2, #0
 1617 0100 3046     		mov	r0, r6
 1618 0102 3946     		mov	r1, r7
 1619 0104 FFF7FEFF 		bl	__aeabi_dcmpeq
 1620              	.LVL110:
 1621 0108 0028     		cmp	r0, #0
 1622 010a 40F0A286 		bne	.L238
 864:HANcoder_E407_TTA_CombineModel_V2.c **** 
 865:HANcoder_E407_TTA_CombineModel_V2.c ****     /* Outputs for Triggered SubSystem: '<S8>/MMBS1_TX' */
 866:HANcoder_E407_TTA_CombineModel_V2.c ****     /* Constant: '<S8>/Constant12' */
 867:HANcoder_E407_TTA_CombineModel_V2.c ****     MMBS1_TX(rtb_AND2, MMBS1_ID, &rtPrevZCSigState.MMBS1_TX_a);
 868:HANcoder_E407_TTA_CombineModel_V2.c **** 
 869:HANcoder_E407_TTA_CombineModel_V2.c ****     /* End of Outputs for SubSystem: '<S8>/MMBS1_TX' */
 870:HANcoder_E407_TTA_CombineModel_V2.c **** 
 871:HANcoder_E407_TTA_CombineModel_V2.c ****     /* RelationalOperator: '<S8>/Equal2' incorporates:
 872:HANcoder_E407_TTA_CombineModel_V2.c ****      *  Constant: '<S8>/Constant2'
 873:HANcoder_E407_TTA_CombineModel_V2.c ****      */
 874:HANcoder_E407_TTA_CombineModel_V2.c ****     rtb_Equal14 = (slotSelected == 3.0);
 1623              		.loc 1 874 33 view .LVU588
 1624 010e 9BF80080 		ldrb	r8, [fp]	@ zero_extendqisi2
 1625              	.LVL111:
 1626              		.loc 1 874 33 view .LVU589
 1627 0112 324D     		ldr	r5, .L383+28
 1628 0114 07EE908A 		vmov	s15, r8	@ int
 1629 0118 F8EEE77A 		vcvt.f32.s32	s15, s15
 875:HANcoder_E407_TTA_CombineModel_V2.c **** 
 876:HANcoder_E407_TTA_CombineModel_V2.c ****     /* RelationalOperator: '<S8>/Equal12' incorporates:
 877:HANcoder_E407_TTA_CombineModel_V2.c ****      *  Constant: '<S8>/Constant15'
 878:HANcoder_E407_TTA_CombineModel_V2.c ****      *  DataStoreRead: '<S1>/Data Store Read'
 879:HANcoder_E407_TTA_CombineModel_V2.c ****      */
 880:HANcoder_E407_TTA_CombineModel_V2.c ****     rtb_NotEqual = (rtDWork.Board_ID == 1.0);
 1630              		.loc 1 880 28 view .LVU590
 1631 011c 94ED066B 		vldr.64	d6, [r4, #24]
 881:HANcoder_E407_TTA_CombineModel_V2.c **** 
 882:HANcoder_E407_TTA_CombineModel_V2.c ****     /* Logic: '<S8>/AND5' incorporates:
 883:HANcoder_E407_TTA_CombineModel_V2.c ****      *  Logic: '<S8>/NOT2'
 884:HANcoder_E407_TTA_CombineModel_V2.c ****      */
 885:HANcoder_E407_TTA_CombineModel_V2.c ****     AND5 = (rtb_Equal14 && (!rtb_NotEqual));
 1632              		.loc 1 885 25 view .LVU591
 1633 0120 B0EE087A 		vmov.f32	s14, #3.0e+0
 1634 0124 F4EE477A 		vcmp.f32	s15, s14
 1635 0128 F1EE10FA 		vmrs	APSR_nzcv, FPSCR
 880:HANcoder_E407_TTA_CombineModel_V2.c **** 
 1636              		.loc 1 880 28 view .LVU592
 1637 012c 8DED066B 		vstr.64	d6, [sp, #24]
 1638              	.LBB191:
 1639              	.LBB192:
 404:HANcoder_E407_TTA_CombineModel_V2.c **** 
 1640              		.loc 1 404 3 is_stmt 1 view .LVU593
 404:HANcoder_E407_TTA_CombineModel_V2.c **** 
 1641              		.loc 1 404 31 is_stmt 0 view .LVU594
 1642 0130 2873     		strb	r0, [r5, #12]
 1643              	.LBE192:
 1644              	.LBE191:
 874:HANcoder_E407_TTA_CombineModel_V2.c **** 
 1645              		.loc 1 874 5 is_stmt 1 view .LVU595
 1646              	.LVL112:
 880:HANcoder_E407_TTA_CombineModel_V2.c **** 
 1647              		.loc 1 880 5 view .LVU596
 1648              		.loc 1 885 5 view .LVU597
 1649              		.loc 1 885 25 is_stmt 0 view .LVU598
 1650 0132 71D0     		beq	.L361
 1651              	.LVL113:
 1652              	.L118:
 886:HANcoder_E407_TTA_CombineModel_V2.c **** 
 887:HANcoder_E407_TTA_CombineModel_V2.c ****     /* Outputs for Enabled SubSystem: '<S8>/SSTM1_RX' */
 888:HANcoder_E407_TTA_CombineModel_V2.c ****     /* Constant: '<S8>/Constant14' */
 889:HANcoder_E407_TTA_CombineModel_V2.c ****     MMBS1_RX(AND5, SSTM1_ID, &rtB.SSTM1_RX, &rtDWork.SSTM1_RX);
 1653              		.loc 1 889 5 is_stmt 1 view .LVU599
 1654              	.LBB197:
 1655              	.LBI197:
 332:HANcoder_E407_TTA_CombineModel_V2.c ****               rtDW_MMBS1_RX *localDW)
 1656              		.loc 1 332 6 view .LVU600
 1657              	.LBB198:
 336:HANcoder_E407_TTA_CombineModel_V2.c ****   uint8_T rtb_SFunction_o3_b;
 1658              		.loc 1 336 3 view .LVU601
 337:HANcoder_E407_TTA_CombineModel_V2.c ****   uint8_T rtb_SFunction_o4_l;
 1659              		.loc 1 337 3 view .LVU602
 338:HANcoder_E407_TTA_CombineModel_V2.c ****   uint8_T rtb_SFunction_o5_e;
 1660              		.loc 1 338 3 view .LVU603
 339:HANcoder_E407_TTA_CombineModel_V2.c ****   uint8_T rtb_SFunction_o6_k;
 1661              		.loc 1 339 3 view .LVU604
 340:HANcoder_E407_TTA_CombineModel_V2.c ****   uint8_T rtb_SFunction_o7_dj;
 1662              		.loc 1 340 3 view .LVU605
 341:HANcoder_E407_TTA_CombineModel_V2.c ****   uint8_T rtb_SFunction_o8_n1;
 1663              		.loc 1 341 3 view .LVU606
 342:HANcoder_E407_TTA_CombineModel_V2.c ****   uint8_T rtb_SFunction_o9_o;
 1664              		.loc 1 342 3 view .LVU607
 343:HANcoder_E407_TTA_CombineModel_V2.c ****   int8_T rtb_SFunction_o1_g;
 1665              		.loc 1 343 3 view .LVU608
 344:HANcoder_E407_TTA_CombineModel_V2.c **** 
 1666              		.loc 1 344 3 view .LVU609
 349:HANcoder_E407_TTA_CombineModel_V2.c ****     localDW->MMBS1_RX_MODE = true;
 1667              		.loc 1 349 3 view .LVU610
 376:HANcoder_E407_TTA_CombineModel_V2.c ****     MMBS1_RX_Disable(localDW);
 1668              		.loc 1 376 10 view .LVU611
 376:HANcoder_E407_TTA_CombineModel_V2.c ****     MMBS1_RX_Disable(localDW);
 1669              		.loc 1 376 13 is_stmt 0 view .LVU612
 1670 0134 94F8C832 		ldrb	r3, [r4, #712]	@ zero_extendqisi2
 1671 0138 13B1     		cbz	r3, .L237
 377:HANcoder_E407_TTA_CombineModel_V2.c ****   }
 1672              		.loc 1 377 5 is_stmt 1 view .LVU613
 1673              	.LVL114:
 1674              	.LBB199:
 1675              	.LBI199:
 305:HANcoder_E407_TTA_CombineModel_V2.c **** {
 1676              		.loc 1 305 6 view .LVU614
 1677              	.LBB200:
 307:HANcoder_E407_TTA_CombineModel_V2.c **** }
 1678              		.loc 1 307 3 view .LVU615
 307:HANcoder_E407_TTA_CombineModel_V2.c **** }
 1679              		.loc 1 307 26 is_stmt 0 view .LVU616
 1680 013a 0023     		movs	r3, #0
 1681 013c 84F8C832 		strb	r3, [r4, #712]
 1682              	.LVL115:
 307:HANcoder_E407_TTA_CombineModel_V2.c **** }
 1683              		.loc 1 307 26 view .LVU617
 1684              	.LBE200:
 1685              	.LBE199:
 1686              	.LBE198:
 1687              	.LBE197:
 890:HANcoder_E407_TTA_CombineModel_V2.c **** 
 891:HANcoder_E407_TTA_CombineModel_V2.c ****     /* End of Outputs for SubSystem: '<S8>/SSTM1_RX' */
 892:HANcoder_E407_TTA_CombineModel_V2.c **** 
 893:HANcoder_E407_TTA_CombineModel_V2.c ****     /* Logic: '<S8>/AND4' */
 894:HANcoder_E407_TTA_CombineModel_V2.c ****     rtb_AND4 = (rtb_Equal14 && rtb_NotEqual);
 1688              		.loc 1 894 5 is_stmt 1 view .LVU618
 1689              	.L237:
 1690              		.loc 1 894 14 is_stmt 0 view .LVU619
 1691 0140 0023     		movs	r3, #0
 1692              	.LBB209:
 1693              	.LBB210:
 404:HANcoder_E407_TTA_CombineModel_V2.c **** 
 1694              		.loc 1 404 3 is_stmt 1 view .LVU620
 1695              	.LBE210:
 1696              	.LBE209:
 895:HANcoder_E407_TTA_CombineModel_V2.c **** 
 896:HANcoder_E407_TTA_CombineModel_V2.c ****     /* Outputs for Triggered SubSystem: '<S8>/SSTM1_TX' */
 897:HANcoder_E407_TTA_CombineModel_V2.c ****     /* Constant: '<S8>/Constant14' */
 898:HANcoder_E407_TTA_CombineModel_V2.c ****     MMBS1_TX(rtb_AND4, SSTM1_ID, &rtPrevZCSigState.SSTM1_TX);
 899:HANcoder_E407_TTA_CombineModel_V2.c **** 
 900:HANcoder_E407_TTA_CombineModel_V2.c ****     /* End of Outputs for SubSystem: '<S8>/SSTM1_TX' */
 901:HANcoder_E407_TTA_CombineModel_V2.c **** 
 902:HANcoder_E407_TTA_CombineModel_V2.c ****     /* RelationalOperator: '<S8>/Equal' incorporates:
 903:HANcoder_E407_TTA_CombineModel_V2.c ****      *  Constant: '<S8>/Constant'
 904:HANcoder_E407_TTA_CombineModel_V2.c ****      */
 905:HANcoder_E407_TTA_CombineModel_V2.c ****     rtb_Equal14 = (slotSelected == ((uint8_T)1U));
 906:HANcoder_E407_TTA_CombineModel_V2.c **** 
 907:HANcoder_E407_TTA_CombineModel_V2.c ****     /* RelationalOperator: '<S8>/Equal10' incorporates:
 908:HANcoder_E407_TTA_CombineModel_V2.c ****      *  Constant: '<S8>/Constant11'
 909:HANcoder_E407_TTA_CombineModel_V2.c ****      *  DataStoreRead: '<S1>/Data Store Read'
 910:HANcoder_E407_TTA_CombineModel_V2.c ****      */
 911:HANcoder_E407_TTA_CombineModel_V2.c ****     rtb_NotEqual = (rtDWork.Board_ID == ((uint8_T)1U));
 912:HANcoder_E407_TTA_CombineModel_V2.c **** 
 913:HANcoder_E407_TTA_CombineModel_V2.c ****     /* Logic: '<S8>/AND1' incorporates:
 914:HANcoder_E407_TTA_CombineModel_V2.c ****      *  Logic: '<S8>/NOT'
 915:HANcoder_E407_TTA_CombineModel_V2.c ****      */
 916:HANcoder_E407_TTA_CombineModel_V2.c ****     rtb_AND1_k = (rtb_Equal14 && (!rtb_NotEqual));
 1697              		.loc 1 916 31 is_stmt 0 view .LVU621
 1698 0142 B8F1010F 		cmp	r8, #1
 1699              	.LBB216:
 1700              	.LBB211:
 404:HANcoder_E407_TTA_CombineModel_V2.c **** 
 1701              		.loc 1 404 31 view .LVU622
 1702 0146 EB72     		strb	r3, [r5, #11]
 1703              	.LBE211:
 1704              	.LBE216:
 905:HANcoder_E407_TTA_CombineModel_V2.c **** 
 1705              		.loc 1 905 5 is_stmt 1 view .LVU623
 1706              	.LVL116:
 911:HANcoder_E407_TTA_CombineModel_V2.c **** 
 1707              		.loc 1 911 5 view .LVU624
 1708              		.loc 1 916 5 view .LVU625
 1709              		.loc 1 916 31 is_stmt 0 view .LVU626
 1710 0148 40F08D80 		bne	.L362
 1711              	.LVL117:
 1712              	.L123:
 1713              		.loc 1 916 31 discriminator 1 view .LVU627
 1714 014c 0022     		movs	r2, #0
 1715 014e DDE90601 		ldrd	r0, [sp, #24]
 1716 0152 1C4B     		ldr	r3, .L383+4
 1717 0154 FFF7FEFF 		bl	__aeabi_dcmpeq
 1718              	.LVL118:
 1719 0158 0246     		mov	r2, r0
 1720 015a 0028     		cmp	r0, #0
 1721 015c 00F0CF87 		beq	.L125
 1722              	.LVL119:
 917:HANcoder_E407_TTA_CombineModel_V2.c **** 
 918:HANcoder_E407_TTA_CombineModel_V2.c ****     /* Outputs for Enabled SubSystem: '<S8>/SYNC1_RX' incorporates:
 919:HANcoder_E407_TTA_CombineModel_V2.c ****      *  EnablePort: '<S23>/Enable'
 920:HANcoder_E407_TTA_CombineModel_V2.c ****      */
 921:HANcoder_E407_TTA_CombineModel_V2.c ****     if (rtb_AND1_k) {
 1723              		.loc 1 921 5 is_stmt 1 view .LVU628
 922:HANcoder_E407_TTA_CombineModel_V2.c ****       rtDWork.SYNC1_RX_MODE = true;
 923:HANcoder_E407_TTA_CombineModel_V2.c **** 
 924:HANcoder_E407_TTA_CombineModel_V2.c ****       /* M-S-Function: '<S43>/S-Function' incorporates:
 925:HANcoder_E407_TTA_CombineModel_V2.c ****        *  Constant: '<S8>/Constant10'
 926:HANcoder_E407_TTA_CombineModel_V2.c ****        */
 927:HANcoder_E407_TTA_CombineModel_V2.c **** 
 928:HANcoder_E407_TTA_CombineModel_V2.c ****       /* read the message data and store the new parameter */
 929:HANcoder_E407_TTA_CombineModel_V2.c ****       rtb_SFunction_o1_h = CanIoGetMessage(0, SYNC1_ID, NULL,
 930:HANcoder_E407_TTA_CombineModel_V2.c ****         &canRxData_0_SYNC1_ID.uint8_T_info[0], NULL);
 931:HANcoder_E407_TTA_CombineModel_V2.c **** 
 932:HANcoder_E407_TTA_CombineModel_V2.c ****       /* process the message data */
 933:HANcoder_E407_TTA_CombineModel_V2.c ****       if (rtb_SFunction_o1_h > 0) {
 934:HANcoder_E407_TTA_CombineModel_V2.c ****         /* read the data */
 935:HANcoder_E407_TTA_CombineModel_V2.c ****         rtb_SFunction_o2_i = canRxData_0_SYNC1_ID.uint8_T_info[0];
 936:HANcoder_E407_TTA_CombineModel_V2.c ****         rtb_SFunction_o3_g = canRxData_0_SYNC1_ID.uint8_T_info[1];
 937:HANcoder_E407_TTA_CombineModel_V2.c ****         rtb_SFunction_o4_j = canRxData_0_SYNC1_ID.uint8_T_info[2];
 938:HANcoder_E407_TTA_CombineModel_V2.c ****         rtb_SFunction_o5_f = canRxData_0_SYNC1_ID.uint8_T_info[3];
 939:HANcoder_E407_TTA_CombineModel_V2.c ****         rtb_SFunction_o6_g = canRxData_0_SYNC1_ID.uint8_T_info[4];
 940:HANcoder_E407_TTA_CombineModel_V2.c ****         rtb_SFunction_o7_k = canRxData_0_SYNC1_ID.uint8_T_info[5];
 941:HANcoder_E407_TTA_CombineModel_V2.c ****         rtb_SFunction_o8_n = canRxData_0_SYNC1_ID.uint8_T_info[6];
 942:HANcoder_E407_TTA_CombineModel_V2.c ****         rtb_SFunction_o9_b1 = canRxData_0_SYNC1_ID.uint8_T_info[7];
 943:HANcoder_E407_TTA_CombineModel_V2.c ****       }
 944:HANcoder_E407_TTA_CombineModel_V2.c **** 
 945:HANcoder_E407_TTA_CombineModel_V2.c ****       /* Outputs for Enabled SubSystem: '<S43>/Enabled Subsystem' */
 946:HANcoder_E407_TTA_CombineModel_V2.c ****       EnabledSubsystem(rtb_SFunction_o1_h, rtb_SFunction_o2_i,
 947:HANcoder_E407_TTA_CombineModel_V2.c ****                        &rtB.EnabledSubsystem_c);
 948:HANcoder_E407_TTA_CombineModel_V2.c **** 
 949:HANcoder_E407_TTA_CombineModel_V2.c ****       /* End of Outputs for SubSystem: '<S43>/Enabled Subsystem' */
 950:HANcoder_E407_TTA_CombineModel_V2.c **** 
 951:HANcoder_E407_TTA_CombineModel_V2.c ****       /* Outputs for Triggered SubSystem: '<S23>/Subsystem' incorporates:
 952:HANcoder_E407_TTA_CombineModel_V2.c ****        *  TriggerPort: '<S44>/Trigger'
 953:HANcoder_E407_TTA_CombineModel_V2.c ****        */
 954:HANcoder_E407_TTA_CombineModel_V2.c ****       zcEvent = rt_I32ZCFcn(RISING_ZERO_CROSSING,
 955:HANcoder_E407_TTA_CombineModel_V2.c ****                             &rtPrevZCSigState.Subsystem_Trig_ZCE_h,
 956:HANcoder_E407_TTA_CombineModel_V2.c ****                             (rtb_SFunction_o1_h));
 957:HANcoder_E407_TTA_CombineModel_V2.c ****       if (zcEvent != NO_ZCEVENT) {
 958:HANcoder_E407_TTA_CombineModel_V2.c ****         /* DataStoreWrite: '<S44>/Data Store Write' */
 959:HANcoder_E407_TTA_CombineModel_V2.c ****         rtDWork.SlotTime = rtB.EnabledSubsystem_c.In1;
 960:HANcoder_E407_TTA_CombineModel_V2.c **** 
 961:HANcoder_E407_TTA_CombineModel_V2.c ****         /* DataStoreWrite: '<S44>/Data Store Write1' incorporates:
 962:HANcoder_E407_TTA_CombineModel_V2.c ****          *  Constant: '<S44>/Constant'
 963:HANcoder_E407_TTA_CombineModel_V2.c ****          */
 964:HANcoder_E407_TTA_CombineModel_V2.c ****         rtDWork.Local_Ticks = ((uint8_T)2U);
 965:HANcoder_E407_TTA_CombineModel_V2.c **** 
 966:HANcoder_E407_TTA_CombineModel_V2.c ****         /* DataStoreWrite: '<S44>/Data Store Write2' incorporates:
 967:HANcoder_E407_TTA_CombineModel_V2.c ****          *  Constant: '<S44>/Constant1'
 968:HANcoder_E407_TTA_CombineModel_V2.c ****          */
 969:HANcoder_E407_TTA_CombineModel_V2.c ****         rtDWork.slot = ((uint8_T)1U);
 970:HANcoder_E407_TTA_CombineModel_V2.c ****       }
 971:HANcoder_E407_TTA_CombineModel_V2.c **** 
 972:HANcoder_E407_TTA_CombineModel_V2.c ****       /* End of Outputs for SubSystem: '<S23>/Subsystem' */
 973:HANcoder_E407_TTA_CombineModel_V2.c ****     } else if (rtDWork.SYNC1_RX_MODE) {
 1724              		.loc 1 973 12 view .LVU629
 1725              		.loc 1 973 15 is_stmt 0 view .LVU630
 1726 0160 94F84C30 		ldrb	r3, [r4, #76]	@ zero_extendqisi2
 1727 0164 13B1     		cbz	r3, .L126
 974:HANcoder_E407_TTA_CombineModel_V2.c ****       rtDWork.SYNC1_RX_MODE = false;
 1728              		.loc 1 974 7 is_stmt 1 view .LVU631
 1729              		.loc 1 974 29 is_stmt 0 view .LVU632
 1730 0166 0023     		movs	r3, #0
 1731 0168 84F84C30 		strb	r3, [r4, #76]
 975:HANcoder_E407_TTA_CombineModel_V2.c ****     }
 976:HANcoder_E407_TTA_CombineModel_V2.c **** 
 977:HANcoder_E407_TTA_CombineModel_V2.c ****     /* End of Outputs for SubSystem: '<S8>/SYNC1_RX' */
 978:HANcoder_E407_TTA_CombineModel_V2.c **** 
 979:HANcoder_E407_TTA_CombineModel_V2.c ****     /* Logic: '<S8>/AND' */
 980:HANcoder_E407_TTA_CombineModel_V2.c ****     boolCan = (rtb_Equal14 && rtb_NotEqual);
 1732              		.loc 1 980 5 is_stmt 1 view .LVU633
 1733              	.L126:
 981:HANcoder_E407_TTA_CombineModel_V2.c **** 
 982:HANcoder_E407_TTA_CombineModel_V2.c ****     /* Outputs for Triggered SubSystem: '<S8>/SYNC1_TX' incorporates:
 983:HANcoder_E407_TTA_CombineModel_V2.c ****      *  TriggerPort: '<S24>/Trigger'
 984:HANcoder_E407_TTA_CombineModel_V2.c ****      */
 985:HANcoder_E407_TTA_CombineModel_V2.c ****     if (boolCan && (rtPrevZCSigState.SYNC1_TX_Trig_ZCE != POS_ZCSIG)) {
 1734              		.loc 1 985 17 is_stmt 0 view .LVU634
 1735 016c 6B7A     		ldrb	r3, [r5, #9]	@ zero_extendqisi2
 980:HANcoder_E407_TTA_CombineModel_V2.c **** 
 1736              		.loc 1 980 13 view .LVU635
 1737 016e DFF87880 		ldr	r8, .L383+40
 1738 0172 0122     		movs	r2, #1
 1739              		.loc 1 985 17 view .LVU636
 1740 0174 9342     		cmp	r3, r2
 980:HANcoder_E407_TTA_CombineModel_V2.c **** 
 1741              		.loc 1 980 13 view .LVU637
 1742 0176 88F80020 		strb	r2, [r8]
 1743              		.loc 1 985 5 is_stmt 1 view .LVU638
 1744              		.loc 1 985 17 is_stmt 0 view .LVU639
 1745 017a 00F0D586 		beq	.L348
 986:HANcoder_E407_TTA_CombineModel_V2.c ****       /* DataStoreRead: '<S24>/Data Store Read1' */
 987:HANcoder_E407_TTA_CombineModel_V2.c ****       testCounter = rtDWork.testCount;
 1746              		.loc 1 987 7 is_stmt 1 view .LVU640
 988:HANcoder_E407_TTA_CombineModel_V2.c **** 
 989:HANcoder_E407_TTA_CombineModel_V2.c ****       /* Sum: '<S24>/Add' incorporates:
 990:HANcoder_E407_TTA_CombineModel_V2.c ****        *  Constant: '<S24>/Constant7'
 991:HANcoder_E407_TTA_CombineModel_V2.c ****        *  DataStoreWrite: '<S24>/Data Store Write'
 992:HANcoder_E407_TTA_CombineModel_V2.c ****        */
 993:HANcoder_E407_TTA_CombineModel_V2.c ****       rtDWork.testCount = (uint16_T)((uint32_T)testCounter + ((uint16_T)1U));
 994:HANcoder_E407_TTA_CombineModel_V2.c **** 
 995:HANcoder_E407_TTA_CombineModel_V2.c ****       /* DataStoreRead: '<S24>/Data Store Read' */
 996:HANcoder_E407_TTA_CombineModel_V2.c ****       rtB.DataStoreRead_n = rtDWork.SlotTime;
 997:HANcoder_E407_TTA_CombineModel_V2.c **** 
 998:HANcoder_E407_TTA_CombineModel_V2.c ****       /* Update for M-S-Function: '<S46>/S-Function' incorporates:
 999:HANcoder_E407_TTA_CombineModel_V2.c ****        *  Constant: '<S24>/Constant'
1000:HANcoder_E407_TTA_CombineModel_V2.c ****        *  Constant: '<S24>/Constant1'
1001:HANcoder_E407_TTA_CombineModel_V2.c ****        *  Constant: '<S24>/Constant2'
1002:HANcoder_E407_TTA_CombineModel_V2.c ****        *  Constant: '<S24>/Constant3'
1003:HANcoder_E407_TTA_CombineModel_V2.c ****        *  Constant: '<S24>/Constant4'
1004:HANcoder_E407_TTA_CombineModel_V2.c ****        *  Constant: '<S24>/Constant5'
1005:HANcoder_E407_TTA_CombineModel_V2.c ****        *  Constant: '<S24>/Constant6'
1006:HANcoder_E407_TTA_CombineModel_V2.c ****        *  Constant: '<S8>/Constant10'
1007:HANcoder_E407_TTA_CombineModel_V2.c ****        */
1008:HANcoder_E407_TTA_CombineModel_V2.c ****       {
1009:HANcoder_E407_TTA_CombineModel_V2.c ****         /* prepare the data */
1010:HANcoder_E407_TTA_CombineModel_V2.c ****         canTxData.uint8_T_info[0] = rtB.DataStoreRead_n;
 1747              		.loc 1 1010 35 is_stmt 0 view .LVU641
 1748 017e 184B     		ldr	r3, .L383+32
 987:HANcoder_E407_TTA_CombineModel_V2.c **** 
 1749              		.loc 1 987 19 view .LVU642
 1750 0180 DFF870C0 		ldr	ip, .L383+52
1011:HANcoder_E407_TTA_CombineModel_V2.c ****         canTxData.uint8_T_info[1] = ((uint8_T)1U);
 1751              		.loc 1 1011 35 view .LVU643
 1752 0184 5A70     		strb	r2, [r3, #1]
 987:HANcoder_E407_TTA_CombineModel_V2.c **** 
 1753              		.loc 1 987 28 view .LVU644
 1754 0186 E28E     		ldrh	r2, [r4, #54]
 987:HANcoder_E407_TTA_CombineModel_V2.c **** 
 1755              		.loc 1 987 19 view .LVU645
 1756 0188 ACF80020 		strh	r2, [ip]	@ movhi
 993:HANcoder_E407_TTA_CombineModel_V2.c **** 
 1757              		.loc 1 993 7 is_stmt 1 view .LVU646
 993:HANcoder_E407_TTA_CombineModel_V2.c **** 
 1758              		.loc 1 993 27 is_stmt 0 view .LVU647
 1759 018c 0132     		adds	r2, r2, #1
 993:HANcoder_E407_TTA_CombineModel_V2.c **** 
 1760              		.loc 1 993 25 view .LVU648
 1761 018e E286     		strh	r2, [r4, #54]	@ movhi
 996:HANcoder_E407_TTA_CombineModel_V2.c **** 
 1762              		.loc 1 996 7 is_stmt 1 view .LVU649
1012:HANcoder_E407_TTA_CombineModel_V2.c ****         canTxData.uint8_T_info[2] = ((uint8_T)0U);
1013:HANcoder_E407_TTA_CombineModel_V2.c ****         canTxData.uint8_T_info[3] = ((uint8_T)0U);
1014:HANcoder_E407_TTA_CombineModel_V2.c ****         canTxData.uint8_T_info[4] = ((uint8_T)0U);
1015:HANcoder_E407_TTA_CombineModel_V2.c ****         canTxData.uint8_T_info[5] = ((uint8_T)0U);
1016:HANcoder_E407_TTA_CombineModel_V2.c ****         canTxData.uint8_T_info[6] = ((uint8_T)0U);
1017:HANcoder_E407_TTA_CombineModel_V2.c ****         canTxData.uint8_T_info[7] = ((uint8_T)1U);
1018:HANcoder_E407_TTA_CombineModel_V2.c **** 
1019:HANcoder_E407_TTA_CombineModel_V2.c ****         /* send the data */
1020:HANcoder_E407_TTA_CombineModel_V2.c ****         CanTransmit(0, SYNC1_ID, 8, &canTxData.uint8_T_info[0]);
 1763              		.loc 1 1020 9 is_stmt 0 view .LVU650
 1764 0190 1449     		ldr	r1, .L383+36
 996:HANcoder_E407_TTA_CombineModel_V2.c **** 
 1765              		.loc 1 996 36 view .LVU651
 1766 0192 94F84120 		ldrb	r2, [r4, #65]	@ zero_extendqisi2
1010:HANcoder_E407_TTA_CombineModel_V2.c ****         canTxData.uint8_T_info[1] = ((uint8_T)1U);
 1767              		.loc 1 1010 35 view .LVU652
 1768 0196 1A70     		strb	r2, [r3]
 996:HANcoder_E407_TTA_CombineModel_V2.c **** 
 1769              		.loc 1 996 27 view .LVU653
 1770 0198 8AF81C20 		strb	r2, [r10, #28]
1010:HANcoder_E407_TTA_CombineModel_V2.c ****         canTxData.uint8_T_info[1] = ((uint8_T)1U);
 1771              		.loc 1 1010 9 is_stmt 1 view .LVU654
1011:HANcoder_E407_TTA_CombineModel_V2.c ****         canTxData.uint8_T_info[2] = ((uint8_T)0U);
 1772              		.loc 1 1011 9 view .LVU655
1012:HANcoder_E407_TTA_CombineModel_V2.c ****         canTxData.uint8_T_info[2] = ((uint8_T)0U);
 1773              		.loc 1 1012 9 view .LVU656
1013:HANcoder_E407_TTA_CombineModel_V2.c ****         canTxData.uint8_T_info[4] = ((uint8_T)0U);
 1774              		.loc 1 1013 9 view .LVU657
1014:HANcoder_E407_TTA_CombineModel_V2.c ****         canTxData.uint8_T_info[5] = ((uint8_T)0U);
 1775              		.loc 1 1014 9 view .LVU658
1015:HANcoder_E407_TTA_CombineModel_V2.c ****         canTxData.uint8_T_info[6] = ((uint8_T)0U);
 1776              		.loc 1 1015 9 view .LVU659
1016:HANcoder_E407_TTA_CombineModel_V2.c ****         canTxData.uint8_T_info[7] = ((uint8_T)1U);
 1777              		.loc 1 1016 9 view .LVU660
1017:HANcoder_E407_TTA_CombineModel_V2.c **** 
 1778              		.loc 1 1017 9 view .LVU661
1014:HANcoder_E407_TTA_CombineModel_V2.c ****         canTxData.uint8_T_info[5] = ((uint8_T)0U);
 1779              		.loc 1 1014 35 is_stmt 0 view .LVU662
 1780 019c 4FF08072 		mov	r2, #16777216
 1781 01a0 5A60     		str	r2, [r3, #4]
 1782              		.loc 1 1020 9 is_stmt 1 view .LVU663
1012:HANcoder_E407_TTA_CombineModel_V2.c ****         canTxData.uint8_T_info[3] = ((uint8_T)0U);
 1783              		.loc 1 1012 35 is_stmt 0 view .LVU664
 1784 01a2 0020     		movs	r0, #0
 1785              		.loc 1 1020 9 view .LVU665
 1786 01a4 0968     		ldr	r1, [r1]
1012:HANcoder_E407_TTA_CombineModel_V2.c ****         canTxData.uint8_T_info[3] = ((uint8_T)0U);
 1787              		.loc 1 1012 35 view .LVU666
 1788 01a6 5880     		strh	r0, [r3, #2]	@ movhi
 1789              		.loc 1 1020 9 view .LVU667
 1790 01a8 0822     		movs	r2, #8
 1791 01aa FFF7FEFF 		bl	CanTransmit
 1792              	.LVL120:
1021:HANcoder_E407_TTA_CombineModel_V2.c ****       }
1022:HANcoder_E407_TTA_CombineModel_V2.c ****     }
1023:HANcoder_E407_TTA_CombineModel_V2.c **** 
1024:HANcoder_E407_TTA_CombineModel_V2.c ****     rtPrevZCSigState.SYNC1_TX_Trig_ZCE = boolCan;
 1793              		.loc 1 1024 40 view .LVU668
 1794 01ae 98F80030 		ldrb	r3, [r8]	@ zero_extendqisi2
1025:HANcoder_E407_TTA_CombineModel_V2.c **** 
1026:HANcoder_E407_TTA_CombineModel_V2.c ****     /* End of Outputs for SubSystem: '<S8>/SYNC1_TX' */
1027:HANcoder_E407_TTA_CombineModel_V2.c **** 
1028:HANcoder_E407_TTA_CombineModel_V2.c ****     /* Logic: '<S8>/OR1' incorporates:
1029:HANcoder_E407_TTA_CombineModel_V2.c ****      *  Constant: '<S8>/Constant27'
1030:HANcoder_E407_TTA_CombineModel_V2.c ****      *  Constant: '<S8>/Constant4'
1031:HANcoder_E407_TTA_CombineModel_V2.c ****      *  RelationalOperator: '<S8>/Equal19'
1032:HANcoder_E407_TTA_CombineModel_V2.c ****      *  RelationalOperator: '<S8>/Equal4'
1033:HANcoder_E407_TTA_CombineModel_V2.c ****      */
1034:HANcoder_E407_TTA_CombineModel_V2.c ****     rtb_NotEqual = ((slotSelected == 5.0) || (slotSelected == 10.0));
 1795              		.loc 1 1034 35 view .LVU669
 1796 01b2 9BF80080 		ldrb	r8, [fp]	@ zero_extendqisi2
 1797 01b6 5FE0     		b	.L129
 1798              	.LVL121:
 1799              	.L360:
 747:HANcoder_E407_TTA_CombineModel_V2.c ****   }
 1800              		.loc 1 747 5 is_stmt 1 view .LVU670
 747:HANcoder_E407_TTA_CombineModel_V2.c ****   }
 1801              		.loc 1 747 42 is_stmt 0 view .LVU671
 1802 01b8 84F84D00 		strb	r0, [r4, #77]
 1803 01bc 34E7     		b	.L101
 1804              	.L384:
 1805 01be 00BF     		.align	2
 1806              	.L383:
 1807 01c0 00000000 		.word	rtDWork
 1808 01c4 0000F03F 		.word	1072693248
 1809 01c8 00000000 		.word	ClockOn
 1810 01cc 00000000 		.word	masterID
 1811 01d0 00000000 		.word	canActive
 1812 01d4 00000000 		.word	MMBS1_ID
 1813 01d8 00000000 		.word	canRxData_0_rtu_In1
 1814 01dc 00000000 		.word	rtPrevZCSigState
 1815 01e0 00000000 		.word	canTxData
 1816 01e4 00000000 		.word	SYNC1_ID
 1817 01e8 00000000 		.word	boolCan
 1818 01ec 00000000 		.word	rtB
 1819 01f0 00000000 		.word	slotSelected
 1820 01f4 00000000 		.word	testCounter
 1821              	.LVL122:
 1822              	.L112:
 858:HANcoder_E407_TTA_CombineModel_V2.c **** 
 1823              		.loc 1 858 5 is_stmt 1 view .LVU672
 1824              	.LBB217:
 332:HANcoder_E407_TTA_CombineModel_V2.c ****               rtDW_MMBS1_RX *localDW)
 1825              		.loc 1 332 6 view .LVU673
 1826              	.LBB186:
 336:HANcoder_E407_TTA_CombineModel_V2.c ****   uint8_T rtb_SFunction_o3_b;
 1827              		.loc 1 336 3 view .LVU674
 337:HANcoder_E407_TTA_CombineModel_V2.c ****   uint8_T rtb_SFunction_o4_l;
 1828              		.loc 1 337 3 view .LVU675
 338:HANcoder_E407_TTA_CombineModel_V2.c ****   uint8_T rtb_SFunction_o5_e;
 1829              		.loc 1 338 3 view .LVU676
 339:HANcoder_E407_TTA_CombineModel_V2.c ****   uint8_T rtb_SFunction_o6_k;
 1830              		.loc 1 339 3 view .LVU677
 340:HANcoder_E407_TTA_CombineModel_V2.c ****   uint8_T rtb_SFunction_o7_dj;
 1831              		.loc 1 340 3 view .LVU678
 341:HANcoder_E407_TTA_CombineModel_V2.c ****   uint8_T rtb_SFunction_o8_n1;
 1832              		.loc 1 341 3 view .LVU679
 342:HANcoder_E407_TTA_CombineModel_V2.c ****   uint8_T rtb_SFunction_o9_o;
 1833              		.loc 1 342 3 view .LVU680
 343:HANcoder_E407_TTA_CombineModel_V2.c ****   int8_T rtb_SFunction_o1_g;
 1834              		.loc 1 343 3 view .LVU681
 344:HANcoder_E407_TTA_CombineModel_V2.c **** 
 1835              		.loc 1 344 3 view .LVU682
 349:HANcoder_E407_TTA_CombineModel_V2.c ****     localDW->MMBS1_RX_MODE = true;
 1836              		.loc 1 349 3 view .LVU683
 376:HANcoder_E407_TTA_CombineModel_V2.c ****     MMBS1_RX_Disable(localDW);
 1837              		.loc 1 376 10 view .LVU684
 376:HANcoder_E407_TTA_CombineModel_V2.c ****     MMBS1_RX_Disable(localDW);
 1838              		.loc 1 376 21 is_stmt 0 view .LVU685
 1839 01f8 94F8C902 		ldrb	r0, [r4, #713]	@ zero_extendqisi2
 376:HANcoder_E407_TTA_CombineModel_V2.c ****     MMBS1_RX_Disable(localDW);
 1840              		.loc 1 376 13 view .LVU686
 1841 01fc 0028     		cmp	r0, #0
 1842 01fe 40F0FC85 		bne	.L240
 1843              	.L351:
 1844              	.LVL123:
 376:HANcoder_E407_TTA_CombineModel_V2.c ****     MMBS1_RX_Disable(localDW);
 1845              		.loc 1 376 13 view .LVU687
 1846              	.LBE186:
 1847              	.LBE217:
 863:HANcoder_E407_TTA_CombineModel_V2.c **** 
 1848              		.loc 1 863 5 is_stmt 1 view .LVU688
 1849              	.LBB218:
 1850              	.LBB187:
 1851              	.LBB179:
 1852              	.LBB180:
 307:HANcoder_E407_TTA_CombineModel_V2.c **** }
 1853              		.loc 1 307 26 is_stmt 0 view .LVU689
 1854 0202 CDE90667 		strd	r6, [sp, #24]
 1855 0206 C44D     		ldr	r5, .L385+16
 1856              	.LVL124:
 1857              	.L116:
 307:HANcoder_E407_TTA_CombineModel_V2.c **** }
 1858              		.loc 1 307 26 view .LVU690
 1859              	.LBE180:
 1860              	.LBE179:
 1861              	.LBE187:
 1862              	.LBE218:
 1863              	.LBB219:
 1864              	.LBB193:
 404:HANcoder_E407_TTA_CombineModel_V2.c **** 
 1865              		.loc 1 404 3 is_stmt 1 view .LVU691
 404:HANcoder_E407_TTA_CombineModel_V2.c **** 
 1866              		.loc 1 404 31 is_stmt 0 view .LVU692
 1867 0208 2873     		strb	r0, [r5, #12]
 1868              	.LBE193:
 1869              	.LBE219:
 874:HANcoder_E407_TTA_CombineModel_V2.c **** 
 1870              		.loc 1 874 5 is_stmt 1 view .LVU693
 1871              	.LVL125:
 880:HANcoder_E407_TTA_CombineModel_V2.c **** 
 1872              		.loc 1 880 5 view .LVU694
 885:HANcoder_E407_TTA_CombineModel_V2.c **** 
 1873              		.loc 1 885 5 view .LVU695
 885:HANcoder_E407_TTA_CombineModel_V2.c **** 
 1874              		.loc 1 885 25 is_stmt 0 view .LVU696
 1875 020a B0EE087A 		vmov.f32	s14, #3.0e+0
 1876 020e F4EE477A 		vcmp.f32	s15, s14
 1877 0212 F1EE10FA 		vmrs	APSR_nzcv, FPSCR
 1878 0216 8DD1     		bne	.L118
 1879              	.LVL126:
 1880              	.L361:
 885:HANcoder_E407_TTA_CombineModel_V2.c **** 
 1881              		.loc 1 885 25 discriminator 1 view .LVU697
 1882 0218 0022     		movs	r2, #0
 1883 021a DDE90601 		ldrd	r0, [sp, #24]
 1884 021e BF4B     		ldr	r3, .L385+20
 1885 0220 FFF7FEFF 		bl	__aeabi_dcmpeq
 1886              	.LVL127:
 1887 0224 0246     		mov	r2, r0
 1888 0226 0028     		cmp	r0, #0
 1889 0228 40F0C885 		bne	.L338
 1890              	.LVL128:
 889:HANcoder_E407_TTA_CombineModel_V2.c **** 
 1891              		.loc 1 889 5 is_stmt 1 view .LVU698
 889:HANcoder_E407_TTA_CombineModel_V2.c **** 
 1892              		.loc 1 889 5 is_stmt 0 view .LVU699
 1893 022c BC4B     		ldr	r3, .L385+24
 1894              	.LVL129:
 1895              	.LBB220:
 332:HANcoder_E407_TTA_CombineModel_V2.c ****               rtDW_MMBS1_RX *localDW)
 1896              		.loc 1 332 6 is_stmt 1 view .LVU700
 1897              	.LBB207:
 336:HANcoder_E407_TTA_CombineModel_V2.c ****   uint8_T rtb_SFunction_o3_b;
 1898              		.loc 1 336 3 view .LVU701
 337:HANcoder_E407_TTA_CombineModel_V2.c ****   uint8_T rtb_SFunction_o4_l;
 1899              		.loc 1 337 3 view .LVU702
 338:HANcoder_E407_TTA_CombineModel_V2.c ****   uint8_T rtb_SFunction_o5_e;
 1900              		.loc 1 338 3 view .LVU703
 339:HANcoder_E407_TTA_CombineModel_V2.c ****   uint8_T rtb_SFunction_o6_k;
 1901              		.loc 1 339 3 view .LVU704
 340:HANcoder_E407_TTA_CombineModel_V2.c ****   uint8_T rtb_SFunction_o7_dj;
 1902              		.loc 1 340 3 view .LVU705
 341:HANcoder_E407_TTA_CombineModel_V2.c ****   uint8_T rtb_SFunction_o8_n1;
 1903              		.loc 1 341 3 view .LVU706
 342:HANcoder_E407_TTA_CombineModel_V2.c ****   uint8_T rtb_SFunction_o9_o;
 1904              		.loc 1 342 3 view .LVU707
 343:HANcoder_E407_TTA_CombineModel_V2.c ****   int8_T rtb_SFunction_o1_g;
 1905              		.loc 1 343 3 view .LVU708
 344:HANcoder_E407_TTA_CombineModel_V2.c **** 
 1906              		.loc 1 344 3 view .LVU709
 349:HANcoder_E407_TTA_CombineModel_V2.c ****     localDW->MMBS1_RX_MODE = true;
 1907              		.loc 1 349 3 view .LVU710
 1908              	.LBB202:
 1909              	.LBI202:
 332:HANcoder_E407_TTA_CombineModel_V2.c ****               rtDW_MMBS1_RX *localDW)
 1910              		.loc 1 332 6 view .LVU711
 1911              	.LBB203:
 350:HANcoder_E407_TTA_CombineModel_V2.c **** 
 1912              		.loc 1 350 5 view .LVU712
 355:HANcoder_E407_TTA_CombineModel_V2.c ****       &canRxData_0_rtu_In1.uint8_T_info[0], NULL);
 1913              		.loc 1 355 26 is_stmt 0 view .LVU713
 1914 022e 0090     		str	r0, [sp]
 1915 0230 DFF83483 		ldr	r8, .L385+96
 1916 0234 1968     		ldr	r1, [r3]
 350:HANcoder_E407_TTA_CombineModel_V2.c **** 
 1917              		.loc 1 350 28 view .LVU714
 1918 0236 0123     		movs	r3, #1
 1919              	.LVL130:
 350:HANcoder_E407_TTA_CombineModel_V2.c **** 
 1920              		.loc 1 350 28 view .LVU715
 1921 0238 84F8C832 		strb	r3, [r4, #712]
 355:HANcoder_E407_TTA_CombineModel_V2.c ****       &canRxData_0_rtu_In1.uint8_T_info[0], NULL);
 1922              		.loc 1 355 5 is_stmt 1 view .LVU716
 355:HANcoder_E407_TTA_CombineModel_V2.c ****       &canRxData_0_rtu_In1.uint8_T_info[0], NULL);
 1923              		.loc 1 355 26 is_stmt 0 view .LVU717
 1924 023c 4346     		mov	r3, r8
 1925 023e FFF7FEFF 		bl	CanIoGetMessage
 1926              	.LVL131:
 359:HANcoder_E407_TTA_CombineModel_V2.c ****       /* read the data */
 1927              		.loc 1 359 5 is_stmt 1 view .LVU718
 359:HANcoder_E407_TTA_CombineModel_V2.c ****       /* read the data */
 1928              		.loc 1 359 8 is_stmt 0 view .LVU719
 1929 0242 0028     		cmp	r0, #0
 1930 0244 03DD     		ble	.L121
 361:HANcoder_E407_TTA_CombineModel_V2.c ****       rtb_SFunction_o3_b = canRxData_0_rtu_In1.uint8_T_info[1];
 1931              		.loc 1 361 7 is_stmt 1 view .LVU720
 1932              	.LVL132:
 362:HANcoder_E407_TTA_CombineModel_V2.c ****       rtb_SFunction_o4_l = canRxData_0_rtu_In1.uint8_T_info[2];
 1933              		.loc 1 362 7 view .LVU721
 363:HANcoder_E407_TTA_CombineModel_V2.c ****       rtb_SFunction_o5_e = canRxData_0_rtu_In1.uint8_T_info[3];
 1934              		.loc 1 363 7 view .LVU722
 364:HANcoder_E407_TTA_CombineModel_V2.c ****       rtb_SFunction_o6_k = canRxData_0_rtu_In1.uint8_T_info[4];
 1935              		.loc 1 364 7 view .LVU723
 365:HANcoder_E407_TTA_CombineModel_V2.c ****       rtb_SFunction_o7_dj = canRxData_0_rtu_In1.uint8_T_info[5];
 1936              		.loc 1 365 7 view .LVU724
 366:HANcoder_E407_TTA_CombineModel_V2.c ****       rtb_SFunction_o8_n1 = canRxData_0_rtu_In1.uint8_T_info[6];
 1937              		.loc 1 366 7 view .LVU725
 367:HANcoder_E407_TTA_CombineModel_V2.c ****       rtb_SFunction_o9_o = canRxData_0_rtu_In1.uint8_T_info[7];
 1938              		.loc 1 367 7 view .LVU726
 368:HANcoder_E407_TTA_CombineModel_V2.c ****     }
 1939              		.loc 1 368 7 view .LVU727
 372:HANcoder_E407_TTA_CombineModel_V2.c ****                      &localB->EnabledSubsystem_k);
 1940              		.loc 1 372 5 view .LVU728
 1941              	.LBB204:
 1942              	.LBI204:
 284:HANcoder_E407_TTA_CombineModel_V2.c ****                       *localB)
 1943              		.loc 1 284 6 view .LVU729
 1944              	.LBB205:
 290:HANcoder_E407_TTA_CombineModel_V2.c ****     /* SignalConversion generated from: '<S38>/In1' */
 1945              		.loc 1 290 3 view .LVU730
 292:HANcoder_E407_TTA_CombineModel_V2.c ****   }
 1946              		.loc 1 292 5 view .LVU731
 292:HANcoder_E407_TTA_CombineModel_V2.c ****   }
 1947              		.loc 1 292 17 is_stmt 0 view .LVU732
 1948 0246 98F80030 		ldrb	r3, [r8]	@ zero_extendqisi2
 1949 024a 8AF86530 		strb	r3, [r10, #101]
 1950              	.LVL133:
 1951              	.L121:
 292:HANcoder_E407_TTA_CombineModel_V2.c ****   }
 1952              		.loc 1 292 17 view .LVU733
 1953              	.LBE205:
 1954              	.LBE204:
 1955              	.LBE203:
 1956              	.LBE202:
 1957              	.LBE207:
 1958              	.LBE220:
 894:HANcoder_E407_TTA_CombineModel_V2.c **** 
 1959              		.loc 1 894 5 is_stmt 1 view .LVU734
 911:HANcoder_E407_TTA_CombineModel_V2.c **** 
 1960              		.loc 1 911 28 is_stmt 0 view .LVU735
 1961 024e 94ED067B 		vldr.64	d7, [r4, #24]
 1962 0252 8DED067B 		vstr.64	d7, [sp, #24]
 905:HANcoder_E407_TTA_CombineModel_V2.c **** 
 1963              		.loc 1 905 33 view .LVU736
 1964 0256 9BF80080 		ldrb	r8, [fp]	@ zero_extendqisi2
 894:HANcoder_E407_TTA_CombineModel_V2.c **** 
 1965              		.loc 1 894 14 view .LVU737
 1966 025a 0023     		movs	r3, #0
 1967              	.LVL134:
 1968              	.L122:
 1969              	.LBB221:
 1970              	.LBB212:
 404:HANcoder_E407_TTA_CombineModel_V2.c **** 
 1971              		.loc 1 404 3 is_stmt 1 view .LVU738
 1972              	.LBE212:
 1973              	.LBE221:
 916:HANcoder_E407_TTA_CombineModel_V2.c **** 
 1974              		.loc 1 916 31 is_stmt 0 view .LVU739
 1975 025c B8F1010F 		cmp	r8, #1
 1976              	.LBB222:
 1977              	.LBB213:
 404:HANcoder_E407_TTA_CombineModel_V2.c **** 
 1978              		.loc 1 404 31 view .LVU740
 1979 0260 EB72     		strb	r3, [r5, #11]
 1980              	.LBE213:
 1981              	.LBE222:
 905:HANcoder_E407_TTA_CombineModel_V2.c **** 
 1982              		.loc 1 905 5 is_stmt 1 view .LVU741
 1983              	.LVL135:
 911:HANcoder_E407_TTA_CombineModel_V2.c **** 
 1984              		.loc 1 911 5 view .LVU742
 916:HANcoder_E407_TTA_CombineModel_V2.c **** 
 1985              		.loc 1 916 5 view .LVU743
 916:HANcoder_E407_TTA_CombineModel_V2.c **** 
 1986              		.loc 1 916 31 is_stmt 0 view .LVU744
 1987 0262 3FF473AF 		beq	.L123
 1988              	.LVL136:
 1989              	.L362:
 921:HANcoder_E407_TTA_CombineModel_V2.c ****       rtDWork.SYNC1_RX_MODE = true;
 1990              		.loc 1 921 5 is_stmt 1 view .LVU745
 973:HANcoder_E407_TTA_CombineModel_V2.c ****       rtDWork.SYNC1_RX_MODE = false;
 1991              		.loc 1 973 12 view .LVU746
 973:HANcoder_E407_TTA_CombineModel_V2.c ****       rtDWork.SYNC1_RX_MODE = false;
 1992              		.loc 1 973 15 is_stmt 0 view .LVU747
 1993 0266 94F84C30 		ldrb	r3, [r4, #76]	@ zero_extendqisi2
 1994 026a 13B1     		cbz	r3, .L231
 974:HANcoder_E407_TTA_CombineModel_V2.c ****     }
 1995              		.loc 1 974 7 is_stmt 1 view .LVU748
 974:HANcoder_E407_TTA_CombineModel_V2.c ****     }
 1996              		.loc 1 974 29 is_stmt 0 view .LVU749
 1997 026c 0023     		movs	r3, #0
 1998 026e 84F84C30 		strb	r3, [r4, #76]
 980:HANcoder_E407_TTA_CombineModel_V2.c **** 
 1999              		.loc 1 980 5 is_stmt 1 view .LVU750
 2000              	.LVL137:
 2001              	.L231:
 980:HANcoder_E407_TTA_CombineModel_V2.c **** 
 2002              		.loc 1 980 13 is_stmt 0 discriminator 4 view .LVU751
 2003 0272 AC4A     		ldr	r2, .L385+28
 2004 0274 0023     		movs	r3, #0
 2005 0276 1370     		strb	r3, [r2]
 985:HANcoder_E407_TTA_CombineModel_V2.c ****       /* DataStoreRead: '<S24>/Data Store Read1' */
 2006              		.loc 1 985 5 is_stmt 1 discriminator 4 view .LVU752
 2007              	.L129:
1024:HANcoder_E407_TTA_CombineModel_V2.c **** 
 2008              		.loc 1 1024 5 view .LVU753
 2009              		.loc 1 1034 35 is_stmt 0 view .LVU754
 2010 0278 07EE908A 		vmov	s15, r8	@ int
 2011 027c B8EEE78A 		vcvt.f32.s32	s16, s15
 2012              		.loc 1 1034 43 view .LVU755
 2013 0280 F1EE047A 		vmov.f32	s15, #5.0e+0
 2014 0284 B4EE678A 		vcmp.f32	s16, s15
 2015 0288 F1EE10FA 		vmrs	APSR_nzcv, FPSCR
1024:HANcoder_E407_TTA_CombineModel_V2.c **** 
 2016              		.loc 1 1024 40 view .LVU756
 2017 028c 6B72     		strb	r3, [r5, #9]
 2018              		.loc 1 1034 5 is_stmt 1 view .LVU757
 2019              		.loc 1 1034 43 is_stmt 0 view .LVU758
 2020 028e 40F04286 		bne	.L363
 2021              	.L130:
 2022              	.LVL138:
1035:HANcoder_E407_TTA_CombineModel_V2.c **** 
1036:HANcoder_E407_TTA_CombineModel_V2.c ****     /* Outputs for Triggered SubSystem: '<S8>/Slot 5 execution' incorporates:
1037:HANcoder_E407_TTA_CombineModel_V2.c ****      *  TriggerPort: '<S25>/Trigger'
1038:HANcoder_E407_TTA_CombineModel_V2.c ****      */
1039:HANcoder_E407_TTA_CombineModel_V2.c ****     if (rtb_NotEqual && (rtPrevZCSigState.Slot5execution_Trig_ZCE != POS_ZCSIG))
 2023              		.loc 1 1039 22 discriminator 1 view .LVU759
 2024 0292 2B7A     		ldrb	r3, [r5, #8]	@ zero_extendqisi2
 2025 0294 012B     		cmp	r3, #1
 2026 0296 00F09580 		beq	.L132
1040:HANcoder_E407_TTA_CombineModel_V2.c ****     {
1041:HANcoder_E407_TTA_CombineModel_V2.c ****       /* M-S-Function: '<S51>/Level-2 M-file S-Function' */
1042:HANcoder_E407_TTA_CombineModel_V2.c ****       /* read from analog input for filtered inputs*/
1043:HANcoder_E407_TTA_CombineModel_V2.c ****       analogPot1 = AninGet(ANIN_PORTF_PIN7,0);
 2027              		.loc 1 1043 7 is_stmt 1 view .LVU760
 2028              		.loc 1 1043 20 is_stmt 0 view .LVU761
 2029 029a 0021     		movs	r1, #0
 2030 029c 0420     		movs	r0, #4
 2031 029e FFF7FEFF 		bl	AninGet
 2032              	.LVL139:
1044:HANcoder_E407_TTA_CombineModel_V2.c **** 
1045:HANcoder_E407_TTA_CombineModel_V2.c ****       /* DataTypeConversion: '<S47>/Cast' */
1046:HANcoder_E407_TTA_CombineModel_V2.c ****       rtb_Cast_m = analogPot1;
1047:HANcoder_E407_TTA_CombineModel_V2.c ****       MovingAverage(rtb_Cast_m, &rtB.MovingAverage_p, &rtDWork.MovingAverage_p);
 2033              		.loc 1 1047 7 view .LVU762
 2034 02a2 07EE900A 		vmov	s15, r0	@ int
1043:HANcoder_E407_TTA_CombineModel_V2.c **** 
 2035              		.loc 1 1043 18 view .LVU763
 2036 02a6 A04B     		ldr	r3, .L385+32
 2037              		.loc 1 1047 7 view .LVU764
 2038 02a8 A04A     		ldr	r2, .L385+36
1043:HANcoder_E407_TTA_CombineModel_V2.c **** 
 2039              		.loc 1 1043 18 view .LVU765
 2040 02aa 1880     		strh	r0, [r3]	@ movhi
1046:HANcoder_E407_TTA_CombineModel_V2.c ****       MovingAverage(rtb_Cast_m, &rtB.MovingAverage_p, &rtDWork.MovingAverage_p);
 2041              		.loc 1 1046 7 is_stmt 1 view .LVU766
 2042              	.LVL140:
 2043              		.loc 1 1047 7 view .LVU767
 2044 02ac F8EE677A 		vcvt.f32.u32	s15, s15
 2045 02b0 9F49     		ldr	r1, .L385+40
 2046 02b2 17EE900A 		vmov	r0, s15
 2047              	.LVL141:
 2048              		.loc 1 1047 7 is_stmt 0 view .LVU768
 2049 02b6 FFF7FEFF 		bl	MovingAverage
 2050              	.LVL142:
1048:HANcoder_E407_TTA_CombineModel_V2.c **** 
1049:HANcoder_E407_TTA_CombineModel_V2.c ****       /* DataTypeConversion: '<S47>/Cast1' */
1050:HANcoder_E407_TTA_CombineModel_V2.c ****       pot1 = (uint16_T)rtB.MovingAverage_p.MovingAverage_n;
 2051              		.loc 1 1050 7 is_stmt 1 view .LVU769
 2052              		.loc 1 1050 14 is_stmt 0 view .LVU770
 2053 02ba DAED187A 		vldr.32	s15, [r10, #96]
 2054              		.loc 1 1050 12 view .LVU771
 2055 02be 9D4A     		ldr	r2, .L385+44
 2056              		.loc 1 1050 14 view .LVU772
 2057 02c0 FCEEE77A 		vcvt.u32.f32	s15, s15
1051:HANcoder_E407_TTA_CombineModel_V2.c **** 
1052:HANcoder_E407_TTA_CombineModel_V2.c ****       /* DataStoreWrite: '<S47>/Data Store Write1' */
1053:HANcoder_E407_TTA_CombineModel_V2.c ****       rtDWork.potentiometer1 = pot1;
1054:HANcoder_E407_TTA_CombineModel_V2.c **** 
1055:HANcoder_E407_TTA_CombineModel_V2.c ****       /* M-S-Function: '<S52>/Level-2 M-file S-Function' */
1056:HANcoder_E407_TTA_CombineModel_V2.c ****       /* read from analog input for filtered inputs*/
1057:HANcoder_E407_TTA_CombineModel_V2.c ****       analogPot2 = AninGet(ANIN_PORTF_PIN8,0);
 2058              		.loc 1 1057 20 view .LVU773
 2059 02c4 0021     		movs	r1, #0
1050:HANcoder_E407_TTA_CombineModel_V2.c **** 
 2060              		.loc 1 1050 14 view .LVU774
 2061 02c6 17EE903A 		vmov	r3, s15	@ int
 2062              		.loc 1 1057 20 view .LVU775
 2063 02ca 0520     		movs	r0, #5
1050:HANcoder_E407_TTA_CombineModel_V2.c **** 
 2064              		.loc 1 1050 14 view .LVU776
 2065 02cc 9BB2     		uxth	r3, r3
1050:HANcoder_E407_TTA_CombineModel_V2.c **** 
 2066              		.loc 1 1050 12 view .LVU777
 2067 02ce 1380     		strh	r3, [r2]	@ movhi
1053:HANcoder_E407_TTA_CombineModel_V2.c **** 
 2068              		.loc 1 1053 7 is_stmt 1 view .LVU778
1053:HANcoder_E407_TTA_CombineModel_V2.c **** 
 2069              		.loc 1 1053 30 is_stmt 0 view .LVU779
 2070 02d0 A385     		strh	r3, [r4, #44]	@ movhi
 2071              		.loc 1 1057 7 is_stmt 1 view .LVU780
 2072              		.loc 1 1057 20 is_stmt 0 view .LVU781
 2073 02d2 FFF7FEFF 		bl	AninGet
 2074              	.LVL143:
1058:HANcoder_E407_TTA_CombineModel_V2.c **** 
1059:HANcoder_E407_TTA_CombineModel_V2.c ****       /* DataTypeConversion: '<S47>/Cast3' */
1060:HANcoder_E407_TTA_CombineModel_V2.c ****       rtb_Cast3 = analogPot2;
1061:HANcoder_E407_TTA_CombineModel_V2.c ****       MovingAverage(rtb_Cast3, &rtB.MovingAverage1, &rtDWork.MovingAverage1);
 2075              		.loc 1 1061 7 view .LVU782
 2076 02d6 07EE900A 		vmov	s15, r0	@ int
1057:HANcoder_E407_TTA_CombineModel_V2.c **** 
 2077              		.loc 1 1057 18 view .LVU783
 2078 02da 974B     		ldr	r3, .L385+48
 2079              		.loc 1 1061 7 view .LVU784
 2080 02dc 9749     		ldr	r1, .L385+52
1057:HANcoder_E407_TTA_CombineModel_V2.c **** 
 2081              		.loc 1 1057 18 view .LVU785
 2082 02de 1880     		strh	r0, [r3]	@ movhi
1060:HANcoder_E407_TTA_CombineModel_V2.c ****       MovingAverage(rtb_Cast3, &rtB.MovingAverage1, &rtDWork.MovingAverage1);
 2083              		.loc 1 1060 7 is_stmt 1 view .LVU786
 2084              	.LVL144:
 2085              		.loc 1 1061 7 view .LVU787
 2086 02e0 F8EE677A 		vcvt.f32.u32	s15, s15
 2087 02e4 964A     		ldr	r2, .L385+56
 2088 02e6 17EE900A 		vmov	r0, s15
 2089              	.LVL145:
 2090              		.loc 1 1061 7 is_stmt 0 view .LVU788
 2091 02ea FFF7FEFF 		bl	MovingAverage
 2092              	.LVL146:
1062:HANcoder_E407_TTA_CombineModel_V2.c **** 
1063:HANcoder_E407_TTA_CombineModel_V2.c ****       /* DataTypeConversion: '<S47>/Cast2' */
1064:HANcoder_E407_TTA_CombineModel_V2.c ****       pot2 = (uint16_T)rtB.MovingAverage1.MovingAverage_n;
 2093              		.loc 1 1064 7 is_stmt 1 view .LVU789
 2094              		.loc 1 1064 14 is_stmt 0 view .LVU790
 2095 02ee DAED177A 		vldr.32	s15, [r10, #92]
 2096              		.loc 1 1064 12 view .LVU791
 2097 02f2 944A     		ldr	r2, .L385+60
 2098              		.loc 1 1064 14 view .LVU792
 2099 02f4 FCEEE77A 		vcvt.u32.f32	s15, s15
1065:HANcoder_E407_TTA_CombineModel_V2.c **** 
1066:HANcoder_E407_TTA_CombineModel_V2.c ****       /* DataStoreWrite: '<S47>/Data Store Write3' */
1067:HANcoder_E407_TTA_CombineModel_V2.c ****       rtDWork.potentiometer2 = pot2;
1068:HANcoder_E407_TTA_CombineModel_V2.c **** 
1069:HANcoder_E407_TTA_CombineModel_V2.c ****       /* M-S-Function: '<S49>/Level-2 M-file S-Function' */
1070:HANcoder_E407_TTA_CombineModel_V2.c ****       /* read from digital input */
1071:HANcoder_E407_TTA_CombineModel_V2.c ****       rtb_Equal17 = DiginGet(DIGIN_PORTA_PIN0);
 2100              		.loc 1 1071 21 view .LVU793
 2101 02f8 4720     		movs	r0, #71
1064:HANcoder_E407_TTA_CombineModel_V2.c **** 
 2102              		.loc 1 1064 14 view .LVU794
 2103 02fa 17EE903A 		vmov	r3, s15	@ int
 2104 02fe 9BB2     		uxth	r3, r3
1064:HANcoder_E407_TTA_CombineModel_V2.c **** 
 2105              		.loc 1 1064 12 view .LVU795
 2106 0300 1380     		strh	r3, [r2]	@ movhi
1067:HANcoder_E407_TTA_CombineModel_V2.c **** 
 2107              		.loc 1 1067 7 is_stmt 1 view .LVU796
1067:HANcoder_E407_TTA_CombineModel_V2.c **** 
 2108              		.loc 1 1067 30 is_stmt 0 view .LVU797
 2109 0302 2386     		strh	r3, [r4, #48]	@ movhi
 2110              		.loc 1 1071 7 is_stmt 1 view .LVU798
 2111              		.loc 1 1071 21 is_stmt 0 view .LVU799
 2112 0304 FFF7FEFF 		bl	DiginGet
 2113              	.LVL147:
1072:HANcoder_E407_TTA_CombineModel_V2.c **** 
1073:HANcoder_E407_TTA_CombineModel_V2.c ****       /* DataTypeConversion: '<S47>/Cast4' incorporates:
1074:HANcoder_E407_TTA_CombineModel_V2.c ****        *  DataStoreWrite: '<S47>/Data Store Write4'
1075:HANcoder_E407_TTA_CombineModel_V2.c ****        */
1076:HANcoder_E407_TTA_CombineModel_V2.c ****       rtDWork.buttonPress = rtb_Equal17;
 2114              		.loc 1 1076 7 is_stmt 1 view .LVU800
1077:HANcoder_E407_TTA_CombineModel_V2.c **** 
1078:HANcoder_E407_TTA_CombineModel_V2.c ****       /* Gain: '<S47>/Gain' incorporates:
1079:HANcoder_E407_TTA_CombineModel_V2.c ****        *  Constant: '<S47>/Constant2'
1080:HANcoder_E407_TTA_CombineModel_V2.c ****        *  DataStoreWrite: '<S47>/Data Store Write2'
1081:HANcoder_E407_TTA_CombineModel_V2.c ****        */
1082:HANcoder_E407_TTA_CombineModel_V2.c ****       rtDWork.requestedAngle = 0.015001500150015003 * desiredAngle;
 2115              		.loc 1 1082 53 is_stmt 0 view .LVU801
 2116 0308 8F4B     		ldr	r3, .L385+64
1076:HANcoder_E407_TTA_CombineModel_V2.c **** 
 2117              		.loc 1 1076 27 view .LVU802
 2118 030a 84F83C00 		strb	r0, [r4, #60]
 2119              		.loc 1 1082 7 is_stmt 1 view .LVU803
 2120              		.loc 1 1082 53 is_stmt 0 view .LVU804
 2121 030e D3E90001 		ldrd	r0, [r3]
 2122              	.LVL148:
 2123              		.loc 1 1082 53 view .LVU805
 2124 0312 7DA3     		adr	r3, .L385
 2125 0314 D3E90023 		ldrd	r2, [r3]
 2126 0318 FFF7FEFF 		bl	__aeabi_dmul
 2127              	.LVL149:
1083:HANcoder_E407_TTA_CombineModel_V2.c **** 
1084:HANcoder_E407_TTA_CombineModel_V2.c ****       /* M-S-Function: '<S50>/Level-2 M-file S-Function' */
1085:HANcoder_E407_TTA_CombineModel_V2.c ****       /* determine if the counter needs a reset  */
1086:HANcoder_E407_TTA_CombineModel_V2.c ****       if (rtB.DataTypeConversion > 0) {
 2128              		.loc 1 1086 10 view .LVU806
 2129 031c 9AF82430 		ldrb	r3, [r10, #36]	@ zero_extendqisi2
1082:HANcoder_E407_TTA_CombineModel_V2.c **** 
 2130              		.loc 1 1082 30 view .LVU807
 2131 0320 C4E90801 		strd	r0, [r4, #32]
 2132              		.loc 1 1086 7 is_stmt 1 view .LVU808
 2133              		.loc 1 1086 10 is_stmt 0 view .LVU809
 2134 0324 002B     		cmp	r3, #0
 2135 0326 40F0DF86 		bne	.L364
 2136              	.L133:
1087:HANcoder_E407_TTA_CombineModel_V2.c ****         QuadEncResetCounter(QUADENC_TIM3_PA6_PB5);
1088:HANcoder_E407_TTA_CombineModel_V2.c ****       }
1089:HANcoder_E407_TTA_CombineModel_V2.c **** 
1090:HANcoder_E407_TTA_CombineModel_V2.c ****       /* read counter from the quadrature encoder module */
1091:HANcoder_E407_TTA_CombineModel_V2.c ****       rtb_Level2MfileSFunction_o = QuadEncGetCounter(QUADENC_TIM3_PA6_PB5);
 2137              		.loc 1 1091 7 is_stmt 1 view .LVU810
 2138              		.loc 1 1091 36 is_stmt 0 view .LVU811
 2139 032a 0120     		movs	r0, #1
 2140 032c FFF7FEFF 		bl	QuadEncGetCounter
 2141              	.LVL150:
1092:HANcoder_E407_TTA_CombineModel_V2.c **** 
1093:HANcoder_E407_TTA_CombineModel_V2.c ****       /* DataStoreWrite: '<S47>/Data Store Write' */
1094:HANcoder_E407_TTA_CombineModel_V2.c ****       rtDWork.encoderPosition = rtb_Level2MfileSFunction_o;
 2142              		.loc 1 1094 7 is_stmt 1 view .LVU812
1095:HANcoder_E407_TTA_CombineModel_V2.c **** 
1096:HANcoder_E407_TTA_CombineModel_V2.c ****       /* DataTypeConversion: '<S50>/Data Type Conversion' incorporates:
1097:HANcoder_E407_TTA_CombineModel_V2.c ****        *  RelationalOperator: '<S53>/FixPt Relational Operator'
1098:HANcoder_E407_TTA_CombineModel_V2.c ****        *  UnitDelay: '<S53>/Delay Input1'
1099:HANcoder_E407_TTA_CombineModel_V2.c ****        *
1100:HANcoder_E407_TTA_CombineModel_V2.c ****        * Block description for '<S53>/Delay Input1':
1101:HANcoder_E407_TTA_CombineModel_V2.c ****        *
1102:HANcoder_E407_TTA_CombineModel_V2.c ****        *  Store in Global RAM
1103:HANcoder_E407_TTA_CombineModel_V2.c ****        */
1104:HANcoder_E407_TTA_CombineModel_V2.c ****       rtB.DataTypeConversion = (rtDWork.DelayInput1_DSTATE < 0.0);
 2143              		.loc 1 1104 60 is_stmt 0 view .LVU813
 2144 0330 0022     		movs	r2, #0
1094:HANcoder_E407_TTA_CombineModel_V2.c **** 
 2145              		.loc 1 1094 31 view .LVU814
 2146 0332 A062     		str	r0, [r4, #40]
 2147              		.loc 1 1104 7 is_stmt 1 view .LVU815
 2148              		.loc 1 1104 60 is_stmt 0 view .LVU816
 2149 0334 0023     		movs	r3, #0
 2150 0336 D4E90201 		ldrd	r0, [r4, #8]
 2151              	.LVL151:
 2152              		.loc 1 1104 60 view .LVU817
 2153 033a FFF7FEFF 		bl	__aeabi_dcmplt
 2154              	.LVL152:
 2155              		.loc 1 1104 30 view .LVU818
 2156 033e 4FF00008 		mov	r8, #0
 2157              		.loc 1 1104 60 view .LVU819
 2158 0342 B0EB0800 		subs	r0, r0, r8
 2159 0346 18BF     		it	ne
 2160 0348 0120     		movne	r0, #1
1105:HANcoder_E407_TTA_CombineModel_V2.c **** 
1106:HANcoder_E407_TTA_CombineModel_V2.c ****       /* RelationalOperator: '<S48>/Equal' incorporates:
1107:HANcoder_E407_TTA_CombineModel_V2.c ****        *  DataStoreRead: '<S48>/Data Store Read'
1108:HANcoder_E407_TTA_CombineModel_V2.c ****        */
1109:HANcoder_E407_TTA_CombineModel_V2.c ****       rtB.Equal = !Master_ID;
 2161              		.loc 1 1109 7 is_stmt 1 view .LVU820
1110:HANcoder_E407_TTA_CombineModel_V2.c **** 
1111:HANcoder_E407_TTA_CombineModel_V2.c ****       /* DataStoreRead: '<S25>/Data Store Read' */
1112:HANcoder_E407_TTA_CombineModel_V2.c ****       rtB.DataStoreRead = rtDWork.pwmMotor;
 2162              		.loc 1 1112 7 view .LVU821
1104:HANcoder_E407_TTA_CombineModel_V2.c **** 
 2163              		.loc 1 1104 30 is_stmt 0 view .LVU822
 2164 034a 60F30708 		bfi	r8, r0, #0, #8
 2165 034e 3046     		mov	r0, r6
 2166              		.loc 1 1112 34 view .LVU823
 2167 0350 E68D     		ldrh	r6, [r4, #46]
1104:HANcoder_E407_TTA_CombineModel_V2.c **** 
 2168              		.loc 1 1104 30 view .LVU824
 2169 0352 724B     		ldr	r3, .L385+20
 2170              		.loc 1 1112 25 view .LVU825
 2171 0354 AAF80860 		strh	r6, [r10, #8]	@ movhi
1113:HANcoder_E407_TTA_CombineModel_V2.c **** 
1114:HANcoder_E407_TTA_CombineModel_V2.c ****       /* DataStoreRead: '<S25>/Data Store Read1' */
1115:HANcoder_E407_TTA_CombineModel_V2.c ****       rtB.DataStoreRead1 = rtDWork.cwMotor;
 2172              		.loc 1 1115 7 is_stmt 1 view .LVU826
1116:HANcoder_E407_TTA_CombineModel_V2.c **** 
1117:HANcoder_E407_TTA_CombineModel_V2.c ****       /* DataStoreRead: '<S25>/Data Store Read3' */
1118:HANcoder_E407_TTA_CombineModel_V2.c ****       rtB.DataStoreRead3_n = rtDWork.ccwMotor;
 2173              		.loc 1 1118 7 view .LVU827
1104:HANcoder_E407_TTA_CombineModel_V2.c **** 
 2174              		.loc 1 1104 30 is_stmt 0 view .LVU828
 2175 0358 3946     		mov	r1, r7
 2176 035a 0022     		movs	r2, #0
 2177 035c FFF7FEFF 		bl	__aeabi_dcmpeq
 2178              	.LVL153:
 2179 0360 B0FA80F0 		clz	r0, r0
 2180 0364 94F84330 		ldrb	r3, [r4, #67]	@ zero_extendqisi2
 2181 0368 4009     		lsrs	r0, r0, #5
 2182 036a 60F30F28 		bfi	r8, r0, #8, #8
 2183 036e 63F31748 		bfi	r8, r3, #16, #8
 2184 0372 94F84430 		ldrb	r3, [r4, #68]	@ zero_extendqisi2
1119:HANcoder_E407_TTA_CombineModel_V2.c **** 
1120:HANcoder_E407_TTA_CombineModel_V2.c ****       /* Update for UnitDelay: '<S53>/Delay Input1'
1121:HANcoder_E407_TTA_CombineModel_V2.c ****        *
1122:HANcoder_E407_TTA_CombineModel_V2.c ****        * Block description for '<S53>/Delay Input1':
1123:HANcoder_E407_TTA_CombineModel_V2.c ****        *
1124:HANcoder_E407_TTA_CombineModel_V2.c ****        *  Store in Global RAM
1125:HANcoder_E407_TTA_CombineModel_V2.c ****        */
1126:HANcoder_E407_TTA_CombineModel_V2.c ****       rtDWork.DelayInput1_DSTATE = 0.0;
1127:HANcoder_E407_TTA_CombineModel_V2.c **** 
1128:HANcoder_E407_TTA_CombineModel_V2.c ****       /* Update for M-S-Function: '<S57>/Level-2 M-file S-Function' */
1129:HANcoder_E407_TTA_CombineModel_V2.c ****       /* set the new duty cycle */
1130:HANcoder_E407_TTA_CombineModel_V2.c ****       PwmoutSet(PWMOUT_TIM14_PIN_PF9, rtB.DataStoreRead);
 2185              		.loc 1 1130 7 view .LVU829
 2186 0376 3146     		mov	r1, r6
1104:HANcoder_E407_TTA_CombineModel_V2.c **** 
 2187              		.loc 1 1104 30 view .LVU830
 2188 0378 63F31F68 		bfi	r8, r3, #24, #8
1126:HANcoder_E407_TTA_CombineModel_V2.c **** 
 2189              		.loc 1 1126 34 view .LVU831
 2190 037c 0022     		movs	r2, #0
 2191 037e 0023     		movs	r3, #0
 2192              		.loc 1 1130 7 view .LVU832
 2193 0380 1020     		movs	r0, #16
1126:HANcoder_E407_TTA_CombineModel_V2.c **** 
 2194              		.loc 1 1126 34 view .LVU833
 2195 0382 C4E90223 		strd	r2, [r4, #8]
1104:HANcoder_E407_TTA_CombineModel_V2.c **** 
 2196              		.loc 1 1104 30 view .LVU834
 2197 0386 CAF82480 		str	r8, [r10, #36]
1126:HANcoder_E407_TTA_CombineModel_V2.c **** 
 2198              		.loc 1 1126 7 is_stmt 1 view .LVU835
 2199              		.loc 1 1130 7 view .LVU836
 2200 038a FFF7FEFF 		bl	PwmoutSet
 2201              	.LVL154:
1131:HANcoder_E407_TTA_CombineModel_V2.c **** 
1132:HANcoder_E407_TTA_CombineModel_V2.c ****       /* Update for M-S-Function: '<S54>/Level-2 M-file S-Function' */
1133:HANcoder_E407_TTA_CombineModel_V2.c ****       /* update digital output */
1134:HANcoder_E407_TTA_CombineModel_V2.c ****       if (rtB.DataStoreRead1 == 0) {
 2202              		.loc 1 1134 7 view .LVU837
 2203              		.loc 1 1134 10 is_stmt 0 view .LVU838
 2204 038e 9AF82610 		ldrb	r1, [r10, #38]	@ zero_extendqisi2
 2205 0392 01B1     		cbz	r1, .L352
1135:HANcoder_E407_TTA_CombineModel_V2.c ****         DigoutSet(DIGOUT_PORTE_PIN5, DIGOUT_LOW);
1136:HANcoder_E407_TTA_CombineModel_V2.c ****       } else {
1137:HANcoder_E407_TTA_CombineModel_V2.c ****         DigoutSet(DIGOUT_PORTE_PIN5, DIGOUT_HIGH);
 2206              		.loc 1 1137 9 is_stmt 1 view .LVU839
 2207 0394 0121     		movs	r1, #1
 2208              	.L352:
 2209 0396 0A20     		movs	r0, #10
 2210 0398 FFF7FEFF 		bl	DigoutSet
 2211              	.LVL155:
1138:HANcoder_E407_TTA_CombineModel_V2.c ****       }
1139:HANcoder_E407_TTA_CombineModel_V2.c **** 
1140:HANcoder_E407_TTA_CombineModel_V2.c ****       /* Update for M-S-Function: '<S55>/Level-2 M-file S-Function' */
1141:HANcoder_E407_TTA_CombineModel_V2.c ****       /* update digital output */
1142:HANcoder_E407_TTA_CombineModel_V2.c ****       if (rtB.DataStoreRead3_n == 0) {
 2212              		.loc 1 1142 7 view .LVU840
 2213              		.loc 1 1142 10 is_stmt 0 view .LVU841
 2214 039c 9AF82710 		ldrb	r1, [r10, #39]	@ zero_extendqisi2
 2215 03a0 01B1     		cbz	r1, .L353
1143:HANcoder_E407_TTA_CombineModel_V2.c ****         DigoutSet(DIGOUT_PORTE_PIN6, DIGOUT_LOW);
1144:HANcoder_E407_TTA_CombineModel_V2.c ****       } else {
1145:HANcoder_E407_TTA_CombineModel_V2.c ****         DigoutSet(DIGOUT_PORTE_PIN6, DIGOUT_HIGH);
 2216              		.loc 1 1145 9 is_stmt 1 view .LVU842
 2217 03a2 0121     		movs	r1, #1
 2218              	.L353:
 2219 03a4 0B20     		movs	r0, #11
 2220 03a6 FFF7FEFF 		bl	DigoutSet
 2221              	.LVL156:
1146:HANcoder_E407_TTA_CombineModel_V2.c ****       }
1147:HANcoder_E407_TTA_CombineModel_V2.c **** 
1148:HANcoder_E407_TTA_CombineModel_V2.c ****       /* Update for M-S-Function: '<S56>/Level-2 M-file S-Function' */
1149:HANcoder_E407_TTA_CombineModel_V2.c ****       /* update digital output */
1150:HANcoder_E407_TTA_CombineModel_V2.c ****       if (rtB.Equal == 0) {
 2222              		.loc 1 1150 7 view .LVU843
 2223              		.loc 1 1150 10 is_stmt 0 view .LVU844
 2224 03aa 9AF82510 		ldrb	r1, [r10, #37]	@ zero_extendqisi2
 2225 03ae 01B1     		cbz	r1, .L354
1151:HANcoder_E407_TTA_CombineModel_V2.c ****         DigoutSet(DIGOUT_PORTC_PIN13, DIGOUT_LOW);
1152:HANcoder_E407_TTA_CombineModel_V2.c ****       } else {
1153:HANcoder_E407_TTA_CombineModel_V2.c ****         DigoutSet(DIGOUT_PORTC_PIN13, DIGOUT_HIGH);
 2226              		.loc 1 1153 9 is_stmt 1 view .LVU845
 2227 03b0 0121     		movs	r1, #1
 2228              	.L354:
 2229 03b2 4720     		movs	r0, #71
 2230 03b4 FFF7FEFF 		bl	DigoutSet
 2231              	.LVL157:
1154:HANcoder_E407_TTA_CombineModel_V2.c ****       }
1155:HANcoder_E407_TTA_CombineModel_V2.c ****     }
1156:HANcoder_E407_TTA_CombineModel_V2.c **** 
1157:HANcoder_E407_TTA_CombineModel_V2.c ****     rtPrevZCSigState.Slot5execution_Trig_ZCE = rtb_NotEqual;
1158:HANcoder_E407_TTA_CombineModel_V2.c **** 
1159:HANcoder_E407_TTA_CombineModel_V2.c ****     /* End of Outputs for SubSystem: '<S8>/Slot 5 execution' */
1160:HANcoder_E407_TTA_CombineModel_V2.c **** 
1161:HANcoder_E407_TTA_CombineModel_V2.c ****     /* Logic: '<S8>/OR' incorporates:
1162:HANcoder_E407_TTA_CombineModel_V2.c ****      *  Constant: '<S8>/Constant23'
1163:HANcoder_E407_TTA_CombineModel_V2.c ****      *  Constant: '<S8>/Constant9'
1164:HANcoder_E407_TTA_CombineModel_V2.c ****      *  RelationalOperator: '<S8>/Equal18'
1165:HANcoder_E407_TTA_CombineModel_V2.c ****      *  RelationalOperator: '<S8>/Equal9'
1166:HANcoder_E407_TTA_CombineModel_V2.c ****      */
1167:HANcoder_E407_TTA_CombineModel_V2.c ****     rtb_NotEqual = ((5.0 == slotSelected) || (slotSelected == 10.0));
 2232              		.loc 1 1167 26 is_stmt 0 view .LVU846
 2233 03b8 9BF80030 		ldrb	r3, [fp]	@ zero_extendqisi2
 2234 03bc 08EE103A 		vmov	s16, r3	@ int
 2235 03c0 B8EEC88A 		vcvt.f32.s32	s16, s16
 2236              	.LVL158:
 2237              	.L132:
1157:HANcoder_E407_TTA_CombineModel_V2.c **** 
 2238              		.loc 1 1157 5 is_stmt 1 view .LVU847
 2239              		.loc 1 1167 43 is_stmt 0 view .LVU848
 2240 03c4 F1EE047A 		vmov.f32	s15, #5.0e+0
 2241 03c8 B4EE678A 		vcmp.f32	s16, s15
1157:HANcoder_E407_TTA_CombineModel_V2.c **** 
 2242              		.loc 1 1157 46 view .LVU849
 2243 03cc 0123     		movs	r3, #1
 2244              		.loc 1 1167 43 view .LVU850
 2245 03ce F1EE10FA 		vmrs	APSR_nzcv, FPSCR
1157:HANcoder_E407_TTA_CombineModel_V2.c **** 
 2246              		.loc 1 1157 46 view .LVU851
 2247 03d2 2B72     		strb	r3, [r5, #8]
 2248              		.loc 1 1167 5 is_stmt 1 view .LVU852
 2249              		.loc 1 1167 43 is_stmt 0 view .LVU853
 2250 03d4 40F09585 		bne	.L365
 2251              	.L141:
1168:HANcoder_E407_TTA_CombineModel_V2.c **** 
1169:HANcoder_E407_TTA_CombineModel_V2.c ****     /* Outputs for Triggered SubSystem: '<S8>/Subsystem' incorporates:
1170:HANcoder_E407_TTA_CombineModel_V2.c ****      *  TriggerPort: '<S26>/Trigger'
1171:HANcoder_E407_TTA_CombineModel_V2.c ****      */
1172:HANcoder_E407_TTA_CombineModel_V2.c ****     if (rtb_NotEqual && (rtPrevZCSigState.Subsystem_Trig_ZCE_g != POS_ZCSIG)) {
 2252              		.loc 1 1172 22 discriminator 1 view .LVU854
 2253 03d8 EB79     		ldrb	r3, [r5, #7]	@ zero_extendqisi2
 2254 03da 012B     		cmp	r3, #1
 2255 03dc 00F0F481 		beq	.L143
1173:HANcoder_E407_TTA_CombineModel_V2.c ****       /* DataStoreRead: '<S26>/Data Store Read' */
1174:HANcoder_E407_TTA_CombineModel_V2.c ****       reqAngle = rtDWork.requestedAngle;
 2256              		.loc 1 1174 7 is_stmt 1 view .LVU855
 2257              		.loc 1 1174 25 is_stmt 0 view .LVU856
 2258 03e0 D4E90801 		ldrd	r0, [r4, #32]
1175:HANcoder_E407_TTA_CombineModel_V2.c **** 
1176:HANcoder_E407_TTA_CombineModel_V2.c ****       /* Product: '<S114>/Product' incorporates:
1177:HANcoder_E407_TTA_CombineModel_V2.c ****        *  Constant: '<S60>/TrailUnitWheelbase'
1178:HANcoder_E407_TTA_CombineModel_V2.c ****        *  Trigonometry: '<S114>/tan '
1179:HANcoder_E407_TTA_CombineModel_V2.c ****        */
1180:HANcoder_E407_TTA_CombineModel_V2.c ****       rtb_Multiply1 = tan(reqAngle) * rtConstB.Abs / 4.0;
 2259              		.loc 1 1180 47 view .LVU857
 2260 03e4 DFF88491 		ldr	r9, .L385+100
1174:HANcoder_E407_TTA_CombineModel_V2.c **** 
 2261              		.loc 1 1174 16 view .LVU858
 2262 03e8 584B     		ldr	r3, .L385+68
 2263 03ea C3E90001 		strd	r0, [r3]
 2264              		.loc 1 1180 7 is_stmt 1 view .LVU859
 2265              		.loc 1 1180 23 is_stmt 0 view .LVU860
 2266 03ee FFF7FEFF 		bl	tan
 2267              	.LVL159:
 2268              		.loc 1 1180 37 view .LVU861
 2269 03f2 D9E90423 		ldrd	r2, [r9, #16]
 2270 03f6 FFF7FEFF 		bl	__aeabi_dmul
 2271              	.LVL160:
 2272              		.loc 1 1180 21 view .LVU862
 2273 03fa 0022     		movs	r2, #0
 2274 03fc 544B     		ldr	r3, .L385+72
 2275 03fe FFF7FEFF 		bl	__aeabi_dmul
 2276              	.LVL161:
1181:HANcoder_E407_TTA_CombineModel_V2.c **** 
1182:HANcoder_E407_TTA_CombineModel_V2.c ****       /* DataStoreRead: '<S26>/Data Store Read2' */
1183:HANcoder_E407_TTA_CombineModel_V2.c ****       t2Angle = rtDWork.trailerTwoAngle;
 2277              		.loc 1 1183 7 is_stmt 1 view .LVU863
 2278              		.loc 1 1183 15 is_stmt 0 view .LVU864
 2279 0402 544B     		ldr	r3, .L385+76
1184:HANcoder_E407_TTA_CombineModel_V2.c **** 
1185:HANcoder_E407_TTA_CombineModel_V2.c ****       /* DataStoreRead: '<S26>/Data Store Read1' */
1186:HANcoder_E407_TTA_CombineModel_V2.c ****       t1Angle = rtDWork.trailerOneAngle;
 2280              		.loc 1 1186 24 view .LVU865
 2281 0404 B4F83280 		ldrh	r8, [r4, #50]
1180:HANcoder_E407_TTA_CombineModel_V2.c **** 
 2282              		.loc 1 1180 21 view .LVU866
 2283 0408 CDE90C01 		strd	r0, [sp, #48]
 2284              	.LVL162:
1183:HANcoder_E407_TTA_CombineModel_V2.c **** 
 2285              		.loc 1 1183 24 view .LVU867
 2286 040c A08E     		ldrh	r0, [r4, #52]
1183:HANcoder_E407_TTA_CombineModel_V2.c **** 
 2287              		.loc 1 1183 15 view .LVU868
 2288 040e 1880     		strh	r0, [r3]	@ movhi
 2289              		.loc 1 1186 7 is_stmt 1 view .LVU869
 2290              		.loc 1 1186 15 is_stmt 0 view .LVU870
 2291 0410 514B     		ldr	r3, .L385+80
1187:HANcoder_E407_TTA_CombineModel_V2.c **** 
1188:HANcoder_E407_TTA_CombineModel_V2.c ****       /* Sum: '<S60>/Sum2' */
1189:HANcoder_E407_TTA_CombineModel_V2.c ****       Gamma2 = (uint16_T)(t1Angle - t2Angle);
 2292              		.loc 1 1189 16 view .LVU871
 2293 0412 A8EB0000 		sub	r0, r8, r0
1186:HANcoder_E407_TTA_CombineModel_V2.c **** 
 2294              		.loc 1 1186 15 view .LVU872
 2295 0416 A3F80080 		strh	r8, [r3]	@ movhi
 2296              		.loc 1 1189 7 is_stmt 1 view .LVU873
 2297              		.loc 1 1189 14 is_stmt 0 view .LVU874
 2298 041a 504B     		ldr	r3, .L385+84
 2299              		.loc 1 1189 16 view .LVU875
 2300 041c 80B2     		uxth	r0, r0
 2301              		.loc 1 1189 14 view .LVU876
 2302 041e 1880     		strh	r0, [r3]	@ movhi
1190:HANcoder_E407_TTA_CombineModel_V2.c **** 
1191:HANcoder_E407_TTA_CombineModel_V2.c ****       /* Trigonometry: '<S112>/tan 1' incorporates:
1192:HANcoder_E407_TTA_CombineModel_V2.c ****        *  DataTypeConversion: '<S112>/Cast'
1193:HANcoder_E407_TTA_CombineModel_V2.c ****        *  Trigonometry: '<S113>/tan '
1194:HANcoder_E407_TTA_CombineModel_V2.c ****        */
1195:HANcoder_E407_TTA_CombineModel_V2.c ****       rtb_IntegralGain = sin(Gamma2);
 2303              		.loc 1 1195 7 is_stmt 1 view .LVU877
 2304              		.loc 1 1195 26 is_stmt 0 view .LVU878
 2305 0420 FFF7FEFF 		bl	__aeabi_ui2d
 2306              	.LVL163:
 2307 0424 0646     		mov	r6, r0
 2308 0426 0F46     		mov	r7, r1
 2309 0428 FFF7FEFF 		bl	sin
 2310              	.LVL164:
1196:HANcoder_E407_TTA_CombineModel_V2.c **** 
1197:HANcoder_E407_TTA_CombineModel_V2.c ****       /* Trigonometry: '<S112>/tan 2' incorporates:
1198:HANcoder_E407_TTA_CombineModel_V2.c ****        *  DataTypeConversion: '<S112>/Cast'
1199:HANcoder_E407_TTA_CombineModel_V2.c ****        *  Trigonometry: '<S113>/tan 1'
1200:HANcoder_E407_TTA_CombineModel_V2.c ****        */
1201:HANcoder_E407_TTA_CombineModel_V2.c ****       rtb_Integrator_tmp = cos(Gamma2);
 2311              		.loc 1 1201 7 is_stmt 1 view .LVU879
1195:HANcoder_E407_TTA_CombineModel_V2.c **** 
 2312              		.loc 1 1195 26 is_stmt 0 view .LVU880
 2313 042c 0246     		mov	r2, r0
 2314 042e 0B46     		mov	r3, r1
 2315              		.loc 1 1201 28 view .LVU881
 2316 0430 3046     		mov	r0, r6
 2317 0432 3946     		mov	r1, r7
1195:HANcoder_E407_TTA_CombineModel_V2.c **** 
 2318              		.loc 1 1195 26 view .LVU882
 2319 0434 CDE90A23 		strd	r2, [sp, #40]
 2320              	.LVL165:
 2321              		.loc 1 1201 28 view .LVU883
 2322 0438 FFF7FEFF 		bl	cos
 2323              	.LVL166:
1202:HANcoder_E407_TTA_CombineModel_V2.c **** 
1203:HANcoder_E407_TTA_CombineModel_V2.c ****       /* Sum: '<S112>/Add' incorporates:
1204:HANcoder_E407_TTA_CombineModel_V2.c ****        *  Constant: '<S26>/Constant'
1205:HANcoder_E407_TTA_CombineModel_V2.c ****        *  Constant: '<S60>/TrailUnitWheelbase'
1206:HANcoder_E407_TTA_CombineModel_V2.c ****        *  Product: '<S112>/Product1'
1207:HANcoder_E407_TTA_CombineModel_V2.c ****        *  Product: '<S112>/Product2'
1208:HANcoder_E407_TTA_CombineModel_V2.c ****        *  Trigonometry: '<S112>/tan 1'
1209:HANcoder_E407_TTA_CombineModel_V2.c ****        *  Trigonometry: '<S112>/tan 2'
1210:HANcoder_E407_TTA_CombineModel_V2.c ****        */
1211:HANcoder_E407_TTA_CombineModel_V2.c ****       rtb_Multiply = rtb_Multiply1 * 4.0 * rtb_IntegralGain + rtb_Integrator_tmp
 2324              		.loc 1 1211 36 view .LVU884
 2325 043c 484B     		ldr	r3, .L385+88
1201:HANcoder_E407_TTA_CombineModel_V2.c **** 
 2326              		.loc 1 1201 28 view .LVU885
 2327 043e 0646     		mov	r6, r0
 2328 0440 0F46     		mov	r7, r1
 2329              	.LVL167:
 2330              		.loc 1 1211 7 is_stmt 1 view .LVU886
 2331              		.loc 1 1211 36 is_stmt 0 view .LVU887
 2332 0442 0022     		movs	r2, #0
 2333 0444 DDE90C01 		ldrd	r0, [sp, #48]
 2334 0448 FFF7FEFF 		bl	__aeabi_dmul
 2335              	.LVL168:
 2336              		.loc 1 1211 42 view .LVU888
 2337 044c DDE90A23 		ldrd	r2, [sp, #40]
 2338 0450 FFF7FEFF 		bl	__aeabi_dmul
 2339              	.LVL169:
1212:HANcoder_E407_TTA_CombineModel_V2.c ****         * 1.3;
 2340              		.loc 1 1212 9 view .LVU889
 2341 0454 2EA3     		adr	r3, .L385+8
 2342 0456 D3E90023 		ldrd	r2, [r3]
1211:HANcoder_E407_TTA_CombineModel_V2.c ****         * 1.3;
 2343              		.loc 1 1211 42 view .LVU890
 2344 045a CDE90601 		strd	r0, [sp, #24]
 2345              		.loc 1 1212 9 view .LVU891
 2346 045e 3046     		mov	r0, r6
 2347 0460 3946     		mov	r1, r7
 2348 0462 FFF7FEFF 		bl	__aeabi_dmul
 2349              	.LVL170:
 2350 0466 0246     		mov	r2, r0
 2351 0468 0B46     		mov	r3, r1
1211:HANcoder_E407_TTA_CombineModel_V2.c ****         * 1.3;
 2352              		.loc 1 1211 20 view .LVU892
 2353 046a DDE90601 		ldrd	r0, [sp, #24]
 2354 046e FFF7FEFF 		bl	__aeabi_dadd
 2355              	.LVL171:
1213:HANcoder_E407_TTA_CombineModel_V2.c **** 
1214:HANcoder_E407_TTA_CombineModel_V2.c ****       /* Sum: '<S60>/Sum1' incorporates:
1215:HANcoder_E407_TTA_CombineModel_V2.c ****        *  Constant: '<S26>/Constant1'
1216:HANcoder_E407_TTA_CombineModel_V2.c ****        */
1217:HANcoder_E407_TTA_CombineModel_V2.c ****       Gamma1 = 0.0 - (real_T)t1Angle;
 2356              		.loc 1 1217 7 is_stmt 1 view .LVU893
1211:HANcoder_E407_TTA_CombineModel_V2.c ****         * 1.3;
 2357              		.loc 1 1211 20 is_stmt 0 view .LVU894
 2358 0472 0246     		mov	r2, r0
 2359 0474 0B46     		mov	r3, r1
 2360              		.loc 1 1217 22 view .LVU895
 2361 0476 4046     		mov	r0, r8
1211:HANcoder_E407_TTA_CombineModel_V2.c ****         * 1.3;
 2362              		.loc 1 1211 20 view .LVU896
 2363 0478 CDE90823 		strd	r2, [sp, #32]
 2364              	.LVL172:
 2365              		.loc 1 1217 22 view .LVU897
 2366 047c FFF7FEFF 		bl	__aeabi_ui2d
 2367              	.LVL173:
 2368 0480 0B46     		mov	r3, r1
 2369 0482 9846     		mov	r8, r3
 2370 0484 0246     		mov	r2, r0
1218:HANcoder_E407_TTA_CombineModel_V2.c **** 
1219:HANcoder_E407_TTA_CombineModel_V2.c ****       /* Product: '<S113>/Product' incorporates:
1220:HANcoder_E407_TTA_CombineModel_V2.c ****        *  Constant: '<S26>/Constant'
1221:HANcoder_E407_TTA_CombineModel_V2.c ****        *  Constant: '<S60>/RearAxleToHitch'
1222:HANcoder_E407_TTA_CombineModel_V2.c ****        *  Constant: '<S60>/TrailUnitWheelbase'
1223:HANcoder_E407_TTA_CombineModel_V2.c ****        *  Gain: '<S113>/Gain'
1224:HANcoder_E407_TTA_CombineModel_V2.c ****        *  Product: '<S113>/Product1'
1225:HANcoder_E407_TTA_CombineModel_V2.c ****        *  Product: '<S113>/Product3'
1226:HANcoder_E407_TTA_CombineModel_V2.c ****        *  Sum: '<S113>/Add'
1227:HANcoder_E407_TTA_CombineModel_V2.c ****        */
1228:HANcoder_E407_TTA_CombineModel_V2.c ****       rtb_IntegralGain = (1.3 / 1.0 * rtb_IntegralGain * (-1.0) +
1229:HANcoder_E407_TTA_CombineModel_V2.c ****                           rtb_Integrator_tmp / 1.0 * 4.0 * rtb_Multiply1) *
 2371              		.loc 1 1229 52 view .LVU898
 2372 0486 3046     		mov	r0, r6
1217:HANcoder_E407_TTA_CombineModel_V2.c **** 
 2373              		.loc 1 1217 20 view .LVU899
 2374 0488 08F10046 		add	r6, r8, #-2147483648
 2375              	.LVL174:
1217:HANcoder_E407_TTA_CombineModel_V2.c **** 
 2376              		.loc 1 1217 20 view .LVU900
 2377 048c 0692     		str	r2, [sp, #24]
 2378 048e 0796     		str	r6, [sp, #28]
1217:HANcoder_E407_TTA_CombineModel_V2.c **** 
 2379              		.loc 1 1217 14 view .LVU901
 2380 0490 9DED067B 		vldr.64	d7, [sp, #24]
 2381 0494 334B     		ldr	r3, .L385+92
 2382              		.loc 1 1229 52 view .LVU902
 2383 0496 3946     		mov	r1, r7
1217:HANcoder_E407_TTA_CombineModel_V2.c **** 
 2384              		.loc 1 1217 14 view .LVU903
 2385 0498 83ED007B 		vstr.64	d7, [r3]
1228:HANcoder_E407_TTA_CombineModel_V2.c ****                           rtb_Integrator_tmp / 1.0 * 4.0 * rtb_Multiply1) *
 2386              		.loc 1 1228 7 is_stmt 1 view .LVU904
1217:HANcoder_E407_TTA_CombineModel_V2.c **** 
 2387              		.loc 1 1217 22 is_stmt 0 view .LVU905
 2388 049c 1746     		mov	r7, r2
 2389              		.loc 1 1229 52 view .LVU906
 2390 049e 304B     		ldr	r3, .L385+88
 2391 04a0 0022     		movs	r2, #0
1217:HANcoder_E407_TTA_CombineModel_V2.c **** 
 2392              		.loc 1 1217 20 view .LVU907
 2393 04a2 CDE90E78 		strd	r7, [sp, #56]
 2394              		.loc 1 1229 52 view .LVU908
 2395 04a6 FFF7FEFF 		bl	__aeabi_dmul
 2396              	.LVL175:
 2397              		.loc 1 1229 58 view .LVU909
 2398 04aa DDE90C23 		ldrd	r2, [sp, #48]
 2399 04ae FFF7FEFF 		bl	__aeabi_dmul
 2400              	.LVL176:
1228:HANcoder_E407_TTA_CombineModel_V2.c ****                           rtb_Integrator_tmp / 1.0 * 4.0 * rtb_Multiply1) *
 2401              		.loc 1 1228 37 view .LVU910
 2402 04b2 17A3     		adr	r3, .L385+8
 2403 04b4 D3E90023 		ldrd	r2, [r3]
 2404              		.loc 1 1229 58 view .LVU911
 2405 04b8 0646     		mov	r6, r0
 2406 04ba 0F46     		mov	r7, r1
1228:HANcoder_E407_TTA_CombineModel_V2.c ****                           rtb_Integrator_tmp / 1.0 * 4.0 * rtb_Multiply1) *
 2407              		.loc 1 1228 37 view .LVU912
 2408 04bc DDE90A01 		ldrd	r0, [sp, #40]
 2409 04c0 FFF7FEFF 		bl	__aeabi_dmul
 2410              	.LVL177:
 2411 04c4 0246     		mov	r2, r0
 2412 04c6 0B46     		mov	r3, r1
1228:HANcoder_E407_TTA_CombineModel_V2.c ****                           rtb_Integrator_tmp / 1.0 * 4.0 * rtb_Multiply1) *
 2413              		.loc 1 1228 65 view .LVU913
 2414 04c8 3046     		mov	r0, r6
 2415 04ca 3946     		mov	r1, r7
 2416 04cc FFF7FEFF 		bl	__aeabi_dsub
 2417              	.LVL178:
1230:HANcoder_E407_TTA_CombineModel_V2.c ****         (rtConstB.signV2 * rtConstB.signL0b);
 2418              		.loc 1 1230 26 view .LVU914
 2419 04d0 D9E90223 		ldrd	r2, [r9, #8]
1228:HANcoder_E407_TTA_CombineModel_V2.c ****                           rtb_Integrator_tmp / 1.0 * 4.0 * rtb_Multiply1) *
 2420              		.loc 1 1228 65 view .LVU915
 2421 04d4 0646     		mov	r6, r0
 2422 04d6 0F46     		mov	r7, r1
 2423              		.loc 1 1230 26 view .LVU916
 2424 04d8 D9E90001 		ldrd	r0, [r9]
 2425 04dc FFF7FEFF 		bl	__aeabi_dmul
 2426              	.LVL179:
1228:HANcoder_E407_TTA_CombineModel_V2.c ****                           rtb_Integrator_tmp / 1.0 * 4.0 * rtb_Multiply1) *
 2427              		.loc 1 1228 24 view .LVU917
 2428 04e0 3246     		mov	r2, r6
 2429 04e2 3B46     		mov	r3, r7
 2430 04e4 FFF7FEFF 		bl	__aeabi_dmul
 2431              	.LVL180:
 2432 04e8 0246     		mov	r2, r0
 2433 04ea 0B46     		mov	r3, r1
1231:HANcoder_E407_TTA_CombineModel_V2.c **** 
1232:HANcoder_E407_TTA_CombineModel_V2.c ****       /* Trigonometry: '<S117>/tan ' incorporates:
1233:HANcoder_E407_TTA_CombineModel_V2.c ****        *  DataTypeConversion: '<S117>/Cast'
1234:HANcoder_E407_TTA_CombineModel_V2.c ****        *  Trigonometry: '<S116>/tan 1'
1235:HANcoder_E407_TTA_CombineModel_V2.c ****        */
1236:HANcoder_E407_TTA_CombineModel_V2.c ****       rtb_Multiply1 = sin(Gamma1);
 2434              		.loc 1 1236 23 view .LVU918
 2435 04ec DDE90601 		ldrd	r0, [sp, #24]
1228:HANcoder_E407_TTA_CombineModel_V2.c ****                           rtb_Integrator_tmp / 1.0 * 4.0 * rtb_Multiply1) *
 2436              		.loc 1 1228 24 view .LVU919
 2437 04f0 CDE90623 		strd	r2, [sp, #24]
 2438              	.LVL181:
 2439              		.loc 1 1236 7 is_stmt 1 view .LVU920
 2440              		.loc 1 1236 23 is_stmt 0 view .LVU921
 2441 04f4 FFF7FEFF 		bl	sin
 2442              	.LVL182:
 2443              		.loc 1 1236 23 view .LVU922
 2444 04f8 0246     		mov	r2, r0
 2445 04fa 0B46     		mov	r3, r1
1237:HANcoder_E407_TTA_CombineModel_V2.c **** 
1238:HANcoder_E407_TTA_CombineModel_V2.c ****       /* Trigonometry: '<S117>/tan 1' incorporates:
1239:HANcoder_E407_TTA_CombineModel_V2.c ****        *  DataTypeConversion: '<S117>/Cast'
1240:HANcoder_E407_TTA_CombineModel_V2.c ****        *  Trigonometry: '<S116>/tan 2'
1241:HANcoder_E407_TTA_CombineModel_V2.c ****        */
1242:HANcoder_E407_TTA_CombineModel_V2.c ****       rtb_Integrator_tmp = cos(Gamma1);
 2446              		.loc 1 1242 28 view .LVU923
 2447 04fc DDE90E01 		ldrd	r0, [sp, #56]
 2448 0500 36E0     		b	.L386
 2449              	.L387:
 2450 0502 00BFAFF3 		.align	3
 2450      0080
 2451              	.L385:
 2452 0508 00000040 		.word	1073741824
 2453 050c 1BB98E3F 		.word	1066318107
 2454 0510 000000C0 		.word	-1073741824
 2455 0514 CCCCF43F 		.word	1073007820
 2456 0518 00000000 		.word	rtPrevZCSigState
 2457 051c 0000F03F 		.word	1072693248
 2458 0520 00000000 		.word	SSTM1_ID
 2459 0524 00000000 		.word	boolCan
 2460 0528 00000000 		.word	analogPot1
 2461 052c 8C010000 		.word	rtDWork+396
 2462 0530 60000000 		.word	rtB+96
 2463 0534 00000000 		.word	pot1
 2464 0538 00000000 		.word	analogPot2
 2465 053c 5C000000 		.word	rtB+92
 2466 0540 50000000 		.word	rtDWork+80
 2467 0544 00000000 		.word	pot2
 2468 0548 00000000 		.word	desiredAngle
 2469 054c 00000000 		.word	reqAngle
 2470 0550 0000D03F 		.word	1070596096
 2471 0554 00000000 		.word	t2Angle
 2472 0558 00000000 		.word	t1Angle
 2473 055c 00000000 		.word	Gamma2
 2474 0560 00001040 		.word	1074790400
 2475 0564 00000000 		.word	Gamma1
 2476 0568 00000000 		.word	canRxData_0_rtu_In1
 2477 056c 00000000 		.word	rtConstB
 2478              	.L386:
1236:HANcoder_E407_TTA_CombineModel_V2.c **** 
 2479              		.loc 1 1236 23 view .LVU924
 2480 0570 CDE90A23 		strd	r2, [sp, #40]
 2481              	.LVL183:
 2482              		.loc 1 1242 7 is_stmt 1 view .LVU925
 2483              		.loc 1 1242 28 is_stmt 0 view .LVU926
 2484 0574 FFF7FEFF 		bl	cos
 2485              	.LVL184:
1243:HANcoder_E407_TTA_CombineModel_V2.c **** 
1244:HANcoder_E407_TTA_CombineModel_V2.c ****       /* Signum: '<S117>/Sign' */
1245:HANcoder_E407_TTA_CombineModel_V2.c ****       if (rtb_Multiply < 0.0) {
 2486              		.loc 1 1245 10 view .LVU927
 2487 0578 DDE90867 		ldrd	r6, [sp, #32]
1242:HANcoder_E407_TTA_CombineModel_V2.c **** 
 2488              		.loc 1 1242 28 view .LVU928
 2489 057c CDE90C01 		strd	r0, [sp, #48]
 2490              	.LVL185:
 2491              		.loc 1 1245 7 is_stmt 1 view .LVU929
 2492              		.loc 1 1245 10 is_stmt 0 view .LVU930
 2493 0580 0022     		movs	r2, #0
 2494 0582 0023     		movs	r3, #0
 2495 0584 3046     		mov	r0, r6
 2496              	.LVL186:
 2497              		.loc 1 1245 10 view .LVU931
 2498 0586 3946     		mov	r1, r7
 2499 0588 FFF7FEFF 		bl	__aeabi_dcmplt
 2500              	.LVL187:
 2501 058c 0028     		cmp	r0, #0
 2502 058e 40F00285 		bne	.L249
1246:HANcoder_E407_TTA_CombineModel_V2.c ****         tmp_0 = -1.0;
1247:HANcoder_E407_TTA_CombineModel_V2.c ****       } else {
1248:HANcoder_E407_TTA_CombineModel_V2.c ****         tmp_0 = (rtb_Multiply > 0.0);
 2503              		.loc 1 1248 9 is_stmt 1 view .LVU932
 2504              		.loc 1 1248 15 is_stmt 0 view .LVU933
 2505 0592 0022     		movs	r2, #0
 2506 0594 0023     		movs	r3, #0
 2507 0596 3046     		mov	r0, r6
 2508 0598 3946     		mov	r1, r7
 2509 059a FFF7FEFF 		bl	__aeabi_dcmpgt
 2510              	.LVL188:
 2511 059e 0028     		cmp	r0, #0
 2512 05a0 00F0A785 		beq	.L339
 2513 05a4 9FEDC47B 		vldr.64	d7, .L388
 2514 05a8 8DED0E7B 		vstr.64	d7, [sp, #56]
 2515              	.L144:
 2516              	.LVL189:
1249:HANcoder_E407_TTA_CombineModel_V2.c ****       }
1250:HANcoder_E407_TTA_CombineModel_V2.c **** 
1251:HANcoder_E407_TTA_CombineModel_V2.c ****       /* Trigonometry: '<S115>/tan 1' incorporates:
1252:HANcoder_E407_TTA_CombineModel_V2.c ****        *  Constant: '<S60>/RearAxleToHitch'
1253:HANcoder_E407_TTA_CombineModel_V2.c ****        *  Constant: '<S60>/TractorWheelbase'
1254:HANcoder_E407_TTA_CombineModel_V2.c ****        *  Constant: '<S60>/TrailUnitWheelbase'
1255:HANcoder_E407_TTA_CombineModel_V2.c ****        *  DataTypeConversion: '<S115>/Cast'
1256:HANcoder_E407_TTA_CombineModel_V2.c ****        *  Gain: '<S117>/Gain'
1257:HANcoder_E407_TTA_CombineModel_V2.c ****        *  Product: '<S115>/Product1'
1258:HANcoder_E407_TTA_CombineModel_V2.c ****        *  Product: '<S116>/Product1'
1259:HANcoder_E407_TTA_CombineModel_V2.c ****        *  Product: '<S116>/Product2'
1260:HANcoder_E407_TTA_CombineModel_V2.c ****        *  Product: '<S117>/Product'
1261:HANcoder_E407_TTA_CombineModel_V2.c ****        *  Product: '<S117>/Product1'
1262:HANcoder_E407_TTA_CombineModel_V2.c ****        *  Product: '<S117>/Product3'
1263:HANcoder_E407_TTA_CombineModel_V2.c ****        *  Signum: '<S117>/Sign'
1264:HANcoder_E407_TTA_CombineModel_V2.c ****        *  Sum: '<S116>/Add'
1265:HANcoder_E407_TTA_CombineModel_V2.c ****        *  Sum: '<S117>/Add'
1266:HANcoder_E407_TTA_CombineModel_V2.c ****        *  Trigonometry: '<S117>/tan '
1267:HANcoder_E407_TTA_CombineModel_V2.c ****        *  Trigonometry: '<S117>/tan 1'
1268:HANcoder_E407_TTA_CombineModel_V2.c ****        */
1269:HANcoder_E407_TTA_CombineModel_V2.c ****       delta12K = (real32_T)atan((real32_T)((rtb_Multiply / 1.0 * rtb_Multiply1 *
 2517              		.loc 1 1269 7 is_stmt 1 view .LVU934
1270:HANcoder_E407_TTA_CombineModel_V2.c ****         (-1.0) + rtb_Integrator_tmp / 1.0 * 4.0 * rtb_IntegralGain) * (tmp_0 *
 2518              		.loc 1 1270 43 is_stmt 0 view .LVU935
 2519 05ac DDE90C01 		ldrd	r0, [sp, #48]
 2520 05b0 C74B     		ldr	r3, .L388+24
 2521 05b2 0022     		movs	r2, #0
 2522 05b4 FFF7FEFF 		bl	__aeabi_dmul
 2523              	.LVL190:
 2524              		.loc 1 1270 49 view .LVU936
 2525 05b8 DDE90623 		ldrd	r2, [sp, #24]
 2526 05bc FFF7FEFF 		bl	__aeabi_dmul
 2527              	.LVL191:
1269:HANcoder_E407_TTA_CombineModel_V2.c ****         (-1.0) + rtb_Integrator_tmp / 1.0 * 4.0 * rtb_IntegralGain) * (tmp_0 *
 2528              		.loc 1 1269 64 view .LVU937
 2529 05c0 DDE90A23 		ldrd	r2, [sp, #40]
 2530              		.loc 1 1270 49 view .LVU938
 2531 05c4 0646     		mov	r6, r0
 2532 05c6 0F46     		mov	r7, r1
1269:HANcoder_E407_TTA_CombineModel_V2.c ****         (-1.0) + rtb_Integrator_tmp / 1.0 * 4.0 * rtb_IntegralGain) * (tmp_0 *
 2533              		.loc 1 1269 64 view .LVU939
 2534 05c8 DDE90801 		ldrd	r0, [sp, #32]
 2535 05cc FFF7FEFF 		bl	__aeabi_dmul
 2536              	.LVL192:
 2537 05d0 0246     		mov	r2, r0
 2538 05d2 0B46     		mov	r3, r1
 2539              		.loc 1 1270 16 view .LVU940
 2540 05d4 3046     		mov	r0, r6
 2541 05d6 3946     		mov	r1, r7
 2542 05d8 FFF7FEFF 		bl	__aeabi_dsub
 2543              	.LVL193:
 2544              		.loc 1 1270 78 view .LVU941
 2545 05dc D9E90623 		ldrd	r2, [r9, #24]
 2546              		.loc 1 1270 16 view .LVU942
 2547 05e0 0646     		mov	r6, r0
 2548 05e2 0F46     		mov	r7, r1
 2549              		.loc 1 1270 78 view .LVU943
 2550 05e4 DDE90E01 		ldrd	r0, [sp, #56]
 2551 05e8 FFF7FEFF 		bl	__aeabi_dmul
 2552              	.LVL194:
 2553 05ec 0246     		mov	r2, r0
 2554 05ee 0B46     		mov	r3, r1
 2555              		.loc 1 1270 69 view .LVU944
 2556 05f0 3046     		mov	r0, r6
 2557 05f2 3946     		mov	r1, r7
 2558 05f4 FFF7FEFF 		bl	__aeabi_dmul
 2559              	.LVL195:
1271:HANcoder_E407_TTA_CombineModel_V2.c ****         rtConstB.signL0b_o) * 3.0 / (rtb_IntegralGain * 4.0 * rtb_Multiply1 +
 2560              		.loc 1 1271 29 view .LVU945
 2561 05f8 B64B     		ldr	r3, .L388+28
 2562 05fa 0022     		movs	r2, #0
 2563 05fc FFF7FEFF 		bl	__aeabi_dmul
 2564              	.LVL196:
 2565              		.loc 1 1271 55 view .LVU946
 2566 0600 B34B     		ldr	r3, .L388+24
 2567              		.loc 1 1271 29 view .LVU947
 2568 0602 8046     		mov	r8, r0
 2569 0604 8946     		mov	r9, r1
 2570              		.loc 1 1271 55 view .LVU948
 2571 0606 0022     		movs	r2, #0
 2572 0608 DDE90601 		ldrd	r0, [sp, #24]
 2573 060c FFF7FEFF 		bl	__aeabi_dmul
 2574              	.LVL197:
 2575              		.loc 1 1271 61 view .LVU949
 2576 0610 DDE90A23 		ldrd	r2, [sp, #40]
 2577 0614 FFF7FEFF 		bl	__aeabi_dmul
 2578              	.LVL198:
1272:HANcoder_E407_TTA_CombineModel_V2.c ****         rtb_Integrator_tmp * rtb_Multiply)));
 2579              		.loc 1 1272 28 view .LVU950
 2580 0618 DDE90C23 		ldrd	r2, [sp, #48]
1271:HANcoder_E407_TTA_CombineModel_V2.c ****         rtConstB.signL0b_o) * 3.0 / (rtb_IntegralGain * 4.0 * rtb_Multiply1 +
 2581              		.loc 1 1271 61 view .LVU951
 2582 061c 0646     		mov	r6, r0
 2583 061e 0F46     		mov	r7, r1
 2584              		.loc 1 1272 28 view .LVU952
 2585 0620 DDE90801 		ldrd	r0, [sp, #32]
 2586 0624 FFF7FEFF 		bl	__aeabi_dmul
 2587              	.LVL199:
 2588 0628 0246     		mov	r2, r0
 2589 062a 0B46     		mov	r3, r1
1271:HANcoder_E407_TTA_CombineModel_V2.c ****         rtConstB.signL0b_o) * 3.0 / (rtb_IntegralGain * 4.0 * rtb_Multiply1 +
 2590              		.loc 1 1271 77 view .LVU953
 2591 062c 3046     		mov	r0, r6
 2592 062e 3946     		mov	r1, r7
 2593 0630 FFF7FEFF 		bl	__aeabi_dadd
 2594              	.LVL200:
 2595 0634 0246     		mov	r2, r0
 2596 0636 0B46     		mov	r3, r1
1271:HANcoder_E407_TTA_CombineModel_V2.c ****         rtConstB.signL0b_o) * 3.0 / (rtb_IntegralGain * 4.0 * rtb_Multiply1 +
 2597              		.loc 1 1271 35 view .LVU954
 2598 0638 4046     		mov	r0, r8
 2599 063a 4946     		mov	r1, r9
 2600 063c FFF7FEFF 		bl	__aeabi_ddiv
 2601              	.LVL201:
1269:HANcoder_E407_TTA_CombineModel_V2.c ****         (-1.0) + rtb_Integrator_tmp / 1.0 * 4.0 * rtb_IntegralGain) * (tmp_0 *
 2602              		.loc 1 1269 33 view .LVU955
 2603 0640 FFF7FEFF 		bl	__aeabi_d2f
 2604              	.LVL202:
1269:HANcoder_E407_TTA_CombineModel_V2.c ****         (-1.0) + rtb_Integrator_tmp / 1.0 * 4.0 * rtb_IntegralGain) * (tmp_0 *
 2605              		.loc 1 1269 28 view .LVU956
 2606 0644 FFF7FEFF 		bl	__aeabi_f2d
 2607              	.LVL203:
 2608 0648 FFF7FEFF 		bl	atan
 2609              	.LVL204:
1269:HANcoder_E407_TTA_CombineModel_V2.c ****         (-1.0) + rtb_Integrator_tmp / 1.0 * 4.0 * rtb_IntegralGain) * (tmp_0 *
 2610              		.loc 1 1269 18 view .LVU957
 2611 064c FFF7FEFF 		bl	__aeabi_d2f
 2612              	.LVL205:
1273:HANcoder_E407_TTA_CombineModel_V2.c **** 
1274:HANcoder_E407_TTA_CombineModel_V2.c ****       /* Gain: '<S59>/Gain2' incorporates:
1275:HANcoder_E407_TTA_CombineModel_V2.c ****        *  DataTypeConversion: '<S59>/Cast3'
1276:HANcoder_E407_TTA_CombineModel_V2.c ****        */
1277:HANcoder_E407_TTA_CombineModel_V2.c ****       steering = 45.6 * delta12K;
 2613              		.loc 1 1277 23 view .LVU958
 2614 0650 9FEDA17A 		vldr.32	s14, .L388+32
1269:HANcoder_E407_TTA_CombineModel_V2.c ****         (-1.0) + rtb_Integrator_tmp / 1.0 * 4.0 * rtb_IntegralGain) * (tmp_0 *
 2615              		.loc 1 1269 16 view .LVU959
 2616 0654 A14B     		ldr	r3, .L388+36
1269:HANcoder_E407_TTA_CombineModel_V2.c ****         (-1.0) + rtb_Integrator_tmp / 1.0 * 4.0 * rtb_IntegralGain) * (tmp_0 *
 2617              		.loc 1 1269 18 view .LVU960
 2618 0656 07EE900A 		vmov	s15, r0
 2619              		.loc 1 1277 23 view .LVU961
 2620 065a 67EE877A 		vmul.f32	s15, s15, s14
1269:HANcoder_E407_TTA_CombineModel_V2.c ****         (-1.0) + rtb_Integrator_tmp / 1.0 * 4.0 * rtb_IntegralGain) * (tmp_0 *
 2621              		.loc 1 1269 16 view .LVU962
 2622 065e 1860     		str	r0, [r3]	@ float
 2623              		.loc 1 1277 7 is_stmt 1 view .LVU963
 2624              		.loc 1 1277 23 is_stmt 0 view .LVU964
 2625 0660 17EE900A 		vmov	r0, s15
 2626 0664 FFF7FEFF 		bl	__aeabi_f2d
 2627              	.LVL206:
 2628              		.loc 1 1277 16 view .LVU965
 2629 0668 9D4B     		ldr	r3, .L388+40
 2630              		.loc 1 1277 23 view .LVU966
 2631 066a 8046     		mov	r8, r0
 2632 066c 8946     		mov	r9, r1
 2633              		.loc 1 1277 16 view .LVU967
 2634 066e C3E90089 		strd	r8, [r3]
1278:HANcoder_E407_TTA_CombineModel_V2.c **** 
1279:HANcoder_E407_TTA_CombineModel_V2.c ****       /* Gain: '<S59>/Gain1' incorporates:
1280:HANcoder_E407_TTA_CombineModel_V2.c ****        *  DataStoreRead: '<S59>/Data Store Read'
1281:HANcoder_E407_TTA_CombineModel_V2.c ****        */
1282:HANcoder_E407_TTA_CombineModel_V2.c ****       position = (real_T)1717986918 * 5.8207660913467407E-11 * (real_T)
 2635              		.loc 1 1282 7 is_stmt 1 view .LVU968
 2636              		.loc 1 1282 64 is_stmt 0 view .LVU969
 2637 0672 A06A     		ldr	r0, [r4, #40]
 2638 0674 FFF7FEFF 		bl	__aeabi_i2d
 2639              	.LVL207:
 2640              		.loc 1 1282 62 view .LVU970
 2641 0678 91A3     		adr	r3, .L388+8
 2642 067a D3E90023 		ldrd	r2, [r3]
 2643 067e FFF7FEFF 		bl	__aeabi_dmul
 2644              	.LVL208:
 2645              		.loc 1 1282 16 view .LVU971
 2646 0682 984B     		ldr	r3, .L388+44
 2647              		.loc 1 1282 62 view .LVU972
 2648 0684 0646     		mov	r6, r0
 2649 0686 0F46     		mov	r7, r1
1283:HANcoder_E407_TTA_CombineModel_V2.c ****         rtDWork.encoderPosition;
1284:HANcoder_E407_TTA_CombineModel_V2.c **** 
1285:HANcoder_E407_TTA_CombineModel_V2.c ****       /* Sum: '<S59>/Sum' incorporates:
1286:HANcoder_E407_TTA_CombineModel_V2.c ****        *  Rounding: '<S59>/Round'
1287:HANcoder_E407_TTA_CombineModel_V2.c ****        *  Rounding: '<S59>/Round1'
1288:HANcoder_E407_TTA_CombineModel_V2.c ****        */
1289:HANcoder_E407_TTA_CombineModel_V2.c ****       control = floor(steering) - floor(position);
 2650              		.loc 1 1289 17 view .LVU973
 2651 0688 4046     		mov	r0, r8
 2652 068a 4946     		mov	r1, r9
1282:HANcoder_E407_TTA_CombineModel_V2.c ****         rtDWork.encoderPosition;
 2653              		.loc 1 1282 16 view .LVU974
 2654 068c C3E90067 		strd	r6, [r3]
 2655              		.loc 1 1289 7 is_stmt 1 view .LVU975
 2656              		.loc 1 1289 17 is_stmt 0 view .LVU976
 2657 0690 FFF7FEFF 		bl	floor
 2658              	.LVL209:
 2659 0694 0246     		mov	r2, r0
 2660 0696 0B46     		mov	r3, r1
 2661              		.loc 1 1289 35 view .LVU977
 2662 0698 3046     		mov	r0, r6
 2663 069a 3946     		mov	r1, r7
 2664              		.loc 1 1289 17 view .LVU978
 2665 069c 1646     		mov	r6, r2
 2666 069e 1F46     		mov	r7, r3
 2667              		.loc 1 1289 35 view .LVU979
 2668 06a0 FFF7FEFF 		bl	floor
 2669              	.LVL210:
 2670 06a4 0246     		mov	r2, r0
 2671 06a6 0B46     		mov	r3, r1
 2672              		.loc 1 1289 33 view .LVU980
 2673 06a8 3046     		mov	r0, r6
 2674 06aa 3946     		mov	r1, r7
 2675 06ac FFF7FEFF 		bl	__aeabi_dsub
 2676              	.LVL211:
1290:HANcoder_E407_TTA_CombineModel_V2.c **** 
1291:HANcoder_E407_TTA_CombineModel_V2.c ****       /* Abs: '<S59>/Abs' */
1292:HANcoder_E407_TTA_CombineModel_V2.c ****       rtb_IntegralGain = fabs(control);
1293:HANcoder_E407_TTA_CombineModel_V2.c **** 
1294:HANcoder_E407_TTA_CombineModel_V2.c ****       /* Sum: '<S104>/Sum' incorporates:
1295:HANcoder_E407_TTA_CombineModel_V2.c ****        *  DiscreteIntegrator: '<S95>/Integrator'
1296:HANcoder_E407_TTA_CombineModel_V2.c ****        *  Gain: '<S100>/Proportional Gain'
1297:HANcoder_E407_TTA_CombineModel_V2.c ****        */
1298:HANcoder_E407_TTA_CombineModel_V2.c ****       rtb_Multiply1 = propVal * rtb_IntegralGain + rtDWork.Integrator_DSTATE;
 2677              		.loc 1 1298 59 view .LVU981
 2678 06b0 94ED007B 		vldr.64	d7, [r4]
1289:HANcoder_E407_TTA_CombineModel_V2.c **** 
 2679              		.loc 1 1289 15 view .LVU982
 2680 06b4 8C4A     		ldr	r2, .L388+48
 2681              		.loc 1 1298 31 view .LVU983
 2682 06b6 8D4B     		ldr	r3, .L388+52
1289:HANcoder_E407_TTA_CombineModel_V2.c **** 
 2683              		.loc 1 1289 33 view .LVU984
 2684 06b8 0646     		mov	r6, r0
 2685 06ba 0F46     		mov	r7, r1
1292:HANcoder_E407_TTA_CombineModel_V2.c **** 
 2686              		.loc 1 1292 24 view .LVU985
 2687 06bc 21F00049 		bic	r9, r1, #-2147483648
1289:HANcoder_E407_TTA_CombineModel_V2.c **** 
 2688              		.loc 1 1289 15 view .LVU986
 2689 06c0 C2E90067 		strd	r6, [r2]
1292:HANcoder_E407_TTA_CombineModel_V2.c **** 
 2690              		.loc 1 1292 7 is_stmt 1 view .LVU987
 2691              		.loc 1 1298 31 is_stmt 0 view .LVU988
 2692 06c4 4946     		mov	r1, r9
 2693 06c6 D3E90023 		ldrd	r2, [r3]
 2694              		.loc 1 1298 59 view .LVU989
 2695 06ca 8DED087B 		vstr.64	d7, [sp, #32]
1292:HANcoder_E407_TTA_CombineModel_V2.c **** 
 2696              		.loc 1 1292 24 view .LVU990
 2697 06ce 8046     		mov	r8, r0
 2698              	.LVL212:
 2699              		.loc 1 1298 7 is_stmt 1 view .LVU991
 2700              		.loc 1 1298 31 is_stmt 0 view .LVU992
 2701 06d0 FFF7FEFF 		bl	__aeabi_dmul
 2702              	.LVL213:
 2703              		.loc 1 1298 21 view .LVU993
 2704 06d4 DDE90823 		ldrd	r2, [sp, #32]
 2705 06d8 FFF7FEFF 		bl	__aeabi_dadd
 2706              	.LVL214:
1299:HANcoder_E407_TTA_CombineModel_V2.c **** 
1300:HANcoder_E407_TTA_CombineModel_V2.c ****       /* Saturate: '<S102>/Saturation' */
1301:HANcoder_E407_TTA_CombineModel_V2.c ****       if (rtb_Multiply1 > 300.0) {
 2707              		.loc 1 1301 7 is_stmt 1 view .LVU994
1298:HANcoder_E407_TTA_CombineModel_V2.c **** 
 2708              		.loc 1 1298 21 is_stmt 0 view .LVU995
 2709 06dc 0246     		mov	r2, r0
 2710 06de 0B46     		mov	r3, r1
 2711 06e0 CDE90623 		strd	r2, [sp, #24]
 2712              	.LVL215:
 2713              		.loc 1 1301 10 view .LVU996
 2714 06e4 78A3     		adr	r3, .L388+16
 2715 06e6 D3E90023 		ldrd	r2, [r3]
 2716 06ea FFF7FEFF 		bl	__aeabi_dcmpgt
 2717              	.LVL216:
 2718 06ee 0028     		cmp	r0, #0
 2719 06f0 40F03884 		bne	.L251
1302:HANcoder_E407_TTA_CombineModel_V2.c ****         tmp_0 = 300.0;
1303:HANcoder_E407_TTA_CombineModel_V2.c ****       } else if (rtb_Multiply1 < 0.0) {
 2720              		.loc 1 1303 14 is_stmt 1 view .LVU997
 2721              		.loc 1 1303 17 is_stmt 0 view .LVU998
 2722 06f4 DDE90601 		ldrd	r0, [sp, #24]
 2723 06f8 0022     		movs	r2, #0
 2724 06fa 0023     		movs	r3, #0
 2725 06fc FFF7FEFF 		bl	__aeabi_dcmplt
