   1              		.cpu cortex-m4
   2              		.arch armv7e-m
   3              		.fpu fpv4-sp-d16
   4              		.eabi_attribute 27, 1
   5              		.eabi_attribute 20, 1
   6              		.eabi_attribute 21, 1
   7              		.eabi_attribute 23, 3
   8              		.eabi_attribute 24, 1
   9              		.eabi_attribute 25, 1
  10              		.eabi_attribute 26, 1
  11              		.eabi_attribute 30, 2
  12              		.eabi_attribute 34, 1
  13              		.eabi_attribute 18, 4
  14              		.file	"HANcoder_E407_TTA_CombineModel_V2.c"
  15              		.text
  16              	.Ltext0:
  17              		.cfi_sections	.debug_frame
  18              		.file 1 "HANcoder_E407_TTA_CombineModel_V2.c"
  19              		.section	.text.PwmoutIRQ_PWMOUT_MODULE_TIM14,"ax",%progbits
  20              		.align	1
  21              		.p2align 2,,3
  22              		.global	PwmoutIRQ_PWMOUT_MODULE_TIM14
  23              		.syntax unified
  24              		.thumb
  25              		.thumb_func
  27              	PwmoutIRQ_PWMOUT_MODULE_TIM14:
  28              	.LFB114:
   1:HANcoder_E407_TTA_CombineModel_V2.c **** /*
   2:HANcoder_E407_TTA_CombineModel_V2.c ****  * Academic License - for use in teaching, academic research, and meeting
   3:HANcoder_E407_TTA_CombineModel_V2.c ****  * course requirements at degree granting institutions only.  Not for
   4:HANcoder_E407_TTA_CombineModel_V2.c ****  * government, commercial, or other organizational use.
   5:HANcoder_E407_TTA_CombineModel_V2.c ****  *
   6:HANcoder_E407_TTA_CombineModel_V2.c ****  * File: HANcoder_E407_TTA_CombineModel_V2.c
   7:HANcoder_E407_TTA_CombineModel_V2.c ****  *
   8:HANcoder_E407_TTA_CombineModel_V2.c ****  * Code generated for Simulink model 'HANcoder_E407_TTA_CombineModel_V2'.
   9:HANcoder_E407_TTA_CombineModel_V2.c ****  *
  10:HANcoder_E407_TTA_CombineModel_V2.c ****  * Model version                  : 18.12
  11:HANcoder_E407_TTA_CombineModel_V2.c ****  * Simulink Coder version         : 9.9 (R2023a) 19-Nov-2022
  12:HANcoder_E407_TTA_CombineModel_V2.c ****  * C/C++ source code generated on : Fri Jun  9 15:34:05 2023
  13:HANcoder_E407_TTA_CombineModel_V2.c ****  *
  14:HANcoder_E407_TTA_CombineModel_V2.c ****  * Target selection: ert.tlc
  15:HANcoder_E407_TTA_CombineModel_V2.c ****  * Embedded hardware selection: ARM Compatible->ARM Cortex
  16:HANcoder_E407_TTA_CombineModel_V2.c ****  * Code generation objectives: Unspecified
  17:HANcoder_E407_TTA_CombineModel_V2.c ****  * Validation result: Not run
  18:HANcoder_E407_TTA_CombineModel_V2.c ****  */
  19:HANcoder_E407_TTA_CombineModel_V2.c **** 
  20:HANcoder_E407_TTA_CombineModel_V2.c **** #include "HANcoder_E407_TTA_CombineModel_V2.h"
  21:HANcoder_E407_TTA_CombineModel_V2.c **** #include "rtwtypes.h"
  22:HANcoder_E407_TTA_CombineModel_V2.c **** #include "HANcoder_E407_TTA_CombineModel_V2_types.h"
  23:HANcoder_E407_TTA_CombineModel_V2.c **** #include "HANcoder_E407_TTA_CombineModel_V2_private.h"
  24:HANcoder_E407_TTA_CombineModel_V2.c **** #include <math.h>
  25:HANcoder_E407_TTA_CombineModel_V2.c **** #include "zero_crossing_types.h"
  26:HANcoder_E407_TTA_CombineModel_V2.c **** 
  27:HANcoder_E407_TTA_CombineModel_V2.c **** /* map ByteSwap function */
  28:HANcoder_E407_TTA_CombineModel_V2.c **** #define ByteSwap(x)                    (ByteSwap_x((uint8_t *) &x, sizeof(x)))
  29:HANcoder_E407_TTA_CombineModel_V2.c **** 
  30:HANcoder_E407_TTA_CombineModel_V2.c **** void PwmoutIRQ_PWMOUT_MODULE_TIM14(void);
  31:HANcoder_E407_TTA_CombineModel_V2.c **** void TimeoutEventIRQ_TIMEOUT_TIM4_PIN_PD12(void);
  32:HANcoder_E407_TTA_CombineModel_V2.c **** void TimeoutOverflowIRQ_TIMEOUT_MODULE_TIM4(void);
  33:HANcoder_E407_TTA_CombineModel_V2.c **** 
  34:HANcoder_E407_TTA_CombineModel_V2.c **** /* Exported block signals */
  35:HANcoder_E407_TTA_CombineModel_V2.c **** real_T reqAngle;                       /* '<S26>/Data Store Read' */
  36:HANcoder_E407_TTA_CombineModel_V2.c **** real_T Gamma1;                         /* '<S60>/Sum1' */
  37:HANcoder_E407_TTA_CombineModel_V2.c **** real_T steering;                       /* '<S59>/Gain2' */
  38:HANcoder_E407_TTA_CombineModel_V2.c **** real_T position;                       /* '<S59>/Gain1' */
  39:HANcoder_E407_TTA_CombineModel_V2.c **** real_T control;                        /* '<S59>/Sum' */
  40:HANcoder_E407_TTA_CombineModel_V2.c **** uint32_T SI_FreeHeap;                  /* '<S178>/Level-2 M-file S-Function' */
  41:HANcoder_E407_TTA_CombineModel_V2.c **** uint32_T SI_FreeStack;                 /* '<S179>/Level-2 M-file S-Function' */
  42:HANcoder_E407_TTA_CombineModel_V2.c **** real32_T delta12K;                     /* '<S115>/tan 1' */
  43:HANcoder_E407_TTA_CombineModel_V2.c **** uint16_T t2Angle;                      /* '<S26>/Data Store Read2' */
  44:HANcoder_E407_TTA_CombineModel_V2.c **** uint16_T t1Angle;                      /* '<S26>/Data Store Read1' */
  45:HANcoder_E407_TTA_CombineModel_V2.c **** uint16_T Gamma2;                       /* '<S60>/Sum2' */
  46:HANcoder_E407_TTA_CombineModel_V2.c **** uint16_T mospeed;                      /* '<S59>/Add' */
  47:HANcoder_E407_TTA_CombineModel_V2.c **** uint16_T analogPot1;                   /* '<S51>/Level-2 M-file S-Function' */
  48:HANcoder_E407_TTA_CombineModel_V2.c **** uint16_T pot1;                         /* '<S47>/Cast1' */
  49:HANcoder_E407_TTA_CombineModel_V2.c **** uint16_T analogPot2;                   /* '<S52>/Level-2 M-file S-Function' */
  50:HANcoder_E407_TTA_CombineModel_V2.c **** uint16_T pot2;                         /* '<S47>/Cast2' */
  51:HANcoder_E407_TTA_CombineModel_V2.c **** uint16_T testCounter;                  /* '<S24>/Data Store Read1' */
  52:HANcoder_E407_TTA_CombineModel_V2.c **** uint8_T SI_CPUload;                    /* '<S177>/Level-2 M-file S-Function' */
  53:HANcoder_E407_TTA_CombineModel_V2.c **** uint8_T buttonpress2;                  /* '<S161>/In6' */
  54:HANcoder_E407_TTA_CombineModel_V2.c **** uint8_T buttonpress1;                  /* '<S149>/In6' */
  55:HANcoder_E407_TTA_CombineModel_V2.c **** uint8_T amounttrailers;                /* '<S13>/Add' */
  56:HANcoder_E407_TTA_CombineModel_V2.c **** uint8_T positionID5;                   /* '<S13>/Cast3' */
  57:HANcoder_E407_TTA_CombineModel_V2.c **** uint8_T positionID4;                   /* '<S13>/Cast2' */
  58:HANcoder_E407_TTA_CombineModel_V2.c **** uint8_T local_ticks_interrupt;         /* '<S7>/Switch' */
  59:HANcoder_E407_TTA_CombineModel_V2.c **** uint8_T setSlotTime;                   /* '<S7>/Data Store Read3' */
  60:HANcoder_E407_TTA_CombineModel_V2.c **** uint8_T slotSelected;                  /* '<S16>/Switch' */
  61:HANcoder_E407_TTA_CombineModel_V2.c **** boolean_T masterID;                    /* '<S1>/Equal' */
  62:HANcoder_E407_TTA_CombineModel_V2.c **** boolean_T boolCan;                     /* '<S8>/AND' */
  63:HANcoder_E407_TTA_CombineModel_V2.c **** boolean_T cw;                          /* '<S59>/Cast1' */
  64:HANcoder_E407_TTA_CombineModel_V2.c **** boolean_T ccw;                         /* '<S59>/NOT' */
  65:HANcoder_E407_TTA_CombineModel_V2.c **** boolean_T canActive;                   /* '<S7>/Clock_State' */
  66:HANcoder_E407_TTA_CombineModel_V2.c **** 
  67:HANcoder_E407_TTA_CombineModel_V2.c **** /* Exported block parameters */
  68:HANcoder_E407_TTA_CombineModel_V2.c **** real_T ClockOn = 0.0;                  /* Variable: ClockOn
  69:HANcoder_E407_TTA_CombineModel_V2.c ****                                         * Referenced by: '<S10>/Constant'
  70:HANcoder_E407_TTA_CombineModel_V2.c ****                                         */
  71:HANcoder_E407_TTA_CombineModel_V2.c **** real_T ResetPosition = 0.0;            /* Variable: ResetPosition
  72:HANcoder_E407_TTA_CombineModel_V2.c ****                                         * Referenced by: '<S181>/Constant'
  73:HANcoder_E407_TTA_CombineModel_V2.c ****                                         */
  74:HANcoder_E407_TTA_CombineModel_V2.c **** real_T controlWidth = 3.0;             /* Variable: controlWidth
  75:HANcoder_E407_TTA_CombineModel_V2.c ****                                         * Referenced by: '<S59>/Constant'
  76:HANcoder_E407_TTA_CombineModel_V2.c ****                                         */
  77:HANcoder_E407_TTA_CombineModel_V2.c **** real_T desiredAngle = 0.0;             /* Variable: desiredAngle
  78:HANcoder_E407_TTA_CombineModel_V2.c ****                                         * Referenced by: '<S47>/Constant2'
  79:HANcoder_E407_TTA_CombineModel_V2.c ****                                         */
  80:HANcoder_E407_TTA_CombineModel_V2.c **** real_T intVal = 0.15;                  /* Variable: intVal
  81:HANcoder_E407_TTA_CombineModel_V2.c ****                                         * Referenced by: '<S92>/Integral Gain'
  82:HANcoder_E407_TTA_CombineModel_V2.c ****                                         */
  83:HANcoder_E407_TTA_CombineModel_V2.c **** real_T matrixRows = 10.0;              /* Variable: matrixRows
  84:HANcoder_E407_TTA_CombineModel_V2.c ****                                         * Referenced by: '<S16>/Constant1'
  85:HANcoder_E407_TTA_CombineModel_V2.c ****                                         */
  86:HANcoder_E407_TTA_CombineModel_V2.c **** real_T propVal = 1.0;                  /* Variable: propVal
  87:HANcoder_E407_TTA_CombineModel_V2.c ****                                         * Referenced by: '<S100>/Proportional Gain'
  88:HANcoder_E407_TTA_CombineModel_V2.c ****                                         */
  89:HANcoder_E407_TTA_CombineModel_V2.c **** uint32_T MMBS1_ID = 12U;               /* Variable: MMBS1_ID
  90:HANcoder_E407_TTA_CombineModel_V2.c ****                                         * Referenced by: '<S8>/Constant12'
  91:HANcoder_E407_TTA_CombineModel_V2.c ****                                         */
  92:HANcoder_E407_TTA_CombineModel_V2.c **** uint32_T SSTM1_ID = 13U;               /* Variable: SSTM1_ID
  93:HANcoder_E407_TTA_CombineModel_V2.c ****                                         * Referenced by: '<S8>/Constant14'
  94:HANcoder_E407_TTA_CombineModel_V2.c ****                                         */
  95:HANcoder_E407_TTA_CombineModel_V2.c **** uint32_T SYNC1_ID = 11U;               /* Variable: SYNC1_ID
  96:HANcoder_E407_TTA_CombineModel_V2.c ****                                         * Referenced by:
  97:HANcoder_E407_TTA_CombineModel_V2.c ****                                         *   '<S8>/Constant10'
  98:HANcoder_E407_TTA_CombineModel_V2.c ****                                         *   '<S170>/Constant10'
  99:HANcoder_E407_TTA_CombineModel_V2.c ****                                         */
 100:HANcoder_E407_TTA_CombineModel_V2.c **** uint32_T TRCK1_ID1 = 14U;              /* Variable: TRCK1_ID1
 101:HANcoder_E407_TTA_CombineModel_V2.c ****                                         * Referenced by: '<S8>/Constant3'
 102:HANcoder_E407_TTA_CombineModel_V2.c ****                                         */
 103:HANcoder_E407_TTA_CombineModel_V2.c **** uint32_T TRCK1_ID2 = 26U;              /* Variable: TRCK1_ID2
 104:HANcoder_E407_TTA_CombineModel_V2.c ****                                         * Referenced by: '<S8>/Constant5'
 105:HANcoder_E407_TTA_CombineModel_V2.c ****                                         */
 106:HANcoder_E407_TTA_CombineModel_V2.c **** uint32_T TRCK1_ID3 = 37U;              /* Variable: TRCK1_ID3
 107:HANcoder_E407_TTA_CombineModel_V2.c ****                                         * Referenced by: '<S8>/Constant26'
 108:HANcoder_E407_TTA_CombineModel_V2.c ****                                         */
 109:HANcoder_E407_TTA_CombineModel_V2.c **** uint32_T TRLS1_ID4 = 48U;              /* Variable: TRLS1_ID4
 110:HANcoder_E407_TTA_CombineModel_V2.c ****                                         * Referenced by: '<S8>/Constant8'
 111:HANcoder_E407_TTA_CombineModel_V2.c ****                                         */
 112:HANcoder_E407_TTA_CombineModel_V2.c **** uint32_T TRLS1_ID5 = 59U;              /* Variable: TRLS1_ID5
 113:HANcoder_E407_TTA_CombineModel_V2.c ****                                         * Referenced by: '<S8>/Constant18'
 114:HANcoder_E407_TTA_CombineModel_V2.c ****                                         */
 115:HANcoder_E407_TTA_CombineModel_V2.c **** uint8_T slotTime = 50U;                /* Variable: slotTime
 116:HANcoder_E407_TTA_CombineModel_V2.c ****                                         * Referenced by: '<S169>/Constant3'
 117:HANcoder_E407_TTA_CombineModel_V2.c ****                                         */
 118:HANcoder_E407_TTA_CombineModel_V2.c **** 
 119:HANcoder_E407_TTA_CombineModel_V2.c **** /* Block signals (default storage) */
 120:HANcoder_E407_TTA_CombineModel_V2.c **** BlockIO rtB;
 121:HANcoder_E407_TTA_CombineModel_V2.c **** 
 122:HANcoder_E407_TTA_CombineModel_V2.c **** /* Block states (default storage) */
 123:HANcoder_E407_TTA_CombineModel_V2.c **** D_Work rtDWork;
 124:HANcoder_E407_TTA_CombineModel_V2.c **** 
 125:HANcoder_E407_TTA_CombineModel_V2.c **** /* Previous zero-crossings (trigger) states */
 126:HANcoder_E407_TTA_CombineModel_V2.c **** PrevZCSigStates rtPrevZCSigState;
 127:HANcoder_E407_TTA_CombineModel_V2.c **** 
 128:HANcoder_E407_TTA_CombineModel_V2.c **** /* Forward declaration for local functions */
 129:HANcoder_E407_TTA_CombineModel_V2.c **** static void SystemCore_setup(dsp_simulink_MovingAverage *obj);
 130:HANcoder_E407_TTA_CombineModel_V2.c **** static tCanDataTypes canRxData_0_rtu_In1;
 131:HANcoder_E407_TTA_CombineModel_V2.c **** static tCanDataTypes canTxData;
 132:HANcoder_E407_TTA_CombineModel_V2.c **** static tCanDataTypes canRxData_0_SYNC1_ID;
 133:HANcoder_E407_TTA_CombineModel_V2.c **** static tCanDataTypes canRxData_0_TRCK1_ID3;
 134:HANcoder_E407_TTA_CombineModel_V2.c **** static tCanDataTypes canRxData_0_TRLS1_ID4;
 135:HANcoder_E407_TTA_CombineModel_V2.c **** static tCanDataTypes canRxData_0_TRLS1_ID5;
 136:HANcoder_E407_TTA_CombineModel_V2.c **** static tCanDataTypes canRxData_0_SYNC1_ID;
 137:HANcoder_E407_TTA_CombineModel_V2.c **** 
 138:HANcoder_E407_TTA_CombineModel_V2.c **** /*
 139:HANcoder_E407_TTA_CombineModel_V2.c ****  * Swaps the values of two bytes.
 140:HANcoder_E407_TTA_CombineModel_V2.c ****  * a, b pointers to data values that need swapping
 141:HANcoder_E407_TTA_CombineModel_V2.c ****  */
 142:HANcoder_E407_TTA_CombineModel_V2.c **** static void swap(unsigned char *a, unsigned char *b)
 143:HANcoder_E407_TTA_CombineModel_V2.c **** {
 144:HANcoder_E407_TTA_CombineModel_V2.c ****   register char i = *a;
 145:HANcoder_E407_TTA_CombineModel_V2.c ****   *a = *b;
 146:HANcoder_E407_TTA_CombineModel_V2.c ****   *b = i;
 147:HANcoder_E407_TTA_CombineModel_V2.c **** }                                      /*** end of swap ***/
 148:HANcoder_E407_TTA_CombineModel_V2.c **** 
 149:HANcoder_E407_TTA_CombineModel_V2.c **** /*
 150:HANcoder_E407_TTA_CombineModel_V2.c ****  * Swaps all bytes in b. Typically used to fix endianes.
 151:HANcoder_E407_TTA_CombineModel_V2.c ****  * b pointer to data with bytes to swap
 152:HANcoder_E407_TTA_CombineModel_V2.c ****  * n number of bytes to swap
 153:HANcoder_E407_TTA_CombineModel_V2.c ****  */
 154:HANcoder_E407_TTA_CombineModel_V2.c **** void ByteSwap_x(uint8_t *b, size_t n)
 155:HANcoder_E407_TTA_CombineModel_V2.c **** {
 156:HANcoder_E407_TTA_CombineModel_V2.c ****   int i = 0;
 157:HANcoder_E407_TTA_CombineModel_V2.c ****   int j = n-1;
 158:HANcoder_E407_TTA_CombineModel_V2.c ****   while (i<j) {
 159:HANcoder_E407_TTA_CombineModel_V2.c ****     swap(&b[i], &b[j]);
 160:HANcoder_E407_TTA_CombineModel_V2.c ****     i++, j--;
 161:HANcoder_E407_TTA_CombineModel_V2.c ****   }
 162:HANcoder_E407_TTA_CombineModel_V2.c **** }
 163:HANcoder_E407_TTA_CombineModel_V2.c **** 
 164:HANcoder_E407_TTA_CombineModel_V2.c **** void TimeoutEventIRQ_TIMEOUT_TIM4_PIN_PD12(void)
 165:HANcoder_E407_TTA_CombineModel_V2.c **** {
 166:HANcoder_E407_TTA_CombineModel_V2.c ****   /* Output and update for function-call system: '<S1>/Local Time generation' */
 167:HANcoder_E407_TTA_CombineModel_V2.c ****   {
 168:HANcoder_E407_TTA_CombineModel_V2.c ****     /* local block i/o variables */
 169:HANcoder_E407_TTA_CombineModel_V2.c ****     uint16_T rtb_Level2MfileSFunction;
 170:HANcoder_E407_TTA_CombineModel_V2.c ****     boolean_T rtb_Equal;
 171:HANcoder_E407_TTA_CombineModel_V2.c **** 
 172:HANcoder_E407_TTA_CombineModel_V2.c ****     /* SignalConversion generated from: '<S7>/Clock_State' */
 173:HANcoder_E407_TTA_CombineModel_V2.c ****     canActive = rtB.OR;
 174:HANcoder_E407_TTA_CombineModel_V2.c **** 
 175:HANcoder_E407_TTA_CombineModel_V2.c ****     /* Switch: '<S7>/Switch' */
 176:HANcoder_E407_TTA_CombineModel_V2.c ****     if (canActive) {
 177:HANcoder_E407_TTA_CombineModel_V2.c ****       /* Switch: '<S7>/Switch' incorporates:
 178:HANcoder_E407_TTA_CombineModel_V2.c ****        *  Constant: '<S7>/Constant2'
 179:HANcoder_E407_TTA_CombineModel_V2.c ****        *  DataStoreRead: '<S7>/Data Store Read'
 180:HANcoder_E407_TTA_CombineModel_V2.c ****        *  Sum: '<S7>/Sum1'
 181:HANcoder_E407_TTA_CombineModel_V2.c ****        */
 182:HANcoder_E407_TTA_CombineModel_V2.c ****       local_ticks_interrupt = (uint8_T)((uint32_T)rtDWork.Local_Ticks +
 183:HANcoder_E407_TTA_CombineModel_V2.c ****         ((uint8_T)1U));
 184:HANcoder_E407_TTA_CombineModel_V2.c ****     } else {
 185:HANcoder_E407_TTA_CombineModel_V2.c ****       /* Switch: '<S7>/Switch' incorporates:
 186:HANcoder_E407_TTA_CombineModel_V2.c ****        *  DataStoreRead: '<S7>/Data Store Read1'
 187:HANcoder_E407_TTA_CombineModel_V2.c ****        */
 188:HANcoder_E407_TTA_CombineModel_V2.c ****       local_ticks_interrupt = rtDWork.Local_Ticks;
 189:HANcoder_E407_TTA_CombineModel_V2.c ****     }
 190:HANcoder_E407_TTA_CombineModel_V2.c **** 
 191:HANcoder_E407_TTA_CombineModel_V2.c ****     /* End of Switch: '<S7>/Switch' */
 192:HANcoder_E407_TTA_CombineModel_V2.c **** 
 193:HANcoder_E407_TTA_CombineModel_V2.c ****     /* DataStoreWrite: '<S7>/Data Store Write' */
 194:HANcoder_E407_TTA_CombineModel_V2.c ****     rtDWork.Local_Ticks = local_ticks_interrupt;
 195:HANcoder_E407_TTA_CombineModel_V2.c **** 
 196:HANcoder_E407_TTA_CombineModel_V2.c ****     /* DataStoreRead: '<S7>/Data Store Read3' */
 197:HANcoder_E407_TTA_CombineModel_V2.c ****     setSlotTime = rtDWork.SlotTime;
 198:HANcoder_E407_TTA_CombineModel_V2.c **** 
 199:HANcoder_E407_TTA_CombineModel_V2.c ****     /* M-S-Function: '<S17>/Level-2 M-file S-Function' incorporates:
 200:HANcoder_E407_TTA_CombineModel_V2.c ****      *  DataTypeConversion: '<S7>/Cast'
 201:HANcoder_E407_TTA_CombineModel_V2.c ****      */
 202:HANcoder_E407_TTA_CombineModel_V2.c ****     rtb_Level2MfileSFunction = setSlotTime;
 203:HANcoder_E407_TTA_CombineModel_V2.c **** 
 204:HANcoder_E407_TTA_CombineModel_V2.c ****     /* RelationalOperator: '<S7>/Equal' incorporates:
 205:HANcoder_E407_TTA_CombineModel_V2.c ****      *  DataStoreRead: '<S7>/Data Store Read2'
 206:HANcoder_E407_TTA_CombineModel_V2.c ****      */
 207:HANcoder_E407_TTA_CombineModel_V2.c ****     rtb_Equal = (rtDWork.Local_Ticks >= rtb_Level2MfileSFunction);
 208:HANcoder_E407_TTA_CombineModel_V2.c **** 
 209:HANcoder_E407_TTA_CombineModel_V2.c ****     /* Outputs for Triggered SubSystem: '<S7>/Enabled Subsystem' incorporates:
 210:HANcoder_E407_TTA_CombineModel_V2.c ****      *  TriggerPort: '<S16>/Trigger'
 211:HANcoder_E407_TTA_CombineModel_V2.c ****      */
 212:HANcoder_E407_TTA_CombineModel_V2.c ****     if (rtb_Equal && (rtPrevZCSigState.EnabledSubsystem_Trig_ZCE != POS_ZCSIG))
 213:HANcoder_E407_TTA_CombineModel_V2.c ****     {
 214:HANcoder_E407_TTA_CombineModel_V2.c ****       /* Switch: '<S16>/Switch' incorporates:
 215:HANcoder_E407_TTA_CombineModel_V2.c ****        *  Constant: '<S16>/Constant1'
 216:HANcoder_E407_TTA_CombineModel_V2.c ****        *  DataStoreRead: '<S16>/Data Store Read1'
 217:HANcoder_E407_TTA_CombineModel_V2.c ****        *  DataTypeConversion: '<S16>/Cast'
 218:HANcoder_E407_TTA_CombineModel_V2.c ****        *  RelationalOperator: '<S16>/Equal'
 219:HANcoder_E407_TTA_CombineModel_V2.c ****        */
 220:HANcoder_E407_TTA_CombineModel_V2.c ****       if (rtDWork.slot < (uint8_T)matrixRows) {
 221:HANcoder_E407_TTA_CombineModel_V2.c ****         /* Switch: '<S16>/Switch' incorporates:
 222:HANcoder_E407_TTA_CombineModel_V2.c ****          *  Constant: '<S16>/Constant'
 223:HANcoder_E407_TTA_CombineModel_V2.c ****          *  DataStoreRead: '<S16>/Data Store Read'
 224:HANcoder_E407_TTA_CombineModel_V2.c ****          *  Sum: '<S16>/Plus'
 225:HANcoder_E407_TTA_CombineModel_V2.c ****          */
 226:HANcoder_E407_TTA_CombineModel_V2.c ****         slotSelected = (uint8_T)((uint32_T)rtDWork.slot + ((uint8_T)1U));
 227:HANcoder_E407_TTA_CombineModel_V2.c ****       } else {
 228:HANcoder_E407_TTA_CombineModel_V2.c ****         /* Switch: '<S16>/Switch' incorporates:
 229:HANcoder_E407_TTA_CombineModel_V2.c ****          *  Constant: '<S16>/Constant2'
 230:HANcoder_E407_TTA_CombineModel_V2.c ****          */
 231:HANcoder_E407_TTA_CombineModel_V2.c ****         slotSelected = (uint8_T)1.0;
 232:HANcoder_E407_TTA_CombineModel_V2.c ****       }
 233:HANcoder_E407_TTA_CombineModel_V2.c **** 
 234:HANcoder_E407_TTA_CombineModel_V2.c ****       /* End of Switch: '<S16>/Switch' */
 235:HANcoder_E407_TTA_CombineModel_V2.c **** 
 236:HANcoder_E407_TTA_CombineModel_V2.c ****       /* DataStoreWrite: '<S16>/Data Store Write' */
 237:HANcoder_E407_TTA_CombineModel_V2.c ****       rtDWork.slot = slotSelected;
 238:HANcoder_E407_TTA_CombineModel_V2.c **** 
 239:HANcoder_E407_TTA_CombineModel_V2.c ****       /* DataStoreWrite: '<S16>/Data Store Write1' incorporates:
 240:HANcoder_E407_TTA_CombineModel_V2.c ****        *  Constant: '<S16>/Constant3'
 241:HANcoder_E407_TTA_CombineModel_V2.c ****        */
 242:HANcoder_E407_TTA_CombineModel_V2.c ****       rtDWork.Local_Ticks = ((uint8_T)0U);
 243:HANcoder_E407_TTA_CombineModel_V2.c ****     }
 244:HANcoder_E407_TTA_CombineModel_V2.c **** 
 245:HANcoder_E407_TTA_CombineModel_V2.c ****     rtPrevZCSigState.EnabledSubsystem_Trig_ZCE = rtb_Equal;
 246:HANcoder_E407_TTA_CombineModel_V2.c **** 
 247:HANcoder_E407_TTA_CombineModel_V2.c ****     /* End of Outputs for SubSystem: '<S7>/Enabled Subsystem' */
 248:HANcoder_E407_TTA_CombineModel_V2.c ****     /* M-S-Function: '<S17>/Level-2 M-file S-Function' */
 249:HANcoder_E407_TTA_CombineModel_V2.c ****     /* read 16-bit free running counter timestamp of the last output compare event */
 250:HANcoder_E407_TTA_CombineModel_V2.c ****     rtb_Level2MfileSFunction = TimeoutGetLastEventCounter(TIMEOUT_TIM4_PIN_PD12);
 251:HANcoder_E407_TTA_CombineModel_V2.c **** 
 252:HANcoder_E407_TTA_CombineModel_V2.c ****     /* Sum: '<S7>/Sum' incorporates:
 253:HANcoder_E407_TTA_CombineModel_V2.c ****      *  Constant: '<S7>/Constant'
 254:HANcoder_E407_TTA_CombineModel_V2.c ****      */
 255:HANcoder_E407_TTA_CombineModel_V2.c ****     rtB.Sum = (uint16_T)((uint32_T)rtb_Level2MfileSFunction + ((uint16_T)1000U));
 256:HANcoder_E407_TTA_CombineModel_V2.c **** 
 257:HANcoder_E407_TTA_CombineModel_V2.c ****     /* Update for M-S-Function: '<S18>/Level-2 M-file S-Function' incorporates:
 258:HANcoder_E407_TTA_CombineModel_V2.c ****      *  Constant: '<S7>/Constant1'
 259:HANcoder_E407_TTA_CombineModel_V2.c ****      */
 260:HANcoder_E407_TTA_CombineModel_V2.c ****     /* schedule the next output compare event */
 261:HANcoder_E407_TTA_CombineModel_V2.c ****     TimeoutScheduleCompareEvent(TIMEOUT_TIM4_PIN_PD12, rtB.Sum, (tTimeoutAction)
 262:HANcoder_E407_TTA_CombineModel_V2.c ****       ((uint8_T)3U));
 263:HANcoder_E407_TTA_CombineModel_V2.c ****   }
 264:HANcoder_E407_TTA_CombineModel_V2.c **** }
 265:HANcoder_E407_TTA_CombineModel_V2.c **** 
 266:HANcoder_E407_TTA_CombineModel_V2.c **** void PwmoutIRQ_PWMOUT_MODULE_TIM14(void)
 267:HANcoder_E407_TTA_CombineModel_V2.c **** {
  29              		.loc 1 267 1 view -0
  30              		.cfi_startproc
  31              		@ args = 0, pretend = 0, frame = 0
  32              		@ frame_needed = 0, uses_anonymous_args = 0
  33              		@ link register save eliminated.
 268:HANcoder_E407_TTA_CombineModel_V2.c **** }
  34              		.loc 1 268 1 view .LVU1
  35 0000 7047     		bx	lr
  36              		.cfi_endproc
  37              	.LFE114:
  39              		.global	__aeabi_d2uiz
  40 0002 00BF     		.section	.text.TimeoutEventIRQ_TIMEOUT_TIM4_PIN_PD12,"ax",%progbits
  41              		.align	1
  42              		.p2align 2,,3
  43              		.global	TimeoutEventIRQ_TIMEOUT_TIM4_PIN_PD12
  44              		.syntax unified
  45              		.thumb
  46              		.thumb_func
  48              	TimeoutEventIRQ_TIMEOUT_TIM4_PIN_PD12:
  49              	.LFB113:
 165:HANcoder_E407_TTA_CombineModel_V2.c ****   /* Output and update for function-call system: '<S1>/Local Time generation' */
  50              		.loc 1 165 1 view -0
  51              		.cfi_startproc
  52              		@ args = 0, pretend = 0, frame = 0
  53              		@ frame_needed = 0, uses_anonymous_args = 0
  54              	.LBB61:
 169:HANcoder_E407_TTA_CombineModel_V2.c ****     boolean_T rtb_Equal;
  55              		.loc 1 169 5 view .LVU3
 170:HANcoder_E407_TTA_CombineModel_V2.c **** 
  56              		.loc 1 170 5 view .LVU4
 173:HANcoder_E407_TTA_CombineModel_V2.c **** 
  57              		.loc 1 173 5 view .LVU5
  58              	.LBE61:
 165:HANcoder_E407_TTA_CombineModel_V2.c ****   /* Output and update for function-call system: '<S1>/Local Time generation' */
  59              		.loc 1 165 1 is_stmt 0 view .LVU6
  60 0000 2DE9F041 		push	{r4, r5, r6, r7, r8, lr}
  61              		.cfi_def_cfa_offset 24
  62              		.cfi_offset 4, -24
  63              		.cfi_offset 5, -20
  64              		.cfi_offset 6, -16
  65              		.cfi_offset 7, -12
  66              		.cfi_offset 8, -8
  67              		.cfi_offset 14, -4
  68              	.LBB62:
 173:HANcoder_E407_TTA_CombineModel_V2.c **** 
  69              		.loc 1 173 20 view .LVU7
  70 0004 224D     		ldr	r5, .L15
 173:HANcoder_E407_TTA_CombineModel_V2.c **** 
  71              		.loc 1 173 15 view .LVU8
  72 0006 234A     		ldr	r2, .L15+4
 173:HANcoder_E407_TTA_CombineModel_V2.c **** 
  73              		.loc 1 173 20 view .LVU9
  74 0008 95F82330 		ldrb	r3, [r5, #35]	@ zero_extendqisi2
 182:HANcoder_E407_TTA_CombineModel_V2.c ****         ((uint8_T)1U));
  75              		.loc 1 182 58 view .LVU10
  76 000c 224C     		ldr	r4, .L15+8
 173:HANcoder_E407_TTA_CombineModel_V2.c **** 
  77              		.loc 1 173 15 view .LVU11
  78 000e 1370     		strb	r3, [r2]
 176:HANcoder_E407_TTA_CombineModel_V2.c ****       /* Switch: '<S7>/Switch' incorporates:
  79              		.loc 1 176 5 is_stmt 1 view .LVU12
 176:HANcoder_E407_TTA_CombineModel_V2.c ****       /* Switch: '<S7>/Switch' incorporates:
  80              		.loc 1 176 8 is_stmt 0 view .LVU13
  81 0010 002B     		cmp	r3, #0
  82 0012 3AD0     		beq	.L4
 182:HANcoder_E407_TTA_CombineModel_V2.c ****         ((uint8_T)1U));
  83              		.loc 1 182 7 is_stmt 1 view .LVU14
 182:HANcoder_E407_TTA_CombineModel_V2.c ****         ((uint8_T)1U));
  84              		.loc 1 182 31 is_stmt 0 view .LVU15
  85 0014 94F83A30 		ldrb	r3, [r4, #58]	@ zero_extendqisi2
  86 0018 0133     		adds	r3, r3, #1
  87 001a DBB2     		uxtb	r3, r3
  88              	.L5:
  89 001c 1F49     		ldr	r1, .L15+12
 197:HANcoder_E407_TTA_CombineModel_V2.c **** 
  90              		.loc 1 197 26 view .LVU16
  91 001e 94F84120 		ldrb	r2, [r4, #65]	@ zero_extendqisi2
  92 0022 0B70     		strb	r3, [r1]
 194:HANcoder_E407_TTA_CombineModel_V2.c **** 
  93              		.loc 1 194 5 is_stmt 1 view .LVU17
 197:HANcoder_E407_TTA_CombineModel_V2.c **** 
  94              		.loc 1 197 17 is_stmt 0 view .LVU18
  95 0024 1E49     		ldr	r1, .L15+16
 212:HANcoder_E407_TTA_CombineModel_V2.c ****     {
  96              		.loc 1 212 39 view .LVU19
  97 0026 1F4E     		ldr	r6, .L15+20
 194:HANcoder_E407_TTA_CombineModel_V2.c **** 
  98              		.loc 1 194 25 view .LVU20
  99 0028 84F83A30 		strb	r3, [r4, #58]
 197:HANcoder_E407_TTA_CombineModel_V2.c **** 
 100              		.loc 1 197 5 is_stmt 1 view .LVU21
 207:HANcoder_E407_TTA_CombineModel_V2.c **** 
 101              		.loc 1 207 38 is_stmt 0 view .LVU22
 102 002c 9A42     		cmp	r2, r3
 197:HANcoder_E407_TTA_CombineModel_V2.c **** 
 103              		.loc 1 197 17 view .LVU23
 104 002e 0A70     		strb	r2, [r1]
 202:HANcoder_E407_TTA_CombineModel_V2.c **** 
 105              		.loc 1 202 5 is_stmt 1 view .LVU24
 106              	.LVL0:
 207:HANcoder_E407_TTA_CombineModel_V2.c **** 
 107              		.loc 1 207 5 view .LVU25
 207:HANcoder_E407_TTA_CombineModel_V2.c **** 
 108              		.loc 1 207 15 is_stmt 0 view .LVU26
 109 0030 94BF     		ite	ls
 110 0032 4FF00108 		movls	r8, #1
 111 0036 4FF00008 		movhi	r8, #0
 112              	.LVL1:
 212:HANcoder_E407_TTA_CombineModel_V2.c ****     {
 113              		.loc 1 212 5 is_stmt 1 view .LVU27
 212:HANcoder_E407_TTA_CombineModel_V2.c ****     {
 114              		.loc 1 212 8 is_stmt 0 view .LVU28
 115 003a 17D8     		bhi	.L6
 212:HANcoder_E407_TTA_CombineModel_V2.c ****     {
 116              		.loc 1 212 19 discriminator 1 view .LVU29
 117 003c 737B     		ldrb	r3, [r6, #13]	@ zero_extendqisi2
 118 003e 012B     		cmp	r3, #1
 119 0040 14D0     		beq	.L6
 220:HANcoder_E407_TTA_CombineModel_V2.c ****         /* Switch: '<S16>/Switch' incorporates:
 120              		.loc 1 220 7 is_stmt 1 view .LVU30
 220:HANcoder_E407_TTA_CombineModel_V2.c ****         /* Switch: '<S16>/Switch' incorporates:
 121              		.loc 1 220 26 is_stmt 0 view .LVU31
 122 0042 194B     		ldr	r3, .L15+24
 220:HANcoder_E407_TTA_CombineModel_V2.c ****         /* Switch: '<S16>/Switch' incorporates:
 123              		.loc 1 220 18 view .LVU32
 124 0044 94F83B70 		ldrb	r7, [r4, #59]	@ zero_extendqisi2
 220:HANcoder_E407_TTA_CombineModel_V2.c ****         /* Switch: '<S16>/Switch' incorporates:
 125              		.loc 1 220 26 view .LVU33
 126 0048 D3E90001 		ldrd	r0, [r3]
 127 004c FFF7FEFF 		bl	__aeabi_d2uiz
 128              	.LVL2:
 220:HANcoder_E407_TTA_CombineModel_V2.c ****         /* Switch: '<S16>/Switch' incorporates:
 129              		.loc 1 220 10 view .LVU34
 130 0050 C0B2     		uxtb	r0, r0
 131 0052 B842     		cmp	r0, r7
 226:HANcoder_E407_TTA_CombineModel_V2.c ****       } else {
 132              		.loc 1 226 9 is_stmt 1 view .LVU35
 226:HANcoder_E407_TTA_CombineModel_V2.c ****       } else {
 133              		.loc 1 226 24 is_stmt 0 view .LVU36
 134 0054 88BF     		it	hi
 135 0056 7B1C     		addhi	r3, r7, #1
 136 0058 144A     		ldr	r2, .L15+28
 137 005a 8CBF     		ite	hi
 138 005c DBB2     		uxtbhi	r3, r3
 231:HANcoder_E407_TTA_CombineModel_V2.c ****       }
 139              		.loc 1 231 22 view .LVU37
 140 005e 0123     		movls	r3, #1
 237:HANcoder_E407_TTA_CombineModel_V2.c **** 
 141              		.loc 1 237 20 view .LVU38
 142 0060 84F83B30 		strb	r3, [r4, #59]
 143 0064 1370     		strb	r3, [r2]
 237:HANcoder_E407_TTA_CombineModel_V2.c **** 
 144              		.loc 1 237 7 is_stmt 1 view .LVU39
 242:HANcoder_E407_TTA_CombineModel_V2.c ****     }
 145              		.loc 1 242 7 view .LVU40
 242:HANcoder_E407_TTA_CombineModel_V2.c ****     }
 146              		.loc 1 242 27 is_stmt 0 view .LVU41
 147 0066 0023     		movs	r3, #0
 148 0068 84F83A30 		strb	r3, [r4, #58]
 149              	.L6:
 245:HANcoder_E407_TTA_CombineModel_V2.c **** 
 150              		.loc 1 245 5 is_stmt 1 view .LVU42
 250:HANcoder_E407_TTA_CombineModel_V2.c **** 
 151              		.loc 1 250 32 is_stmt 0 view .LVU43
 152 006c 0720     		movs	r0, #7
 245:HANcoder_E407_TTA_CombineModel_V2.c **** 
 153              		.loc 1 245 48 view .LVU44
 154 006e 86F80D80 		strb	r8, [r6, #13]
 250:HANcoder_E407_TTA_CombineModel_V2.c **** 
 155              		.loc 1 250 5 is_stmt 1 view .LVU45
 250:HANcoder_E407_TTA_CombineModel_V2.c **** 
 156              		.loc 1 250 32 is_stmt 0 view .LVU46
 157 0072 FFF7FEFF 		bl	TimeoutGetLastEventCounter
 158              	.LVL3:
 255:HANcoder_E407_TTA_CombineModel_V2.c **** 
 159              		.loc 1 255 5 is_stmt 1 view .LVU47
 255:HANcoder_E407_TTA_CombineModel_V2.c **** 
 160              		.loc 1 255 15 is_stmt 0 view .LVU48
 161 0076 00F57A71 		add	r1, r0, #1000
 162 007a 89B2     		uxth	r1, r1
 255:HANcoder_E407_TTA_CombineModel_V2.c **** 
 163              		.loc 1 255 13 view .LVU49
 164 007c 6981     		strh	r1, [r5, #10]	@ movhi
 261:HANcoder_E407_TTA_CombineModel_V2.c ****       ((uint8_T)3U));
 165              		.loc 1 261 5 is_stmt 1 view .LVU50
 166 007e 0322     		movs	r2, #3
 167              	.LBE62:
 264:HANcoder_E407_TTA_CombineModel_V2.c **** 
 168              		.loc 1 264 1 is_stmt 0 view .LVU51
 169 0080 BDE8F041 		pop	{r4, r5, r6, r7, r8, lr}
 170              		.cfi_remember_state
 171              		.cfi_restore 14
 172              		.cfi_restore 8
 173              		.cfi_restore 7
 174              		.cfi_restore 6
 175              		.cfi_restore 5
 176              		.cfi_restore 4
 177              		.cfi_def_cfa_offset 0
 178              	.LVL4:
 179              	.LBB63:
 261:HANcoder_E407_TTA_CombineModel_V2.c ****       ((uint8_T)3U));
 180              		.loc 1 261 5 view .LVU52
 181 0084 0720     		movs	r0, #7
 182              	.LVL5:
 261:HANcoder_E407_TTA_CombineModel_V2.c ****       ((uint8_T)3U));
 183              		.loc 1 261 5 view .LVU53
 184 0086 FFF7FEBF 		b	TimeoutScheduleCompareEvent
 185              	.LVL6:
 186              	.L4:
 187              		.cfi_restore_state
 188:HANcoder_E407_TTA_CombineModel_V2.c ****     }
 188              		.loc 1 188 7 is_stmt 1 view .LVU54
 188:HANcoder_E407_TTA_CombineModel_V2.c ****     }
 189              		.loc 1 188 38 is_stmt 0 view .LVU55
 190 008a 94F83A30 		ldrb	r3, [r4, #58]	@ zero_extendqisi2
 191 008e C5E7     		b	.L5
 192              	.L16:
 193              		.align	2
 194              	.L15:
 195 0090 00000000 		.word	rtB
 196 0094 00000000 		.word	canActive
 197 0098 00000000 		.word	rtDWork
 198 009c 00000000 		.word	local_ticks_interrupt
 199 00a0 00000000 		.word	setSlotTime
 200 00a4 00000000 		.word	rtPrevZCSigState
 201 00a8 00000000 		.word	matrixRows
 202 00ac 00000000 		.word	slotSelected
 203              	.LBE63:
 204              		.cfi_endproc
 205              	.LFE113:
 207              		.section	.text.TimeoutOverflowIRQ_TIMEOUT_MODULE_TIM4,"ax",%progbits
 208              		.align	1
 209              		.p2align 2,,3
 210              		.global	TimeoutOverflowIRQ_TIMEOUT_MODULE_TIM4
 211              		.syntax unified
 212              		.thumb
 213              		.thumb_func
 215              	TimeoutOverflowIRQ_TIMEOUT_MODULE_TIM4:
 216              	.LFB132:
 217              		.cfi_startproc
 269:HANcoder_E407_TTA_CombineModel_V2.c **** 
 270:HANcoder_E407_TTA_CombineModel_V2.c **** void TimeoutOverflowIRQ_TIMEOUT_MODULE_TIM4(void)
 218              		.loc 1 270 6 is_stmt 1 view -0
 219              		@ args = 0, pretend = 0, frame = 0
 220              		@ frame_needed = 0, uses_anonymous_args = 0
 221              		@ link register save eliminated.
 222 0000 7047     		bx	lr
 223              		.cfi_endproc
 224              	.LFE132:
 226 0002 00BF     		.section	.text.ByteSwap_x,"ax",%progbits
 227              		.align	1
 228              		.p2align 2,,3
 229              		.global	ByteSwap_x
 230              		.syntax unified
 231              		.thumb
 232              		.thumb_func
 234              	ByteSwap_x:
 235              	.LVL7:
 236              	.LFB112:
 155:HANcoder_E407_TTA_CombineModel_V2.c ****   int i = 0;
 237              		.loc 1 155 1 view -0
 238              		.cfi_startproc
 239              		@ args = 0, pretend = 0, frame = 0
 240              		@ frame_needed = 0, uses_anonymous_args = 0
 156:HANcoder_E407_TTA_CombineModel_V2.c ****   int j = n-1;
 241              		.loc 1 156 3 view .LVU58
 157:HANcoder_E407_TTA_CombineModel_V2.c ****   while (i<j) {
 242              		.loc 1 157 3 view .LVU59
 158:HANcoder_E407_TTA_CombineModel_V2.c ****     swap(&b[i], &b[j]);
 243              		.loc 1 158 3 view .LVU60
 158:HANcoder_E407_TTA_CombineModel_V2.c ****     swap(&b[i], &b[j]);
 244              		.loc 1 158 11 view .LVU61
 157:HANcoder_E407_TTA_CombineModel_V2.c ****   while (i<j) {
 245              		.loc 1 157 12 is_stmt 0 view .LVU62
 246 0000 4B1E     		subs	r3, r1, #1
 247              	.LVL8:
 158:HANcoder_E407_TTA_CombineModel_V2.c ****     swap(&b[i], &b[j]);
 248              		.loc 1 158 11 view .LVU63
 249 0002 002B     		cmp	r3, #0
 250 0004 18DD     		ble	.L23
 155:HANcoder_E407_TTA_CombineModel_V2.c ****   int i = 0;
 251              		.loc 1 155 1 view .LVU64
 252 0006 70B5     		push	{r4, r5, r6, lr}
 253              		.cfi_def_cfa_offset 16
 254              		.cfi_offset 4, -16
 255              		.cfi_offset 5, -12
 256              		.cfi_offset 6, -8
 257              		.cfi_offset 14, -4
 258 0008 00F1FF3C 		add	ip, r0, #-1
 259 000c 00EB010E 		add	lr, r0, r1
 158:HANcoder_E407_TTA_CombineModel_V2.c ****     swap(&b[i], &b[j]);
 260              		.loc 1 158 11 view .LVU65
 261 0010 6FF00106 		mvn	r6, #1
 262              	.LVL9:
 263              	.L20:
 159:HANcoder_E407_TTA_CombineModel_V2.c ****     i++, j--;
 264              		.loc 1 159 5 is_stmt 1 view .LVU66
 265              	.LBB64:
 266              	.LBI64:
 142:HANcoder_E407_TTA_CombineModel_V2.c **** {
 267              		.loc 1 142 13 view .LVU67
 268              	.LBB65:
 144:HANcoder_E407_TTA_CombineModel_V2.c ****   *a = *b;
 269              		.loc 1 144 3 view .LVU68
 270 0014 6246     		mov	r2, ip
 144:HANcoder_E407_TTA_CombineModel_V2.c ****   *a = *b;
 271              		.loc 1 144 17 is_stmt 0 view .LVU69
 272 0016 1CF8014F 		ldrb	r4, [ip, #1]!	@ zero_extendqisi2
 273              	.LVL10:
 145:HANcoder_E407_TTA_CombineModel_V2.c ****   *b = i;
 274              		.loc 1 145 3 is_stmt 1 view .LVU70
 145:HANcoder_E407_TTA_CombineModel_V2.c ****   *b = i;
 275              		.loc 1 145 8 is_stmt 0 view .LVU71
 276 001a 1EF8015D 		ldrb	r5, [lr, #-1]!	@ zero_extendqisi2
 277              	.LVL11:
 145:HANcoder_E407_TTA_CombineModel_V2.c ****   *b = i;
 278              		.loc 1 145 6 view .LVU72
 279 001e 8CF80050 		strb	r5, [ip]
 146:HANcoder_E407_TTA_CombineModel_V2.c **** }                                      /*** end of swap ***/
 280              		.loc 1 146 3 is_stmt 1 view .LVU73
 281              	.LBE65:
 282              	.LBE64:
 158:HANcoder_E407_TTA_CombineModel_V2.c ****     swap(&b[i], &b[j]);
 283              		.loc 1 158 11 is_stmt 0 view .LVU74
 284 0022 A6EB0C03 		sub	r3, r6, ip
 285 0026 0232     		adds	r2, r2, #2
 286              	.LVL12:
 158:HANcoder_E407_TTA_CombineModel_V2.c ****     swap(&b[i], &b[j]);
 287              		.loc 1 158 11 view .LVU75
 288 0028 0344     		add	r3, r3, r0
 289 002a 121A     		subs	r2, r2, r0
 290              	.LVL13:
 158:HANcoder_E407_TTA_CombineModel_V2.c ****     swap(&b[i], &b[j]);
 291              		.loc 1 158 11 view .LVU76
 292 002c 0B44     		add	r3, r3, r1
 293 002e 9A42     		cmp	r2, r3
 294              	.LBB67:
 295              	.LBB66:
 146:HANcoder_E407_TTA_CombineModel_V2.c **** }                                      /*** end of swap ***/
 296              		.loc 1 146 6 view .LVU77
 297 0030 8EF80040 		strb	r4, [lr]
 298              	.LVL14:
 146:HANcoder_E407_TTA_CombineModel_V2.c **** }                                      /*** end of swap ***/
 299              		.loc 1 146 6 view .LVU78
 300              	.LBE66:
 301              	.LBE67:
 160:HANcoder_E407_TTA_CombineModel_V2.c ****   }
 302              		.loc 1 160 5 is_stmt 1 view .LVU79
 158:HANcoder_E407_TTA_CombineModel_V2.c ****     swap(&b[i], &b[j]);
 303              		.loc 1 158 11 view .LVU80
 304 0034 EEDB     		blt	.L20
 162:HANcoder_E407_TTA_CombineModel_V2.c **** 
 305              		.loc 1 162 1 is_stmt 0 view .LVU81
 306 0036 70BD     		pop	{r4, r5, r6, pc}
 307              	.LVL15:
 308              	.L23:
 309              		.cfi_def_cfa_offset 0
 310              		.cfi_restore 4
 311              		.cfi_restore 5
 312              		.cfi_restore 6
 313              		.cfi_restore 14
 162:HANcoder_E407_TTA_CombineModel_V2.c **** 
 314              		.loc 1 162 1 view .LVU82
 315 0038 7047     		bx	lr
 316              		.cfi_endproc
 317              	.LFE112:
 319 003a 00BF     		.section	.text.EnabledSubsystem,"ax",%progbits
 320              		.align	1
 321              		.p2align 2,,3
 322              		.global	EnabledSubsystem
 323              		.syntax unified
 324              		.thumb
 325              		.thumb_func
 327              	EnabledSubsystem:
 328              	.LVL16:
 329              	.LFB116:
 271:HANcoder_E407_TTA_CombineModel_V2.c **** {
 272:HANcoder_E407_TTA_CombineModel_V2.c **** }
 273:HANcoder_E407_TTA_CombineModel_V2.c **** 
 274:HANcoder_E407_TTA_CombineModel_V2.c **** /*
 275:HANcoder_E407_TTA_CombineModel_V2.c ****  * Output and update for enable system:
 276:HANcoder_E407_TTA_CombineModel_V2.c ****  *    '<S37>/Enabled Subsystem'
 277:HANcoder_E407_TTA_CombineModel_V2.c ****  *    '<S40>/Enabled Subsystem'
 278:HANcoder_E407_TTA_CombineModel_V2.c ****  *    '<S43>/Enabled Subsystem'
 279:HANcoder_E407_TTA_CombineModel_V2.c ****  *    '<S118>/Enabled Subsystem'
 280:HANcoder_E407_TTA_CombineModel_V2.c ****  *    '<S134>/Enabled Subsystem'
 281:HANcoder_E407_TTA_CombineModel_V2.c ****  *    '<S143>/Enabled Subsystem'
 282:HANcoder_E407_TTA_CombineModel_V2.c ****  *    '<S171>/Enabled Subsystem'
 283:HANcoder_E407_TTA_CombineModel_V2.c ****  */
 284:HANcoder_E407_TTA_CombineModel_V2.c **** void EnabledSubsystem(int8_T rtu_Enable, uint8_T rtu_In1, rtB_EnabledSubsystem
 285:HANcoder_E407_TTA_CombineModel_V2.c ****                       *localB)
 286:HANcoder_E407_TTA_CombineModel_V2.c **** {
 330              		.loc 1 286 1 is_stmt 1 view -0
 331              		.cfi_startproc
 332              		@ args = 0, pretend = 0, frame = 0
 333              		@ frame_needed = 0, uses_anonymous_args = 0
 334              		@ link register save eliminated.
 287:HANcoder_E407_TTA_CombineModel_V2.c ****   /* Outputs for Enabled SubSystem: '<S37>/Enabled Subsystem' incorporates:
 288:HANcoder_E407_TTA_CombineModel_V2.c ****    *  EnablePort: '<S38>/Enable'
 289:HANcoder_E407_TTA_CombineModel_V2.c ****    */
 290:HANcoder_E407_TTA_CombineModel_V2.c ****   if (rtu_Enable > 0) {
 335              		.loc 1 290 3 view .LVU84
 336              		.loc 1 290 6 is_stmt 0 view .LVU85
 337 0000 0028     		cmp	r0, #0
 291:HANcoder_E407_TTA_CombineModel_V2.c ****     /* SignalConversion generated from: '<S38>/In1' */
 292:HANcoder_E407_TTA_CombineModel_V2.c ****     localB->In1 = rtu_In1;
 338              		.loc 1 292 5 is_stmt 1 view .LVU86
 339              		.loc 1 292 17 is_stmt 0 view .LVU87
 340 0002 C8BF     		it	gt
 341 0004 1170     		strbgt	r1, [r2]
 293:HANcoder_E407_TTA_CombineModel_V2.c ****   }
 294:HANcoder_E407_TTA_CombineModel_V2.c **** 
 295:HANcoder_E407_TTA_CombineModel_V2.c ****   /* End of Outputs for SubSystem: '<S37>/Enabled Subsystem' */
 296:HANcoder_E407_TTA_CombineModel_V2.c **** }
 342              		.loc 1 296 1 view .LVU88
 343 0006 7047     		bx	lr
 344              		.cfi_endproc
 345              	.LFE116:
 347              		.section	.text.MMBS1_RX_Disable,"ax",%progbits
 348              		.align	1
 349              		.p2align 2,,3
 350              		.global	MMBS1_RX_Disable
 351              		.syntax unified
 352              		.thumb
 353              		.thumb_func
 355              	MMBS1_RX_Disable:
 356              	.LVL17:
 357              	.LFB117:
 297:HANcoder_E407_TTA_CombineModel_V2.c **** 
 298:HANcoder_E407_TTA_CombineModel_V2.c **** /*
 299:HANcoder_E407_TTA_CombineModel_V2.c ****  * Disable for enable system:
 300:HANcoder_E407_TTA_CombineModel_V2.c ****  *    '<S8>/MMBS1_RX'
 301:HANcoder_E407_TTA_CombineModel_V2.c ****  *    '<S8>/SSTM1_RX'
 302:HANcoder_E407_TTA_CombineModel_V2.c ****  *    '<S8>/TRCK1_ID2_RX'
 303:HANcoder_E407_TTA_CombineModel_V2.c ****  *    '<S8>/TRCK1_RX'
 304:HANcoder_E407_TTA_CombineModel_V2.c ****  */
 305:HANcoder_E407_TTA_CombineModel_V2.c **** void MMBS1_RX_Disable(rtDW_MMBS1_RX *localDW)
 306:HANcoder_E407_TTA_CombineModel_V2.c **** {
 358              		.loc 1 306 1 is_stmt 1 view -0
 359              		.cfi_startproc
 360              		@ args = 0, pretend = 0, frame = 0
 361              		@ frame_needed = 0, uses_anonymous_args = 0
 362              		@ link register save eliminated.
 307:HANcoder_E407_TTA_CombineModel_V2.c ****   localDW->MMBS1_RX_MODE = false;
 363              		.loc 1 307 3 view .LVU90
 364              		.loc 1 307 26 is_stmt 0 view .LVU91
 365 0000 0023     		movs	r3, #0
 366 0002 0370     		strb	r3, [r0]
 308:HANcoder_E407_TTA_CombineModel_V2.c **** }
 367              		.loc 1 308 1 view .LVU92
 368 0004 7047     		bx	lr
 369              		.cfi_endproc
 370              	.LFE117:
 372 0006 00BF     		.section	.text.MMBS1_RX_Start,"ax",%progbits
 373              		.align	1
 374              		.p2align 2,,3
 375              		.global	MMBS1_RX_Start
 376              		.syntax unified
 377              		.thumb
 378              		.thumb_func
 380              	MMBS1_RX_Start:
 381              	.LVL18:
 382              	.LFB118:
 309:HANcoder_E407_TTA_CombineModel_V2.c **** 
 310:HANcoder_E407_TTA_CombineModel_V2.c **** /*
 311:HANcoder_E407_TTA_CombineModel_V2.c ****  * Start for enable system:
 312:HANcoder_E407_TTA_CombineModel_V2.c ****  *    '<S8>/MMBS1_RX'
 313:HANcoder_E407_TTA_CombineModel_V2.c ****  *    '<S8>/SSTM1_RX'
 314:HANcoder_E407_TTA_CombineModel_V2.c ****  *    '<S8>/TRCK1_ID2_RX'
 315:HANcoder_E407_TTA_CombineModel_V2.c ****  *    '<S8>/TRCK1_RX'
 316:HANcoder_E407_TTA_CombineModel_V2.c ****  */
 317:HANcoder_E407_TTA_CombineModel_V2.c **** void MMBS1_RX_Start(uint32_T rtu_In1)
 318:HANcoder_E407_TTA_CombineModel_V2.c **** {
 383              		.loc 1 318 1 is_stmt 1 view -0
 384              		.cfi_startproc
 385              		@ args = 0, pretend = 0, frame = 0
 386              		@ frame_needed = 0, uses_anonymous_args = 0
 387              		@ link register save eliminated.
 319:HANcoder_E407_TTA_CombineModel_V2.c ****   /* Start for M-S-Function: '<S37>/S-Function' */
 320:HANcoder_E407_TTA_CombineModel_V2.c **** 
 321:HANcoder_E407_TTA_CombineModel_V2.c ****   /* register a CAN storage buffer for the message with this ID */
 322:HANcoder_E407_TTA_CombineModel_V2.c ****   CanIoCreateMessageReceivedStorage(0, rtu_In1);
 388              		.loc 1 322 3 view .LVU94
 318:HANcoder_E407_TTA_CombineModel_V2.c ****   /* Start for M-S-Function: '<S37>/S-Function' */
 389              		.loc 1 318 1 is_stmt 0 view .LVU95
 390 0000 0146     		mov	r1, r0
 391              		.loc 1 322 3 view .LVU96
 392 0002 0020     		movs	r0, #0
 393              	.LVL19:
 394              		.loc 1 322 3 view .LVU97
 395 0004 FFF7FEBF 		b	CanIoCreateMessageReceivedStorage
 396              	.LVL20:
 397              		.loc 1 322 3 view .LVU98
 398              		.cfi_endproc
 399              	.LFE118:
 401              		.section	.text.MMBS1_RX,"ax",%progbits
 402              		.align	1
 403              		.p2align 2,,3
 404              		.global	MMBS1_RX
 405              		.syntax unified
 406              		.thumb
 407              		.thumb_func
 409              	MMBS1_RX:
 410              	.LVL21:
 411              	.LFB119:
 323:HANcoder_E407_TTA_CombineModel_V2.c **** }
 324:HANcoder_E407_TTA_CombineModel_V2.c **** 
 325:HANcoder_E407_TTA_CombineModel_V2.c **** /*
 326:HANcoder_E407_TTA_CombineModel_V2.c ****  * Outputs for enable system:
 327:HANcoder_E407_TTA_CombineModel_V2.c ****  *    '<S8>/MMBS1_RX'
 328:HANcoder_E407_TTA_CombineModel_V2.c ****  *    '<S8>/SSTM1_RX'
 329:HANcoder_E407_TTA_CombineModel_V2.c ****  *    '<S8>/TRCK1_ID2_RX'
 330:HANcoder_E407_TTA_CombineModel_V2.c ****  *    '<S8>/TRCK1_RX'
 331:HANcoder_E407_TTA_CombineModel_V2.c ****  */
 332:HANcoder_E407_TTA_CombineModel_V2.c **** void MMBS1_RX(boolean_T rtu_Enable, uint32_T rtu_In1, rtB_MMBS1_RX *localB,
 333:HANcoder_E407_TTA_CombineModel_V2.c ****               rtDW_MMBS1_RX *localDW)
 334:HANcoder_E407_TTA_CombineModel_V2.c **** {
 412              		.loc 1 334 1 is_stmt 1 view -0
 413              		.cfi_startproc
 414              		@ args = 0, pretend = 0, frame = 0
 415              		@ frame_needed = 0, uses_anonymous_args = 0
 335:HANcoder_E407_TTA_CombineModel_V2.c ****   /* local block i/o variables */
 336:HANcoder_E407_TTA_CombineModel_V2.c ****   uint8_T rtb_SFunction_o2_n;
 416              		.loc 1 336 3 view .LVU100
 337:HANcoder_E407_TTA_CombineModel_V2.c ****   uint8_T rtb_SFunction_o3_b;
 417              		.loc 1 337 3 view .LVU101
 338:HANcoder_E407_TTA_CombineModel_V2.c ****   uint8_T rtb_SFunction_o4_l;
 418              		.loc 1 338 3 view .LVU102
 339:HANcoder_E407_TTA_CombineModel_V2.c ****   uint8_T rtb_SFunction_o5_e;
 419              		.loc 1 339 3 view .LVU103
 340:HANcoder_E407_TTA_CombineModel_V2.c ****   uint8_T rtb_SFunction_o6_k;
 420              		.loc 1 340 3 view .LVU104
 341:HANcoder_E407_TTA_CombineModel_V2.c ****   uint8_T rtb_SFunction_o7_dj;
 421              		.loc 1 341 3 view .LVU105
 342:HANcoder_E407_TTA_CombineModel_V2.c ****   uint8_T rtb_SFunction_o8_n1;
 422              		.loc 1 342 3 view .LVU106
 343:HANcoder_E407_TTA_CombineModel_V2.c ****   uint8_T rtb_SFunction_o9_o;
 423              		.loc 1 343 3 view .LVU107
 344:HANcoder_E407_TTA_CombineModel_V2.c ****   int8_T rtb_SFunction_o1_g;
 424              		.loc 1 344 3 view .LVU108
 345:HANcoder_E407_TTA_CombineModel_V2.c **** 
 346:HANcoder_E407_TTA_CombineModel_V2.c ****   /* Outputs for Enabled SubSystem: '<S8>/MMBS1_RX' incorporates:
 347:HANcoder_E407_TTA_CombineModel_V2.c ****    *  EnablePort: '<S19>/Enable'
 348:HANcoder_E407_TTA_CombineModel_V2.c ****    */
 349:HANcoder_E407_TTA_CombineModel_V2.c ****   if (rtu_Enable) {
 425              		.loc 1 349 3 view .LVU109
 426              		.loc 1 349 6 is_stmt 0 view .LVU110
 427 0000 20B9     		cbnz	r0, .L42
 350:HANcoder_E407_TTA_CombineModel_V2.c ****     localDW->MMBS1_RX_MODE = true;
 351:HANcoder_E407_TTA_CombineModel_V2.c **** 
 352:HANcoder_E407_TTA_CombineModel_V2.c ****     /* M-S-Function: '<S37>/S-Function' */
 353:HANcoder_E407_TTA_CombineModel_V2.c **** 
 354:HANcoder_E407_TTA_CombineModel_V2.c ****     /* read the message data and store the new parameter */
 355:HANcoder_E407_TTA_CombineModel_V2.c ****     rtb_SFunction_o1_g = CanIoGetMessage(0, rtu_In1, NULL,
 356:HANcoder_E407_TTA_CombineModel_V2.c ****       &canRxData_0_rtu_In1.uint8_T_info[0], NULL);
 357:HANcoder_E407_TTA_CombineModel_V2.c **** 
 358:HANcoder_E407_TTA_CombineModel_V2.c ****     /* process the message data */
 359:HANcoder_E407_TTA_CombineModel_V2.c ****     if (rtb_SFunction_o1_g > 0) {
 360:HANcoder_E407_TTA_CombineModel_V2.c ****       /* read the data */
 361:HANcoder_E407_TTA_CombineModel_V2.c ****       rtb_SFunction_o2_n = canRxData_0_rtu_In1.uint8_T_info[0];
 362:HANcoder_E407_TTA_CombineModel_V2.c ****       rtb_SFunction_o3_b = canRxData_0_rtu_In1.uint8_T_info[1];
 363:HANcoder_E407_TTA_CombineModel_V2.c ****       rtb_SFunction_o4_l = canRxData_0_rtu_In1.uint8_T_info[2];
 364:HANcoder_E407_TTA_CombineModel_V2.c ****       rtb_SFunction_o5_e = canRxData_0_rtu_In1.uint8_T_info[3];
 365:HANcoder_E407_TTA_CombineModel_V2.c ****       rtb_SFunction_o6_k = canRxData_0_rtu_In1.uint8_T_info[4];
 366:HANcoder_E407_TTA_CombineModel_V2.c ****       rtb_SFunction_o7_dj = canRxData_0_rtu_In1.uint8_T_info[5];
 367:HANcoder_E407_TTA_CombineModel_V2.c ****       rtb_SFunction_o8_n1 = canRxData_0_rtu_In1.uint8_T_info[6];
 368:HANcoder_E407_TTA_CombineModel_V2.c ****       rtb_SFunction_o9_o = canRxData_0_rtu_In1.uint8_T_info[7];
 369:HANcoder_E407_TTA_CombineModel_V2.c ****     }
 370:HANcoder_E407_TTA_CombineModel_V2.c **** 
 371:HANcoder_E407_TTA_CombineModel_V2.c ****     /* Outputs for Enabled SubSystem: '<S37>/Enabled Subsystem' */
 372:HANcoder_E407_TTA_CombineModel_V2.c ****     EnabledSubsystem(rtb_SFunction_o1_g, rtb_SFunction_o2_n,
 373:HANcoder_E407_TTA_CombineModel_V2.c ****                      &localB->EnabledSubsystem_k);
 374:HANcoder_E407_TTA_CombineModel_V2.c **** 
 375:HANcoder_E407_TTA_CombineModel_V2.c ****     /* End of Outputs for SubSystem: '<S37>/Enabled Subsystem' */
 376:HANcoder_E407_TTA_CombineModel_V2.c ****   } else if (localDW->MMBS1_RX_MODE) {
 428              		.loc 1 376 10 is_stmt 1 view .LVU111
 429              		.loc 1 376 13 is_stmt 0 view .LVU112
 430 0002 1A78     		ldrb	r2, [r3]	@ zero_extendqisi2
 431              	.LVL22:
 432              		.loc 1 376 13 view .LVU113
 433 0004 0AB1     		cbz	r2, .L39
 377:HANcoder_E407_TTA_CombineModel_V2.c ****     MMBS1_RX_Disable(localDW);
 434              		.loc 1 377 5 is_stmt 1 view .LVU114
 435              	.LVL23:
 436              	.LBB78:
 437              	.LBI78:
 305:HANcoder_E407_TTA_CombineModel_V2.c **** {
 438              		.loc 1 305 6 view .LVU115
 439              	.LBB79:
 307:HANcoder_E407_TTA_CombineModel_V2.c **** }
 440              		.loc 1 307 3 view .LVU116
 307:HANcoder_E407_TTA_CombineModel_V2.c **** }
 441              		.loc 1 307 26 is_stmt 0 view .LVU117
 442 0006 1870     		strb	r0, [r3]
 443              	.LVL24:
 307:HANcoder_E407_TTA_CombineModel_V2.c **** }
 444              		.loc 1 307 26 view .LVU118
 445              	.LBE79:
 446              	.LBE78:
 378:HANcoder_E407_TTA_CombineModel_V2.c ****   }
 379:HANcoder_E407_TTA_CombineModel_V2.c **** 
 380:HANcoder_E407_TTA_CombineModel_V2.c ****   /* End of Outputs for SubSystem: '<S8>/MMBS1_RX' */
 381:HANcoder_E407_TTA_CombineModel_V2.c **** }
 447              		.loc 1 381 1 view .LVU119
 448 0008 7047     		bx	lr
 449              	.L39:
 450              		.loc 1 381 1 view .LVU120
 451 000a 7047     		bx	lr
 452              	.LVL25:
 453              	.L42:
 334:HANcoder_E407_TTA_CombineModel_V2.c ****   /* local block i/o variables */
 454              		.loc 1 334 1 view .LVU121
 455 000c 30B5     		push	{r4, r5, lr}
 456              		.cfi_def_cfa_offset 12
 457              		.cfi_offset 4, -12
 458              		.cfi_offset 5, -8
 459              		.cfi_offset 14, -4
 460              	.LBB80:
 461              	.LBB81:
 355:HANcoder_E407_TTA_CombineModel_V2.c ****       &canRxData_0_rtu_In1.uint8_T_info[0], NULL);
 462              		.loc 1 355 26 view .LVU122
 463 000e 084D     		ldr	r5, .L43
 464              	.LBE81:
 465              	.LBE80:
 334:HANcoder_E407_TTA_CombineModel_V2.c ****   /* local block i/o variables */
 466              		.loc 1 334 1 view .LVU123
 467 0010 83B0     		sub	sp, sp, #12
 468              		.cfi_def_cfa_offset 24
 469              	.LBB86:
 470              	.LBB84:
 350:HANcoder_E407_TTA_CombineModel_V2.c **** 
 471              		.loc 1 350 28 view .LVU124
 472 0012 0120     		movs	r0, #1
 473              	.LVL26:
 350:HANcoder_E407_TTA_CombineModel_V2.c **** 
 474              		.loc 1 350 28 view .LVU125
 475 0014 1446     		mov	r4, r2
 476              	.LVL27:
 350:HANcoder_E407_TTA_CombineModel_V2.c **** 
 477              		.loc 1 350 28 view .LVU126
 478              	.LBE84:
 479              	.LBI80:
 332:HANcoder_E407_TTA_CombineModel_V2.c ****               rtDW_MMBS1_RX *localDW)
 480              		.loc 1 332 6 is_stmt 1 view .LVU127
 481              	.LBB85:
 350:HANcoder_E407_TTA_CombineModel_V2.c **** 
 482              		.loc 1 350 5 view .LVU128
 355:HANcoder_E407_TTA_CombineModel_V2.c ****       &canRxData_0_rtu_In1.uint8_T_info[0], NULL);
 483              		.loc 1 355 26 is_stmt 0 view .LVU129
 484 0016 0022     		movs	r2, #0
 485              	.LVL28:
 350:HANcoder_E407_TTA_CombineModel_V2.c **** 
 486              		.loc 1 350 28 view .LVU130
 487 0018 1870     		strb	r0, [r3]
 355:HANcoder_E407_TTA_CombineModel_V2.c ****       &canRxData_0_rtu_In1.uint8_T_info[0], NULL);
 488              		.loc 1 355 5 is_stmt 1 view .LVU131
 355:HANcoder_E407_TTA_CombineModel_V2.c ****       &canRxData_0_rtu_In1.uint8_T_info[0], NULL);
 489              		.loc 1 355 26 is_stmt 0 view .LVU132
 490 001a 0092     		str	r2, [sp]
 491 001c 2B46     		mov	r3, r5
 492              	.LVL29:
 355:HANcoder_E407_TTA_CombineModel_V2.c ****       &canRxData_0_rtu_In1.uint8_T_info[0], NULL);
 493              		.loc 1 355 26 view .LVU133
 494 001e 1046     		mov	r0, r2
 495 0020 FFF7FEFF 		bl	CanIoGetMessage
 496              	.LVL30:
 359:HANcoder_E407_TTA_CombineModel_V2.c ****       /* read the data */
 497              		.loc 1 359 5 is_stmt 1 view .LVU134
 359:HANcoder_E407_TTA_CombineModel_V2.c ****       /* read the data */
 498              		.loc 1 359 8 is_stmt 0 view .LVU135
 499 0024 0028     		cmp	r0, #0
 500 0026 01DD     		ble	.L30
 361:HANcoder_E407_TTA_CombineModel_V2.c ****       rtb_SFunction_o3_b = canRxData_0_rtu_In1.uint8_T_info[1];
 501              		.loc 1 361 7 is_stmt 1 view .LVU136
 502              	.LVL31:
 362:HANcoder_E407_TTA_CombineModel_V2.c ****       rtb_SFunction_o4_l = canRxData_0_rtu_In1.uint8_T_info[2];
 503              		.loc 1 362 7 view .LVU137
 363:HANcoder_E407_TTA_CombineModel_V2.c ****       rtb_SFunction_o5_e = canRxData_0_rtu_In1.uint8_T_info[3];
 504              		.loc 1 363 7 view .LVU138
 364:HANcoder_E407_TTA_CombineModel_V2.c ****       rtb_SFunction_o6_k = canRxData_0_rtu_In1.uint8_T_info[4];
 505              		.loc 1 364 7 view .LVU139
 365:HANcoder_E407_TTA_CombineModel_V2.c ****       rtb_SFunction_o7_dj = canRxData_0_rtu_In1.uint8_T_info[5];
 506              		.loc 1 365 7 view .LVU140
 366:HANcoder_E407_TTA_CombineModel_V2.c ****       rtb_SFunction_o8_n1 = canRxData_0_rtu_In1.uint8_T_info[6];
 507              		.loc 1 366 7 view .LVU141
 367:HANcoder_E407_TTA_CombineModel_V2.c ****       rtb_SFunction_o9_o = canRxData_0_rtu_In1.uint8_T_info[7];
 508              		.loc 1 367 7 view .LVU142
 368:HANcoder_E407_TTA_CombineModel_V2.c ****     }
 509              		.loc 1 368 7 view .LVU143
 372:HANcoder_E407_TTA_CombineModel_V2.c ****                      &localB->EnabledSubsystem_k);
 510              		.loc 1 372 5 view .LVU144
 511              	.LBB82:
 512              	.LBI82:
 284:HANcoder_E407_TTA_CombineModel_V2.c ****                       *localB)
 513              		.loc 1 284 6 view .LVU145
 514              	.LBB83:
 290:HANcoder_E407_TTA_CombineModel_V2.c ****     /* SignalConversion generated from: '<S38>/In1' */
 515              		.loc 1 290 3 view .LVU146
 292:HANcoder_E407_TTA_CombineModel_V2.c ****   }
 516              		.loc 1 292 5 view .LVU147
 292:HANcoder_E407_TTA_CombineModel_V2.c ****   }
 517              		.loc 1 292 17 is_stmt 0 view .LVU148
 518 0028 2B78     		ldrb	r3, [r5]	@ zero_extendqisi2
 519 002a 2370     		strb	r3, [r4]
 520              	.LVL32:
 521              	.L30:
 292:HANcoder_E407_TTA_CombineModel_V2.c ****   }
 522              		.loc 1 292 17 view .LVU149
 523              	.LBE83:
 524              	.LBE82:
 525              	.LBE85:
 526              	.LBE86:
 527              		.loc 1 381 1 view .LVU150
 528 002c 03B0     		add	sp, sp, #12
 529              		.cfi_def_cfa_offset 12
 530              		@ sp needed
 531 002e 30BD     		pop	{r4, r5, pc}
 532              	.LVL33:
 533              	.L44:
 534              		.loc 1 381 1 view .LVU151
 535              		.align	2
 536              	.L43:
 537 0030 00000000 		.word	canRxData_0_rtu_In1
 538              		.cfi_endproc
 539              	.LFE119:
 541              		.section	.text.MMBS1_TX,"ax",%progbits
 542              		.align	1
 543              		.p2align 2,,3
 544              		.global	MMBS1_TX
 545              		.syntax unified
 546              		.thumb
 547              		.thumb_func
 549              	MMBS1_TX:
 550              	.LVL34:
 551              	.LFB120:
 382:HANcoder_E407_TTA_CombineModel_V2.c **** 
 383:HANcoder_E407_TTA_CombineModel_V2.c **** /*
 384:HANcoder_E407_TTA_CombineModel_V2.c ****  * Output and update for trigger system:
 385:HANcoder_E407_TTA_CombineModel_V2.c ****  *    '<S8>/MMBS1_TX'
 386:HANcoder_E407_TTA_CombineModel_V2.c ****  *    '<S8>/SSTM1_TX'
 387:HANcoder_E407_TTA_CombineModel_V2.c ****  */
 388:HANcoder_E407_TTA_CombineModel_V2.c **** void MMBS1_TX(boolean_T rtu_Trigger, uint32_T rtu_In1, rtZCE_MMBS1_TX *localZCE)
 389:HANcoder_E407_TTA_CombineModel_V2.c **** {
 552              		.loc 1 389 1 is_stmt 1 view -0
 553              		.cfi_startproc
 554              		@ args = 0, pretend = 0, frame = 0
 555              		@ frame_needed = 0, uses_anonymous_args = 0
 390:HANcoder_E407_TTA_CombineModel_V2.c ****   /* Outputs for Triggered SubSystem: '<S8>/MMBS1_TX' incorporates:
 391:HANcoder_E407_TTA_CombineModel_V2.c ****    *  TriggerPort: '<S20>/Trigger'
 392:HANcoder_E407_TTA_CombineModel_V2.c ****    */
 393:HANcoder_E407_TTA_CombineModel_V2.c ****   if (rtu_Trigger && (localZCE->MMBS1_TX_Trig_ZCE != POS_ZCSIG)) {
 556              		.loc 1 393 3 view .LVU153
 389:HANcoder_E407_TTA_CombineModel_V2.c ****   /* Outputs for Triggered SubSystem: '<S8>/MMBS1_TX' incorporates:
 557              		.loc 1 389 1 is_stmt 0 view .LVU154
 558 0000 38B5     		push	{r3, r4, r5, lr}
 559              		.cfi_def_cfa_offset 16
 560              		.cfi_offset 3, -16
 561              		.cfi_offset 4, -12
 562              		.cfi_offset 5, -8
 563              		.cfi_offset 14, -4
 389:HANcoder_E407_TTA_CombineModel_V2.c ****   /* Outputs for Triggered SubSystem: '<S8>/MMBS1_TX' incorporates:
 564              		.loc 1 389 1 view .LVU155
 565 0002 1546     		mov	r5, r2
 566              		.loc 1 393 6 view .LVU156
 567 0004 0446     		mov	r4, r0
 568 0006 10B1     		cbz	r0, .L46
 569              		.loc 1 393 19 discriminator 1 view .LVU157
 570 0008 1378     		ldrb	r3, [r2]	@ zero_extendqisi2
 571 000a 012B     		cmp	r3, #1
 572 000c 01D1     		bne	.L54
 573              	.L46:
 394:HANcoder_E407_TTA_CombineModel_V2.c ****     /* Update for M-S-Function: '<S39>/S-Function' */
 395:HANcoder_E407_TTA_CombineModel_V2.c ****     {
 396:HANcoder_E407_TTA_CombineModel_V2.c ****       /* prepare the data */
 397:HANcoder_E407_TTA_CombineModel_V2.c ****       canTxData.uint8_T_info[0] = 0U;
 398:HANcoder_E407_TTA_CombineModel_V2.c **** 
 399:HANcoder_E407_TTA_CombineModel_V2.c ****       /* send the data */
 400:HANcoder_E407_TTA_CombineModel_V2.c ****       CanTransmit(0, rtu_In1, 1, &canTxData.uint8_T_info[0]);
 401:HANcoder_E407_TTA_CombineModel_V2.c ****     }
 402:HANcoder_E407_TTA_CombineModel_V2.c ****   }
 403:HANcoder_E407_TTA_CombineModel_V2.c **** 
 404:HANcoder_E407_TTA_CombineModel_V2.c ****   localZCE->MMBS1_TX_Trig_ZCE = rtu_Trigger;
 574              		.loc 1 404 3 is_stmt 1 view .LVU158
 575              		.loc 1 404 31 is_stmt 0 view .LVU159
 576 000e 2C70     		strb	r4, [r5]
 405:HANcoder_E407_TTA_CombineModel_V2.c **** 
 406:HANcoder_E407_TTA_CombineModel_V2.c ****   /* End of Outputs for SubSystem: '<S8>/MMBS1_TX' */
 407:HANcoder_E407_TTA_CombineModel_V2.c **** }
 577              		.loc 1 407 1 view .LVU160
 578 0010 38BD     		pop	{r3, r4, r5, pc}
 579              	.L54:
 397:HANcoder_E407_TTA_CombineModel_V2.c **** 
 580              		.loc 1 397 7 is_stmt 1 view .LVU161
 397:HANcoder_E407_TTA_CombineModel_V2.c **** 
 581              		.loc 1 397 33 is_stmt 0 view .LVU162
 582 0012 044B     		ldr	r3, .L55
 583 0014 0020     		movs	r0, #0
 584              	.LVL35:
 400:HANcoder_E407_TTA_CombineModel_V2.c ****     }
 585              		.loc 1 400 7 view .LVU163
 586 0016 0122     		movs	r2, #1
 587              	.LVL36:
 397:HANcoder_E407_TTA_CombineModel_V2.c **** 
 588              		.loc 1 397 33 view .LVU164
 589 0018 1870     		strb	r0, [r3]
 400:HANcoder_E407_TTA_CombineModel_V2.c ****     }
 590              		.loc 1 400 7 is_stmt 1 view .LVU165
 591 001a FFF7FEFF 		bl	CanTransmit
 592              	.LVL37:
 404:HANcoder_E407_TTA_CombineModel_V2.c **** 
 593              		.loc 1 404 3 view .LVU166
 404:HANcoder_E407_TTA_CombineModel_V2.c **** 
 594              		.loc 1 404 31 is_stmt 0 view .LVU167
 595 001e 2C70     		strb	r4, [r5]
 596              		.loc 1 407 1 view .LVU168
 597 0020 38BD     		pop	{r3, r4, r5, pc}
 598              	.LVL38:
 599              	.L56:
 600              		.loc 1 407 1 view .LVU169
 601 0022 00BF     		.align	2
 602              	.L55:
 603 0024 00000000 		.word	canTxData
 604              		.cfi_endproc
 605              	.LFE120:
 607              		.section	.text.MovingAverage_Init,"ax",%progbits
 608              		.align	1
 609              		.p2align 2,,3
 610              		.global	MovingAverage_Init
 611              		.syntax unified
 612              		.thumb
 613              		.thumb_func
 615              	MovingAverage_Init:
 616              	.LVL39:
 617              	.LFB122:
 408:HANcoder_E407_TTA_CombineModel_V2.c **** 
 409:HANcoder_E407_TTA_CombineModel_V2.c **** static void SystemCore_setup(dsp_simulink_MovingAverage *obj)
 410:HANcoder_E407_TTA_CombineModel_V2.c **** {
 411:HANcoder_E407_TTA_CombineModel_V2.c ****   obj->isSetupComplete = false;
 412:HANcoder_E407_TTA_CombineModel_V2.c ****   obj->isInitialized = 1;
 413:HANcoder_E407_TTA_CombineModel_V2.c ****   obj->NumChannels = 1;
 414:HANcoder_E407_TTA_CombineModel_V2.c ****   obj->FrameLength = 1;
 415:HANcoder_E407_TTA_CombineModel_V2.c ****   obj->_pobj0.isInitialized = 0;
 416:HANcoder_E407_TTA_CombineModel_V2.c ****   obj->_pobj0.isInitialized = 0;
 417:HANcoder_E407_TTA_CombineModel_V2.c ****   obj->pStatistic = &obj->_pobj0;
 418:HANcoder_E407_TTA_CombineModel_V2.c ****   obj->isSetupComplete = true;
 419:HANcoder_E407_TTA_CombineModel_V2.c ****   obj->TunablePropsChanged = false;
 420:HANcoder_E407_TTA_CombineModel_V2.c **** }
 421:HANcoder_E407_TTA_CombineModel_V2.c **** 
 422:HANcoder_E407_TTA_CombineModel_V2.c **** /* System initialize for atomic system: */
 423:HANcoder_E407_TTA_CombineModel_V2.c **** void MovingAverage_Init(rtDW_MovingAverage *localDW)
 424:HANcoder_E407_TTA_CombineModel_V2.c **** {
 618              		.loc 1 424 1 is_stmt 1 view -0
 619              		.cfi_startproc
 620              		@ args = 0, pretend = 0, frame = 0
 621              		@ frame_needed = 0, uses_anonymous_args = 0
 425:HANcoder_E407_TTA_CombineModel_V2.c ****   g_dsp_internal_SlidingWindowAve *obj;
 622              		.loc 1 425 3 view .LVU171
 426:HANcoder_E407_TTA_CombineModel_V2.c ****   int32_T i;
 623              		.loc 1 426 3 view .LVU172
 427:HANcoder_E407_TTA_CombineModel_V2.c **** 
 428:HANcoder_E407_TTA_CombineModel_V2.c ****   /* InitializeConditions for MATLABSystem: '<S47>/Moving Average' */
 429:HANcoder_E407_TTA_CombineModel_V2.c ****   obj = localDW->obj.pStatistic;
 624              		.loc 1 429 3 view .LVU173
 424:HANcoder_E407_TTA_CombineModel_V2.c ****   g_dsp_internal_SlidingWindowAve *obj;
 625              		.loc 1 424 1 is_stmt 0 view .LVU174
 626 0000 38B5     		push	{r3, r4, r5, lr}
 627              		.cfi_def_cfa_offset 16
 628              		.cfi_offset 3, -16
 629              		.cfi_offset 4, -12
 630              		.cfi_offset 5, -8
 631              		.cfi_offset 14, -4
 632              		.loc 1 429 7 view .LVU175
 633 0002 C46A     		ldr	r4, [r0, #44]
 634              	.LVL40:
 430:HANcoder_E407_TTA_CombineModel_V2.c ****   if (obj->isInitialized == 1) {
 635              		.loc 1 430 3 is_stmt 1 view .LVU176
 636              		.loc 1 430 6 is_stmt 0 view .LVU177
 637 0004 2368     		ldr	r3, [r4]
 638 0006 012B     		cmp	r3, #1
 639 0008 00D0     		beq	.L60
 431:HANcoder_E407_TTA_CombineModel_V2.c ****     obj->pCumSum = 0.0F;
 432:HANcoder_E407_TTA_CombineModel_V2.c ****     for (i = 0; i < 59; i++) {
 433:HANcoder_E407_TTA_CombineModel_V2.c ****       obj->pCumSumRev[i] = 0.0F;
 434:HANcoder_E407_TTA_CombineModel_V2.c ****     }
 435:HANcoder_E407_TTA_CombineModel_V2.c **** 
 436:HANcoder_E407_TTA_CombineModel_V2.c ****     obj->pCumRevIndex = 1.0F;
 437:HANcoder_E407_TTA_CombineModel_V2.c ****     obj->pModValueRev = 0.0F;
 438:HANcoder_E407_TTA_CombineModel_V2.c ****   }
 439:HANcoder_E407_TTA_CombineModel_V2.c **** 
 440:HANcoder_E407_TTA_CombineModel_V2.c ****   /* End of InitializeConditions for MATLABSystem: '<S47>/Moving Average' */
 441:HANcoder_E407_TTA_CombineModel_V2.c **** }
 640              		.loc 1 441 1 view .LVU178
 641 000a 38BD     		pop	{r3, r4, r5, pc}
 642              	.LVL41:
 643              	.L60:
 431:HANcoder_E407_TTA_CombineModel_V2.c ****     obj->pCumSum = 0.0F;
 644              		.loc 1 431 5 is_stmt 1 view .LVU179
 431:HANcoder_E407_TTA_CombineModel_V2.c ****     obj->pCumSum = 0.0F;
 645              		.loc 1 431 18 is_stmt 0 view .LVU180
 646 000c 0025     		movs	r5, #0
 433:HANcoder_E407_TTA_CombineModel_V2.c ****     }
 647              		.loc 1 433 26 view .LVU181
 648 000e EC22     		movs	r2, #236
 431:HANcoder_E407_TTA_CombineModel_V2.c ****     obj->pCumSum = 0.0F;
 649              		.loc 1 431 18 view .LVU182
 650 0010 A560     		str	r5, [r4, #8]	@ float
 432:HANcoder_E407_TTA_CombineModel_V2.c ****       obj->pCumSumRev[i] = 0.0F;
 651              		.loc 1 432 5 is_stmt 1 view .LVU183
 652              	.LVL42:
 432:HANcoder_E407_TTA_CombineModel_V2.c ****       obj->pCumSumRev[i] = 0.0F;
 653              		.loc 1 432 19 view .LVU184
 433:HANcoder_E407_TTA_CombineModel_V2.c ****     }
 654              		.loc 1 433 26 is_stmt 0 view .LVU185
 655 0012 0021     		movs	r1, #0
 656 0014 04F10C00 		add	r0, r4, #12
 657              	.LVL43:
 433:HANcoder_E407_TTA_CombineModel_V2.c ****     }
 658              		.loc 1 433 26 view .LVU186
 659 0018 FFF7FEFF 		bl	memset
 660              	.LVL44:
 436:HANcoder_E407_TTA_CombineModel_V2.c ****     obj->pModValueRev = 0.0F;
 661              		.loc 1 436 5 is_stmt 1 view .LVU187
 436:HANcoder_E407_TTA_CombineModel_V2.c ****     obj->pModValueRev = 0.0F;
 662              		.loc 1 436 23 is_stmt 0 view .LVU188
 663 001c 4FF07E53 		mov	r3, #1065353216
 664 0020 C4F8F830 		str	r3, [r4, #248]	@ float
 437:HANcoder_E407_TTA_CombineModel_V2.c ****   }
 665              		.loc 1 437 5 is_stmt 1 view .LVU189
 437:HANcoder_E407_TTA_CombineModel_V2.c ****   }
 666              		.loc 1 437 23 is_stmt 0 view .LVU190
 667 0024 C4F8FC50 		str	r5, [r4, #252]	@ float
 668              		.loc 1 441 1 view .LVU191
 669 0028 38BD     		pop	{r3, r4, r5, pc}
 670              		.loc 1 441 1 view .LVU192
 671              		.cfi_endproc
 672              	.LFE122:
 674 002a 00BF     		.section	.text.MovingAverage_Start,"ax",%progbits
 675              		.align	1
 676              		.p2align 2,,3
 677              		.global	MovingAverage_Start
 678              		.syntax unified
 679              		.thumb
 680              		.thumb_func
 682              	MovingAverage_Start:
 683              	.LVL45:
 684              	.LFB123:
 442:HANcoder_E407_TTA_CombineModel_V2.c **** 
 443:HANcoder_E407_TTA_CombineModel_V2.c **** /* Start for atomic system: */
 444:HANcoder_E407_TTA_CombineModel_V2.c **** void MovingAverage_Start(rtDW_MovingAverage *localDW)
 445:HANcoder_E407_TTA_CombineModel_V2.c **** {
 685              		.loc 1 445 1 is_stmt 1 view -0
 686              		.cfi_startproc
 687              		@ args = 0, pretend = 0, frame = 0
 688              		@ frame_needed = 0, uses_anonymous_args = 0
 689              		@ link register save eliminated.
 446:HANcoder_E407_TTA_CombineModel_V2.c ****   /* Start for MATLABSystem: '<S47>/Moving Average' */
 447:HANcoder_E407_TTA_CombineModel_V2.c ****   localDW->obj.isInitialized = 0;
 690              		.loc 1 447 3 view .LVU194
 448:HANcoder_E407_TTA_CombineModel_V2.c ****   localDW->obj.NumChannels = -1;
 691              		.loc 1 448 3 view .LVU195
 449:HANcoder_E407_TTA_CombineModel_V2.c ****   localDW->obj.FrameLength = -1;
 692              		.loc 1 449 3 view .LVU196
 450:HANcoder_E407_TTA_CombineModel_V2.c ****   localDW->obj.matlabCodegenIsDeleted = false;
 693              		.loc 1 450 3 view .LVU197
 694              	.LBB87:
 695              	.LBB88:
 415:HANcoder_E407_TTA_CombineModel_V2.c ****   obj->_pobj0.isInitialized = 0;
 696              		.loc 1 415 29 is_stmt 0 view .LVU198
 697 0000 0246     		mov	r2, r0
 698              	.LBE88:
 699              	.LBE87:
 451:HANcoder_E407_TTA_CombineModel_V2.c ****   localDW->objisempty = true;
 700              		.loc 1 451 23 view .LVU199
 701 0002 0123     		movs	r3, #1
 450:HANcoder_E407_TTA_CombineModel_V2.c ****   localDW->obj.matlabCodegenIsDeleted = false;
 702              		.loc 1 450 39 view .LVU200
 703 0004 0021     		movs	r1, #0
 704              	.LBB91:
 705              	.LBB89:
 414:HANcoder_E407_TTA_CombineModel_V2.c ****   obj->_pobj0.isInitialized = 0;
 706              		.loc 1 414 20 view .LVU201
 707 0006 C0E90C33 		strd	r3, r3, [r0, #48]
 708              	.LBE89:
 709              	.LBE91:
 450:HANcoder_E407_TTA_CombineModel_V2.c ****   localDW->objisempty = true;
 710              		.loc 1 450 39 view .LVU202
 711 000a 0170     		strb	r1, [r0]
 712              		.loc 1 451 3 is_stmt 1 view .LVU203
 713              		.loc 1 451 23 is_stmt 0 view .LVU204
 714 000c 80F83831 		strb	r3, [r0, #312]
 452:HANcoder_E407_TTA_CombineModel_V2.c ****   SystemCore_setup(&localDW->obj);
 715              		.loc 1 452 3 is_stmt 1 view .LVU205
 716              	.LVL46:
 717              	.LBB92:
 718              	.LBI87:
 409:HANcoder_E407_TTA_CombineModel_V2.c **** {
 719              		.loc 1 409 13 view .LVU206
 720              	.LBB90:
 411:HANcoder_E407_TTA_CombineModel_V2.c ****   obj->isInitialized = 1;
 721              		.loc 1 411 3 view .LVU207
 412:HANcoder_E407_TTA_CombineModel_V2.c ****   obj->NumChannels = 1;
 722              		.loc 1 412 3 view .LVU208
 412:HANcoder_E407_TTA_CombineModel_V2.c ****   obj->NumChannels = 1;
 723              		.loc 1 412 22 is_stmt 0 view .LVU209
 724 0010 4360     		str	r3, [r0, #4]
 413:HANcoder_E407_TTA_CombineModel_V2.c ****   obj->FrameLength = 1;
 725              		.loc 1 413 3 is_stmt 1 view .LVU210
 415:HANcoder_E407_TTA_CombineModel_V2.c ****   obj->_pobj0.isInitialized = 0;
 726              		.loc 1 415 3 view .LVU211
 415:HANcoder_E407_TTA_CombineModel_V2.c ****   obj->_pobj0.isInitialized = 0;
 727              		.loc 1 415 29 is_stmt 0 view .LVU212
 728 0012 42F8381F 		str	r1, [r2, #56]!
 416:HANcoder_E407_TTA_CombineModel_V2.c ****   obj->pStatistic = &obj->_pobj0;
 729              		.loc 1 416 3 is_stmt 1 view .LVU213
 417:HANcoder_E407_TTA_CombineModel_V2.c ****   obj->isSetupComplete = true;
 730              		.loc 1 417 3 view .LVU214
 418:HANcoder_E407_TTA_CombineModel_V2.c ****   obj->TunablePropsChanged = false;
 731              		.loc 1 418 24 is_stmt 0 view .LVU215
 732 0016 0381     		strh	r3, [r0, #8]	@ movhi
 417:HANcoder_E407_TTA_CombineModel_V2.c ****   obj->isSetupComplete = true;
 733              		.loc 1 417 19 view .LVU216
 734 0018 C262     		str	r2, [r0, #44]
 418:HANcoder_E407_TTA_CombineModel_V2.c ****   obj->TunablePropsChanged = false;
 735              		.loc 1 418 3 is_stmt 1 view .LVU217
 419:HANcoder_E407_TTA_CombineModel_V2.c **** }
 736              		.loc 1 419 3 view .LVU218
 737              	.LVL47:
 419:HANcoder_E407_TTA_CombineModel_V2.c **** }
 738              		.loc 1 419 3 is_stmt 0 view .LVU219
 739              	.LBE90:
 740              	.LBE92:
 453:HANcoder_E407_TTA_CombineModel_V2.c **** }
 741              		.loc 1 453 1 view .LVU220
 742 001a 7047     		bx	lr
 743              		.cfi_endproc
 744              	.LFE123:
 746              		.section	.text.MovingAverage,"ax",%progbits
 747              		.align	1
 748              		.p2align 2,,3
 749              		.global	MovingAverage
 750              		.syntax unified
 751              		.thumb
 752              		.thumb_func
 754              	MovingAverage:
 755              	.LVL48:
 756              	.LFB124:
 454:HANcoder_E407_TTA_CombineModel_V2.c **** 
 455:HANcoder_E407_TTA_CombineModel_V2.c **** /* Output and update for atomic system: */
 456:HANcoder_E407_TTA_CombineModel_V2.c **** void MovingAverage(real32_T rtu_0, rtB_MovingAverage *localB, rtDW_MovingAverage
 457:HANcoder_E407_TTA_CombineModel_V2.c ****                    *localDW)
 458:HANcoder_E407_TTA_CombineModel_V2.c **** {
 757              		.loc 1 458 1 is_stmt 1 view -0
 758              		.cfi_startproc
 759              		@ args = 0, pretend = 0, frame = 240
 760              		@ frame_needed = 0, uses_anonymous_args = 0
 459:HANcoder_E407_TTA_CombineModel_V2.c ****   g_dsp_internal_SlidingWindowAve *obj;
 761              		.loc 1 459 3 view .LVU222
 460:HANcoder_E407_TTA_CombineModel_V2.c ****   int32_T i;
 762              		.loc 1 460 3 view .LVU223
 461:HANcoder_E407_TTA_CombineModel_V2.c ****   real32_T csumrev[59];
 763              		.loc 1 461 3 view .LVU224
 462:HANcoder_E407_TTA_CombineModel_V2.c ****   real32_T csum;
 764              		.loc 1 462 3 view .LVU225
 463:HANcoder_E407_TTA_CombineModel_V2.c ****   real32_T cumRevIndex;
 765              		.loc 1 463 3 view .LVU226
 464:HANcoder_E407_TTA_CombineModel_V2.c ****   real32_T modValueRev;
 766              		.loc 1 464 3 view .LVU227
 465:HANcoder_E407_TTA_CombineModel_V2.c ****   real32_T z;
 767              		.loc 1 465 3 view .LVU228
 466:HANcoder_E407_TTA_CombineModel_V2.c **** 
 467:HANcoder_E407_TTA_CombineModel_V2.c ****   /* MATLABSystem: '<S47>/Moving Average' */
 468:HANcoder_E407_TTA_CombineModel_V2.c ****   if (localDW->obj.TunablePropsChanged) {
 768              		.loc 1 468 3 view .LVU229
 458:HANcoder_E407_TTA_CombineModel_V2.c ****   g_dsp_internal_SlidingWindowAve *obj;
 769              		.loc 1 458 1 is_stmt 0 view .LVU230
 770 0000 2DE9F041 		push	{r4, r5, r6, r7, r8, lr}
 771              		.cfi_def_cfa_offset 24
 772              		.cfi_offset 4, -24
 773              		.cfi_offset 5, -20
 774              		.cfi_offset 6, -16
 775              		.cfi_offset 7, -12
 776              		.cfi_offset 8, -8
 777              		.cfi_offset 14, -4
 778 0004 2DED048B 		vpush.64	{d8, d9}
 779              		.cfi_def_cfa_offset 40
 780              		.cfi_offset 80, -40
 781              		.cfi_offset 81, -36
 782              		.cfi_offset 82, -32
 783              		.cfi_offset 83, -28
 784              		.loc 1 468 6 view .LVU231
 785 0008 537A     		ldrb	r3, [r2, #9]	@ zero_extendqisi2
 458:HANcoder_E407_TTA_CombineModel_V2.c ****   g_dsp_internal_SlidingWindowAve *obj;
 786              		.loc 1 458 1 view .LVU232
 787 000a 09EE100A 		vmov	s18, r0
 788 000e BCB0     		sub	sp, sp, #240
 789              		.cfi_def_cfa_offset 280
 458:HANcoder_E407_TTA_CombineModel_V2.c ****   g_dsp_internal_SlidingWindowAve *obj;
 790              		.loc 1 458 1 view .LVU233
 791 0010 0F46     		mov	r7, r1
 792              		.loc 1 468 6 view .LVU234
 793 0012 0BB1     		cbz	r3, .L63
 469:HANcoder_E407_TTA_CombineModel_V2.c ****     localDW->obj.TunablePropsChanged = false;
 794              		.loc 1 469 5 is_stmt 1 view .LVU235
 795              		.loc 1 469 38 is_stmt 0 view .LVU236
 796 0014 0023     		movs	r3, #0
 797 0016 5372     		strb	r3, [r2, #9]
 798              	.L63:
 470:HANcoder_E407_TTA_CombineModel_V2.c ****   }
 471:HANcoder_E407_TTA_CombineModel_V2.c **** 
 472:HANcoder_E407_TTA_CombineModel_V2.c ****   obj = localDW->obj.pStatistic;
 799              		.loc 1 472 3 is_stmt 1 view .LVU237
 800              		.loc 1 472 7 is_stmt 0 view .LVU238
 801 0018 D56A     		ldr	r5, [r2, #44]
 802              	.LVL49:
 473:HANcoder_E407_TTA_CombineModel_V2.c ****   if (obj->isInitialized != 1) {
 803              		.loc 1 473 3 is_stmt 1 view .LVU239
 804              		.loc 1 473 6 is_stmt 0 view .LVU240
 805 001a 2B68     		ldr	r3, [r5]
 806 001c 012B     		cmp	r3, #1
 807 001e 5FD0     		beq	.L64
 474:HANcoder_E407_TTA_CombineModel_V2.c ****     obj->isSetupComplete = false;
 808              		.loc 1 474 5 is_stmt 1 view .LVU241
 475:HANcoder_E407_TTA_CombineModel_V2.c ****     obj->isInitialized = 1;
 809              		.loc 1 475 5 view .LVU242
 476:HANcoder_E407_TTA_CombineModel_V2.c ****     obj->pCumSum = 0.0F;
 810              		.loc 1 476 18 is_stmt 0 view .LVU243
 811 0020 DFED498A 		vldr.32	s17, .L82
 475:HANcoder_E407_TTA_CombineModel_V2.c ****     obj->isInitialized = 1;
 812              		.loc 1 475 24 view .LVU244
 813 0024 0123     		movs	r3, #1
 477:HANcoder_E407_TTA_CombineModel_V2.c ****     for (i = 0; i < 59; i++) {
 478:HANcoder_E407_TTA_CombineModel_V2.c ****       obj->pCumSumRev[i] = 0.0F;
 479:HANcoder_E407_TTA_CombineModel_V2.c ****     }
 480:HANcoder_E407_TTA_CombineModel_V2.c **** 
 481:HANcoder_E407_TTA_CombineModel_V2.c ****     obj->pCumRevIndex = 1.0F;
 482:HANcoder_E407_TTA_CombineModel_V2.c ****     obj->pModValueRev = 0.0F;
 483:HANcoder_E407_TTA_CombineModel_V2.c ****     obj->isSetupComplete = true;
 484:HANcoder_E407_TTA_CombineModel_V2.c ****     obj->pCumSum = 0.0F;
 485:HANcoder_E407_TTA_CombineModel_V2.c ****     for (i = 0; i < 59; i++) {
 486:HANcoder_E407_TTA_CombineModel_V2.c ****       obj->pCumSumRev[i] = 0.0F;
 814              		.loc 1 486 26 view .LVU245
 815 0026 05F10C08 		add	r8, r5, #12
 481:HANcoder_E407_TTA_CombineModel_V2.c ****     obj->pModValueRev = 0.0F;
 816              		.loc 1 481 23 view .LVU246
 817 002a B7EE008A 		vmov.f32	s16, #1.0e+0
 818              		.loc 1 486 26 view .LVU247
 819 002e EC22     		movs	r2, #236
 820              	.LVL50:
 475:HANcoder_E407_TTA_CombineModel_V2.c ****     obj->pCumSum = 0.0F;
 821              		.loc 1 475 24 view .LVU248
 822 0030 2B60     		str	r3, [r5]
 476:HANcoder_E407_TTA_CombineModel_V2.c ****     for (i = 0; i < 59; i++) {
 823              		.loc 1 476 5 is_stmt 1 view .LVU249
 483:HANcoder_E407_TTA_CombineModel_V2.c ****     obj->pCumSum = 0.0F;
 824              		.loc 1 483 26 is_stmt 0 view .LVU250
 825 0032 2B71     		strb	r3, [r5, #4]
 826              		.loc 1 486 26 view .LVU251
 827 0034 0021     		movs	r1, #0
 828              	.LVL51:
 476:HANcoder_E407_TTA_CombineModel_V2.c ****     for (i = 0; i < 59; i++) {
 829              		.loc 1 476 18 view .LVU252
 830 0036 C5ED028A 		vstr.32	s17, [r5, #8]
 477:HANcoder_E407_TTA_CombineModel_V2.c ****       obj->pCumSumRev[i] = 0.0F;
 831              		.loc 1 477 5 is_stmt 1 view .LVU253
 832              	.LVL52:
 477:HANcoder_E407_TTA_CombineModel_V2.c ****       obj->pCumSumRev[i] = 0.0F;
 833              		.loc 1 477 19 view .LVU254
 481:HANcoder_E407_TTA_CombineModel_V2.c ****     obj->pModValueRev = 0.0F;
 834              		.loc 1 481 5 view .LVU255
 481:HANcoder_E407_TTA_CombineModel_V2.c ****     obj->pModValueRev = 0.0F;
 835              		.loc 1 481 23 is_stmt 0 view .LVU256
 836 003a 85ED3E8A 		vstr.32	s16, [r5, #248]
 482:HANcoder_E407_TTA_CombineModel_V2.c ****     obj->isSetupComplete = true;
 837              		.loc 1 482 5 is_stmt 1 view .LVU257
 482:HANcoder_E407_TTA_CombineModel_V2.c ****     obj->isSetupComplete = true;
 838              		.loc 1 482 23 is_stmt 0 view .LVU258
 839 003e C5ED3F8A 		vstr.32	s17, [r5, #252]
 483:HANcoder_E407_TTA_CombineModel_V2.c ****     obj->pCumSum = 0.0F;
 840              		.loc 1 483 5 is_stmt 1 view .LVU259
 484:HANcoder_E407_TTA_CombineModel_V2.c ****     for (i = 0; i < 59; i++) {
 841              		.loc 1 484 5 view .LVU260
 485:HANcoder_E407_TTA_CombineModel_V2.c ****       obj->pCumSumRev[i] = 0.0F;
 842              		.loc 1 485 5 view .LVU261
 843              	.LVL53:
 485:HANcoder_E407_TTA_CombineModel_V2.c ****       obj->pCumSumRev[i] = 0.0F;
 844              		.loc 1 485 19 view .LVU262
 845              		.loc 1 486 26 is_stmt 0 view .LVU263
 846 0042 4046     		mov	r0, r8
 847              	.LVL54:
 487:HANcoder_E407_TTA_CombineModel_V2.c ****     }
 488:HANcoder_E407_TTA_CombineModel_V2.c **** 
 489:HANcoder_E407_TTA_CombineModel_V2.c ****     obj->pCumRevIndex = 1.0F;
 490:HANcoder_E407_TTA_CombineModel_V2.c ****     obj->pModValueRev = 0.0F;
 491:HANcoder_E407_TTA_CombineModel_V2.c ****   }
 492:HANcoder_E407_TTA_CombineModel_V2.c **** 
 493:HANcoder_E407_TTA_CombineModel_V2.c ****   cumRevIndex = obj->pCumRevIndex;
 494:HANcoder_E407_TTA_CombineModel_V2.c ****   csum = obj->pCumSum;
 495:HANcoder_E407_TTA_CombineModel_V2.c ****   for (i = 0; i < 59; i++) {
 496:HANcoder_E407_TTA_CombineModel_V2.c ****     csumrev[i] = obj->pCumSumRev[i];
 848              		.loc 1 496 16 view .LVU264
 849 0044 01AC     		add	r4, sp, #4
 486:HANcoder_E407_TTA_CombineModel_V2.c ****     }
 850              		.loc 1 486 26 view .LVU265
 851 0046 FFF7FEFF 		bl	memset
 852              	.LVL55:
 493:HANcoder_E407_TTA_CombineModel_V2.c ****   csum = obj->pCumSum;
 853              		.loc 1 493 3 is_stmt 1 view .LVU266
 494:HANcoder_E407_TTA_CombineModel_V2.c ****   for (i = 0; i < 59; i++) {
 854              		.loc 1 494 3 view .LVU267
 495:HANcoder_E407_TTA_CombineModel_V2.c ****     csumrev[i] = obj->pCumSumRev[i];
 855              		.loc 1 495 3 view .LVU268
 495:HANcoder_E407_TTA_CombineModel_V2.c ****     csumrev[i] = obj->pCumSumRev[i];
 856              		.loc 1 495 17 view .LVU269
 857              		.loc 1 496 16 is_stmt 0 view .LVU270
 858 004a EC22     		movs	r2, #236
 859 004c 4146     		mov	r1, r8
 860 004e 2046     		mov	r0, r4
 861 0050 FFF7FEFF 		bl	memcpy
 862              	.LVL56:
 497:HANcoder_E407_TTA_CombineModel_V2.c ****   }
 498:HANcoder_E407_TTA_CombineModel_V2.c **** 
 499:HANcoder_E407_TTA_CombineModel_V2.c ****   modValueRev = obj->pModValueRev;
 863              		.loc 1 499 3 is_stmt 1 view .LVU271
 500:HANcoder_E407_TTA_CombineModel_V2.c ****   z = 0.0F;
 864              		.loc 1 500 3 view .LVU272
 501:HANcoder_E407_TTA_CombineModel_V2.c **** 
 502:HANcoder_E407_TTA_CombineModel_V2.c ****   /* MATLABSystem: '<S47>/Moving Average' */
 503:HANcoder_E407_TTA_CombineModel_V2.c ****   localB->MovingAverage_n = 0.0F;
 865              		.loc 1 503 3 view .LVU273
 504:HANcoder_E407_TTA_CombineModel_V2.c **** 
 505:HANcoder_E407_TTA_CombineModel_V2.c ****   /* MATLABSystem: '<S47>/Moving Average' */
 506:HANcoder_E407_TTA_CombineModel_V2.c ****   csum += rtu_0;
 866              		.loc 1 506 8 is_stmt 0 view .LVU274
 867 0054 79EE287A 		vadd.f32	s15, s18, s17
 868 0058 F0EE689A 		vmov.f32	s19, s17
 869 005c 0026     		movs	r6, #0
 503:HANcoder_E407_TTA_CombineModel_V2.c **** 
 870              		.loc 1 503 27 view .LVU275
 871 005e C7ED008A 		vstr.32	s17, [r7]
 872              		.loc 1 506 3 is_stmt 1 view .LVU276
 873              	.LVL57:
 507:HANcoder_E407_TTA_CombineModel_V2.c ****   if (modValueRev == 0.0F) {
 874              		.loc 1 507 3 view .LVU277
 875              	.L65:
 508:HANcoder_E407_TTA_CombineModel_V2.c ****     z = csumrev[(int32_T)cumRevIndex - 1] + csum;
 876              		.loc 1 508 5 view .LVU278
 877              		.loc 1 508 16 is_stmt 0 view .LVU279
 878 0062 3CAB     		add	r3, sp, #240
 879 0064 03EB8603 		add	r3, r3, r6, lsl #2
 880              		.loc 1 508 7 view .LVU280
 881 0068 13ED3B7A 		vldr.32	s14, [r3, #-236]
 882 006c 77EE876A 		vadd.f32	s13, s15, s14
 883              	.LVL58:
 884              		.loc 1 508 16 view .LVU281
 885 0070 B600     		lsls	r6, r6, #2
 886              	.LVL59:
 887              	.L66:
 509:HANcoder_E407_TTA_CombineModel_V2.c ****   }
 510:HANcoder_E407_TTA_CombineModel_V2.c **** 
 511:HANcoder_E407_TTA_CombineModel_V2.c ****   csumrev[(int32_T)cumRevIndex - 1] = rtu_0;
 888              		.loc 1 511 3 is_stmt 1 view .LVU282
 512:HANcoder_E407_TTA_CombineModel_V2.c ****   if (cumRevIndex != 59.0F) {
 889              		.loc 1 512 6 is_stmt 0 view .LVU283
 890 0072 9FED367A 		vldr.32	s14, .L82+4
 511:HANcoder_E407_TTA_CombineModel_V2.c ****   if (cumRevIndex != 59.0F) {
 891              		.loc 1 511 37 view .LVU284
 892 0076 06F1F003 		add	r3, r6, #240
 893              		.loc 1 512 6 view .LVU285
 894 007a B4EE478A 		vcmp.f32	s16, s14
 511:HANcoder_E407_TTA_CombineModel_V2.c ****   if (cumRevIndex != 59.0F) {
 895              		.loc 1 511 37 view .LVU286
 896 007e 0DEB0306 		add	r6, sp, r3
 897              		.loc 1 512 6 view .LVU287
 898 0082 F1EE10FA 		vmrs	APSR_nzcv, FPSCR
 511:HANcoder_E407_TTA_CombineModel_V2.c ****   if (cumRevIndex != 59.0F) {
 899              		.loc 1 511 37 view .LVU288
 900 0086 06ED3B9A 		vstr.32	s18, [r6, #-236]
 901              		.loc 1 512 3 is_stmt 1 view .LVU289
 902              		.loc 1 512 6 is_stmt 0 view .LVU290
 903 008a 4CD0     		beq	.L67
 513:HANcoder_E407_TTA_CombineModel_V2.c ****     cumRevIndex++;
 904              		.loc 1 513 5 is_stmt 1 view .LVU291
 905              		.loc 1 513 16 is_stmt 0 view .LVU292
 906 008c B7EE007A 		vmov.f32	s14, #1.0e+0
 907 0090 38EE078A 		vadd.f32	s16, s16, s14
 908              	.LVL60:
 909              	.L68:
 514:HANcoder_E407_TTA_CombineModel_V2.c ****   } else {
 515:HANcoder_E407_TTA_CombineModel_V2.c ****     cumRevIndex = 1.0F;
 516:HANcoder_E407_TTA_CombineModel_V2.c ****     csum = 0.0F;
 517:HANcoder_E407_TTA_CombineModel_V2.c ****     for (i = 57; i >= 0; i--) {
 518:HANcoder_E407_TTA_CombineModel_V2.c ****       csumrev[i] += csumrev[i + 1];
 519:HANcoder_E407_TTA_CombineModel_V2.c ****     }
 520:HANcoder_E407_TTA_CombineModel_V2.c ****   }
 521:HANcoder_E407_TTA_CombineModel_V2.c **** 
 522:HANcoder_E407_TTA_CombineModel_V2.c ****   if (modValueRev == 0.0F) {
 910              		.loc 1 522 3 is_stmt 1 view .LVU293
 911              		.loc 1 522 6 is_stmt 0 view .LVU294
 912 0094 F5EE409A 		vcmp.f32	s19, #0
 913 0098 F1EE10FA 		vmrs	APSR_nzcv, FPSCR
 914 009c 05D1     		bne	.L70
 523:HANcoder_E407_TTA_CombineModel_V2.c ****     /* MATLABSystem: '<S47>/Moving Average' */
 524:HANcoder_E407_TTA_CombineModel_V2.c ****     localB->MovingAverage_n = z / 60.0F;
 915              		.loc 1 524 5 is_stmt 1 view .LVU295
 916              		.loc 1 524 33 is_stmt 0 view .LVU296
 917 009e 9FED2C6A 		vldr.32	s12, .L82+8
 918 00a2 86EE867A 		vdiv.f32	s14, s13, s12
 919              		.loc 1 524 29 view .LVU297
 920 00a6 87ED007A 		vstr.32	s14, [r7]
 921              	.L70:
 525:HANcoder_E407_TTA_CombineModel_V2.c ****   }
 526:HANcoder_E407_TTA_CombineModel_V2.c **** 
 527:HANcoder_E407_TTA_CombineModel_V2.c ****   obj->pCumSum = csum;
 922              		.loc 1 527 3 is_stmt 1 view .LVU298
 923              		.loc 1 527 16 is_stmt 0 view .LVU299
 924 00aa C5ED027A 		vstr.32	s15, [r5, #8]
 528:HANcoder_E407_TTA_CombineModel_V2.c ****   for (i = 0; i < 59; i++) {
 925              		.loc 1 528 3 is_stmt 1 view .LVU300
 926              	.LVL61:
 927              		.loc 1 528 17 view .LVU301
 529:HANcoder_E407_TTA_CombineModel_V2.c ****     obj->pCumSumRev[i] = csumrev[i];
 928              		.loc 1 529 24 is_stmt 0 view .LVU302
 929 00ae EC22     		movs	r2, #236
 930 00b0 2146     		mov	r1, r4
 931 00b2 4046     		mov	r0, r8
 932 00b4 FFF7FEFF 		bl	memcpy
 933              	.LVL62:
 530:HANcoder_E407_TTA_CombineModel_V2.c ****   }
 531:HANcoder_E407_TTA_CombineModel_V2.c **** 
 532:HANcoder_E407_TTA_CombineModel_V2.c ****   obj->pCumRevIndex = cumRevIndex;
 934              		.loc 1 532 3 is_stmt 1 view .LVU303
 533:HANcoder_E407_TTA_CombineModel_V2.c ****   if (modValueRev > 0.0F) {
 935              		.loc 1 533 6 is_stmt 0 view .LVU304
 936 00b8 F5EEC09A 		vcmpe.f32	s19, #0
 937 00bc F1EE10FA 		vmrs	APSR_nzcv, FPSCR
 534:HANcoder_E407_TTA_CombineModel_V2.c ****     obj->pModValueRev = modValueRev - 1.0F;
 938              		.loc 1 534 37 view .LVU305
 939 00c0 C6BF     		itte	gt
 940 00c2 F7EE007A 		vmovgt.f32	s15, #1.0e+0
 941 00c6 79EEE77A 		vsubgt.f32	s15, s19, s15
 535:HANcoder_E407_TTA_CombineModel_V2.c ****   } else {
 536:HANcoder_E407_TTA_CombineModel_V2.c ****     obj->pModValueRev = 0.0F;
 942              		.loc 1 536 23 view .LVU306
 943 00ca DFED1F7A 		vldrle.32	s15, .L82
 532:HANcoder_E407_TTA_CombineModel_V2.c ****   if (modValueRev > 0.0F) {
 944              		.loc 1 532 21 view .LVU307
 945 00ce 85ED3E8A 		vstr.32	s16, [r5, #248]
 533:HANcoder_E407_TTA_CombineModel_V2.c ****     obj->pModValueRev = modValueRev - 1.0F;
 946              		.loc 1 533 3 is_stmt 1 view .LVU308
 534:HANcoder_E407_TTA_CombineModel_V2.c ****   } else {
 947              		.loc 1 534 5 view .LVU309
 948 00d2 C5ED3F7A 		vstr.32	s15, [r5, #252]
 537:HANcoder_E407_TTA_CombineModel_V2.c ****   }
 538:HANcoder_E407_TTA_CombineModel_V2.c **** }
 949              		.loc 1 538 1 is_stmt 0 view .LVU310
 950 00d6 3CB0     		add	sp, sp, #240
 951              		.cfi_remember_state
 952              		.cfi_def_cfa_offset 40
 953              		@ sp needed
 954 00d8 BDEC048B 		vldm	sp!, {d8-d9}
 955              		.cfi_restore 82
 956              		.cfi_restore 83
 957              		.cfi_restore 80
 958              		.cfi_restore 81
 959              		.cfi_def_cfa_offset 24
 960              	.LVL63:
 961              		.loc 1 538 1 view .LVU311
 962 00dc BDE8F081 		pop	{r4, r5, r6, r7, r8, pc}
 963              	.LVL64:
 964              	.L64:
 965              		.cfi_restore_state
 493:HANcoder_E407_TTA_CombineModel_V2.c ****   csum = obj->pCumSum;
 966              		.loc 1 493 15 view .LVU312
 967 00e0 95ED3E8A 		vldr.32	s16, [r5, #248]
 494:HANcoder_E407_TTA_CombineModel_V2.c ****   for (i = 0; i < 59; i++) {
 968              		.loc 1 494 8 view .LVU313
 969 00e4 D5ED028A 		vldr.32	s17, [r5, #8]
 499:HANcoder_E407_TTA_CombineModel_V2.c ****   z = 0.0F;
 970              		.loc 1 499 15 view .LVU314
 971 00e8 D5ED3F9A 		vldr.32	s19, [r5, #252]
 493:HANcoder_E407_TTA_CombineModel_V2.c ****   csum = obj->pCumSum;
 972              		.loc 1 493 3 is_stmt 1 view .LVU315
 973              	.LVL65:
 494:HANcoder_E407_TTA_CombineModel_V2.c ****   for (i = 0; i < 59; i++) {
 974              		.loc 1 494 3 view .LVU316
 495:HANcoder_E407_TTA_CombineModel_V2.c ****     csumrev[i] = obj->pCumSumRev[i];
 975              		.loc 1 495 3 view .LVU317
 495:HANcoder_E407_TTA_CombineModel_V2.c ****     csumrev[i] = obj->pCumSumRev[i];
 976              		.loc 1 495 17 view .LVU318
 508:HANcoder_E407_TTA_CombineModel_V2.c ****   }
 977              		.loc 1 508 17 is_stmt 0 view .LVU319
 978 00ec FDEEC87A 		vcvt.s32.f32	s15, s16
 979 00f0 05F10C08 		add	r8, r5, #12
 496:HANcoder_E407_TTA_CombineModel_V2.c ****   }
 980              		.loc 1 496 16 view .LVU320
 981 00f4 01AC     		add	r4, sp, #4
 982 00f6 EC22     		movs	r2, #236
 983              	.LVL66:
 496:HANcoder_E407_TTA_CombineModel_V2.c ****   }
 984              		.loc 1 496 16 view .LVU321
 985 00f8 4146     		mov	r1, r8
 986              	.LVL67:
 496:HANcoder_E407_TTA_CombineModel_V2.c ****   }
 987              		.loc 1 496 16 view .LVU322
 988 00fa 2046     		mov	r0, r4
 989              	.LVL68:
 508:HANcoder_E407_TTA_CombineModel_V2.c ****   }
 990              		.loc 1 508 17 view .LVU323
 991 00fc 17EE906A 		vmov	r6, s15	@ int
 496:HANcoder_E407_TTA_CombineModel_V2.c ****   }
 992              		.loc 1 496 16 view .LVU324
 993 0100 FFF7FEFF 		bl	memcpy
 994              	.LVL69:
 499:HANcoder_E407_TTA_CombineModel_V2.c ****   z = 0.0F;
 995              		.loc 1 499 3 is_stmt 1 view .LVU325
 500:HANcoder_E407_TTA_CombineModel_V2.c **** 
 996              		.loc 1 500 3 view .LVU326
 503:HANcoder_E407_TTA_CombineModel_V2.c **** 
 997              		.loc 1 503 3 view .LVU327
 503:HANcoder_E407_TTA_CombineModel_V2.c **** 
 998              		.loc 1 503 27 is_stmt 0 view .LVU328
 999 0104 9FED107A 		vldr.32	s14, .L82
 507:HANcoder_E407_TTA_CombineModel_V2.c ****     z = csumrev[(int32_T)cumRevIndex - 1] + csum;
 1000              		.loc 1 507 6 view .LVU329
 1001 0108 F4EE479A 		vcmp.f32	s19, s14
 1002 010c F1EE10FA 		vmrs	APSR_nzcv, FPSCR
 506:HANcoder_E407_TTA_CombineModel_V2.c ****   if (modValueRev == 0.0F) {
 1003              		.loc 1 506 8 view .LVU330
 1004 0110 78EE897A 		vadd.f32	s15, s17, s18
 508:HANcoder_E407_TTA_CombineModel_V2.c ****   }
 1005              		.loc 1 508 38 view .LVU331
 1006 0114 06F1FF36 		add	r6, r6, #-1
 503:HANcoder_E407_TTA_CombineModel_V2.c **** 
 1007              		.loc 1 503 27 view .LVU332
 1008 0118 87ED007A 		vstr.32	s14, [r7]
 506:HANcoder_E407_TTA_CombineModel_V2.c ****   if (modValueRev == 0.0F) {
 1009              		.loc 1 506 3 is_stmt 1 view .LVU333
 1010              	.LVL70:
 507:HANcoder_E407_TTA_CombineModel_V2.c ****     z = csumrev[(int32_T)cumRevIndex - 1] + csum;
 1011              		.loc 1 507 3 view .LVU334
 507:HANcoder_E407_TTA_CombineModel_V2.c ****     z = csumrev[(int32_T)cumRevIndex - 1] + csum;
 1012              		.loc 1 507 6 is_stmt 0 view .LVU335
 1013 011c A1D0     		beq	.L65
 500:HANcoder_E407_TTA_CombineModel_V2.c **** 
 1014              		.loc 1 500 5 view .LVU336
 1015 011e F0EE476A 		vmov.f32	s13, s14
 1016 0122 B600     		lsls	r6, r6, #2
 1017 0124 A5E7     		b	.L66
 1018              	.LVL71:
 1019              	.L67:
 500:HANcoder_E407_TTA_CombineModel_V2.c **** 
 1020              		.loc 1 500 5 view .LVU337
 1021 0126 DDED3B7A 		vldr.32	s15, [sp, #236]
 1022              	.LVL72:
 500:HANcoder_E407_TTA_CombineModel_V2.c **** 
 1023              		.loc 1 500 5 view .LVU338
 1024 012a 3BAB     		add	r3, sp, #236
 1025              	.LVL73:
 1026              	.L69:
 518:HANcoder_E407_TTA_CombineModel_V2.c ****     }
 1027              		.loc 1 518 7 is_stmt 1 discriminator 3 view .LVU339
 518:HANcoder_E407_TTA_CombineModel_V2.c ****     }
 1028              		.loc 1 518 18 is_stmt 0 discriminator 3 view .LVU340
 1029 012c 33ED017A 		vldmdb.32	r3!, {s14}
 1030 0130 77EE877A 		vadd.f32	s15, s15, s14
 517:HANcoder_E407_TTA_CombineModel_V2.c ****       csumrev[i] += csumrev[i + 1];
 1031              		.loc 1 517 20 discriminator 3 view .LVU341
 1032 0134 A342     		cmp	r3, r4
 518:HANcoder_E407_TTA_CombineModel_V2.c ****     }
 1033              		.loc 1 518 18 discriminator 3 view .LVU342
 1034 0136 C3ED007A 		vstr.32	s15, [r3]
 517:HANcoder_E407_TTA_CombineModel_V2.c ****       csumrev[i] += csumrev[i + 1];
 1035              		.loc 1 517 27 is_stmt 1 discriminator 3 view .LVU343
 517:HANcoder_E407_TTA_CombineModel_V2.c ****       csumrev[i] += csumrev[i + 1];
 1036              		.loc 1 517 20 discriminator 3 view .LVU344
 1037 013a F7D1     		bne	.L69
 516:HANcoder_E407_TTA_CombineModel_V2.c ****     for (i = 57; i >= 0; i--) {
 1038              		.loc 1 516 10 is_stmt 0 view .LVU345
 1039 013c DFED027A 		vldr.32	s15, .L82
 515:HANcoder_E407_TTA_CombineModel_V2.c ****     csum = 0.0F;
 1040              		.loc 1 515 17 view .LVU346
 1041 0140 B7EE008A 		vmov.f32	s16, #1.0e+0
 1042 0144 A6E7     		b	.L68
 1043              	.L83:
 1044 0146 00BF     		.align	2
 1045              	.L82:
 1046 0148 00000000 		.word	0
 1047 014c 00006C42 		.word	1114374144
 1048 0150 00007042 		.word	1114636288
 1049              		.cfi_endproc
 1050              	.LFE124:
 1052              		.section	.text.BitShift,"ax",%progbits
 1053              		.align	1
 1054              		.p2align 2,,3
 1055              		.global	BitShift
 1056              		.syntax unified
 1057              		.thumb
 1058              		.thumb_func
 1060              	BitShift:
 1061              	.LVL74:
 1062              	.LFB125:
 539:HANcoder_E407_TTA_CombineModel_V2.c **** 
 540:HANcoder_E407_TTA_CombineModel_V2.c **** /*
 541:HANcoder_E407_TTA_CombineModel_V2.c ****  * Output and update for atomic system:
 542:HANcoder_E407_TTA_CombineModel_V2.c ****  *    '<S121>/Bit Shift'
 543:HANcoder_E407_TTA_CombineModel_V2.c ****  *    '<S122>/Bit Shift'
 544:HANcoder_E407_TTA_CombineModel_V2.c ****  *    '<S128>/Bit Shift'
 545:HANcoder_E407_TTA_CombineModel_V2.c ****  *    '<S129>/Bit Shift'
 546:HANcoder_E407_TTA_CombineModel_V2.c ****  *    '<S137>/Bit Shift'
 547:HANcoder_E407_TTA_CombineModel_V2.c ****  *    '<S138>/Bit Shift'
 548:HANcoder_E407_TTA_CombineModel_V2.c ****  *    '<S151>/Bit Shift'
 549:HANcoder_E407_TTA_CombineModel_V2.c ****  *    '<S152>/Bit Shift'
 550:HANcoder_E407_TTA_CombineModel_V2.c ****  *    '<S163>/Bit Shift'
 551:HANcoder_E407_TTA_CombineModel_V2.c ****  *    '<S164>/Bit Shift'
 552:HANcoder_E407_TTA_CombineModel_V2.c ****  */
 553:HANcoder_E407_TTA_CombineModel_V2.c **** void BitShift(uint16_T rtu_u, rtB_BitShift *localB)
 554:HANcoder_E407_TTA_CombineModel_V2.c **** {
 1063              		.loc 1 554 1 is_stmt 1 view -0
 1064              		.cfi_startproc
 1065              		@ args = 0, pretend = 0, frame = 0
 1066              		@ frame_needed = 0, uses_anonymous_args = 0
 1067              		@ link register save eliminated.
 555:HANcoder_E407_TTA_CombineModel_V2.c ****   /* MATLAB Function: '<S123>/bit_shift' */
 556:HANcoder_E407_TTA_CombineModel_V2.c ****   /* MATLAB Function 'Logic and Bit Operations/Bit Shift/bit_shift': '<S124>:1' */
 557:HANcoder_E407_TTA_CombineModel_V2.c ****   /* '<S124>:1:8' */
 558:HANcoder_E407_TTA_CombineModel_V2.c ****   localB->y = (uint16_T)((uint32_T)rtu_u >> 8);
 1068              		.loc 1 558 3 view .LVU348
 1069              		.loc 1 558 15 is_stmt 0 view .LVU349
 1070 0000 000A     		lsrs	r0, r0, #8
 1071              	.LVL75:
 1072              		.loc 1 558 13 view .LVU350
 1073 0002 0880     		strh	r0, [r1]	@ movhi
 559:HANcoder_E407_TTA_CombineModel_V2.c **** }
 1074              		.loc 1 559 1 view .LVU351
 1075 0004 7047     		bx	lr
 1076              		.cfi_endproc
 1077              	.LFE125:
 1079 0006 00BF     		.section	.text.TRCK1_ID2_TX,"ax",%progbits
 1080              		.align	1
 1081              		.p2align 2,,3
 1082              		.global	TRCK1_ID2_TX
 1083              		.syntax unified
 1084              		.thumb
 1085              		.thumb_func
 1087              	TRCK1_ID2_TX:
 1088              	.LVL76:
 1089              	.LFB126:
 560:HANcoder_E407_TTA_CombineModel_V2.c **** 
 561:HANcoder_E407_TTA_CombineModel_V2.c **** /*
 562:HANcoder_E407_TTA_CombineModel_V2.c ****  * Output and update for trigger system:
 563:HANcoder_E407_TTA_CombineModel_V2.c ****  *    '<S8>/TRCK1_ID2_TX'
 564:HANcoder_E407_TTA_CombineModel_V2.c ****  *    '<S8>/TRCK1_ID3_TX'
 565:HANcoder_E407_TTA_CombineModel_V2.c ****  *    '<S8>/TRCK1_TX'
 566:HANcoder_E407_TTA_CombineModel_V2.c ****  */
 567:HANcoder_E407_TTA_CombineModel_V2.c **** void TRCK1_ID2_TX(boolean_T rtu_Trigger, uint32_T rtu_In1, const uint8_T
 568:HANcoder_E407_TTA_CombineModel_V2.c ****                   *rtd_Local_Ticks, const uint16_T *rtd_potentiometer1, const
 569:HANcoder_E407_TTA_CombineModel_V2.c ****                   uint16_T *rtd_potentiometer2, rtB_TRCK1_ID2_TX *localB,
 570:HANcoder_E407_TTA_CombineModel_V2.c ****                   rtZCE_TRCK1_ID2_TX *localZCE)
 571:HANcoder_E407_TTA_CombineModel_V2.c **** {
 1090              		.loc 1 571 1 is_stmt 1 view -0
 1091              		.cfi_startproc
 1092              		@ args = 12, pretend = 0, frame = 0
 1093              		@ frame_needed = 0, uses_anonymous_args = 0
 572:HANcoder_E407_TTA_CombineModel_V2.c ****   /* Outputs for Triggered SubSystem: '<S8>/TRCK1_ID2_TX' incorporates:
 573:HANcoder_E407_TTA_CombineModel_V2.c ****    *  TriggerPort: '<S28>/Trigger'
 574:HANcoder_E407_TTA_CombineModel_V2.c ****    */
 575:HANcoder_E407_TTA_CombineModel_V2.c ****   if (rtu_Trigger && (localZCE->TRCK1_ID2_TX_Trig_ZCE != POS_ZCSIG)) {
 1094              		.loc 1 575 3 view .LVU353
 571:HANcoder_E407_TTA_CombineModel_V2.c ****   /* Outputs for Triggered SubSystem: '<S8>/TRCK1_ID2_TX' incorporates:
 1095              		.loc 1 571 1 is_stmt 0 view .LVU354
 1096 0000 70B5     		push	{r4, r5, r6, lr}
 1097              		.cfi_def_cfa_offset 16
 1098              		.cfi_offset 4, -16
 1099              		.cfi_offset 5, -12
 1100              		.cfi_offset 6, -8
 1101              		.cfi_offset 14, -4
 1102              		.loc 1 575 6 view .LVU355
 1103 0002 0446     		mov	r4, r0
 571:HANcoder_E407_TTA_CombineModel_V2.c ****   /* Outputs for Triggered SubSystem: '<S8>/TRCK1_ID2_TX' incorporates:
 1104              		.loc 1 571 1 view .LVU356
 1105 0004 DDE90556 		ldrd	r5, r6, [sp, #20]
 1106              		.loc 1 575 6 view .LVU357
 1107 0008 10B1     		cbz	r0, .L86
 1108              		.loc 1 575 19 discriminator 1 view .LVU358
 1109 000a 3078     		ldrb	r0, [r6]	@ zero_extendqisi2
 1110              	.LVL77:
 1111              		.loc 1 575 19 discriminator 1 view .LVU359
 1112 000c 0128     		cmp	r0, #1
 1113 000e 01D1     		bne	.L94
 1114              	.L86:
 576:HANcoder_E407_TTA_CombineModel_V2.c ****     /* DataStoreRead: '<S28>/Data Store Read2' */
 577:HANcoder_E407_TTA_CombineModel_V2.c ****     localB->DataStoreRead2 = *rtd_Local_Ticks;
 578:HANcoder_E407_TTA_CombineModel_V2.c **** 
 579:HANcoder_E407_TTA_CombineModel_V2.c ****     /* Outputs for Atomic SubSystem: '<S121>/Bit Shift' */
 580:HANcoder_E407_TTA_CombineModel_V2.c ****     /* DataStoreRead: '<S28>/Data Store Read1' */
 581:HANcoder_E407_TTA_CombineModel_V2.c ****     BitShift(*rtd_potentiometer2, &localB->BitShift_o);
 582:HANcoder_E407_TTA_CombineModel_V2.c **** 
 583:HANcoder_E407_TTA_CombineModel_V2.c ****     /* End of Outputs for SubSystem: '<S121>/Bit Shift' */
 584:HANcoder_E407_TTA_CombineModel_V2.c **** 
 585:HANcoder_E407_TTA_CombineModel_V2.c ****     /* DataTypeConversion: '<S121>/Cast' */
 586:HANcoder_E407_TTA_CombineModel_V2.c ****     localB->Cast = (uint8_T)localB->BitShift_o.y;
 587:HANcoder_E407_TTA_CombineModel_V2.c **** 
 588:HANcoder_E407_TTA_CombineModel_V2.c ****     /* DataTypeConversion: '<S121>/Cast1' incorporates:
 589:HANcoder_E407_TTA_CombineModel_V2.c ****      *  DataStoreRead: '<S28>/Data Store Read1'
 590:HANcoder_E407_TTA_CombineModel_V2.c ****      */
 591:HANcoder_E407_TTA_CombineModel_V2.c ****     localB->Cast1 = (uint8_T)*rtd_potentiometer2;
 592:HANcoder_E407_TTA_CombineModel_V2.c **** 
 593:HANcoder_E407_TTA_CombineModel_V2.c ****     /* Outputs for Atomic SubSystem: '<S122>/Bit Shift' */
 594:HANcoder_E407_TTA_CombineModel_V2.c ****     /* DataStoreRead: '<S28>/Data Store Read' */
 595:HANcoder_E407_TTA_CombineModel_V2.c ****     BitShift(*rtd_potentiometer1, &localB->BitShift_h);
 596:HANcoder_E407_TTA_CombineModel_V2.c **** 
 597:HANcoder_E407_TTA_CombineModel_V2.c ****     /* End of Outputs for SubSystem: '<S122>/Bit Shift' */
 598:HANcoder_E407_TTA_CombineModel_V2.c **** 
 599:HANcoder_E407_TTA_CombineModel_V2.c ****     /* DataTypeConversion: '<S122>/Cast' */
 600:HANcoder_E407_TTA_CombineModel_V2.c ****     localB->Cast_k = (uint8_T)localB->BitShift_h.y;
 601:HANcoder_E407_TTA_CombineModel_V2.c **** 
 602:HANcoder_E407_TTA_CombineModel_V2.c ****     /* DataTypeConversion: '<S122>/Cast1' incorporates:
 603:HANcoder_E407_TTA_CombineModel_V2.c ****      *  DataStoreRead: '<S28>/Data Store Read'
 604:HANcoder_E407_TTA_CombineModel_V2.c ****      */
 605:HANcoder_E407_TTA_CombineModel_V2.c ****     localB->Cast1_i = (uint8_T)*rtd_potentiometer1;
 606:HANcoder_E407_TTA_CombineModel_V2.c **** 
 607:HANcoder_E407_TTA_CombineModel_V2.c ****     /* Update for M-S-Function: '<S120>/S-Function' */
 608:HANcoder_E407_TTA_CombineModel_V2.c ****     {
 609:HANcoder_E407_TTA_CombineModel_V2.c ****       /* prepare the data */
 610:HANcoder_E407_TTA_CombineModel_V2.c ****       canTxData.uint8_T_info[0] = localB->Cast_k;
 611:HANcoder_E407_TTA_CombineModel_V2.c ****       canTxData.uint8_T_info[1] = localB->Cast1_i;
 612:HANcoder_E407_TTA_CombineModel_V2.c ****       canTxData.uint8_T_info[2] = localB->Cast;
 613:HANcoder_E407_TTA_CombineModel_V2.c ****       canTxData.uint8_T_info[3] = localB->Cast1;
 614:HANcoder_E407_TTA_CombineModel_V2.c ****       canTxData.uint8_T_info[4] = localB->DataStoreRead2;
 615:HANcoder_E407_TTA_CombineModel_V2.c **** 
 616:HANcoder_E407_TTA_CombineModel_V2.c ****       /* send the data */
 617:HANcoder_E407_TTA_CombineModel_V2.c ****       CanTransmit(0, rtu_In1, 5, &canTxData.uint8_T_info[0]);
 618:HANcoder_E407_TTA_CombineModel_V2.c ****     }
 619:HANcoder_E407_TTA_CombineModel_V2.c ****   }
 620:HANcoder_E407_TTA_CombineModel_V2.c **** 
 621:HANcoder_E407_TTA_CombineModel_V2.c ****   localZCE->TRCK1_ID2_TX_Trig_ZCE = rtu_Trigger;
 1115              		.loc 1 621 3 is_stmt 1 view .LVU360
 1116              		.loc 1 621 35 is_stmt 0 view .LVU361
 1117 0010 3470     		strb	r4, [r6]
 622:HANcoder_E407_TTA_CombineModel_V2.c **** 
 623:HANcoder_E407_TTA_CombineModel_V2.c ****   /* End of Outputs for SubSystem: '<S8>/TRCK1_ID2_TX' */
 624:HANcoder_E407_TTA_CombineModel_V2.c **** }
 1118              		.loc 1 624 1 view .LVU362
 1119 0012 70BD     		pop	{r4, r5, r6, pc}
 1120              	.LVL78:
 1121              	.L94:
 577:HANcoder_E407_TTA_CombineModel_V2.c **** 
 1122              		.loc 1 577 5 is_stmt 1 view .LVU363
 577:HANcoder_E407_TTA_CombineModel_V2.c **** 
 1123              		.loc 1 577 30 is_stmt 0 view .LVU364
 1124 0014 92F800C0 		ldrb	ip, [r2]	@ zero_extendqisi2
 1125              	.LBB93:
 1126              	.LBB94:
 558:HANcoder_E407_TTA_CombineModel_V2.c **** }
 1127              		.loc 1 558 15 view .LVU365
 1128 0018 049A     		ldr	r2, [sp, #16]
 1129              	.LVL79:
 558:HANcoder_E407_TTA_CombineModel_V2.c **** }
 1130              		.loc 1 558 15 view .LVU366
 1131              	.LBE94:
 1132              	.LBE93:
 577:HANcoder_E407_TTA_CombineModel_V2.c **** 
 1133              		.loc 1 577 28 view .LVU367
 1134 001a 85F800C0 		strb	ip, [r5]
 581:HANcoder_E407_TTA_CombineModel_V2.c **** 
 1135              		.loc 1 581 5 is_stmt 1 view .LVU368
 1136              	.LVL80:
 1137              	.LBB97:
 1138              	.LBI93:
 553:HANcoder_E407_TTA_CombineModel_V2.c **** {
 1139              		.loc 1 553 6 view .LVU369
 1140              	.LBB95:
 558:HANcoder_E407_TTA_CombineModel_V2.c **** }
 1141              		.loc 1 558 3 view .LVU370
 558:HANcoder_E407_TTA_CombineModel_V2.c **** }
 1142              		.loc 1 558 15 is_stmt 0 view .LVU371
 1143 001e 1288     		ldrh	r2, [r2]
 1144              	.LVL81:
 558:HANcoder_E407_TTA_CombineModel_V2.c **** }
 1145              		.loc 1 558 15 view .LVU372
 1146              	.LBE95:
 1147              	.LBE97:
 591:HANcoder_E407_TTA_CombineModel_V2.c **** 
 1148              		.loc 1 591 21 view .LVU373
 1149 0020 0498     		ldr	r0, [sp, #16]
 1150              	.LBB98:
 1151              	.LBB96:
 558:HANcoder_E407_TTA_CombineModel_V2.c **** }
 1152              		.loc 1 558 15 view .LVU374
 1153 0022 120A     		lsrs	r2, r2, #8
 558:HANcoder_E407_TTA_CombineModel_V2.c **** }
 1154              		.loc 1 558 13 view .LVU375
 1155 0024 2A81     		strh	r2, [r5, #8]	@ movhi
 1156              	.LVL82:
 558:HANcoder_E407_TTA_CombineModel_V2.c **** }
 1157              		.loc 1 558 13 view .LVU376
 1158              	.LBE96:
 1159              	.LBE98:
 586:HANcoder_E407_TTA_CombineModel_V2.c **** 
 1160              		.loc 1 586 5 is_stmt 1 view .LVU377
 586:HANcoder_E407_TTA_CombineModel_V2.c **** 
 1161              		.loc 1 586 20 is_stmt 0 view .LVU378
 1162 0026 D2B2     		uxtb	r2, r2
 586:HANcoder_E407_TTA_CombineModel_V2.c **** 
 1163              		.loc 1 586 18 view .LVU379
 1164 0028 6A70     		strb	r2, [r5, #1]
 591:HANcoder_E407_TTA_CombineModel_V2.c **** 
 1165              		.loc 1 591 5 is_stmt 1 view .LVU380
 591:HANcoder_E407_TTA_CombineModel_V2.c **** 
 1166              		.loc 1 591 21 is_stmt 0 view .LVU381
 1167 002a 90F800E0 		ldrb	lr, [r0]	@ zero_extendqisi2
 591:HANcoder_E407_TTA_CombineModel_V2.c **** 
 1168              		.loc 1 591 19 view .LVU382
 1169 002e 85F802E0 		strb	lr, [r5, #2]
 595:HANcoder_E407_TTA_CombineModel_V2.c **** 
 1170              		.loc 1 595 5 is_stmt 1 view .LVU383
 1171              	.LVL83:
 1172              	.LBB99:
 1173              	.LBI99:
 553:HANcoder_E407_TTA_CombineModel_V2.c **** {
 1174              		.loc 1 553 6 view .LVU384
 1175              	.LBB100:
 558:HANcoder_E407_TTA_CombineModel_V2.c **** }
 1176              		.loc 1 558 3 view .LVU385
 558:HANcoder_E407_TTA_CombineModel_V2.c **** }
 1177              		.loc 1 558 15 is_stmt 0 view .LVU386
 1178 0032 1888     		ldrh	r0, [r3]
 1179 0034 000A     		lsrs	r0, r0, #8
 558:HANcoder_E407_TTA_CombineModel_V2.c **** }
 1180              		.loc 1 558 13 view .LVU387
 1181 0036 E880     		strh	r0, [r5, #6]	@ movhi
 1182              	.LVL84:
 558:HANcoder_E407_TTA_CombineModel_V2.c **** }
 1183              		.loc 1 558 13 view .LVU388
 1184              	.LBE100:
 1185              	.LBE99:
 600:HANcoder_E407_TTA_CombineModel_V2.c **** 
 1186              		.loc 1 600 5 is_stmt 1 view .LVU389
 600:HANcoder_E407_TTA_CombineModel_V2.c **** 
 1187              		.loc 1 600 22 is_stmt 0 view .LVU390
 1188 0038 C0B2     		uxtb	r0, r0
 600:HANcoder_E407_TTA_CombineModel_V2.c **** 
 1189              		.loc 1 600 20 view .LVU391
 1190 003a E870     		strb	r0, [r5, #3]
 605:HANcoder_E407_TTA_CombineModel_V2.c **** 
 1191              		.loc 1 605 5 is_stmt 1 view .LVU392
 605:HANcoder_E407_TTA_CombineModel_V2.c **** 
 1192              		.loc 1 605 23 is_stmt 0 view .LVU393
 1193 003c 1B78     		ldrb	r3, [r3]	@ zero_extendqisi2
 1194              	.LVL85:
 605:HANcoder_E407_TTA_CombineModel_V2.c **** 
 1195              		.loc 1 605 21 view .LVU394
 1196 003e 2B71     		strb	r3, [r5, #4]
 610:HANcoder_E407_TTA_CombineModel_V2.c ****       canTxData.uint8_T_info[1] = localB->Cast1_i;
 1197              		.loc 1 610 7 is_stmt 1 view .LVU395
 611:HANcoder_E407_TTA_CombineModel_V2.c ****       canTxData.uint8_T_info[2] = localB->Cast;
 1198              		.loc 1 611 7 view .LVU396
 612:HANcoder_E407_TTA_CombineModel_V2.c ****       canTxData.uint8_T_info[3] = localB->Cast1;
 1199              		.loc 1 612 7 view .LVU397
 613:HANcoder_E407_TTA_CombineModel_V2.c ****       canTxData.uint8_T_info[4] = localB->DataStoreRead2;
 1200              		.loc 1 613 7 view .LVU398
 610:HANcoder_E407_TTA_CombineModel_V2.c ****       canTxData.uint8_T_info[1] = localB->Cast1_i;
 1201              		.loc 1 610 33 is_stmt 0 view .LVU399
 1202 0040 0025     		movs	r5, #0
 1203 0042 60F30705 		bfi	r5, r0, #0, #8
 1204 0046 63F30F25 		bfi	r5, r3, #8, #8
 1205 004a 62F31745 		bfi	r5, r2, #16, #8
 1206 004e 064B     		ldr	r3, .L95
 1207 0050 6EF31F65 		bfi	r5, lr, #24, #8
 617:HANcoder_E407_TTA_CombineModel_V2.c ****     }
 1208              		.loc 1 617 7 view .LVU400
 1209 0054 0522     		movs	r2, #5
 1210 0056 0020     		movs	r0, #0
 610:HANcoder_E407_TTA_CombineModel_V2.c ****       canTxData.uint8_T_info[1] = localB->Cast1_i;
 1211              		.loc 1 610 33 view .LVU401
 1212 0058 1D60     		str	r5, [r3]
 614:HANcoder_E407_TTA_CombineModel_V2.c **** 
 1213              		.loc 1 614 7 is_stmt 1 view .LVU402
 614:HANcoder_E407_TTA_CombineModel_V2.c **** 
 1214              		.loc 1 614 33 is_stmt 0 view .LVU403
 1215 005a 83F804C0 		strb	ip, [r3, #4]
 617:HANcoder_E407_TTA_CombineModel_V2.c ****     }
 1216              		.loc 1 617 7 is_stmt 1 view .LVU404
 1217 005e FFF7FEFF 		bl	CanTransmit
 1218              	.LVL86:
 621:HANcoder_E407_TTA_CombineModel_V2.c **** 
 1219              		.loc 1 621 3 view .LVU405
 621:HANcoder_E407_TTA_CombineModel_V2.c **** 
 1220              		.loc 1 621 35 is_stmt 0 view .LVU406
 1221 0062 3470     		strb	r4, [r6]
 1222              		.loc 1 624 1 view .LVU407
 1223 0064 70BD     		pop	{r4, r5, r6, pc}
 1224              	.LVL87:
 1225              	.L96:
 1226              		.loc 1 624 1 view .LVU408
 1227 0066 00BF     		.align	2
 1228              	.L95:
 1229 0068 00000000 		.word	canTxData
 1230              		.cfi_endproc
 1231              	.LFE126:
 1233              		.section	.text.BitShift_j,"ax",%progbits
 1234              		.align	1
 1235              		.p2align 2,,3
 1236              		.global	BitShift_j
 1237              		.syntax unified
 1238              		.thumb
 1239              		.thumb_func
 1241              	BitShift_j:
 1242              	.LVL88:
 1243              	.LFB127:
 625:HANcoder_E407_TTA_CombineModel_V2.c **** 
 626:HANcoder_E407_TTA_CombineModel_V2.c **** /*
 627:HANcoder_E407_TTA_CombineModel_V2.c ****  * Output and update for atomic system:
 628:HANcoder_E407_TTA_CombineModel_V2.c ****  *    '<S145>/Bit Shift'
 629:HANcoder_E407_TTA_CombineModel_V2.c ****  *    '<S157>/Bit Shift'
 630:HANcoder_E407_TTA_CombineModel_V2.c ****  */
 631:HANcoder_E407_TTA_CombineModel_V2.c **** void BitShift_j(uint16_T rtu_u, rtB_BitShift_i *localB)
 632:HANcoder_E407_TTA_CombineModel_V2.c **** {
 1244              		.loc 1 632 1 is_stmt 1 view -0
 1245              		.cfi_startproc
 1246              		@ args = 0, pretend = 0, frame = 0
 1247              		@ frame_needed = 0, uses_anonymous_args = 0
 1248              		@ link register save eliminated.
 633:HANcoder_E407_TTA_CombineModel_V2.c ****   /* MATLAB Function: '<S147>/bit_shift' */
 634:HANcoder_E407_TTA_CombineModel_V2.c ****   /* MATLAB Function 'Logic and Bit Operations/Bit Shift/bit_shift': '<S148>:1' */
 635:HANcoder_E407_TTA_CombineModel_V2.c ****   /* '<S148>:1:6' */
 636:HANcoder_E407_TTA_CombineModel_V2.c ****   localB->y = (uint16_T)(rtu_u << 8);
 1249              		.loc 1 636 3 view .LVU410
 1250              		.loc 1 636 15 is_stmt 0 view .LVU411
 1251 0000 0002     		lsls	r0, r0, #8
 1252              	.LVL89:
 1253              		.loc 1 636 13 view .LVU412
 1254 0002 0880     		strh	r0, [r1]	@ movhi
 637:HANcoder_E407_TTA_CombineModel_V2.c **** }
 1255              		.loc 1 637 1 view .LVU413
 1256 0004 7047     		bx	lr
 1257              		.cfi_endproc
 1258              	.LFE127:
 1260              		.global	__aeabi_dcmpeq
 1261              		.global	__aeabi_dadd
 1262              		.global	__aeabi_i2d
 1263              		.global	__aeabi_dmul
 1264              		.global	__aeabi_dcmplt
 1265              		.global	__aeabi_ui2d
 1266              		.global	__aeabi_dsub
 1267              		.global	__aeabi_dcmpgt
 1268              		.global	__aeabi_ddiv
 1269              		.global	__aeabi_d2f
 1270              		.global	__aeabi_f2d
 1271              		.global	__aeabi_dcmpge
 1272              		.global	__aeabi_dcmple
 1273 0006 00BF     		.section	.rodata.HANcoder_E407_TTA_CombineModel_V2_step.str1.4,"aMS",%progbits,1
 1274              		.align	2
 1275              	.LC0:
 1276 0000 41707043 		.ascii	"AppCtrlTask\000"
 1276      74726C54 
 1276      61736B00 
 1277              		.section	.text.HANcoder_E407_TTA_CombineModel_V2_step,"ax",%progbits
 1278              		.align	1
 1279              		.p2align 2,,3
 1280              		.global	HANcoder_E407_TTA_CombineModel_V2_step
 1281              		.syntax unified
 1282              		.thumb
 1283              		.thumb_func
 1285              	HANcoder_E407_TTA_CombineModel_V2_step:
 1286              	.LFB128:
 638:HANcoder_E407_TTA_CombineModel_V2.c **** 
 639:HANcoder_E407_TTA_CombineModel_V2.c **** /* Model step function */
 640:HANcoder_E407_TTA_CombineModel_V2.c **** void HANcoder_E407_TTA_CombineModel_V2_step(void)
 641:HANcoder_E407_TTA_CombineModel_V2.c **** {
 1287              		.loc 1 641 1 is_stmt 1 view -0
 1288              		.cfi_startproc
 1289              		@ args = 0, pretend = 0, frame = 48
 1290              		@ frame_needed = 0, uses_anonymous_args = 0
 642:HANcoder_E407_TTA_CombineModel_V2.c ****   /* local block i/o variables */
 643:HANcoder_E407_TTA_CombineModel_V2.c ****   real32_T rtb_Cast_m;
 1291              		.loc 1 643 3 view .LVU415
 644:HANcoder_E407_TTA_CombineModel_V2.c ****   real32_T rtb_Cast3;
 1292              		.loc 1 644 3 view .LVU416
 645:HANcoder_E407_TTA_CombineModel_V2.c ****   int32_T rtb_Level2MfileSFunction_o;
 1293              		.loc 1 645 3 view .LVU417
 646:HANcoder_E407_TTA_CombineModel_V2.c ****   uint8_T rtb_SFunction_o2;
 1294              		.loc 1 646 3 view .LVU418
 647:HANcoder_E407_TTA_CombineModel_V2.c ****   uint8_T rtb_SFunction_o3;
 1295              		.loc 1 647 3 view .LVU419
 648:HANcoder_E407_TTA_CombineModel_V2.c ****   uint8_T rtb_SFunction_o4;
 1296              		.loc 1 648 3 view .LVU420
 649:HANcoder_E407_TTA_CombineModel_V2.c ****   uint8_T rtb_SFunction_o5;
 1297              		.loc 1 649 3 view .LVU421
 650:HANcoder_E407_TTA_CombineModel_V2.c ****   uint8_T rtb_SFunction_o6;
 1298              		.loc 1 650 3 view .LVU422
 651:HANcoder_E407_TTA_CombineModel_V2.c ****   uint8_T rtb_SFunction_o7;
 1299              		.loc 1 651 3 view .LVU423
 652:HANcoder_E407_TTA_CombineModel_V2.c ****   uint8_T rtb_SFunction_o8;
 1300              		.loc 1 652 3 view .LVU424
 653:HANcoder_E407_TTA_CombineModel_V2.c ****   uint8_T rtb_SFunction_o9;
 1301              		.loc 1 653 3 view .LVU425
 654:HANcoder_E407_TTA_CombineModel_V2.c ****   uint8_T rtb_SFunction_o2_l;
 1302              		.loc 1 654 3 view .LVU426
 655:HANcoder_E407_TTA_CombineModel_V2.c ****   uint8_T rtb_SFunction_o3_m;
 1303              		.loc 1 655 3 view .LVU427
 656:HANcoder_E407_TTA_CombineModel_V2.c ****   uint8_T rtb_SFunction_o4_b;
 1304              		.loc 1 656 3 view .LVU428
 657:HANcoder_E407_TTA_CombineModel_V2.c ****   uint8_T rtb_SFunction_o5_o;
 1305              		.loc 1 657 3 view .LVU429
 658:HANcoder_E407_TTA_CombineModel_V2.c ****   uint8_T rtb_SFunction_o6_i;
 1306              		.loc 1 658 3 view .LVU430
 659:HANcoder_E407_TTA_CombineModel_V2.c ****   uint8_T rtb_SFunction_o7_f;
 1307              		.loc 1 659 3 view .LVU431
 660:HANcoder_E407_TTA_CombineModel_V2.c ****   uint8_T rtb_SFunction_o8_p;
 1308              		.loc 1 660 3 view .LVU432
 661:HANcoder_E407_TTA_CombineModel_V2.c ****   uint8_T rtb_SFunction_o9_l;
 1309              		.loc 1 661 3 view .LVU433
 662:HANcoder_E407_TTA_CombineModel_V2.c ****   uint8_T rtb_SFunction_o2_e;
 1310              		.loc 1 662 3 view .LVU434
 663:HANcoder_E407_TTA_CombineModel_V2.c ****   uint8_T rtb_SFunction_o3_p;
 1311              		.loc 1 663 3 view .LVU435
 664:HANcoder_E407_TTA_CombineModel_V2.c ****   uint8_T rtb_SFunction_o4_c;
 1312              		.loc 1 664 3 view .LVU436
 665:HANcoder_E407_TTA_CombineModel_V2.c ****   uint8_T rtb_SFunction_o5_c;
 1313              		.loc 1 665 3 view .LVU437
 666:HANcoder_E407_TTA_CombineModel_V2.c ****   uint8_T rtb_SFunction_o6_e;
 1314              		.loc 1 666 3 view .LVU438
 667:HANcoder_E407_TTA_CombineModel_V2.c ****   uint8_T rtb_SFunction_o7_l;
 1315              		.loc 1 667 3 view .LVU439
 668:HANcoder_E407_TTA_CombineModel_V2.c ****   uint8_T rtb_SFunction_o8_f;
 1316              		.loc 1 668 3 view .LVU440
 669:HANcoder_E407_TTA_CombineModel_V2.c ****   uint8_T rtb_SFunction_o9_h;
 1317              		.loc 1 669 3 view .LVU441
 670:HANcoder_E407_TTA_CombineModel_V2.c ****   uint8_T rtb_SFunction_o2_j;
 1318              		.loc 1 670 3 view .LVU442
 671:HANcoder_E407_TTA_CombineModel_V2.c ****   uint8_T rtb_SFunction_o3_a;
 1319              		.loc 1 671 3 view .LVU443
 672:HANcoder_E407_TTA_CombineModel_V2.c ****   uint8_T rtb_SFunction_o4_i;
 1320              		.loc 1 672 3 view .LVU444
 673:HANcoder_E407_TTA_CombineModel_V2.c ****   uint8_T rtb_SFunction_o5_k;
 1321              		.loc 1 673 3 view .LVU445
 674:HANcoder_E407_TTA_CombineModel_V2.c ****   uint8_T rtb_SFunction_o6_c;
 1322              		.loc 1 674 3 view .LVU446
 675:HANcoder_E407_TTA_CombineModel_V2.c ****   uint8_T rtb_SFunction_o7_d;
 1323              		.loc 1 675 3 view .LVU447
 676:HANcoder_E407_TTA_CombineModel_V2.c ****   uint8_T rtb_SFunction_o8_h;
 1324              		.loc 1 676 3 view .LVU448
 677:HANcoder_E407_TTA_CombineModel_V2.c ****   uint8_T rtb_SFunction_o9_b;
 1325              		.loc 1 677 3 view .LVU449
 678:HANcoder_E407_TTA_CombineModel_V2.c ****   uint8_T rtb_SFunction_o2_i;
 1326              		.loc 1 678 3 view .LVU450
 679:HANcoder_E407_TTA_CombineModel_V2.c ****   uint8_T rtb_SFunction_o3_g;
 1327              		.loc 1 679 3 view .LVU451
 680:HANcoder_E407_TTA_CombineModel_V2.c ****   uint8_T rtb_SFunction_o4_j;
 1328              		.loc 1 680 3 view .LVU452
 681:HANcoder_E407_TTA_CombineModel_V2.c ****   uint8_T rtb_SFunction_o5_f;
 1329              		.loc 1 681 3 view .LVU453
 682:HANcoder_E407_TTA_CombineModel_V2.c ****   uint8_T rtb_SFunction_o6_g;
 1330              		.loc 1 682 3 view .LVU454
 683:HANcoder_E407_TTA_CombineModel_V2.c ****   uint8_T rtb_SFunction_o7_k;
 1331              		.loc 1 683 3 view .LVU455
 684:HANcoder_E407_TTA_CombineModel_V2.c ****   uint8_T rtb_SFunction_o8_n;
 1332              		.loc 1 684 3 view .LVU456
 685:HANcoder_E407_TTA_CombineModel_V2.c ****   uint8_T rtb_SFunction_o9_b1;
 1333              		.loc 1 685 3 view .LVU457
 686:HANcoder_E407_TTA_CombineModel_V2.c ****   int8_T rtb_SFunction_o1;
 1334              		.loc 1 686 3 view .LVU458
 687:HANcoder_E407_TTA_CombineModel_V2.c ****   int8_T rtb_SFunction_o1_n;
 1335              		.loc 1 687 3 view .LVU459
 688:HANcoder_E407_TTA_CombineModel_V2.c ****   int8_T rtb_SFunction_o1_k;
 1336              		.loc 1 688 3 view .LVU460
 689:HANcoder_E407_TTA_CombineModel_V2.c ****   int8_T rtb_SFunction_o1_k1;
 1337              		.loc 1 689 3 view .LVU461
 690:HANcoder_E407_TTA_CombineModel_V2.c ****   int8_T rtb_SFunction_o1_h;
 1338              		.loc 1 690 3 view .LVU462
 691:HANcoder_E407_TTA_CombineModel_V2.c ****   boolean_T rtb_Level2MfileSFunction_d;
 1339              		.loc 1 691 3 view .LVU463
 692:HANcoder_E407_TTA_CombineModel_V2.c ****   boolean_T rtb_Level2MfileSFunction_j;
 1340              		.loc 1 692 3 view .LVU464
 693:HANcoder_E407_TTA_CombineModel_V2.c ****   boolean_T rtb_Equal17;
 1341              		.loc 1 693 3 view .LVU465
 694:HANcoder_E407_TTA_CombineModel_V2.c ****   real_T rtb_IntegralGain;
 1342              		.loc 1 694 3 view .LVU466
 695:HANcoder_E407_TTA_CombineModel_V2.c ****   real_T rtb_Integrator_tmp;
 1343              		.loc 1 695 3 view .LVU467
 696:HANcoder_E407_TTA_CombineModel_V2.c ****   real_T rtb_Multiply;
 1344              		.loc 1 696 3 view .LVU468
 697:HANcoder_E407_TTA_CombineModel_V2.c ****   real_T rtb_Multiply1;
 1345              		.loc 1 697 3 view .LVU469
 698:HANcoder_E407_TTA_CombineModel_V2.c ****   real_T tmp_0;
 1346              		.loc 1 698 3 view .LVU470
 699:HANcoder_E407_TTA_CombineModel_V2.c ****   uint32_T tmp;
 1347              		.loc 1 699 3 view .LVU471
 700:HANcoder_E407_TTA_CombineModel_V2.c ****   uint16_T rtb_Cast_bt;
 1348              		.loc 1 700 3 view .LVU472
 701:HANcoder_E407_TTA_CombineModel_V2.c ****   uint16_T rtb_Cast_g1;
 1349              		.loc 1 701 3 view .LVU473
 702:HANcoder_E407_TTA_CombineModel_V2.c ****   int8_T rtAction;
 1350              		.loc 1 702 3 view .LVU474
 703:HANcoder_E407_TTA_CombineModel_V2.c ****   int8_T rtPrevAction;
 1351              		.loc 1 703 3 view .LVU475
 704:HANcoder_E407_TTA_CombineModel_V2.c ****   uint8_T u1;
 1352              		.loc 1 704 3 view .LVU476
 705:HANcoder_E407_TTA_CombineModel_V2.c ****   uint8_T u1_0;
 1353              		.loc 1 705 3 view .LVU477
 706:HANcoder_E407_TTA_CombineModel_V2.c ****   boolean_T AND3;
 1354              		.loc 1 706 3 view .LVU478
 707:HANcoder_E407_TTA_CombineModel_V2.c ****   boolean_T AND5;
 1355              		.loc 1 707 3 view .LVU479
 708:HANcoder_E407_TTA_CombineModel_V2.c ****   boolean_T AND7;
 1356              		.loc 1 708 3 view .LVU480
 709:HANcoder_E407_TTA_CombineModel_V2.c ****   boolean_T AND9;
 1357              		.loc 1 709 3 view .LVU481
 710:HANcoder_E407_TTA_CombineModel_V2.c ****   boolean_T Master_ID;
 1358              		.loc 1 710 3 view .LVU482
 711:HANcoder_E407_TTA_CombineModel_V2.c ****   boolean_T rtb_AND;
 1359              		.loc 1 711 3 view .LVU483
 712:HANcoder_E407_TTA_CombineModel_V2.c ****   boolean_T rtb_AND10;
 1360              		.loc 1 712 3 view .LVU484
 713:HANcoder_E407_TTA_CombineModel_V2.c ****   boolean_T rtb_AND13;
 1361              		.loc 1 713 3 view .LVU485
 714:HANcoder_E407_TTA_CombineModel_V2.c ****   boolean_T rtb_AND15;
 1362              		.loc 1 714 3 view .LVU486
 715:HANcoder_E407_TTA_CombineModel_V2.c ****   boolean_T rtb_AND1_k;
 1363              		.loc 1 715 3 view .LVU487
 716:HANcoder_E407_TTA_CombineModel_V2.c ****   boolean_T rtb_AND2;
 1364              		.loc 1 716 3 view .LVU488
 717:HANcoder_E407_TTA_CombineModel_V2.c ****   boolean_T rtb_AND4;
 1365              		.loc 1 717 3 view .LVU489
 718:HANcoder_E407_TTA_CombineModel_V2.c ****   boolean_T rtb_AND6;
 1366              		.loc 1 718 3 view .LVU490
 719:HANcoder_E407_TTA_CombineModel_V2.c ****   boolean_T rtb_AND8;
 1367              		.loc 1 719 3 view .LVU491
 720:HANcoder_E407_TTA_CombineModel_V2.c ****   boolean_T rtb_Equal14;
 1368              		.loc 1 720 3 view .LVU492
 721:HANcoder_E407_TTA_CombineModel_V2.c ****   boolean_T rtb_Equal16;
 1369              		.loc 1 721 3 view .LVU493
 722:HANcoder_E407_TTA_CombineModel_V2.c ****   boolean_T rtb_NotEqual;
 1370              		.loc 1 722 3 view .LVU494
 723:HANcoder_E407_TTA_CombineModel_V2.c ****   ZCEventType zcEvent;
 1371              		.loc 1 723 3 view .LVU495
 724:HANcoder_E407_TTA_CombineModel_V2.c **** 
 725:HANcoder_E407_TTA_CombineModel_V2.c ****   /* Outputs for Enabled SubSystem: '<S1>/Initialize Clock Schedule' incorporates:
 726:HANcoder_E407_TTA_CombineModel_V2.c ****    *  EnablePort: '<S6>/Enable'
 727:HANcoder_E407_TTA_CombineModel_V2.c ****    */
 728:HANcoder_E407_TTA_CombineModel_V2.c ****   /* Logic: '<S1>/NOT' incorporates:
 729:HANcoder_E407_TTA_CombineModel_V2.c ****    *  DataStoreRead: '<S1>/If 1 -> Clock initialized '
 730:HANcoder_E407_TTA_CombineModel_V2.c ****    */
 731:HANcoder_E407_TTA_CombineModel_V2.c ****   if (rtDWork.init_clock == 0.0) {
 1372              		.loc 1 731 3 view .LVU496
 641:HANcoder_E407_TTA_CombineModel_V2.c ****   /* local block i/o variables */
 1373              		.loc 1 641 1 is_stmt 0 view .LVU497
 1374 0000 2DE9F04F 		push	{r4, r5, r6, r7, r8, r9, r10, fp, lr}
 1375              		.cfi_def_cfa_offset 36
 1376              		.cfi_offset 4, -36
 1377              		.cfi_offset 5, -32
 1378              		.cfi_offset 6, -28
 1379              		.cfi_offset 7, -24
 1380              		.cfi_offset 8, -20
 1381              		.cfi_offset 9, -16
 1382              		.cfi_offset 10, -12
 1383              		.cfi_offset 11, -8
 1384              		.cfi_offset 14, -4
 1385 0004 2DED028B 		vpush.64	{d8}
 1386              		.cfi_def_cfa_offset 44
 1387              		.cfi_offset 80, -44
 1388              		.cfi_offset 81, -40
 1389              		.loc 1 731 14 view .LVU498
 1390 0008 6D4C     		ldr	r4, .L383
 641:HANcoder_E407_TTA_CombineModel_V2.c ****   /* local block i/o variables */
 1391              		.loc 1 641 1 view .LVU499
 1392 000a 91B0     		sub	sp, sp, #68
 1393              		.cfi_def_cfa_offset 112
 1394              		.loc 1 731 6 view .LVU500
 1395 000c D4E90401 		ldrd	r0, [r4, #16]
 1396 0010 0022     		movs	r2, #0
 1397 0012 0023     		movs	r3, #0
 1398 0014 FFF7FEFF 		bl	__aeabi_dcmpeq
 1399              	.LVL90:
 1400 0018 0028     		cmp	r0, #0
 1401 001a 40F09E86 		bne	.L359
 732:HANcoder_E407_TTA_CombineModel_V2.c ****     rtDWork.InitializeClockSchedule_MODE = true;
 733:HANcoder_E407_TTA_CombineModel_V2.c **** 
 734:HANcoder_E407_TTA_CombineModel_V2.c ****     /* DataStoreWrite: '<S6>/Data Store Write' incorporates:
 735:HANcoder_E407_TTA_CombineModel_V2.c ****      *  Constant: '<S6>/Constant2'
 736:HANcoder_E407_TTA_CombineModel_V2.c ****      */
 737:HANcoder_E407_TTA_CombineModel_V2.c ****     rtDWork.init_clock = 1.0;
 738:HANcoder_E407_TTA_CombineModel_V2.c **** 
 739:HANcoder_E407_TTA_CombineModel_V2.c ****     /* Update for M-S-Function: '<S15>/Level-2 M-file S-Function' incorporates:
 740:HANcoder_E407_TTA_CombineModel_V2.c ****      *  Constant: '<S6>/Constant'
 741:HANcoder_E407_TTA_CombineModel_V2.c ****      *  Constant: '<S6>/Constant1'
 742:HANcoder_E407_TTA_CombineModel_V2.c ****      */
 743:HANcoder_E407_TTA_CombineModel_V2.c ****     /* schedule the next output compare event */
 744:HANcoder_E407_TTA_CombineModel_V2.c ****     TimeoutScheduleCompareEvent(TIMEOUT_TIM4_PIN_PD12, ((uint16_T)1U),
 745:HANcoder_E407_TTA_CombineModel_V2.c ****       (tTimeoutAction)((uint8_T)3U));
 746:HANcoder_E407_TTA_CombineModel_V2.c ****   } else if (rtDWork.InitializeClockSchedule_MODE) {
 1402              		.loc 1 746 10 is_stmt 1 view .LVU501
 1403              		.loc 1 746 13 is_stmt 0 view .LVU502
 1404 001e 94F84D30 		ldrb	r3, [r4, #77]	@ zero_extendqisi2
 1405 0022 002B     		cmp	r3, #0
 1406 0024 40F0C880 		bne	.L360
 1407              	.L101:
 747:HANcoder_E407_TTA_CombineModel_V2.c ****     rtDWork.InitializeClockSchedule_MODE = false;
 748:HANcoder_E407_TTA_CombineModel_V2.c ****   }
 749:HANcoder_E407_TTA_CombineModel_V2.c **** 
 750:HANcoder_E407_TTA_CombineModel_V2.c ****   /* End of Logic: '<S1>/NOT' */
 751:HANcoder_E407_TTA_CombineModel_V2.c ****   /* End of Outputs for SubSystem: '<S1>/Initialize Clock Schedule' */
 752:HANcoder_E407_TTA_CombineModel_V2.c **** 
 753:HANcoder_E407_TTA_CombineModel_V2.c ****   /* If: '<S1>/If1' incorporates:
 754:HANcoder_E407_TTA_CombineModel_V2.c ****    *  DataStoreRead: '<S1>/Data Store Read2'
 755:HANcoder_E407_TTA_CombineModel_V2.c ****    */
 756:HANcoder_E407_TTA_CombineModel_V2.c ****   rtPrevAction = rtDWork.If1_ActiveSubsystem;
 1408              		.loc 1 756 3 is_stmt 1 view .LVU503
 1409              	.LVL91:
 757:HANcoder_E407_TTA_CombineModel_V2.c ****   rtAction = -1;
 1410              		.loc 1 757 3 view .LVU504
 758:HANcoder_E407_TTA_CombineModel_V2.c ****   if (rtDWork.Board_ID == 0.0) {
 1411              		.loc 1 758 3 view .LVU505
 1412              		.loc 1 758 6 is_stmt 0 view .LVU506
 1413 0028 D4E90601 		ldrd	r0, [r4, #24]
 1414 002c 0022     		movs	r2, #0
 1415 002e 0023     		movs	r3, #0
 1416 0030 FFF7FEFF 		bl	__aeabi_dcmpeq
 1417              	.LVL92:
 1418              		.loc 1 758 6 view .LVU507
 1419 0034 0028     		cmp	r0, #0
 1420 0036 40F0FF85 		bne	.L102
 759:HANcoder_E407_TTA_CombineModel_V2.c ****     rtAction = 0;
 760:HANcoder_E407_TTA_CombineModel_V2.c ****   }
 761:HANcoder_E407_TTA_CombineModel_V2.c **** 
 762:HANcoder_E407_TTA_CombineModel_V2.c ****   rtDWork.If1_ActiveSubsystem = rtAction;
 1421              		.loc 1 762 3 is_stmt 1 view .LVU508
 763:HANcoder_E407_TTA_CombineModel_V2.c ****   if ((rtPrevAction != rtAction) && (rtPrevAction == 0)) {
 764:HANcoder_E407_TTA_CombineModel_V2.c ****   }
 765:HANcoder_E407_TTA_CombineModel_V2.c **** 
 766:HANcoder_E407_TTA_CombineModel_V2.c ****   if (rtAction == 0) {
 767:HANcoder_E407_TTA_CombineModel_V2.c ****     /* Outputs for IfAction SubSystem: '<S1>/Setting ID' incorporates:
 768:HANcoder_E407_TTA_CombineModel_V2.c ****      *  ActionPort: '<S11>/Action Port'
 769:HANcoder_E407_TTA_CombineModel_V2.c ****      */
 770:HANcoder_E407_TTA_CombineModel_V2.c ****     /* M-S-Function: '<S174>/Level-2 M-file S-Function' */
 771:HANcoder_E407_TTA_CombineModel_V2.c ****     /* read from digital input */
 772:HANcoder_E407_TTA_CombineModel_V2.c ****     rtb_Level2MfileSFunction_j = DiginGet(DIGIN_PORTG_PIN12);
 773:HANcoder_E407_TTA_CombineModel_V2.c **** 
 774:HANcoder_E407_TTA_CombineModel_V2.c ****     /* Product: '<S11>/Multiply' incorporates:
 775:HANcoder_E407_TTA_CombineModel_V2.c ****      *  Constant: '<S11>/Constant1'
 776:HANcoder_E407_TTA_CombineModel_V2.c ****      */
 777:HANcoder_E407_TTA_CombineModel_V2.c ****     rtb_Multiply = rtb_Level2MfileSFunction_j ? 1.0 : 0.0;
 778:HANcoder_E407_TTA_CombineModel_V2.c **** 
 779:HANcoder_E407_TTA_CombineModel_V2.c ****     /* M-S-Function: '<S175>/Level-2 M-file S-Function' */
 780:HANcoder_E407_TTA_CombineModel_V2.c ****     /* read from digital input */
 781:HANcoder_E407_TTA_CombineModel_V2.c ****     rtb_Level2MfileSFunction_j = DiginGet(DIGIN_PORTG_PIN15);
 782:HANcoder_E407_TTA_CombineModel_V2.c **** 
 783:HANcoder_E407_TTA_CombineModel_V2.c ****     /* Product: '<S11>/Multiply1' incorporates:
 784:HANcoder_E407_TTA_CombineModel_V2.c ****      *  Constant: '<S11>/Constant4'
 785:HANcoder_E407_TTA_CombineModel_V2.c ****      */
 786:HANcoder_E407_TTA_CombineModel_V2.c ****     rtb_Multiply1 = rtb_Level2MfileSFunction_j ? 2.0 : 0.0;
 787:HANcoder_E407_TTA_CombineModel_V2.c **** 
 788:HANcoder_E407_TTA_CombineModel_V2.c ****     /* M-S-Function: '<S176>/Level-2 M-file S-Function' */
 789:HANcoder_E407_TTA_CombineModel_V2.c ****     /* read from digital input */
 790:HANcoder_E407_TTA_CombineModel_V2.c ****     rtb_Level2MfileSFunction_j = DiginGet(DIGIN_PORTA_PIN4);
 791:HANcoder_E407_TTA_CombineModel_V2.c **** 
 792:HANcoder_E407_TTA_CombineModel_V2.c ****     /* Sum: '<S11>/Add' incorporates:
 793:HANcoder_E407_TTA_CombineModel_V2.c ****      *  Constant: '<S11>/Constant6'
 794:HANcoder_E407_TTA_CombineModel_V2.c ****      *  Product: '<S11>/Multiply2'
 795:HANcoder_E407_TTA_CombineModel_V2.c ****      */
 796:HANcoder_E407_TTA_CombineModel_V2.c ****     rtB.Add = (rtb_Multiply + rtb_Multiply1) + (rtb_Level2MfileSFunction_j ? 4.0
 797:HANcoder_E407_TTA_CombineModel_V2.c ****       : 0.0);
 798:HANcoder_E407_TTA_CombineModel_V2.c **** 
 799:HANcoder_E407_TTA_CombineModel_V2.c ****     /* End of Outputs for SubSystem: '<S1>/Setting ID' */
 800:HANcoder_E407_TTA_CombineModel_V2.c ****   }
 801:HANcoder_E407_TTA_CombineModel_V2.c **** 
 802:HANcoder_E407_TTA_CombineModel_V2.c ****   /* End of If: '<S1>/If1' */
 803:HANcoder_E407_TTA_CombineModel_V2.c **** 
 804:HANcoder_E407_TTA_CombineModel_V2.c ****   /* DataStoreWrite: '<S1>/Data Store Write1' */
 805:HANcoder_E407_TTA_CombineModel_V2.c ****   rtDWork.Board_ID = rtB.Add;
 1422              		.loc 1 805 25 is_stmt 0 view .LVU509
 1423 003a DFF8B0A1 		ldr	r10, .L383+44
 1424 003e DAE90067 		ldrd	r6, [r10]
 762:HANcoder_E407_TTA_CombineModel_V2.c ****   if ((rtPrevAction != rtAction) && (rtPrevAction == 0)) {
 1425              		.loc 1 762 31 view .LVU510
 1426 0042 FF23     		movs	r3, #255
 1427 0044 84F83830 		strb	r3, [r4, #56]
 763:HANcoder_E407_TTA_CombineModel_V2.c ****   if ((rtPrevAction != rtAction) && (rtPrevAction == 0)) {
 1428              		.loc 1 763 3 is_stmt 1 view .LVU511
 764:HANcoder_E407_TTA_CombineModel_V2.c **** 
 1429              		.loc 1 764 3 view .LVU512
 766:HANcoder_E407_TTA_CombineModel_V2.c ****     /* Outputs for IfAction SubSystem: '<S1>/Setting ID' incorporates:
 1430              		.loc 1 766 3 view .LVU513
 1431              	.LVL93:
 1432              	.L103:
 1433              		.loc 1 805 3 view .LVU514
 806:HANcoder_E407_TTA_CombineModel_V2.c **** 
 807:HANcoder_E407_TTA_CombineModel_V2.c ****   /* RelationalOperator: '<S1>/Equal' incorporates:
 808:HANcoder_E407_TTA_CombineModel_V2.c ****    *  Constant: '<S1>/Constant'
 809:HANcoder_E407_TTA_CombineModel_V2.c ****    *  DataStoreRead: '<S1>/Data Store Read1'
 810:HANcoder_E407_TTA_CombineModel_V2.c ****    */
 811:HANcoder_E407_TTA_CombineModel_V2.c ****   masterID = (rtDWork.Board_ID == 1.0);
 1434              		.loc 1 811 32 is_stmt 0 view .LVU515
 1435 0048 5E4B     		ldr	r3, .L383+4
 1436 004a 0022     		movs	r2, #0
 1437 004c 3946     		mov	r1, r7
 805:HANcoder_E407_TTA_CombineModel_V2.c **** 
 1438              		.loc 1 805 20 view .LVU516
 1439 004e C4E90667 		strd	r6, [r4, #24]
 1440              		.loc 1 811 3 is_stmt 1 view .LVU517
 1441              		.loc 1 811 32 is_stmt 0 view .LVU518
 1442 0052 3046     		mov	r0, r6
 1443 0054 FFF7FEFF 		bl	__aeabi_dcmpeq
 1444              	.LVL94:
 812:HANcoder_E407_TTA_CombineModel_V2.c **** 
 813:HANcoder_E407_TTA_CombineModel_V2.c ****   /* DataStoreWrite: '<S1>/Data Store Write2' */
 814:HANcoder_E407_TTA_CombineModel_V2.c ****   Master_ID = masterID;
 815:HANcoder_E407_TTA_CombineModel_V2.c **** 
 816:HANcoder_E407_TTA_CombineModel_V2.c ****   /* Logic: '<S10>/AND' incorporates:
 817:HANcoder_E407_TTA_CombineModel_V2.c ****    *  Constant: '<S10>/Constant'
 818:HANcoder_E407_TTA_CombineModel_V2.c ****    *  DataStoreRead: '<S10>/Data Store Read1'
 819:HANcoder_E407_TTA_CombineModel_V2.c ****    *  DataStoreWrite: '<S1>/Data Store Write2'
 820:HANcoder_E407_TTA_CombineModel_V2.c ****    *  RelationalOperator: '<S10>/Less Than'
 821:HANcoder_E407_TTA_CombineModel_V2.c ****    */
 822:HANcoder_E407_TTA_CombineModel_V2.c ****   rtb_AND = ((ClockOn != 0.0) && (rtDWork.Board_ID == masterID));
 1445              		.loc 1 822 23 view .LVU519
 1446 0058 5B4B     		ldr	r3, .L383+8
 811:HANcoder_E407_TTA_CombineModel_V2.c **** 
 1447              		.loc 1 811 12 view .LVU520
 1448 005a 5C4A     		ldr	r2, .L383+12
 811:HANcoder_E407_TTA_CombineModel_V2.c **** 
 1449              		.loc 1 811 32 view .LVU521
 1450 005c 0038     		subs	r0, r0, #0
 1451 005e 18BF     		it	ne
 1452 0060 0120     		movne	r0, #1
 811:HANcoder_E407_TTA_CombineModel_V2.c **** 
 1453              		.loc 1 811 12 view .LVU522
 1454 0062 1070     		strb	r0, [r2]
 811:HANcoder_E407_TTA_CombineModel_V2.c **** 
 1455              		.loc 1 811 32 view .LVU523
 1456 0064 0546     		mov	r5, r0
 1457 0066 0590     		str	r0, [sp, #20]
 814:HANcoder_E407_TTA_CombineModel_V2.c **** 
 1458              		.loc 1 814 3 is_stmt 1 view .LVU524
 1459              	.LVL95:
 1460              		.loc 1 822 3 view .LVU525
 1461              		.loc 1 822 31 is_stmt 0 view .LVU526
 1462 0068 0022     		movs	r2, #0
 1463 006a D3E90001 		ldrd	r0, [r3]
 1464              	.LVL96:
 1465              		.loc 1 822 31 view .LVU527
 1466 006e 0023     		movs	r3, #0
 1467 0070 FFF7FEFF 		bl	__aeabi_dcmpeq
 1468              	.LVL97:
 1469              		.loc 1 822 31 view .LVU528
 1470 0074 48B9     		cbnz	r0, .L109
 1471              		.loc 1 822 52 discriminator 1 view .LVU529
 1472 0076 2846     		mov	r0, r5
 1473 0078 FFF7FEFF 		bl	__aeabi_i2d
 1474              	.LVL98:
 1475              		.loc 1 822 31 discriminator 1 view .LVU530
 1476 007c 3246     		mov	r2, r6
 1477 007e 3B46     		mov	r3, r7
 1478 0080 FFF7FEFF 		bl	__aeabi_dcmpeq
 1479              	.LVL99:
 1480 0084 0028     		cmp	r0, #0
 1481 0086 40F03685 		bne	.L247
 1482              	.L109:
 1483              	.LVL100:
 823:HANcoder_E407_TTA_CombineModel_V2.c **** 
 824:HANcoder_E407_TTA_CombineModel_V2.c ****   /* Logic: '<S10>/OR' incorporates:
 825:HANcoder_E407_TTA_CombineModel_V2.c ****    *  DataStoreRead: '<S10>/Data Store Read2'
 826:HANcoder_E407_TTA_CombineModel_V2.c ****    */
 827:HANcoder_E407_TTA_CombineModel_V2.c ****   rtB.OR = (rtb_AND || rtDWork.slaveClockOn);
 1484              		.loc 1 827 3 is_stmt 1 view .LVU531
 1485              		.loc 1 827 21 is_stmt 0 view .LVU532
 1486 008a 94F84230 		ldrb	r3, [r4, #66]	@ zero_extendqisi2
 1487              		.loc 1 827 10 view .LVU533
 1488 008e 003B     		subs	r3, r3, #0
 1489 0090 18BF     		it	ne
 1490 0092 0123     		movne	r3, #1
 1491 0094 8AF82330 		strb	r3, [r10, #35]
 828:HANcoder_E407_TTA_CombineModel_V2.c **** 
 829:HANcoder_E407_TTA_CombineModel_V2.c ****   /* End of Outputs for S-Function (sfcn_timeout_event_irq): '<S4>/S-Function' */
 830:HANcoder_E407_TTA_CombineModel_V2.c **** 
 831:HANcoder_E407_TTA_CombineModel_V2.c ****   /* Outputs for Enabled SubSystem: '<S1>/Message selector' incorporates:
 832:HANcoder_E407_TTA_CombineModel_V2.c ****    *  EnablePort: '<S8>/Enable'
 833:HANcoder_E407_TTA_CombineModel_V2.c ****    *
 834:HANcoder_E407_TTA_CombineModel_V2.c ****    * Block description for '<S1>/Message selector':
 835:HANcoder_E407_TTA_CombineModel_V2.c ****    *  Truck 1
 836:HANcoder_E407_TTA_CombineModel_V2.c ****    */
 837:HANcoder_E407_TTA_CombineModel_V2.c ****   if (canActive) {
 1492              		.loc 1 837 3 is_stmt 1 view .LVU534
 1493              		.loc 1 837 7 is_stmt 0 view .LVU535
 1494 0098 4D4B     		ldr	r3, .L383+16
 1495              		.loc 1 837 6 view .LVU536
 1496 009a 1B78     		ldrb	r3, [r3]	@ zero_extendqisi2
 822:HANcoder_E407_TTA_CombineModel_V2.c **** 
 1497              		.loc 1 822 11 view .LVU537
 1498 009c 0022     		movs	r2, #0
 1499 009e 0492     		str	r2, [sp, #16]
 1500              		.loc 1 837 6 view .LVU538
 1501 00a0 002B     		cmp	r3, #0
 1502 00a2 00F03185 		beq	.L111
 1503              	.L372:
 838:HANcoder_E407_TTA_CombineModel_V2.c ****     rtDWork.Messageselector_MODE = true;
 1504              		.loc 1 838 5 is_stmt 1 view .LVU539
 839:HANcoder_E407_TTA_CombineModel_V2.c **** 
 840:HANcoder_E407_TTA_CombineModel_V2.c ****     /* RelationalOperator: '<S8>/Equal1' incorporates:
 841:HANcoder_E407_TTA_CombineModel_V2.c ****      *  Constant: '<S8>/Constant1'
 842:HANcoder_E407_TTA_CombineModel_V2.c ****      */
 843:HANcoder_E407_TTA_CombineModel_V2.c ****     rtb_NotEqual = (slotSelected == 2.0);
 1505              		.loc 1 843 34 is_stmt 0 view .LVU540
 1506 00a6 DFF848B1 		ldr	fp, .L383+48
 1507 00aa 9BF80080 		ldrb	r8, [fp]	@ zero_extendqisi2
 1508 00ae 07EE908A 		vmov	s15, r8	@ int
 1509 00b2 F8EEE77A 		vcvt.f32.s32	s15, s15
 844:HANcoder_E407_TTA_CombineModel_V2.c **** 
 845:HANcoder_E407_TTA_CombineModel_V2.c ****     /* RelationalOperator: '<S8>/Equal11' incorporates:
 846:HANcoder_E407_TTA_CombineModel_V2.c ****      *  Constant: '<S8>/Constant13'
 847:HANcoder_E407_TTA_CombineModel_V2.c ****      *  DataStoreRead: '<S1>/Data Store Read'
 848:HANcoder_E407_TTA_CombineModel_V2.c ****      */
 849:HANcoder_E407_TTA_CombineModel_V2.c ****     rtb_Equal14 = (rtDWork.Board_ID == 1.0);
 850:HANcoder_E407_TTA_CombineModel_V2.c **** 
 851:HANcoder_E407_TTA_CombineModel_V2.c ****     /* Logic: '<S8>/AND3' incorporates:
 852:HANcoder_E407_TTA_CombineModel_V2.c ****      *  Logic: '<S8>/NOT1'
 853:HANcoder_E407_TTA_CombineModel_V2.c ****      */
 854:HANcoder_E407_TTA_CombineModel_V2.c ****     AND3 = (rtb_NotEqual && (!rtb_Equal14));
 1510              		.loc 1 854 26 view .LVU541
 1511 00b6 B0EE007A 		vmov.f32	s14, #2.0e+0
 1512 00ba F4EE477A 		vcmp.f32	s15, s14
 838:HANcoder_E407_TTA_CombineModel_V2.c **** 
 1513              		.loc 1 838 34 view .LVU542
 1514 00be 0125     		movs	r5, #1
 1515              	.LVL101:
 1516              		.loc 1 854 26 view .LVU543
 1517 00c0 F1EE10FA 		vmrs	APSR_nzcv, FPSCR
 838:HANcoder_E407_TTA_CombineModel_V2.c **** 
 1518              		.loc 1 838 34 view .LVU544
 1519 00c4 84F84850 		strb	r5, [r4, #72]
 843:HANcoder_E407_TTA_CombineModel_V2.c **** 
 1520              		.loc 1 843 5 is_stmt 1 view .LVU545
 1521              	.LVL102:
 849:HANcoder_E407_TTA_CombineModel_V2.c **** 
 1522              		.loc 1 849 5 view .LVU546
 1523              		.loc 1 854 5 view .LVU547
 1524              		.loc 1 854 26 is_stmt 0 view .LVU548
 1525 00c8 40F09680 		bne	.L112
 1526              		.loc 1 854 26 discriminator 1 view .LVU549
 1527 00cc 0022     		movs	r2, #0
 1528 00ce 3D4B     		ldr	r3, .L383+4
 1529 00d0 3046     		mov	r0, r6
 1530 00d2 3946     		mov	r1, r7
 1531 00d4 FFF7FEFF 		bl	__aeabi_dcmpeq
 1532              	.LVL103:
 1533              		.loc 1 854 26 discriminator 1 view .LVU550
 1534 00d8 0246     		mov	r2, r0
 1535 00da 0028     		cmp	r0, #0
 1536 00dc 40F06586 		bne	.L337
 1537              	.LVL104:
 855:HANcoder_E407_TTA_CombineModel_V2.c **** 
 856:HANcoder_E407_TTA_CombineModel_V2.c ****     /* Outputs for Enabled SubSystem: '<S8>/MMBS1_RX' */
 857:HANcoder_E407_TTA_CombineModel_V2.c ****     /* Constant: '<S8>/Constant12' */
 858:HANcoder_E407_TTA_CombineModel_V2.c ****     MMBS1_RX(AND3, MMBS1_ID, &rtB.MMBS1_RX_j, &rtDWork.MMBS1_RX_j);
 1538              		.loc 1 858 5 is_stmt 1 view .LVU551
 1539              	.LBB171:
 1540              	.LBB172:
 1541              	.LBB173:
 1542              	.LBB174:
 350:HANcoder_E407_TTA_CombineModel_V2.c **** 
 1543              		.loc 1 350 28 is_stmt 0 view .LVU552
 1544 00e0 84F8C952 		strb	r5, [r4, #713]
 1545              	.LBE174:
 1546              	.LBE173:
 1547              	.LBE172:
 1548              	.LBE171:
 1549              		.loc 1 858 5 view .LVU553
 1550 00e4 3B4B     		ldr	r3, .L383+20
 1551              	.LVL105:
 1552              	.LBB190:
 1553              	.LBI171:
 332:HANcoder_E407_TTA_CombineModel_V2.c ****               rtDW_MMBS1_RX *localDW)
 1554              		.loc 1 332 6 is_stmt 1 view .LVU554
 1555              	.LBB185:
 336:HANcoder_E407_TTA_CombineModel_V2.c ****   uint8_T rtb_SFunction_o3_b;
 1556              		.loc 1 336 3 view .LVU555
 337:HANcoder_E407_TTA_CombineModel_V2.c ****   uint8_T rtb_SFunction_o4_l;
 1557              		.loc 1 337 3 view .LVU556
 338:HANcoder_E407_TTA_CombineModel_V2.c ****   uint8_T rtb_SFunction_o5_e;
 1558              		.loc 1 338 3 view .LVU557
 339:HANcoder_E407_TTA_CombineModel_V2.c ****   uint8_T rtb_SFunction_o6_k;
 1559              		.loc 1 339 3 view .LVU558
 340:HANcoder_E407_TTA_CombineModel_V2.c ****   uint8_T rtb_SFunction_o7_dj;
 1560              		.loc 1 340 3 view .LVU559
 341:HANcoder_E407_TTA_CombineModel_V2.c ****   uint8_T rtb_SFunction_o8_n1;
 1561              		.loc 1 341 3 view .LVU560
 342:HANcoder_E407_TTA_CombineModel_V2.c ****   uint8_T rtb_SFunction_o9_o;
 1562              		.loc 1 342 3 view .LVU561
 343:HANcoder_E407_TTA_CombineModel_V2.c ****   int8_T rtb_SFunction_o1_g;
 1563              		.loc 1 343 3 view .LVU562
 344:HANcoder_E407_TTA_CombineModel_V2.c **** 
 1564              		.loc 1 344 3 view .LVU563
 349:HANcoder_E407_TTA_CombineModel_V2.c ****     localDW->MMBS1_RX_MODE = true;
 1565              		.loc 1 349 3 view .LVU564
 1566              	.LBB178:
 1567              	.LBI173:
 332:HANcoder_E407_TTA_CombineModel_V2.c ****               rtDW_MMBS1_RX *localDW)
 1568              		.loc 1 332 6 view .LVU565
 1569              	.LBB177:
 350:HANcoder_E407_TTA_CombineModel_V2.c **** 
 1570              		.loc 1 350 5 view .LVU566
 355:HANcoder_E407_TTA_CombineModel_V2.c ****       &canRxData_0_rtu_In1.uint8_T_info[0], NULL);
 1571              		.loc 1 355 5 view .LVU567
 355:HANcoder_E407_TTA_CombineModel_V2.c ****       &canRxData_0_rtu_In1.uint8_T_info[0], NULL);
 1572              		.loc 1 355 26 is_stmt 0 view .LVU568
 1573 00e6 3C4D     		ldr	r5, .L383+24
 1574 00e8 0090     		str	r0, [sp]
 1575 00ea 1968     		ldr	r1, [r3]
 1576 00ec 2B46     		mov	r3, r5
 1577              	.LVL106:
 355:HANcoder_E407_TTA_CombineModel_V2.c ****       &canRxData_0_rtu_In1.uint8_T_info[0], NULL);
 1578              		.loc 1 355 26 view .LVU569
 1579 00ee FFF7FEFF 		bl	CanIoGetMessage
 1580              	.LVL107:
 359:HANcoder_E407_TTA_CombineModel_V2.c ****       /* read the data */
 1581              		.loc 1 359 5 is_stmt 1 view .LVU570
 359:HANcoder_E407_TTA_CombineModel_V2.c ****       /* read the data */
 1582              		.loc 1 359 8 is_stmt 0 view .LVU571
 1583 00f2 0028     		cmp	r0, #0
 1584 00f4 02DD     		ble	.L115
 361:HANcoder_E407_TTA_CombineModel_V2.c ****       rtb_SFunction_o3_b = canRxData_0_rtu_In1.uint8_T_info[1];
 1585              		.loc 1 361 7 is_stmt 1 view .LVU572
 1586              	.LVL108:
 362:HANcoder_E407_TTA_CombineModel_V2.c ****       rtb_SFunction_o4_l = canRxData_0_rtu_In1.uint8_T_info[2];
 1587              		.loc 1 362 7 view .LVU573
 363:HANcoder_E407_TTA_CombineModel_V2.c ****       rtb_SFunction_o5_e = canRxData_0_rtu_In1.uint8_T_info[3];
 1588              		.loc 1 363 7 view .LVU574
 364:HANcoder_E407_TTA_CombineModel_V2.c ****       rtb_SFunction_o6_k = canRxData_0_rtu_In1.uint8_T_info[4];
 1589              		.loc 1 364 7 view .LVU575
 365:HANcoder_E407_TTA_CombineModel_V2.c ****       rtb_SFunction_o7_dj = canRxData_0_rtu_In1.uint8_T_info[5];
 1590              		.loc 1 365 7 view .LVU576
 366:HANcoder_E407_TTA_CombineModel_V2.c ****       rtb_SFunction_o8_n1 = canRxData_0_rtu_In1.uint8_T_info[6];
 1591              		.loc 1 366 7 view .LVU577
 367:HANcoder_E407_TTA_CombineModel_V2.c ****       rtb_SFunction_o9_o = canRxData_0_rtu_In1.uint8_T_info[7];
 1592              		.loc 1 367 7 view .LVU578
 368:HANcoder_E407_TTA_CombineModel_V2.c ****     }
 1593              		.loc 1 368 7 view .LVU579
 372:HANcoder_E407_TTA_CombineModel_V2.c ****                      &localB->EnabledSubsystem_k);
 1594              		.loc 1 372 5 view .LVU580
 1595              	.LBB175:
 1596              	.LBI175:
 284:HANcoder_E407_TTA_CombineModel_V2.c ****                       *localB)
 1597              		.loc 1 284 6 view .LVU581
 1598              	.LBB176:
 290:HANcoder_E407_TTA_CombineModel_V2.c ****     /* SignalConversion generated from: '<S38>/In1' */
 1599              		.loc 1 290 3 view .LVU582
 292:HANcoder_E407_TTA_CombineModel_V2.c ****   }
 1600              		.loc 1 292 5 view .LVU583
 292:HANcoder_E407_TTA_CombineModel_V2.c ****   }
 1601              		.loc 1 292 17 is_stmt 0 view .LVU584
 1602 00f6 2B78     		ldrb	r3, [r5]	@ zero_extendqisi2
 1603 00f8 8AF86630 		strb	r3, [r10, #102]
 1604              	.LVL109:
 1605              	.L115:
 292:HANcoder_E407_TTA_CombineModel_V2.c ****   }
 1606              		.loc 1 292 17 view .LVU585
 1607              	.LBE176:
 1608              	.LBE175:
 1609              	.LBE177:
 1610              	.LBE178:
 1611              	.LBE185:
 1612              	.LBE190:
 859:HANcoder_E407_TTA_CombineModel_V2.c **** 
 860:HANcoder_E407_TTA_CombineModel_V2.c ****     /* End of Outputs for SubSystem: '<S8>/MMBS1_RX' */
 861:HANcoder_E407_TTA_CombineModel_V2.c **** 
 862:HANcoder_E407_TTA_CombineModel_V2.c ****     /* Logic: '<S8>/AND2' */
 863:HANcoder_E407_TTA_CombineModel_V2.c ****     rtb_AND2 = (rtb_NotEqual && rtb_Equal14);
 1613              		.loc 1 863 5 is_stmt 1 view .LVU586
 1614              		.loc 1 863 30 is_stmt 0 view .LVU587
 1615 00fc 314B     		ldr	r3, .L383+4
 1616 00fe 0022     		movs	r2, #0
 1617 0100 3046     		mov	r0, r6
 1618 0102 3946     		mov	r1, r7
 1619 0104 FFF7FEFF 		bl	__aeabi_dcmpeq
 1620              	.LVL110:
 1621 0108 0028     		cmp	r0, #0
 1622 010a 40F0A286 		bne	.L238
 864:HANcoder_E407_TTA_CombineModel_V2.c **** 
 865:HANcoder_E407_TTA_CombineModel_V2.c ****     /* Outputs for Triggered SubSystem: '<S8>/MMBS1_TX' */
 866:HANcoder_E407_TTA_CombineModel_V2.c ****     /* Constant: '<S8>/Constant12' */
 867:HANcoder_E407_TTA_CombineModel_V2.c ****     MMBS1_TX(rtb_AND2, MMBS1_ID, &rtPrevZCSigState.MMBS1_TX_a);
 868:HANcoder_E407_TTA_CombineModel_V2.c **** 
 869:HANcoder_E407_TTA_CombineModel_V2.c ****     /* End of Outputs for SubSystem: '<S8>/MMBS1_TX' */
 870:HANcoder_E407_TTA_CombineModel_V2.c **** 
 871:HANcoder_E407_TTA_CombineModel_V2.c ****     /* RelationalOperator: '<S8>/Equal2' incorporates:
 872:HANcoder_E407_TTA_CombineModel_V2.c ****      *  Constant: '<S8>/Constant2'
 873:HANcoder_E407_TTA_CombineModel_V2.c ****      */
 874:HANcoder_E407_TTA_CombineModel_V2.c ****     rtb_Equal14 = (slotSelected == 3.0);
 1623              		.loc 1 874 33 view .LVU588
 1624 010e 9BF80080 		ldrb	r8, [fp]	@ zero_extendqisi2
 1625              	.LVL111:
 1626              		.loc 1 874 33 view .LVU589
 1627 0112 324D     		ldr	r5, .L383+28
 1628 0114 07EE908A 		vmov	s15, r8	@ int
 1629 0118 F8EEE77A 		vcvt.f32.s32	s15, s15
 875:HANcoder_E407_TTA_CombineModel_V2.c **** 
 876:HANcoder_E407_TTA_CombineModel_V2.c ****     /* RelationalOperator: '<S8>/Equal12' incorporates:
 877:HANcoder_E407_TTA_CombineModel_V2.c ****      *  Constant: '<S8>/Constant15'
 878:HANcoder_E407_TTA_CombineModel_V2.c ****      *  DataStoreRead: '<S1>/Data Store Read'
 879:HANcoder_E407_TTA_CombineModel_V2.c ****      */
 880:HANcoder_E407_TTA_CombineModel_V2.c ****     rtb_NotEqual = (rtDWork.Board_ID == 1.0);
 1630              		.loc 1 880 28 view .LVU590
 1631 011c 94ED066B 		vldr.64	d6, [r4, #24]
 881:HANcoder_E407_TTA_CombineModel_V2.c **** 
 882:HANcoder_E407_TTA_CombineModel_V2.c ****     /* Logic: '<S8>/AND5' incorporates:
 883:HANcoder_E407_TTA_CombineModel_V2.c ****      *  Logic: '<S8>/NOT2'
 884:HANcoder_E407_TTA_CombineModel_V2.c ****      */
 885:HANcoder_E407_TTA_CombineModel_V2.c ****     AND5 = (rtb_Equal14 && (!rtb_NotEqual));
 1632              		.loc 1 885 25 view .LVU591
 1633 0120 B0EE087A 		vmov.f32	s14, #3.0e+0
 1634 0124 F4EE477A 		vcmp.f32	s15, s14
 1635 0128 F1EE10FA 		vmrs	APSR_nzcv, FPSCR
 880:HANcoder_E407_TTA_CombineModel_V2.c **** 
 1636              		.loc 1 880 28 view .LVU592
 1637 012c 8DED066B 		vstr.64	d6, [sp, #24]
 1638              	.LBB191:
 1639              	.LBB192:
 404:HANcoder_E407_TTA_CombineModel_V2.c **** 
 1640              		.loc 1 404 3 is_stmt 1 view .LVU593
 404:HANcoder_E407_TTA_CombineModel_V2.c **** 
 1641              		.loc 1 404 31 is_stmt 0 view .LVU594
 1642 0130 2873     		strb	r0, [r5, #12]
 1643              	.LBE192:
 1644              	.LBE191:
 874:HANcoder_E407_TTA_CombineModel_V2.c **** 
 1645              		.loc 1 874 5 is_stmt 1 view .LVU595
 1646              	.LVL112:
 880:HANcoder_E407_TTA_CombineModel_V2.c **** 
 1647              		.loc 1 880 5 view .LVU596
 1648              		.loc 1 885 5 view .LVU597
 1649              		.loc 1 885 25 is_stmt 0 view .LVU598
 1650 0132 71D0     		beq	.L361
 1651              	.LVL113:
 1652              	.L118:
 886:HANcoder_E407_TTA_CombineModel_V2.c **** 
 887:HANcoder_E407_TTA_CombineModel_V2.c ****     /* Outputs for Enabled SubSystem: '<S8>/SSTM1_RX' */
 888:HANcoder_E407_TTA_CombineModel_V2.c ****     /* Constant: '<S8>/Constant14' */
 889:HANcoder_E407_TTA_CombineModel_V2.c ****     MMBS1_RX(AND5, SSTM1_ID, &rtB.SSTM1_RX, &rtDWork.SSTM1_RX);
 1653              		.loc 1 889 5 is_stmt 1 view .LVU599
 1654              	.LBB197:
 1655              	.LBI197:
 332:HANcoder_E407_TTA_CombineModel_V2.c ****               rtDW_MMBS1_RX *localDW)
 1656              		.loc 1 332 6 view .LVU600
 1657              	.LBB198:
 336:HANcoder_E407_TTA_CombineModel_V2.c ****   uint8_T rtb_SFunction_o3_b;
 1658              		.loc 1 336 3 view .LVU601
 337:HANcoder_E407_TTA_CombineModel_V2.c ****   uint8_T rtb_SFunction_o4_l;
 1659              		.loc 1 337 3 view .LVU602
 338:HANcoder_E407_TTA_CombineModel_V2.c ****   uint8_T rtb_SFunction_o5_e;
 1660              		.loc 1 338 3 view .LVU603
 339:HANcoder_E407_TTA_CombineModel_V2.c ****   uint8_T rtb_SFunction_o6_k;
 1661              		.loc 1 339 3 view .LVU604
 340:HANcoder_E407_TTA_CombineModel_V2.c ****   uint8_T rtb_SFunction_o7_dj;
 1662              		.loc 1 340 3 view .LVU605
 341:HANcoder_E407_TTA_CombineModel_V2.c ****   uint8_T rtb_SFunction_o8_n1;
 1663              		.loc 1 341 3 view .LVU606
 342:HANcoder_E407_TTA_CombineModel_V2.c ****   uint8_T rtb_SFunction_o9_o;
 1664              		.loc 1 342 3 view .LVU607
 343:HANcoder_E407_TTA_CombineModel_V2.c ****   int8_T rtb_SFunction_o1_g;
 1665              		.loc 1 343 3 view .LVU608
 344:HANcoder_E407_TTA_CombineModel_V2.c **** 
 1666              		.loc 1 344 3 view .LVU609
 349:HANcoder_E407_TTA_CombineModel_V2.c ****     localDW->MMBS1_RX_MODE = true;
 1667              		.loc 1 349 3 view .LVU610
 376:HANcoder_E407_TTA_CombineModel_V2.c ****     MMBS1_RX_Disable(localDW);
 1668              		.loc 1 376 10 view .LVU611
 376:HANcoder_E407_TTA_CombineModel_V2.c ****     MMBS1_RX_Disable(localDW);
 1669              		.loc 1 376 13 is_stmt 0 view .LVU612
 1670 0134 94F8C832 		ldrb	r3, [r4, #712]	@ zero_extendqisi2
 1671 0138 13B1     		cbz	r3, .L237
 377:HANcoder_E407_TTA_CombineModel_V2.c ****   }
 1672              		.loc 1 377 5 is_stmt 1 view .LVU613
 1673              	.LVL114:
 1674              	.LBB199:
 1675              	.LBI199:
 305:HANcoder_E407_TTA_CombineModel_V2.c **** {
 1676              		.loc 1 305 6 view .LVU614
 1677              	.LBB200:
 307:HANcoder_E407_TTA_CombineModel_V2.c **** }
 1678              		.loc 1 307 3 view .LVU615
 307:HANcoder_E407_TTA_CombineModel_V2.c **** }
 1679              		.loc 1 307 26 is_stmt 0 view .LVU616
 1680 013a 0023     		movs	r3, #0
 1681 013c 84F8C832 		strb	r3, [r4, #712]
 1682              	.LVL115:
 307:HANcoder_E407_TTA_CombineModel_V2.c **** }
 1683              		.loc 1 307 26 view .LVU617
 1684              	.LBE200:
 1685              	.LBE199:
 1686              	.LBE198:
 1687              	.LBE197:
 890:HANcoder_E407_TTA_CombineModel_V2.c **** 
 891:HANcoder_E407_TTA_CombineModel_V2.c ****     /* End of Outputs for SubSystem: '<S8>/SSTM1_RX' */
 892:HANcoder_E407_TTA_CombineModel_V2.c **** 
 893:HANcoder_E407_TTA_CombineModel_V2.c ****     /* Logic: '<S8>/AND4' */
 894:HANcoder_E407_TTA_CombineModel_V2.c ****     rtb_AND4 = (rtb_Equal14 && rtb_NotEqual);
 1688              		.loc 1 894 5 is_stmt 1 view .LVU618
 1689              	.L237:
 1690              		.loc 1 894 14 is_stmt 0 view .LVU619
 1691 0140 0023     		movs	r3, #0
 1692              	.LBB209:
 1693              	.LBB210:
 404:HANcoder_E407_TTA_CombineModel_V2.c **** 
 1694              		.loc 1 404 3 is_stmt 1 view .LVU620
 1695              	.LBE210:
 1696              	.LBE209:
 895:HANcoder_E407_TTA_CombineModel_V2.c **** 
 896:HANcoder_E407_TTA_CombineModel_V2.c ****     /* Outputs for Triggered SubSystem: '<S8>/SSTM1_TX' */
 897:HANcoder_E407_TTA_CombineModel_V2.c ****     /* Constant: '<S8>/Constant14' */
 898:HANcoder_E407_TTA_CombineModel_V2.c ****     MMBS1_TX(rtb_AND4, SSTM1_ID, &rtPrevZCSigState.SSTM1_TX);
 899:HANcoder_E407_TTA_CombineModel_V2.c **** 
 900:HANcoder_E407_TTA_CombineModel_V2.c ****     /* End of Outputs for SubSystem: '<S8>/SSTM1_TX' */
 901:HANcoder_E407_TTA_CombineModel_V2.c **** 
 902:HANcoder_E407_TTA_CombineModel_V2.c ****     /* RelationalOperator: '<S8>/Equal' incorporates:
 903:HANcoder_E407_TTA_CombineModel_V2.c ****      *  Constant: '<S8>/Constant'
 904:HANcoder_E407_TTA_CombineModel_V2.c ****      */
 905:HANcoder_E407_TTA_CombineModel_V2.c ****     rtb_Equal14 = (slotSelected == ((uint8_T)1U));
 906:HANcoder_E407_TTA_CombineModel_V2.c **** 
 907:HANcoder_E407_TTA_CombineModel_V2.c ****     /* RelationalOperator: '<S8>/Equal10' incorporates:
 908:HANcoder_E407_TTA_CombineModel_V2.c ****      *  Constant: '<S8>/Constant11'
 909:HANcoder_E407_TTA_CombineModel_V2.c ****      *  DataStoreRead: '<S1>/Data Store Read'
 910:HANcoder_E407_TTA_CombineModel_V2.c ****      */
 911:HANcoder_E407_TTA_CombineModel_V2.c ****     rtb_NotEqual = (rtDWork.Board_ID == ((uint8_T)1U));
 912:HANcoder_E407_TTA_CombineModel_V2.c **** 
 913:HANcoder_E407_TTA_CombineModel_V2.c ****     /* Logic: '<S8>/AND1' incorporates:
 914:HANcoder_E407_TTA_CombineModel_V2.c ****      *  Logic: '<S8>/NOT'
 915:HANcoder_E407_TTA_CombineModel_V2.c ****      */
 916:HANcoder_E407_TTA_CombineModel_V2.c ****     rtb_AND1_k = (rtb_Equal14 && (!rtb_NotEqual));
 1697              		.loc 1 916 31 is_stmt 0 view .LVU621
 1698 0142 B8F1010F 		cmp	r8, #1
 1699              	.LBB216:
 1700              	.LBB211:
 404:HANcoder_E407_TTA_CombineModel_V2.c **** 
 1701              		.loc 1 404 31 view .LVU622
 1702 0146 EB72     		strb	r3, [r5, #11]
 1703              	.LBE211:
 1704              	.LBE216:
 905:HANcoder_E407_TTA_CombineModel_V2.c **** 
 1705              		.loc 1 905 5 is_stmt 1 view .LVU623
 1706              	.LVL116:
 911:HANcoder_E407_TTA_CombineModel_V2.c **** 
 1707              		.loc 1 911 5 view .LVU624
 1708              		.loc 1 916 5 view .LVU625
 1709              		.loc 1 916 31 is_stmt 0 view .LVU626
 1710 0148 40F08D80 		bne	.L362
 1711              	.LVL117:
 1712              	.L123:
 1713              		.loc 1 916 31 discriminator 1 view .LVU627
 1714 014c 0022     		movs	r2, #0
 1715 014e DDE90601 		ldrd	r0, [sp, #24]
 1716 0152 1C4B     		ldr	r3, .L383+4
 1717 0154 FFF7FEFF 		bl	__aeabi_dcmpeq
 1718              	.LVL118:
 1719 0158 0246     		mov	r2, r0
 1720 015a 0028     		cmp	r0, #0
 1721 015c 00F0CF87 		beq	.L125
 1722              	.LVL119:
 917:HANcoder_E407_TTA_CombineModel_V2.c **** 
 918:HANcoder_E407_TTA_CombineModel_V2.c ****     /* Outputs for Enabled SubSystem: '<S8>/SYNC1_RX' incorporates:
 919:HANcoder_E407_TTA_CombineModel_V2.c ****      *  EnablePort: '<S23>/Enable'
 920:HANcoder_E407_TTA_CombineModel_V2.c ****      */
 921:HANcoder_E407_TTA_CombineModel_V2.c ****     if (rtb_AND1_k) {
 1723              		.loc 1 921 5 is_stmt 1 view .LVU628
 922:HANcoder_E407_TTA_CombineModel_V2.c ****       rtDWork.SYNC1_RX_MODE = true;
 923:HANcoder_E407_TTA_CombineModel_V2.c **** 
 924:HANcoder_E407_TTA_CombineModel_V2.c ****       /* M-S-Function: '<S43>/S-Function' incorporates:
 925:HANcoder_E407_TTA_CombineModel_V2.c ****        *  Constant: '<S8>/Constant10'
 926:HANcoder_E407_TTA_CombineModel_V2.c ****        */
 927:HANcoder_E407_TTA_CombineModel_V2.c **** 
 928:HANcoder_E407_TTA_CombineModel_V2.c ****       /* read the message data and store the new parameter */
 929:HANcoder_E407_TTA_CombineModel_V2.c ****       rtb_SFunction_o1_h = CanIoGetMessage(0, SYNC1_ID, NULL,
 930:HANcoder_E407_TTA_CombineModel_V2.c ****         &canRxData_0_SYNC1_ID.uint8_T_info[0], NULL);
 931:HANcoder_E407_TTA_CombineModel_V2.c **** 
 932:HANcoder_E407_TTA_CombineModel_V2.c ****       /* process the message data */
 933:HANcoder_E407_TTA_CombineModel_V2.c ****       if (rtb_SFunction_o1_h > 0) {
 934:HANcoder_E407_TTA_CombineModel_V2.c ****         /* read the data */
 935:HANcoder_E407_TTA_CombineModel_V2.c ****         rtb_SFunction_o2_i = canRxData_0_SYNC1_ID.uint8_T_info[0];
 936:HANcoder_E407_TTA_CombineModel_V2.c ****         rtb_SFunction_o3_g = canRxData_0_SYNC1_ID.uint8_T_info[1];
 937:HANcoder_E407_TTA_CombineModel_V2.c ****         rtb_SFunction_o4_j = canRxData_0_SYNC1_ID.uint8_T_info[2];
 938:HANcoder_E407_TTA_CombineModel_V2.c ****         rtb_SFunction_o5_f = canRxData_0_SYNC1_ID.uint8_T_info[3];
 939:HANcoder_E407_TTA_CombineModel_V2.c ****         rtb_SFunction_o6_g = canRxData_0_SYNC1_ID.uint8_T_info[4];
 940:HANcoder_E407_TTA_CombineModel_V2.c ****         rtb_SFunction_o7_k = canRxData_0_SYNC1_ID.uint8_T_info[5];
 941:HANcoder_E407_TTA_CombineModel_V2.c ****         rtb_SFunction_o8_n = canRxData_0_SYNC1_ID.uint8_T_info[6];
 942:HANcoder_E407_TTA_CombineModel_V2.c ****         rtb_SFunction_o9_b1 = canRxData_0_SYNC1_ID.uint8_T_info[7];
 943:HANcoder_E407_TTA_CombineModel_V2.c ****       }
 944:HANcoder_E407_TTA_CombineModel_V2.c **** 
 945:HANcoder_E407_TTA_CombineModel_V2.c ****       /* Outputs for Enabled SubSystem: '<S43>/Enabled Subsystem' */
 946:HANcoder_E407_TTA_CombineModel_V2.c ****       EnabledSubsystem(rtb_SFunction_o1_h, rtb_SFunction_o2_i,
 947:HANcoder_E407_TTA_CombineModel_V2.c ****                        &rtB.EnabledSubsystem_c);
 948:HANcoder_E407_TTA_CombineModel_V2.c **** 
 949:HANcoder_E407_TTA_CombineModel_V2.c ****       /* End of Outputs for SubSystem: '<S43>/Enabled Subsystem' */
 950:HANcoder_E407_TTA_CombineModel_V2.c **** 
 951:HANcoder_E407_TTA_CombineModel_V2.c ****       /* Outputs for Triggered SubSystem: '<S23>/Subsystem' incorporates:
 952:HANcoder_E407_TTA_CombineModel_V2.c ****        *  TriggerPort: '<S44>/Trigger'
 953:HANcoder_E407_TTA_CombineModel_V2.c ****        */
 954:HANcoder_E407_TTA_CombineModel_V2.c ****       zcEvent = rt_I32ZCFcn(RISING_ZERO_CROSSING,
 955:HANcoder_E407_TTA_CombineModel_V2.c ****                             &rtPrevZCSigState.Subsystem_Trig_ZCE_h,
 956:HANcoder_E407_TTA_CombineModel_V2.c ****                             (rtb_SFunction_o1_h));
 957:HANcoder_E407_TTA_CombineModel_V2.c ****       if (zcEvent != NO_ZCEVENT) {
 958:HANcoder_E407_TTA_CombineModel_V2.c ****         /* DataStoreWrite: '<S44>/Data Store Write' */
 959:HANcoder_E407_TTA_CombineModel_V2.c ****         rtDWork.SlotTime = rtB.EnabledSubsystem_c.In1;
 960:HANcoder_E407_TTA_CombineModel_V2.c **** 
 961:HANcoder_E407_TTA_CombineModel_V2.c ****         /* DataStoreWrite: '<S44>/Data Store Write1' incorporates:
 962:HANcoder_E407_TTA_CombineModel_V2.c ****          *  Constant: '<S44>/Constant'
 963:HANcoder_E407_TTA_CombineModel_V2.c ****          */
 964:HANcoder_E407_TTA_CombineModel_V2.c ****         rtDWork.Local_Ticks = ((uint8_T)2U);
 965:HANcoder_E407_TTA_CombineModel_V2.c **** 
 966:HANcoder_E407_TTA_CombineModel_V2.c ****         /* DataStoreWrite: '<S44>/Data Store Write2' incorporates:
 967:HANcoder_E407_TTA_CombineModel_V2.c ****          *  Constant: '<S44>/Constant1'
 968:HANcoder_E407_TTA_CombineModel_V2.c ****          */
 969:HANcoder_E407_TTA_CombineModel_V2.c ****         rtDWork.slot = ((uint8_T)1U);
 970:HANcoder_E407_TTA_CombineModel_V2.c ****       }
 971:HANcoder_E407_TTA_CombineModel_V2.c **** 
 972:HANcoder_E407_TTA_CombineModel_V2.c ****       /* End of Outputs for SubSystem: '<S23>/Subsystem' */
 973:HANcoder_E407_TTA_CombineModel_V2.c ****     } else if (rtDWork.SYNC1_RX_MODE) {
 1724              		.loc 1 973 12 view .LVU629
 1725              		.loc 1 973 15 is_stmt 0 view .LVU630
 1726 0160 94F84C30 		ldrb	r3, [r4, #76]	@ zero_extendqisi2
 1727 0164 13B1     		cbz	r3, .L126
 974:HANcoder_E407_TTA_CombineModel_V2.c ****       rtDWork.SYNC1_RX_MODE = false;
 1728              		.loc 1 974 7 is_stmt 1 view .LVU631
 1729              		.loc 1 974 29 is_stmt 0 view .LVU632
 1730 0166 0023     		movs	r3, #0
 1731 0168 84F84C30 		strb	r3, [r4, #76]
 975:HANcoder_E407_TTA_CombineModel_V2.c ****     }
 976:HANcoder_E407_TTA_CombineModel_V2.c **** 
 977:HANcoder_E407_TTA_CombineModel_V2.c ****     /* End of Outputs for SubSystem: '<S8>/SYNC1_RX' */
 978:HANcoder_E407_TTA_CombineModel_V2.c **** 
 979:HANcoder_E407_TTA_CombineModel_V2.c ****     /* Logic: '<S8>/AND' */
 980:HANcoder_E407_TTA_CombineModel_V2.c ****     boolCan = (rtb_Equal14 && rtb_NotEqual);
 1732              		.loc 1 980 5 is_stmt 1 view .LVU633
 1733              	.L126:
 981:HANcoder_E407_TTA_CombineModel_V2.c **** 
 982:HANcoder_E407_TTA_CombineModel_V2.c ****     /* Outputs for Triggered SubSystem: '<S8>/SYNC1_TX' incorporates:
 983:HANcoder_E407_TTA_CombineModel_V2.c ****      *  TriggerPort: '<S24>/Trigger'
 984:HANcoder_E407_TTA_CombineModel_V2.c ****      */
 985:HANcoder_E407_TTA_CombineModel_V2.c ****     if (boolCan && (rtPrevZCSigState.SYNC1_TX_Trig_ZCE != POS_ZCSIG)) {
 1734              		.loc 1 985 17 is_stmt 0 view .LVU634
 1735 016c 6B7A     		ldrb	r3, [r5, #9]	@ zero_extendqisi2
 980:HANcoder_E407_TTA_CombineModel_V2.c **** 
 1736              		.loc 1 980 13 view .LVU635
 1737 016e DFF87880 		ldr	r8, .L383+40
 1738 0172 0122     		movs	r2, #1
 1739              		.loc 1 985 17 view .LVU636
 1740 0174 9342     		cmp	r3, r2
 980:HANcoder_E407_TTA_CombineModel_V2.c **** 
 1741              		.loc 1 980 13 view .LVU637
 1742 0176 88F80020 		strb	r2, [r8]
 1743              		.loc 1 985 5 is_stmt 1 view .LVU638
 1744              		.loc 1 985 17 is_stmt 0 view .LVU639
 1745 017a 00F0D586 		beq	.L348
 986:HANcoder_E407_TTA_CombineModel_V2.c ****       /* DataStoreRead: '<S24>/Data Store Read1' */
 987:HANcoder_E407_TTA_CombineModel_V2.c ****       testCounter = rtDWork.testCount;
 1746              		.loc 1 987 7 is_stmt 1 view .LVU640
 988:HANcoder_E407_TTA_CombineModel_V2.c **** 
 989:HANcoder_E407_TTA_CombineModel_V2.c ****       /* Sum: '<S24>/Add' incorporates:
 990:HANcoder_E407_TTA_CombineModel_V2.c ****        *  Constant: '<S24>/Constant7'
 991:HANcoder_E407_TTA_CombineModel_V2.c ****        *  DataStoreWrite: '<S24>/Data Store Write'
 992:HANcoder_E407_TTA_CombineModel_V2.c ****        */
 993:HANcoder_E407_TTA_CombineModel_V2.c ****       rtDWork.testCount = (uint16_T)((uint32_T)testCounter + ((uint16_T)1U));
 994:HANcoder_E407_TTA_CombineModel_V2.c **** 
 995:HANcoder_E407_TTA_CombineModel_V2.c ****       /* DataStoreRead: '<S24>/Data Store Read' */
 996:HANcoder_E407_TTA_CombineModel_V2.c ****       rtB.DataStoreRead_n = rtDWork.SlotTime;
 997:HANcoder_E407_TTA_CombineModel_V2.c **** 
 998:HANcoder_E407_TTA_CombineModel_V2.c ****       /* Update for M-S-Function: '<S46>/S-Function' incorporates:
 999:HANcoder_E407_TTA_CombineModel_V2.c ****        *  Constant: '<S24>/Constant'
1000:HANcoder_E407_TTA_CombineModel_V2.c ****        *  Constant: '<S24>/Constant1'
1001:HANcoder_E407_TTA_CombineModel_V2.c ****        *  Constant: '<S24>/Constant2'
1002:HANcoder_E407_TTA_CombineModel_V2.c ****        *  Constant: '<S24>/Constant3'
1003:HANcoder_E407_TTA_CombineModel_V2.c ****        *  Constant: '<S24>/Constant4'
1004:HANcoder_E407_TTA_CombineModel_V2.c ****        *  Constant: '<S24>/Constant5'
1005:HANcoder_E407_TTA_CombineModel_V2.c ****        *  Constant: '<S24>/Constant6'
1006:HANcoder_E407_TTA_CombineModel_V2.c ****        *  Constant: '<S8>/Constant10'
1007:HANcoder_E407_TTA_CombineModel_V2.c ****        */
1008:HANcoder_E407_TTA_CombineModel_V2.c ****       {
1009:HANcoder_E407_TTA_CombineModel_V2.c ****         /* prepare the data */
1010:HANcoder_E407_TTA_CombineModel_V2.c ****         canTxData.uint8_T_info[0] = rtB.DataStoreRead_n;
 1747              		.loc 1 1010 35 is_stmt 0 view .LVU641
 1748 017e 184B     		ldr	r3, .L383+32
 987:HANcoder_E407_TTA_CombineModel_V2.c **** 
 1749              		.loc 1 987 19 view .LVU642
 1750 0180 DFF870C0 		ldr	ip, .L383+52
1011:HANcoder_E407_TTA_CombineModel_V2.c ****         canTxData.uint8_T_info[1] = ((uint8_T)1U);
 1751              		.loc 1 1011 35 view .LVU643
 1752 0184 5A70     		strb	r2, [r3, #1]
 987:HANcoder_E407_TTA_CombineModel_V2.c **** 
 1753              		.loc 1 987 28 view .LVU644
 1754 0186 E28E     		ldrh	r2, [r4, #54]
 987:HANcoder_E407_TTA_CombineModel_V2.c **** 
 1755              		.loc 1 987 19 view .LVU645
 1756 0188 ACF80020 		strh	r2, [ip]	@ movhi
 993:HANcoder_E407_TTA_CombineModel_V2.c **** 
 1757              		.loc 1 993 7 is_stmt 1 view .LVU646
 993:HANcoder_E407_TTA_CombineModel_V2.c **** 
 1758              		.loc 1 993 27 is_stmt 0 view .LVU647
 1759 018c 0132     		adds	r2, r2, #1
 993:HANcoder_E407_TTA_CombineModel_V2.c **** 
 1760              		.loc 1 993 25 view .LVU648
 1761 018e E286     		strh	r2, [r4, #54]	@ movhi
 996:HANcoder_E407_TTA_CombineModel_V2.c **** 
 1762              		.loc 1 996 7 is_stmt 1 view .LVU649
1012:HANcoder_E407_TTA_CombineModel_V2.c ****         canTxData.uint8_T_info[2] = ((uint8_T)0U);
1013:HANcoder_E407_TTA_CombineModel_V2.c ****         canTxData.uint8_T_info[3] = ((uint8_T)0U);
1014:HANcoder_E407_TTA_CombineModel_V2.c ****         canTxData.uint8_T_info[4] = ((uint8_T)0U);
1015:HANcoder_E407_TTA_CombineModel_V2.c ****         canTxData.uint8_T_info[5] = ((uint8_T)0U);
1016:HANcoder_E407_TTA_CombineModel_V2.c ****         canTxData.uint8_T_info[6] = ((uint8_T)0U);
1017:HANcoder_E407_TTA_CombineModel_V2.c ****         canTxData.uint8_T_info[7] = ((uint8_T)1U);
1018:HANcoder_E407_TTA_CombineModel_V2.c **** 
1019:HANcoder_E407_TTA_CombineModel_V2.c ****         /* send the data */
1020:HANcoder_E407_TTA_CombineModel_V2.c ****         CanTransmit(0, SYNC1_ID, 8, &canTxData.uint8_T_info[0]);
 1763              		.loc 1 1020 9 is_stmt 0 view .LVU650
 1764 0190 1449     		ldr	r1, .L383+36
 996:HANcoder_E407_TTA_CombineModel_V2.c **** 
 1765              		.loc 1 996 36 view .LVU651
 1766 0192 94F84120 		ldrb	r2, [r4, #65]	@ zero_extendqisi2
1010:HANcoder_E407_TTA_CombineModel_V2.c ****         canTxData.uint8_T_info[1] = ((uint8_T)1U);
 1767              		.loc 1 1010 35 view .LVU652
 1768 0196 1A70     		strb	r2, [r3]
 996:HANcoder_E407_TTA_CombineModel_V2.c **** 
 1769              		.loc 1 996 27 view .LVU653
 1770 0198 8AF81C20 		strb	r2, [r10, #28]
1010:HANcoder_E407_TTA_CombineModel_V2.c ****         canTxData.uint8_T_info[1] = ((uint8_T)1U);
 1771              		.loc 1 1010 9 is_stmt 1 view .LVU654
1011:HANcoder_E407_TTA_CombineModel_V2.c ****         canTxData.uint8_T_info[2] = ((uint8_T)0U);
 1772              		.loc 1 1011 9 view .LVU655
1012:HANcoder_E407_TTA_CombineModel_V2.c ****         canTxData.uint8_T_info[2] = ((uint8_T)0U);
 1773              		.loc 1 1012 9 view .LVU656
1013:HANcoder_E407_TTA_CombineModel_V2.c ****         canTxData.uint8_T_info[4] = ((uint8_T)0U);
 1774              		.loc 1 1013 9 view .LVU657
1014:HANcoder_E407_TTA_CombineModel_V2.c ****         canTxData.uint8_T_info[5] = ((uint8_T)0U);
 1775              		.loc 1 1014 9 view .LVU658
1015:HANcoder_E407_TTA_CombineModel_V2.c ****         canTxData.uint8_T_info[6] = ((uint8_T)0U);
 1776              		.loc 1 1015 9 view .LVU659
1016:HANcoder_E407_TTA_CombineModel_V2.c ****         canTxData.uint8_T_info[7] = ((uint8_T)1U);
 1777              		.loc 1 1016 9 view .LVU660
1017:HANcoder_E407_TTA_CombineModel_V2.c **** 
 1778              		.loc 1 1017 9 view .LVU661
1014:HANcoder_E407_TTA_CombineModel_V2.c ****         canTxData.uint8_T_info[5] = ((uint8_T)0U);
 1779              		.loc 1 1014 35 is_stmt 0 view .LVU662
 1780 019c 4FF08072 		mov	r2, #16777216
 1781 01a0 5A60     		str	r2, [r3, #4]
 1782              		.loc 1 1020 9 is_stmt 1 view .LVU663
1012:HANcoder_E407_TTA_CombineModel_V2.c ****         canTxData.uint8_T_info[3] = ((uint8_T)0U);
 1783              		.loc 1 1012 35 is_stmt 0 view .LVU664
 1784 01a2 0020     		movs	r0, #0
 1785              		.loc 1 1020 9 view .LVU665
 1786 01a4 0968     		ldr	r1, [r1]
1012:HANcoder_E407_TTA_CombineModel_V2.c ****         canTxData.uint8_T_info[3] = ((uint8_T)0U);
 1787              		.loc 1 1012 35 view .LVU666
 1788 01a6 5880     		strh	r0, [r3, #2]	@ movhi
 1789              		.loc 1 1020 9 view .LVU667
 1790 01a8 0822     		movs	r2, #8
 1791 01aa FFF7FEFF 		bl	CanTransmit
 1792              	.LVL120:
1021:HANcoder_E407_TTA_CombineModel_V2.c ****       }
1022:HANcoder_E407_TTA_CombineModel_V2.c ****     }
1023:HANcoder_E407_TTA_CombineModel_V2.c **** 
1024:HANcoder_E407_TTA_CombineModel_V2.c ****     rtPrevZCSigState.SYNC1_TX_Trig_ZCE = boolCan;
 1793              		.loc 1 1024 40 view .LVU668
 1794 01ae 98F80030 		ldrb	r3, [r8]	@ zero_extendqisi2
1025:HANcoder_E407_TTA_CombineModel_V2.c **** 
1026:HANcoder_E407_TTA_CombineModel_V2.c ****     /* End of Outputs for SubSystem: '<S8>/SYNC1_TX' */
1027:HANcoder_E407_TTA_CombineModel_V2.c **** 
1028:HANcoder_E407_TTA_CombineModel_V2.c ****     /* Logic: '<S8>/OR1' incorporates:
1029:HANcoder_E407_TTA_CombineModel_V2.c ****      *  Constant: '<S8>/Constant27'
1030:HANcoder_E407_TTA_CombineModel_V2.c ****      *  Constant: '<S8>/Constant4'
1031:HANcoder_E407_TTA_CombineModel_V2.c ****      *  RelationalOperator: '<S8>/Equal19'
1032:HANcoder_E407_TTA_CombineModel_V2.c ****      *  RelationalOperator: '<S8>/Equal4'
1033:HANcoder_E407_TTA_CombineModel_V2.c ****      */
1034:HANcoder_E407_TTA_CombineModel_V2.c ****     rtb_NotEqual = ((slotSelected == 5.0) || (slotSelected == 10.0));
 1795              		.loc 1 1034 35 view .LVU669
 1796 01b2 9BF80080 		ldrb	r8, [fp]	@ zero_extendqisi2
 1797 01b6 5FE0     		b	.L129
 1798              	.LVL121:
 1799              	.L360:
 747:HANcoder_E407_TTA_CombineModel_V2.c ****   }
 1800              		.loc 1 747 5 is_stmt 1 view .LVU670
 747:HANcoder_E407_TTA_CombineModel_V2.c ****   }
 1801              		.loc 1 747 42 is_stmt 0 view .LVU671
 1802 01b8 84F84D00 		strb	r0, [r4, #77]
 1803 01bc 34E7     		b	.L101
 1804              	.L384:
 1805 01be 00BF     		.align	2
 1806              	.L383:
 1807 01c0 00000000 		.word	rtDWork
 1808 01c4 0000F03F 		.word	1072693248
 1809 01c8 00000000 		.word	ClockOn
 1810 01cc 00000000 		.word	masterID
 1811 01d0 00000000 		.word	canActive
 1812 01d4 00000000 		.word	MMBS1_ID
 1813 01d8 00000000 		.word	canRxData_0_rtu_In1
 1814 01dc 00000000 		.word	rtPrevZCSigState
 1815 01e0 00000000 		.word	canTxData
 1816 01e4 00000000 		.word	SYNC1_ID
 1817 01e8 00000000 		.word	boolCan
 1818 01ec 00000000 		.word	rtB
 1819 01f0 00000000 		.word	slotSelected
 1820 01f4 00000000 		.word	testCounter
 1821              	.LVL122:
 1822              	.L112:
 858:HANcoder_E407_TTA_CombineModel_V2.c **** 
 1823              		.loc 1 858 5 is_stmt 1 view .LVU672
 1824              	.LBB217:
 332:HANcoder_E407_TTA_CombineModel_V2.c ****               rtDW_MMBS1_RX *localDW)
 1825              		.loc 1 332 6 view .LVU673
 1826              	.LBB186:
 336:HANcoder_E407_TTA_CombineModel_V2.c ****   uint8_T rtb_SFunction_o3_b;
 1827              		.loc 1 336 3 view .LVU674
 337:HANcoder_E407_TTA_CombineModel_V2.c ****   uint8_T rtb_SFunction_o4_l;
 1828              		.loc 1 337 3 view .LVU675
 338:HANcoder_E407_TTA_CombineModel_V2.c ****   uint8_T rtb_SFunction_o5_e;
 1829              		.loc 1 338 3 view .LVU676
 339:HANcoder_E407_TTA_CombineModel_V2.c ****   uint8_T rtb_SFunction_o6_k;
 1830              		.loc 1 339 3 view .LVU677
 340:HANcoder_E407_TTA_CombineModel_V2.c ****   uint8_T rtb_SFunction_o7_dj;
 1831              		.loc 1 340 3 view .LVU678
 341:HANcoder_E407_TTA_CombineModel_V2.c ****   uint8_T rtb_SFunction_o8_n1;
 1832              		.loc 1 341 3 view .LVU679
 342:HANcoder_E407_TTA_CombineModel_V2.c ****   uint8_T rtb_SFunction_o9_o;
 1833              		.loc 1 342 3 view .LVU680
 343:HANcoder_E407_TTA_CombineModel_V2.c ****   int8_T rtb_SFunction_o1_g;
 1834              		.loc 1 343 3 view .LVU681
 344:HANcoder_E407_TTA_CombineModel_V2.c **** 
 1835              		.loc 1 344 3 view .LVU682
 349:HANcoder_E407_TTA_CombineModel_V2.c ****     localDW->MMBS1_RX_MODE = true;
 1836              		.loc 1 349 3 view .LVU683
 376:HANcoder_E407_TTA_CombineModel_V2.c ****     MMBS1_RX_Disable(localDW);
 1837              		.loc 1 376 10 view .LVU684
 376:HANcoder_E407_TTA_CombineModel_V2.c ****     MMBS1_RX_Disable(localDW);
 1838              		.loc 1 376 21 is_stmt 0 view .LVU685
 1839 01f8 94F8C902 		ldrb	r0, [r4, #713]	@ zero_extendqisi2
 376:HANcoder_E407_TTA_CombineModel_V2.c ****     MMBS1_RX_Disable(localDW);
 1840              		.loc 1 376 13 view .LVU686
 1841 01fc 0028     		cmp	r0, #0
 1842 01fe 40F0FC85 		bne	.L240
 1843              	.L351:
 1844              	.LVL123:
 376:HANcoder_E407_TTA_CombineModel_V2.c ****     MMBS1_RX_Disable(localDW);
 1845              		.loc 1 376 13 view .LVU687
 1846              	.LBE186:
 1847              	.LBE217:
 863:HANcoder_E407_TTA_CombineModel_V2.c **** 
 1848              		.loc 1 863 5 is_stmt 1 view .LVU688
 1849              	.LBB218:
 1850              	.LBB187:
 1851              	.LBB179:
 1852              	.LBB180:
 307:HANcoder_E407_TTA_CombineModel_V2.c **** }
 1853              		.loc 1 307 26 is_stmt 0 view .LVU689
 1854 0202 CDE90667 		strd	r6, [sp, #24]
 1855 0206 C44D     		ldr	r5, .L385+16
 1856              	.LVL124:
 1857              	.L116:
 307:HANcoder_E407_TTA_CombineModel_V2.c **** }
 1858              		.loc 1 307 26 view .LVU690
 1859              	.LBE180:
 1860              	.LBE179:
 1861              	.LBE187:
 1862              	.LBE218:
 1863              	.LBB219:
 1864              	.LBB193:
 404:HANcoder_E407_TTA_CombineModel_V2.c **** 
 1865              		.loc 1 404 3 is_stmt 1 view .LVU691
 404:HANcoder_E407_TTA_CombineModel_V2.c **** 
 1866              		.loc 1 404 31 is_stmt 0 view .LVU692
 1867 0208 2873     		strb	r0, [r5, #12]
 1868              	.LBE193:
 1869              	.LBE219:
 874:HANcoder_E407_TTA_CombineModel_V2.c **** 
 1870              		.loc 1 874 5 is_stmt 1 view .LVU693
 1871              	.LVL125:
 880:HANcoder_E407_TTA_CombineModel_V2.c **** 
 1872              		.loc 1 880 5 view .LVU694
 885:HANcoder_E407_TTA_CombineModel_V2.c **** 
 1873              		.loc 1 885 5 view .LVU695
 885:HANcoder_E407_TTA_CombineModel_V2.c **** 
 1874              		.loc 1 885 25 is_stmt 0 view .LVU696
 1875 020a B0EE087A 		vmov.f32	s14, #3.0e+0
 1876 020e F4EE477A 		vcmp.f32	s15, s14
 1877 0212 F1EE10FA 		vmrs	APSR_nzcv, FPSCR
 1878 0216 8DD1     		bne	.L118
 1879              	.LVL126:
 1880              	.L361:
 885:HANcoder_E407_TTA_CombineModel_V2.c **** 
 1881              		.loc 1 885 25 discriminator 1 view .LVU697
 1882 0218 0022     		movs	r2, #0
 1883 021a DDE90601 		ldrd	r0, [sp, #24]
 1884 021e BF4B     		ldr	r3, .L385+20
 1885 0220 FFF7FEFF 		bl	__aeabi_dcmpeq
 1886              	.LVL127:
 1887 0224 0246     		mov	r2, r0
 1888 0226 0028     		cmp	r0, #0
 1889 0228 40F0C885 		bne	.L338
 1890              	.LVL128:
 889:HANcoder_E407_TTA_CombineModel_V2.c **** 
 1891              		.loc 1 889 5 is_stmt 1 view .LVU698
 889:HANcoder_E407_TTA_CombineModel_V2.c **** 
 1892              		.loc 1 889 5 is_stmt 0 view .LVU699
 1893 022c BC4B     		ldr	r3, .L385+24
 1894              	.LVL129:
 1895              	.LBB220:
 332:HANcoder_E407_TTA_CombineModel_V2.c ****               rtDW_MMBS1_RX *localDW)
 1896              		.loc 1 332 6 is_stmt 1 view .LVU700
 1897              	.LBB207:
 336:HANcoder_E407_TTA_CombineModel_V2.c ****   uint8_T rtb_SFunction_o3_b;
 1898              		.loc 1 336 3 view .LVU701
 337:HANcoder_E407_TTA_CombineModel_V2.c ****   uint8_T rtb_SFunction_o4_l;
 1899              		.loc 1 337 3 view .LVU702
 338:HANcoder_E407_TTA_CombineModel_V2.c ****   uint8_T rtb_SFunction_o5_e;
 1900              		.loc 1 338 3 view .LVU703
 339:HANcoder_E407_TTA_CombineModel_V2.c ****   uint8_T rtb_SFunction_o6_k;
 1901              		.loc 1 339 3 view .LVU704
 340:HANcoder_E407_TTA_CombineModel_V2.c ****   uint8_T rtb_SFunction_o7_dj;
 1902              		.loc 1 340 3 view .LVU705
 341:HANcoder_E407_TTA_CombineModel_V2.c ****   uint8_T rtb_SFunction_o8_n1;
 1903              		.loc 1 341 3 view .LVU706
 342:HANcoder_E407_TTA_CombineModel_V2.c ****   uint8_T rtb_SFunction_o9_o;
 1904              		.loc 1 342 3 view .LVU707
 343:HANcoder_E407_TTA_CombineModel_V2.c ****   int8_T rtb_SFunction_o1_g;
 1905              		.loc 1 343 3 view .LVU708
 344:HANcoder_E407_TTA_CombineModel_V2.c **** 
 1906              		.loc 1 344 3 view .LVU709
 349:HANcoder_E407_TTA_CombineModel_V2.c ****     localDW->MMBS1_RX_MODE = true;
 1907              		.loc 1 349 3 view .LVU710
 1908              	.LBB202:
 1909              	.LBI202:
 332:HANcoder_E407_TTA_CombineModel_V2.c ****               rtDW_MMBS1_RX *localDW)
 1910              		.loc 1 332 6 view .LVU711
 1911              	.LBB203:
 350:HANcoder_E407_TTA_CombineModel_V2.c **** 
 1912              		.loc 1 350 5 view .LVU712
 355:HANcoder_E407_TTA_CombineModel_V2.c ****       &canRxData_0_rtu_In1.uint8_T_info[0], NULL);
 1913              		.loc 1 355 26 is_stmt 0 view .LVU713
 1914 022e 0090     		str	r0, [sp]
 1915 0230 DFF83483 		ldr	r8, .L385+96
 1916 0234 1968     		ldr	r1, [r3]
 350:HANcoder_E407_TTA_CombineModel_V2.c **** 
 1917              		.loc 1 350 28 view .LVU714
 1918 0236 0123     		movs	r3, #1
 1919              	.LVL130:
 350:HANcoder_E407_TTA_CombineModel_V2.c **** 
 1920              		.loc 1 350 28 view .LVU715
 1921 0238 84F8C832 		strb	r3, [r4, #712]
 355:HANcoder_E407_TTA_CombineModel_V2.c ****       &canRxData_0_rtu_In1.uint8_T_info[0], NULL);
 1922              		.loc 1 355 5 is_stmt 1 view .LVU716
 355:HANcoder_E407_TTA_CombineModel_V2.c ****       &canRxData_0_rtu_In1.uint8_T_info[0], NULL);
 1923              		.loc 1 355 26 is_stmt 0 view .LVU717
 1924 023c 4346     		mov	r3, r8
 1925 023e FFF7FEFF 		bl	CanIoGetMessage
 1926              	.LVL131:
 359:HANcoder_E407_TTA_CombineModel_V2.c ****       /* read the data */
 1927              		.loc 1 359 5 is_stmt 1 view .LVU718
 359:HANcoder_E407_TTA_CombineModel_V2.c ****       /* read the data */
 1928              		.loc 1 359 8 is_stmt 0 view .LVU719
 1929 0242 0028     		cmp	r0, #0
 1930 0244 03DD     		ble	.L121
 361:HANcoder_E407_TTA_CombineModel_V2.c ****       rtb_SFunction_o3_b = canRxData_0_rtu_In1.uint8_T_info[1];
 1931              		.loc 1 361 7 is_stmt 1 view .LVU720
 1932              	.LVL132:
 362:HANcoder_E407_TTA_CombineModel_V2.c ****       rtb_SFunction_o4_l = canRxData_0_rtu_In1.uint8_T_info[2];
 1933              		.loc 1 362 7 view .LVU721
 363:HANcoder_E407_TTA_CombineModel_V2.c ****       rtb_SFunction_o5_e = canRxData_0_rtu_In1.uint8_T_info[3];
 1934              		.loc 1 363 7 view .LVU722
 364:HANcoder_E407_TTA_CombineModel_V2.c ****       rtb_SFunction_o6_k = canRxData_0_rtu_In1.uint8_T_info[4];
 1935              		.loc 1 364 7 view .LVU723
 365:HANcoder_E407_TTA_CombineModel_V2.c ****       rtb_SFunction_o7_dj = canRxData_0_rtu_In1.uint8_T_info[5];
 1936              		.loc 1 365 7 view .LVU724
 366:HANcoder_E407_TTA_CombineModel_V2.c ****       rtb_SFunction_o8_n1 = canRxData_0_rtu_In1.uint8_T_info[6];
 1937              		.loc 1 366 7 view .LVU725
 367:HANcoder_E407_TTA_CombineModel_V2.c ****       rtb_SFunction_o9_o = canRxData_0_rtu_In1.uint8_T_info[7];
 1938              		.loc 1 367 7 view .LVU726
 368:HANcoder_E407_TTA_CombineModel_V2.c ****     }
 1939              		.loc 1 368 7 view .LVU727
 372:HANcoder_E407_TTA_CombineModel_V2.c ****                      &localB->EnabledSubsystem_k);
 1940              		.loc 1 372 5 view .LVU728
 1941              	.LBB204:
 1942              	.LBI204:
 284:HANcoder_E407_TTA_CombineModel_V2.c ****                       *localB)
 1943              		.loc 1 284 6 view .LVU729
 1944              	.LBB205:
 290:HANcoder_E407_TTA_CombineModel_V2.c ****     /* SignalConversion generated from: '<S38>/In1' */
 1945              		.loc 1 290 3 view .LVU730
 292:HANcoder_E407_TTA_CombineModel_V2.c ****   }
 1946              		.loc 1 292 5 view .LVU731
 292:HANcoder_E407_TTA_CombineModel_V2.c ****   }
 1947              		.loc 1 292 17 is_stmt 0 view .LVU732
 1948 0246 98F80030 		ldrb	r3, [r8]	@ zero_extendqisi2
 1949 024a 8AF86530 		strb	r3, [r10, #101]
 1950              	.LVL133:
 1951              	.L121:
 292:HANcoder_E407_TTA_CombineModel_V2.c ****   }
 1952              		.loc 1 292 17 view .LVU733
 1953              	.LBE205:
 1954              	.LBE204:
 1955              	.LBE203:
 1956              	.LBE202:
 1957              	.LBE207:
 1958              	.LBE220:
 894:HANcoder_E407_TTA_CombineModel_V2.c **** 
 1959              		.loc 1 894 5 is_stmt 1 view .LVU734
 911:HANcoder_E407_TTA_CombineModel_V2.c **** 
 1960              		.loc 1 911 28 is_stmt 0 view .LVU735
 1961 024e 94ED067B 		vldr.64	d7, [r4, #24]
 1962 0252 8DED067B 		vstr.64	d7, [sp, #24]
 905:HANcoder_E407_TTA_CombineModel_V2.c **** 
 1963              		.loc 1 905 33 view .LVU736
 1964 0256 9BF80080 		ldrb	r8, [fp]	@ zero_extendqisi2
 894:HANcoder_E407_TTA_CombineModel_V2.c **** 
 1965              		.loc 1 894 14 view .LVU737
 1966 025a 0023     		movs	r3, #0
 1967              	.LVL134:
 1968              	.L122:
 1969              	.LBB221:
 1970              	.LBB212:
 404:HANcoder_E407_TTA_CombineModel_V2.c **** 
 1971              		.loc 1 404 3 is_stmt 1 view .LVU738
 1972              	.LBE212:
 1973              	.LBE221:
 916:HANcoder_E407_TTA_CombineModel_V2.c **** 
 1974              		.loc 1 916 31 is_stmt 0 view .LVU739
 1975 025c B8F1010F 		cmp	r8, #1
 1976              	.LBB222:
 1977              	.LBB213:
 404:HANcoder_E407_TTA_CombineModel_V2.c **** 
 1978              		.loc 1 404 31 view .LVU740
 1979 0260 EB72     		strb	r3, [r5, #11]
 1980              	.LBE213:
 1981              	.LBE222:
 905:HANcoder_E407_TTA_CombineModel_V2.c **** 
 1982              		.loc 1 905 5 is_stmt 1 view .LVU741
 1983              	.LVL135:
 911:HANcoder_E407_TTA_CombineModel_V2.c **** 
 1984              		.loc 1 911 5 view .LVU742
 916:HANcoder_E407_TTA_CombineModel_V2.c **** 
 1985              		.loc 1 916 5 view .LVU743
 916:HANcoder_E407_TTA_CombineModel_V2.c **** 
 1986              		.loc 1 916 31 is_stmt 0 view .LVU744
 1987 0262 3FF473AF 		beq	.L123
 1988              	.LVL136:
 1989              	.L362:
 921:HANcoder_E407_TTA_CombineModel_V2.c ****       rtDWork.SYNC1_RX_MODE = true;
 1990              		.loc 1 921 5 is_stmt 1 view .LVU745
 973:HANcoder_E407_TTA_CombineModel_V2.c ****       rtDWork.SYNC1_RX_MODE = false;
 1991              		.loc 1 973 12 view .LVU746
 973:HANcoder_E407_TTA_CombineModel_V2.c ****       rtDWork.SYNC1_RX_MODE = false;
 1992              		.loc 1 973 15 is_stmt 0 view .LVU747
 1993 0266 94F84C30 		ldrb	r3, [r4, #76]	@ zero_extendqisi2
 1994 026a 13B1     		cbz	r3, .L231
 974:HANcoder_E407_TTA_CombineModel_V2.c ****     }
 1995              		.loc 1 974 7 is_stmt 1 view .LVU748
 974:HANcoder_E407_TTA_CombineModel_V2.c ****     }
 1996              		.loc 1 974 29 is_stmt 0 view .LVU749
 1997 026c 0023     		movs	r3, #0
 1998 026e 84F84C30 		strb	r3, [r4, #76]
 980:HANcoder_E407_TTA_CombineModel_V2.c **** 
 1999              		.loc 1 980 5 is_stmt 1 view .LVU750
 2000              	.LVL137:
 2001              	.L231:
 980:HANcoder_E407_TTA_CombineModel_V2.c **** 
 2002              		.loc 1 980 13 is_stmt 0 discriminator 4 view .LVU751
 2003 0272 AC4A     		ldr	r2, .L385+28
 2004 0274 0023     		movs	r3, #0
 2005 0276 1370     		strb	r3, [r2]
 985:HANcoder_E407_TTA_CombineModel_V2.c ****       /* DataStoreRead: '<S24>/Data Store Read1' */
 2006              		.loc 1 985 5 is_stmt 1 discriminator 4 view .LVU752
 2007              	.L129:
1024:HANcoder_E407_TTA_CombineModel_V2.c **** 
 2008              		.loc 1 1024 5 view .LVU753
 2009              		.loc 1 1034 35 is_stmt 0 view .LVU754
 2010 0278 07EE908A 		vmov	s15, r8	@ int
 2011 027c B8EEE78A 		vcvt.f32.s32	s16, s15
 2012              		.loc 1 1034 43 view .LVU755
 2013 0280 F1EE047A 		vmov.f32	s15, #5.0e+0
 2014 0284 B4EE678A 		vcmp.f32	s16, s15
 2015 0288 F1EE10FA 		vmrs	APSR_nzcv, FPSCR
1024:HANcoder_E407_TTA_CombineModel_V2.c **** 
 2016              		.loc 1 1024 40 view .LVU756
 2017 028c 6B72     		strb	r3, [r5, #9]
 2018              		.loc 1 1034 5 is_stmt 1 view .LVU757
 2019              		.loc 1 1034 43 is_stmt 0 view .LVU758
 2020 028e 40F04286 		bne	.L363
 2021              	.L130:
 2022              	.LVL138:
1035:HANcoder_E407_TTA_CombineModel_V2.c **** 
1036:HANcoder_E407_TTA_CombineModel_V2.c ****     /* Outputs for Triggered SubSystem: '<S8>/Slot 5 execution' incorporates:
1037:HANcoder_E407_TTA_CombineModel_V2.c ****      *  TriggerPort: '<S25>/Trigger'
1038:HANcoder_E407_TTA_CombineModel_V2.c ****      */
1039:HANcoder_E407_TTA_CombineModel_V2.c ****     if (rtb_NotEqual && (rtPrevZCSigState.Slot5execution_Trig_ZCE != POS_ZCSIG))
 2023              		.loc 1 1039 22 discriminator 1 view .LVU759
 2024 0292 2B7A     		ldrb	r3, [r5, #8]	@ zero_extendqisi2
 2025 0294 012B     		cmp	r3, #1
 2026 0296 00F09580 		beq	.L132
1040:HANcoder_E407_TTA_CombineModel_V2.c ****     {
1041:HANcoder_E407_TTA_CombineModel_V2.c ****       /* M-S-Function: '<S51>/Level-2 M-file S-Function' */
1042:HANcoder_E407_TTA_CombineModel_V2.c ****       /* read from analog input for filtered inputs*/
1043:HANcoder_E407_TTA_CombineModel_V2.c ****       analogPot1 = AninGet(ANIN_PORTF_PIN7,0);
 2027              		.loc 1 1043 7 is_stmt 1 view .LVU760
 2028              		.loc 1 1043 20 is_stmt 0 view .LVU761
 2029 029a 0021     		movs	r1, #0
 2030 029c 0420     		movs	r0, #4
 2031 029e FFF7FEFF 		bl	AninGet
 2032              	.LVL139:
1044:HANcoder_E407_TTA_CombineModel_V2.c **** 
1045:HANcoder_E407_TTA_CombineModel_V2.c ****       /* DataTypeConversion: '<S47>/Cast' */
1046:HANcoder_E407_TTA_CombineModel_V2.c ****       rtb_Cast_m = analogPot1;
1047:HANcoder_E407_TTA_CombineModel_V2.c ****       MovingAverage(rtb_Cast_m, &rtB.MovingAverage_p, &rtDWork.MovingAverage_p);
 2033              		.loc 1 1047 7 view .LVU762
 2034 02a2 07EE900A 		vmov	s15, r0	@ int
1043:HANcoder_E407_TTA_CombineModel_V2.c **** 
 2035              		.loc 1 1043 18 view .LVU763
 2036 02a6 A04B     		ldr	r3, .L385+32
 2037              		.loc 1 1047 7 view .LVU764
 2038 02a8 A04A     		ldr	r2, .L385+36
1043:HANcoder_E407_TTA_CombineModel_V2.c **** 
 2039              		.loc 1 1043 18 view .LVU765
 2040 02aa 1880     		strh	r0, [r3]	@ movhi
1046:HANcoder_E407_TTA_CombineModel_V2.c ****       MovingAverage(rtb_Cast_m, &rtB.MovingAverage_p, &rtDWork.MovingAverage_p);
 2041              		.loc 1 1046 7 is_stmt 1 view .LVU766
 2042              	.LVL140:
 2043              		.loc 1 1047 7 view .LVU767
 2044 02ac F8EE677A 		vcvt.f32.u32	s15, s15
 2045 02b0 9F49     		ldr	r1, .L385+40
 2046 02b2 17EE900A 		vmov	r0, s15
 2047              	.LVL141:
 2048              		.loc 1 1047 7 is_stmt 0 view .LVU768
 2049 02b6 FFF7FEFF 		bl	MovingAverage
 2050              	.LVL142:
1048:HANcoder_E407_TTA_CombineModel_V2.c **** 
1049:HANcoder_E407_TTA_CombineModel_V2.c ****       /* DataTypeConversion: '<S47>/Cast1' */
1050:HANcoder_E407_TTA_CombineModel_V2.c ****       pot1 = (uint16_T)rtB.MovingAverage_p.MovingAverage_n;
 2051              		.loc 1 1050 7 is_stmt 1 view .LVU769
 2052              		.loc 1 1050 14 is_stmt 0 view .LVU770
 2053 02ba DAED187A 		vldr.32	s15, [r10, #96]
 2054              		.loc 1 1050 12 view .LVU771
 2055 02be 9D4A     		ldr	r2, .L385+44
 2056              		.loc 1 1050 14 view .LVU772
 2057 02c0 FCEEE77A 		vcvt.u32.f32	s15, s15
1051:HANcoder_E407_TTA_CombineModel_V2.c **** 
1052:HANcoder_E407_TTA_CombineModel_V2.c ****       /* DataStoreWrite: '<S47>/Data Store Write1' */
1053:HANcoder_E407_TTA_CombineModel_V2.c ****       rtDWork.potentiometer1 = pot1;
1054:HANcoder_E407_TTA_CombineModel_V2.c **** 
1055:HANcoder_E407_TTA_CombineModel_V2.c ****       /* M-S-Function: '<S52>/Level-2 M-file S-Function' */
1056:HANcoder_E407_TTA_CombineModel_V2.c ****       /* read from analog input for filtered inputs*/
1057:HANcoder_E407_TTA_CombineModel_V2.c ****       analogPot2 = AninGet(ANIN_PORTF_PIN8,0);
 2058              		.loc 1 1057 20 view .LVU773
 2059 02c4 0021     		movs	r1, #0
1050:HANcoder_E407_TTA_CombineModel_V2.c **** 
 2060              		.loc 1 1050 14 view .LVU774
 2061 02c6 17EE903A 		vmov	r3, s15	@ int
 2062              		.loc 1 1057 20 view .LVU775
 2063 02ca 0520     		movs	r0, #5
1050:HANcoder_E407_TTA_CombineModel_V2.c **** 
 2064              		.loc 1 1050 14 view .LVU776
 2065 02cc 9BB2     		uxth	r3, r3
1050:HANcoder_E407_TTA_CombineModel_V2.c **** 
 2066              		.loc 1 1050 12 view .LVU777
 2067 02ce 1380     		strh	r3, [r2]	@ movhi
1053:HANcoder_E407_TTA_CombineModel_V2.c **** 
 2068              		.loc 1 1053 7 is_stmt 1 view .LVU778
1053:HANcoder_E407_TTA_CombineModel_V2.c **** 
 2069              		.loc 1 1053 30 is_stmt 0 view .LVU779
 2070 02d0 A385     		strh	r3, [r4, #44]	@ movhi
 2071              		.loc 1 1057 7 is_stmt 1 view .LVU780
 2072              		.loc 1 1057 20 is_stmt 0 view .LVU781
 2073 02d2 FFF7FEFF 		bl	AninGet
 2074              	.LVL143:
1058:HANcoder_E407_TTA_CombineModel_V2.c **** 
1059:HANcoder_E407_TTA_CombineModel_V2.c ****       /* DataTypeConversion: '<S47>/Cast3' */
1060:HANcoder_E407_TTA_CombineModel_V2.c ****       rtb_Cast3 = analogPot2;
1061:HANcoder_E407_TTA_CombineModel_V2.c ****       MovingAverage(rtb_Cast3, &rtB.MovingAverage1, &rtDWork.MovingAverage1);
 2075              		.loc 1 1061 7 view .LVU782
 2076 02d6 07EE900A 		vmov	s15, r0	@ int
1057:HANcoder_E407_TTA_CombineModel_V2.c **** 
 2077              		.loc 1 1057 18 view .LVU783
 2078 02da 974B     		ldr	r3, .L385+48
 2079              		.loc 1 1061 7 view .LVU784
 2080 02dc 9749     		ldr	r1, .L385+52
1057:HANcoder_E407_TTA_CombineModel_V2.c **** 
 2081              		.loc 1 1057 18 view .LVU785
 2082 02de 1880     		strh	r0, [r3]	@ movhi
1060:HANcoder_E407_TTA_CombineModel_V2.c ****       MovingAverage(rtb_Cast3, &rtB.MovingAverage1, &rtDWork.MovingAverage1);
 2083              		.loc 1 1060 7 is_stmt 1 view .LVU786
 2084              	.LVL144:
 2085              		.loc 1 1061 7 view .LVU787
 2086 02e0 F8EE677A 		vcvt.f32.u32	s15, s15
 2087 02e4 964A     		ldr	r2, .L385+56
 2088 02e6 17EE900A 		vmov	r0, s15
 2089              	.LVL145:
 2090              		.loc 1 1061 7 is_stmt 0 view .LVU788
 2091 02ea FFF7FEFF 		bl	MovingAverage
 2092              	.LVL146:
1062:HANcoder_E407_TTA_CombineModel_V2.c **** 
1063:HANcoder_E407_TTA_CombineModel_V2.c ****       /* DataTypeConversion: '<S47>/Cast2' */
1064:HANcoder_E407_TTA_CombineModel_V2.c ****       pot2 = (uint16_T)rtB.MovingAverage1.MovingAverage_n;
 2093              		.loc 1 1064 7 is_stmt 1 view .LVU789
 2094              		.loc 1 1064 14 is_stmt 0 view .LVU790
 2095 02ee DAED177A 		vldr.32	s15, [r10, #92]
 2096              		.loc 1 1064 12 view .LVU791
 2097 02f2 944A     		ldr	r2, .L385+60
 2098              		.loc 1 1064 14 view .LVU792
 2099 02f4 FCEEE77A 		vcvt.u32.f32	s15, s15
1065:HANcoder_E407_TTA_CombineModel_V2.c **** 
1066:HANcoder_E407_TTA_CombineModel_V2.c ****       /* DataStoreWrite: '<S47>/Data Store Write3' */
1067:HANcoder_E407_TTA_CombineModel_V2.c ****       rtDWork.potentiometer2 = pot2;
1068:HANcoder_E407_TTA_CombineModel_V2.c **** 
1069:HANcoder_E407_TTA_CombineModel_V2.c ****       /* M-S-Function: '<S49>/Level-2 M-file S-Function' */
1070:HANcoder_E407_TTA_CombineModel_V2.c ****       /* read from digital input */
1071:HANcoder_E407_TTA_CombineModel_V2.c ****       rtb_Equal17 = DiginGet(DIGIN_PORTA_PIN0);
 2100              		.loc 1 1071 21 view .LVU793
 2101 02f8 4720     		movs	r0, #71
1064:HANcoder_E407_TTA_CombineModel_V2.c **** 
 2102              		.loc 1 1064 14 view .LVU794
 2103 02fa 17EE903A 		vmov	r3, s15	@ int
 2104 02fe 9BB2     		uxth	r3, r3
1064:HANcoder_E407_TTA_CombineModel_V2.c **** 
 2105              		.loc 1 1064 12 view .LVU795
 2106 0300 1380     		strh	r3, [r2]	@ movhi
1067:HANcoder_E407_TTA_CombineModel_V2.c **** 
 2107              		.loc 1 1067 7 is_stmt 1 view .LVU796
1067:HANcoder_E407_TTA_CombineModel_V2.c **** 
 2108              		.loc 1 1067 30 is_stmt 0 view .LVU797
 2109 0302 2386     		strh	r3, [r4, #48]	@ movhi
 2110              		.loc 1 1071 7 is_stmt 1 view .LVU798
 2111              		.loc 1 1071 21 is_stmt 0 view .LVU799
 2112 0304 FFF7FEFF 		bl	DiginGet
 2113              	.LVL147:
1072:HANcoder_E407_TTA_CombineModel_V2.c **** 
1073:HANcoder_E407_TTA_CombineModel_V2.c ****       /* DataTypeConversion: '<S47>/Cast4' incorporates:
1074:HANcoder_E407_TTA_CombineModel_V2.c ****        *  DataStoreWrite: '<S47>/Data Store Write4'
1075:HANcoder_E407_TTA_CombineModel_V2.c ****        */
1076:HANcoder_E407_TTA_CombineModel_V2.c ****       rtDWork.buttonPress = rtb_Equal17;
 2114              		.loc 1 1076 7 is_stmt 1 view .LVU800
1077:HANcoder_E407_TTA_CombineModel_V2.c **** 
1078:HANcoder_E407_TTA_CombineModel_V2.c ****       /* Gain: '<S47>/Gain' incorporates:
1079:HANcoder_E407_TTA_CombineModel_V2.c ****        *  Constant: '<S47>/Constant2'
1080:HANcoder_E407_TTA_CombineModel_V2.c ****        *  DataStoreWrite: '<S47>/Data Store Write2'
1081:HANcoder_E407_TTA_CombineModel_V2.c ****        */
1082:HANcoder_E407_TTA_CombineModel_V2.c ****       rtDWork.requestedAngle = 0.015001500150015003 * desiredAngle;
 2115              		.loc 1 1082 53 is_stmt 0 view .LVU801
 2116 0308 8F4B     		ldr	r3, .L385+64
1076:HANcoder_E407_TTA_CombineModel_V2.c **** 
 2117              		.loc 1 1076 27 view .LVU802
 2118 030a 84F83C00 		strb	r0, [r4, #60]
 2119              		.loc 1 1082 7 is_stmt 1 view .LVU803
 2120              		.loc 1 1082 53 is_stmt 0 view .LVU804
 2121 030e D3E90001 		ldrd	r0, [r3]
 2122              	.LVL148:
 2123              		.loc 1 1082 53 view .LVU805
 2124 0312 7DA3     		adr	r3, .L385
 2125 0314 D3E90023 		ldrd	r2, [r3]
 2126 0318 FFF7FEFF 		bl	__aeabi_dmul
 2127              	.LVL149:
1083:HANcoder_E407_TTA_CombineModel_V2.c **** 
1084:HANcoder_E407_TTA_CombineModel_V2.c ****       /* M-S-Function: '<S50>/Level-2 M-file S-Function' */
1085:HANcoder_E407_TTA_CombineModel_V2.c ****       /* determine if the counter needs a reset  */
1086:HANcoder_E407_TTA_CombineModel_V2.c ****       if (rtB.DataTypeConversion > 0) {
 2128              		.loc 1 1086 10 view .LVU806
 2129 031c 9AF82430 		ldrb	r3, [r10, #36]	@ zero_extendqisi2
1082:HANcoder_E407_TTA_CombineModel_V2.c **** 
 2130              		.loc 1 1082 30 view .LVU807
 2131 0320 C4E90801 		strd	r0, [r4, #32]
 2132              		.loc 1 1086 7 is_stmt 1 view .LVU808
 2133              		.loc 1 1086 10 is_stmt 0 view .LVU809
 2134 0324 002B     		cmp	r3, #0
 2135 0326 40F0DF86 		bne	.L364
 2136              	.L133:
1087:HANcoder_E407_TTA_CombineModel_V2.c ****         QuadEncResetCounter(QUADENC_TIM3_PA6_PB5);
1088:HANcoder_E407_TTA_CombineModel_V2.c ****       }
1089:HANcoder_E407_TTA_CombineModel_V2.c **** 
1090:HANcoder_E407_TTA_CombineModel_V2.c ****       /* read counter from the quadrature encoder module */
1091:HANcoder_E407_TTA_CombineModel_V2.c ****       rtb_Level2MfileSFunction_o = QuadEncGetCounter(QUADENC_TIM3_PA6_PB5);
 2137              		.loc 1 1091 7 is_stmt 1 view .LVU810
 2138              		.loc 1 1091 36 is_stmt 0 view .LVU811
 2139 032a 0120     		movs	r0, #1
 2140 032c FFF7FEFF 		bl	QuadEncGetCounter
 2141              	.LVL150:
1092:HANcoder_E407_TTA_CombineModel_V2.c **** 
1093:HANcoder_E407_TTA_CombineModel_V2.c ****       /* DataStoreWrite: '<S47>/Data Store Write' */
1094:HANcoder_E407_TTA_CombineModel_V2.c ****       rtDWork.encoderPosition = rtb_Level2MfileSFunction_o;
 2142              		.loc 1 1094 7 is_stmt 1 view .LVU812
1095:HANcoder_E407_TTA_CombineModel_V2.c **** 
1096:HANcoder_E407_TTA_CombineModel_V2.c ****       /* DataTypeConversion: '<S50>/Data Type Conversion' incorporates:
1097:HANcoder_E407_TTA_CombineModel_V2.c ****        *  RelationalOperator: '<S53>/FixPt Relational Operator'
1098:HANcoder_E407_TTA_CombineModel_V2.c ****        *  UnitDelay: '<S53>/Delay Input1'
1099:HANcoder_E407_TTA_CombineModel_V2.c ****        *
1100:HANcoder_E407_TTA_CombineModel_V2.c ****        * Block description for '<S53>/Delay Input1':
1101:HANcoder_E407_TTA_CombineModel_V2.c ****        *
1102:HANcoder_E407_TTA_CombineModel_V2.c ****        *  Store in Global RAM
1103:HANcoder_E407_TTA_CombineModel_V2.c ****        */
1104:HANcoder_E407_TTA_CombineModel_V2.c ****       rtB.DataTypeConversion = (rtDWork.DelayInput1_DSTATE < 0.0);
 2143              		.loc 1 1104 60 is_stmt 0 view .LVU813
 2144 0330 0022     		movs	r2, #0
1094:HANcoder_E407_TTA_CombineModel_V2.c **** 
 2145              		.loc 1 1094 31 view .LVU814
 2146 0332 A062     		str	r0, [r4, #40]
 2147              		.loc 1 1104 7 is_stmt 1 view .LVU815
 2148              		.loc 1 1104 60 is_stmt 0 view .LVU816
 2149 0334 0023     		movs	r3, #0
 2150 0336 D4E90201 		ldrd	r0, [r4, #8]
 2151              	.LVL151:
 2152              		.loc 1 1104 60 view .LVU817
 2153 033a FFF7FEFF 		bl	__aeabi_dcmplt
 2154              	.LVL152:
 2155              		.loc 1 1104 30 view .LVU818
 2156 033e 4FF00008 		mov	r8, #0
 2157              		.loc 1 1104 60 view .LVU819
 2158 0342 B0EB0800 		subs	r0, r0, r8
 2159 0346 18BF     		it	ne
 2160 0348 0120     		movne	r0, #1
1105:HANcoder_E407_TTA_CombineModel_V2.c **** 
1106:HANcoder_E407_TTA_CombineModel_V2.c ****       /* RelationalOperator: '<S48>/Equal' incorporates:
1107:HANcoder_E407_TTA_CombineModel_V2.c ****        *  DataStoreRead: '<S48>/Data Store Read'
1108:HANcoder_E407_TTA_CombineModel_V2.c ****        */
1109:HANcoder_E407_TTA_CombineModel_V2.c ****       rtB.Equal = !Master_ID;
 2161              		.loc 1 1109 7 is_stmt 1 view .LVU820
1110:HANcoder_E407_TTA_CombineModel_V2.c **** 
1111:HANcoder_E407_TTA_CombineModel_V2.c ****       /* DataStoreRead: '<S25>/Data Store Read' */
1112:HANcoder_E407_TTA_CombineModel_V2.c ****       rtB.DataStoreRead = rtDWork.pwmMotor;
 2162              		.loc 1 1112 7 view .LVU821
1104:HANcoder_E407_TTA_CombineModel_V2.c **** 
 2163              		.loc 1 1104 30 is_stmt 0 view .LVU822
 2164 034a 60F30708 		bfi	r8, r0, #0, #8
 2165 034e 3046     		mov	r0, r6
 2166              		.loc 1 1112 34 view .LVU823
 2167 0350 E68D     		ldrh	r6, [r4, #46]
1104:HANcoder_E407_TTA_CombineModel_V2.c **** 
 2168              		.loc 1 1104 30 view .LVU824
 2169 0352 724B     		ldr	r3, .L385+20
 2170              		.loc 1 1112 25 view .LVU825
 2171 0354 AAF80860 		strh	r6, [r10, #8]	@ movhi
1113:HANcoder_E407_TTA_CombineModel_V2.c **** 
1114:HANcoder_E407_TTA_CombineModel_V2.c ****       /* DataStoreRead: '<S25>/Data Store Read1' */
1115:HANcoder_E407_TTA_CombineModel_V2.c ****       rtB.DataStoreRead1 = rtDWork.cwMotor;
 2172              		.loc 1 1115 7 is_stmt 1 view .LVU826
1116:HANcoder_E407_TTA_CombineModel_V2.c **** 
1117:HANcoder_E407_TTA_CombineModel_V2.c ****       /* DataStoreRead: '<S25>/Data Store Read3' */
1118:HANcoder_E407_TTA_CombineModel_V2.c ****       rtB.DataStoreRead3_n = rtDWork.ccwMotor;
 2173              		.loc 1 1118 7 view .LVU827
1104:HANcoder_E407_TTA_CombineModel_V2.c **** 
 2174              		.loc 1 1104 30 is_stmt 0 view .LVU828
 2175 0358 3946     		mov	r1, r7
 2176 035a 0022     		movs	r2, #0
 2177 035c FFF7FEFF 		bl	__aeabi_dcmpeq
 2178              	.LVL153:
 2179 0360 B0FA80F0 		clz	r0, r0
 2180 0364 94F84330 		ldrb	r3, [r4, #67]	@ zero_extendqisi2
 2181 0368 4009     		lsrs	r0, r0, #5
 2182 036a 60F30F28 		bfi	r8, r0, #8, #8
 2183 036e 63F31748 		bfi	r8, r3, #16, #8
 2184 0372 94F84430 		ldrb	r3, [r4, #68]	@ zero_extendqisi2
1119:HANcoder_E407_TTA_CombineModel_V2.c **** 
1120:HANcoder_E407_TTA_CombineModel_V2.c ****       /* Update for UnitDelay: '<S53>/Delay Input1'
1121:HANcoder_E407_TTA_CombineModel_V2.c ****        *
1122:HANcoder_E407_TTA_CombineModel_V2.c ****        * Block description for '<S53>/Delay Input1':
1123:HANcoder_E407_TTA_CombineModel_V2.c ****        *
1124:HANcoder_E407_TTA_CombineModel_V2.c ****        *  Store in Global RAM
1125:HANcoder_E407_TTA_CombineModel_V2.c ****        */
1126:HANcoder_E407_TTA_CombineModel_V2.c ****       rtDWork.DelayInput1_DSTATE = 0.0;
1127:HANcoder_E407_TTA_CombineModel_V2.c **** 
1128:HANcoder_E407_TTA_CombineModel_V2.c ****       /* Update for M-S-Function: '<S57>/Level-2 M-file S-Function' */
1129:HANcoder_E407_TTA_CombineModel_V2.c ****       /* set the new duty cycle */
1130:HANcoder_E407_TTA_CombineModel_V2.c ****       PwmoutSet(PWMOUT_TIM14_PIN_PF9, rtB.DataStoreRead);
 2185              		.loc 1 1130 7 view .LVU829
 2186 0376 3146     		mov	r1, r6
1104:HANcoder_E407_TTA_CombineModel_V2.c **** 
 2187              		.loc 1 1104 30 view .LVU830
 2188 0378 63F31F68 		bfi	r8, r3, #24, #8
1126:HANcoder_E407_TTA_CombineModel_V2.c **** 
 2189              		.loc 1 1126 34 view .LVU831
 2190 037c 0022     		movs	r2, #0
 2191 037e 0023     		movs	r3, #0
 2192              		.loc 1 1130 7 view .LVU832
 2193 0380 1020     		movs	r0, #16
1126:HANcoder_E407_TTA_CombineModel_V2.c **** 
 2194              		.loc 1 1126 34 view .LVU833
 2195 0382 C4E90223 		strd	r2, [r4, #8]
1104:HANcoder_E407_TTA_CombineModel_V2.c **** 
 2196              		.loc 1 1104 30 view .LVU834
 2197 0386 CAF82480 		str	r8, [r10, #36]
1126:HANcoder_E407_TTA_CombineModel_V2.c **** 
 2198              		.loc 1 1126 7 is_stmt 1 view .LVU835
 2199              		.loc 1 1130 7 view .LVU836
 2200 038a FFF7FEFF 		bl	PwmoutSet
 2201              	.LVL154:
1131:HANcoder_E407_TTA_CombineModel_V2.c **** 
1132:HANcoder_E407_TTA_CombineModel_V2.c ****       /* Update for M-S-Function: '<S54>/Level-2 M-file S-Function' */
1133:HANcoder_E407_TTA_CombineModel_V2.c ****       /* update digital output */
1134:HANcoder_E407_TTA_CombineModel_V2.c ****       if (rtB.DataStoreRead1 == 0) {
 2202              		.loc 1 1134 7 view .LVU837
 2203              		.loc 1 1134 10 is_stmt 0 view .LVU838
 2204 038e 9AF82610 		ldrb	r1, [r10, #38]	@ zero_extendqisi2
 2205 0392 01B1     		cbz	r1, .L352
1135:HANcoder_E407_TTA_CombineModel_V2.c ****         DigoutSet(DIGOUT_PORTE_PIN5, DIGOUT_LOW);
1136:HANcoder_E407_TTA_CombineModel_V2.c ****       } else {
1137:HANcoder_E407_TTA_CombineModel_V2.c ****         DigoutSet(DIGOUT_PORTE_PIN5, DIGOUT_HIGH);
 2206              		.loc 1 1137 9 is_stmt 1 view .LVU839
 2207 0394 0121     		movs	r1, #1
 2208              	.L352:
 2209 0396 0A20     		movs	r0, #10
 2210 0398 FFF7FEFF 		bl	DigoutSet
 2211              	.LVL155:
1138:HANcoder_E407_TTA_CombineModel_V2.c ****       }
1139:HANcoder_E407_TTA_CombineModel_V2.c **** 
1140:HANcoder_E407_TTA_CombineModel_V2.c ****       /* Update for M-S-Function: '<S55>/Level-2 M-file S-Function' */
1141:HANcoder_E407_TTA_CombineModel_V2.c ****       /* update digital output */
1142:HANcoder_E407_TTA_CombineModel_V2.c ****       if (rtB.DataStoreRead3_n == 0) {
 2212              		.loc 1 1142 7 view .LVU840
 2213              		.loc 1 1142 10 is_stmt 0 view .LVU841
 2214 039c 9AF82710 		ldrb	r1, [r10, #39]	@ zero_extendqisi2
 2215 03a0 01B1     		cbz	r1, .L353
1143:HANcoder_E407_TTA_CombineModel_V2.c ****         DigoutSet(DIGOUT_PORTE_PIN6, DIGOUT_LOW);
1144:HANcoder_E407_TTA_CombineModel_V2.c ****       } else {
1145:HANcoder_E407_TTA_CombineModel_V2.c ****         DigoutSet(DIGOUT_PORTE_PIN6, DIGOUT_HIGH);
 2216              		.loc 1 1145 9 is_stmt 1 view .LVU842
 2217 03a2 0121     		movs	r1, #1
 2218              	.L353:
 2219 03a4 0B20     		movs	r0, #11
 2220 03a6 FFF7FEFF 		bl	DigoutSet
 2221              	.LVL156:
1146:HANcoder_E407_TTA_CombineModel_V2.c ****       }
1147:HANcoder_E407_TTA_CombineModel_V2.c **** 
1148:HANcoder_E407_TTA_CombineModel_V2.c ****       /* Update for M-S-Function: '<S56>/Level-2 M-file S-Function' */
1149:HANcoder_E407_TTA_CombineModel_V2.c ****       /* update digital output */
1150:HANcoder_E407_TTA_CombineModel_V2.c ****       if (rtB.Equal == 0) {
 2222              		.loc 1 1150 7 view .LVU843
 2223              		.loc 1 1150 10 is_stmt 0 view .LVU844
 2224 03aa 9AF82510 		ldrb	r1, [r10, #37]	@ zero_extendqisi2
 2225 03ae 01B1     		cbz	r1, .L354
1151:HANcoder_E407_TTA_CombineModel_V2.c ****         DigoutSet(DIGOUT_PORTC_PIN13, DIGOUT_LOW);
1152:HANcoder_E407_TTA_CombineModel_V2.c ****       } else {
1153:HANcoder_E407_TTA_CombineModel_V2.c ****         DigoutSet(DIGOUT_PORTC_PIN13, DIGOUT_HIGH);
 2226              		.loc 1 1153 9 is_stmt 1 view .LVU845
 2227 03b0 0121     		movs	r1, #1
 2228              	.L354:
 2229 03b2 4720     		movs	r0, #71
 2230 03b4 FFF7FEFF 		bl	DigoutSet
 2231              	.LVL157:
1154:HANcoder_E407_TTA_CombineModel_V2.c ****       }
1155:HANcoder_E407_TTA_CombineModel_V2.c ****     }
1156:HANcoder_E407_TTA_CombineModel_V2.c **** 
1157:HANcoder_E407_TTA_CombineModel_V2.c ****     rtPrevZCSigState.Slot5execution_Trig_ZCE = rtb_NotEqual;
1158:HANcoder_E407_TTA_CombineModel_V2.c **** 
1159:HANcoder_E407_TTA_CombineModel_V2.c ****     /* End of Outputs for SubSystem: '<S8>/Slot 5 execution' */
1160:HANcoder_E407_TTA_CombineModel_V2.c **** 
1161:HANcoder_E407_TTA_CombineModel_V2.c ****     /* Logic: '<S8>/OR' incorporates:
1162:HANcoder_E407_TTA_CombineModel_V2.c ****      *  Constant: '<S8>/Constant23'
1163:HANcoder_E407_TTA_CombineModel_V2.c ****      *  Constant: '<S8>/Constant9'
1164:HANcoder_E407_TTA_CombineModel_V2.c ****      *  RelationalOperator: '<S8>/Equal18'
1165:HANcoder_E407_TTA_CombineModel_V2.c ****      *  RelationalOperator: '<S8>/Equal9'
1166:HANcoder_E407_TTA_CombineModel_V2.c ****      */
1167:HANcoder_E407_TTA_CombineModel_V2.c ****     rtb_NotEqual = ((5.0 == slotSelected) || (slotSelected == 10.0));
 2232              		.loc 1 1167 26 is_stmt 0 view .LVU846
 2233 03b8 9BF80030 		ldrb	r3, [fp]	@ zero_extendqisi2
 2234 03bc 08EE103A 		vmov	s16, r3	@ int
 2235 03c0 B8EEC88A 		vcvt.f32.s32	s16, s16
 2236              	.LVL158:
 2237              	.L132:
1157:HANcoder_E407_TTA_CombineModel_V2.c **** 
 2238              		.loc 1 1157 5 is_stmt 1 view .LVU847
 2239              		.loc 1 1167 43 is_stmt 0 view .LVU848
 2240 03c4 F1EE047A 		vmov.f32	s15, #5.0e+0
 2241 03c8 B4EE678A 		vcmp.f32	s16, s15
1157:HANcoder_E407_TTA_CombineModel_V2.c **** 
 2242              		.loc 1 1157 46 view .LVU849
 2243 03cc 0123     		movs	r3, #1
 2244              		.loc 1 1167 43 view .LVU850
 2245 03ce F1EE10FA 		vmrs	APSR_nzcv, FPSCR
1157:HANcoder_E407_TTA_CombineModel_V2.c **** 
 2246              		.loc 1 1157 46 view .LVU851
 2247 03d2 2B72     		strb	r3, [r5, #8]
 2248              		.loc 1 1167 5 is_stmt 1 view .LVU852
 2249              		.loc 1 1167 43 is_stmt 0 view .LVU853
 2250 03d4 40F09585 		bne	.L365
 2251              	.L141:
1168:HANcoder_E407_TTA_CombineModel_V2.c **** 
1169:HANcoder_E407_TTA_CombineModel_V2.c ****     /* Outputs for Triggered SubSystem: '<S8>/Subsystem' incorporates:
1170:HANcoder_E407_TTA_CombineModel_V2.c ****      *  TriggerPort: '<S26>/Trigger'
1171:HANcoder_E407_TTA_CombineModel_V2.c ****      */
1172:HANcoder_E407_TTA_CombineModel_V2.c ****     if (rtb_NotEqual && (rtPrevZCSigState.Subsystem_Trig_ZCE_g != POS_ZCSIG)) {
 2252              		.loc 1 1172 22 discriminator 1 view .LVU854
 2253 03d8 EB79     		ldrb	r3, [r5, #7]	@ zero_extendqisi2
 2254 03da 012B     		cmp	r3, #1
 2255 03dc 00F0F481 		beq	.L143
1173:HANcoder_E407_TTA_CombineModel_V2.c ****       /* DataStoreRead: '<S26>/Data Store Read' */
1174:HANcoder_E407_TTA_CombineModel_V2.c ****       reqAngle = rtDWork.requestedAngle;
 2256              		.loc 1 1174 7 is_stmt 1 view .LVU855
 2257              		.loc 1 1174 25 is_stmt 0 view .LVU856
 2258 03e0 D4E90801 		ldrd	r0, [r4, #32]
1175:HANcoder_E407_TTA_CombineModel_V2.c **** 
1176:HANcoder_E407_TTA_CombineModel_V2.c ****       /* Product: '<S114>/Product' incorporates:
1177:HANcoder_E407_TTA_CombineModel_V2.c ****        *  Constant: '<S60>/TrailUnitWheelbase'
1178:HANcoder_E407_TTA_CombineModel_V2.c ****        *  Trigonometry: '<S114>/tan '
1179:HANcoder_E407_TTA_CombineModel_V2.c ****        */
1180:HANcoder_E407_TTA_CombineModel_V2.c ****       rtb_Multiply1 = tan(reqAngle) * rtConstB.Abs / 4.0;
 2259              		.loc 1 1180 47 view .LVU857
 2260 03e4 DFF88491 		ldr	r9, .L385+100
1174:HANcoder_E407_TTA_CombineModel_V2.c **** 
 2261              		.loc 1 1174 16 view .LVU858
 2262 03e8 584B     		ldr	r3, .L385+68
 2263 03ea C3E90001 		strd	r0, [r3]
 2264              		.loc 1 1180 7 is_stmt 1 view .LVU859
 2265              		.loc 1 1180 23 is_stmt 0 view .LVU860
 2266 03ee FFF7FEFF 		bl	tan
 2267              	.LVL159:
 2268              		.loc 1 1180 37 view .LVU861
 2269 03f2 D9E90423 		ldrd	r2, [r9, #16]
 2270 03f6 FFF7FEFF 		bl	__aeabi_dmul
 2271              	.LVL160:
 2272              		.loc 1 1180 21 view .LVU862
 2273 03fa 0022     		movs	r2, #0
 2274 03fc 544B     		ldr	r3, .L385+72
 2275 03fe FFF7FEFF 		bl	__aeabi_dmul
 2276              	.LVL161:
1181:HANcoder_E407_TTA_CombineModel_V2.c **** 
1182:HANcoder_E407_TTA_CombineModel_V2.c ****       /* DataStoreRead: '<S26>/Data Store Read2' */
1183:HANcoder_E407_TTA_CombineModel_V2.c ****       t2Angle = rtDWork.trailerTwoAngle;
 2277              		.loc 1 1183 7 is_stmt 1 view .LVU863
 2278              		.loc 1 1183 15 is_stmt 0 view .LVU864
 2279 0402 544B     		ldr	r3, .L385+76
1184:HANcoder_E407_TTA_CombineModel_V2.c **** 
1185:HANcoder_E407_TTA_CombineModel_V2.c ****       /* DataStoreRead: '<S26>/Data Store Read1' */
1186:HANcoder_E407_TTA_CombineModel_V2.c ****       t1Angle = rtDWork.trailerOneAngle;
 2280              		.loc 1 1186 24 view .LVU865
 2281 0404 B4F83280 		ldrh	r8, [r4, #50]
1180:HANcoder_E407_TTA_CombineModel_V2.c **** 
 2282              		.loc 1 1180 21 view .LVU866
 2283 0408 CDE90C01 		strd	r0, [sp, #48]
 2284              	.LVL162:
1183:HANcoder_E407_TTA_CombineModel_V2.c **** 
 2285              		.loc 1 1183 24 view .LVU867
 2286 040c A08E     		ldrh	r0, [r4, #52]
1183:HANcoder_E407_TTA_CombineModel_V2.c **** 
 2287              		.loc 1 1183 15 view .LVU868
 2288 040e 1880     		strh	r0, [r3]	@ movhi
 2289              		.loc 1 1186 7 is_stmt 1 view .LVU869
 2290              		.loc 1 1186 15 is_stmt 0 view .LVU870
 2291 0410 514B     		ldr	r3, .L385+80
1187:HANcoder_E407_TTA_CombineModel_V2.c **** 
1188:HANcoder_E407_TTA_CombineModel_V2.c ****       /* Sum: '<S60>/Sum2' */
1189:HANcoder_E407_TTA_CombineModel_V2.c ****       Gamma2 = (uint16_T)(t1Angle - t2Angle);
 2292              		.loc 1 1189 16 view .LVU871
 2293 0412 A8EB0000 		sub	r0, r8, r0
1186:HANcoder_E407_TTA_CombineModel_V2.c **** 
 2294              		.loc 1 1186 15 view .LVU872
 2295 0416 A3F80080 		strh	r8, [r3]	@ movhi
 2296              		.loc 1 1189 7 is_stmt 1 view .LVU873
 2297              		.loc 1 1189 14 is_stmt 0 view .LVU874
 2298 041a 504B     		ldr	r3, .L385+84
 2299              		.loc 1 1189 16 view .LVU875
 2300 041c 80B2     		uxth	r0, r0
 2301              		.loc 1 1189 14 view .LVU876
 2302 041e 1880     		strh	r0, [r3]	@ movhi
1190:HANcoder_E407_TTA_CombineModel_V2.c **** 
1191:HANcoder_E407_TTA_CombineModel_V2.c ****       /* Trigonometry: '<S112>/tan 1' incorporates:
1192:HANcoder_E407_TTA_CombineModel_V2.c ****        *  DataTypeConversion: '<S112>/Cast'
1193:HANcoder_E407_TTA_CombineModel_V2.c ****        *  Trigonometry: '<S113>/tan '
1194:HANcoder_E407_TTA_CombineModel_V2.c ****        */
1195:HANcoder_E407_TTA_CombineModel_V2.c ****       rtb_IntegralGain = sin(Gamma2);
 2303              		.loc 1 1195 7 is_stmt 1 view .LVU877
 2304              		.loc 1 1195 26 is_stmt 0 view .LVU878
 2305 0420 FFF7FEFF 		bl	__aeabi_ui2d
 2306              	.LVL163:
 2307 0424 0646     		mov	r6, r0
 2308 0426 0F46     		mov	r7, r1
 2309 0428 FFF7FEFF 		bl	sin
 2310              	.LVL164:
1196:HANcoder_E407_TTA_CombineModel_V2.c **** 
1197:HANcoder_E407_TTA_CombineModel_V2.c ****       /* Trigonometry: '<S112>/tan 2' incorporates:
1198:HANcoder_E407_TTA_CombineModel_V2.c ****        *  DataTypeConversion: '<S112>/Cast'
1199:HANcoder_E407_TTA_CombineModel_V2.c ****        *  Trigonometry: '<S113>/tan 1'
1200:HANcoder_E407_TTA_CombineModel_V2.c ****        */
1201:HANcoder_E407_TTA_CombineModel_V2.c ****       rtb_Integrator_tmp = cos(Gamma2);
 2311              		.loc 1 1201 7 is_stmt 1 view .LVU879
1195:HANcoder_E407_TTA_CombineModel_V2.c **** 
 2312              		.loc 1 1195 26 is_stmt 0 view .LVU880
 2313 042c 0246     		mov	r2, r0
 2314 042e 0B46     		mov	r3, r1
 2315              		.loc 1 1201 28 view .LVU881
 2316 0430 3046     		mov	r0, r6
 2317 0432 3946     		mov	r1, r7
1195:HANcoder_E407_TTA_CombineModel_V2.c **** 
 2318              		.loc 1 1195 26 view .LVU882
 2319 0434 CDE90A23 		strd	r2, [sp, #40]
 2320              	.LVL165:
 2321              		.loc 1 1201 28 view .LVU883
 2322 0438 FFF7FEFF 		bl	cos
 2323              	.LVL166:
1202:HANcoder_E407_TTA_CombineModel_V2.c **** 
1203:HANcoder_E407_TTA_CombineModel_V2.c ****       /* Sum: '<S112>/Add' incorporates:
1204:HANcoder_E407_TTA_CombineModel_V2.c ****        *  Constant: '<S26>/Constant'
1205:HANcoder_E407_TTA_CombineModel_V2.c ****        *  Constant: '<S60>/TrailUnitWheelbase'
1206:HANcoder_E407_TTA_CombineModel_V2.c ****        *  Product: '<S112>/Product1'
1207:HANcoder_E407_TTA_CombineModel_V2.c ****        *  Product: '<S112>/Product2'
1208:HANcoder_E407_TTA_CombineModel_V2.c ****        *  Trigonometry: '<S112>/tan 1'
1209:HANcoder_E407_TTA_CombineModel_V2.c ****        *  Trigonometry: '<S112>/tan 2'
1210:HANcoder_E407_TTA_CombineModel_V2.c ****        */
1211:HANcoder_E407_TTA_CombineModel_V2.c ****       rtb_Multiply = rtb_Multiply1 * 4.0 * rtb_IntegralGain + rtb_Integrator_tmp
 2324              		.loc 1 1211 36 view .LVU884
 2325 043c 484B     		ldr	r3, .L385+88
1201:HANcoder_E407_TTA_CombineModel_V2.c **** 
 2326              		.loc 1 1201 28 view .LVU885
 2327 043e 0646     		mov	r6, r0
 2328 0440 0F46     		mov	r7, r1
 2329              	.LVL167:
 2330              		.loc 1 1211 7 is_stmt 1 view .LVU886
 2331              		.loc 1 1211 36 is_stmt 0 view .LVU887
 2332 0442 0022     		movs	r2, #0
 2333 0444 DDE90C01 		ldrd	r0, [sp, #48]
 2334 0448 FFF7FEFF 		bl	__aeabi_dmul
 2335              	.LVL168:
 2336              		.loc 1 1211 42 view .LVU888
 2337 044c DDE90A23 		ldrd	r2, [sp, #40]
 2338 0450 FFF7FEFF 		bl	__aeabi_dmul
 2339              	.LVL169:
1212:HANcoder_E407_TTA_CombineModel_V2.c ****         * 1.3;
 2340              		.loc 1 1212 9 view .LVU889
 2341 0454 2EA3     		adr	r3, .L385+8
 2342 0456 D3E90023 		ldrd	r2, [r3]
1211:HANcoder_E407_TTA_CombineModel_V2.c ****         * 1.3;
 2343              		.loc 1 1211 42 view .LVU890
 2344 045a CDE90601 		strd	r0, [sp, #24]
 2345              		.loc 1 1212 9 view .LVU891
 2346 045e 3046     		mov	r0, r6
 2347 0460 3946     		mov	r1, r7
 2348 0462 FFF7FEFF 		bl	__aeabi_dmul
 2349              	.LVL170:
 2350 0466 0246     		mov	r2, r0
 2351 0468 0B46     		mov	r3, r1
1211:HANcoder_E407_TTA_CombineModel_V2.c ****         * 1.3;
 2352              		.loc 1 1211 20 view .LVU892
 2353 046a DDE90601 		ldrd	r0, [sp, #24]
 2354 046e FFF7FEFF 		bl	__aeabi_dadd
 2355              	.LVL171:
1213:HANcoder_E407_TTA_CombineModel_V2.c **** 
1214:HANcoder_E407_TTA_CombineModel_V2.c ****       /* Sum: '<S60>/Sum1' incorporates:
1215:HANcoder_E407_TTA_CombineModel_V2.c ****        *  Constant: '<S26>/Constant1'
1216:HANcoder_E407_TTA_CombineModel_V2.c ****        */
1217:HANcoder_E407_TTA_CombineModel_V2.c ****       Gamma1 = 0.0 - (real_T)t1Angle;
 2356              		.loc 1 1217 7 is_stmt 1 view .LVU893
1211:HANcoder_E407_TTA_CombineModel_V2.c ****         * 1.3;
 2357              		.loc 1 1211 20 is_stmt 0 view .LVU894
 2358 0472 0246     		mov	r2, r0
 2359 0474 0B46     		mov	r3, r1
 2360              		.loc 1 1217 22 view .LVU895
 2361 0476 4046     		mov	r0, r8
1211:HANcoder_E407_TTA_CombineModel_V2.c ****         * 1.3;
 2362              		.loc 1 1211 20 view .LVU896
 2363 0478 CDE90823 		strd	r2, [sp, #32]
 2364              	.LVL172:
 2365              		.loc 1 1217 22 view .LVU897
 2366 047c FFF7FEFF 		bl	__aeabi_ui2d
 2367              	.LVL173:
 2368 0480 0B46     		mov	r3, r1
 2369 0482 9846     		mov	r8, r3
 2370 0484 0246     		mov	r2, r0
1218:HANcoder_E407_TTA_CombineModel_V2.c **** 
1219:HANcoder_E407_TTA_CombineModel_V2.c ****       /* Product: '<S113>/Product' incorporates:
1220:HANcoder_E407_TTA_CombineModel_V2.c ****        *  Constant: '<S26>/Constant'
1221:HANcoder_E407_TTA_CombineModel_V2.c ****        *  Constant: '<S60>/RearAxleToHitch'
1222:HANcoder_E407_TTA_CombineModel_V2.c ****        *  Constant: '<S60>/TrailUnitWheelbase'
1223:HANcoder_E407_TTA_CombineModel_V2.c ****        *  Gain: '<S113>/Gain'
1224:HANcoder_E407_TTA_CombineModel_V2.c ****        *  Product: '<S113>/Product1'
1225:HANcoder_E407_TTA_CombineModel_V2.c ****        *  Product: '<S113>/Product3'
1226:HANcoder_E407_TTA_CombineModel_V2.c ****        *  Sum: '<S113>/Add'
1227:HANcoder_E407_TTA_CombineModel_V2.c ****        */
1228:HANcoder_E407_TTA_CombineModel_V2.c ****       rtb_IntegralGain = (1.3 / 1.0 * rtb_IntegralGain * (-1.0) +
1229:HANcoder_E407_TTA_CombineModel_V2.c ****                           rtb_Integrator_tmp / 1.0 * 4.0 * rtb_Multiply1) *
 2371              		.loc 1 1229 52 view .LVU898
 2372 0486 3046     		mov	r0, r6
1217:HANcoder_E407_TTA_CombineModel_V2.c **** 
 2373              		.loc 1 1217 20 view .LVU899
 2374 0488 08F10046 		add	r6, r8, #-2147483648
 2375              	.LVL174:
1217:HANcoder_E407_TTA_CombineModel_V2.c **** 
 2376              		.loc 1 1217 20 view .LVU900
 2377 048c 0692     		str	r2, [sp, #24]
 2378 048e 0796     		str	r6, [sp, #28]
1217:HANcoder_E407_TTA_CombineModel_V2.c **** 
 2379              		.loc 1 1217 14 view .LVU901
 2380 0490 9DED067B 		vldr.64	d7, [sp, #24]
 2381 0494 334B     		ldr	r3, .L385+92
 2382              		.loc 1 1229 52 view .LVU902
 2383 0496 3946     		mov	r1, r7
1217:HANcoder_E407_TTA_CombineModel_V2.c **** 
 2384              		.loc 1 1217 14 view .LVU903
 2385 0498 83ED007B 		vstr.64	d7, [r3]
1228:HANcoder_E407_TTA_CombineModel_V2.c ****                           rtb_Integrator_tmp / 1.0 * 4.0 * rtb_Multiply1) *
 2386              		.loc 1 1228 7 is_stmt 1 view .LVU904
1217:HANcoder_E407_TTA_CombineModel_V2.c **** 
 2387              		.loc 1 1217 22 is_stmt 0 view .LVU905
 2388 049c 1746     		mov	r7, r2
 2389              		.loc 1 1229 52 view .LVU906
 2390 049e 304B     		ldr	r3, .L385+88
 2391 04a0 0022     		movs	r2, #0
1217:HANcoder_E407_TTA_CombineModel_V2.c **** 
 2392              		.loc 1 1217 20 view .LVU907
 2393 04a2 CDE90E78 		strd	r7, [sp, #56]
 2394              		.loc 1 1229 52 view .LVU908
 2395 04a6 FFF7FEFF 		bl	__aeabi_dmul
 2396              	.LVL175:
 2397              		.loc 1 1229 58 view .LVU909
 2398 04aa DDE90C23 		ldrd	r2, [sp, #48]
 2399 04ae FFF7FEFF 		bl	__aeabi_dmul
 2400              	.LVL176:
1228:HANcoder_E407_TTA_CombineModel_V2.c ****                           rtb_Integrator_tmp / 1.0 * 4.0 * rtb_Multiply1) *
 2401              		.loc 1 1228 37 view .LVU910
 2402 04b2 17A3     		adr	r3, .L385+8
 2403 04b4 D3E90023 		ldrd	r2, [r3]
 2404              		.loc 1 1229 58 view .LVU911
 2405 04b8 0646     		mov	r6, r0
 2406 04ba 0F46     		mov	r7, r1
1228:HANcoder_E407_TTA_CombineModel_V2.c ****                           rtb_Integrator_tmp / 1.0 * 4.0 * rtb_Multiply1) *
 2407              		.loc 1 1228 37 view .LVU912
 2408 04bc DDE90A01 		ldrd	r0, [sp, #40]
 2409 04c0 FFF7FEFF 		bl	__aeabi_dmul
 2410              	.LVL177:
 2411 04c4 0246     		mov	r2, r0
 2412 04c6 0B46     		mov	r3, r1
1228:HANcoder_E407_TTA_CombineModel_V2.c ****                           rtb_Integrator_tmp / 1.0 * 4.0 * rtb_Multiply1) *
 2413              		.loc 1 1228 65 view .LVU913
 2414 04c8 3046     		mov	r0, r6
 2415 04ca 3946     		mov	r1, r7
 2416 04cc FFF7FEFF 		bl	__aeabi_dsub
 2417              	.LVL178:
1230:HANcoder_E407_TTA_CombineModel_V2.c ****         (rtConstB.signV2 * rtConstB.signL0b);
 2418              		.loc 1 1230 26 view .LVU914
 2419 04d0 D9E90223 		ldrd	r2, [r9, #8]
1228:HANcoder_E407_TTA_CombineModel_V2.c ****                           rtb_Integrator_tmp / 1.0 * 4.0 * rtb_Multiply1) *
 2420              		.loc 1 1228 65 view .LVU915
 2421 04d4 0646     		mov	r6, r0
 2422 04d6 0F46     		mov	r7, r1
 2423              		.loc 1 1230 26 view .LVU916
 2424 04d8 D9E90001 		ldrd	r0, [r9]
 2425 04dc FFF7FEFF 		bl	__aeabi_dmul
 2426              	.LVL179:
1228:HANcoder_E407_TTA_CombineModel_V2.c ****                           rtb_Integrator_tmp / 1.0 * 4.0 * rtb_Multiply1) *
 2427              		.loc 1 1228 24 view .LVU917
 2428 04e0 3246     		mov	r2, r6
 2429 04e2 3B46     		mov	r3, r7
 2430 04e4 FFF7FEFF 		bl	__aeabi_dmul
 2431              	.LVL180:
 2432 04e8 0246     		mov	r2, r0
 2433 04ea 0B46     		mov	r3, r1
1231:HANcoder_E407_TTA_CombineModel_V2.c **** 
1232:HANcoder_E407_TTA_CombineModel_V2.c ****       /* Trigonometry: '<S117>/tan ' incorporates:
1233:HANcoder_E407_TTA_CombineModel_V2.c ****        *  DataTypeConversion: '<S117>/Cast'
1234:HANcoder_E407_TTA_CombineModel_V2.c ****        *  Trigonometry: '<S116>/tan 1'
1235:HANcoder_E407_TTA_CombineModel_V2.c ****        */
1236:HANcoder_E407_TTA_CombineModel_V2.c ****       rtb_Multiply1 = sin(Gamma1);
 2434              		.loc 1 1236 23 view .LVU918
 2435 04ec DDE90601 		ldrd	r0, [sp, #24]
1228:HANcoder_E407_TTA_CombineModel_V2.c ****                           rtb_Integrator_tmp / 1.0 * 4.0 * rtb_Multiply1) *
 2436              		.loc 1 1228 24 view .LVU919
 2437 04f0 CDE90623 		strd	r2, [sp, #24]
 2438              	.LVL181:
 2439              		.loc 1 1236 7 is_stmt 1 view .LVU920
 2440              		.loc 1 1236 23 is_stmt 0 view .LVU921
 2441 04f4 FFF7FEFF 		bl	sin
 2442              	.LVL182:
 2443              		.loc 1 1236 23 view .LVU922
 2444 04f8 0246     		mov	r2, r0
 2445 04fa 0B46     		mov	r3, r1
1237:HANcoder_E407_TTA_CombineModel_V2.c **** 
1238:HANcoder_E407_TTA_CombineModel_V2.c ****       /* Trigonometry: '<S117>/tan 1' incorporates:
1239:HANcoder_E407_TTA_CombineModel_V2.c ****        *  DataTypeConversion: '<S117>/Cast'
1240:HANcoder_E407_TTA_CombineModel_V2.c ****        *  Trigonometry: '<S116>/tan 2'
1241:HANcoder_E407_TTA_CombineModel_V2.c ****        */
1242:HANcoder_E407_TTA_CombineModel_V2.c ****       rtb_Integrator_tmp = cos(Gamma1);
 2446              		.loc 1 1242 28 view .LVU923
 2447 04fc DDE90E01 		ldrd	r0, [sp, #56]
 2448 0500 36E0     		b	.L386
 2449              	.L387:
 2450 0502 00BFAFF3 		.align	3
 2450      0080
 2451              	.L385:
 2452 0508 00000040 		.word	1073741824
 2453 050c 1BB98E3F 		.word	1066318107
 2454 0510 000000C0 		.word	-1073741824
 2455 0514 CCCCF43F 		.word	1073007820
 2456 0518 00000000 		.word	rtPrevZCSigState
 2457 051c 0000F03F 		.word	1072693248
 2458 0520 00000000 		.word	SSTM1_ID
 2459 0524 00000000 		.word	boolCan
 2460 0528 00000000 		.word	analogPot1
 2461 052c 8C010000 		.word	rtDWork+396
 2462 0530 60000000 		.word	rtB+96
 2463 0534 00000000 		.word	pot1
 2464 0538 00000000 		.word	analogPot2
 2465 053c 5C000000 		.word	rtB+92
 2466 0540 50000000 		.word	rtDWork+80
 2467 0544 00000000 		.word	pot2
 2468 0548 00000000 		.word	desiredAngle
 2469 054c 00000000 		.word	reqAngle
 2470 0550 0000D03F 		.word	1070596096
 2471 0554 00000000 		.word	t2Angle
 2472 0558 00000000 		.word	t1Angle
 2473 055c 00000000 		.word	Gamma2
 2474 0560 00001040 		.word	1074790400
 2475 0564 00000000 		.word	Gamma1
 2476 0568 00000000 		.word	canRxData_0_rtu_In1
 2477 056c 00000000 		.word	rtConstB
 2478              	.L386:
1236:HANcoder_E407_TTA_CombineModel_V2.c **** 
 2479              		.loc 1 1236 23 view .LVU924
 2480 0570 CDE90A23 		strd	r2, [sp, #40]
 2481              	.LVL183:
 2482              		.loc 1 1242 7 is_stmt 1 view .LVU925
 2483              		.loc 1 1242 28 is_stmt 0 view .LVU926
 2484 0574 FFF7FEFF 		bl	cos
 2485              	.LVL184:
1243:HANcoder_E407_TTA_CombineModel_V2.c **** 
1244:HANcoder_E407_TTA_CombineModel_V2.c ****       /* Signum: '<S117>/Sign' */
1245:HANcoder_E407_TTA_CombineModel_V2.c ****       if (rtb_Multiply < 0.0) {
 2486              		.loc 1 1245 10 view .LVU927
 2487 0578 DDE90867 		ldrd	r6, [sp, #32]
1242:HANcoder_E407_TTA_CombineModel_V2.c **** 
 2488              		.loc 1 1242 28 view .LVU928
 2489 057c CDE90C01 		strd	r0, [sp, #48]
 2490              	.LVL185:
 2491              		.loc 1 1245 7 is_stmt 1 view .LVU929
 2492              		.loc 1 1245 10 is_stmt 0 view .LVU930
 2493 0580 0022     		movs	r2, #0
 2494 0582 0023     		movs	r3, #0
 2495 0584 3046     		mov	r0, r6
 2496              	.LVL186:
 2497              		.loc 1 1245 10 view .LVU931
 2498 0586 3946     		mov	r1, r7
 2499 0588 FFF7FEFF 		bl	__aeabi_dcmplt
 2500              	.LVL187:
 2501 058c 0028     		cmp	r0, #0
 2502 058e 40F00285 		bne	.L249
1246:HANcoder_E407_TTA_CombineModel_V2.c ****         tmp_0 = -1.0;
1247:HANcoder_E407_TTA_CombineModel_V2.c ****       } else {
1248:HANcoder_E407_TTA_CombineModel_V2.c ****         tmp_0 = (rtb_Multiply > 0.0);
 2503              		.loc 1 1248 9 is_stmt 1 view .LVU932
 2504              		.loc 1 1248 15 is_stmt 0 view .LVU933
 2505 0592 0022     		movs	r2, #0
 2506 0594 0023     		movs	r3, #0
 2507 0596 3046     		mov	r0, r6
 2508 0598 3946     		mov	r1, r7
 2509 059a FFF7FEFF 		bl	__aeabi_dcmpgt
 2510              	.LVL188:
 2511 059e 0028     		cmp	r0, #0
 2512 05a0 00F0A785 		beq	.L339
 2513 05a4 9FEDC47B 		vldr.64	d7, .L388
 2514 05a8 8DED0E7B 		vstr.64	d7, [sp, #56]
 2515              	.L144:
 2516              	.LVL189:
1249:HANcoder_E407_TTA_CombineModel_V2.c ****       }
1250:HANcoder_E407_TTA_CombineModel_V2.c **** 
1251:HANcoder_E407_TTA_CombineModel_V2.c ****       /* Trigonometry: '<S115>/tan 1' incorporates:
1252:HANcoder_E407_TTA_CombineModel_V2.c ****        *  Constant: '<S60>/RearAxleToHitch'
1253:HANcoder_E407_TTA_CombineModel_V2.c ****        *  Constant: '<S60>/TractorWheelbase'
1254:HANcoder_E407_TTA_CombineModel_V2.c ****        *  Constant: '<S60>/TrailUnitWheelbase'
1255:HANcoder_E407_TTA_CombineModel_V2.c ****        *  DataTypeConversion: '<S115>/Cast'
1256:HANcoder_E407_TTA_CombineModel_V2.c ****        *  Gain: '<S117>/Gain'
1257:HANcoder_E407_TTA_CombineModel_V2.c ****        *  Product: '<S115>/Product1'
1258:HANcoder_E407_TTA_CombineModel_V2.c ****        *  Product: '<S116>/Product1'
1259:HANcoder_E407_TTA_CombineModel_V2.c ****        *  Product: '<S116>/Product2'
1260:HANcoder_E407_TTA_CombineModel_V2.c ****        *  Product: '<S117>/Product'
1261:HANcoder_E407_TTA_CombineModel_V2.c ****        *  Product: '<S117>/Product1'
1262:HANcoder_E407_TTA_CombineModel_V2.c ****        *  Product: '<S117>/Product3'
1263:HANcoder_E407_TTA_CombineModel_V2.c ****        *  Signum: '<S117>/Sign'
1264:HANcoder_E407_TTA_CombineModel_V2.c ****        *  Sum: '<S116>/Add'
1265:HANcoder_E407_TTA_CombineModel_V2.c ****        *  Sum: '<S117>/Add'
1266:HANcoder_E407_TTA_CombineModel_V2.c ****        *  Trigonometry: '<S117>/tan '
1267:HANcoder_E407_TTA_CombineModel_V2.c ****        *  Trigonometry: '<S117>/tan 1'
1268:HANcoder_E407_TTA_CombineModel_V2.c ****        */
1269:HANcoder_E407_TTA_CombineModel_V2.c ****       delta12K = (real32_T)atan((real32_T)((rtb_Multiply / 1.0 * rtb_Multiply1 *
 2517              		.loc 1 1269 7 is_stmt 1 view .LVU934
1270:HANcoder_E407_TTA_CombineModel_V2.c ****         (-1.0) + rtb_Integrator_tmp / 1.0 * 4.0 * rtb_IntegralGain) * (tmp_0 *
 2518              		.loc 1 1270 43 is_stmt 0 view .LVU935
 2519 05ac DDE90C01 		ldrd	r0, [sp, #48]
 2520 05b0 C74B     		ldr	r3, .L388+24
 2521 05b2 0022     		movs	r2, #0
 2522 05b4 FFF7FEFF 		bl	__aeabi_dmul
 2523              	.LVL190:
 2524              		.loc 1 1270 49 view .LVU936
 2525 05b8 DDE90623 		ldrd	r2, [sp, #24]
 2526 05bc FFF7FEFF 		bl	__aeabi_dmul
 2527              	.LVL191:
1269:HANcoder_E407_TTA_CombineModel_V2.c ****         (-1.0) + rtb_Integrator_tmp / 1.0 * 4.0 * rtb_IntegralGain) * (tmp_0 *
 2528              		.loc 1 1269 64 view .LVU937
 2529 05c0 DDE90A23 		ldrd	r2, [sp, #40]
 2530              		.loc 1 1270 49 view .LVU938
 2531 05c4 0646     		mov	r6, r0
 2532 05c6 0F46     		mov	r7, r1
1269:HANcoder_E407_TTA_CombineModel_V2.c ****         (-1.0) + rtb_Integrator_tmp / 1.0 * 4.0 * rtb_IntegralGain) * (tmp_0 *
 2533              		.loc 1 1269 64 view .LVU939
 2534 05c8 DDE90801 		ldrd	r0, [sp, #32]
 2535 05cc FFF7FEFF 		bl	__aeabi_dmul
 2536              	.LVL192:
 2537 05d0 0246     		mov	r2, r0
 2538 05d2 0B46     		mov	r3, r1
 2539              		.loc 1 1270 16 view .LVU940
 2540 05d4 3046     		mov	r0, r6
 2541 05d6 3946     		mov	r1, r7
 2542 05d8 FFF7FEFF 		bl	__aeabi_dsub
 2543              	.LVL193:
 2544              		.loc 1 1270 78 view .LVU941
 2545 05dc D9E90623 		ldrd	r2, [r9, #24]
 2546              		.loc 1 1270 16 view .LVU942
 2547 05e0 0646     		mov	r6, r0
 2548 05e2 0F46     		mov	r7, r1
 2549              		.loc 1 1270 78 view .LVU943
 2550 05e4 DDE90E01 		ldrd	r0, [sp, #56]
 2551 05e8 FFF7FEFF 		bl	__aeabi_dmul
 2552              	.LVL194:
 2553 05ec 0246     		mov	r2, r0
 2554 05ee 0B46     		mov	r3, r1
 2555              		.loc 1 1270 69 view .LVU944
 2556 05f0 3046     		mov	r0, r6
 2557 05f2 3946     		mov	r1, r7
 2558 05f4 FFF7FEFF 		bl	__aeabi_dmul
 2559              	.LVL195:
1271:HANcoder_E407_TTA_CombineModel_V2.c ****         rtConstB.signL0b_o) * 3.0 / (rtb_IntegralGain * 4.0 * rtb_Multiply1 +
 2560              		.loc 1 1271 29 view .LVU945
 2561 05f8 B64B     		ldr	r3, .L388+28
 2562 05fa 0022     		movs	r2, #0
 2563 05fc FFF7FEFF 		bl	__aeabi_dmul
 2564              	.LVL196:
 2565              		.loc 1 1271 55 view .LVU946
 2566 0600 B34B     		ldr	r3, .L388+24
 2567              		.loc 1 1271 29 view .LVU947
 2568 0602 8046     		mov	r8, r0
 2569 0604 8946     		mov	r9, r1
 2570              		.loc 1 1271 55 view .LVU948
 2571 0606 0022     		movs	r2, #0
 2572 0608 DDE90601 		ldrd	r0, [sp, #24]
 2573 060c FFF7FEFF 		bl	__aeabi_dmul
 2574              	.LVL197:
 2575              		.loc 1 1271 61 view .LVU949
 2576 0610 DDE90A23 		ldrd	r2, [sp, #40]
 2577 0614 FFF7FEFF 		bl	__aeabi_dmul
 2578              	.LVL198:
1272:HANcoder_E407_TTA_CombineModel_V2.c ****         rtb_Integrator_tmp * rtb_Multiply)));
 2579              		.loc 1 1272 28 view .LVU950
 2580 0618 DDE90C23 		ldrd	r2, [sp, #48]
1271:HANcoder_E407_TTA_CombineModel_V2.c ****         rtConstB.signL0b_o) * 3.0 / (rtb_IntegralGain * 4.0 * rtb_Multiply1 +
 2581              		.loc 1 1271 61 view .LVU951
 2582 061c 0646     		mov	r6, r0
 2583 061e 0F46     		mov	r7, r1
 2584              		.loc 1 1272 28 view .LVU952
 2585 0620 DDE90801 		ldrd	r0, [sp, #32]
 2586 0624 FFF7FEFF 		bl	__aeabi_dmul
 2587              	.LVL199:
 2588 0628 0246     		mov	r2, r0
 2589 062a 0B46     		mov	r3, r1
1271:HANcoder_E407_TTA_CombineModel_V2.c ****         rtConstB.signL0b_o) * 3.0 / (rtb_IntegralGain * 4.0 * rtb_Multiply1 +
 2590              		.loc 1 1271 77 view .LVU953
 2591 062c 3046     		mov	r0, r6
 2592 062e 3946     		mov	r1, r7
 2593 0630 FFF7FEFF 		bl	__aeabi_dadd
 2594              	.LVL200:
 2595 0634 0246     		mov	r2, r0
 2596 0636 0B46     		mov	r3, r1
1271:HANcoder_E407_TTA_CombineModel_V2.c ****         rtConstB.signL0b_o) * 3.0 / (rtb_IntegralGain * 4.0 * rtb_Multiply1 +
 2597              		.loc 1 1271 35 view .LVU954
 2598 0638 4046     		mov	r0, r8
 2599 063a 4946     		mov	r1, r9
 2600 063c FFF7FEFF 		bl	__aeabi_ddiv
 2601              	.LVL201:
1269:HANcoder_E407_TTA_CombineModel_V2.c ****         (-1.0) + rtb_Integrator_tmp / 1.0 * 4.0 * rtb_IntegralGain) * (tmp_0 *
 2602              		.loc 1 1269 33 view .LVU955
 2603 0640 FFF7FEFF 		bl	__aeabi_d2f
 2604              	.LVL202:
1269:HANcoder_E407_TTA_CombineModel_V2.c ****         (-1.0) + rtb_Integrator_tmp / 1.0 * 4.0 * rtb_IntegralGain) * (tmp_0 *
 2605              		.loc 1 1269 28 view .LVU956
 2606 0644 FFF7FEFF 		bl	__aeabi_f2d
 2607              	.LVL203:
 2608 0648 FFF7FEFF 		bl	atan
 2609              	.LVL204:
1269:HANcoder_E407_TTA_CombineModel_V2.c ****         (-1.0) + rtb_Integrator_tmp / 1.0 * 4.0 * rtb_IntegralGain) * (tmp_0 *
 2610              		.loc 1 1269 18 view .LVU957
 2611 064c FFF7FEFF 		bl	__aeabi_d2f
 2612              	.LVL205:
1273:HANcoder_E407_TTA_CombineModel_V2.c **** 
1274:HANcoder_E407_TTA_CombineModel_V2.c ****       /* Gain: '<S59>/Gain2' incorporates:
1275:HANcoder_E407_TTA_CombineModel_V2.c ****        *  DataTypeConversion: '<S59>/Cast3'
1276:HANcoder_E407_TTA_CombineModel_V2.c ****        */
1277:HANcoder_E407_TTA_CombineModel_V2.c ****       steering = 45.6 * delta12K;
 2613              		.loc 1 1277 23 view .LVU958
 2614 0650 9FEDA17A 		vldr.32	s14, .L388+32
1269:HANcoder_E407_TTA_CombineModel_V2.c ****         (-1.0) + rtb_Integrator_tmp / 1.0 * 4.0 * rtb_IntegralGain) * (tmp_0 *
 2615              		.loc 1 1269 16 view .LVU959
 2616 0654 A14B     		ldr	r3, .L388+36
1269:HANcoder_E407_TTA_CombineModel_V2.c ****         (-1.0) + rtb_Integrator_tmp / 1.0 * 4.0 * rtb_IntegralGain) * (tmp_0 *
 2617              		.loc 1 1269 18 view .LVU960
 2618 0656 07EE900A 		vmov	s15, r0
 2619              		.loc 1 1277 23 view .LVU961
 2620 065a 67EE877A 		vmul.f32	s15, s15, s14
1269:HANcoder_E407_TTA_CombineModel_V2.c ****         (-1.0) + rtb_Integrator_tmp / 1.0 * 4.0 * rtb_IntegralGain) * (tmp_0 *
 2621              		.loc 1 1269 16 view .LVU962
 2622 065e 1860     		str	r0, [r3]	@ float
 2623              		.loc 1 1277 7 is_stmt 1 view .LVU963
 2624              		.loc 1 1277 23 is_stmt 0 view .LVU964
 2625 0660 17EE900A 		vmov	r0, s15
 2626 0664 FFF7FEFF 		bl	__aeabi_f2d
 2627              	.LVL206:
 2628              		.loc 1 1277 16 view .LVU965
 2629 0668 9D4B     		ldr	r3, .L388+40
 2630              		.loc 1 1277 23 view .LVU966
 2631 066a 8046     		mov	r8, r0
 2632 066c 8946     		mov	r9, r1
 2633              		.loc 1 1277 16 view .LVU967
 2634 066e C3E90089 		strd	r8, [r3]
1278:HANcoder_E407_TTA_CombineModel_V2.c **** 
1279:HANcoder_E407_TTA_CombineModel_V2.c ****       /* Gain: '<S59>/Gain1' incorporates:
1280:HANcoder_E407_TTA_CombineModel_V2.c ****        *  DataStoreRead: '<S59>/Data Store Read'
1281:HANcoder_E407_TTA_CombineModel_V2.c ****        */
1282:HANcoder_E407_TTA_CombineModel_V2.c ****       position = (real_T)1717986918 * 5.8207660913467407E-11 * (real_T)
 2635              		.loc 1 1282 7 is_stmt 1 view .LVU968
 2636              		.loc 1 1282 64 is_stmt 0 view .LVU969
 2637 0672 A06A     		ldr	r0, [r4, #40]
 2638 0674 FFF7FEFF 		bl	__aeabi_i2d
 2639              	.LVL207:
 2640              		.loc 1 1282 62 view .LVU970
 2641 0678 91A3     		adr	r3, .L388+8
 2642 067a D3E90023 		ldrd	r2, [r3]
 2643 067e FFF7FEFF 		bl	__aeabi_dmul
 2644              	.LVL208:
 2645              		.loc 1 1282 16 view .LVU971
 2646 0682 984B     		ldr	r3, .L388+44
 2647              		.loc 1 1282 62 view .LVU972
 2648 0684 0646     		mov	r6, r0
 2649 0686 0F46     		mov	r7, r1
1283:HANcoder_E407_TTA_CombineModel_V2.c ****         rtDWork.encoderPosition;
1284:HANcoder_E407_TTA_CombineModel_V2.c **** 
1285:HANcoder_E407_TTA_CombineModel_V2.c ****       /* Sum: '<S59>/Sum' incorporates:
1286:HANcoder_E407_TTA_CombineModel_V2.c ****        *  Rounding: '<S59>/Round'
1287:HANcoder_E407_TTA_CombineModel_V2.c ****        *  Rounding: '<S59>/Round1'
1288:HANcoder_E407_TTA_CombineModel_V2.c ****        */
1289:HANcoder_E407_TTA_CombineModel_V2.c ****       control = floor(steering) - floor(position);
 2650              		.loc 1 1289 17 view .LVU973
 2651 0688 4046     		mov	r0, r8
 2652 068a 4946     		mov	r1, r9
1282:HANcoder_E407_TTA_CombineModel_V2.c ****         rtDWork.encoderPosition;
 2653              		.loc 1 1282 16 view .LVU974
 2654 068c C3E90067 		strd	r6, [r3]
 2655              		.loc 1 1289 7 is_stmt 1 view .LVU975
 2656              		.loc 1 1289 17 is_stmt 0 view .LVU976
 2657 0690 FFF7FEFF 		bl	floor
 2658              	.LVL209:
 2659 0694 0246     		mov	r2, r0
 2660 0696 0B46     		mov	r3, r1
 2661              		.loc 1 1289 35 view .LVU977
 2662 0698 3046     		mov	r0, r6
 2663 069a 3946     		mov	r1, r7
 2664              		.loc 1 1289 17 view .LVU978
 2665 069c 1646     		mov	r6, r2
 2666 069e 1F46     		mov	r7, r3
 2667              		.loc 1 1289 35 view .LVU979
 2668 06a0 FFF7FEFF 		bl	floor
 2669              	.LVL210:
 2670 06a4 0246     		mov	r2, r0
 2671 06a6 0B46     		mov	r3, r1
 2672              		.loc 1 1289 33 view .LVU980
 2673 06a8 3046     		mov	r0, r6
 2674 06aa 3946     		mov	r1, r7
 2675 06ac FFF7FEFF 		bl	__aeabi_dsub
 2676              	.LVL211:
1290:HANcoder_E407_TTA_CombineModel_V2.c **** 
1291:HANcoder_E407_TTA_CombineModel_V2.c ****       /* Abs: '<S59>/Abs' */
1292:HANcoder_E407_TTA_CombineModel_V2.c ****       rtb_IntegralGain = fabs(control);
1293:HANcoder_E407_TTA_CombineModel_V2.c **** 
1294:HANcoder_E407_TTA_CombineModel_V2.c ****       /* Sum: '<S104>/Sum' incorporates:
1295:HANcoder_E407_TTA_CombineModel_V2.c ****        *  DiscreteIntegrator: '<S95>/Integrator'
1296:HANcoder_E407_TTA_CombineModel_V2.c ****        *  Gain: '<S100>/Proportional Gain'
1297:HANcoder_E407_TTA_CombineModel_V2.c ****        */
1298:HANcoder_E407_TTA_CombineModel_V2.c ****       rtb_Multiply1 = propVal * rtb_IntegralGain + rtDWork.Integrator_DSTATE;
 2677              		.loc 1 1298 59 view .LVU981
 2678 06b0 94ED007B 		vldr.64	d7, [r4]
1289:HANcoder_E407_TTA_CombineModel_V2.c **** 
 2679              		.loc 1 1289 15 view .LVU982
 2680 06b4 8C4A     		ldr	r2, .L388+48
 2681              		.loc 1 1298 31 view .LVU983
 2682 06b6 8D4B     		ldr	r3, .L388+52
1289:HANcoder_E407_TTA_CombineModel_V2.c **** 
 2683              		.loc 1 1289 33 view .LVU984
 2684 06b8 0646     		mov	r6, r0
 2685 06ba 0F46     		mov	r7, r1
1292:HANcoder_E407_TTA_CombineModel_V2.c **** 
 2686              		.loc 1 1292 24 view .LVU985
 2687 06bc 21F00049 		bic	r9, r1, #-2147483648
1289:HANcoder_E407_TTA_CombineModel_V2.c **** 
 2688              		.loc 1 1289 15 view .LVU986
 2689 06c0 C2E90067 		strd	r6, [r2]
1292:HANcoder_E407_TTA_CombineModel_V2.c **** 
 2690              		.loc 1 1292 7 is_stmt 1 view .LVU987
 2691              		.loc 1 1298 31 is_stmt 0 view .LVU988
 2692 06c4 4946     		mov	r1, r9
 2693 06c6 D3E90023 		ldrd	r2, [r3]
 2694              		.loc 1 1298 59 view .LVU989
 2695 06ca 8DED087B 		vstr.64	d7, [sp, #32]
1292:HANcoder_E407_TTA_CombineModel_V2.c **** 
 2696              		.loc 1 1292 24 view .LVU990
 2697 06ce 8046     		mov	r8, r0
 2698              	.LVL212:
 2699              		.loc 1 1298 7 is_stmt 1 view .LVU991
 2700              		.loc 1 1298 31 is_stmt 0 view .LVU992
 2701 06d0 FFF7FEFF 		bl	__aeabi_dmul
 2702              	.LVL213:
 2703              		.loc 1 1298 21 view .LVU993
 2704 06d4 DDE90823 		ldrd	r2, [sp, #32]
 2705 06d8 FFF7FEFF 		bl	__aeabi_dadd
 2706              	.LVL214:
1299:HANcoder_E407_TTA_CombineModel_V2.c **** 
1300:HANcoder_E407_TTA_CombineModel_V2.c ****       /* Saturate: '<S102>/Saturation' */
1301:HANcoder_E407_TTA_CombineModel_V2.c ****       if (rtb_Multiply1 > 300.0) {
 2707              		.loc 1 1301 7 is_stmt 1 view .LVU994
1298:HANcoder_E407_TTA_CombineModel_V2.c **** 
 2708              		.loc 1 1298 21 is_stmt 0 view .LVU995
 2709 06dc 0246     		mov	r2, r0
 2710 06de 0B46     		mov	r3, r1
 2711 06e0 CDE90623 		strd	r2, [sp, #24]
 2712              	.LVL215:
 2713              		.loc 1 1301 10 view .LVU996
 2714 06e4 78A3     		adr	r3, .L388+16
 2715 06e6 D3E90023 		ldrd	r2, [r3]
 2716 06ea FFF7FEFF 		bl	__aeabi_dcmpgt
 2717              	.LVL216:
 2718 06ee 0028     		cmp	r0, #0
 2719 06f0 40F03884 		bne	.L251
1302:HANcoder_E407_TTA_CombineModel_V2.c ****         tmp_0 = 300.0;
1303:HANcoder_E407_TTA_CombineModel_V2.c ****       } else if (rtb_Multiply1 < 0.0) {
 2720              		.loc 1 1303 14 is_stmt 1 view .LVU997
 2721              		.loc 1 1303 17 is_stmt 0 view .LVU998
 2722 06f4 DDE90601 		ldrd	r0, [sp, #24]
 2723 06f8 0022     		movs	r2, #0
 2724 06fa 0023     		movs	r3, #0
 2725 06fc FFF7FEFF 		bl	__aeabi_dcmplt
 2726              	.LVL217:
 2727 0700 0028     		cmp	r0, #0
 2728 0702 40F02F85 		bne	.L252
1304:HANcoder_E407_TTA_CombineModel_V2.c ****         tmp_0 = 0.0;
1305:HANcoder_E407_TTA_CombineModel_V2.c ****       } else {
1306:HANcoder_E407_TTA_CombineModel_V2.c ****         tmp_0 = rtb_Multiply1;
 2729              		.loc 1 1306 9 is_stmt 1 view .LVU999
 2730              	.LVL218:
1307:HANcoder_E407_TTA_CombineModel_V2.c ****       }
1308:HANcoder_E407_TTA_CombineModel_V2.c **** 
1309:HANcoder_E407_TTA_CombineModel_V2.c ****       /* Sum: '<S59>/Add' incorporates:
1310:HANcoder_E407_TTA_CombineModel_V2.c ****        *  Constant: '<S59>/Motor dead zone'
1311:HANcoder_E407_TTA_CombineModel_V2.c ****        *  DataTypeConversion: '<S59>/Cast'
1312:HANcoder_E407_TTA_CombineModel_V2.c ****        *  Saturate: '<S102>/Saturation'
1313:HANcoder_E407_TTA_CombineModel_V2.c ****        */
1314:HANcoder_E407_TTA_CombineModel_V2.c ****       mospeed = (uint16_T)((uint32_T)((uint16_T)500U) + (uint16_T)tmp_0);
 2731              		.loc 1 1314 57 is_stmt 0 view .LVU1000
 2732 0706 DDE90601 		ldrd	r0, [sp, #24]
 2733 070a FFF7FEFF 		bl	__aeabi_d2uiz
 2734              	.LVL219:
 2735              		.loc 1 1314 17 view .LVU1001
 2736 070e 00F5FA73 		add	r3, r0, #500
 2737 0712 9BB2     		uxth	r3, r3
 2738              	.LVL220:
 2739              	.L146:
 2740              		.loc 1 1314 7 is_stmt 1 view .LVU1002
 2741              		.loc 1 1314 15 is_stmt 0 view .LVU1003
 2742 0714 764A     		ldr	r2, .L388+56
1315:HANcoder_E407_TTA_CombineModel_V2.c **** 
1316:HANcoder_E407_TTA_CombineModel_V2.c ****       /* DataStoreWrite: '<S26>/Data Store Write' */
1317:HANcoder_E407_TTA_CombineModel_V2.c ****       rtDWork.pwmMotor = mospeed;
 2743              		.loc 1 1317 24 view .LVU1004
 2744 0716 E385     		strh	r3, [r4, #46]	@ movhi
1314:HANcoder_E407_TTA_CombineModel_V2.c **** 
 2745              		.loc 1 1314 15 view .LVU1005
 2746 0718 1380     		strh	r3, [r2]	@ movhi
 2747              		.loc 1 1317 7 is_stmt 1 view .LVU1006
1318:HANcoder_E407_TTA_CombineModel_V2.c **** 
1319:HANcoder_E407_TTA_CombineModel_V2.c ****       /* RelationalOperator: '<S8>/Equal17' incorporates:
1320:HANcoder_E407_TTA_CombineModel_V2.c ****        *  Constant: '<S59>/Constant'
1321:HANcoder_E407_TTA_CombineModel_V2.c ****        *  RelationalOperator: '<S59>/GreaterThan1'
1322:HANcoder_E407_TTA_CombineModel_V2.c ****        */
1323:HANcoder_E407_TTA_CombineModel_V2.c ****       rtb_Equal17 = (rtb_IntegralGain > controlWidth);
 2748              		.loc 1 1323 7 view .LVU1007
 2749              	.LVL221:
1324:HANcoder_E407_TTA_CombineModel_V2.c **** 
1325:HANcoder_E407_TTA_CombineModel_V2.c ****       /* DataTypeConversion: '<S59>/Cast1' incorporates:
1326:HANcoder_E407_TTA_CombineModel_V2.c ****        *  Constant: '<S59>/Constant1'
1327:HANcoder_E407_TTA_CombineModel_V2.c ****        *  RelationalOperator: '<S59>/GreaterThan'
1328:HANcoder_E407_TTA_CombineModel_V2.c ****        */
1329:HANcoder_E407_TTA_CombineModel_V2.c ****       cw = (control > 0.0);
 2750              		.loc 1 1329 7 view .LVU1008
 2751              		.loc 1 1329 21 is_stmt 0 view .LVU1009
 2752 071a 3046     		mov	r0, r6
 2753 071c 3946     		mov	r1, r7
 2754 071e 0022     		movs	r2, #0
 2755 0720 0023     		movs	r3, #0
 2756 0722 FFF7FEFF 		bl	__aeabi_dcmpgt
 2757              	.LVL222:
1323:HANcoder_E407_TTA_CombineModel_V2.c **** 
 2758              		.loc 1 1323 39 view .LVU1010
 2759 0726 734B     		ldr	r3, .L388+60
 2760              		.loc 1 1329 21 view .LVU1011
 2761 0728 061E     		subs	r6, r0, #0
1330:HANcoder_E407_TTA_CombineModel_V2.c **** 
1331:HANcoder_E407_TTA_CombineModel_V2.c ****       /* Logic: '<S59>/AND' incorporates:
1332:HANcoder_E407_TTA_CombineModel_V2.c ****        *  DataStoreWrite: '<S26>/Data Store Write1'
1333:HANcoder_E407_TTA_CombineModel_V2.c ****        */
1334:HANcoder_E407_TTA_CombineModel_V2.c ****       rtDWork.cwMotor = (rtb_Equal17 && cw);
 2762              		.loc 1 1334 38 view .LVU1012
 2763 072a 4246     		mov	r2, r8
 2764 072c D3E90001 		ldrd	r0, [r3]
 2765              	.LVL223:
 2766              		.loc 1 1334 38 view .LVU1013
 2767 0730 4B46     		mov	r3, r9
1329:HANcoder_E407_TTA_CombineModel_V2.c **** 
 2768              		.loc 1 1329 21 view .LVU1014
 2769 0732 18BF     		it	ne
 2770 0734 0126     		movne	r6, #1
 2771              		.loc 1 1334 7 is_stmt 1 view .LVU1015
 2772              		.loc 1 1334 38 is_stmt 0 view .LVU1016
 2773 0736 FFF7FEFF 		bl	__aeabi_dcmplt
 2774              	.LVL224:
 2775              		.loc 1 1334 38 view .LVU1017
 2776 073a 0028     		cmp	r0, #0
 2777 073c 00F00D84 		beq	.L340
1335:HANcoder_E407_TTA_CombineModel_V2.c **** 
1336:HANcoder_E407_TTA_CombineModel_V2.c ****       /* Logic: '<S59>/NOT' */
1337:HANcoder_E407_TTA_CombineModel_V2.c ****       ccw = !cw;
 2778              		.loc 1 1337 7 is_stmt 1 discriminator 1 view .LVU1018
 2779 0740 86F00103 		eor	r3, r6, #1
1338:HANcoder_E407_TTA_CombineModel_V2.c **** 
1339:HANcoder_E407_TTA_CombineModel_V2.c ****       /* Logic: '<S59>/AND1' incorporates:
1340:HANcoder_E407_TTA_CombineModel_V2.c ****        *  DataStoreWrite: '<S26>/Data Store Write8'
1341:HANcoder_E407_TTA_CombineModel_V2.c ****        */
1342:HANcoder_E407_TTA_CombineModel_V2.c ****       rtDWork.ccwMotor = (rtb_Equal17 && ccw);
 2780              		.loc 1 1342 7 discriminator 1 view .LVU1019
 2781 0744 3046     		mov	r0, r6
 2782 0746 1A46     		mov	r2, r3
 2783              	.L150:
 2784              		.loc 1 1342 24 is_stmt 0 discriminator 6 view .LVU1020
 2785 0748 84F84430 		strb	r3, [r4, #68]
1343:HANcoder_E407_TTA_CombineModel_V2.c **** 
1344:HANcoder_E407_TTA_CombineModel_V2.c ****       /* DeadZone: '<S88>/DeadZone' */
1345:HANcoder_E407_TTA_CombineModel_V2.c ****       if (rtb_Multiply1 > 300.0) {
 2786              		.loc 1 1345 7 is_stmt 1 discriminator 6 view .LVU1021
1329:HANcoder_E407_TTA_CombineModel_V2.c **** 
 2787              		.loc 1 1329 10 is_stmt 0 discriminator 6 view .LVU1022
 2788 074c 6A4B     		ldr	r3, .L388+64
1334:HANcoder_E407_TTA_CombineModel_V2.c **** 
 2789              		.loc 1 1334 23 discriminator 6 view .LVU1023
 2790 074e 84F84300 		strb	r0, [r4, #67]
1329:HANcoder_E407_TTA_CombineModel_V2.c **** 
 2791              		.loc 1 1329 10 discriminator 6 view .LVU1024
 2792 0752 1E70     		strb	r6, [r3]
 2793              		.loc 1 1345 10 discriminator 6 view .LVU1025
 2794 0754 DDE90667 		ldrd	r6, [sp, #24]
1337:HANcoder_E407_TTA_CombineModel_V2.c **** 
 2795              		.loc 1 1337 11 discriminator 6 view .LVU1026
 2796 0758 684B     		ldr	r3, .L388+68
 2797              		.loc 1 1345 10 discriminator 6 view .LVU1027
 2798 075a 3046     		mov	r0, r6
1337:HANcoder_E407_TTA_CombineModel_V2.c **** 
 2799              		.loc 1 1337 11 discriminator 6 view .LVU1028
 2800 075c 1A70     		strb	r2, [r3]
 2801              		.loc 1 1345 10 discriminator 6 view .LVU1029
 2802 075e 3946     		mov	r1, r7
 2803 0760 59A3     		adr	r3, .L388+16
 2804 0762 D3E90023 		ldrd	r2, [r3]
 2805 0766 FFF7FEFF 		bl	__aeabi_dcmpgt
 2806              	.LVL225:
 2807 076a 0028     		cmp	r0, #0
 2808 076c 00F0E283 		beq	.L341
1346:HANcoder_E407_TTA_CombineModel_V2.c ****         rtb_Multiply1 -= 300.0;
 2809              		.loc 1 1346 9 is_stmt 1 view .LVU1030
 2810              		.loc 1 1346 23 is_stmt 0 view .LVU1031
 2811 0770 55A3     		adr	r3, .L388+16
 2812 0772 D3E90023 		ldrd	r2, [r3]
 2813 0776 3046     		mov	r0, r6
 2814 0778 3946     		mov	r1, r7
 2815 077a FFF7FEFF 		bl	__aeabi_dsub
 2816              	.LVL226:
 2817 077e CDE90601 		strd	r0, [sp, #24]
 2818              	.LVL227:
 2819              	.L153:
1347:HANcoder_E407_TTA_CombineModel_V2.c ****       } else if (rtb_Multiply1 >= 0.0) {
1348:HANcoder_E407_TTA_CombineModel_V2.c ****         rtb_Multiply1 = 0.0;
1349:HANcoder_E407_TTA_CombineModel_V2.c ****       } else {
1350:HANcoder_E407_TTA_CombineModel_V2.c ****         rtb_Multiply1 -= 0.0;
1351:HANcoder_E407_TTA_CombineModel_V2.c ****       }
1352:HANcoder_E407_TTA_CombineModel_V2.c **** 
1353:HANcoder_E407_TTA_CombineModel_V2.c ****       /* End of DeadZone: '<S88>/DeadZone' */
1354:HANcoder_E407_TTA_CombineModel_V2.c **** 
1355:HANcoder_E407_TTA_CombineModel_V2.c ****       /* Gain: '<S92>/Integral Gain' */
1356:HANcoder_E407_TTA_CombineModel_V2.c ****       rtb_IntegralGain *= intVal;
 2820              		.loc 1 1356 7 is_stmt 1 view .LVU1032
 2821              		.loc 1 1356 24 is_stmt 0 view .LVU1033
 2822 0782 5F4B     		ldr	r3, .L388+72
 2823 0784 4046     		mov	r0, r8
 2824 0786 D3E90023 		ldrd	r2, [r3]
 2825 078a 4946     		mov	r1, r9
 2826 078c FFF7FEFF 		bl	__aeabi_dmul
 2827              	.LVL228:
1357:HANcoder_E407_TTA_CombineModel_V2.c **** 
1358:HANcoder_E407_TTA_CombineModel_V2.c ****       /* Switch: '<S86>/Switch1' incorporates:
1359:HANcoder_E407_TTA_CombineModel_V2.c ****        *  Constant: '<S86>/Clamping_zero'
1360:HANcoder_E407_TTA_CombineModel_V2.c ****        *  Constant: '<S86>/Constant'
1361:HANcoder_E407_TTA_CombineModel_V2.c ****        *  Constant: '<S86>/Constant2'
1362:HANcoder_E407_TTA_CombineModel_V2.c ****        *  RelationalOperator: '<S86>/fix for DT propagation issue'
1363:HANcoder_E407_TTA_CombineModel_V2.c ****        */
1364:HANcoder_E407_TTA_CombineModel_V2.c ****       if (rtb_Multiply1 > 0.0) {
 2828              		.loc 1 1364 10 view .LVU1034
 2829 0790 0022     		movs	r2, #0
 2830 0792 0023     		movs	r3, #0
1356:HANcoder_E407_TTA_CombineModel_V2.c **** 
 2831              		.loc 1 1356 24 view .LVU1035
 2832 0794 0646     		mov	r6, r0
 2833 0796 0F46     		mov	r7, r1
 2834              	.LVL229:
 2835              		.loc 1 1364 7 is_stmt 1 view .LVU1036
 2836              		.loc 1 1364 10 is_stmt 0 view .LVU1037
 2837 0798 DDE90601 		ldrd	r0, [sp, #24]
 2838 079c FFF7FEFF 		bl	__aeabi_dcmpgt
 2839              	.LVL230:
1365:HANcoder_E407_TTA_CombineModel_V2.c ****         rtPrevAction = 1;
1366:HANcoder_E407_TTA_CombineModel_V2.c ****       } else {
1367:HANcoder_E407_TTA_CombineModel_V2.c ****         rtPrevAction = (-1);
1368:HANcoder_E407_TTA_CombineModel_V2.c ****       }
1369:HANcoder_E407_TTA_CombineModel_V2.c **** 
1370:HANcoder_E407_TTA_CombineModel_V2.c ****       /* Switch: '<S86>/Switch2' incorporates:
1371:HANcoder_E407_TTA_CombineModel_V2.c ****        *  Constant: '<S86>/Clamping_zero'
1372:HANcoder_E407_TTA_CombineModel_V2.c ****        *  Constant: '<S86>/Constant3'
1373:HANcoder_E407_TTA_CombineModel_V2.c ****        *  Constant: '<S86>/Constant4'
1374:HANcoder_E407_TTA_CombineModel_V2.c ****        *  RelationalOperator: '<S86>/fix for DT propagation issue1'
1375:HANcoder_E407_TTA_CombineModel_V2.c ****        */
1376:HANcoder_E407_TTA_CombineModel_V2.c ****       if (rtb_IntegralGain > 0.0) {
 2840              		.loc 1 1376 10 view .LVU1038
 2841 07a0 0022     		movs	r2, #0
 2842 07a2 0023     		movs	r3, #0
1364:HANcoder_E407_TTA_CombineModel_V2.c ****         rtPrevAction = 1;
 2843              		.loc 1 1364 10 view .LVU1039
 2844 07a4 0028     		cmp	r0, #0
 2845 07a6 00F0EF84 		beq	.L366
 2846              	.LVL231:
 2847              		.loc 1 1376 7 is_stmt 1 view .LVU1040
 2848              		.loc 1 1376 10 is_stmt 0 view .LVU1041
 2849 07aa 3046     		mov	r0, r6
 2850 07ac 3946     		mov	r1, r7
 2851 07ae FFF7FEFF 		bl	__aeabi_dcmpgt
 2852              	.LVL232:
 2853 07b2 08B1     		cbz	r0, .L156
 2854              	.LVL233:
 2855              	.L355:
1377:HANcoder_E407_TTA_CombineModel_V2.c ****         rtAction = 1;
1378:HANcoder_E407_TTA_CombineModel_V2.c ****       } else {
1379:HANcoder_E407_TTA_CombineModel_V2.c ****         rtAction = (-1);
1380:HANcoder_E407_TTA_CombineModel_V2.c ****       }
1381:HANcoder_E407_TTA_CombineModel_V2.c **** 
1382:HANcoder_E407_TTA_CombineModel_V2.c ****       /* Switch: '<S86>/Switch' incorporates:
1383:HANcoder_E407_TTA_CombineModel_V2.c ****        *  Constant: '<S86>/Clamping_zero'
1384:HANcoder_E407_TTA_CombineModel_V2.c ****        *  Constant: '<S86>/Constant1'
1385:HANcoder_E407_TTA_CombineModel_V2.c ****        *  Logic: '<S86>/AND3'
1386:HANcoder_E407_TTA_CombineModel_V2.c ****        *  RelationalOperator: '<S86>/Equal1'
1387:HANcoder_E407_TTA_CombineModel_V2.c ****        *  RelationalOperator: '<S86>/Relational Operator'
1388:HANcoder_E407_TTA_CombineModel_V2.c ****        *  Switch: '<S86>/Switch1'
1389:HANcoder_E407_TTA_CombineModel_V2.c ****        *  Switch: '<S86>/Switch2'
1390:HANcoder_E407_TTA_CombineModel_V2.c ****        */
1391:HANcoder_E407_TTA_CombineModel_V2.c ****       if ((0.0 != rtb_Multiply1) && (rtPrevAction == rtAction)) {
1392:HANcoder_E407_TTA_CombineModel_V2.c ****         rtb_IntegralGain = 0.0;
 2856              		.loc 1 1392 26 view .LVU1042
 2857 07b4 0026     		movs	r6, #0
 2858              	.LVL234:
 2859              		.loc 1 1392 26 view .LVU1043
 2860 07b6 0027     		movs	r7, #0
 2861              	.LVL235:
 2862              	.L156:
1393:HANcoder_E407_TTA_CombineModel_V2.c ****       }
1394:HANcoder_E407_TTA_CombineModel_V2.c **** 
1395:HANcoder_E407_TTA_CombineModel_V2.c ****       /* Update for DiscreteIntegrator: '<S95>/Integrator' incorporates:
1396:HANcoder_E407_TTA_CombineModel_V2.c ****        *  Switch: '<S86>/Switch'
1397:HANcoder_E407_TTA_CombineModel_V2.c ****        */
1398:HANcoder_E407_TTA_CombineModel_V2.c ****       rtDWork.Integrator_DSTATE += 1.0 * rtb_IntegralGain;
 2863              		.loc 1 1398 7 is_stmt 1 view .LVU1044
 2864              		.loc 1 1398 33 is_stmt 0 view .LVU1045
 2865 07b8 DDE90801 		ldrd	r0, [sp, #32]
 2866 07bc 3246     		mov	r2, r6
 2867 07be 3B46     		mov	r3, r7
 2868 07c0 FFF7FEFF 		bl	__aeabi_dadd
 2869              	.LVL236:
 2870 07c4 C4E90001 		strd	r0, [r4]
 2871              	.LVL237:
 2872              	.L143:
1167:HANcoder_E407_TTA_CombineModel_V2.c **** 
 2873              		.loc 1 1167 18 view .LVU1046
 2874 07c8 0123     		movs	r3, #1
 2875              	.L142:
1399:HANcoder_E407_TTA_CombineModel_V2.c ****     }
1400:HANcoder_E407_TTA_CombineModel_V2.c **** 
1401:HANcoder_E407_TTA_CombineModel_V2.c ****     rtPrevZCSigState.Subsystem_Trig_ZCE_g = rtb_NotEqual;
 2876              		.loc 1 1401 5 is_stmt 1 view .LVU1047
1402:HANcoder_E407_TTA_CombineModel_V2.c **** 
1403:HANcoder_E407_TTA_CombineModel_V2.c ****     /* End of Outputs for SubSystem: '<S8>/Subsystem' */
1404:HANcoder_E407_TTA_CombineModel_V2.c **** 
1405:HANcoder_E407_TTA_CombineModel_V2.c ****     /* RelationalOperator: '<S8>/Equal6' incorporates:
1406:HANcoder_E407_TTA_CombineModel_V2.c ****      *  Constant: '<S8>/Constant7'
1407:HANcoder_E407_TTA_CombineModel_V2.c ****      */
1408:HANcoder_E407_TTA_CombineModel_V2.c ****     rtb_Equal14 = (slotSelected == 6.0);
1409:HANcoder_E407_TTA_CombineModel_V2.c **** 
1410:HANcoder_E407_TTA_CombineModel_V2.c ****     /* RelationalOperator: '<S8>/Equal5' incorporates:
1411:HANcoder_E407_TTA_CombineModel_V2.c ****      *  Constant: '<S8>/Constant6'
1412:HANcoder_E407_TTA_CombineModel_V2.c ****      *  DataStoreRead: '<S1>/Data Store Read'
1413:HANcoder_E407_TTA_CombineModel_V2.c ****      */
1414:HANcoder_E407_TTA_CombineModel_V2.c ****     rtb_NotEqual = (rtDWork.Board_ID == 2.0);
1415:HANcoder_E407_TTA_CombineModel_V2.c **** 
1416:HANcoder_E407_TTA_CombineModel_V2.c ****     /* Logic: '<S8>/AND9' incorporates:
1417:HANcoder_E407_TTA_CombineModel_V2.c ****      *  Logic: '<S8>/NOT4'
1418:HANcoder_E407_TTA_CombineModel_V2.c ****      */
1419:HANcoder_E407_TTA_CombineModel_V2.c ****     AND9 = (rtb_Equal14 && (!rtb_NotEqual));
 2877              		.loc 1 1419 25 is_stmt 0 view .LVU1048
 2878 07ca F1EE087A 		vmov.f32	s15, #6.0e+0
 2879 07ce B4EE678A 		vcmp.f32	s16, s15
 2880 07d2 F1EE10FA 		vmrs	APSR_nzcv, FPSCR
1414:HANcoder_E407_TTA_CombineModel_V2.c **** 
 2881              		.loc 1 1414 28 view .LVU1049
 2882 07d6 D4E90667 		ldrd	r6, [r4, #24]
1401:HANcoder_E407_TTA_CombineModel_V2.c **** 
 2883              		.loc 1 1401 43 view .LVU1050
 2884 07da EB71     		strb	r3, [r5, #7]
1408:HANcoder_E407_TTA_CombineModel_V2.c **** 
 2885              		.loc 1 1408 5 is_stmt 1 view .LVU1051
1414:HANcoder_E407_TTA_CombineModel_V2.c **** 
 2886              		.loc 1 1414 5 view .LVU1052
 2887              	.LVL238:
 2888              		.loc 1 1419 5 view .LVU1053
 2889              		.loc 1 1419 25 is_stmt 0 view .LVU1054
 2890 07dc 40F02F83 		bne	.L159
 2891              		.loc 1 1419 25 discriminator 1 view .LVU1055
 2892 07e0 0022     		movs	r2, #0
 2893 07e2 4FF08043 		mov	r3, #1073741824
 2894 07e6 3046     		mov	r0, r6
 2895 07e8 3946     		mov	r1, r7
 2896 07ea FFF7FEFF 		bl	__aeabi_dcmpeq
 2897              	.LVL239:
 2898 07ee 0246     		mov	r2, r0
 2899 07f0 0028     		cmp	r0, #0
 2900 07f2 00F05783 		beq	.L367
 2901              	.LVL240:
1420:HANcoder_E407_TTA_CombineModel_V2.c **** 
1421:HANcoder_E407_TTA_CombineModel_V2.c ****     /* Outputs for Enabled SubSystem: '<S8>/TRCK1_ID2_RX' */
1422:HANcoder_E407_TTA_CombineModel_V2.c ****     /* Constant: '<S8>/Constant5' */
1423:HANcoder_E407_TTA_CombineModel_V2.c ****     MMBS1_RX(AND9, TRCK1_ID2, &rtB.TRCK1_ID2_RX, &rtDWork.TRCK1_ID2_RX);
 2902              		.loc 1 1423 5 is_stmt 1 view .LVU1056
 2903              	.LBB223:
 2904              	.LBI223:
 332:HANcoder_E407_TTA_CombineModel_V2.c ****               rtDW_MMBS1_RX *localDW)
 2905              		.loc 1 332 6 view .LVU1057
 2906              	.LBB224:
 336:HANcoder_E407_TTA_CombineModel_V2.c ****   uint8_T rtb_SFunction_o3_b;
 2907              		.loc 1 336 3 view .LVU1058
 337:HANcoder_E407_TTA_CombineModel_V2.c ****   uint8_T rtb_SFunction_o4_l;
 2908              		.loc 1 337 3 view .LVU1059
 338:HANcoder_E407_TTA_CombineModel_V2.c ****   uint8_T rtb_SFunction_o5_e;
 2909              		.loc 1 338 3 view .LVU1060
 339:HANcoder_E407_TTA_CombineModel_V2.c ****   uint8_T rtb_SFunction_o6_k;
 2910              		.loc 1 339 3 view .LVU1061
 340:HANcoder_E407_TTA_CombineModel_V2.c ****   uint8_T rtb_SFunction_o7_dj;
 2911              		.loc 1 340 3 view .LVU1062
 341:HANcoder_E407_TTA_CombineModel_V2.c ****   uint8_T rtb_SFunction_o8_n1;
 2912              		.loc 1 341 3 view .LVU1063
 342:HANcoder_E407_TTA_CombineModel_V2.c ****   uint8_T rtb_SFunction_o9_o;
 2913              		.loc 1 342 3 view .LVU1064
 343:HANcoder_E407_TTA_CombineModel_V2.c ****   int8_T rtb_SFunction_o1_g;
 2914              		.loc 1 343 3 view .LVU1065
 344:HANcoder_E407_TTA_CombineModel_V2.c **** 
 2915              		.loc 1 344 3 view .LVU1066
 349:HANcoder_E407_TTA_CombineModel_V2.c ****     localDW->MMBS1_RX_MODE = true;
 2916              		.loc 1 349 3 view .LVU1067
 376:HANcoder_E407_TTA_CombineModel_V2.c ****     MMBS1_RX_Disable(localDW);
 2917              		.loc 1 376 10 view .LVU1068
 376:HANcoder_E407_TTA_CombineModel_V2.c ****     MMBS1_RX_Disable(localDW);
 2918              		.loc 1 376 13 is_stmt 0 view .LVU1069
 2919 07f6 94F84F30 		ldrb	r3, [r4, #79]	@ zero_extendqisi2
 2920 07fa 13B1     		cbz	r3, .L358
 377:HANcoder_E407_TTA_CombineModel_V2.c ****   }
 2921              		.loc 1 377 5 is_stmt 1 view .LVU1070
 2922              	.LVL241:
 2923              	.LBB225:
 2924              	.LBI225:
 305:HANcoder_E407_TTA_CombineModel_V2.c **** {
 2925              		.loc 1 305 6 view .LVU1071
 2926              	.LBB226:
 307:HANcoder_E407_TTA_CombineModel_V2.c **** }
 2927              		.loc 1 307 3 view .LVU1072
 307:HANcoder_E407_TTA_CombineModel_V2.c **** }
 2928              		.loc 1 307 26 is_stmt 0 view .LVU1073
 2929 07fc 0023     		movs	r3, #0
 2930 07fe 84F84F30 		strb	r3, [r4, #79]
 2931              	.LVL242:
 2932              	.L358:
 307:HANcoder_E407_TTA_CombineModel_V2.c **** }
 2933              		.loc 1 307 26 view .LVU1074
 2934              	.LBE226:
 2935              	.LBE225:
 2936              	.LBE224:
 2937              	.LBE223:
1424:HANcoder_E407_TTA_CombineModel_V2.c **** 
1425:HANcoder_E407_TTA_CombineModel_V2.c ****     /* End of Outputs for SubSystem: '<S8>/TRCK1_ID2_RX' */
1426:HANcoder_E407_TTA_CombineModel_V2.c **** 
1427:HANcoder_E407_TTA_CombineModel_V2.c ****     /* Logic: '<S8>/AND8' */
1428:HANcoder_E407_TTA_CombineModel_V2.c ****     rtb_AND8 = (rtb_Equal14 && rtb_NotEqual);
 2938              		.loc 1 1428 5 is_stmt 1 view .LVU1075
 2939 0802 DFF82081 		ldr	r8, .L388+108
 2940              	.LVL243:
 2941              	.L162:
 2942              		.loc 1 1428 5 view .LVU1076
 2943              		.loc 1 1428 29 is_stmt 0 view .LVU1077
 2944 0806 3046     		mov	r0, r6
 2945 0808 3946     		mov	r1, r7
 2946 080a 0022     		movs	r2, #0
 2947 080c 4FF08043 		mov	r3, #1073741824
 2948 0810 FFF7FEFF 		bl	__aeabi_dcmpeq
 2949              	.LVL244:
 2950              		.loc 1 1428 14 view .LVU1078
 2951 0814 0038     		subs	r0, r0, #0
 2952 0816 18BF     		it	ne
 2953 0818 0120     		movne	r0, #1
 2954              	.L227:
1429:HANcoder_E407_TTA_CombineModel_V2.c **** 
1430:HANcoder_E407_TTA_CombineModel_V2.c ****     /* Outputs for Triggered SubSystem: '<S8>/TRCK1_ID2_TX' */
1431:HANcoder_E407_TTA_CombineModel_V2.c ****     /* Constant: '<S8>/Constant5' */
1432:HANcoder_E407_TTA_CombineModel_V2.c ****     TRCK1_ID2_TX(rtb_AND8, TRCK1_ID2, &rtDWork.Local_Ticks,
 2955              		.loc 1 1432 5 is_stmt 1 discriminator 6 view .LVU1079
 2956 081a 3A4F     		ldr	r7, .L388+76
 2957 081c 3A4B     		ldr	r3, .L388+80
 2958 081e D8F80010 		ldr	r1, [r8]
 2959 0822 0293     		str	r3, [sp, #8]
 2960 0824 394B     		ldr	r3, .L388+84
 2961 0826 0193     		str	r3, [sp, #4]
 2962 0828 0097     		str	r7, [sp]
 2963 082a 3B1F     		subs	r3, r7, #4
 2964 082c 07F10A02 		add	r2, r7, #10
 2965 0830 FFF7FEFF 		bl	TRCK1_ID2_TX
 2966              	.LVL245:
1433:HANcoder_E407_TTA_CombineModel_V2.c ****                  &rtDWork.potentiometer1, &rtDWork.potentiometer2,
1434:HANcoder_E407_TTA_CombineModel_V2.c ****                  &rtB.TRCK1_ID2_TX_f, &rtPrevZCSigState.TRCK1_ID2_TX_f);
1435:HANcoder_E407_TTA_CombineModel_V2.c **** 
1436:HANcoder_E407_TTA_CombineModel_V2.c ****     /* End of Outputs for SubSystem: '<S8>/TRCK1_ID2_TX' */
1437:HANcoder_E407_TTA_CombineModel_V2.c **** 
1438:HANcoder_E407_TTA_CombineModel_V2.c ****     /* RelationalOperator: '<S8>/Equal14' incorporates:
1439:HANcoder_E407_TTA_CombineModel_V2.c ****      *  Constant: '<S8>/Constant20'
1440:HANcoder_E407_TTA_CombineModel_V2.c ****      */
1441:HANcoder_E407_TTA_CombineModel_V2.c ****     rtb_Equal14 = (slotSelected == 7.0);
 2967              		.loc 1 1441 5 discriminator 6 view .LVU1080
 2968              		.loc 1 1441 33 is_stmt 0 discriminator 6 view .LVU1081
 2969 0834 9BF80030 		ldrb	r3, [fp]	@ zero_extendqisi2
 2970 0838 08EE103A 		vmov	s16, r3	@ int
 2971 083c B8EEC88A 		vcvt.f32.s32	s16, s16
 2972              	.LVL246:
1442:HANcoder_E407_TTA_CombineModel_V2.c **** 
1443:HANcoder_E407_TTA_CombineModel_V2.c ****     /* RelationalOperator: '<S8>/Equal7' incorporates:
1444:HANcoder_E407_TTA_CombineModel_V2.c ****      *  Constant: '<S8>/Constant19'
1445:HANcoder_E407_TTA_CombineModel_V2.c ****      *  DataStoreRead: '<S1>/Data Store Read'
1446:HANcoder_E407_TTA_CombineModel_V2.c ****      */
1447:HANcoder_E407_TTA_CombineModel_V2.c ****     rtb_NotEqual = (rtDWork.Board_ID == 3.0);
 2973              		.loc 1 1447 5 is_stmt 1 discriminator 6 view .LVU1082
 2974              		.loc 1 1447 28 is_stmt 0 discriminator 6 view .LVU1083
 2975 0840 94ED066B 		vldr.64	d6, [r4, #24]
1448:HANcoder_E407_TTA_CombineModel_V2.c **** 
1449:HANcoder_E407_TTA_CombineModel_V2.c ****     /* Logic: '<S8>/AND10' */
1450:HANcoder_E407_TTA_CombineModel_V2.c ****     rtb_AND10 = (rtb_Equal14 && rtb_NotEqual);
 2976              		.loc 1 1450 30 discriminator 6 view .LVU1084
 2977 0844 F1EE0C7A 		vmov.f32	s15, #7.0e+0
 2978 0848 B4EE678A 		vcmp.f32	s16, s15
 2979 084c F1EE10FA 		vmrs	APSR_nzcv, FPSCR
1447:HANcoder_E407_TTA_CombineModel_V2.c **** 
 2980              		.loc 1 1447 28 discriminator 6 view .LVU1085
 2981 0850 8DED086B 		vstr.64	d6, [sp, #32]
 2982              	.LVL247:
 2983              		.loc 1 1450 5 is_stmt 1 discriminator 6 view .LVU1086
 2984              		.loc 1 1450 30 is_stmt 0 discriminator 6 view .LVU1087
 2985 0854 40F0F182 		bne	.L253
 2986              		.loc 1 1450 30 discriminator 1 view .LVU1088
 2987 0858 1E4B     		ldr	r3, .L388+28
 2988 085a 51EC160B 		vmov	r0, r1, d6
 2989 085e 0022     		movs	r2, #0
 2990 0860 FFF7FEFF 		bl	__aeabi_dcmpeq
 2991              	.LVL248:
 2992              		.loc 1 1450 15 discriminator 1 view .LVU1089
 2993 0864 0038     		subs	r0, r0, #0
 2994 0866 18BF     		it	ne
 2995 0868 0120     		movne	r0, #1
 2996              	.L163:
1451:HANcoder_E407_TTA_CombineModel_V2.c **** 
1452:HANcoder_E407_TTA_CombineModel_V2.c ****     /* Outputs for Triggered SubSystem: '<S8>/TRCK1_ID3_TX' */
1453:HANcoder_E407_TTA_CombineModel_V2.c ****     /* Constant: '<S8>/Constant26' */
1454:HANcoder_E407_TTA_CombineModel_V2.c ****     TRCK1_ID2_TX(rtb_AND10, TRCK1_ID3, &rtDWork.Local_Ticks,
 2997              		.loc 1 1454 5 is_stmt 1 discriminator 6 view .LVU1090
 2998 086a 294A     		ldr	r2, .L388+88
 2999 086c 294B     		ldr	r3, .L388+92
 3000 086e 0292     		str	r2, [sp, #8]
 3001 0870 294E     		ldr	r6, .L388+96
 3002 0872 2A4A     		ldr	r2, .L388+100
 3003 0874 0192     		str	r2, [sp, #4]
 3004 0876 0097     		str	r7, [sp]
 3005 0878 03F10E02 		add	r2, r3, #14
 3006 087c 3168     		ldr	r1, [r6]
 3007 087e FFF7FEFF 		bl	TRCK1_ID2_TX
 3008              	.LVL249:
1455:HANcoder_E407_TTA_CombineModel_V2.c ****                  &rtDWork.potentiometer1, &rtDWork.potentiometer2,
1456:HANcoder_E407_TTA_CombineModel_V2.c ****                  &rtB.TRCK1_ID3_TX, &rtPrevZCSigState.TRCK1_ID3_TX);
1457:HANcoder_E407_TTA_CombineModel_V2.c **** 
1458:HANcoder_E407_TTA_CombineModel_V2.c ****     /* End of Outputs for SubSystem: '<S8>/TRCK1_ID3_TX' */
1459:HANcoder_E407_TTA_CombineModel_V2.c **** 
1460:HANcoder_E407_TTA_CombineModel_V2.c ****     /* RelationalOperator: '<S8>/Equal13' incorporates:
1461:HANcoder_E407_TTA_CombineModel_V2.c ****      *  Constant: '<S8>/Constant17'
1462:HANcoder_E407_TTA_CombineModel_V2.c ****      */
1463:HANcoder_E407_TTA_CombineModel_V2.c ****     rtb_Equal16 = (slotSelected == 4.0);
 3009              		.loc 1 1463 5 discriminator 6 view .LVU1091
1464:HANcoder_E407_TTA_CombineModel_V2.c **** 
1465:HANcoder_E407_TTA_CombineModel_V2.c ****     /* RelationalOperator: '<S8>/Equal17' incorporates:
1466:HANcoder_E407_TTA_CombineModel_V2.c ****      *  Constant: '<S8>/Constant16'
1467:HANcoder_E407_TTA_CombineModel_V2.c ****      *  DataStoreRead: '<S1>/Data Store Read'
1468:HANcoder_E407_TTA_CombineModel_V2.c ****      *  RelationalOperator: '<S8>/Equal3'
1469:HANcoder_E407_TTA_CombineModel_V2.c ****      */
1470:HANcoder_E407_TTA_CombineModel_V2.c ****     rtb_Equal17 = (rtDWork.Board_ID == 1.0);
 3010              		.loc 1 1470 5 discriminator 6 view .LVU1092
1463:HANcoder_E407_TTA_CombineModel_V2.c **** 
 3011              		.loc 1 1463 33 is_stmt 0 discriminator 6 view .LVU1093
 3012 0882 9BF80030 		ldrb	r3, [fp]	@ zero_extendqisi2
 3013 0886 07EE903A 		vmov	s15, r3	@ int
 3014 088a F8EEE77A 		vcvt.f32.s32	s15, s15
 3015              		.loc 1 1470 27 discriminator 6 view .LVU1094
 3016 088e 94ED066B 		vldr.64	d6, [r4, #24]
1471:HANcoder_E407_TTA_CombineModel_V2.c **** 
1472:HANcoder_E407_TTA_CombineModel_V2.c ****     /* Logic: '<S8>/AND7' incorporates:
1473:HANcoder_E407_TTA_CombineModel_V2.c ****      *  Logic: '<S8>/NOT3'
1474:HANcoder_E407_TTA_CombineModel_V2.c ****      */
1475:HANcoder_E407_TTA_CombineModel_V2.c ****     AND7 = (rtb_Equal16 && (!rtb_Equal17));
 3017              		.loc 1 1475 25 discriminator 6 view .LVU1095
 3018 0892 B1EE007A 		vmov.f32	s14, #4.0e+0
 3019 0896 F4EE477A 		vcmp.f32	s15, s14
 3020 089a F1EE10FA 		vmrs	APSR_nzcv, FPSCR
1470:HANcoder_E407_TTA_CombineModel_V2.c **** 
 3021              		.loc 1 1470 27 discriminator 6 view .LVU1096
 3022 089e 8DED066B 		vstr.64	d6, [sp, #24]
 3023              	.LVL250:
 3024              		.loc 1 1475 5 is_stmt 1 discriminator 6 view .LVU1097
 3025              		.loc 1 1475 25 is_stmt 0 discriminator 6 view .LVU1098
 3026 08a2 40F0C082 		bne	.L165
 3027              		.loc 1 1475 25 discriminator 1 view .LVU1099
 3028 08a6 0022     		movs	r2, #0
 3029 08a8 1D4B     		ldr	r3, .L388+104
 3030 08aa 51EC160B 		vmov	r0, r1, d6
 3031 08ae FFF7FEFF 		bl	__aeabi_dcmpeq
 3032              	.LVL251:
 3033 08b2 39E0     		b	.L389
 3034              	.L390:
 3035 08b4 AFF30080 		.align	3
 3036              	.L388:
 3037 08b8 00000000 		.word	0
 3038 08bc 0000F03F 		.word	1072693248
 3039 08c0 00008099 		.word	-1719664640
 3040 08c4 9999B93F 		.word	1069128089
 3041 08c8 00000000 		.word	0
 3042 08cc 00C07240 		.word	1081262080
 3043 08d0 00001040 		.word	1074790400
 3044 08d4 00000840 		.word	1074266112
 3045 08d8 66663642 		.word	1110861414
 3046 08dc 00000000 		.word	delta12K
 3047 08e0 00000000 		.word	steering
 3048 08e4 00000000 		.word	position
 3049 08e8 00000000 		.word	control
 3050 08ec 00000000 		.word	propVal
 3051 08f0 00000000 		.word	mospeed
 3052 08f4 00000000 		.word	controlWidth
 3053 08f8 00000000 		.word	cw
 3054 08fc 00000000 		.word	ccw
 3055 0900 00000000 		.word	intVal
 3056 0904 30000000 		.word	rtDWork+48
 3057 0908 06000000 		.word	rtPrevZCSigState+6
 3058 090c 4E000000 		.word	rtB+78
 3059 0910 05000000 		.word	rtPrevZCSigState+5
 3060 0914 2C000000 		.word	rtDWork+44
 3061 0918 00000000 		.word	TRCK1_ID3
 3062 091c 44000000 		.word	rtB+68
 3063 0920 0000F03F 		.word	1072693248
 3064 0924 00000000 		.word	TRCK1_ID2
 3065              	.L389:
 3066              	.LVL252:
 3067              		.loc 1 1475 25 discriminator 1 view .LVU1100
 3068 0928 0246     		mov	r2, r0
 3069 092a 0028     		cmp	r0, #0
 3070 092c 00F0A282 		beq	.L368
 3071              	.LVL253:
1476:HANcoder_E407_TTA_CombineModel_V2.c **** 
1477:HANcoder_E407_TTA_CombineModel_V2.c ****     /* Outputs for Enabled SubSystem: '<S8>/TRCK1_RX' */
1478:HANcoder_E407_TTA_CombineModel_V2.c ****     /* Constant: '<S8>/Constant3' */
1479:HANcoder_E407_TTA_CombineModel_V2.c ****     MMBS1_RX(AND7, TRCK1_ID1, &rtB.TRCK1_RX, &rtDWork.TRCK1_RX);
 3072              		.loc 1 1479 5 is_stmt 1 view .LVU1101
 3073              	.LBB235:
 3074              	.LBI235:
 332:HANcoder_E407_TTA_CombineModel_V2.c ****               rtDW_MMBS1_RX *localDW)
 3075              		.loc 1 332 6 view .LVU1102
 3076              	.LBB236:
 336:HANcoder_E407_TTA_CombineModel_V2.c ****   uint8_T rtb_SFunction_o3_b;
 3077              		.loc 1 336 3 view .LVU1103
 337:HANcoder_E407_TTA_CombineModel_V2.c ****   uint8_T rtb_SFunction_o4_l;
 3078              		.loc 1 337 3 view .LVU1104
 338:HANcoder_E407_TTA_CombineModel_V2.c ****   uint8_T rtb_SFunction_o5_e;
 3079              		.loc 1 338 3 view .LVU1105
 339:HANcoder_E407_TTA_CombineModel_V2.c ****   uint8_T rtb_SFunction_o6_k;
 3080              		.loc 1 339 3 view .LVU1106
 340:HANcoder_E407_TTA_CombineModel_V2.c ****   uint8_T rtb_SFunction_o7_dj;
 3081              		.loc 1 340 3 view .LVU1107
 341:HANcoder_E407_TTA_CombineModel_V2.c ****   uint8_T rtb_SFunction_o8_n1;
 3082              		.loc 1 341 3 view .LVU1108
 342:HANcoder_E407_TTA_CombineModel_V2.c ****   uint8_T rtb_SFunction_o9_o;
 3083              		.loc 1 342 3 view .LVU1109
 343:HANcoder_E407_TTA_CombineModel_V2.c ****   int8_T rtb_SFunction_o1_g;
 3084              		.loc 1 343 3 view .LVU1110
 344:HANcoder_E407_TTA_CombineModel_V2.c **** 
 3085              		.loc 1 344 3 view .LVU1111
 349:HANcoder_E407_TTA_CombineModel_V2.c ****     localDW->MMBS1_RX_MODE = true;
 3086              		.loc 1 349 3 view .LVU1112
 376:HANcoder_E407_TTA_CombineModel_V2.c ****     MMBS1_RX_Disable(localDW);
 3087              		.loc 1 376 10 view .LVU1113
 376:HANcoder_E407_TTA_CombineModel_V2.c ****     MMBS1_RX_Disable(localDW);
 3088              		.loc 1 376 13 is_stmt 0 view .LVU1114
 3089 0930 94F84E30 		ldrb	r3, [r4, #78]	@ zero_extendqisi2
 3090 0934 13B1     		cbz	r3, .L357
 377:HANcoder_E407_TTA_CombineModel_V2.c ****   }
 3091              		.loc 1 377 5 is_stmt 1 view .LVU1115
 3092              	.LVL254:
 3093              	.LBB237:
 3094              	.LBI237:
 305:HANcoder_E407_TTA_CombineModel_V2.c **** {
 3095              		.loc 1 305 6 view .LVU1116
 3096              	.LBB238:
 307:HANcoder_E407_TTA_CombineModel_V2.c **** }
 3097              		.loc 1 307 3 view .LVU1117
 307:HANcoder_E407_TTA_CombineModel_V2.c **** }
 3098              		.loc 1 307 26 is_stmt 0 view .LVU1118
 3099 0936 0023     		movs	r3, #0
 3100 0938 84F84E30 		strb	r3, [r4, #78]
 3101              	.LVL255:
 3102              	.L357:
 307:HANcoder_E407_TTA_CombineModel_V2.c **** }
 3103              		.loc 1 307 26 view .LVU1119
 3104              	.LBE238:
 3105              	.LBE237:
 3106              	.LBE236:
 3107              	.LBE235:
1480:HANcoder_E407_TTA_CombineModel_V2.c **** 
1481:HANcoder_E407_TTA_CombineModel_V2.c ****     /* End of Outputs for SubSystem: '<S8>/TRCK1_RX' */
1482:HANcoder_E407_TTA_CombineModel_V2.c **** 
1483:HANcoder_E407_TTA_CombineModel_V2.c ****     /* Logic: '<S8>/AND6' */
1484:HANcoder_E407_TTA_CombineModel_V2.c ****     rtb_AND6 = (rtb_Equal16 && rtb_Equal17);
 3108              		.loc 1 1484 5 is_stmt 1 view .LVU1120
 3109 093c DFF8F492 		ldr	r9, .L391+68
 3110              	.LVL256:
 3111              	.L168:
 3112              		.loc 1 1484 5 view .LVU1121
 3113              		.loc 1 1484 29 is_stmt 0 view .LVU1122
 3114 0940 AB4B     		ldr	r3, .L391
 3115 0942 DDE90601 		ldrd	r0, [sp, #24]
 3116 0946 0022     		movs	r2, #0
 3117 0948 FFF7FEFF 		bl	__aeabi_dcmpeq
 3118              	.LVL257:
 3119              		.loc 1 1484 14 view .LVU1123
 3120 094c 0038     		subs	r0, r0, #0
 3121 094e 18BF     		it	ne
 3122 0950 0120     		movne	r0, #1
 3123              	.L222:
1485:HANcoder_E407_TTA_CombineModel_V2.c **** 
1486:HANcoder_E407_TTA_CombineModel_V2.c ****     /* Outputs for Triggered SubSystem: '<S8>/TRCK1_TX' */
1487:HANcoder_E407_TTA_CombineModel_V2.c ****     /* Constant: '<S8>/Constant3' */
1488:HANcoder_E407_TTA_CombineModel_V2.c ****     TRCK1_ID2_TX(rtb_AND6, TRCK1_ID1, &rtDWork.Local_Ticks,
 3124              		.loc 1 1488 5 is_stmt 1 discriminator 6 view .LVU1124
 3125 0952 A84B     		ldr	r3, .L391+4
 3126 0954 A84A     		ldr	r2, .L391+8
 3127 0956 0097     		str	r7, [sp]
 3128 0958 D9F80010 		ldr	r1, [r9]
 3129 095c 0292     		str	r2, [sp, #8]
 3130 095e A74A     		ldr	r2, .L391+12
 3131 0960 0192     		str	r2, [sp, #4]
 3132 0962 03F10E02 		add	r2, r3, #14
 3133 0966 FFF7FEFF 		bl	TRCK1_ID2_TX
 3134              	.LVL258:
1489:HANcoder_E407_TTA_CombineModel_V2.c ****                  &rtDWork.potentiometer1, &rtDWork.potentiometer2, &rtB.TRCK1_TX,
1490:HANcoder_E407_TTA_CombineModel_V2.c ****                  &rtPrevZCSigState.TRCK1_TX);
1491:HANcoder_E407_TTA_CombineModel_V2.c **** 
1492:HANcoder_E407_TTA_CombineModel_V2.c ****     /* End of Outputs for SubSystem: '<S8>/TRCK1_TX' */
1493:HANcoder_E407_TTA_CombineModel_V2.c **** 
1494:HANcoder_E407_TTA_CombineModel_V2.c ****     /* Outputs for Enabled SubSystem: '<S8>/TRCK_ID3_RX' incorporates:
1495:HANcoder_E407_TTA_CombineModel_V2.c ****      *  EnablePort: '<S32>/Enable'
1496:HANcoder_E407_TTA_CombineModel_V2.c ****      */
1497:HANcoder_E407_TTA_CombineModel_V2.c ****     /* Logic: '<S8>/AND11' incorporates:
1498:HANcoder_E407_TTA_CombineModel_V2.c ****      *  Logic: '<S8>/NOT5'
1499:HANcoder_E407_TTA_CombineModel_V2.c ****      */
1500:HANcoder_E407_TTA_CombineModel_V2.c ****     if (rtb_Equal14 && (!rtb_NotEqual)) {
 3135              		.loc 1 1500 5 discriminator 6 view .LVU1125
 3136              		.loc 1 1500 8 is_stmt 0 discriminator 6 view .LVU1126
 3137 096a F1EE0C7A 		vmov.f32	s15, #7.0e+0
 3138 096e B4EE678A 		vcmp.f32	s16, s15
 3139 0972 F1EE10FA 		vmrs	APSR_nzcv, FPSCR
 3140 0976 09D1     		bne	.L169
 3141              		.loc 1 1500 21 discriminator 1 view .LVU1127
 3142 0978 0022     		movs	r2, #0
 3143 097a DDE90801 		ldrd	r0, [sp, #32]
 3144 097e A04B     		ldr	r3, .L391+16
 3145 0980 FFF7FEFF 		bl	__aeabi_dcmpeq
 3146              	.LVL259:
 3147 0984 0246     		mov	r2, r0
 3148 0986 0028     		cmp	r0, #0
 3149 0988 00F09183 		beq	.L369
 3150              	.L169:
1501:HANcoder_E407_TTA_CombineModel_V2.c ****       rtDWork.TRCK_ID3_RX_MODE = true;
1502:HANcoder_E407_TTA_CombineModel_V2.c **** 
1503:HANcoder_E407_TTA_CombineModel_V2.c ****       /* M-S-Function: '<S143>/S-Function' incorporates:
1504:HANcoder_E407_TTA_CombineModel_V2.c ****        *  Constant: '<S8>/Constant26'
1505:HANcoder_E407_TTA_CombineModel_V2.c ****        */
1506:HANcoder_E407_TTA_CombineModel_V2.c **** 
1507:HANcoder_E407_TTA_CombineModel_V2.c ****       /* read the message data and store the new parameter */
1508:HANcoder_E407_TTA_CombineModel_V2.c ****       rtb_SFunction_o1_k1 = CanIoGetMessage(0, TRCK1_ID3, NULL,
1509:HANcoder_E407_TTA_CombineModel_V2.c ****         &canRxData_0_TRCK1_ID3.uint8_T_info[0], NULL);
1510:HANcoder_E407_TTA_CombineModel_V2.c **** 
1511:HANcoder_E407_TTA_CombineModel_V2.c ****       /* process the message data */
1512:HANcoder_E407_TTA_CombineModel_V2.c ****       if (rtb_SFunction_o1_k1 > 0) {
1513:HANcoder_E407_TTA_CombineModel_V2.c ****         /* read the data */
1514:HANcoder_E407_TTA_CombineModel_V2.c ****         rtb_SFunction_o2_j = canRxData_0_TRCK1_ID3.uint8_T_info[0];
1515:HANcoder_E407_TTA_CombineModel_V2.c ****         rtb_SFunction_o3_a = canRxData_0_TRCK1_ID3.uint8_T_info[1];
1516:HANcoder_E407_TTA_CombineModel_V2.c ****         rtb_SFunction_o4_i = canRxData_0_TRCK1_ID3.uint8_T_info[2];
1517:HANcoder_E407_TTA_CombineModel_V2.c ****         rtb_SFunction_o5_k = canRxData_0_TRCK1_ID3.uint8_T_info[3];
1518:HANcoder_E407_TTA_CombineModel_V2.c ****         rtb_SFunction_o6_c = canRxData_0_TRCK1_ID3.uint8_T_info[4];
1519:HANcoder_E407_TTA_CombineModel_V2.c ****         rtb_SFunction_o7_d = canRxData_0_TRCK1_ID3.uint8_T_info[5];
1520:HANcoder_E407_TTA_CombineModel_V2.c ****         rtb_SFunction_o8_h = canRxData_0_TRCK1_ID3.uint8_T_info[6];
1521:HANcoder_E407_TTA_CombineModel_V2.c ****         rtb_SFunction_o9_b = canRxData_0_TRCK1_ID3.uint8_T_info[7];
1522:HANcoder_E407_TTA_CombineModel_V2.c ****       }
1523:HANcoder_E407_TTA_CombineModel_V2.c **** 
1524:HANcoder_E407_TTA_CombineModel_V2.c ****       /* Outputs for Enabled SubSystem: '<S143>/Enabled Subsystem' */
1525:HANcoder_E407_TTA_CombineModel_V2.c ****       EnabledSubsystem(rtb_SFunction_o1_k1, rtb_SFunction_o2_j,
1526:HANcoder_E407_TTA_CombineModel_V2.c ****                        &rtB.EnabledSubsystem_b);
1527:HANcoder_E407_TTA_CombineModel_V2.c **** 
1528:HANcoder_E407_TTA_CombineModel_V2.c ****       /* End of Outputs for SubSystem: '<S143>/Enabled Subsystem' */
1529:HANcoder_E407_TTA_CombineModel_V2.c ****     } else if (rtDWork.TRCK_ID3_RX_MODE) {
 3151              		.loc 1 1529 12 is_stmt 1 view .LVU1128
 3152              		.loc 1 1529 15 is_stmt 0 view .LVU1129
 3153 098c 94F84B30 		ldrb	r3, [r4, #75]	@ zero_extendqisi2
 3154 0990 13B1     		cbz	r3, .L172
1530:HANcoder_E407_TTA_CombineModel_V2.c ****       rtDWork.TRCK_ID3_RX_MODE = false;
 3155              		.loc 1 1530 7 is_stmt 1 view .LVU1130
 3156              		.loc 1 1530 32 is_stmt 0 view .LVU1131
 3157 0992 0023     		movs	r3, #0
 3158 0994 84F84B30 		strb	r3, [r4, #75]
 3159              	.L172:
1531:HANcoder_E407_TTA_CombineModel_V2.c ****     }
1532:HANcoder_E407_TTA_CombineModel_V2.c **** 
1533:HANcoder_E407_TTA_CombineModel_V2.c ****     /* End of Logic: '<S8>/AND11' */
1534:HANcoder_E407_TTA_CombineModel_V2.c ****     /* End of Outputs for SubSystem: '<S8>/TRCK_ID3_RX' */
1535:HANcoder_E407_TTA_CombineModel_V2.c **** 
1536:HANcoder_E407_TTA_CombineModel_V2.c ****     /* RelationalOperator: '<S8>/Equal17' incorporates:
1537:HANcoder_E407_TTA_CombineModel_V2.c ****      *  Constant: '<S8>/Constant22'
1538:HANcoder_E407_TTA_CombineModel_V2.c ****      *  RelationalOperator: '<S8>/Equal15'
1539:HANcoder_E407_TTA_CombineModel_V2.c ****      */
1540:HANcoder_E407_TTA_CombineModel_V2.c ****     rtb_Equal17 = (slotSelected == 8.0);
 3160              		.loc 1 1540 5 is_stmt 1 view .LVU1132
 3161              		.loc 1 1540 33 is_stmt 0 view .LVU1133
 3162 0998 9BF80030 		ldrb	r3, [fp]	@ zero_extendqisi2
 3163 099c 08EE103A 		vmov	s16, r3	@ int
 3164              	.LVL260:
 3165              		.loc 1 1540 33 view .LVU1134
 3166 09a0 B8EEC88A 		vcvt.f32.s32	s16, s16
 3167              	.LVL261:
1541:HANcoder_E407_TTA_CombineModel_V2.c **** 
1542:HANcoder_E407_TTA_CombineModel_V2.c ****     /* RelationalOperator: '<S8>/Equal8' incorporates:
1543:HANcoder_E407_TTA_CombineModel_V2.c ****      *  Constant: '<S8>/Constant21'
1544:HANcoder_E407_TTA_CombineModel_V2.c ****      *  DataStoreRead: '<S1>/Data Store Read'
1545:HANcoder_E407_TTA_CombineModel_V2.c ****      */
1546:HANcoder_E407_TTA_CombineModel_V2.c ****     rtb_Equal16 = (rtDWork.Board_ID == 4.0);
 3168              		.loc 1 1546 5 is_stmt 1 view .LVU1135
1547:HANcoder_E407_TTA_CombineModel_V2.c **** 
1548:HANcoder_E407_TTA_CombineModel_V2.c ****     /* Logic: '<S8>/AND13' incorporates:
1549:HANcoder_E407_TTA_CombineModel_V2.c ****      *  Logic: '<S8>/NOT6'
1550:HANcoder_E407_TTA_CombineModel_V2.c ****      */
1551:HANcoder_E407_TTA_CombineModel_V2.c ****     rtb_AND13 = (rtb_Equal17 && (!rtb_Equal16));
 3169              		.loc 1 1551 30 is_stmt 0 view .LVU1136
 3170 09a4 F2EE007A 		vmov.f32	s15, #8.0e+0
 3171 09a8 B4EE678A 		vcmp.f32	s16, s15
 3172 09ac F1EE10FA 		vmrs	APSR_nzcv, FPSCR
1546:HANcoder_E407_TTA_CombineModel_V2.c **** 
 3173              		.loc 1 1546 27 view .LVU1137
 3174 09b0 D4E90667 		ldrd	r6, [r4, #24]
 3175              	.LVL262:
 3176              		.loc 1 1551 5 is_stmt 1 view .LVU1138
 3177              		.loc 1 1551 30 is_stmt 0 view .LVU1139
 3178 09b4 40F02F82 		bne	.L174
 3179              		.loc 1 1551 30 discriminator 1 view .LVU1140
 3180 09b8 0022     		movs	r2, #0
 3181 09ba 924B     		ldr	r3, .L391+20
 3182 09bc 3046     		mov	r0, r6
 3183 09be 3946     		mov	r1, r7
 3184 09c0 FFF7FEFF 		bl	__aeabi_dcmpeq
 3185              	.LVL263:
 3186 09c4 0246     		mov	r2, r0
 3187 09c6 0028     		cmp	r0, #0
 3188 09c8 00F04183 		beq	.L370
 3189              	.LVL264:
1552:HANcoder_E407_TTA_CombineModel_V2.c **** 
1553:HANcoder_E407_TTA_CombineModel_V2.c ****     /* Outputs for Enabled SubSystem: '<S8>/TRLS_ID4_RX' incorporates:
1554:HANcoder_E407_TTA_CombineModel_V2.c ****      *  EnablePort: '<S33>/Enable'
1555:HANcoder_E407_TTA_CombineModel_V2.c ****      */
1556:HANcoder_E407_TTA_CombineModel_V2.c ****     if (rtb_AND13) {
 3190              		.loc 1 1556 5 is_stmt 1 view .LVU1141
1557:HANcoder_E407_TTA_CombineModel_V2.c ****       rtDWork.TRLS_ID4_RX_MODE = true;
1558:HANcoder_E407_TTA_CombineModel_V2.c **** 
1559:HANcoder_E407_TTA_CombineModel_V2.c ****       /* M-S-Function: '<S146>/S-Function' incorporates:
1560:HANcoder_E407_TTA_CombineModel_V2.c ****        *  Constant: '<S8>/Constant8'
1561:HANcoder_E407_TTA_CombineModel_V2.c ****        */
1562:HANcoder_E407_TTA_CombineModel_V2.c **** 
1563:HANcoder_E407_TTA_CombineModel_V2.c ****       /* read the message data and store the new parameter */
1564:HANcoder_E407_TTA_CombineModel_V2.c ****       rtb_SFunction_o1_k = CanIoGetMessage(0, TRLS1_ID4, NULL,
1565:HANcoder_E407_TTA_CombineModel_V2.c ****         &canRxData_0_TRLS1_ID4.uint8_T_info[0], NULL);
1566:HANcoder_E407_TTA_CombineModel_V2.c **** 
1567:HANcoder_E407_TTA_CombineModel_V2.c ****       /* process the message data */
1568:HANcoder_E407_TTA_CombineModel_V2.c ****       if (rtb_SFunction_o1_k > 0) {
1569:HANcoder_E407_TTA_CombineModel_V2.c ****         /* read the data */
1570:HANcoder_E407_TTA_CombineModel_V2.c ****         rtb_SFunction_o2_e = canRxData_0_TRLS1_ID4.uint8_T_info[0];
1571:HANcoder_E407_TTA_CombineModel_V2.c ****         rtb_SFunction_o3_p = canRxData_0_TRLS1_ID4.uint8_T_info[1];
1572:HANcoder_E407_TTA_CombineModel_V2.c ****         rtb_SFunction_o4_c = canRxData_0_TRLS1_ID4.uint8_T_info[2];
1573:HANcoder_E407_TTA_CombineModel_V2.c ****         rtb_SFunction_o5_c = canRxData_0_TRLS1_ID4.uint8_T_info[3];
1574:HANcoder_E407_TTA_CombineModel_V2.c ****         rtb_SFunction_o6_e = canRxData_0_TRLS1_ID4.uint8_T_info[4];
1575:HANcoder_E407_TTA_CombineModel_V2.c ****         rtb_SFunction_o7_l = canRxData_0_TRLS1_ID4.uint8_T_info[5];
1576:HANcoder_E407_TTA_CombineModel_V2.c ****         rtb_SFunction_o8_f = canRxData_0_TRLS1_ID4.uint8_T_info[6];
1577:HANcoder_E407_TTA_CombineModel_V2.c ****         rtb_SFunction_o9_h = canRxData_0_TRLS1_ID4.uint8_T_info[7];
1578:HANcoder_E407_TTA_CombineModel_V2.c ****       }
1579:HANcoder_E407_TTA_CombineModel_V2.c **** 
1580:HANcoder_E407_TTA_CombineModel_V2.c ****       /* Outputs for Enabled SubSystem: '<S146>/Enabled Subsystem' incorporates:
1581:HANcoder_E407_TTA_CombineModel_V2.c ****        *  EnablePort: '<S149>/Enable'
1582:HANcoder_E407_TTA_CombineModel_V2.c ****        */
1583:HANcoder_E407_TTA_CombineModel_V2.c ****       if (rtb_SFunction_o1_k > 0) {
1584:HANcoder_E407_TTA_CombineModel_V2.c ****         /* SignalConversion generated from: '<S149>/In1' */
1585:HANcoder_E407_TTA_CombineModel_V2.c ****         rtB.In1_e = rtb_SFunction_o2_e;
1586:HANcoder_E407_TTA_CombineModel_V2.c **** 
1587:HANcoder_E407_TTA_CombineModel_V2.c ****         /* SignalConversion generated from: '<S149>/In2' */
1588:HANcoder_E407_TTA_CombineModel_V2.c ****         rtB.In2_e = rtb_SFunction_o3_p;
1589:HANcoder_E407_TTA_CombineModel_V2.c **** 
1590:HANcoder_E407_TTA_CombineModel_V2.c ****         /* SignalConversion generated from: '<S149>/In6' */
1591:HANcoder_E407_TTA_CombineModel_V2.c ****         buttonpress1 = rtb_SFunction_o7_l;
1592:HANcoder_E407_TTA_CombineModel_V2.c ****       }
1593:HANcoder_E407_TTA_CombineModel_V2.c **** 
1594:HANcoder_E407_TTA_CombineModel_V2.c ****       /* End of Outputs for SubSystem: '<S146>/Enabled Subsystem' */
1595:HANcoder_E407_TTA_CombineModel_V2.c **** 
1596:HANcoder_E407_TTA_CombineModel_V2.c ****       /* DataTypeConversion: '<S145>/Cast' */
1597:HANcoder_E407_TTA_CombineModel_V2.c ****       rtb_Cast_bt = rtB.In1_e;
1598:HANcoder_E407_TTA_CombineModel_V2.c **** 
1599:HANcoder_E407_TTA_CombineModel_V2.c ****       /* Outputs for Atomic SubSystem: '<S145>/Bit Shift' */
1600:HANcoder_E407_TTA_CombineModel_V2.c ****       BitShift_j(rtb_Cast_bt, &rtB.BitShift_jm);
1601:HANcoder_E407_TTA_CombineModel_V2.c **** 
1602:HANcoder_E407_TTA_CombineModel_V2.c ****       /* End of Outputs for SubSystem: '<S145>/Bit Shift' */
1603:HANcoder_E407_TTA_CombineModel_V2.c **** 
1604:HANcoder_E407_TTA_CombineModel_V2.c ****       /* Gain: '<S33>/Gain' incorporates:
1605:HANcoder_E407_TTA_CombineModel_V2.c ****        *  DataStoreWrite: '<S33>/Data Store Write'
1606:HANcoder_E407_TTA_CombineModel_V2.c ****        *  DataTypeConversion: '<S145>/Cast1'
1607:HANcoder_E407_TTA_CombineModel_V2.c ****        *  Sum: '<S145>/Add'
1608:HANcoder_E407_TTA_CombineModel_V2.c ****        */
1609:HANcoder_E407_TTA_CombineModel_V2.c ****       tmp = (uint32_T)(uint16_T)((uint32_T)rtB.BitShift_jm.y + rtB.In2_e) *
1610:HANcoder_E407_TTA_CombineModel_V2.c ****         ((uint16_T)62921U);
1611:HANcoder_E407_TTA_CombineModel_V2.c ****       rtDWork.trailerOneAngle = (uint16_T)((uint32_T)((tmp & 2097152U) != 0U) +
1612:HANcoder_E407_TTA_CombineModel_V2.c ****         (tmp >> 22));
1613:HANcoder_E407_TTA_CombineModel_V2.c **** 
1614:HANcoder_E407_TTA_CombineModel_V2.c ****       /* DataStoreWrite: '<S33>/Data Store Write1' */
1615:HANcoder_E407_TTA_CombineModel_V2.c ****       rtDWork.trailer1buttonPress = buttonpress1;
1616:HANcoder_E407_TTA_CombineModel_V2.c ****     } else if (rtDWork.TRLS_ID4_RX_MODE) {
 3191              		.loc 1 1616 12 view .LVU1142
 3192              		.loc 1 1616 15 is_stmt 0 view .LVU1143
 3193 09cc 94F84A30 		ldrb	r3, [r4, #74]	@ zero_extendqisi2
 3194 09d0 13B1     		cbz	r3, .L220
1617:HANcoder_E407_TTA_CombineModel_V2.c ****       rtDWork.TRLS_ID4_RX_MODE = false;
 3195              		.loc 1 1617 7 is_stmt 1 view .LVU1144
 3196              		.loc 1 1617 32 is_stmt 0 view .LVU1145
 3197 09d2 0023     		movs	r3, #0
 3198 09d4 84F84A30 		strb	r3, [r4, #74]
1618:HANcoder_E407_TTA_CombineModel_V2.c ****     }
1619:HANcoder_E407_TTA_CombineModel_V2.c **** 
1620:HANcoder_E407_TTA_CombineModel_V2.c ****     /* End of Outputs for SubSystem: '<S8>/TRLS_ID4_RX' */
1621:HANcoder_E407_TTA_CombineModel_V2.c **** 
1622:HANcoder_E407_TTA_CombineModel_V2.c ****     /* Logic: '<S8>/AND12' */
1623:HANcoder_E407_TTA_CombineModel_V2.c ****     rtb_NotEqual = (rtb_Equal17 && rtb_Equal16);
 3199              		.loc 1 1623 5 is_stmt 1 view .LVU1146
 3200              	.L220:
 3201              	.LVL265:
1624:HANcoder_E407_TTA_CombineModel_V2.c **** 
1625:HANcoder_E407_TTA_CombineModel_V2.c ****     /* Outputs for Triggered SubSystem: '<S8>/TRLS_ID4_TX' incorporates:
1626:HANcoder_E407_TTA_CombineModel_V2.c ****      *  TriggerPort: '<S34>/Trigger'
1627:HANcoder_E407_TTA_CombineModel_V2.c ****      */
1628:HANcoder_E407_TTA_CombineModel_V2.c ****     if (rtb_NotEqual && (rtPrevZCSigState.TRLS_ID4_TX_Trig_ZCE != POS_ZCSIG)) {
 3202              		.loc 1 1628 5 view .LVU1147
 3203              		.loc 1 1628 42 is_stmt 0 view .LVU1148
 3204 09d8 EB78     		ldrb	r3, [r5, #3]	@ zero_extendqisi2
 3205              		.loc 1 1628 22 view .LVU1149
 3206 09da 012B     		cmp	r3, #1
 3207 09dc 39D0     		beq	.L179
1629:HANcoder_E407_TTA_CombineModel_V2.c ****       /* DataStoreRead: '<S34>/Data Store Read2' */
1630:HANcoder_E407_TTA_CombineModel_V2.c ****       rtB.DataStoreRead2 = rtDWork.Local_Ticks;
 3208              		.loc 1 1630 7 is_stmt 1 view .LVU1150
1631:HANcoder_E407_TTA_CombineModel_V2.c **** 
1632:HANcoder_E407_TTA_CombineModel_V2.c ****       /* DataStoreRead: '<S34>/Data Store Read3' */
1633:HANcoder_E407_TTA_CombineModel_V2.c ****       rtB.DataStoreRead3_h = rtDWork.buttonPress;
1634:HANcoder_E407_TTA_CombineModel_V2.c **** 
1635:HANcoder_E407_TTA_CombineModel_V2.c ****       /* Outputs for Atomic SubSystem: '<S151>/Bit Shift' */
1636:HANcoder_E407_TTA_CombineModel_V2.c ****       /* DataStoreRead: '<S34>/Data Store Read1' */
1637:HANcoder_E407_TTA_CombineModel_V2.c ****       BitShift(rtDWork.potentiometer2, &rtB.BitShift_h);
1638:HANcoder_E407_TTA_CombineModel_V2.c **** 
1639:HANcoder_E407_TTA_CombineModel_V2.c ****       /* End of Outputs for SubSystem: '<S151>/Bit Shift' */
1640:HANcoder_E407_TTA_CombineModel_V2.c **** 
1641:HANcoder_E407_TTA_CombineModel_V2.c ****       /* DataTypeConversion: '<S151>/Cast' */
1642:HANcoder_E407_TTA_CombineModel_V2.c ****       rtB.Cast_d = (uint8_T)rtB.BitShift_h.y;
1643:HANcoder_E407_TTA_CombineModel_V2.c **** 
1644:HANcoder_E407_TTA_CombineModel_V2.c ****       /* DataTypeConversion: '<S151>/Cast1' incorporates:
1645:HANcoder_E407_TTA_CombineModel_V2.c ****        *  DataStoreRead: '<S34>/Data Store Read1'
1646:HANcoder_E407_TTA_CombineModel_V2.c ****        */
1647:HANcoder_E407_TTA_CombineModel_V2.c ****       rtB.Cast1_c = (uint8_T)rtDWork.potentiometer2;
1648:HANcoder_E407_TTA_CombineModel_V2.c **** 
1649:HANcoder_E407_TTA_CombineModel_V2.c ****       /* Outputs for Atomic SubSystem: '<S152>/Bit Shift' */
1650:HANcoder_E407_TTA_CombineModel_V2.c ****       /* DataStoreRead: '<S34>/Data Store Read' */
1651:HANcoder_E407_TTA_CombineModel_V2.c ****       BitShift(rtDWork.potentiometer1, &rtB.BitShift_d);
 3209              		.loc 1 1651 7 is_stmt 0 view .LVU1151
 3210 09de A08D     		ldrh	r0, [r4, #44]
1630:HANcoder_E407_TTA_CombineModel_V2.c **** 
 3211              		.loc 1 1630 35 view .LVU1152
 3212 09e0 94F83A70 		ldrb	r7, [r4, #58]	@ zero_extendqisi2
1633:HANcoder_E407_TTA_CombineModel_V2.c **** 
 3213              		.loc 1 1633 7 is_stmt 1 view .LVU1153
1637:HANcoder_E407_TTA_CombineModel_V2.c **** 
 3214              		.loc 1 1637 7 is_stmt 0 view .LVU1154
 3215 09e4 218E     		ldrh	r1, [r4, #48]
1633:HANcoder_E407_TTA_CombineModel_V2.c **** 
 3216              		.loc 1 1633 37 view .LVU1155
 3217 09e6 94F83C60 		ldrb	r6, [r4, #60]	@ zero_extendqisi2
 3218              	.LVL266:
1637:HANcoder_E407_TTA_CombineModel_V2.c **** 
 3219              		.loc 1 1637 7 is_stmt 1 view .LVU1156
 3220              	.LBB247:
 3221              	.LBI247:
 553:HANcoder_E407_TTA_CombineModel_V2.c **** {
 3222              		.loc 1 553 6 view .LVU1157
 3223              	.LBB248:
 558:HANcoder_E407_TTA_CombineModel_V2.c **** }
 3224              		.loc 1 558 3 view .LVU1158
 3225              	.LBE248:
 3226              	.LBE247:
 3227              	.LBB251:
 3228              	.LBB252:
 558:HANcoder_E407_TTA_CombineModel_V2.c **** }
 3229              		.loc 1 558 15 is_stmt 0 view .LVU1159
 3230 09ea 4FEA102C 		lsr	ip, r0, #8
 3231              	.LBE252:
 3232              	.LBE251:
1652:HANcoder_E407_TTA_CombineModel_V2.c **** 
1653:HANcoder_E407_TTA_CombineModel_V2.c ****       /* End of Outputs for SubSystem: '<S152>/Bit Shift' */
1654:HANcoder_E407_TTA_CombineModel_V2.c **** 
1655:HANcoder_E407_TTA_CombineModel_V2.c ****       /* DataTypeConversion: '<S152>/Cast' */
1656:HANcoder_E407_TTA_CombineModel_V2.c ****       rtB.Cast_n = (uint8_T)rtB.BitShift_d.y;
1657:HANcoder_E407_TTA_CombineModel_V2.c **** 
1658:HANcoder_E407_TTA_CombineModel_V2.c ****       /* DataTypeConversion: '<S152>/Cast1' incorporates:
1659:HANcoder_E407_TTA_CombineModel_V2.c ****        *  DataStoreRead: '<S34>/Data Store Read'
1660:HANcoder_E407_TTA_CombineModel_V2.c ****        */
1661:HANcoder_E407_TTA_CombineModel_V2.c ****       rtB.Cast1_i = (uint8_T)rtDWork.potentiometer1;
1662:HANcoder_E407_TTA_CombineModel_V2.c **** 
1663:HANcoder_E407_TTA_CombineModel_V2.c ****       /* Update for M-S-Function: '<S150>/S-Function' incorporates:
1664:HANcoder_E407_TTA_CombineModel_V2.c ****        *  Constant: '<S8>/Constant8'
1665:HANcoder_E407_TTA_CombineModel_V2.c ****        */
1666:HANcoder_E407_TTA_CombineModel_V2.c ****       {
1667:HANcoder_E407_TTA_CombineModel_V2.c ****         /* prepare the data */
1668:HANcoder_E407_TTA_CombineModel_V2.c ****         canTxData.uint8_T_info[0] = rtB.Cast_n;
 3233              		.loc 1 1668 35 view .LVU1160
 3234 09ee 0022     		movs	r2, #0
 3235 09f0 6CF30702 		bfi	r2, ip, #0, #8
1630:HANcoder_E407_TTA_CombineModel_V2.c **** 
 3236              		.loc 1 1630 26 view .LVU1161
 3237 09f4 0023     		movs	r3, #0
 3238 09f6 67F30703 		bfi	r3, r7, #0, #8
 3239              		.loc 1 1668 35 view .LVU1162
 3240 09fa 60F30F22 		bfi	r2, r0, #8, #8
 3241              	.LBB255:
 3242              	.LBB249:
 558:HANcoder_E407_TTA_CombineModel_V2.c **** }
 3243              		.loc 1 558 15 view .LVU1163
 3244 09fe 080A     		lsrs	r0, r1, #8
 3245              	.LBE249:
 3246              	.LBE255:
1630:HANcoder_E407_TTA_CombineModel_V2.c **** 
 3247              		.loc 1 1630 26 view .LVU1164
 3248 0a00 66F30F23 		bfi	r3, r6, #8, #8
 3249              	.LBB256:
 3250              	.LBB250:
 558:HANcoder_E407_TTA_CombineModel_V2.c **** }
 3251              		.loc 1 558 13 view .LVU1165
 3252 0a04 AAF83200 		strh	r0, [r10, #50]	@ movhi
 3253              	.LVL267:
 558:HANcoder_E407_TTA_CombineModel_V2.c **** }
 3254              		.loc 1 558 13 view .LVU1166
 3255              	.LBE250:
 3256              	.LBE256:
1642:HANcoder_E407_TTA_CombineModel_V2.c **** 
 3257              		.loc 1 1642 7 is_stmt 1 view .LVU1167
1642:HANcoder_E407_TTA_CombineModel_V2.c **** 
 3258              		.loc 1 1642 20 is_stmt 0 view .LVU1168
 3259 0a08 C0B2     		uxtb	r0, r0
1647:HANcoder_E407_TTA_CombineModel_V2.c **** 
 3260              		.loc 1 1647 7 is_stmt 1 view .LVU1169
1647:HANcoder_E407_TTA_CombineModel_V2.c **** 
 3261              		.loc 1 1647 21 is_stmt 0 view .LVU1170
 3262 0a0a C9B2     		uxtb	r1, r1
1630:HANcoder_E407_TTA_CombineModel_V2.c **** 
 3263              		.loc 1 1630 26 view .LVU1171
 3264 0a0c 60F31743 		bfi	r3, r0, #16, #8
 3265 0a10 61F31F63 		bfi	r3, r1, #24, #8
 3266              		.loc 1 1668 35 view .LVU1172
 3267 0a14 60F31742 		bfi	r2, r0, #16, #8
1630:HANcoder_E407_TTA_CombineModel_V2.c **** 
 3268              		.loc 1 1630 26 view .LVU1173
 3269 0a18 CAF81430 		str	r3, [r10, #20]
1651:HANcoder_E407_TTA_CombineModel_V2.c **** 
 3270              		.loc 1 1651 7 is_stmt 1 view .LVU1174
 3271              	.LVL268:
 3272              	.LBB257:
 3273              	.LBI251:
 553:HANcoder_E407_TTA_CombineModel_V2.c **** {
 3274              		.loc 1 553 6 view .LVU1175
 3275              	.LBB253:
 558:HANcoder_E407_TTA_CombineModel_V2.c **** }
 3276              		.loc 1 558 3 view .LVU1176
 558:HANcoder_E407_TTA_CombineModel_V2.c **** }
 3277              		.loc 1 558 3 is_stmt 0 view .LVU1177
 3278              	.LBE253:
 3279              	.LBE257:
1656:HANcoder_E407_TTA_CombineModel_V2.c **** 
 3280              		.loc 1 1656 7 is_stmt 1 view .LVU1178
1661:HANcoder_E407_TTA_CombineModel_V2.c **** 
 3281              		.loc 1 1661 7 view .LVU1179
 3282              		.loc 1 1668 35 is_stmt 0 view .LVU1180
 3283 0a1c 7A4B     		ldr	r3, .L391+24
 3284              	.LBB258:
 3285              	.LBB254:
 558:HANcoder_E407_TTA_CombineModel_V2.c **** }
 3286              		.loc 1 558 13 view .LVU1181
 3287 0a1e AAF830C0 		strh	ip, [r10, #48]	@ movhi
 3288              	.LBE254:
 3289              	.LBE258:
 3290              		.loc 1 1668 35 view .LVU1182
 3291 0a22 61F31F62 		bfi	r2, r1, #24, #8
 3292 0a26 1A60     		str	r2, [r3]
 3293 0a28 A28D     		ldrh	r2, [r4, #44]
1669:HANcoder_E407_TTA_CombineModel_V2.c ****         canTxData.uint8_T_info[1] = rtB.Cast1_i;
1670:HANcoder_E407_TTA_CombineModel_V2.c ****         canTxData.uint8_T_info[2] = rtB.Cast_d;
1671:HANcoder_E407_TTA_CombineModel_V2.c ****         canTxData.uint8_T_info[3] = rtB.Cast1_c;
1672:HANcoder_E407_TTA_CombineModel_V2.c ****         canTxData.uint8_T_info[4] = rtB.DataStoreRead2;
 3294              		.loc 1 1672 35 view .LVU1183
 3295 0a2a 1F71     		strb	r7, [r3, #4]
 3296 0a2c 52BA     		rev16	r2, r2
1656:HANcoder_E407_TTA_CombineModel_V2.c **** 
 3297              		.loc 1 1656 18 view .LVU1184
 3298 0a2e AAF81820 		strh	r2, [r10, #24]	@ movhi
1668:HANcoder_E407_TTA_CombineModel_V2.c ****         canTxData.uint8_T_info[1] = rtB.Cast1_i;
 3299              		.loc 1 1668 9 is_stmt 1 view .LVU1185
1669:HANcoder_E407_TTA_CombineModel_V2.c ****         canTxData.uint8_T_info[1] = rtB.Cast1_i;
 3300              		.loc 1 1669 9 view .LVU1186
1670:HANcoder_E407_TTA_CombineModel_V2.c ****         canTxData.uint8_T_info[3] = rtB.Cast1_c;
 3301              		.loc 1 1670 9 view .LVU1187
1671:HANcoder_E407_TTA_CombineModel_V2.c ****         canTxData.uint8_T_info[4] = rtB.DataStoreRead2;
 3302              		.loc 1 1671 9 view .LVU1188
 3303              		.loc 1 1672 9 view .LVU1189
1673:HANcoder_E407_TTA_CombineModel_V2.c ****         canTxData.uint8_T_info[5] = rtB.DataStoreRead3_h;
 3304              		.loc 1 1673 9 view .LVU1190
1674:HANcoder_E407_TTA_CombineModel_V2.c **** 
1675:HANcoder_E407_TTA_CombineModel_V2.c ****         /* send the data */
1676:HANcoder_E407_TTA_CombineModel_V2.c ****         CanTransmit(0, TRLS1_ID4, 6, &canTxData.uint8_T_info[0]);
 3305              		.loc 1 1676 9 view .LVU1191
 3306 0a32 764A     		ldr	r2, .L391+28
1673:HANcoder_E407_TTA_CombineModel_V2.c ****         canTxData.uint8_T_info[5] = rtB.DataStoreRead3_h;
 3307              		.loc 1 1673 35 is_stmt 0 view .LVU1192
 3308 0a34 5E71     		strb	r6, [r3, #5]
 3309              		.loc 1 1676 9 view .LVU1193
 3310 0a36 1168     		ldr	r1, [r2]
 3311 0a38 0020     		movs	r0, #0
 3312 0a3a 0622     		movs	r2, #6
 3313 0a3c FFF7FEFF 		bl	CanTransmit
 3314              	.LVL269:
1677:HANcoder_E407_TTA_CombineModel_V2.c ****       }
1678:HANcoder_E407_TTA_CombineModel_V2.c ****     }
1679:HANcoder_E407_TTA_CombineModel_V2.c **** 
1680:HANcoder_E407_TTA_CombineModel_V2.c ****     rtPrevZCSigState.TRLS_ID4_TX_Trig_ZCE = rtb_NotEqual;
1681:HANcoder_E407_TTA_CombineModel_V2.c **** 
1682:HANcoder_E407_TTA_CombineModel_V2.c ****     /* End of Outputs for SubSystem: '<S8>/TRLS_ID4_TX' */
1683:HANcoder_E407_TTA_CombineModel_V2.c **** 
1684:HANcoder_E407_TTA_CombineModel_V2.c ****     /* RelationalOperator: '<S8>/Equal17' incorporates:
1685:HANcoder_E407_TTA_CombineModel_V2.c ****      *  Constant: '<S8>/Constant25'
1686:HANcoder_E407_TTA_CombineModel_V2.c ****      */
1687:HANcoder_E407_TTA_CombineModel_V2.c ****     rtb_Equal17 = (slotSelected == 9.0);
 3315              		.loc 1 1687 33 view .LVU1194
 3316 0a40 9BF80030 		ldrb	r3, [fp]	@ zero_extendqisi2
 3317 0a44 08EE103A 		vmov	s16, r3	@ int
 3318              	.LVL270:
1688:HANcoder_E407_TTA_CombineModel_V2.c **** 
1689:HANcoder_E407_TTA_CombineModel_V2.c ****     /* RelationalOperator: '<S8>/Equal16' incorporates:
1690:HANcoder_E407_TTA_CombineModel_V2.c ****      *  Constant: '<S8>/Constant24'
1691:HANcoder_E407_TTA_CombineModel_V2.c ****      *  DataStoreRead: '<S1>/Data Store Read'
1692:HANcoder_E407_TTA_CombineModel_V2.c ****      */
1693:HANcoder_E407_TTA_CombineModel_V2.c ****     rtb_Equal16 = (rtDWork.Board_ID == 5.0);
 3319              		.loc 1 1693 27 view .LVU1195
 3320 0a48 D4E90667 		ldrd	r6, [r4, #24]
1687:HANcoder_E407_TTA_CombineModel_V2.c **** 
 3321              		.loc 1 1687 33 view .LVU1196
 3322 0a4c B8EEC88A 		vcvt.f32.s32	s16, s16
1623:HANcoder_E407_TTA_CombineModel_V2.c **** 
 3323              		.loc 1 1623 18 view .LVU1197
 3324 0a50 0123     		movs	r3, #1
 3325              	.LVL271:
 3326              	.L179:
1680:HANcoder_E407_TTA_CombineModel_V2.c **** 
 3327              		.loc 1 1680 5 is_stmt 1 view .LVU1198
1694:HANcoder_E407_TTA_CombineModel_V2.c **** 
1695:HANcoder_E407_TTA_CombineModel_V2.c ****     /* Logic: '<S8>/AND15' incorporates:
1696:HANcoder_E407_TTA_CombineModel_V2.c ****      *  Logic: '<S8>/NOT7'
1697:HANcoder_E407_TTA_CombineModel_V2.c ****      */
1698:HANcoder_E407_TTA_CombineModel_V2.c ****     rtb_AND15 = (rtb_Equal17 && (!rtb_Equal16));
 3328              		.loc 1 1698 30 is_stmt 0 view .LVU1199
 3329 0a52 F2EE027A 		vmov.f32	s15, #9.0e+0
 3330 0a56 B4EE678A 		vcmp.f32	s16, s15
 3331 0a5a F1EE10FA 		vmrs	APSR_nzcv, FPSCR
1680:HANcoder_E407_TTA_CombineModel_V2.c **** 
 3332              		.loc 1 1680 43 view .LVU1200
 3333 0a5e EB70     		strb	r3, [r5, #3]
1687:HANcoder_E407_TTA_CombineModel_V2.c **** 
 3334              		.loc 1 1687 5 is_stmt 1 view .LVU1201
 3335              	.LVL272:
1693:HANcoder_E407_TTA_CombineModel_V2.c **** 
 3336              		.loc 1 1693 5 view .LVU1202
 3337              		.loc 1 1698 5 view .LVU1203
 3338              		.loc 1 1698 30 is_stmt 0 view .LVU1204
 3339 0a60 40F0D081 		bne	.L180
 3340              		.loc 1 1698 30 discriminator 1 view .LVU1205
 3341 0a64 0022     		movs	r2, #0
 3342 0a66 6A4B     		ldr	r3, .L391+32
 3343 0a68 3046     		mov	r0, r6
 3344 0a6a 3946     		mov	r1, r7
 3345 0a6c FFF7FEFF 		bl	__aeabi_dcmpeq
 3346              	.LVL273:
 3347              		.loc 1 1698 30 discriminator 1 view .LVU1206
 3348 0a70 0246     		mov	r2, r0
 3349 0a72 0028     		cmp	r0, #0
 3350 0a74 00F0C082 		beq	.L371
 3351              	.LVL274:
1699:HANcoder_E407_TTA_CombineModel_V2.c **** 
1700:HANcoder_E407_TTA_CombineModel_V2.c ****     /* Outputs for Enabled SubSystem: '<S8>/TRLS_ID5_RX' incorporates:
1701:HANcoder_E407_TTA_CombineModel_V2.c ****      *  EnablePort: '<S35>/Enable'
1702:HANcoder_E407_TTA_CombineModel_V2.c ****      */
1703:HANcoder_E407_TTA_CombineModel_V2.c ****     if (rtb_AND15) {
 3352              		.loc 1 1703 5 is_stmt 1 view .LVU1207
1704:HANcoder_E407_TTA_CombineModel_V2.c ****       rtDWork.TRLS_ID5_RX_MODE = true;
1705:HANcoder_E407_TTA_CombineModel_V2.c **** 
1706:HANcoder_E407_TTA_CombineModel_V2.c ****       /* M-S-Function: '<S158>/S-Function' incorporates:
1707:HANcoder_E407_TTA_CombineModel_V2.c ****        *  Constant: '<S8>/Constant18'
1708:HANcoder_E407_TTA_CombineModel_V2.c ****        */
1709:HANcoder_E407_TTA_CombineModel_V2.c **** 
1710:HANcoder_E407_TTA_CombineModel_V2.c ****       /* read the message data and store the new parameter */
1711:HANcoder_E407_TTA_CombineModel_V2.c ****       rtb_SFunction_o1_n = CanIoGetMessage(0, TRLS1_ID5, NULL,
1712:HANcoder_E407_TTA_CombineModel_V2.c ****         &canRxData_0_TRLS1_ID5.uint8_T_info[0], NULL);
1713:HANcoder_E407_TTA_CombineModel_V2.c **** 
1714:HANcoder_E407_TTA_CombineModel_V2.c ****       /* process the message data */
1715:HANcoder_E407_TTA_CombineModel_V2.c ****       if (rtb_SFunction_o1_n > 0) {
1716:HANcoder_E407_TTA_CombineModel_V2.c ****         /* read the data */
1717:HANcoder_E407_TTA_CombineModel_V2.c ****         rtb_SFunction_o2_l = canRxData_0_TRLS1_ID5.uint8_T_info[0];
1718:HANcoder_E407_TTA_CombineModel_V2.c ****         rtb_SFunction_o3_m = canRxData_0_TRLS1_ID5.uint8_T_info[1];
1719:HANcoder_E407_TTA_CombineModel_V2.c ****         rtb_SFunction_o4_b = canRxData_0_TRLS1_ID5.uint8_T_info[2];
1720:HANcoder_E407_TTA_CombineModel_V2.c ****         rtb_SFunction_o5_o = canRxData_0_TRLS1_ID5.uint8_T_info[3];
1721:HANcoder_E407_TTA_CombineModel_V2.c ****         rtb_SFunction_o6_i = canRxData_0_TRLS1_ID5.uint8_T_info[4];
1722:HANcoder_E407_TTA_CombineModel_V2.c ****         rtb_SFunction_o7_f = canRxData_0_TRLS1_ID5.uint8_T_info[5];
1723:HANcoder_E407_TTA_CombineModel_V2.c ****         rtb_SFunction_o8_p = canRxData_0_TRLS1_ID5.uint8_T_info[6];
1724:HANcoder_E407_TTA_CombineModel_V2.c ****         rtb_SFunction_o9_l = canRxData_0_TRLS1_ID5.uint8_T_info[7];
1725:HANcoder_E407_TTA_CombineModel_V2.c ****       }
1726:HANcoder_E407_TTA_CombineModel_V2.c **** 
1727:HANcoder_E407_TTA_CombineModel_V2.c ****       /* Outputs for Enabled SubSystem: '<S158>/Enabled Subsystem' incorporates:
1728:HANcoder_E407_TTA_CombineModel_V2.c ****        *  EnablePort: '<S161>/Enable'
1729:HANcoder_E407_TTA_CombineModel_V2.c ****        */
1730:HANcoder_E407_TTA_CombineModel_V2.c ****       if (rtb_SFunction_o1_n > 0) {
1731:HANcoder_E407_TTA_CombineModel_V2.c ****         /* SignalConversion generated from: '<S161>/In1' */
1732:HANcoder_E407_TTA_CombineModel_V2.c ****         rtB.In1 = rtb_SFunction_o2_l;
1733:HANcoder_E407_TTA_CombineModel_V2.c **** 
1734:HANcoder_E407_TTA_CombineModel_V2.c ****         /* SignalConversion generated from: '<S161>/In2' */
1735:HANcoder_E407_TTA_CombineModel_V2.c ****         rtB.In2 = rtb_SFunction_o3_m;
1736:HANcoder_E407_TTA_CombineModel_V2.c **** 
1737:HANcoder_E407_TTA_CombineModel_V2.c ****         /* SignalConversion generated from: '<S161>/In6' */
1738:HANcoder_E407_TTA_CombineModel_V2.c ****         buttonpress2 = rtb_SFunction_o7_f;
1739:HANcoder_E407_TTA_CombineModel_V2.c ****       }
1740:HANcoder_E407_TTA_CombineModel_V2.c **** 
1741:HANcoder_E407_TTA_CombineModel_V2.c ****       /* End of Outputs for SubSystem: '<S158>/Enabled Subsystem' */
1742:HANcoder_E407_TTA_CombineModel_V2.c **** 
1743:HANcoder_E407_TTA_CombineModel_V2.c ****       /* DataStoreWrite: '<S35>/Data Store Write' */
1744:HANcoder_E407_TTA_CombineModel_V2.c ****       rtDWork.trailer2buttonPress = buttonpress2;
1745:HANcoder_E407_TTA_CombineModel_V2.c **** 
1746:HANcoder_E407_TTA_CombineModel_V2.c ****       /* DataTypeConversion: '<S157>/Cast' */
1747:HANcoder_E407_TTA_CombineModel_V2.c ****       rtb_Cast_g1 = rtB.In1;
1748:HANcoder_E407_TTA_CombineModel_V2.c **** 
1749:HANcoder_E407_TTA_CombineModel_V2.c ****       /* Outputs for Atomic SubSystem: '<S157>/Bit Shift' */
1750:HANcoder_E407_TTA_CombineModel_V2.c ****       BitShift_j(rtb_Cast_g1, &rtB.BitShift_c);
1751:HANcoder_E407_TTA_CombineModel_V2.c **** 
1752:HANcoder_E407_TTA_CombineModel_V2.c ****       /* End of Outputs for SubSystem: '<S157>/Bit Shift' */
1753:HANcoder_E407_TTA_CombineModel_V2.c **** 
1754:HANcoder_E407_TTA_CombineModel_V2.c ****       /* Gain: '<S35>/Gain' incorporates:
1755:HANcoder_E407_TTA_CombineModel_V2.c ****        *  DataStoreWrite: '<S35>/Data Store Write1'
1756:HANcoder_E407_TTA_CombineModel_V2.c ****        *  DataTypeConversion: '<S157>/Cast1'
1757:HANcoder_E407_TTA_CombineModel_V2.c ****        *  Sum: '<S157>/Add'
1758:HANcoder_E407_TTA_CombineModel_V2.c ****        */
1759:HANcoder_E407_TTA_CombineModel_V2.c ****       tmp = (uint32_T)(uint16_T)((uint32_T)rtB.BitShift_c.y + rtB.In2) *
1760:HANcoder_E407_TTA_CombineModel_V2.c ****         ((uint16_T)62921U);
1761:HANcoder_E407_TTA_CombineModel_V2.c ****       rtDWork.trailerTwoAngle = (uint16_T)((uint32_T)((tmp & 2097152U) != 0U) +
1762:HANcoder_E407_TTA_CombineModel_V2.c ****         (tmp >> 22));
1763:HANcoder_E407_TTA_CombineModel_V2.c ****     } else if (rtDWork.TRLS_ID5_RX_MODE) {
 3353              		.loc 1 1763 12 view .LVU1208
 3354              		.loc 1 1763 15 is_stmt 0 view .LVU1209
 3355 0a78 94F84930 		ldrb	r3, [r4, #73]	@ zero_extendqisi2
 3356 0a7c 13B1     		cbz	r3, .L216
1764:HANcoder_E407_TTA_CombineModel_V2.c ****       rtDWork.TRLS_ID5_RX_MODE = false;
 3357              		.loc 1 1764 7 is_stmt 1 view .LVU1210
 3358              		.loc 1 1764 32 is_stmt 0 view .LVU1211
 3359 0a7e 0023     		movs	r3, #0
 3360 0a80 84F84930 		strb	r3, [r4, #73]
1765:HANcoder_E407_TTA_CombineModel_V2.c ****     }
1766:HANcoder_E407_TTA_CombineModel_V2.c **** 
1767:HANcoder_E407_TTA_CombineModel_V2.c ****     /* End of Outputs for SubSystem: '<S8>/TRLS_ID5_RX' */
1768:HANcoder_E407_TTA_CombineModel_V2.c **** 
1769:HANcoder_E407_TTA_CombineModel_V2.c ****     /* Logic: '<S8>/AND14' */
1770:HANcoder_E407_TTA_CombineModel_V2.c ****     rtb_NotEqual = (rtb_Equal17 && rtb_Equal16);
 3361              		.loc 1 1770 5 is_stmt 1 view .LVU1212
 3362              	.L216:
 3363              	.LVL275:
1771:HANcoder_E407_TTA_CombineModel_V2.c **** 
1772:HANcoder_E407_TTA_CombineModel_V2.c ****     /* Outputs for Triggered SubSystem: '<S8>/TRLS_ID5_TX' incorporates:
1773:HANcoder_E407_TTA_CombineModel_V2.c ****      *  TriggerPort: '<S36>/Trigger'
1774:HANcoder_E407_TTA_CombineModel_V2.c ****      */
1775:HANcoder_E407_TTA_CombineModel_V2.c ****     if (rtb_NotEqual && (rtPrevZCSigState.TRLS_ID5_TX_Trig_ZCE != POS_ZCSIG)) {
 3364              		.loc 1 1775 5 view .LVU1213
 3365              		.loc 1 1775 42 is_stmt 0 view .LVU1214
 3366 0a84 AB78     		ldrb	r3, [r5, #2]	@ zero_extendqisi2
 3367              		.loc 1 1775 22 view .LVU1215
 3368 0a86 012B     		cmp	r3, #1
 3369 0a88 33D0     		beq	.L185
1776:HANcoder_E407_TTA_CombineModel_V2.c ****       /* DataStoreRead: '<S36>/Data Store Read3' */
1777:HANcoder_E407_TTA_CombineModel_V2.c ****       rtB.DataStoreRead3 = rtDWork.Local_Ticks;
 3370              		.loc 1 1777 7 is_stmt 1 view .LVU1216
1778:HANcoder_E407_TTA_CombineModel_V2.c **** 
1779:HANcoder_E407_TTA_CombineModel_V2.c ****       /* DataStoreRead: '<S36>/Data Store Read4' */
1780:HANcoder_E407_TTA_CombineModel_V2.c ****       rtB.DataStoreRead4 = rtDWork.buttonPress;
1781:HANcoder_E407_TTA_CombineModel_V2.c **** 
1782:HANcoder_E407_TTA_CombineModel_V2.c ****       /* Outputs for Atomic SubSystem: '<S163>/Bit Shift' */
1783:HANcoder_E407_TTA_CombineModel_V2.c ****       /* DataStoreRead: '<S36>/Data Store Read2' */
1784:HANcoder_E407_TTA_CombineModel_V2.c ****       BitShift(rtDWork.potentiometer2, &rtB.BitShift_g);
1785:HANcoder_E407_TTA_CombineModel_V2.c **** 
1786:HANcoder_E407_TTA_CombineModel_V2.c ****       /* End of Outputs for SubSystem: '<S163>/Bit Shift' */
1787:HANcoder_E407_TTA_CombineModel_V2.c **** 
1788:HANcoder_E407_TTA_CombineModel_V2.c ****       /* DataTypeConversion: '<S163>/Cast' */
1789:HANcoder_E407_TTA_CombineModel_V2.c ****       rtB.Cast = (uint8_T)rtB.BitShift_g.y;
1790:HANcoder_E407_TTA_CombineModel_V2.c **** 
1791:HANcoder_E407_TTA_CombineModel_V2.c ****       /* DataTypeConversion: '<S163>/Cast1' incorporates:
1792:HANcoder_E407_TTA_CombineModel_V2.c ****        *  DataStoreRead: '<S36>/Data Store Read2'
1793:HANcoder_E407_TTA_CombineModel_V2.c ****        */
1794:HANcoder_E407_TTA_CombineModel_V2.c ****       rtB.Cast1 = (uint8_T)rtDWork.potentiometer2;
1795:HANcoder_E407_TTA_CombineModel_V2.c **** 
1796:HANcoder_E407_TTA_CombineModel_V2.c ****       /* Outputs for Atomic SubSystem: '<S164>/Bit Shift' */
1797:HANcoder_E407_TTA_CombineModel_V2.c ****       /* DataStoreRead: '<S36>/Data Store Read1' */
1798:HANcoder_E407_TTA_CombineModel_V2.c ****       BitShift(rtDWork.potentiometer1, &rtB.BitShift_gu);
 3371              		.loc 1 1798 7 is_stmt 0 view .LVU1217
 3372 0a8a A08D     		ldrh	r0, [r4, #44]
1777:HANcoder_E407_TTA_CombineModel_V2.c **** 
 3373              		.loc 1 1777 35 view .LVU1218
 3374 0a8c 94F83A70 		ldrb	r7, [r4, #58]	@ zero_extendqisi2
1780:HANcoder_E407_TTA_CombineModel_V2.c **** 
 3375              		.loc 1 1780 7 is_stmt 1 view .LVU1219
1784:HANcoder_E407_TTA_CombineModel_V2.c **** 
 3376              		.loc 1 1784 7 is_stmt 0 view .LVU1220
 3377 0a90 218E     		ldrh	r1, [r4, #48]
1780:HANcoder_E407_TTA_CombineModel_V2.c **** 
 3378              		.loc 1 1780 35 view .LVU1221
 3379 0a92 94F83C60 		ldrb	r6, [r4, #60]	@ zero_extendqisi2
1784:HANcoder_E407_TTA_CombineModel_V2.c **** 
 3380              		.loc 1 1784 7 is_stmt 1 view .LVU1222
 3381              	.LVL276:
 3382              	.LBB259:
 3383              	.LBI259:
 553:HANcoder_E407_TTA_CombineModel_V2.c **** {
 3384              		.loc 1 553 6 view .LVU1223
 3385              	.LBB260:
 558:HANcoder_E407_TTA_CombineModel_V2.c **** }
 3386              		.loc 1 558 3 view .LVU1224
 3387              	.LBE260:
 3388              	.LBE259:
 3389              	.LBB263:
 3390              	.LBB264:
 558:HANcoder_E407_TTA_CombineModel_V2.c **** }
 3391              		.loc 1 558 15 is_stmt 0 view .LVU1225
 3392 0a96 4FEA102C 		lsr	ip, r0, #8
 3393              	.LBE264:
 3394              	.LBE263:
1799:HANcoder_E407_TTA_CombineModel_V2.c **** 
1800:HANcoder_E407_TTA_CombineModel_V2.c ****       /* End of Outputs for SubSystem: '<S164>/Bit Shift' */
1801:HANcoder_E407_TTA_CombineModel_V2.c **** 
1802:HANcoder_E407_TTA_CombineModel_V2.c ****       /* DataTypeConversion: '<S164>/Cast' */
1803:HANcoder_E407_TTA_CombineModel_V2.c ****       rtB.Cast_f = (uint8_T)rtB.BitShift_gu.y;
1804:HANcoder_E407_TTA_CombineModel_V2.c **** 
1805:HANcoder_E407_TTA_CombineModel_V2.c ****       /* DataTypeConversion: '<S164>/Cast1' incorporates:
1806:HANcoder_E407_TTA_CombineModel_V2.c ****        *  DataStoreRead: '<S36>/Data Store Read1'
1807:HANcoder_E407_TTA_CombineModel_V2.c ****        */
1808:HANcoder_E407_TTA_CombineModel_V2.c ****       rtB.Cast1_m = (uint8_T)rtDWork.potentiometer1;
1809:HANcoder_E407_TTA_CombineModel_V2.c **** 
1810:HANcoder_E407_TTA_CombineModel_V2.c ****       /* Update for M-S-Function: '<S162>/S-Function' incorporates:
1811:HANcoder_E407_TTA_CombineModel_V2.c ****        *  Constant: '<S8>/Constant18'
1812:HANcoder_E407_TTA_CombineModel_V2.c ****        */
1813:HANcoder_E407_TTA_CombineModel_V2.c ****       {
1814:HANcoder_E407_TTA_CombineModel_V2.c ****         /* prepare the data */
1815:HANcoder_E407_TTA_CombineModel_V2.c ****         canTxData.uint8_T_info[0] = rtB.Cast_f;
 3395              		.loc 1 1815 35 view .LVU1226
 3396 0a9a 0022     		movs	r2, #0
 3397 0a9c 6CF30702 		bfi	r2, ip, #0, #8
1777:HANcoder_E407_TTA_CombineModel_V2.c **** 
 3398              		.loc 1 1777 26 view .LVU1227
 3399 0aa0 0023     		movs	r3, #0
 3400 0aa2 67F30703 		bfi	r3, r7, #0, #8
 3401              		.loc 1 1815 35 view .LVU1228
 3402 0aa6 60F30F22 		bfi	r2, r0, #8, #8
 3403              	.LBB267:
 3404              	.LBB261:
 558:HANcoder_E407_TTA_CombineModel_V2.c **** }
 3405              		.loc 1 558 15 view .LVU1229
 3406 0aaa 080A     		lsrs	r0, r1, #8
 3407              	.LBE261:
 3408              	.LBE267:
1777:HANcoder_E407_TTA_CombineModel_V2.c **** 
 3409              		.loc 1 1777 26 view .LVU1230
 3410 0aac 66F30F23 		bfi	r3, r6, #8, #8
 3411              	.LBB268:
 3412              	.LBB262:
 558:HANcoder_E407_TTA_CombineModel_V2.c **** }
 3413              		.loc 1 558 13 view .LVU1231
 3414 0ab0 AAF82C00 		strh	r0, [r10, #44]	@ movhi
 3415              	.LVL277:
 558:HANcoder_E407_TTA_CombineModel_V2.c **** }
 3416              		.loc 1 558 13 view .LVU1232
 3417              	.LBE262:
 3418              	.LBE268:
1789:HANcoder_E407_TTA_CombineModel_V2.c **** 
 3419              		.loc 1 1789 7 is_stmt 1 view .LVU1233
1789:HANcoder_E407_TTA_CombineModel_V2.c **** 
 3420              		.loc 1 1789 18 is_stmt 0 view .LVU1234
 3421 0ab4 C0B2     		uxtb	r0, r0
1794:HANcoder_E407_TTA_CombineModel_V2.c **** 
 3422              		.loc 1 1794 7 is_stmt 1 view .LVU1235
1794:HANcoder_E407_TTA_CombineModel_V2.c **** 
 3423              		.loc 1 1794 19 is_stmt 0 view .LVU1236
 3424 0ab6 C9B2     		uxtb	r1, r1
1777:HANcoder_E407_TTA_CombineModel_V2.c **** 
 3425              		.loc 1 1777 26 view .LVU1237
 3426 0ab8 60F31743 		bfi	r3, r0, #16, #8
 3427 0abc 61F31F63 		bfi	r3, r1, #24, #8
 3428              		.loc 1 1815 35 view .LVU1238
 3429 0ac0 60F31742 		bfi	r2, r0, #16, #8
1777:HANcoder_E407_TTA_CombineModel_V2.c **** 
 3430              		.loc 1 1777 26 view .LVU1239
 3431 0ac4 CAF80C30 		str	r3, [r10, #12]
1798:HANcoder_E407_TTA_CombineModel_V2.c **** 
 3432              		.loc 1 1798 7 is_stmt 1 view .LVU1240
 3433              	.LVL278:
 3434              	.LBB269:
 3435              	.LBI263:
 553:HANcoder_E407_TTA_CombineModel_V2.c **** {
 3436              		.loc 1 553 6 view .LVU1241
 3437              	.LBB265:
 558:HANcoder_E407_TTA_CombineModel_V2.c **** }
 3438              		.loc 1 558 3 view .LVU1242
 558:HANcoder_E407_TTA_CombineModel_V2.c **** }
 3439              		.loc 1 558 3 is_stmt 0 view .LVU1243
 3440              	.LBE265:
 3441              	.LBE269:
1803:HANcoder_E407_TTA_CombineModel_V2.c **** 
 3442              		.loc 1 1803 7 is_stmt 1 view .LVU1244
1808:HANcoder_E407_TTA_CombineModel_V2.c **** 
 3443              		.loc 1 1808 7 view .LVU1245
 3444              		.loc 1 1815 35 is_stmt 0 view .LVU1246
 3445 0ac8 4F4B     		ldr	r3, .L391+24
 3446              	.LBB270:
 3447              	.LBB266:
 558:HANcoder_E407_TTA_CombineModel_V2.c **** }
 3448              		.loc 1 558 13 view .LVU1247
 3449 0aca AAF82AC0 		strh	ip, [r10, #42]	@ movhi
 3450              	.LBE266:
 3451              	.LBE270:
 3452              		.loc 1 1815 35 view .LVU1248
 3453 0ace 61F31F62 		bfi	r2, r1, #24, #8
 3454 0ad2 1A60     		str	r2, [r3]
 3455 0ad4 A28D     		ldrh	r2, [r4, #44]
1816:HANcoder_E407_TTA_CombineModel_V2.c ****         canTxData.uint8_T_info[1] = rtB.Cast1_m;
1817:HANcoder_E407_TTA_CombineModel_V2.c ****         canTxData.uint8_T_info[2] = rtB.Cast;
1818:HANcoder_E407_TTA_CombineModel_V2.c ****         canTxData.uint8_T_info[3] = rtB.Cast1;
1819:HANcoder_E407_TTA_CombineModel_V2.c ****         canTxData.uint8_T_info[4] = rtB.DataStoreRead3;
 3456              		.loc 1 1819 35 view .LVU1249
 3457 0ad6 1F71     		strb	r7, [r3, #4]
 3458 0ad8 52BA     		rev16	r2, r2
1803:HANcoder_E407_TTA_CombineModel_V2.c **** 
 3459              		.loc 1 1803 18 view .LVU1250
 3460 0ada AAF81020 		strh	r2, [r10, #16]	@ movhi
1815:HANcoder_E407_TTA_CombineModel_V2.c ****         canTxData.uint8_T_info[1] = rtB.Cast1_m;
 3461              		.loc 1 1815 9 is_stmt 1 view .LVU1251
1816:HANcoder_E407_TTA_CombineModel_V2.c ****         canTxData.uint8_T_info[1] = rtB.Cast1_m;
 3462              		.loc 1 1816 9 view .LVU1252
1817:HANcoder_E407_TTA_CombineModel_V2.c ****         canTxData.uint8_T_info[3] = rtB.Cast1;
 3463              		.loc 1 1817 9 view .LVU1253
1818:HANcoder_E407_TTA_CombineModel_V2.c ****         canTxData.uint8_T_info[4] = rtB.DataStoreRead3;
 3464              		.loc 1 1818 9 view .LVU1254
 3465              		.loc 1 1819 9 view .LVU1255
1820:HANcoder_E407_TTA_CombineModel_V2.c ****         canTxData.uint8_T_info[5] = rtB.DataStoreRead4;
 3466              		.loc 1 1820 9 view .LVU1256
1821:HANcoder_E407_TTA_CombineModel_V2.c **** 
1822:HANcoder_E407_TTA_CombineModel_V2.c ****         /* send the data */
1823:HANcoder_E407_TTA_CombineModel_V2.c ****         CanTransmit(0, TRLS1_ID5, 6, &canTxData.uint8_T_info[0]);
 3467              		.loc 1 1823 9 view .LVU1257
 3468 0ade 4D4A     		ldr	r2, .L391+36
1820:HANcoder_E407_TTA_CombineModel_V2.c ****         canTxData.uint8_T_info[5] = rtB.DataStoreRead4;
 3469              		.loc 1 1820 35 is_stmt 0 view .LVU1258
 3470 0ae0 5E71     		strb	r6, [r3, #5]
 3471              		.loc 1 1823 9 view .LVU1259
 3472 0ae2 1168     		ldr	r1, [r2]
 3473 0ae4 0020     		movs	r0, #0
 3474 0ae6 0622     		movs	r2, #6
 3475 0ae8 FFF7FEFF 		bl	CanTransmit
 3476              	.LVL279:
1824:HANcoder_E407_TTA_CombineModel_V2.c ****       }
1825:HANcoder_E407_TTA_CombineModel_V2.c ****     }
1826:HANcoder_E407_TTA_CombineModel_V2.c **** 
1827:HANcoder_E407_TTA_CombineModel_V2.c ****     rtPrevZCSigState.TRLS_ID5_TX_Trig_ZCE = rtb_NotEqual;
1828:HANcoder_E407_TTA_CombineModel_V2.c **** 
1829:HANcoder_E407_TTA_CombineModel_V2.c ****     /* End of Outputs for SubSystem: '<S8>/TRLS_ID5_TX' */
1830:HANcoder_E407_TTA_CombineModel_V2.c ****   } else if (rtDWork.Messageselector_MODE) {
1831:HANcoder_E407_TTA_CombineModel_V2.c ****     /* Disable for Enabled SubSystem: '<S8>/MMBS1_RX' */
1832:HANcoder_E407_TTA_CombineModel_V2.c ****     if (rtDWork.MMBS1_RX_j.MMBS1_RX_MODE) {
1833:HANcoder_E407_TTA_CombineModel_V2.c ****       /* Constant: '<S8>/Constant12' */
1834:HANcoder_E407_TTA_CombineModel_V2.c ****       MMBS1_RX_Disable(&rtDWork.MMBS1_RX_j);
1835:HANcoder_E407_TTA_CombineModel_V2.c ****     }
1836:HANcoder_E407_TTA_CombineModel_V2.c **** 
1837:HANcoder_E407_TTA_CombineModel_V2.c ****     /* End of Disable for SubSystem: '<S8>/MMBS1_RX' */
1838:HANcoder_E407_TTA_CombineModel_V2.c **** 
1839:HANcoder_E407_TTA_CombineModel_V2.c ****     /* Disable for Triggered SubSystem: '<S8>/MMBS1_TX' */
1840:HANcoder_E407_TTA_CombineModel_V2.c ****     /* Constant: '<S8>/Constant12' */
1841:HANcoder_E407_TTA_CombineModel_V2.c ****     /* Disable for Enabled SubSystem: '<S8>/SSTM1_RX' */
1842:HANcoder_E407_TTA_CombineModel_V2.c ****     if (rtDWork.SSTM1_RX.MMBS1_RX_MODE) {
1843:HANcoder_E407_TTA_CombineModel_V2.c ****       /* Constant: '<S8>/Constant14' */
1844:HANcoder_E407_TTA_CombineModel_V2.c ****       MMBS1_RX_Disable(&rtDWork.SSTM1_RX);
1845:HANcoder_E407_TTA_CombineModel_V2.c ****     }
1846:HANcoder_E407_TTA_CombineModel_V2.c **** 
1847:HANcoder_E407_TTA_CombineModel_V2.c ****     /* End of Disable for SubSystem: '<S8>/SSTM1_RX' */
1848:HANcoder_E407_TTA_CombineModel_V2.c **** 
1849:HANcoder_E407_TTA_CombineModel_V2.c ****     /* Disable for Triggered SubSystem: '<S8>/SSTM1_TX' */
1850:HANcoder_E407_TTA_CombineModel_V2.c ****     /* Constant: '<S8>/Constant14' */
1851:HANcoder_E407_TTA_CombineModel_V2.c ****     /* Disable for Enabled SubSystem: '<S8>/SYNC1_RX' */
1852:HANcoder_E407_TTA_CombineModel_V2.c ****     if (rtDWork.SYNC1_RX_MODE) {
1853:HANcoder_E407_TTA_CombineModel_V2.c ****       rtDWork.SYNC1_RX_MODE = false;
1854:HANcoder_E407_TTA_CombineModel_V2.c ****     }
1855:HANcoder_E407_TTA_CombineModel_V2.c **** 
1856:HANcoder_E407_TTA_CombineModel_V2.c ****     /* End of Disable for SubSystem: '<S8>/SYNC1_RX' */
1857:HANcoder_E407_TTA_CombineModel_V2.c ****     /* Disable for Enabled SubSystem: '<S8>/TRCK1_ID2_RX' */
1858:HANcoder_E407_TTA_CombineModel_V2.c ****     if (rtDWork.TRCK1_ID2_RX.MMBS1_RX_MODE) {
1859:HANcoder_E407_TTA_CombineModel_V2.c ****       /* Constant: '<S8>/Constant5' */
1860:HANcoder_E407_TTA_CombineModel_V2.c ****       MMBS1_RX_Disable(&rtDWork.TRCK1_ID2_RX);
1861:HANcoder_E407_TTA_CombineModel_V2.c ****     }
1862:HANcoder_E407_TTA_CombineModel_V2.c **** 
1863:HANcoder_E407_TTA_CombineModel_V2.c ****     /* End of Disable for SubSystem: '<S8>/TRCK1_ID2_RX' */
1864:HANcoder_E407_TTA_CombineModel_V2.c **** 
1865:HANcoder_E407_TTA_CombineModel_V2.c ****     /* Disable for Triggered SubSystem: '<S8>/TRCK1_ID2_TX' */
1866:HANcoder_E407_TTA_CombineModel_V2.c ****     /* Constant: '<S8>/Constant5' */
1867:HANcoder_E407_TTA_CombineModel_V2.c ****     /* Disable for Triggered SubSystem: '<S8>/TRCK1_ID3_TX' */
1868:HANcoder_E407_TTA_CombineModel_V2.c ****     /* Constant: '<S8>/Constant26' */
1869:HANcoder_E407_TTA_CombineModel_V2.c ****     /* Disable for Enabled SubSystem: '<S8>/TRCK1_RX' */
1870:HANcoder_E407_TTA_CombineModel_V2.c ****     if (rtDWork.TRCK1_RX.MMBS1_RX_MODE) {
1871:HANcoder_E407_TTA_CombineModel_V2.c ****       /* Constant: '<S8>/Constant3' */
1872:HANcoder_E407_TTA_CombineModel_V2.c ****       MMBS1_RX_Disable(&rtDWork.TRCK1_RX);
1873:HANcoder_E407_TTA_CombineModel_V2.c ****     }
1874:HANcoder_E407_TTA_CombineModel_V2.c **** 
1875:HANcoder_E407_TTA_CombineModel_V2.c ****     /* End of Disable for SubSystem: '<S8>/TRCK1_RX' */
1876:HANcoder_E407_TTA_CombineModel_V2.c **** 
1877:HANcoder_E407_TTA_CombineModel_V2.c ****     /* Disable for Triggered SubSystem: '<S8>/TRCK1_TX' */
1878:HANcoder_E407_TTA_CombineModel_V2.c ****     /* Constant: '<S8>/Constant3' */
1879:HANcoder_E407_TTA_CombineModel_V2.c ****     /* Disable for Enabled SubSystem: '<S8>/TRCK_ID3_RX' */
1880:HANcoder_E407_TTA_CombineModel_V2.c ****     if (rtDWork.TRCK_ID3_RX_MODE) {
1881:HANcoder_E407_TTA_CombineModel_V2.c ****       rtDWork.TRCK_ID3_RX_MODE = false;
1882:HANcoder_E407_TTA_CombineModel_V2.c ****     }
1883:HANcoder_E407_TTA_CombineModel_V2.c **** 
1884:HANcoder_E407_TTA_CombineModel_V2.c ****     /* End of Disable for SubSystem: '<S8>/TRCK_ID3_RX' */
1885:HANcoder_E407_TTA_CombineModel_V2.c **** 
1886:HANcoder_E407_TTA_CombineModel_V2.c ****     /* Disable for Enabled SubSystem: '<S8>/TRLS_ID4_RX' */
1887:HANcoder_E407_TTA_CombineModel_V2.c ****     if (rtDWork.TRLS_ID4_RX_MODE) {
1888:HANcoder_E407_TTA_CombineModel_V2.c ****       rtDWork.TRLS_ID4_RX_MODE = false;
1889:HANcoder_E407_TTA_CombineModel_V2.c ****     }
1890:HANcoder_E407_TTA_CombineModel_V2.c **** 
1891:HANcoder_E407_TTA_CombineModel_V2.c ****     /* End of Disable for SubSystem: '<S8>/TRLS_ID4_RX' */
1892:HANcoder_E407_TTA_CombineModel_V2.c ****     /* Disable for Enabled SubSystem: '<S8>/TRLS_ID5_RX' */
1893:HANcoder_E407_TTA_CombineModel_V2.c ****     if (rtDWork.TRLS_ID5_RX_MODE) {
1894:HANcoder_E407_TTA_CombineModel_V2.c ****       rtDWork.TRLS_ID5_RX_MODE = false;
1895:HANcoder_E407_TTA_CombineModel_V2.c ****     }
1896:HANcoder_E407_TTA_CombineModel_V2.c **** 
1897:HANcoder_E407_TTA_CombineModel_V2.c ****     /* End of Disable for SubSystem: '<S8>/TRLS_ID5_RX' */
1898:HANcoder_E407_TTA_CombineModel_V2.c ****     rtDWork.Messageselector_MODE = false;
1899:HANcoder_E407_TTA_CombineModel_V2.c ****   }
1900:HANcoder_E407_TTA_CombineModel_V2.c **** 
1901:HANcoder_E407_TTA_CombineModel_V2.c ****   /* End of Outputs for SubSystem: '<S1>/Message selector' */
1902:HANcoder_E407_TTA_CombineModel_V2.c **** 
1903:HANcoder_E407_TTA_CombineModel_V2.c ****   /* Outputs for Triggered SubSystem: '<S10>/Subsystem' incorporates:
1904:HANcoder_E407_TTA_CombineModel_V2.c ****    *  TriggerPort: '<S169>/Trigger'
1905:HANcoder_E407_TTA_CombineModel_V2.c ****    */
1906:HANcoder_E407_TTA_CombineModel_V2.c ****   if (rtb_AND && (rtPrevZCSigState.Subsystem_Trig_ZCE != POS_ZCSIG)) {
1907:HANcoder_E407_TTA_CombineModel_V2.c ****     /* DataStoreWrite: '<S169>/Data Store Write1' incorporates:
1908:HANcoder_E407_TTA_CombineModel_V2.c ****      *  Constant: '<S169>/Constant1'
1909:HANcoder_E407_TTA_CombineModel_V2.c ****      */
1910:HANcoder_E407_TTA_CombineModel_V2.c ****     rtDWork.Local_Ticks = ((uint8_T)0U);
1911:HANcoder_E407_TTA_CombineModel_V2.c **** 
1912:HANcoder_E407_TTA_CombineModel_V2.c ****     /* DataStoreWrite: '<S169>/Data Store Write' incorporates:
1913:HANcoder_E407_TTA_CombineModel_V2.c ****      *  Constant: '<S169>/Constant3'
1914:HANcoder_E407_TTA_CombineModel_V2.c ****      */
1915:HANcoder_E407_TTA_CombineModel_V2.c ****     rtDWork.SlotTime = slotTime;
1916:HANcoder_E407_TTA_CombineModel_V2.c ****   }
1917:HANcoder_E407_TTA_CombineModel_V2.c **** 
1918:HANcoder_E407_TTA_CombineModel_V2.c ****   rtPrevZCSigState.Subsystem_Trig_ZCE = rtb_AND;
1919:HANcoder_E407_TTA_CombineModel_V2.c **** 
1920:HANcoder_E407_TTA_CombineModel_V2.c ****   /* End of Outputs for SubSystem: '<S10>/Subsystem' */
1921:HANcoder_E407_TTA_CombineModel_V2.c **** 
1922:HANcoder_E407_TTA_CombineModel_V2.c ****   /* Outputs for Enabled SubSystem: '<S10>/Subsystem2' incorporates:
1923:HANcoder_E407_TTA_CombineModel_V2.c ****    *  EnablePort: '<S170>/Enable'
1924:HANcoder_E407_TTA_CombineModel_V2.c ****    */
1925:HANcoder_E407_TTA_CombineModel_V2.c ****   /* Logic: '<S10>/AND1' incorporates:
1926:HANcoder_E407_TTA_CombineModel_V2.c ****    *  DataStoreRead: '<S10>/Data Store Read'
1927:HANcoder_E407_TTA_CombineModel_V2.c ****    *  DataStoreRead: '<S10>/Data Store Read4'
1928:HANcoder_E407_TTA_CombineModel_V2.c ****    *  DataStoreRead: '<S10>/Data Store Read5'
1929:HANcoder_E407_TTA_CombineModel_V2.c ****    *  Logic: '<S10>/NOT'
1930:HANcoder_E407_TTA_CombineModel_V2.c ****    *  RelationalOperator: '<S10>/NotEqual'
1931:HANcoder_E407_TTA_CombineModel_V2.c ****    */
1932:HANcoder_E407_TTA_CombineModel_V2.c ****   if ((rtDWork.Board_ID != Master_ID) && (!rtDWork.slaveClockOn)) {
 3477              		.loc 1 1932 15 view .LVU1260
 3478 0aec D4E90667 		ldrd	r6, [r4, #24]
1770:HANcoder_E407_TTA_CombineModel_V2.c **** 
 3479              		.loc 1 1770 18 view .LVU1261
 3480 0af0 0123     		movs	r3, #1
 3481              	.L185:
 3482              	.LVL280:
1827:HANcoder_E407_TTA_CombineModel_V2.c **** 
 3483              		.loc 1 1827 5 is_stmt 1 view .LVU1262
1827:HANcoder_E407_TTA_CombineModel_V2.c **** 
 3484              		.loc 1 1827 43 is_stmt 0 view .LVU1263
 3485 0af2 AB70     		strb	r3, [r5, #2]
 3486 0af4 3DE0     		b	.L186
 3487              	.LVL281:
 3488              	.L247:
1827:HANcoder_E407_TTA_CombineModel_V2.c **** 
 3489              		.loc 1 1827 43 view .LVU1264
 3490 0af6 0123     		movs	r3, #1
 822:HANcoder_E407_TTA_CombineModel_V2.c **** 
 3491              		.loc 1 822 11 view .LVU1265
 3492 0af8 0493     		str	r3, [sp, #16]
 827:HANcoder_E407_TTA_CombineModel_V2.c **** 
 3493              		.loc 1 827 10 view .LVU1266
 3494 0afa 8AF82330 		strb	r3, [r10, #35]
 837:HANcoder_E407_TTA_CombineModel_V2.c ****     rtDWork.Messageselector_MODE = true;
 3495              		.loc 1 837 3 is_stmt 1 view .LVU1267
 837:HANcoder_E407_TTA_CombineModel_V2.c ****     rtDWork.Messageselector_MODE = true;
 3496              		.loc 1 837 7 is_stmt 0 view .LVU1268
 3497 0afe 464B     		ldr	r3, .L391+40
 837:HANcoder_E407_TTA_CombineModel_V2.c ****     rtDWork.Messageselector_MODE = true;
 3498              		.loc 1 837 6 view .LVU1269
 3499 0b00 1B78     		ldrb	r3, [r3]	@ zero_extendqisi2
 3500 0b02 002B     		cmp	r3, #0
 3501 0b04 7FF4CFAA 		bne	.L372
 3502              	.L111:
1830:HANcoder_E407_TTA_CombineModel_V2.c ****     /* Disable for Enabled SubSystem: '<S8>/MMBS1_RX' */
 3503              		.loc 1 1830 10 is_stmt 1 view .LVU1270
1830:HANcoder_E407_TTA_CombineModel_V2.c ****     /* Disable for Enabled SubSystem: '<S8>/MMBS1_RX' */
 3504              		.loc 1 1830 13 is_stmt 0 view .LVU1271
 3505 0b08 94F84820 		ldrb	r2, [r4, #72]	@ zero_extendqisi2
 3506 0b0c 82B3     		cbz	r2, .L356
1832:HANcoder_E407_TTA_CombineModel_V2.c ****       /* Constant: '<S8>/Constant12' */
 3507              		.loc 1 1832 5 is_stmt 1 view .LVU1272
1832:HANcoder_E407_TTA_CombineModel_V2.c ****       /* Constant: '<S8>/Constant12' */
 3508              		.loc 1 1832 8 is_stmt 0 view .LVU1273
 3509 0b0e 94F8C922 		ldrb	r2, [r4, #713]	@ zero_extendqisi2
 3510 0b12 0AB1     		cbz	r2, .L188
1834:HANcoder_E407_TTA_CombineModel_V2.c ****     }
 3511              		.loc 1 1834 7 is_stmt 1 view .LVU1274
 3512              	.LVL282:
 3513              	.LBB271:
 3514              	.LBI271:
 305:HANcoder_E407_TTA_CombineModel_V2.c **** {
 3515              		.loc 1 305 6 view .LVU1275
 3516              	.LBB272:
 307:HANcoder_E407_TTA_CombineModel_V2.c **** }
 3517              		.loc 1 307 3 view .LVU1276
 307:HANcoder_E407_TTA_CombineModel_V2.c **** }
 3518              		.loc 1 307 26 is_stmt 0 view .LVU1277
 3519 0b14 84F8C932 		strb	r3, [r4, #713]
 3520              	.LVL283:
 3521              	.L188:
 307:HANcoder_E407_TTA_CombineModel_V2.c **** }
 3522              		.loc 1 307 26 view .LVU1278
 3523              	.LBE272:
 3524              	.LBE271:
1842:HANcoder_E407_TTA_CombineModel_V2.c ****       /* Constant: '<S8>/Constant14' */
 3525              		.loc 1 1842 5 is_stmt 1 view .LVU1279
1842:HANcoder_E407_TTA_CombineModel_V2.c ****       /* Constant: '<S8>/Constant14' */
 3526              		.loc 1 1842 8 is_stmt 0 view .LVU1280
 3527 0b18 94F8C832 		ldrb	r3, [r4, #712]	@ zero_extendqisi2
 3528 0b1c 13B1     		cbz	r3, .L189
1844:HANcoder_E407_TTA_CombineModel_V2.c ****     }
 3529              		.loc 1 1844 7 is_stmt 1 view .LVU1281
 3530              	.LVL284:
 3531              	.LBB273:
 3532              	.LBI273:
 305:HANcoder_E407_TTA_CombineModel_V2.c **** {
 3533              		.loc 1 305 6 view .LVU1282
 3534              	.LBB274:
 307:HANcoder_E407_TTA_CombineModel_V2.c **** }
 3535              		.loc 1 307 3 view .LVU1283
 307:HANcoder_E407_TTA_CombineModel_V2.c **** }
 3536              		.loc 1 307 26 is_stmt 0 view .LVU1284
 3537 0b1e 0023     		movs	r3, #0
 3538 0b20 84F8C832 		strb	r3, [r4, #712]
 3539              	.LVL285:
 3540              	.L189:
 307:HANcoder_E407_TTA_CombineModel_V2.c **** }
 3541              		.loc 1 307 26 view .LVU1285
 3542              	.LBE274:
 3543              	.LBE273:
1852:HANcoder_E407_TTA_CombineModel_V2.c ****       rtDWork.SYNC1_RX_MODE = false;
 3544              		.loc 1 1852 5 is_stmt 1 view .LVU1286
1852:HANcoder_E407_TTA_CombineModel_V2.c ****       rtDWork.SYNC1_RX_MODE = false;
 3545              		.loc 1 1852 8 is_stmt 0 view .LVU1287
 3546 0b24 94F84C30 		ldrb	r3, [r4, #76]	@ zero_extendqisi2
 3547 0b28 13B1     		cbz	r3, .L190
1853:HANcoder_E407_TTA_CombineModel_V2.c ****     }
 3548              		.loc 1 1853 7 is_stmt 1 view .LVU1288
1853:HANcoder_E407_TTA_CombineModel_V2.c ****     }
 3549              		.loc 1 1853 29 is_stmt 0 view .LVU1289
 3550 0b2a 0023     		movs	r3, #0
 3551 0b2c 84F84C30 		strb	r3, [r4, #76]
 3552              	.L190:
1858:HANcoder_E407_TTA_CombineModel_V2.c ****       /* Constant: '<S8>/Constant5' */
 3553              		.loc 1 1858 5 is_stmt 1 view .LVU1290
1858:HANcoder_E407_TTA_CombineModel_V2.c ****       /* Constant: '<S8>/Constant5' */
 3554              		.loc 1 1858 8 is_stmt 0 view .LVU1291
 3555 0b30 94F84F30 		ldrb	r3, [r4, #79]	@ zero_extendqisi2
 3556 0b34 13B1     		cbz	r3, .L191
1860:HANcoder_E407_TTA_CombineModel_V2.c ****     }
 3557              		.loc 1 1860 7 is_stmt 1 view .LVU1292
 3558              	.LVL286:
 3559              	.LBB275:
 3560              	.LBI275:
 305:HANcoder_E407_TTA_CombineModel_V2.c **** {
 3561              		.loc 1 305 6 view .LVU1293
 3562              	.LBB276:
 307:HANcoder_E407_TTA_CombineModel_V2.c **** }
 3563              		.loc 1 307 3 view .LVU1294
 307:HANcoder_E407_TTA_CombineModel_V2.c **** }
 3564              		.loc 1 307 26 is_stmt 0 view .LVU1295
 3565 0b36 0023     		movs	r3, #0
 3566 0b38 84F84F30 		strb	r3, [r4, #79]
 3567              	.LVL287:
 3568              	.L191:
 307:HANcoder_E407_TTA_CombineModel_V2.c **** }
 3569              		.loc 1 307 26 view .LVU1296
 3570              	.LBE276:
 3571              	.LBE275:
1870:HANcoder_E407_TTA_CombineModel_V2.c ****       /* Constant: '<S8>/Constant3' */
 3572              		.loc 1 1870 5 is_stmt 1 view .LVU1297
1870:HANcoder_E407_TTA_CombineModel_V2.c ****       /* Constant: '<S8>/Constant3' */
 3573              		.loc 1 1870 8 is_stmt 0 view .LVU1298
 3574 0b3c 94F84E30 		ldrb	r3, [r4, #78]	@ zero_extendqisi2
 3575 0b40 13B1     		cbz	r3, .L192
1872:HANcoder_E407_TTA_CombineModel_V2.c ****     }
 3576              		.loc 1 1872 7 is_stmt 1 view .LVU1299
 3577              	.LVL288:
 3578              	.LBB277:
 3579              	.LBI277:
 305:HANcoder_E407_TTA_CombineModel_V2.c **** {
 3580              		.loc 1 305 6 view .LVU1300
 3581              	.LBB278:
 307:HANcoder_E407_TTA_CombineModel_V2.c **** }
 3582              		.loc 1 307 3 view .LVU1301
 307:HANcoder_E407_TTA_CombineModel_V2.c **** }
 3583              		.loc 1 307 26 is_stmt 0 view .LVU1302
 3584 0b42 0023     		movs	r3, #0
 3585 0b44 84F84E30 		strb	r3, [r4, #78]
 3586              	.LVL289:
 3587              	.L192:
 307:HANcoder_E407_TTA_CombineModel_V2.c **** }
 3588              		.loc 1 307 26 view .LVU1303
 3589              	.LBE278:
 3590              	.LBE277:
1880:HANcoder_E407_TTA_CombineModel_V2.c ****       rtDWork.TRCK_ID3_RX_MODE = false;
 3591              		.loc 1 1880 5 is_stmt 1 view .LVU1304
1880:HANcoder_E407_TTA_CombineModel_V2.c ****       rtDWork.TRCK_ID3_RX_MODE = false;
 3592              		.loc 1 1880 8 is_stmt 0 view .LVU1305
 3593 0b48 94F84B30 		ldrb	r3, [r4, #75]	@ zero_extendqisi2
 3594 0b4c 13B1     		cbz	r3, .L193
1881:HANcoder_E407_TTA_CombineModel_V2.c ****     }
 3595              		.loc 1 1881 7 is_stmt 1 view .LVU1306
1881:HANcoder_E407_TTA_CombineModel_V2.c ****     }
 3596              		.loc 1 1881 32 is_stmt 0 view .LVU1307
 3597 0b4e 0023     		movs	r3, #0
 3598 0b50 84F84B30 		strb	r3, [r4, #75]
 3599              	.L193:
1887:HANcoder_E407_TTA_CombineModel_V2.c ****       rtDWork.TRLS_ID4_RX_MODE = false;
 3600              		.loc 1 1887 5 is_stmt 1 view .LVU1308
1887:HANcoder_E407_TTA_CombineModel_V2.c ****       rtDWork.TRLS_ID4_RX_MODE = false;
 3601              		.loc 1 1887 8 is_stmt 0 view .LVU1309
 3602 0b54 94F84A30 		ldrb	r3, [r4, #74]	@ zero_extendqisi2
 3603 0b58 13B1     		cbz	r3, .L194
1888:HANcoder_E407_TTA_CombineModel_V2.c ****     }
 3604              		.loc 1 1888 7 is_stmt 1 view .LVU1310
1888:HANcoder_E407_TTA_CombineModel_V2.c ****     }
 3605              		.loc 1 1888 32 is_stmt 0 view .LVU1311
 3606 0b5a 0023     		movs	r3, #0
 3607 0b5c 84F84A30 		strb	r3, [r4, #74]
 3608              	.L194:
1893:HANcoder_E407_TTA_CombineModel_V2.c ****       rtDWork.TRLS_ID5_RX_MODE = false;
 3609              		.loc 1 1893 5 is_stmt 1 view .LVU1312
1893:HANcoder_E407_TTA_CombineModel_V2.c ****       rtDWork.TRLS_ID5_RX_MODE = false;
 3610              		.loc 1 1893 8 is_stmt 0 view .LVU1313
 3611 0b60 94F84930 		ldrb	r3, [r4, #73]	@ zero_extendqisi2
 3612 0b64 002B     		cmp	r3, #0
 3613 0b66 40F04481 		bne	.L373
 3614              	.L195:
1898:HANcoder_E407_TTA_CombineModel_V2.c ****   }
 3615              		.loc 1 1898 5 is_stmt 1 view .LVU1314
1898:HANcoder_E407_TTA_CombineModel_V2.c ****   }
 3616              		.loc 1 1898 34 is_stmt 0 view .LVU1315
 3617 0b6a 0023     		movs	r3, #0
 3618 0b6c 84F84830 		strb	r3, [r4, #72]
 3619              	.L356:
 3620 0b70 2A4D     		ldr	r5, .L391+44
 3621              	.LVL290:
 3622              	.L186:
1906:HANcoder_E407_TTA_CombineModel_V2.c ****     /* DataStoreWrite: '<S169>/Data Store Write1' incorporates:
 3623              		.loc 1 1906 3 is_stmt 1 view .LVU1316
1906:HANcoder_E407_TTA_CombineModel_V2.c ****     /* DataStoreWrite: '<S169>/Data Store Write1' incorporates:
 3624              		.loc 1 1906 6 is_stmt 0 view .LVU1317
 3625 0b72 049B     		ldr	r3, [sp, #16]
 3626 0b74 4BB1     		cbz	r3, .L197
1906:HANcoder_E407_TTA_CombineModel_V2.c ****     /* DataStoreWrite: '<S169>/Data Store Write1' incorporates:
 3627              		.loc 1 1906 15 discriminator 1 view .LVU1318
 3628 0b76 6B78     		ldrb	r3, [r5, #1]	@ zero_extendqisi2
 3629 0b78 012B     		cmp	r3, #1
 3630 0b7a 06D0     		beq	.L197
1910:HANcoder_E407_TTA_CombineModel_V2.c **** 
 3631              		.loc 1 1910 5 is_stmt 1 view .LVU1319
1915:HANcoder_E407_TTA_CombineModel_V2.c ****   }
 3632              		.loc 1 1915 22 is_stmt 0 view .LVU1320
 3633 0b7c 284B     		ldr	r3, .L391+48
 3634 0b7e 1B78     		ldrb	r3, [r3]	@ zero_extendqisi2
 3635 0b80 84F84130 		strb	r3, [r4, #65]
1910:HANcoder_E407_TTA_CombineModel_V2.c **** 
 3636              		.loc 1 1910 25 view .LVU1321
 3637 0b84 0023     		movs	r3, #0
 3638 0b86 84F83A30 		strb	r3, [r4, #58]
1915:HANcoder_E407_TTA_CombineModel_V2.c ****   }
 3639              		.loc 1 1915 5 is_stmt 1 view .LVU1322
 3640              	.L197:
1918:HANcoder_E407_TTA_CombineModel_V2.c **** 
 3641              		.loc 1 1918 3 view .LVU1323
1918:HANcoder_E407_TTA_CombineModel_V2.c **** 
 3642              		.loc 1 1918 39 is_stmt 0 view .LVU1324
 3643 0b8a 049B     		ldr	r3, [sp, #16]
 3644 0b8c 6B70     		strb	r3, [r5, #1]
 3645              		.loc 1 1932 3 is_stmt 1 view .LVU1325
 3646              		.loc 1 1932 25 is_stmt 0 view .LVU1326
 3647 0b8e 0598     		ldr	r0, [sp, #20]
 3648 0b90 FFF7FEFF 		bl	__aeabi_i2d
 3649              	.LVL291:
 3650              		.loc 1 1932 6 view .LVU1327
 3651 0b94 3246     		mov	r2, r6
 3652 0b96 3B46     		mov	r3, r7
 3653 0b98 FFF7FEFF 		bl	__aeabi_dcmpeq
 3654              	.LVL292:
 3655 0b9c 20B9     		cbnz	r0, .L198
 3656              		.loc 1 1932 39 discriminator 1 view .LVU1328
 3657 0b9e 94F84220 		ldrb	r2, [r4, #66]	@ zero_extendqisi2
 3658 0ba2 002A     		cmp	r2, #0
 3659 0ba4 00F09381 		beq	.L374
 3660              	.L198:
1933:HANcoder_E407_TTA_CombineModel_V2.c ****     rtDWork.Subsystem2_MODE = true;
1934:HANcoder_E407_TTA_CombineModel_V2.c **** 
1935:HANcoder_E407_TTA_CombineModel_V2.c ****     /* M-S-Function: '<S171>/S-Function' incorporates:
1936:HANcoder_E407_TTA_CombineModel_V2.c ****      *  Constant: '<S170>/Constant10'
1937:HANcoder_E407_TTA_CombineModel_V2.c ****      */
1938:HANcoder_E407_TTA_CombineModel_V2.c **** 
1939:HANcoder_E407_TTA_CombineModel_V2.c ****     /* read the message data and store the new parameter */
1940:HANcoder_E407_TTA_CombineModel_V2.c ****     rtb_SFunction_o1 = CanIoGetMessage(0, SYNC1_ID, NULL,
1941:HANcoder_E407_TTA_CombineModel_V2.c ****       &canRxData_0_SYNC1_ID.uint8_T_info[0], NULL);
1942:HANcoder_E407_TTA_CombineModel_V2.c **** 
1943:HANcoder_E407_TTA_CombineModel_V2.c ****     /* process the message data */
1944:HANcoder_E407_TTA_CombineModel_V2.c ****     if (rtb_SFunction_o1 > 0) {
1945:HANcoder_E407_TTA_CombineModel_V2.c ****       /* read the data */
1946:HANcoder_E407_TTA_CombineModel_V2.c ****       rtb_SFunction_o2 = canRxData_0_SYNC1_ID.uint8_T_info[0];
1947:HANcoder_E407_TTA_CombineModel_V2.c ****       rtb_SFunction_o3 = canRxData_0_SYNC1_ID.uint8_T_info[1];
1948:HANcoder_E407_TTA_CombineModel_V2.c ****       rtb_SFunction_o4 = canRxData_0_SYNC1_ID.uint8_T_info[2];
1949:HANcoder_E407_TTA_CombineModel_V2.c ****       rtb_SFunction_o5 = canRxData_0_SYNC1_ID.uint8_T_info[3];
1950:HANcoder_E407_TTA_CombineModel_V2.c ****       rtb_SFunction_o6 = canRxData_0_SYNC1_ID.uint8_T_info[4];
1951:HANcoder_E407_TTA_CombineModel_V2.c ****       rtb_SFunction_o7 = canRxData_0_SYNC1_ID.uint8_T_info[5];
1952:HANcoder_E407_TTA_CombineModel_V2.c ****       rtb_SFunction_o8 = canRxData_0_SYNC1_ID.uint8_T_info[6];
1953:HANcoder_E407_TTA_CombineModel_V2.c ****       rtb_SFunction_o9 = canRxData_0_SYNC1_ID.uint8_T_info[7];
1954:HANcoder_E407_TTA_CombineModel_V2.c ****     }
1955:HANcoder_E407_TTA_CombineModel_V2.c **** 
1956:HANcoder_E407_TTA_CombineModel_V2.c ****     /* Outputs for Enabled SubSystem: '<S171>/Enabled Subsystem' */
1957:HANcoder_E407_TTA_CombineModel_V2.c ****     EnabledSubsystem(rtb_SFunction_o1, rtb_SFunction_o2, &rtB.EnabledSubsystem_i);
1958:HANcoder_E407_TTA_CombineModel_V2.c **** 
1959:HANcoder_E407_TTA_CombineModel_V2.c ****     /* End of Outputs for SubSystem: '<S171>/Enabled Subsystem' */
1960:HANcoder_E407_TTA_CombineModel_V2.c **** 
1961:HANcoder_E407_TTA_CombineModel_V2.c ****     /* Outputs for Triggered SubSystem: '<S170>/Subsystem1' incorporates:
1962:HANcoder_E407_TTA_CombineModel_V2.c ****      *  TriggerPort: '<S172>/Trigger'
1963:HANcoder_E407_TTA_CombineModel_V2.c ****      */
1964:HANcoder_E407_TTA_CombineModel_V2.c ****     zcEvent = rt_I32ZCFcn(RISING_ZERO_CROSSING,
1965:HANcoder_E407_TTA_CombineModel_V2.c ****                           &rtPrevZCSigState.Subsystem1_Trig_ZCE,
1966:HANcoder_E407_TTA_CombineModel_V2.c ****                           (rtb_SFunction_o1));
1967:HANcoder_E407_TTA_CombineModel_V2.c ****     if (zcEvent != NO_ZCEVENT) {
1968:HANcoder_E407_TTA_CombineModel_V2.c ****       /* DataStoreWrite: '<S172>/Data Store Write' */
1969:HANcoder_E407_TTA_CombineModel_V2.c ****       rtDWork.SlotTime = rtB.EnabledSubsystem_i.In1;
1970:HANcoder_E407_TTA_CombineModel_V2.c **** 
1971:HANcoder_E407_TTA_CombineModel_V2.c ****       /* DataStoreWrite: '<S172>/Data Store Write1' incorporates:
1972:HANcoder_E407_TTA_CombineModel_V2.c ****        *  Constant: '<S172>/Constant'
1973:HANcoder_E407_TTA_CombineModel_V2.c ****        */
1974:HANcoder_E407_TTA_CombineModel_V2.c ****       rtDWork.Local_Ticks = ((uint8_T)0U);
1975:HANcoder_E407_TTA_CombineModel_V2.c **** 
1976:HANcoder_E407_TTA_CombineModel_V2.c ****       /* DataStoreWrite: '<S172>/Data Store Write2' incorporates:
1977:HANcoder_E407_TTA_CombineModel_V2.c ****        *  Constant: '<S172>/Constant1'
1978:HANcoder_E407_TTA_CombineModel_V2.c ****        */
1979:HANcoder_E407_TTA_CombineModel_V2.c ****       rtDWork.slaveClockOn = true;
1980:HANcoder_E407_TTA_CombineModel_V2.c **** 
1981:HANcoder_E407_TTA_CombineModel_V2.c ****       /* DataStoreWrite: '<S172>/Data Store Write3' incorporates:
1982:HANcoder_E407_TTA_CombineModel_V2.c ****        *  Constant: '<S172>/Constant2'
1983:HANcoder_E407_TTA_CombineModel_V2.c ****        */
1984:HANcoder_E407_TTA_CombineModel_V2.c ****       rtDWork.slot = ((uint8_T)1U);
1985:HANcoder_E407_TTA_CombineModel_V2.c ****     }
1986:HANcoder_E407_TTA_CombineModel_V2.c **** 
1987:HANcoder_E407_TTA_CombineModel_V2.c ****     /* End of Outputs for SubSystem: '<S170>/Subsystem1' */
1988:HANcoder_E407_TTA_CombineModel_V2.c ****   } else if (rtDWork.Subsystem2_MODE) {
 3661              		.loc 1 1988 10 is_stmt 1 view .LVU1329
 3662              		.loc 1 1988 13 is_stmt 0 view .LVU1330
 3663 0ba8 94F84730 		ldrb	r3, [r4, #71]	@ zero_extendqisi2
 3664 0bac 13B1     		cbz	r3, .L202
1989:HANcoder_E407_TTA_CombineModel_V2.c ****     rtDWork.Subsystem2_MODE = false;
 3665              		.loc 1 1989 5 is_stmt 1 view .LVU1331
 3666              		.loc 1 1989 29 is_stmt 0 view .LVU1332
 3667 0bae 0023     		movs	r3, #0
 3668 0bb0 84F84730 		strb	r3, [r4, #71]
 3669              	.L202:
1990:HANcoder_E407_TTA_CombineModel_V2.c ****   }
1991:HANcoder_E407_TTA_CombineModel_V2.c **** 
1992:HANcoder_E407_TTA_CombineModel_V2.c ****   /* End of Logic: '<S10>/AND1' */
1993:HANcoder_E407_TTA_CombineModel_V2.c ****   /* End of Outputs for SubSystem: '<S10>/Subsystem2' */
1994:HANcoder_E407_TTA_CombineModel_V2.c **** 
1995:HANcoder_E407_TTA_CombineModel_V2.c ****   /* If: '<S1>/If' incorporates:
1996:HANcoder_E407_TTA_CombineModel_V2.c ****    *  DataStoreRead: '<S1>/Data Store Read38'
1997:HANcoder_E407_TTA_CombineModel_V2.c ****    */
1998:HANcoder_E407_TTA_CombineModel_V2.c ****   rtPrevAction = rtDWork.If_ActiveSubsystem;
 3670              		.loc 1 1998 3 is_stmt 1 view .LVU1333
 3671              	.LVL293:
1999:HANcoder_E407_TTA_CombineModel_V2.c ****   rtAction = -1;
 3672              		.loc 1 1999 3 view .LVU1334
2000:HANcoder_E407_TTA_CombineModel_V2.c ****   if (rtDWork.Board_ID <= 3.0) {
 3673              		.loc 1 2000 3 view .LVU1335
 3674              		.loc 1 2000 6 is_stmt 0 view .LVU1336
 3675 0bb4 124B     		ldr	r3, .L391+16
 3676 0bb6 3046     		mov	r0, r6
 3677 0bb8 3946     		mov	r1, r7
 3678 0bba 0022     		movs	r2, #0
 3679 0bbc FFF7FEFF 		bl	__aeabi_dcmple
 3680              	.LVL294:
 3681              		.loc 1 2000 6 view .LVU1337
 3682 0bc0 0028     		cmp	r0, #0
 3683 0bc2 67D1     		bne	.L375
2001:HANcoder_E407_TTA_CombineModel_V2.c ****     rtAction = 0;
2002:HANcoder_E407_TTA_CombineModel_V2.c ****   }
2003:HANcoder_E407_TTA_CombineModel_V2.c **** 
2004:HANcoder_E407_TTA_CombineModel_V2.c ****   rtDWork.If_ActiveSubsystem = rtAction;
 3684              		.loc 1 2004 3 is_stmt 1 view .LVU1338
 3685              		.loc 1 2004 30 is_stmt 0 view .LVU1339
 3686 0bc4 FF23     		movs	r3, #255
 3687 0bc6 84F83930 		strb	r3, [r4, #57]
2005:HANcoder_E407_TTA_CombineModel_V2.c ****   if ((rtPrevAction != rtAction) && (rtPrevAction == 0)) {
 3688              		.loc 1 2005 3 is_stmt 1 view .LVU1340
2006:HANcoder_E407_TTA_CombineModel_V2.c ****   }
 3689              		.loc 1 2006 3 view .LVU1341
2007:HANcoder_E407_TTA_CombineModel_V2.c **** 
2008:HANcoder_E407_TTA_CombineModel_V2.c ****   if (rtAction == 0) {
 3690              		.loc 1 2008 3 view .LVU1342
 3691              	.LVL295:
 3692              	.L209:
2009:HANcoder_E407_TTA_CombineModel_V2.c ****     /* Outputs for IfAction SubSystem: '<S1>/Triggered Subsystem' incorporates:
2010:HANcoder_E407_TTA_CombineModel_V2.c ****      *  ActionPort: '<S13>/Action Port'
2011:HANcoder_E407_TTA_CombineModel_V2.c ****      */
2012:HANcoder_E407_TTA_CombineModel_V2.c ****     /* Saturate: '<S13>/Saturation' */
2013:HANcoder_E407_TTA_CombineModel_V2.c ****     u1 = ((uint8_T)1U);
2014:HANcoder_E407_TTA_CombineModel_V2.c **** 
2015:HANcoder_E407_TTA_CombineModel_V2.c ****     /* Saturate: '<S13>/Saturation1' */
2016:HANcoder_E407_TTA_CombineModel_V2.c ****     u1_0 = ((uint8_T)1U);
2017:HANcoder_E407_TTA_CombineModel_V2.c **** 
2018:HANcoder_E407_TTA_CombineModel_V2.c ****     /* Saturate: '<S13>/Saturation' incorporates:
2019:HANcoder_E407_TTA_CombineModel_V2.c ****      *  DataStoreRead: '<S13>/Data Store Read46'
2020:HANcoder_E407_TTA_CombineModel_V2.c ****      */
2021:HANcoder_E407_TTA_CombineModel_V2.c ****     if (rtDWork.PositionID4 <= u1) {
2022:HANcoder_E407_TTA_CombineModel_V2.c ****       u1 = rtDWork.PositionID4;
2023:HANcoder_E407_TTA_CombineModel_V2.c ****     }
2024:HANcoder_E407_TTA_CombineModel_V2.c **** 
2025:HANcoder_E407_TTA_CombineModel_V2.c ****     /* Saturate: '<S13>/Saturation1' incorporates:
2026:HANcoder_E407_TTA_CombineModel_V2.c ****      *  DataStoreRead: '<S13>/Data Store Read45'
2027:HANcoder_E407_TTA_CombineModel_V2.c ****      */
2028:HANcoder_E407_TTA_CombineModel_V2.c ****     if (rtDWork.PositionID5 <= u1_0) {
2029:HANcoder_E407_TTA_CombineModel_V2.c ****       u1_0 = rtDWork.PositionID5;
2030:HANcoder_E407_TTA_CombineModel_V2.c ****     }
2031:HANcoder_E407_TTA_CombineModel_V2.c **** 
2032:HANcoder_E407_TTA_CombineModel_V2.c ****     /* Sum: '<S13>/Add' incorporates:
2033:HANcoder_E407_TTA_CombineModel_V2.c ****      *  Saturate: '<S13>/Saturation'
2034:HANcoder_E407_TTA_CombineModel_V2.c ****      *  Saturate: '<S13>/Saturation1'
2035:HANcoder_E407_TTA_CombineModel_V2.c ****      */
2036:HANcoder_E407_TTA_CombineModel_V2.c ****     amounttrailers = (uint8_T)((uint32_T)u1 + u1_0);
2037:HANcoder_E407_TTA_CombineModel_V2.c **** 
2038:HANcoder_E407_TTA_CombineModel_V2.c ****     /* M-S-Function: '<S180>/Level-2 M-file S-Function' */
2039:HANcoder_E407_TTA_CombineModel_V2.c ****     /* read from digital input */
2040:HANcoder_E407_TTA_CombineModel_V2.c ****     rtb_Level2MfileSFunction_d = DiginGet(DIGIN_PORTA_PIN0);
2041:HANcoder_E407_TTA_CombineModel_V2.c **** 
2042:HANcoder_E407_TTA_CombineModel_V2.c ****     /* Outputs for Enabled SubSystem: '<S13>/Subsystem' incorporates:
2043:HANcoder_E407_TTA_CombineModel_V2.c ****      *  EnablePort: '<S181>/Enable'
2044:HANcoder_E407_TTA_CombineModel_V2.c ****      */
2045:HANcoder_E407_TTA_CombineModel_V2.c ****     if (rtb_Level2MfileSFunction_d) {
2046:HANcoder_E407_TTA_CombineModel_V2.c ****       /* CombinatorialLogic: '<S187>/Logic' incorporates:
2047:HANcoder_E407_TTA_CombineModel_V2.c ****        *  Constant: '<S181>/Constant'
2048:HANcoder_E407_TTA_CombineModel_V2.c ****        *  DataStoreRead: '<S13>/Data Store Read1'
2049:HANcoder_E407_TTA_CombineModel_V2.c ****        *  DataTypeConversion: '<S13>/Cast'
2050:HANcoder_E407_TTA_CombineModel_V2.c ****        *  DataTypeConversion: '<S181>/Cast2'
2051:HANcoder_E407_TTA_CombineModel_V2.c ****        *  Memory: '<S187>/Memory'
2052:HANcoder_E407_TTA_CombineModel_V2.c ****        */
2053:HANcoder_E407_TTA_CombineModel_V2.c ****       Master_ID = rtConstP.pooled17[((((uint32_T)(rtDWork.trailer2buttonPress !=
2054:HANcoder_E407_TTA_CombineModel_V2.c ****         0) << 1) + (uint32_T)(ResetPosition != 0.0)) << 1) +
2055:HANcoder_E407_TTA_CombineModel_V2.c ****         rtDWork.Memory_PreviousInput];
2056:HANcoder_E407_TTA_CombineModel_V2.c **** 
2057:HANcoder_E407_TTA_CombineModel_V2.c ****       /* If: '<S181>/If1' incorporates:
2058:HANcoder_E407_TTA_CombineModel_V2.c ****        *  DataStoreRead: '<S181>/Data Store Read3'
2059:HANcoder_E407_TTA_CombineModel_V2.c ****        */
2060:HANcoder_E407_TTA_CombineModel_V2.c ****       if (rtDWork.PositionID4 == 1) {
2061:HANcoder_E407_TTA_CombineModel_V2.c ****         /* Outputs for IfAction SubSystem: '<S181>/If Action Subsystem' incorporates:
2062:HANcoder_E407_TTA_CombineModel_V2.c ****          *  ActionPort: '<S182>/Action Port'
2063:HANcoder_E407_TTA_CombineModel_V2.c ****          */
2064:HANcoder_E407_TTA_CombineModel_V2.c ****         /* Gain: '<S182>/Gain' */
2065:HANcoder_E407_TTA_CombineModel_V2.c ****         rtB.Gain_n = (uint8_T)(Master_ID ? (int32_T)((uint8_T)128U) : 0);
2066:HANcoder_E407_TTA_CombineModel_V2.c **** 
2067:HANcoder_E407_TTA_CombineModel_V2.c ****         /* End of Outputs for SubSystem: '<S181>/If Action Subsystem' */
2068:HANcoder_E407_TTA_CombineModel_V2.c ****       } else {
2069:HANcoder_E407_TTA_CombineModel_V2.c ****         /* Outputs for IfAction SubSystem: '<S181>/If Action Subsystem1' incorporates:
2070:HANcoder_E407_TTA_CombineModel_V2.c ****          *  ActionPort: '<S183>/Action Port'
2071:HANcoder_E407_TTA_CombineModel_V2.c ****          */
2072:HANcoder_E407_TTA_CombineModel_V2.c ****         /* Gain: '<S183>/Gain' */
2073:HANcoder_E407_TTA_CombineModel_V2.c ****         rtB.Gain = (uint8_T)(Master_ID ? (int32_T)((uint8_T)128U) : 0);
2074:HANcoder_E407_TTA_CombineModel_V2.c **** 
2075:HANcoder_E407_TTA_CombineModel_V2.c ****         /* End of Outputs for SubSystem: '<S181>/If Action Subsystem1' */
2076:HANcoder_E407_TTA_CombineModel_V2.c ****       }
2077:HANcoder_E407_TTA_CombineModel_V2.c **** 
2078:HANcoder_E407_TTA_CombineModel_V2.c ****       /* End of If: '<S181>/If1' */
2079:HANcoder_E407_TTA_CombineModel_V2.c **** 
2080:HANcoder_E407_TTA_CombineModel_V2.c ****       /* Sum: '<S181>/Add1' incorporates:
2081:HANcoder_E407_TTA_CombineModel_V2.c ****        *  Gain: '<S182>/Gain'
2082:HANcoder_E407_TTA_CombineModel_V2.c ****        *  Gain: '<S183>/Gain'
2083:HANcoder_E407_TTA_CombineModel_V2.c ****        */
2084:HANcoder_E407_TTA_CombineModel_V2.c ****       rtB.Add1 = (uint8_T)((((uint32_T)rtB.Gain_n << 1) + rtB.Gain) >> 1);
2085:HANcoder_E407_TTA_CombineModel_V2.c **** 
2086:HANcoder_E407_TTA_CombineModel_V2.c ****       /* CombinatorialLogic: '<S186>/Logic' incorporates:
2087:HANcoder_E407_TTA_CombineModel_V2.c ****        *  Constant: '<S181>/Constant'
2088:HANcoder_E407_TTA_CombineModel_V2.c ****        *  DataStoreRead: '<S13>/Data Store Read'
2089:HANcoder_E407_TTA_CombineModel_V2.c ****        *  DataTypeConversion: '<S13>/Cast1'
2090:HANcoder_E407_TTA_CombineModel_V2.c ****        *  DataTypeConversion: '<S181>/Cast2'
2091:HANcoder_E407_TTA_CombineModel_V2.c ****        *  Memory: '<S186>/Memory'
2092:HANcoder_E407_TTA_CombineModel_V2.c ****        */
2093:HANcoder_E407_TTA_CombineModel_V2.c ****       rtb_AND = rtConstP.pooled17[((((uint32_T)(rtDWork.trailer1buttonPress != 0)
2094:HANcoder_E407_TTA_CombineModel_V2.c ****         << 1) + (uint32_T)(ResetPosition != 0.0)) << 1) +
2095:HANcoder_E407_TTA_CombineModel_V2.c ****         rtDWork.Memory_PreviousInput_a];
2096:HANcoder_E407_TTA_CombineModel_V2.c **** 
2097:HANcoder_E407_TTA_CombineModel_V2.c ****       /* If: '<S181>/If' incorporates:
2098:HANcoder_E407_TTA_CombineModel_V2.c ****        *  DataStoreRead: '<S181>/Data Store Read2'
2099:HANcoder_E407_TTA_CombineModel_V2.c ****        */
2100:HANcoder_E407_TTA_CombineModel_V2.c ****       if (rtDWork.PositionID5 == 1) {
2101:HANcoder_E407_TTA_CombineModel_V2.c ****         /* Outputs for IfAction SubSystem: '<S181>/If Action Subsystem2' incorporates:
2102:HANcoder_E407_TTA_CombineModel_V2.c ****          *  ActionPort: '<S184>/Action Port'
2103:HANcoder_E407_TTA_CombineModel_V2.c ****          */
2104:HANcoder_E407_TTA_CombineModel_V2.c ****         /* Gain: '<S184>/Gain' */
2105:HANcoder_E407_TTA_CombineModel_V2.c ****         rtB.Gain_m = (uint8_T)(rtb_AND ? (int32_T)((uint8_T)128U) : 0);
2106:HANcoder_E407_TTA_CombineModel_V2.c **** 
2107:HANcoder_E407_TTA_CombineModel_V2.c ****         /* End of Outputs for SubSystem: '<S181>/If Action Subsystem2' */
2108:HANcoder_E407_TTA_CombineModel_V2.c ****       } else {
2109:HANcoder_E407_TTA_CombineModel_V2.c ****         /* Outputs for IfAction SubSystem: '<S181>/If Action Subsystem3' incorporates:
2110:HANcoder_E407_TTA_CombineModel_V2.c ****          *  ActionPort: '<S185>/Action Port'
2111:HANcoder_E407_TTA_CombineModel_V2.c ****          */
2112:HANcoder_E407_TTA_CombineModel_V2.c ****         /* Gain: '<S185>/Gain' */
2113:HANcoder_E407_TTA_CombineModel_V2.c ****         rtB.Gain_k = (uint8_T)(rtb_AND ? (int32_T)((uint8_T)128U) : 0);
2114:HANcoder_E407_TTA_CombineModel_V2.c **** 
2115:HANcoder_E407_TTA_CombineModel_V2.c ****         /* End of Outputs for SubSystem: '<S181>/If Action Subsystem3' */
2116:HANcoder_E407_TTA_CombineModel_V2.c ****       }
2117:HANcoder_E407_TTA_CombineModel_V2.c **** 
2118:HANcoder_E407_TTA_CombineModel_V2.c ****       /* End of If: '<S181>/If' */
2119:HANcoder_E407_TTA_CombineModel_V2.c **** 
2120:HANcoder_E407_TTA_CombineModel_V2.c ****       /* Sum: '<S181>/Add2' incorporates:
2121:HANcoder_E407_TTA_CombineModel_V2.c ****        *  Gain: '<S184>/Gain'
2122:HANcoder_E407_TTA_CombineModel_V2.c ****        *  Gain: '<S185>/Gain'
2123:HANcoder_E407_TTA_CombineModel_V2.c ****        */
2124:HANcoder_E407_TTA_CombineModel_V2.c ****       rtB.Add2 = (uint8_T)((((uint32_T)rtB.Gain_m << 1) + rtB.Gain_k) >> 1);
2125:HANcoder_E407_TTA_CombineModel_V2.c **** 
2126:HANcoder_E407_TTA_CombineModel_V2.c ****       /* Update for Memory: '<S187>/Memory' */
2127:HANcoder_E407_TTA_CombineModel_V2.c ****       rtDWork.Memory_PreviousInput = Master_ID;
2128:HANcoder_E407_TTA_CombineModel_V2.c **** 
2129:HANcoder_E407_TTA_CombineModel_V2.c ****       /* Update for Memory: '<S186>/Memory' */
2130:HANcoder_E407_TTA_CombineModel_V2.c ****       rtDWork.Memory_PreviousInput_a = rtb_AND;
2131:HANcoder_E407_TTA_CombineModel_V2.c ****     }
2132:HANcoder_E407_TTA_CombineModel_V2.c **** 
2133:HANcoder_E407_TTA_CombineModel_V2.c ****     /* End of Outputs for SubSystem: '<S13>/Subsystem' */
2134:HANcoder_E407_TTA_CombineModel_V2.c **** 
2135:HANcoder_E407_TTA_CombineModel_V2.c ****     /* DataTypeConversion: '<S13>/Cast3' incorporates:
2136:HANcoder_E407_TTA_CombineModel_V2.c ****      *  Sum: '<S181>/Add1'
2137:HANcoder_E407_TTA_CombineModel_V2.c ****      */
2138:HANcoder_E407_TTA_CombineModel_V2.c ****     positionID5 = (uint8_T)((uint32_T)rtB.Add1 >> 6);
2139:HANcoder_E407_TTA_CombineModel_V2.c **** 
2140:HANcoder_E407_TTA_CombineModel_V2.c ****     /* DataStoreWrite: '<S13>/Data Store Write12' */
2141:HANcoder_E407_TTA_CombineModel_V2.c ****     rtDWork.PositionID5 = positionID5;
2142:HANcoder_E407_TTA_CombineModel_V2.c **** 
2143:HANcoder_E407_TTA_CombineModel_V2.c ****     /* DataTypeConversion: '<S13>/Cast2' incorporates:
2144:HANcoder_E407_TTA_CombineModel_V2.c ****      *  Sum: '<S181>/Add2'
2145:HANcoder_E407_TTA_CombineModel_V2.c ****      */
2146:HANcoder_E407_TTA_CombineModel_V2.c ****     positionID4 = (uint8_T)((uint32_T)rtB.Add2 >> 6);
2147:HANcoder_E407_TTA_CombineModel_V2.c **** 
2148:HANcoder_E407_TTA_CombineModel_V2.c ****     /* DataStoreWrite: '<S13>/Data Store Write6' */
2149:HANcoder_E407_TTA_CombineModel_V2.c ****     rtDWork.PositionID4 = positionID4;
2150:HANcoder_E407_TTA_CombineModel_V2.c **** 
2151:HANcoder_E407_TTA_CombineModel_V2.c ****     /* End of Outputs for SubSystem: '<S1>/Triggered Subsystem' */
2152:HANcoder_E407_TTA_CombineModel_V2.c ****   }
2153:HANcoder_E407_TTA_CombineModel_V2.c **** 
2154:HANcoder_E407_TTA_CombineModel_V2.c ****   /* End of If: '<S1>/If' */
2155:HANcoder_E407_TTA_CombineModel_V2.c ****   /* M-S-Function: '<S177>/Level-2 M-file S-Function' */
2156:HANcoder_E407_TTA_CombineModel_V2.c ****   /* read the current CPU load */
2157:HANcoder_E407_TTA_CombineModel_V2.c ****   SI_CPUload = OsGetCpuLoad();
 3693              		.loc 1 2157 3 view .LVU1343
 3694              		.loc 1 2157 16 is_stmt 0 view .LVU1344
 3695 0bca FFF7FEFF 		bl	OsGetCpuLoad
 3696              	.LVL296:
 3697              		.loc 1 2157 14 view .LVU1345
 3698 0bce 154B     		ldr	r3, .L391+52
 3699 0bd0 1870     		strb	r0, [r3]
2158:HANcoder_E407_TTA_CombineModel_V2.c **** 
2159:HANcoder_E407_TTA_CombineModel_V2.c ****   /* M-S-Function: '<S178>/Level-2 M-file S-Function' */
2160:HANcoder_E407_TTA_CombineModel_V2.c ****   /* read the free heap size */
2161:HANcoder_E407_TTA_CombineModel_V2.c ****   SI_FreeHeap = OsGetFreeHeapSize();
 3700              		.loc 1 2161 3 is_stmt 1 view .LVU1346
 3701              		.loc 1 2161 17 is_stmt 0 view .LVU1347
 3702 0bd2 FFF7FEFF 		bl	OsGetFreeHeapSize
 3703              	.LVL297:
 3704              		.loc 1 2161 15 view .LVU1348
 3705 0bd6 144B     		ldr	r3, .L391+56
 3706              		.loc 1 2161 17 view .LVU1349
 3707 0bd8 0246     		mov	r2, r0
2162:HANcoder_E407_TTA_CombineModel_V2.c **** 
2163:HANcoder_E407_TTA_CombineModel_V2.c ****   /* M-S-Function: '<S179>/Level-2 M-file S-Function' */
2164:HANcoder_E407_TTA_CombineModel_V2.c ****   /* read the task's free stack size */
2165:HANcoder_E407_TTA_CombineModel_V2.c ****   SI_FreeStack = OsGetTaskFreeStackSize("AppCtrlTask");
 3708              		.loc 1 2165 18 view .LVU1350
 3709 0bda 1448     		ldr	r0, .L391+60
2161:HANcoder_E407_TTA_CombineModel_V2.c **** 
 3710              		.loc 1 2161 15 view .LVU1351
 3711 0bdc 1A60     		str	r2, [r3]
 3712              		.loc 1 2165 3 is_stmt 1 view .LVU1352
 3713              		.loc 1 2165 18 is_stmt 0 view .LVU1353
 3714 0bde FFF7FEFF 		bl	OsGetTaskFreeStackSize
 3715              	.LVL298:
 3716              		.loc 1 2165 16 view .LVU1354
 3717 0be2 134B     		ldr	r3, .L391+64
 3718 0be4 1860     		str	r0, [r3]
2166:HANcoder_E407_TTA_CombineModel_V2.c **** }
 3719              		.loc 1 2166 1 view .LVU1355
 3720 0be6 11B0     		add	sp, sp, #68
 3721              		.cfi_remember_state
 3722              		.cfi_def_cfa_offset 44
 3723              		@ sp needed
 3724 0be8 BDEC028B 		vldm	sp!, {d8}
 3725              		.cfi_restore 80
 3726              		.cfi_restore 81
 3727              		.cfi_def_cfa_offset 36
 3728 0bec BDE8F08F 		pop	{r4, r5, r6, r7, r8, r9, r10, fp, pc}
 3729              	.L392:
 3730              		.align	2
 3731              	.L391:
 3732 0bf0 0000F03F 		.word	1072693248
 3733 0bf4 2C000000 		.word	rtDWork+44
 3734 0bf8 04000000 		.word	rtPrevZCSigState+4
 3735 0bfc 38000000 		.word	rtB+56
 3736 0c00 00000840 		.word	1074266112
 3737 0c04 00001040 		.word	1074790400
 3738 0c08 00000000 		.word	canTxData
 3739 0c0c 00000000 		.word	TRLS1_ID4
 3740 0c10 00001440 		.word	1075052544
 3741 0c14 00000000 		.word	TRLS1_ID5
 3742 0c18 00000000 		.word	canActive
 3743 0c1c 00000000 		.word	rtPrevZCSigState
 3744 0c20 00000000 		.word	slotTime
 3745 0c24 00000000 		.word	SI_CPUload
 3746 0c28 00000000 		.word	SI_FreeHeap
 3747 0c2c 00000000 		.word	.LC0
 3748 0c30 00000000 		.word	SI_FreeStack
 3749 0c34 00000000 		.word	TRCK1_ID1
 3750              	.LVL299:
 3751              	.L102:
 3752              		.cfi_restore_state
 759:HANcoder_E407_TTA_CombineModel_V2.c ****   }
 3753              		.loc 1 759 5 is_stmt 1 view .LVU1356
 762:HANcoder_E407_TTA_CombineModel_V2.c ****   if ((rtPrevAction != rtAction) && (rtPrevAction == 0)) {
 3754              		.loc 1 762 3 view .LVU1357
 762:HANcoder_E407_TTA_CombineModel_V2.c ****   if ((rtPrevAction != rtAction) && (rtPrevAction == 0)) {
 3755              		.loc 1 762 31 is_stmt 0 view .LVU1358
 3756 0c38 0023     		movs	r3, #0
 772:HANcoder_E407_TTA_CombineModel_V2.c **** 
 3757              		.loc 1 772 34 view .LVU1359
 3758 0c3a 0E20     		movs	r0, #14
 762:HANcoder_E407_TTA_CombineModel_V2.c ****   if ((rtPrevAction != rtAction) && (rtPrevAction == 0)) {
 3759              		.loc 1 762 31 view .LVU1360
 3760 0c3c 84F83830 		strb	r3, [r4, #56]
 763:HANcoder_E407_TTA_CombineModel_V2.c ****   }
 3761              		.loc 1 763 3 is_stmt 1 view .LVU1361
 764:HANcoder_E407_TTA_CombineModel_V2.c **** 
 3762              		.loc 1 764 3 view .LVU1362
 766:HANcoder_E407_TTA_CombineModel_V2.c ****     /* Outputs for IfAction SubSystem: '<S1>/Setting ID' incorporates:
 3763              		.loc 1 766 3 view .LVU1363
 772:HANcoder_E407_TTA_CombineModel_V2.c **** 
 3764              		.loc 1 772 5 view .LVU1364
 772:HANcoder_E407_TTA_CombineModel_V2.c **** 
 3765              		.loc 1 772 34 is_stmt 0 view .LVU1365
 3766 0c40 FFF7FEFF 		bl	DiginGet
 3767              	.LVL300:
 777:HANcoder_E407_TTA_CombineModel_V2.c **** 
 3768              		.loc 1 777 5 is_stmt 1 view .LVU1366
 777:HANcoder_E407_TTA_CombineModel_V2.c **** 
 3769              		.loc 1 777 53 is_stmt 0 view .LVU1367
 3770 0c44 0026     		movs	r6, #0
 3771 0c46 0028     		cmp	r0, #0
 3772 0c48 40F0A380 		bne	.L376
 781:HANcoder_E407_TTA_CombineModel_V2.c **** 
 3773              		.loc 1 781 34 view .LVU1368
 3774 0c4c 0F20     		movs	r0, #15
 3775              	.LVL301:
 781:HANcoder_E407_TTA_CombineModel_V2.c **** 
 3776              		.loc 1 781 34 view .LVU1369
 3777 0c4e FFF7FEFF 		bl	DiginGet
 3778              	.LVL302:
 777:HANcoder_E407_TTA_CombineModel_V2.c **** 
 3779              		.loc 1 777 53 view .LVU1370
 3780 0c52 0027     		movs	r7, #0
 3781              	.LVL303:
 781:HANcoder_E407_TTA_CombineModel_V2.c **** 
 3782              		.loc 1 781 5 is_stmt 1 view .LVU1371
 786:HANcoder_E407_TTA_CombineModel_V2.c **** 
 3783              		.loc 1 786 5 view .LVU1372
 786:HANcoder_E407_TTA_CombineModel_V2.c **** 
 3784              		.loc 1 786 54 is_stmt 0 view .LVU1373
 3785 0c54 4FF00008 		mov	r8, #0
 3786 0c58 0028     		cmp	r0, #0
 3787 0c5a 00F0A380 		beq	.L245
 3788              	.L380:
 786:HANcoder_E407_TTA_CombineModel_V2.c **** 
 3789              		.loc 1 786 54 view .LVU1374
 3790 0c5e 4FF08049 		mov	r9, #1073741824
 3791              	.L105:
 3792              	.LVL304:
 790:HANcoder_E407_TTA_CombineModel_V2.c **** 
 3793              		.loc 1 790 5 is_stmt 1 discriminator 4 view .LVU1375
 790:HANcoder_E407_TTA_CombineModel_V2.c **** 
 3794              		.loc 1 790 34 is_stmt 0 discriminator 4 view .LVU1376
 3795 0c62 1020     		movs	r0, #16
 3796              	.LVL305:
 790:HANcoder_E407_TTA_CombineModel_V2.c **** 
 3797              		.loc 1 790 34 discriminator 4 view .LVU1377
 3798 0c64 FFF7FEFF 		bl	DiginGet
 3799              	.LVL306:
 796:HANcoder_E407_TTA_CombineModel_V2.c ****       : 0.0);
 3800              		.loc 1 796 29 discriminator 4 view .LVU1378
 3801 0c68 4246     		mov	r2, r8
 790:HANcoder_E407_TTA_CombineModel_V2.c **** 
 3802              		.loc 1 790 34 discriminator 4 view .LVU1379
 3803 0c6a 0546     		mov	r5, r0
 796:HANcoder_E407_TTA_CombineModel_V2.c ****       : 0.0);
 3804              		.loc 1 796 29 discriminator 4 view .LVU1380
 3805 0c6c 4B46     		mov	r3, r9
 3806 0c6e 3046     		mov	r0, r6
 3807 0c70 3946     		mov	r1, r7
 3808              	.LVL307:
 796:HANcoder_E407_TTA_CombineModel_V2.c ****       : 0.0);
 3809              		.loc 1 796 5 is_stmt 1 discriminator 4 view .LVU1381
 796:HANcoder_E407_TTA_CombineModel_V2.c ****       : 0.0);
 3810              		.loc 1 796 29 is_stmt 0 discriminator 4 view .LVU1382
 3811 0c72 FFF7FEFF 		bl	__aeabi_dadd
 3812              	.LVL308:
 797:HANcoder_E407_TTA_CombineModel_V2.c **** 
 3813              		.loc 1 797 7 discriminator 4 view .LVU1383
 3814 0c76 0022     		movs	r2, #0
 3815 0c78 002D     		cmp	r5, #0
 3816 0c7a 00F01181 		beq	.L246
 797:HANcoder_E407_TTA_CombineModel_V2.c **** 
 3817              		.loc 1 797 7 view .LVU1384
 3818 0c7e CC4B     		ldr	r3, .L393+8
 3819              	.L106:
 796:HANcoder_E407_TTA_CombineModel_V2.c ****       : 0.0);
 3820              		.loc 1 796 13 view .LVU1385
 3821 0c80 DFF864A3 		ldr	r10, .L393+64
 796:HANcoder_E407_TTA_CombineModel_V2.c ****       : 0.0);
 3822              		.loc 1 796 46 view .LVU1386
 3823 0c84 FFF7FEFF 		bl	__aeabi_dadd
 3824              	.LVL309:
 3825 0c88 0646     		mov	r6, r0
 3826              	.LVL310:
 796:HANcoder_E407_TTA_CombineModel_V2.c ****       : 0.0);
 3827              		.loc 1 796 46 view .LVU1387
 3828 0c8a 0F46     		mov	r7, r1
 796:HANcoder_E407_TTA_CombineModel_V2.c ****       : 0.0);
 3829              		.loc 1 796 13 view .LVU1388
 3830 0c8c CAE90067 		strd	r6, [r10]
 3831 0c90 FFF7DAB9 		b	.L103
 3832              	.LVL311:
 3833              	.L375:
2001:HANcoder_E407_TTA_CombineModel_V2.c ****   }
 3834              		.loc 1 2001 5 is_stmt 1 view .LVU1389
2004:HANcoder_E407_TTA_CombineModel_V2.c ****   if ((rtPrevAction != rtAction) && (rtPrevAction == 0)) {
 3835              		.loc 1 2004 3 view .LVU1390
2021:HANcoder_E407_TTA_CombineModel_V2.c ****       u1 = rtDWork.PositionID4;
 3836              		.loc 1 2021 8 is_stmt 0 view .LVU1391
 3837 0c94 94F84030 		ldrb	r3, [r4, #64]	@ zero_extendqisi2
2028:HANcoder_E407_TTA_CombineModel_V2.c ****       u1_0 = rtDWork.PositionID5;
 3838              		.loc 1 2028 8 view .LVU1392
 3839 0c98 94F83F10 		ldrb	r1, [r4, #63]	@ zero_extendqisi2
2036:HANcoder_E407_TTA_CombineModel_V2.c **** 
 3840              		.loc 1 2036 20 view .LVU1393
 3841 0c9c C54A     		ldr	r2, .L393+12
2021:HANcoder_E407_TTA_CombineModel_V2.c ****       u1 = rtDWork.PositionID4;
 3842              		.loc 1 2021 8 view .LVU1394
 3843 0c9e 012B     		cmp	r3, #1
 3844 0ca0 28BF     		it	cs
 3845 0ca2 0123     		movcs	r3, #1
2036:HANcoder_E407_TTA_CombineModel_V2.c **** 
 3846              		.loc 1 2036 22 view .LVU1395
 3847 0ca4 0129     		cmp	r1, #1
 3848 0ca6 94BF     		ite	ls
 3849 0ca8 5B18     		addls	r3, r3, r1
 3850 0caa 0133     		addhi	r3, r3, #1
2040:HANcoder_E407_TTA_CombineModel_V2.c **** 
 3851              		.loc 1 2040 34 view .LVU1396
 3852 0cac 4720     		movs	r0, #71
2004:HANcoder_E407_TTA_CombineModel_V2.c ****   if ((rtPrevAction != rtAction) && (rtPrevAction == 0)) {
 3853              		.loc 1 2004 30 view .LVU1397
 3854 0cae 0021     		movs	r1, #0
 3855 0cb0 84F83910 		strb	r1, [r4, #57]
2005:HANcoder_E407_TTA_CombineModel_V2.c ****   }
 3856              		.loc 1 2005 3 is_stmt 1 view .LVU1398
2006:HANcoder_E407_TTA_CombineModel_V2.c **** 
 3857              		.loc 1 2006 3 view .LVU1399
2008:HANcoder_E407_TTA_CombineModel_V2.c ****     /* Outputs for IfAction SubSystem: '<S1>/Triggered Subsystem' incorporates:
 3858              		.loc 1 2008 3 view .LVU1400
2013:HANcoder_E407_TTA_CombineModel_V2.c **** 
 3859              		.loc 1 2013 5 view .LVU1401
 3860              	.LVL312:
2016:HANcoder_E407_TTA_CombineModel_V2.c **** 
 3861              		.loc 1 2016 5 view .LVU1402
2021:HANcoder_E407_TTA_CombineModel_V2.c ****       u1 = rtDWork.PositionID4;
 3862              		.loc 1 2021 5 view .LVU1403
2028:HANcoder_E407_TTA_CombineModel_V2.c ****       u1_0 = rtDWork.PositionID5;
 3863              		.loc 1 2028 5 view .LVU1404
2036:HANcoder_E407_TTA_CombineModel_V2.c **** 
 3864              		.loc 1 2036 5 view .LVU1405
2036:HANcoder_E407_TTA_CombineModel_V2.c **** 
 3865              		.loc 1 2036 20 is_stmt 0 view .LVU1406
 3866 0cb4 1370     		strb	r3, [r2]
2040:HANcoder_E407_TTA_CombineModel_V2.c **** 
 3867              		.loc 1 2040 5 is_stmt 1 view .LVU1407
2040:HANcoder_E407_TTA_CombineModel_V2.c **** 
 3868              		.loc 1 2040 34 is_stmt 0 view .LVU1408
 3869 0cb6 FFF7FEFF 		bl	DiginGet
 3870              	.LVL313:
2045:HANcoder_E407_TTA_CombineModel_V2.c ****       /* CombinatorialLogic: '<S187>/Logic' incorporates:
 3871              		.loc 1 2045 5 is_stmt 1 view .LVU1409
2045:HANcoder_E407_TTA_CombineModel_V2.c ****       /* CombinatorialLogic: '<S187>/Logic' incorporates:
 3872              		.loc 1 2045 8 is_stmt 0 view .LVU1410
 3873 0cba 0028     		cmp	r0, #0
 3874 0cbc 5AD0     		beq	.L377
2053:HANcoder_E407_TTA_CombineModel_V2.c ****         0) << 1) + (uint32_T)(ResetPosition != 0.0)) << 1) +
 3875              		.loc 1 2053 7 is_stmt 1 view .LVU1411
2054:HANcoder_E407_TTA_CombineModel_V2.c ****         rtDWork.Memory_PreviousInput];
 3876              		.loc 1 2054 20 is_stmt 0 view .LVU1412
 3877 0cbe BE49     		ldr	r1, .L393+16
 3878 0cc0 0022     		movs	r2, #0
 3879 0cc2 D1E90001 		ldrd	r0, [r1]
 3880              	.LVL314:
2054:HANcoder_E407_TTA_CombineModel_V2.c ****         rtDWork.Memory_PreviousInput];
 3881              		.loc 1 2054 20 view .LVU1413
 3882 0cc6 0023     		movs	r3, #0
 3883 0cc8 FFF7FEFF 		bl	__aeabi_dcmpeq
 3884              	.LVL315:
2054:HANcoder_E407_TTA_CombineModel_V2.c ****         rtDWork.Memory_PreviousInput];
 3885              		.loc 1 2054 12 view .LVU1414
 3886 0ccc 94F83D30 		ldrb	r3, [r4, #61]	@ zero_extendqisi2
2053:HANcoder_E407_TTA_CombineModel_V2.c ****         0) << 1) + (uint32_T)(ResetPosition != 0.0)) << 1) +
 3887              		.loc 1 2053 17 view .LVU1415
 3888 0cd0 BA49     		ldr	r1, .L393+20
2055:HANcoder_E407_TTA_CombineModel_V2.c **** 
 3889              		.loc 1 2055 16 view .LVU1416
 3890 0cd2 94F84520 		ldrb	r2, [r4, #69]	@ zero_extendqisi2
2054:HANcoder_E407_TTA_CombineModel_V2.c ****         rtDWork.Memory_PreviousInput];
 3891              		.loc 1 2054 12 view .LVU1417
 3892 0cd6 003B     		subs	r3, r3, #0
2054:HANcoder_E407_TTA_CombineModel_V2.c ****         rtDWork.Memory_PreviousInput];
 3893              		.loc 1 2054 20 view .LVU1418
 3894 0cd8 B0FA80F0 		clz	r0, r0
2054:HANcoder_E407_TTA_CombineModel_V2.c ****         rtDWork.Memory_PreviousInput];
 3895              		.loc 1 2054 12 view .LVU1419
 3896 0cdc 18BF     		it	ne
 3897 0cde 0123     		movne	r3, #1
2054:HANcoder_E407_TTA_CombineModel_V2.c ****         rtDWork.Memory_PreviousInput];
 3898              		.loc 1 2054 20 view .LVU1420
 3899 0ce0 4009     		lsrs	r0, r0, #5
2054:HANcoder_E407_TTA_CombineModel_V2.c ****         rtDWork.Memory_PreviousInput];
 3900              		.loc 1 2054 18 view .LVU1421
 3901 0ce2 00EB4303 		add	r3, r0, r3, lsl #1
2053:HANcoder_E407_TTA_CombineModel_V2.c ****         0) << 1) + (uint32_T)(ResetPosition != 0.0)) << 1) +
 3902              		.loc 1 2053 17 view .LVU1422
 3903 0ce6 01EB4303 		add	r3, r1, r3, lsl #1
 3904 0cea 9D5C     		ldrb	r5, [r3, r2]	@ zero_extendqisi2
 3905              	.LVL316:
2060:HANcoder_E407_TTA_CombineModel_V2.c ****         /* Outputs for IfAction SubSystem: '<S181>/If Action Subsystem' incorporates:
 3906              		.loc 1 2060 7 is_stmt 1 view .LVU1423
2060:HANcoder_E407_TTA_CombineModel_V2.c ****         /* Outputs for IfAction SubSystem: '<S181>/If Action Subsystem' incorporates:
 3907              		.loc 1 2060 10 is_stmt 0 view .LVU1424
 3908 0cec 94F84030 		ldrb	r3, [r4, #64]	@ zero_extendqisi2
 3909 0cf0 012B     		cmp	r3, #1
 3910 0cf2 00F02E82 		beq	.L378
2073:HANcoder_E407_TTA_CombineModel_V2.c **** 
 3911              		.loc 1 2073 9 is_stmt 1 view .LVU1425
2073:HANcoder_E407_TTA_CombineModel_V2.c **** 
 3912              		.loc 1 2073 20 is_stmt 0 view .LVU1426
 3913 0cf6 2A1E     		subs	r2, r5, #0
 3914 0cf8 18BF     		it	ne
 3915 0cfa 0122     		movne	r2, #1
 3916 0cfc D201     		lsls	r2, r2, #7
2084:HANcoder_E407_TTA_CombineModel_V2.c **** 
 3917              		.loc 1 2084 43 view .LVU1427
 3918 0cfe 9AF82130 		ldrb	r3, [r10, #33]	@ zero_extendqisi2
2073:HANcoder_E407_TTA_CombineModel_V2.c **** 
 3919              		.loc 1 2073 18 view .LVU1428
 3920 0d02 8AF81D20 		strb	r2, [r10, #29]
 3921              	.L212:
2084:HANcoder_E407_TTA_CombineModel_V2.c **** 
 3922              		.loc 1 2084 7 is_stmt 1 view .LVU1429
2084:HANcoder_E407_TTA_CombineModel_V2.c **** 
 3923              		.loc 1 2084 57 is_stmt 0 view .LVU1430
 3924 0d06 02EB4302 		add	r2, r2, r3, lsl #1
2094:HANcoder_E407_TTA_CombineModel_V2.c ****         rtDWork.Memory_PreviousInput_a];
 3925              		.loc 1 2094 9 view .LVU1431
 3926 0d0a 94F83E30 		ldrb	r3, [r4, #62]	@ zero_extendqisi2
 3927 0d0e 003B     		subs	r3, r3, #0
 3928 0d10 18BF     		it	ne
 3929 0d12 0123     		movne	r3, #1
2094:HANcoder_E407_TTA_CombineModel_V2.c ****         rtDWork.Memory_PreviousInput_a];
 3930              		.loc 1 2094 15 view .LVU1432
 3931 0d14 00EB4300 		add	r0, r0, r3, lsl #1
2093:HANcoder_E407_TTA_CombineModel_V2.c ****         << 1) + (uint32_T)(ResetPosition != 0.0)) << 1) +
 3932              		.loc 1 2093 15 view .LVU1433
 3933 0d18 01EB4001 		add	r1, r1, r0, lsl #1
2095:HANcoder_E407_TTA_CombineModel_V2.c **** 
 3934              		.loc 1 2095 16 view .LVU1434
 3935 0d1c 94F84630 		ldrb	r3, [r4, #70]	@ zero_extendqisi2
2093:HANcoder_E407_TTA_CombineModel_V2.c ****         << 1) + (uint32_T)(ResetPosition != 0.0)) << 1) +
 3936              		.loc 1 2093 15 view .LVU1435
 3937 0d20 C85C     		ldrb	r0, [r1, r3]	@ zero_extendqisi2
2100:HANcoder_E407_TTA_CombineModel_V2.c ****         /* Outputs for IfAction SubSystem: '<S181>/If Action Subsystem2' incorporates:
 3938              		.loc 1 2100 10 view .LVU1436
 3939 0d22 94F83F30 		ldrb	r3, [r4, #63]	@ zero_extendqisi2
2084:HANcoder_E407_TTA_CombineModel_V2.c **** 
 3940              		.loc 1 2084 18 view .LVU1437
 3941 0d26 C2F34702 		ubfx	r2, r2, #1, #8
2100:HANcoder_E407_TTA_CombineModel_V2.c ****         /* Outputs for IfAction SubSystem: '<S181>/If Action Subsystem2' incorporates:
 3942              		.loc 1 2100 10 view .LVU1438
 3943 0d2a 012B     		cmp	r3, #1
2084:HANcoder_E407_TTA_CombineModel_V2.c **** 
 3944              		.loc 1 2084 16 view .LVU1439
 3945 0d2c 8AF81F20 		strb	r2, [r10, #31]
2093:HANcoder_E407_TTA_CombineModel_V2.c ****         << 1) + (uint32_T)(ResetPosition != 0.0)) << 1) +
 3946              		.loc 1 2093 7 is_stmt 1 view .LVU1440
 3947              	.LVL317:
2100:HANcoder_E407_TTA_CombineModel_V2.c ****         /* Outputs for IfAction SubSystem: '<S181>/If Action Subsystem2' incorporates:
 3948              		.loc 1 2100 7 view .LVU1441
2100:HANcoder_E407_TTA_CombineModel_V2.c ****         /* Outputs for IfAction SubSystem: '<S181>/If Action Subsystem2' incorporates:
 3949              		.loc 1 2100 10 is_stmt 0 view .LVU1442
 3950 0d30 00F00682 		beq	.L379
2113:HANcoder_E407_TTA_CombineModel_V2.c **** 
 3951              		.loc 1 2113 9 is_stmt 1 view .LVU1443
2113:HANcoder_E407_TTA_CombineModel_V2.c **** 
 3952              		.loc 1 2113 22 is_stmt 0 view .LVU1444
 3953 0d34 031E     		subs	r3, r0, #0
 3954 0d36 18BF     		it	ne
 3955 0d38 0123     		movne	r3, #1
 3956 0d3a DB01     		lsls	r3, r3, #7
2124:HANcoder_E407_TTA_CombineModel_V2.c **** 
 3957              		.loc 1 2124 43 view .LVU1445
 3958 0d3c 9AF82210 		ldrb	r1, [r10, #34]	@ zero_extendqisi2
2113:HANcoder_E407_TTA_CombineModel_V2.c **** 
 3959              		.loc 1 2113 20 view .LVU1446
 3960 0d40 8AF81E30 		strb	r3, [r10, #30]
 3961              	.L214:
2124:HANcoder_E407_TTA_CombineModel_V2.c **** 
 3962              		.loc 1 2124 7 is_stmt 1 view .LVU1447
2124:HANcoder_E407_TTA_CombineModel_V2.c **** 
 3963              		.loc 1 2124 57 is_stmt 0 view .LVU1448
 3964 0d44 03EB4103 		add	r3, r3, r1, lsl #1
2124:HANcoder_E407_TTA_CombineModel_V2.c **** 
 3965              		.loc 1 2124 18 view .LVU1449
 3966 0d48 C3F34703 		ubfx	r3, r3, #1, #8
2127:HANcoder_E407_TTA_CombineModel_V2.c **** 
 3967              		.loc 1 2127 36 view .LVU1450
 3968 0d4c 84F84550 		strb	r5, [r4, #69]
2124:HANcoder_E407_TTA_CombineModel_V2.c **** 
 3969              		.loc 1 2124 16 view .LVU1451
 3970 0d50 8AF82030 		strb	r3, [r10, #32]
2127:HANcoder_E407_TTA_CombineModel_V2.c **** 
 3971              		.loc 1 2127 7 is_stmt 1 view .LVU1452
2130:HANcoder_E407_TTA_CombineModel_V2.c ****     }
 3972              		.loc 1 2130 7 view .LVU1453
2130:HANcoder_E407_TTA_CombineModel_V2.c ****     }
 3973              		.loc 1 2130 38 is_stmt 0 view .LVU1454
 3974 0d54 84F84600 		strb	r0, [r4, #70]
 3975 0d58 10E0     		b	.L208
 3976              	.LVL318:
 3977              	.L359:
 732:HANcoder_E407_TTA_CombineModel_V2.c **** 
 3978              		.loc 1 732 5 is_stmt 1 view .LVU1455
 737:HANcoder_E407_TTA_CombineModel_V2.c **** 
 3979              		.loc 1 737 24 is_stmt 0 view .LVU1456
 3980 0d5a 994F     		ldr	r7, .L393+24
 3981 0d5c 0026     		movs	r6, #0
 732:HANcoder_E407_TTA_CombineModel_V2.c **** 
 3982              		.loc 1 732 42 view .LVU1457
 3983 0d5e 0121     		movs	r1, #1
 744:HANcoder_E407_TTA_CombineModel_V2.c ****       (tTimeoutAction)((uint8_T)3U));
 3984              		.loc 1 744 5 view .LVU1458
 3985 0d60 0322     		movs	r2, #3
 3986 0d62 0720     		movs	r0, #7
 737:HANcoder_E407_TTA_CombineModel_V2.c **** 
 3987              		.loc 1 737 24 view .LVU1459
 3988 0d64 C4E90467 		strd	r6, [r4, #16]
 732:HANcoder_E407_TTA_CombineModel_V2.c **** 
 3989              		.loc 1 732 42 view .LVU1460
 3990 0d68 84F84D10 		strb	r1, [r4, #77]
 737:HANcoder_E407_TTA_CombineModel_V2.c **** 
 3991              		.loc 1 737 5 is_stmt 1 view .LVU1461
 744:HANcoder_E407_TTA_CombineModel_V2.c ****       (tTimeoutAction)((uint8_T)3U));
 3992              		.loc 1 744 5 view .LVU1462
 3993 0d6c FFF7FEFF 		bl	TimeoutScheduleCompareEvent
 3994              	.LVL319:
 3995 0d70 FFF75AB9 		b	.L101
 3996              	.LVL320:
 3997              	.L377:
2138:HANcoder_E407_TTA_CombineModel_V2.c **** 
 3998              		.loc 1 2138 42 is_stmt 0 view .LVU1463
 3999 0d74 9AF81F20 		ldrb	r2, [r10, #31]	@ zero_extendqisi2
2146:HANcoder_E407_TTA_CombineModel_V2.c **** 
 4000              		.loc 1 2146 42 view .LVU1464
 4001 0d78 9AF82030 		ldrb	r3, [r10, #32]	@ zero_extendqisi2
 4002              	.LVL321:
 4003              	.L208:
2138:HANcoder_E407_TTA_CombineModel_V2.c **** 
 4004              		.loc 1 2138 5 is_stmt 1 view .LVU1465
2138:HANcoder_E407_TTA_CombineModel_V2.c **** 
 4005              		.loc 1 2138 17 is_stmt 0 view .LVU1466
 4006 0d7c 9148     		ldr	r0, .L393+28
2146:HANcoder_E407_TTA_CombineModel_V2.c **** 
 4007              		.loc 1 2146 17 view .LVU1467
 4008 0d7e 9249     		ldr	r1, .L393+32
2138:HANcoder_E407_TTA_CombineModel_V2.c **** 
 4009              		.loc 1 2138 19 view .LVU1468
 4010 0d80 9209     		lsrs	r2, r2, #6
2146:HANcoder_E407_TTA_CombineModel_V2.c **** 
 4011              		.loc 1 2146 19 view .LVU1469
 4012 0d82 9B09     		lsrs	r3, r3, #6
2138:HANcoder_E407_TTA_CombineModel_V2.c **** 
 4013              		.loc 1 2138 17 view .LVU1470
 4014 0d84 0270     		strb	r2, [r0]
2141:HANcoder_E407_TTA_CombineModel_V2.c **** 
 4015              		.loc 1 2141 5 is_stmt 1 view .LVU1471
2141:HANcoder_E407_TTA_CombineModel_V2.c **** 
 4016              		.loc 1 2141 25 is_stmt 0 view .LVU1472
 4017 0d86 84F83F20 		strb	r2, [r4, #63]
2146:HANcoder_E407_TTA_CombineModel_V2.c **** 
 4018              		.loc 1 2146 5 is_stmt 1 view .LVU1473
2146:HANcoder_E407_TTA_CombineModel_V2.c **** 
 4019              		.loc 1 2146 17 is_stmt 0 view .LVU1474
 4020 0d8a 0B70     		strb	r3, [r1]
2149:HANcoder_E407_TTA_CombineModel_V2.c **** 
 4021              		.loc 1 2149 5 is_stmt 1 view .LVU1475
2149:HANcoder_E407_TTA_CombineModel_V2.c **** 
 4022              		.loc 1 2149 25 is_stmt 0 view .LVU1476
 4023 0d8c 84F84030 		strb	r3, [r4, #64]
 4024 0d90 1BE7     		b	.L209
 4025              	.LVL322:
 4026              	.L376:
 781:HANcoder_E407_TTA_CombineModel_V2.c **** 
 4027              		.loc 1 781 34 view .LVU1477
 4028 0d92 0F20     		movs	r0, #15
 4029              	.LVL323:
 781:HANcoder_E407_TTA_CombineModel_V2.c **** 
 4030              		.loc 1 781 34 view .LVU1478
 4031 0d94 FFF7FEFF 		bl	DiginGet
 4032              	.LVL324:
 777:HANcoder_E407_TTA_CombineModel_V2.c **** 
 4033              		.loc 1 777 53 view .LVU1479
 4034 0d98 894F     		ldr	r7, .L393+24
 4035              	.LVL325:
 781:HANcoder_E407_TTA_CombineModel_V2.c **** 
 4036              		.loc 1 781 5 is_stmt 1 view .LVU1480
 786:HANcoder_E407_TTA_CombineModel_V2.c **** 
 4037              		.loc 1 786 5 view .LVU1481
 786:HANcoder_E407_TTA_CombineModel_V2.c **** 
 4038              		.loc 1 786 54 is_stmt 0 view .LVU1482
 4039 0d9a 4FF00008 		mov	r8, #0
 4040 0d9e 0028     		cmp	r0, #0
 4041 0da0 7FF45DAF 		bne	.L380
 4042              	.L245:
 786:HANcoder_E407_TTA_CombineModel_V2.c **** 
 4043              		.loc 1 786 54 view .LVU1483
 4044 0da4 4FF00009 		mov	r9, #0
 4045 0da8 5BE7     		b	.L105
 4046              	.LVL326:
 4047              	.L337:
 858:HANcoder_E407_TTA_CombineModel_V2.c **** 
 4048              		.loc 1 858 5 is_stmt 1 view .LVU1484
 4049              	.LBB279:
 332:HANcoder_E407_TTA_CombineModel_V2.c ****               rtDW_MMBS1_RX *localDW)
 4050              		.loc 1 332 6 view .LVU1485
 4051              	.LBB188:
 336:HANcoder_E407_TTA_CombineModel_V2.c ****   uint8_T rtb_SFunction_o3_b;
 4052              		.loc 1 336 3 view .LVU1486
 337:HANcoder_E407_TTA_CombineModel_V2.c ****   uint8_T rtb_SFunction_o4_l;
 4053              		.loc 1 337 3 view .LVU1487
 338:HANcoder_E407_TTA_CombineModel_V2.c ****   uint8_T rtb_SFunction_o5_e;
 4054              		.loc 1 338 3 view .LVU1488
 339:HANcoder_E407_TTA_CombineModel_V2.c ****   uint8_T rtb_SFunction_o6_k;
 4055              		.loc 1 339 3 view .LVU1489
 340:HANcoder_E407_TTA_CombineModel_V2.c ****   uint8_T rtb_SFunction_o7_dj;
 4056              		.loc 1 340 3 view .LVU1490
 341:HANcoder_E407_TTA_CombineModel_V2.c ****   uint8_T rtb_SFunction_o8_n1;
 4057              		.loc 1 341 3 view .LVU1491
 342:HANcoder_E407_TTA_CombineModel_V2.c ****   uint8_T rtb_SFunction_o9_o;
 4058              		.loc 1 342 3 view .LVU1492
 343:HANcoder_E407_TTA_CombineModel_V2.c ****   int8_T rtb_SFunction_o1_g;
 4059              		.loc 1 343 3 view .LVU1493
 344:HANcoder_E407_TTA_CombineModel_V2.c **** 
 4060              		.loc 1 344 3 view .LVU1494
 349:HANcoder_E407_TTA_CombineModel_V2.c ****     localDW->MMBS1_RX_MODE = true;
 4061              		.loc 1 349 3 view .LVU1495
 376:HANcoder_E407_TTA_CombineModel_V2.c ****     MMBS1_RX_Disable(localDW);
 4062              		.loc 1 376 10 view .LVU1496
 376:HANcoder_E407_TTA_CombineModel_V2.c ****     MMBS1_RX_Disable(localDW);
 4063              		.loc 1 376 13 is_stmt 0 view .LVU1497
 4064 0daa 94F8C932 		ldrb	r3, [r4, #713]	@ zero_extendqisi2
 4065 0dae 002B     		cmp	r3, #0
 4066 0db0 4FD0     		beq	.L238
 377:HANcoder_E407_TTA_CombineModel_V2.c ****   }
 4067              		.loc 1 377 5 is_stmt 1 view .LVU1498
 4068              	.LVL327:
 4069              	.LBB183:
 4070              	.LBI179:
 305:HANcoder_E407_TTA_CombineModel_V2.c **** {
 4071              		.loc 1 305 6 view .LVU1499
 4072              	.LBB181:
 307:HANcoder_E407_TTA_CombineModel_V2.c **** }
 4073              		.loc 1 307 3 view .LVU1500
 307:HANcoder_E407_TTA_CombineModel_V2.c **** }
 4074              		.loc 1 307 26 is_stmt 0 view .LVU1501
 4075 0db2 0023     		movs	r3, #0
 4076 0db4 84F8C932 		strb	r3, [r4, #713]
 4077              	.LVL328:
 307:HANcoder_E407_TTA_CombineModel_V2.c **** }
 4078              		.loc 1 307 26 view .LVU1502
 4079              	.LBE181:
 4080              	.LBE183:
 4081              	.LBE188:
 4082              	.LBE279:
 863:HANcoder_E407_TTA_CombineModel_V2.c **** 
 4083              		.loc 1 863 5 is_stmt 1 view .LVU1503
 4084 0db8 FFF7A0B9 		b	.L115
 4085              	.LVL329:
 4086              	.L338:
 889:HANcoder_E407_TTA_CombineModel_V2.c **** 
 4087              		.loc 1 889 5 view .LVU1504
 4088              	.LBB280:
 332:HANcoder_E407_TTA_CombineModel_V2.c ****               rtDW_MMBS1_RX *localDW)
 4089              		.loc 1 332 6 view .LVU1505
 4090              	.LBB208:
 336:HANcoder_E407_TTA_CombineModel_V2.c ****   uint8_T rtb_SFunction_o3_b;
 4091              		.loc 1 336 3 view .LVU1506
 337:HANcoder_E407_TTA_CombineModel_V2.c ****   uint8_T rtb_SFunction_o4_l;
 4092              		.loc 1 337 3 view .LVU1507
 338:HANcoder_E407_TTA_CombineModel_V2.c ****   uint8_T rtb_SFunction_o5_e;
 4093              		.loc 1 338 3 view .LVU1508
 339:HANcoder_E407_TTA_CombineModel_V2.c ****   uint8_T rtb_SFunction_o6_k;
 4094              		.loc 1 339 3 view .LVU1509
 340:HANcoder_E407_TTA_CombineModel_V2.c ****   uint8_T rtb_SFunction_o7_dj;
 4095              		.loc 1 340 3 view .LVU1510
 341:HANcoder_E407_TTA_CombineModel_V2.c ****   uint8_T rtb_SFunction_o8_n1;
 4096              		.loc 1 341 3 view .LVU1511
 342:HANcoder_E407_TTA_CombineModel_V2.c ****   uint8_T rtb_SFunction_o9_o;
 4097              		.loc 1 342 3 view .LVU1512
 343:HANcoder_E407_TTA_CombineModel_V2.c ****   int8_T rtb_SFunction_o1_g;
 4098              		.loc 1 343 3 view .LVU1513
 344:HANcoder_E407_TTA_CombineModel_V2.c **** 
 4099              		.loc 1 344 3 view .LVU1514
 349:HANcoder_E407_TTA_CombineModel_V2.c ****     localDW->MMBS1_RX_MODE = true;
 4100              		.loc 1 349 3 view .LVU1515
 376:HANcoder_E407_TTA_CombineModel_V2.c ****     MMBS1_RX_Disable(localDW);
 4101              		.loc 1 376 10 view .LVU1516
 376:HANcoder_E407_TTA_CombineModel_V2.c ****     MMBS1_RX_Disable(localDW);
 4102              		.loc 1 376 13 is_stmt 0 view .LVU1517
 4103 0dbc 94F8C832 		ldrb	r3, [r4, #712]	@ zero_extendqisi2
 4104 0dc0 13B1     		cbz	r3, .L235
 377:HANcoder_E407_TTA_CombineModel_V2.c ****   }
 4105              		.loc 1 377 5 is_stmt 1 view .LVU1518
 4106              	.LVL330:
 4107              	.LBB206:
 305:HANcoder_E407_TTA_CombineModel_V2.c **** {
 4108              		.loc 1 305 6 view .LVU1519
 4109              	.LBB201:
 307:HANcoder_E407_TTA_CombineModel_V2.c **** }
 4110              		.loc 1 307 3 view .LVU1520
 307:HANcoder_E407_TTA_CombineModel_V2.c **** }
 4111              		.loc 1 307 26 is_stmt 0 view .LVU1521
 4112 0dc2 0023     		movs	r3, #0
 4113 0dc4 84F8C832 		strb	r3, [r4, #712]
 4114              	.LVL331:
 307:HANcoder_E407_TTA_CombineModel_V2.c **** }
 4115              		.loc 1 307 26 view .LVU1522
 4116              	.LBE201:
 4117              	.LBE206:
 4118              	.LBE208:
 4119              	.LBE280:
 894:HANcoder_E407_TTA_CombineModel_V2.c **** 
 4120              		.loc 1 894 5 is_stmt 1 view .LVU1523
 4121              	.L235:
 898:HANcoder_E407_TTA_CombineModel_V2.c **** 
 4122              		.loc 1 898 5 view .LVU1524
 4123              	.LBB281:
 4124              	.LBI209:
 388:HANcoder_E407_TTA_CombineModel_V2.c **** {
 4125              		.loc 1 388 6 view .LVU1525
 4126              	.LBB214:
 393:HANcoder_E407_TTA_CombineModel_V2.c ****     /* Update for M-S-Function: '<S39>/S-Function' */
 4127              		.loc 1 393 3 view .LVU1526
 393:HANcoder_E407_TTA_CombineModel_V2.c ****     /* Update for M-S-Function: '<S39>/S-Function' */
 4128              		.loc 1 393 31 is_stmt 0 view .LVU1527
 4129 0dc8 EB7A     		ldrb	r3, [r5, #11]	@ zero_extendqisi2
 393:HANcoder_E407_TTA_CombineModel_V2.c ****     /* Update for M-S-Function: '<S39>/S-Function' */
 4130              		.loc 1 393 19 view .LVU1528
 4131 0dca 012B     		cmp	r3, #1
 4132 0dcc 3FF446AA 		beq	.L122
 397:HANcoder_E407_TTA_CombineModel_V2.c **** 
 4133              		.loc 1 397 7 is_stmt 1 view .LVU1529
 4134              	.LBE214:
 4135              	.LBE281:
 898:HANcoder_E407_TTA_CombineModel_V2.c **** 
 4136              		.loc 1 898 5 is_stmt 0 view .LVU1530
 4137 0dd0 7E4A     		ldr	r2, .L393+36
 4138              	.LBB282:
 4139              	.LBB215:
 397:HANcoder_E407_TTA_CombineModel_V2.c **** 
 4140              		.loc 1 397 33 view .LVU1531
 4141 0dd2 7F4B     		ldr	r3, .L393+40
 400:HANcoder_E407_TTA_CombineModel_V2.c ****     }
 4142              		.loc 1 400 7 view .LVU1532
 4143 0dd4 1168     		ldr	r1, [r2]
 397:HANcoder_E407_TTA_CombineModel_V2.c **** 
 4144              		.loc 1 397 33 view .LVU1533
 4145 0dd6 0020     		movs	r0, #0
 400:HANcoder_E407_TTA_CombineModel_V2.c ****     }
 4146              		.loc 1 400 7 view .LVU1534
 4147 0dd8 0122     		movs	r2, #1
 4148              	.LVL332:
 397:HANcoder_E407_TTA_CombineModel_V2.c **** 
 4149              		.loc 1 397 33 view .LVU1535
 4150 0dda 1870     		strb	r0, [r3]
 400:HANcoder_E407_TTA_CombineModel_V2.c ****     }
 4151              		.loc 1 400 7 is_stmt 1 view .LVU1536
 4152 0ddc FFF7FEFF 		bl	CanTransmit
 4153              	.LVL333:
 400:HANcoder_E407_TTA_CombineModel_V2.c ****     }
 4154              		.loc 1 400 7 is_stmt 0 view .LVU1537
 4155              	.LBE215:
 4156              	.LBE282:
 911:HANcoder_E407_TTA_CombineModel_V2.c **** 
 4157              		.loc 1 911 28 view .LVU1538
 4158 0de0 94ED067B 		vldr.64	d7, [r4, #24]
 905:HANcoder_E407_TTA_CombineModel_V2.c **** 
 4159              		.loc 1 905 33 view .LVU1539
 4160 0de4 9BF80080 		ldrb	r8, [fp]	@ zero_extendqisi2
 911:HANcoder_E407_TTA_CombineModel_V2.c **** 
 4161              		.loc 1 911 28 view .LVU1540
 4162 0de8 8DED067B 		vstr.64	d7, [sp, #24]
 894:HANcoder_E407_TTA_CombineModel_V2.c **** 
 4163              		.loc 1 894 14 view .LVU1541
 4164 0dec 0123     		movs	r3, #1
 4165 0dee FFF735BA 		b	.L122
 4166              	.LVL334:
 4167              	.L373:
1894:HANcoder_E407_TTA_CombineModel_V2.c ****     }
 4168              		.loc 1 1894 7 is_stmt 1 view .LVU1542
1894:HANcoder_E407_TTA_CombineModel_V2.c ****     }
 4169              		.loc 1 1894 32 is_stmt 0 view .LVU1543
 4170 0df2 0023     		movs	r3, #0
 4171 0df4 84F84930 		strb	r3, [r4, #73]
 4172 0df8 B7E6     		b	.L195
 4173              	.LVL335:
 4174              	.L240:
 4175              	.LBB283:
 4176              	.LBB189:
 377:HANcoder_E407_TTA_CombineModel_V2.c ****   }
 4177              		.loc 1 377 5 is_stmt 1 view .LVU1544
 4178              	.LBB184:
 305:HANcoder_E407_TTA_CombineModel_V2.c **** {
 4179              		.loc 1 305 6 view .LVU1545
 4180              	.LBB182:
 307:HANcoder_E407_TTA_CombineModel_V2.c **** }
 4181              		.loc 1 307 3 view .LVU1546
 307:HANcoder_E407_TTA_CombineModel_V2.c **** }
 4182              		.loc 1 307 26 is_stmt 0 view .LVU1547
 4183 0dfa 0020     		movs	r0, #0
 4184 0dfc 84F8C902 		strb	r0, [r4, #713]
 4185 0e00 FFF7FFB9 		b	.L351
 4186              	.LVL336:
 4187              	.L180:
 307:HANcoder_E407_TTA_CombineModel_V2.c **** }
 4188              		.loc 1 307 26 view .LVU1548
 4189              	.LBE182:
 4190              	.LBE184:
 4191              	.LBE189:
 4192              	.LBE283:
1703:HANcoder_E407_TTA_CombineModel_V2.c ****       rtDWork.TRLS_ID5_RX_MODE = true;
 4193              		.loc 1 1703 5 is_stmt 1 view .LVU1549
1763:HANcoder_E407_TTA_CombineModel_V2.c ****       rtDWork.TRLS_ID5_RX_MODE = false;
 4194              		.loc 1 1763 12 view .LVU1550
1763:HANcoder_E407_TTA_CombineModel_V2.c ****       rtDWork.TRLS_ID5_RX_MODE = false;
 4195              		.loc 1 1763 15 is_stmt 0 view .LVU1551
 4196 0e04 94F84930 		ldrb	r3, [r4, #73]	@ zero_extendqisi2
 4197 0e08 13B1     		cbz	r3, .L242
1764:HANcoder_E407_TTA_CombineModel_V2.c ****     }
 4198              		.loc 1 1764 7 is_stmt 1 view .LVU1552
1764:HANcoder_E407_TTA_CombineModel_V2.c ****     }
 4199              		.loc 1 1764 32 is_stmt 0 view .LVU1553
 4200 0e0a 0023     		movs	r3, #0
 4201 0e0c 84F84930 		strb	r3, [r4, #73]
1770:HANcoder_E407_TTA_CombineModel_V2.c **** 
 4202              		.loc 1 1770 5 is_stmt 1 view .LVU1554
 4203              	.L242:
1770:HANcoder_E407_TTA_CombineModel_V2.c **** 
 4204              		.loc 1 1770 18 is_stmt 0 view .LVU1555
 4205 0e10 0023     		movs	r3, #0
1827:HANcoder_E407_TTA_CombineModel_V2.c **** 
 4206              		.loc 1 1827 5 is_stmt 1 view .LVU1556
1827:HANcoder_E407_TTA_CombineModel_V2.c **** 
 4207              		.loc 1 1827 43 is_stmt 0 view .LVU1557
 4208 0e12 AB70     		strb	r3, [r5, #2]
 4209 0e14 ADE6     		b	.L186
 4210              	.LVL337:
 4211              	.L174:
1556:HANcoder_E407_TTA_CombineModel_V2.c ****       rtDWork.TRLS_ID4_RX_MODE = true;
 4212              		.loc 1 1556 5 is_stmt 1 view .LVU1558
1616:HANcoder_E407_TTA_CombineModel_V2.c ****       rtDWork.TRLS_ID4_RX_MODE = false;
 4213              		.loc 1 1616 12 view .LVU1559
1616:HANcoder_E407_TTA_CombineModel_V2.c ****       rtDWork.TRLS_ID4_RX_MODE = false;
 4214              		.loc 1 1616 15 is_stmt 0 view .LVU1560
 4215 0e16 94F84A30 		ldrb	r3, [r4, #74]	@ zero_extendqisi2
 4216 0e1a 13B1     		cbz	r3, .L243
1617:HANcoder_E407_TTA_CombineModel_V2.c ****     }
 4217              		.loc 1 1617 7 is_stmt 1 view .LVU1561
1617:HANcoder_E407_TTA_CombineModel_V2.c ****     }
 4218              		.loc 1 1617 32 is_stmt 0 view .LVU1562
 4219 0e1c 0023     		movs	r3, #0
 4220 0e1e 84F84A30 		strb	r3, [r4, #74]
1623:HANcoder_E407_TTA_CombineModel_V2.c **** 
 4221              		.loc 1 1623 5 is_stmt 1 view .LVU1563
 4222              	.L243:
1623:HANcoder_E407_TTA_CombineModel_V2.c **** 
 4223              		.loc 1 1623 18 is_stmt 0 view .LVU1564
 4224 0e22 0023     		movs	r3, #0
 4225 0e24 15E6     		b	.L179
 4226              	.LVL338:
 4227              	.L165:
1479:HANcoder_E407_TTA_CombineModel_V2.c **** 
 4228              		.loc 1 1479 5 is_stmt 1 view .LVU1565
 4229              	.LBB284:
 332:HANcoder_E407_TTA_CombineModel_V2.c ****               rtDW_MMBS1_RX *localDW)
 4230              		.loc 1 332 6 view .LVU1566
 4231              	.LBB245:
 336:HANcoder_E407_TTA_CombineModel_V2.c ****   uint8_T rtb_SFunction_o3_b;
 4232              		.loc 1 336 3 view .LVU1567
 337:HANcoder_E407_TTA_CombineModel_V2.c ****   uint8_T rtb_SFunction_o4_l;
 4233              		.loc 1 337 3 view .LVU1568
 338:HANcoder_E407_TTA_CombineModel_V2.c ****   uint8_T rtb_SFunction_o5_e;
 4234              		.loc 1 338 3 view .LVU1569
 339:HANcoder_E407_TTA_CombineModel_V2.c ****   uint8_T rtb_SFunction_o6_k;
 4235              		.loc 1 339 3 view .LVU1570
 340:HANcoder_E407_TTA_CombineModel_V2.c ****   uint8_T rtb_SFunction_o7_dj;
 4236              		.loc 1 340 3 view .LVU1571
 341:HANcoder_E407_TTA_CombineModel_V2.c ****   uint8_T rtb_SFunction_o8_n1;
 4237              		.loc 1 341 3 view .LVU1572
 342:HANcoder_E407_TTA_CombineModel_V2.c ****   uint8_T rtb_SFunction_o9_o;
 4238              		.loc 1 342 3 view .LVU1573
 343:HANcoder_E407_TTA_CombineModel_V2.c ****   int8_T rtb_SFunction_o1_g;
 4239              		.loc 1 343 3 view .LVU1574
 344:HANcoder_E407_TTA_CombineModel_V2.c **** 
 4240              		.loc 1 344 3 view .LVU1575
 349:HANcoder_E407_TTA_CombineModel_V2.c ****     localDW->MMBS1_RX_MODE = true;
 4241              		.loc 1 349 3 view .LVU1576
 376:HANcoder_E407_TTA_CombineModel_V2.c ****     MMBS1_RX_Disable(localDW);
 4242              		.loc 1 376 10 view .LVU1577
 376:HANcoder_E407_TTA_CombineModel_V2.c ****     MMBS1_RX_Disable(localDW);
 4243              		.loc 1 376 13 is_stmt 0 view .LVU1578
 4244 0e26 94F84E30 		ldrb	r3, [r4, #78]	@ zero_extendqisi2
 4245 0e2a 13B1     		cbz	r3, .L225
 377:HANcoder_E407_TTA_CombineModel_V2.c ****   }
 4246              		.loc 1 377 5 is_stmt 1 view .LVU1579
 4247              	.LVL339:
 4248              	.LBB240:
 305:HANcoder_E407_TTA_CombineModel_V2.c **** {
 4249              		.loc 1 305 6 view .LVU1580
 4250              	.LBB239:
 307:HANcoder_E407_TTA_CombineModel_V2.c **** }
 4251              		.loc 1 307 3 view .LVU1581
 307:HANcoder_E407_TTA_CombineModel_V2.c **** }
 4252              		.loc 1 307 26 is_stmt 0 view .LVU1582
 4253 0e2c 0023     		movs	r3, #0
 4254 0e2e 84F84E30 		strb	r3, [r4, #78]
 4255              	.LVL340:
 307:HANcoder_E407_TTA_CombineModel_V2.c **** }
 4256              		.loc 1 307 26 view .LVU1583
 4257              	.LBE239:
 4258              	.LBE240:
 4259              	.LBE245:
 4260              	.LBE284:
1484:HANcoder_E407_TTA_CombineModel_V2.c **** 
 4261              		.loc 1 1484 5 is_stmt 1 view .LVU1584
 4262              	.L225:
 4263 0e32 DFF8B891 		ldr	r9, .L393+68
 4264 0e36 0020     		movs	r0, #0
 4265 0e38 8BE5     		b	.L222
 4266              	.LVL341:
 4267              	.L253:
1484:HANcoder_E407_TTA_CombineModel_V2.c **** 
 4268              		.loc 1 1484 5 is_stmt 0 view .LVU1585
 4269 0e3a 0020     		movs	r0, #0
 4270 0e3c 15E5     		b	.L163
 4271              	.LVL342:
 4272              	.L159:
1423:HANcoder_E407_TTA_CombineModel_V2.c **** 
 4273              		.loc 1 1423 5 is_stmt 1 view .LVU1586
 4274              	.LBB285:
 332:HANcoder_E407_TTA_CombineModel_V2.c ****               rtDW_MMBS1_RX *localDW)
 4275              		.loc 1 332 6 view .LVU1587
 4276              	.LBB233:
 336:HANcoder_E407_TTA_CombineModel_V2.c ****   uint8_T rtb_SFunction_o3_b;
 4277              		.loc 1 336 3 view .LVU1588
 337:HANcoder_E407_TTA_CombineModel_V2.c ****   uint8_T rtb_SFunction_o4_l;
 4278              		.loc 1 337 3 view .LVU1589
 338:HANcoder_E407_TTA_CombineModel_V2.c ****   uint8_T rtb_SFunction_o5_e;
 4279              		.loc 1 338 3 view .LVU1590
 339:HANcoder_E407_TTA_CombineModel_V2.c ****   uint8_T rtb_SFunction_o6_k;
 4280              		.loc 1 339 3 view .LVU1591
 340:HANcoder_E407_TTA_CombineModel_V2.c ****   uint8_T rtb_SFunction_o7_dj;
 4281              		.loc 1 340 3 view .LVU1592
 341:HANcoder_E407_TTA_CombineModel_V2.c ****   uint8_T rtb_SFunction_o8_n1;
 4282              		.loc 1 341 3 view .LVU1593
 342:HANcoder_E407_TTA_CombineModel_V2.c ****   uint8_T rtb_SFunction_o9_o;
 4283              		.loc 1 342 3 view .LVU1594
 343:HANcoder_E407_TTA_CombineModel_V2.c ****   int8_T rtb_SFunction_o1_g;
 4284              		.loc 1 343 3 view .LVU1595
 344:HANcoder_E407_TTA_CombineModel_V2.c **** 
 4285              		.loc 1 344 3 view .LVU1596
 349:HANcoder_E407_TTA_CombineModel_V2.c ****     localDW->MMBS1_RX_MODE = true;
 4286              		.loc 1 349 3 view .LVU1597
 376:HANcoder_E407_TTA_CombineModel_V2.c ****     MMBS1_RX_Disable(localDW);
 4287              		.loc 1 376 10 view .LVU1598
 376:HANcoder_E407_TTA_CombineModel_V2.c ****     MMBS1_RX_Disable(localDW);
 4288              		.loc 1 376 13 is_stmt 0 view .LVU1599
 4289 0e3e 94F84F30 		ldrb	r3, [r4, #79]	@ zero_extendqisi2
 4290 0e42 13B1     		cbz	r3, .L230
 377:HANcoder_E407_TTA_CombineModel_V2.c ****   }
 4291              		.loc 1 377 5 is_stmt 1 view .LVU1600
 4292              	.LVL343:
 4293              	.LBB228:
 305:HANcoder_E407_TTA_CombineModel_V2.c **** {
 4294              		.loc 1 305 6 view .LVU1601
 4295              	.LBB227:
 307:HANcoder_E407_TTA_CombineModel_V2.c **** }
 4296              		.loc 1 307 3 view .LVU1602
 307:HANcoder_E407_TTA_CombineModel_V2.c **** }
 4297              		.loc 1 307 26 is_stmt 0 view .LVU1603
 4298 0e44 0023     		movs	r3, #0
 4299 0e46 84F84F30 		strb	r3, [r4, #79]
 4300              	.LVL344:
 307:HANcoder_E407_TTA_CombineModel_V2.c **** }
 4301              		.loc 1 307 26 view .LVU1604
 4302              	.LBE227:
 4303              	.LBE228:
 4304              	.LBE233:
 4305              	.LBE285:
1428:HANcoder_E407_TTA_CombineModel_V2.c **** 
 4306              		.loc 1 1428 5 is_stmt 1 view .LVU1605
 4307              	.L230:
 4308 0e4a DFF8A481 		ldr	r8, .L393+72
1167:HANcoder_E407_TTA_CombineModel_V2.c **** 
 4309              		.loc 1 1167 18 is_stmt 0 view .LVU1606
 4310 0e4e 0020     		movs	r0, #0
 4311 0e50 E3E4     		b	.L227
 4312              	.LVL345:
 4313              	.L238:
 867:HANcoder_E407_TTA_CombineModel_V2.c **** 
 4314              		.loc 1 867 5 is_stmt 1 view .LVU1607
 4315              	.LBB286:
 4316              	.LBI191:
 388:HANcoder_E407_TTA_CombineModel_V2.c **** {
 4317              		.loc 1 388 6 view .LVU1608
 4318              	.LBB194:
 393:HANcoder_E407_TTA_CombineModel_V2.c ****     /* Update for M-S-Function: '<S39>/S-Function' */
 4319              		.loc 1 393 3 view .LVU1609
 393:HANcoder_E407_TTA_CombineModel_V2.c ****     /* Update for M-S-Function: '<S39>/S-Function' */
 4320              		.loc 1 393 31 is_stmt 0 view .LVU1610
 4321 0e52 604D     		ldr	r5, .L393+44
 4322 0e54 287B     		ldrb	r0, [r5, #12]	@ zero_extendqisi2
 393:HANcoder_E407_TTA_CombineModel_V2.c ****     /* Update for M-S-Function: '<S39>/S-Function' */
 4323              		.loc 1 393 19 view .LVU1611
 4324 0e56 0128     		cmp	r0, #1
 4325 0e58 40F08880 		bne	.L117
 4326              	.LBE194:
 4327              	.LBE286:
 874:HANcoder_E407_TTA_CombineModel_V2.c **** 
 4328              		.loc 1 874 33 view .LVU1612
 4329 0e5c 9BF80080 		ldrb	r8, [fp]	@ zero_extendqisi2
 4330              	.LVL346:
 880:HANcoder_E407_TTA_CombineModel_V2.c **** 
 4331              		.loc 1 880 28 view .LVU1613
 4332 0e60 94ED066B 		vldr.64	d6, [r4, #24]
 874:HANcoder_E407_TTA_CombineModel_V2.c **** 
 4333              		.loc 1 874 33 view .LVU1614
 4334 0e64 07EE908A 		vmov	s15, r8	@ int
 880:HANcoder_E407_TTA_CombineModel_V2.c **** 
 4335              		.loc 1 880 28 view .LVU1615
 4336 0e68 8DED066B 		vstr.64	d6, [sp, #24]
 874:HANcoder_E407_TTA_CombineModel_V2.c **** 
 4337              		.loc 1 874 33 view .LVU1616
 4338 0e6c F8EEE77A 		vcvt.f32.s32	s15, s15
 4339 0e70 FFF7CAB9 		b	.L116
 4340              	.LVL347:
 4341              	.L368:
1479:HANcoder_E407_TTA_CombineModel_V2.c **** 
 4342              		.loc 1 1479 5 is_stmt 1 view .LVU1617
1479:HANcoder_E407_TTA_CombineModel_V2.c **** 
 4343              		.loc 1 1479 5 is_stmt 0 view .LVU1618
 4344 0e74 DFF87491 		ldr	r9, .L393+68
 4345              	.LVL348:
 4346              	.LBB287:
 332:HANcoder_E407_TTA_CombineModel_V2.c ****               rtDW_MMBS1_RX *localDW)
 4347              		.loc 1 332 6 is_stmt 1 view .LVU1619
 4348              	.LBB246:
 336:HANcoder_E407_TTA_CombineModel_V2.c ****   uint8_T rtb_SFunction_o3_b;
 4349              		.loc 1 336 3 view .LVU1620
 337:HANcoder_E407_TTA_CombineModel_V2.c ****   uint8_T rtb_SFunction_o4_l;
 4350              		.loc 1 337 3 view .LVU1621
 338:HANcoder_E407_TTA_CombineModel_V2.c ****   uint8_T rtb_SFunction_o5_e;
 4351              		.loc 1 338 3 view .LVU1622
 339:HANcoder_E407_TTA_CombineModel_V2.c ****   uint8_T rtb_SFunction_o6_k;
 4352              		.loc 1 339 3 view .LVU1623
 340:HANcoder_E407_TTA_CombineModel_V2.c ****   uint8_T rtb_SFunction_o7_dj;
 4353              		.loc 1 340 3 view .LVU1624
 341:HANcoder_E407_TTA_CombineModel_V2.c ****   uint8_T rtb_SFunction_o8_n1;
 4354              		.loc 1 341 3 view .LVU1625
 342:HANcoder_E407_TTA_CombineModel_V2.c ****   uint8_T rtb_SFunction_o9_o;
 4355              		.loc 1 342 3 view .LVU1626
 343:HANcoder_E407_TTA_CombineModel_V2.c ****   int8_T rtb_SFunction_o1_g;
 4356              		.loc 1 343 3 view .LVU1627
 344:HANcoder_E407_TTA_CombineModel_V2.c **** 
 4357              		.loc 1 344 3 view .LVU1628
 349:HANcoder_E407_TTA_CombineModel_V2.c ****     localDW->MMBS1_RX_MODE = true;
 4358              		.loc 1 349 3 view .LVU1629
 4359              	.LBB241:
 4360              	.LBI241:
 332:HANcoder_E407_TTA_CombineModel_V2.c ****               rtDW_MMBS1_RX *localDW)
 4361              		.loc 1 332 6 view .LVU1630
 4362              	.LBB242:
 350:HANcoder_E407_TTA_CombineModel_V2.c **** 
 4363              		.loc 1 350 5 view .LVU1631
 355:HANcoder_E407_TTA_CombineModel_V2.c ****       &canRxData_0_rtu_In1.uint8_T_info[0], NULL);
 4364              		.loc 1 355 26 is_stmt 0 view .LVU1632
 4365 0e78 DFF87881 		ldr	r8, .L393+76
 4366 0e7c 0090     		str	r0, [sp]
 350:HANcoder_E407_TTA_CombineModel_V2.c **** 
 4367              		.loc 1 350 28 view .LVU1633
 4368 0e7e 4FF0010C 		mov	ip, #1
 355:HANcoder_E407_TTA_CombineModel_V2.c ****       &canRxData_0_rtu_In1.uint8_T_info[0], NULL);
 4369              		.loc 1 355 26 view .LVU1634
 4370 0e82 D9F80010 		ldr	r1, [r9]
 350:HANcoder_E407_TTA_CombineModel_V2.c **** 
 4371              		.loc 1 350 28 view .LVU1635
 4372 0e86 84F84EC0 		strb	ip, [r4, #78]
 355:HANcoder_E407_TTA_CombineModel_V2.c ****       &canRxData_0_rtu_In1.uint8_T_info[0], NULL);
 4373              		.loc 1 355 5 is_stmt 1 view .LVU1636
 355:HANcoder_E407_TTA_CombineModel_V2.c ****       &canRxData_0_rtu_In1.uint8_T_info[0], NULL);
 4374              		.loc 1 355 26 is_stmt 0 view .LVU1637
 4375 0e8a 4346     		mov	r3, r8
 4376 0e8c FFF7FEFF 		bl	CanIoGetMessage
 4377              	.LVL349:
 359:HANcoder_E407_TTA_CombineModel_V2.c ****       /* read the data */
 4378              		.loc 1 359 5 is_stmt 1 view .LVU1638
 359:HANcoder_E407_TTA_CombineModel_V2.c ****       /* read the data */
 4379              		.loc 1 359 8 is_stmt 0 view .LVU1639
 4380 0e90 0028     		cmp	r0, #0
 4381 0e92 7FF755AD 		ble	.L168
 361:HANcoder_E407_TTA_CombineModel_V2.c ****       rtb_SFunction_o3_b = canRxData_0_rtu_In1.uint8_T_info[1];
 4382              		.loc 1 361 7 is_stmt 1 view .LVU1640
 4383              	.LVL350:
 362:HANcoder_E407_TTA_CombineModel_V2.c ****       rtb_SFunction_o4_l = canRxData_0_rtu_In1.uint8_T_info[2];
 4384              		.loc 1 362 7 view .LVU1641
 363:HANcoder_E407_TTA_CombineModel_V2.c ****       rtb_SFunction_o5_e = canRxData_0_rtu_In1.uint8_T_info[3];
 4385              		.loc 1 363 7 view .LVU1642
 364:HANcoder_E407_TTA_CombineModel_V2.c ****       rtb_SFunction_o6_k = canRxData_0_rtu_In1.uint8_T_info[4];
 4386              		.loc 1 364 7 view .LVU1643
 365:HANcoder_E407_TTA_CombineModel_V2.c ****       rtb_SFunction_o7_dj = canRxData_0_rtu_In1.uint8_T_info[5];
 4387              		.loc 1 365 7 view .LVU1644
 366:HANcoder_E407_TTA_CombineModel_V2.c ****       rtb_SFunction_o8_n1 = canRxData_0_rtu_In1.uint8_T_info[6];
 4388              		.loc 1 366 7 view .LVU1645
 367:HANcoder_E407_TTA_CombineModel_V2.c ****       rtb_SFunction_o9_o = canRxData_0_rtu_In1.uint8_T_info[7];
 4389              		.loc 1 367 7 view .LVU1646
 368:HANcoder_E407_TTA_CombineModel_V2.c ****     }
 4390              		.loc 1 368 7 view .LVU1647
 372:HANcoder_E407_TTA_CombineModel_V2.c ****                      &localB->EnabledSubsystem_k);
 4391              		.loc 1 372 5 view .LVU1648
 4392              	.LBB243:
 4393              	.LBI243:
 284:HANcoder_E407_TTA_CombineModel_V2.c ****                       *localB)
 4394              		.loc 1 284 6 view .LVU1649
 4395              	.LBB244:
 290:HANcoder_E407_TTA_CombineModel_V2.c ****     /* SignalConversion generated from: '<S38>/In1' */
 4396              		.loc 1 290 3 view .LVU1650
 292:HANcoder_E407_TTA_CombineModel_V2.c ****   }
 4397              		.loc 1 292 5 view .LVU1651
 292:HANcoder_E407_TTA_CombineModel_V2.c ****   }
 4398              		.loc 1 292 17 is_stmt 0 view .LVU1652
 4399 0e96 98F80030 		ldrb	r3, [r8]	@ zero_extendqisi2
 4400 0e9a 8AF84230 		strb	r3, [r10, #66]
 4401 0e9e 4FE5     		b	.L168
 4402              	.LVL351:
 4403              	.L246:
 292:HANcoder_E407_TTA_CombineModel_V2.c ****   }
 4404              		.loc 1 292 17 view .LVU1653
 4405              	.LBE244:
 4406              	.LBE243:
 4407              	.LBE242:
 4408              	.LBE241:
 4409              	.LBE246:
 4410              	.LBE287:
 797:HANcoder_E407_TTA_CombineModel_V2.c **** 
 4411              		.loc 1 797 7 view .LVU1654
 4412 0ea0 0023     		movs	r3, #0
 4413 0ea2 EDE6     		b	.L106
 4414              	.LVL352:
 4415              	.L367:
1423:HANcoder_E407_TTA_CombineModel_V2.c **** 
 4416              		.loc 1 1423 5 is_stmt 1 view .LVU1655
1423:HANcoder_E407_TTA_CombineModel_V2.c **** 
 4417              		.loc 1 1423 5 is_stmt 0 view .LVU1656
 4418 0ea4 DFF84881 		ldr	r8, .L393+72
 4419              	.LVL353:
 4420              	.LBB288:
 332:HANcoder_E407_TTA_CombineModel_V2.c ****               rtDW_MMBS1_RX *localDW)
 4421              		.loc 1 332 6 is_stmt 1 view .LVU1657
 4422              	.LBB234:
 336:HANcoder_E407_TTA_CombineModel_V2.c ****   uint8_T rtb_SFunction_o3_b;
 4423              		.loc 1 336 3 view .LVU1658
 337:HANcoder_E407_TTA_CombineModel_V2.c ****   uint8_T rtb_SFunction_o4_l;
 4424              		.loc 1 337 3 view .LVU1659
 338:HANcoder_E407_TTA_CombineModel_V2.c ****   uint8_T rtb_SFunction_o5_e;
 4425              		.loc 1 338 3 view .LVU1660
 339:HANcoder_E407_TTA_CombineModel_V2.c ****   uint8_T rtb_SFunction_o6_k;
 4426              		.loc 1 339 3 view .LVU1661
 340:HANcoder_E407_TTA_CombineModel_V2.c ****   uint8_T rtb_SFunction_o7_dj;
 4427              		.loc 1 340 3 view .LVU1662
 341:HANcoder_E407_TTA_CombineModel_V2.c ****   uint8_T rtb_SFunction_o8_n1;
 4428              		.loc 1 341 3 view .LVU1663
 342:HANcoder_E407_TTA_CombineModel_V2.c ****   uint8_T rtb_SFunction_o9_o;
 4429              		.loc 1 342 3 view .LVU1664
 343:HANcoder_E407_TTA_CombineModel_V2.c ****   int8_T rtb_SFunction_o1_g;
 4430              		.loc 1 343 3 view .LVU1665
 344:HANcoder_E407_TTA_CombineModel_V2.c **** 
 4431              		.loc 1 344 3 view .LVU1666
 349:HANcoder_E407_TTA_CombineModel_V2.c ****     localDW->MMBS1_RX_MODE = true;
 4432              		.loc 1 349 3 view .LVU1667
 4433              	.LBB229:
 4434              	.LBI229:
 332:HANcoder_E407_TTA_CombineModel_V2.c ****               rtDW_MMBS1_RX *localDW)
 4435              		.loc 1 332 6 view .LVU1668
 4436              	.LBB230:
 350:HANcoder_E407_TTA_CombineModel_V2.c **** 
 4437              		.loc 1 350 5 view .LVU1669
 355:HANcoder_E407_TTA_CombineModel_V2.c ****       &canRxData_0_rtu_In1.uint8_T_info[0], NULL);
 4438              		.loc 1 355 26 is_stmt 0 view .LVU1670
 4439 0ea8 DFF84891 		ldr	r9, .L393+76
 4440 0eac 0090     		str	r0, [sp]
 350:HANcoder_E407_TTA_CombineModel_V2.c **** 
 4441              		.loc 1 350 28 view .LVU1671
 4442 0eae 0123     		movs	r3, #1
 4443 0eb0 84F84F30 		strb	r3, [r4, #79]
 355:HANcoder_E407_TTA_CombineModel_V2.c ****       &canRxData_0_rtu_In1.uint8_T_info[0], NULL);
 4444              		.loc 1 355 5 is_stmt 1 view .LVU1672
 355:HANcoder_E407_TTA_CombineModel_V2.c ****       &canRxData_0_rtu_In1.uint8_T_info[0], NULL);
 4445              		.loc 1 355 26 is_stmt 0 view .LVU1673
 4446 0eb4 D8F80010 		ldr	r1, [r8]
 4447 0eb8 4B46     		mov	r3, r9
 4448 0eba FFF7FEFF 		bl	CanIoGetMessage
 4449              	.LVL354:
 359:HANcoder_E407_TTA_CombineModel_V2.c ****       /* read the data */
 4450              		.loc 1 359 5 is_stmt 1 view .LVU1674
 359:HANcoder_E407_TTA_CombineModel_V2.c ****       /* read the data */
 4451              		.loc 1 359 8 is_stmt 0 view .LVU1675
 4452 0ebe 0028     		cmp	r0, #0
 4453 0ec0 7FF7A1AC 		ble	.L162
 361:HANcoder_E407_TTA_CombineModel_V2.c ****       rtb_SFunction_o3_b = canRxData_0_rtu_In1.uint8_T_info[1];
 4454              		.loc 1 361 7 is_stmt 1 view .LVU1676
 4455              	.LVL355:
 362:HANcoder_E407_TTA_CombineModel_V2.c ****       rtb_SFunction_o4_l = canRxData_0_rtu_In1.uint8_T_info[2];
 4456              		.loc 1 362 7 view .LVU1677
 363:HANcoder_E407_TTA_CombineModel_V2.c ****       rtb_SFunction_o5_e = canRxData_0_rtu_In1.uint8_T_info[3];
 4457              		.loc 1 363 7 view .LVU1678
 364:HANcoder_E407_TTA_CombineModel_V2.c ****       rtb_SFunction_o6_k = canRxData_0_rtu_In1.uint8_T_info[4];
 4458              		.loc 1 364 7 view .LVU1679
 365:HANcoder_E407_TTA_CombineModel_V2.c ****       rtb_SFunction_o7_dj = canRxData_0_rtu_In1.uint8_T_info[5];
 4459              		.loc 1 365 7 view .LVU1680
 366:HANcoder_E407_TTA_CombineModel_V2.c ****       rtb_SFunction_o8_n1 = canRxData_0_rtu_In1.uint8_T_info[6];
 4460              		.loc 1 366 7 view .LVU1681
 367:HANcoder_E407_TTA_CombineModel_V2.c ****       rtb_SFunction_o9_o = canRxData_0_rtu_In1.uint8_T_info[7];
 4461              		.loc 1 367 7 view .LVU1682
 368:HANcoder_E407_TTA_CombineModel_V2.c ****     }
 4462              		.loc 1 368 7 view .LVU1683
 372:HANcoder_E407_TTA_CombineModel_V2.c ****                      &localB->EnabledSubsystem_k);
 4463              		.loc 1 372 5 view .LVU1684
 4464              	.LBB231:
 4465              	.LBI231:
 284:HANcoder_E407_TTA_CombineModel_V2.c ****                       *localB)
 4466              		.loc 1 284 6 view .LVU1685
 4467              	.LBB232:
 290:HANcoder_E407_TTA_CombineModel_V2.c ****     /* SignalConversion generated from: '<S38>/In1' */
 4468              		.loc 1 290 3 view .LVU1686
 292:HANcoder_E407_TTA_CombineModel_V2.c ****   }
 4469              		.loc 1 292 5 view .LVU1687
 292:HANcoder_E407_TTA_CombineModel_V2.c ****   }
 4470              		.loc 1 292 17 is_stmt 0 view .LVU1688
 4471 0ec4 99F80030 		ldrb	r3, [r9]	@ zero_extendqisi2
 4472 0ec8 8AF85830 		strb	r3, [r10, #88]
 4473 0ecc 9BE4     		b	.L162
 4474              	.LVL356:
 4475              	.L374:
 292:HANcoder_E407_TTA_CombineModel_V2.c ****   }
 4476              		.loc 1 292 17 view .LVU1689
 4477              	.LBE232:
 4478              	.LBE231:
 4479              	.LBE230:
 4480              	.LBE229:
 4481              	.LBE234:
 4482              	.LBE288:
1933:HANcoder_E407_TTA_CombineModel_V2.c **** 
 4483              		.loc 1 1933 5 is_stmt 1 view .LVU1690
1933:HANcoder_E407_TTA_CombineModel_V2.c **** 
 4484              		.loc 1 1933 29 is_stmt 0 view .LVU1691
 4485 0ece 0123     		movs	r3, #1
1940:HANcoder_E407_TTA_CombineModel_V2.c ****       &canRxData_0_SYNC1_ID.uint8_T_info[0], NULL);
 4486              		.loc 1 1940 24 view .LVU1692
 4487 0ed0 0092     		str	r2, [sp]
 4488 0ed2 414D     		ldr	r5, .L393+48
1933:HANcoder_E407_TTA_CombineModel_V2.c **** 
 4489              		.loc 1 1933 29 view .LVU1693
 4490 0ed4 84F84730 		strb	r3, [r4, #71]
1940:HANcoder_E407_TTA_CombineModel_V2.c ****       &canRxData_0_SYNC1_ID.uint8_T_info[0], NULL);
 4491              		.loc 1 1940 5 is_stmt 1 view .LVU1694
1940:HANcoder_E407_TTA_CombineModel_V2.c ****       &canRxData_0_SYNC1_ID.uint8_T_info[0], NULL);
 4492              		.loc 1 1940 24 is_stmt 0 view .LVU1695
 4493 0ed8 404B     		ldr	r3, .L393+52
 4494 0eda 1968     		ldr	r1, [r3]
 4495 0edc 2B46     		mov	r3, r5
 4496 0ede FFF7FEFF 		bl	CanIoGetMessage
 4497              	.LVL357:
1944:HANcoder_E407_TTA_CombineModel_V2.c ****       /* read the data */
 4498              		.loc 1 1944 5 is_stmt 1 view .LVU1696
1944:HANcoder_E407_TTA_CombineModel_V2.c ****       /* read the data */
 4499              		.loc 1 1944 8 is_stmt 0 view .LVU1697
 4500 0ee2 021E     		subs	r2, r0, #0
1946:HANcoder_E407_TTA_CombineModel_V2.c ****       rtb_SFunction_o3 = canRxData_0_SYNC1_ID.uint8_T_info[1];
 4501              		.loc 1 1946 7 is_stmt 1 view .LVU1698
 4502              	.LVL358:
1947:HANcoder_E407_TTA_CombineModel_V2.c ****       rtb_SFunction_o4 = canRxData_0_SYNC1_ID.uint8_T_info[2];
 4503              		.loc 1 1947 7 view .LVU1699
1948:HANcoder_E407_TTA_CombineModel_V2.c ****       rtb_SFunction_o5 = canRxData_0_SYNC1_ID.uint8_T_info[3];
 4504              		.loc 1 1948 7 view .LVU1700
1949:HANcoder_E407_TTA_CombineModel_V2.c ****       rtb_SFunction_o6 = canRxData_0_SYNC1_ID.uint8_T_info[4];
 4505              		.loc 1 1949 7 view .LVU1701
1950:HANcoder_E407_TTA_CombineModel_V2.c ****       rtb_SFunction_o7 = canRxData_0_SYNC1_ID.uint8_T_info[5];
 4506              		.loc 1 1950 7 view .LVU1702
1951:HANcoder_E407_TTA_CombineModel_V2.c ****       rtb_SFunction_o8 = canRxData_0_SYNC1_ID.uint8_T_info[6];
 4507              		.loc 1 1951 7 view .LVU1703
1952:HANcoder_E407_TTA_CombineModel_V2.c ****       rtb_SFunction_o9 = canRxData_0_SYNC1_ID.uint8_T_info[7];
 4508              		.loc 1 1952 7 view .LVU1704
1953:HANcoder_E407_TTA_CombineModel_V2.c ****     }
 4509              		.loc 1 1953 7 view .LVU1705
1957:HANcoder_E407_TTA_CombineModel_V2.c **** 
 4510              		.loc 1 1957 5 view .LVU1706
 4511              	.LBB289:
 4512              	.LBI289:
 284:HANcoder_E407_TTA_CombineModel_V2.c ****                       *localB)
 4513              		.loc 1 284 6 view .LVU1707
 4514              	.LBB290:
 290:HANcoder_E407_TTA_CombineModel_V2.c ****     /* SignalConversion generated from: '<S38>/In1' */
 4515              		.loc 1 290 3 view .LVU1708
 292:HANcoder_E407_TTA_CombineModel_V2.c ****   }
 4516              		.loc 1 292 5 view .LVU1709
 292:HANcoder_E407_TTA_CombineModel_V2.c ****   }
 4517              		.loc 1 292 5 is_stmt 0 view .LVU1710
 4518              	.LBE290:
 4519              	.LBE289:
1964:HANcoder_E407_TTA_CombineModel_V2.c ****                           &rtPrevZCSigState.Subsystem1_Trig_ZCE,
 4520              		.loc 1 1964 5 is_stmt 1 view .LVU1711
 4521              	.LBB293:
 4522              	.LBB291:
 292:HANcoder_E407_TTA_CombineModel_V2.c ****   }
 4523              		.loc 1 292 17 is_stmt 0 view .LVU1712
 4524 0ee4 C8BF     		it	gt
 4525 0ee6 2B78     		ldrbgt	r3, [r5]	@ zero_extendqisi2
 4526              	.LBE291:
 4527              	.LBE293:
1964:HANcoder_E407_TTA_CombineModel_V2.c ****                           &rtPrevZCSigState.Subsystem1_Trig_ZCE,
 4528              		.loc 1 1964 15 view .LVU1713
 4529 0ee8 3A49     		ldr	r1, .L393+44
 4530              	.LBB294:
 4531              	.LBB292:
 292:HANcoder_E407_TTA_CombineModel_V2.c ****   }
 4532              		.loc 1 292 17 view .LVU1714
 4533 0eea C8BF     		it	gt
 4534 0eec 8AF82830 		strbgt	r3, [r10, #40]
 4535              	.LBE292:
 4536              	.LBE294:
1964:HANcoder_E407_TTA_CombineModel_V2.c ****                           &rtPrevZCSigState.Subsystem1_Trig_ZCE,
 4537              		.loc 1 1964 15 view .LVU1715
 4538 0ef0 0120     		movs	r0, #1
 4539              	.LVL359:
1964:HANcoder_E407_TTA_CombineModel_V2.c ****                           &rtPrevZCSigState.Subsystem1_Trig_ZCE,
 4540              		.loc 1 1964 15 view .LVU1716
 4541 0ef2 FFF7FEFF 		bl	rt_I32ZCFcn
 4542              	.LVL360:
1967:HANcoder_E407_TTA_CombineModel_V2.c ****       /* DataStoreWrite: '<S172>/Data Store Write' */
 4543              		.loc 1 1967 5 is_stmt 1 view .LVU1717
1967:HANcoder_E407_TTA_CombineModel_V2.c ****       /* DataStoreWrite: '<S172>/Data Store Write' */
 4544              		.loc 1 1967 8 is_stmt 0 view .LVU1718
 4545 0ef6 0028     		cmp	r0, #0
 4546 0ef8 40F0E980 		bne	.L201
2000:HANcoder_E407_TTA_CombineModel_V2.c ****     rtAction = 0;
 4547              		.loc 1 2000 14 view .LVU1719
 4548 0efc D4E90667 		ldrd	r6, [r4, #24]
 4549 0f00 58E6     		b	.L202
 4550              	.LVL361:
 4551              	.L365:
1167:HANcoder_E407_TTA_CombineModel_V2.c **** 
 4552              		.loc 1 1167 43 discriminator 2 view .LVU1720
 4553 0f02 F2EE047A 		vmov.f32	s15, #1.0e+1
 4554 0f06 B4EE678A 		vcmp.f32	s16, s15
 4555 0f0a F1EE10FA 		vmrs	APSR_nzcv, FPSCR
 4556 0f0e 3FF463AA 		beq	.L141
1167:HANcoder_E407_TTA_CombineModel_V2.c **** 
 4557              		.loc 1 1167 18 view .LVU1721
 4558 0f12 0023     		movs	r3, #0
 4559 0f14 59E4     		b	.L142
 4560              	.LVL362:
 4561              	.L363:
1034:HANcoder_E407_TTA_CombineModel_V2.c **** 
 4562              		.loc 1 1034 43 discriminator 2 view .LVU1722
 4563 0f16 F2EE047A 		vmov.f32	s15, #1.0e+1
 4564 0f1a B4EE678A 		vcmp.f32	s16, s15
 4565 0f1e F1EE10FA 		vmrs	APSR_nzcv, FPSCR
 4566 0f22 3FF4B6A9 		beq	.L130
 4567 0f26 02E0     		b	.L131
 4568              	.LVL363:
 4569              	.L348:
1024:HANcoder_E407_TTA_CombineModel_V2.c **** 
 4570              		.loc 1 1024 5 is_stmt 1 view .LVU1723
1024:HANcoder_E407_TTA_CombineModel_V2.c **** 
 4571              		.loc 1 1024 40 is_stmt 0 view .LVU1724
 4572 0f28 6B72     		strb	r3, [r5, #9]
1034:HANcoder_E407_TTA_CombineModel_V2.c **** 
 4573              		.loc 1 1034 5 is_stmt 1 view .LVU1725
1034:HANcoder_E407_TTA_CombineModel_V2.c **** 
 4574              		.loc 1 1034 35 is_stmt 0 view .LVU1726
 4575 0f2a B7EE008A 		vmov.f32	s16, #1.0e+0
 4576              	.LVL364:
 4577              	.L131:
1157:HANcoder_E407_TTA_CombineModel_V2.c **** 
 4578              		.loc 1 1157 5 is_stmt 1 view .LVU1727
1157:HANcoder_E407_TTA_CombineModel_V2.c **** 
 4579              		.loc 1 1157 46 is_stmt 0 view .LVU1728
 4580 0f2e 0023     		movs	r3, #0
 4581 0f30 2B72     		strb	r3, [r5, #8]
1167:HANcoder_E407_TTA_CombineModel_V2.c **** 
 4582              		.loc 1 1167 5 is_stmt 1 view .LVU1729
 4583 0f32 4AE4     		b	.L142
 4584              	.LVL365:
 4585              	.L341:
1347:HANcoder_E407_TTA_CombineModel_V2.c ****         rtb_Multiply1 = 0.0;
 4586              		.loc 1 1347 14 view .LVU1730
1347:HANcoder_E407_TTA_CombineModel_V2.c ****         rtb_Multiply1 = 0.0;
 4587              		.loc 1 1347 17 is_stmt 0 view .LVU1731
 4588 0f34 DDE90601 		ldrd	r0, [sp, #24]
 4589 0f38 0022     		movs	r2, #0
 4590 0f3a 0023     		movs	r3, #0
 4591 0f3c FFF7FEFF 		bl	__aeabi_dcmpge
 4592              	.LVL366:
 4593 0f40 0028     		cmp	r0, #0
 4594 0f42 3FF41EAC 		beq	.L153
 4595              	.LVL367:
1356:HANcoder_E407_TTA_CombineModel_V2.c **** 
 4596              		.loc 1 1356 7 is_stmt 1 view .LVU1732
1356:HANcoder_E407_TTA_CombineModel_V2.c **** 
 4597              		.loc 1 1356 24 is_stmt 0 view .LVU1733
 4598 0f46 264B     		ldr	r3, .L393+56
 4599 0f48 4046     		mov	r0, r8
 4600 0f4a D3E90023 		ldrd	r2, [r3]
 4601 0f4e 4946     		mov	r1, r9
 4602 0f50 FFF7FEFF 		bl	__aeabi_dmul
 4603              	.LVL368:
 4604 0f54 0646     		mov	r6, r0
 4605 0f56 0F46     		mov	r7, r1
 4606              	.LVL369:
1364:HANcoder_E407_TTA_CombineModel_V2.c ****         rtPrevAction = 1;
 4607              		.loc 1 1364 7 is_stmt 1 view .LVU1734
1367:HANcoder_E407_TTA_CombineModel_V2.c ****       }
 4608              		.loc 1 1367 9 view .LVU1735
1376:HANcoder_E407_TTA_CombineModel_V2.c ****         rtAction = 1;
 4609              		.loc 1 1376 7 view .LVU1736
 4610 0f58 2EE4     		b	.L156
 4611              	.LVL370:
 4612              	.L340:
1337:HANcoder_E407_TTA_CombineModel_V2.c **** 
 4613              		.loc 1 1337 7 discriminator 6 view .LVU1737
 4614 0f5a 86F00102 		eor	r2, r6, #1
1342:HANcoder_E407_TTA_CombineModel_V2.c **** 
 4615              		.loc 1 1342 7 discriminator 6 view .LVU1738
1334:HANcoder_E407_TTA_CombineModel_V2.c **** 
 4616              		.loc 1 1334 38 is_stmt 0 discriminator 6 view .LVU1739
 4617 0f5e 0346     		mov	r3, r0
 4618 0f60 FFF7F2BB 		b	.L150
 4619              	.LVL371:
 4620              	.L251:
1334:HANcoder_E407_TTA_CombineModel_V2.c **** 
 4621              		.loc 1 1334 38 discriminator 6 view .LVU1740
 4622 0f64 4FF44873 		mov	r3, #800
 4623 0f68 FFF7D4BB 		b	.L146
 4624              	.LVL372:
 4625              	.L117:
 4626              	.LBB295:
 4627              	.LBB195:
 397:HANcoder_E407_TTA_CombineModel_V2.c **** 
 4628              		.loc 1 397 7 is_stmt 1 view .LVU1741
 4629              	.LBE195:
 4630              	.LBE295:
 867:HANcoder_E407_TTA_CombineModel_V2.c **** 
 4631              		.loc 1 867 5 is_stmt 0 view .LVU1742
 4632 0f6c 1D4A     		ldr	r2, .L393+60
 4633              	.LBB296:
 4634              	.LBB196:
 397:HANcoder_E407_TTA_CombineModel_V2.c **** 
 4635              		.loc 1 397 33 view .LVU1743
 4636 0f6e 184B     		ldr	r3, .L393+40
 400:HANcoder_E407_TTA_CombineModel_V2.c ****     }
 4637              		.loc 1 400 7 view .LVU1744
 4638 0f70 1168     		ldr	r1, [r2]
 397:HANcoder_E407_TTA_CombineModel_V2.c **** 
 4639              		.loc 1 397 33 view .LVU1745
 4640 0f72 0020     		movs	r0, #0
 400:HANcoder_E407_TTA_CombineModel_V2.c ****     }
 4641              		.loc 1 400 7 view .LVU1746
 4642 0f74 0122     		movs	r2, #1
 397:HANcoder_E407_TTA_CombineModel_V2.c **** 
 4643              		.loc 1 397 33 view .LVU1747
 4644 0f76 1870     		strb	r0, [r3]
 400:HANcoder_E407_TTA_CombineModel_V2.c ****     }
 4645              		.loc 1 400 7 is_stmt 1 view .LVU1748
 4646 0f78 FFF7FEFF 		bl	CanTransmit
 4647              	.LVL373:
 400:HANcoder_E407_TTA_CombineModel_V2.c ****     }
 4648              		.loc 1 400 7 is_stmt 0 view .LVU1749
 4649              	.LBE196:
 4650              	.LBE296:
 874:HANcoder_E407_TTA_CombineModel_V2.c **** 
 4651              		.loc 1 874 33 view .LVU1750
 4652 0f7c 9BF80080 		ldrb	r8, [fp]	@ zero_extendqisi2
 4653              	.LVL374:
 880:HANcoder_E407_TTA_CombineModel_V2.c **** 
 4654              		.loc 1 880 28 view .LVU1751
 4655 0f80 94ED066B 		vldr.64	d6, [r4, #24]
 874:HANcoder_E407_TTA_CombineModel_V2.c **** 
 4656              		.loc 1 874 33 view .LVU1752
 4657 0f84 07EE908A 		vmov	s15, r8	@ int
 880:HANcoder_E407_TTA_CombineModel_V2.c **** 
 4658              		.loc 1 880 28 view .LVU1753
 4659 0f88 8DED066B 		vstr.64	d6, [sp, #24]
 874:HANcoder_E407_TTA_CombineModel_V2.c **** 
 4660              		.loc 1 874 33 view .LVU1754
 4661 0f8c F8EEE77A 		vcvt.f32.s32	s15, s15
 863:HANcoder_E407_TTA_CombineModel_V2.c **** 
 4662              		.loc 1 863 14 view .LVU1755
 4663 0f90 0120     		movs	r0, #1
 4664 0f92 FFF739B9 		b	.L116
 4665              	.LVL375:
 4666              	.L249:
1246:HANcoder_E407_TTA_CombineModel_V2.c ****       } else {
 4667              		.loc 1 1246 15 view .LVU1756
 4668 0f96 9FED047B 		vldr.64	d7, .L393
 4669 0f9a 8DED0E7B 		vstr.64	d7, [sp, #56]
 4670 0f9e FFF705BB 		b	.L144
 4671              	.L394:
 4672 0fa2 00BFAFF3 		.align	3
 4672      0080
 4673              	.L393:
 4674 0fa8 00000000 		.word	0
 4675 0fac 0000F0BF 		.word	-1074790400
 4676 0fb0 00001040 		.word	1074790400
 4677 0fb4 00000000 		.word	amounttrailers
 4678 0fb8 00000000 		.word	ResetPosition
 4679 0fbc 00000000 		.word	rtConstP
 4680 0fc0 0000F03F 		.word	1072693248
 4681 0fc4 00000000 		.word	positionID5
 4682 0fc8 00000000 		.word	positionID4
 4683 0fcc 00000000 		.word	SSTM1_ID
 4684 0fd0 00000000 		.word	canTxData
 4685 0fd4 00000000 		.word	rtPrevZCSigState
 4686 0fd8 00000000 		.word	canRxData_0_SYNC1_ID
 4687 0fdc 00000000 		.word	SYNC1_ID
 4688 0fe0 00000000 		.word	intVal
 4689 0fe4 00000000 		.word	MMBS1_ID
 4690 0fe8 00000000 		.word	rtB
 4691 0fec 00000000 		.word	TRCK1_ID1
 4692 0ff0 00000000 		.word	TRCK1_ID2
 4693 0ff4 00000000 		.word	canRxData_0_rtu_In1
 4694              	.LVL376:
 4695              	.L371:
1703:HANcoder_E407_TTA_CombineModel_V2.c ****       rtDWork.TRLS_ID5_RX_MODE = true;
 4696              		.loc 1 1703 5 is_stmt 1 view .LVU1757
1704:HANcoder_E407_TTA_CombineModel_V2.c **** 
 4697              		.loc 1 1704 7 view .LVU1758
1711:HANcoder_E407_TTA_CombineModel_V2.c ****         &canRxData_0_TRLS1_ID5.uint8_T_info[0], NULL);
 4698              		.loc 1 1711 28 is_stmt 0 view .LVU1759
 4699 0ff8 6F4B     		ldr	r3, .L395+8
 4700 0ffa 0090     		str	r0, [sp]
 4701 0ffc 6F4E     		ldr	r6, .L395+12
 4702 0ffe 1968     		ldr	r1, [r3]
1704:HANcoder_E407_TTA_CombineModel_V2.c **** 
 4703              		.loc 1 1704 32 view .LVU1760
 4704 1000 0123     		movs	r3, #1
 4705 1002 84F84930 		strb	r3, [r4, #73]
1711:HANcoder_E407_TTA_CombineModel_V2.c ****         &canRxData_0_TRLS1_ID5.uint8_T_info[0], NULL);
 4706              		.loc 1 1711 7 is_stmt 1 view .LVU1761
1711:HANcoder_E407_TTA_CombineModel_V2.c ****         &canRxData_0_TRLS1_ID5.uint8_T_info[0], NULL);
 4707              		.loc 1 1711 28 is_stmt 0 view .LVU1762
 4708 1006 3346     		mov	r3, r6
 4709 1008 FFF7FEFF 		bl	CanIoGetMessage
 4710              	.LVL377:
1715:HANcoder_E407_TTA_CombineModel_V2.c ****         /* read the data */
 4711              		.loc 1 1715 7 is_stmt 1 view .LVU1763
1715:HANcoder_E407_TTA_CombineModel_V2.c ****         /* read the data */
 4712              		.loc 1 1715 10 is_stmt 0 view .LVU1764
 4713 100c 0028     		cmp	r0, #0
 4714 100e 40F3B480 		ble	.L381
1717:HANcoder_E407_TTA_CombineModel_V2.c ****         rtb_SFunction_o3_m = canRxData_0_TRLS1_ID5.uint8_T_info[1];
 4715              		.loc 1 1717 9 is_stmt 1 view .LVU1765
1738:HANcoder_E407_TTA_CombineModel_V2.c ****       }
 4716              		.loc 1 1738 22 is_stmt 0 view .LVU1766
 4717 1012 6B48     		ldr	r0, .L395+16
 4718              	.LVL378:
1717:HANcoder_E407_TTA_CombineModel_V2.c ****         rtb_SFunction_o3_m = canRxData_0_TRLS1_ID5.uint8_T_info[1];
 4719              		.loc 1 1717 28 view .LVU1767
 4720 1014 3178     		ldrb	r1, [r6]	@ zero_extendqisi2
 4721              	.LVL379:
1718:HANcoder_E407_TTA_CombineModel_V2.c ****         rtb_SFunction_o4_b = canRxData_0_TRLS1_ID5.uint8_T_info[2];
 4722              		.loc 1 1718 9 is_stmt 1 view .LVU1768
1718:HANcoder_E407_TTA_CombineModel_V2.c ****         rtb_SFunction_o4_b = canRxData_0_TRLS1_ID5.uint8_T_info[2];
 4723              		.loc 1 1718 28 is_stmt 0 view .LVU1769
 4724 1016 7278     		ldrb	r2, [r6, #1]	@ zero_extendqisi2
 4725              	.LVL380:
1719:HANcoder_E407_TTA_CombineModel_V2.c ****         rtb_SFunction_o5_o = canRxData_0_TRLS1_ID5.uint8_T_info[3];
 4726              		.loc 1 1719 9 is_stmt 1 view .LVU1770
1720:HANcoder_E407_TTA_CombineModel_V2.c ****         rtb_SFunction_o6_i = canRxData_0_TRLS1_ID5.uint8_T_info[4];
 4727              		.loc 1 1720 9 view .LVU1771
1721:HANcoder_E407_TTA_CombineModel_V2.c ****         rtb_SFunction_o7_f = canRxData_0_TRLS1_ID5.uint8_T_info[5];
 4728              		.loc 1 1721 9 view .LVU1772
1722:HANcoder_E407_TTA_CombineModel_V2.c ****         rtb_SFunction_o8_p = canRxData_0_TRLS1_ID5.uint8_T_info[6];
 4729              		.loc 1 1722 9 view .LVU1773
1722:HANcoder_E407_TTA_CombineModel_V2.c ****         rtb_SFunction_o8_p = canRxData_0_TRLS1_ID5.uint8_T_info[6];
 4730              		.loc 1 1722 28 is_stmt 0 view .LVU1774
 4731 1018 7379     		ldrb	r3, [r6, #5]	@ zero_extendqisi2
 4732              	.LVL381:
1723:HANcoder_E407_TTA_CombineModel_V2.c ****         rtb_SFunction_o9_l = canRxData_0_TRLS1_ID5.uint8_T_info[7];
 4733              		.loc 1 1723 9 is_stmt 1 view .LVU1775
1724:HANcoder_E407_TTA_CombineModel_V2.c ****       }
 4734              		.loc 1 1724 9 view .LVU1776
1730:HANcoder_E407_TTA_CombineModel_V2.c ****         /* SignalConversion generated from: '<S161>/In1' */
 4735              		.loc 1 1730 7 view .LVU1777
1732:HANcoder_E407_TTA_CombineModel_V2.c **** 
 4736              		.loc 1 1732 9 view .LVU1778
1735:HANcoder_E407_TTA_CombineModel_V2.c **** 
 4737              		.loc 1 1735 9 view .LVU1779
1732:HANcoder_E407_TTA_CombineModel_V2.c **** 
 4738              		.loc 1 1732 17 is_stmt 0 view .LVU1780
 4739 101a 8AF81210 		strb	r1, [r10, #18]
1738:HANcoder_E407_TTA_CombineModel_V2.c ****       }
 4740              		.loc 1 1738 22 view .LVU1781
 4741 101e 0370     		strb	r3, [r0]
1735:HANcoder_E407_TTA_CombineModel_V2.c **** 
 4742              		.loc 1 1735 17 view .LVU1782
 4743 1020 8AF81320 		strb	r2, [r10, #19]
1738:HANcoder_E407_TTA_CombineModel_V2.c ****       }
 4744              		.loc 1 1738 9 is_stmt 1 view .LVU1783
 4745              	.LVL382:
 4746              	.L184:
1744:HANcoder_E407_TTA_CombineModel_V2.c **** 
 4747              		.loc 1 1744 7 view .LVU1784
 4748              	.LBB297:
 4749              	.LBB298:
 636:HANcoder_E407_TTA_CombineModel_V2.c **** }
 4750              		.loc 1 636 15 is_stmt 0 view .LVU1785
 4751 1024 0902     		lsls	r1, r1, #8
 4752              	.LBE298:
 4753              	.LBE297:
1744:HANcoder_E407_TTA_CombineModel_V2.c **** 
 4754              		.loc 1 1744 35 view .LVU1786
 4755 1026 84F83D30 		strb	r3, [r4, #61]
1747:HANcoder_E407_TTA_CombineModel_V2.c **** 
 4756              		.loc 1 1747 7 is_stmt 1 view .LVU1787
1750:HANcoder_E407_TTA_CombineModel_V2.c **** 
 4757              		.loc 1 1750 7 view .LVU1788
 4758              	.LVL383:
 4759              	.LBB301:
 4760              	.LBI297:
 631:HANcoder_E407_TTA_CombineModel_V2.c **** {
 4761              		.loc 1 631 6 view .LVU1789
 4762              	.LBB299:
 636:HANcoder_E407_TTA_CombineModel_V2.c **** }
 4763              		.loc 1 636 3 view .LVU1790
 4764              	.LBE299:
 4765              	.LBE301:
1759:HANcoder_E407_TTA_CombineModel_V2.c ****         ((uint16_T)62921U);
 4766              		.loc 1 1759 23 is_stmt 0 view .LVU1791
 4767 102a 5318     		adds	r3, r2, r1
1759:HANcoder_E407_TTA_CombineModel_V2.c ****         ((uint16_T)62921U);
 4768              		.loc 1 1759 13 view .LVU1792
 4769 102c 9BB2     		uxth	r3, r3
1759:HANcoder_E407_TTA_CombineModel_V2.c ****         ((uint16_T)62921U);
 4770              		.loc 1 1759 11 view .LVU1793
 4771 102e 4FF2C952 		movw	r2, #62921
 4772 1032 02FB03F3 		mul	r3, r2, r3
1761:HANcoder_E407_TTA_CombineModel_V2.c ****         (tmp >> 22));
 4773              		.loc 1 1761 44 view .LVU1794
 4774 1036 C3F34052 		ubfx	r2, r3, #21, #1
1761:HANcoder_E407_TTA_CombineModel_V2.c ****         (tmp >> 22));
 4775              		.loc 1 1761 33 view .LVU1795
 4776 103a 02EB9353 		add	r3, r2, r3, lsr #22
1761:HANcoder_E407_TTA_CombineModel_V2.c ****         (tmp >> 22));
 4777              		.loc 1 1761 31 view .LVU1796
 4778 103e A386     		strh	r3, [r4, #52]	@ movhi
1770:HANcoder_E407_TTA_CombineModel_V2.c **** 
 4779              		.loc 1 1770 18 view .LVU1797
 4780 1040 0023     		movs	r3, #0
1932:HANcoder_E407_TTA_CombineModel_V2.c ****     rtDWork.Subsystem2_MODE = true;
 4781              		.loc 1 1932 15 view .LVU1798
 4782 1042 D4E90667 		ldrd	r6, [r4, #24]
 4783              	.LBB302:
 4784              	.LBB300:
 636:HANcoder_E407_TTA_CombineModel_V2.c **** }
 4785              		.loc 1 636 13 view .LVU1799
 4786 1046 AAF82E10 		strh	r1, [r10, #46]	@ movhi
 4787              	.LVL384:
 636:HANcoder_E407_TTA_CombineModel_V2.c **** }
 4788              		.loc 1 636 13 view .LVU1800
 4789              	.LBE300:
 4790              	.LBE302:
1759:HANcoder_E407_TTA_CombineModel_V2.c ****         ((uint16_T)62921U);
 4791              		.loc 1 1759 7 is_stmt 1 view .LVU1801
1761:HANcoder_E407_TTA_CombineModel_V2.c ****         (tmp >> 22));
 4792              		.loc 1 1761 7 view .LVU1802
1770:HANcoder_E407_TTA_CombineModel_V2.c **** 
 4793              		.loc 1 1770 5 view .LVU1803
1827:HANcoder_E407_TTA_CombineModel_V2.c **** 
 4794              		.loc 1 1827 5 view .LVU1804
1827:HANcoder_E407_TTA_CombineModel_V2.c **** 
 4795              		.loc 1 1827 43 is_stmt 0 view .LVU1805
 4796 104a AB70     		strb	r3, [r5, #2]
 4797 104c 91E5     		b	.L186
 4798              	.LVL385:
 4799              	.L370:
1556:HANcoder_E407_TTA_CombineModel_V2.c ****       rtDWork.TRLS_ID4_RX_MODE = true;
 4800              		.loc 1 1556 5 is_stmt 1 view .LVU1806
1557:HANcoder_E407_TTA_CombineModel_V2.c **** 
 4801              		.loc 1 1557 7 view .LVU1807
1564:HANcoder_E407_TTA_CombineModel_V2.c ****         &canRxData_0_TRLS1_ID4.uint8_T_info[0], NULL);
 4802              		.loc 1 1564 28 is_stmt 0 view .LVU1808
 4803 104e 5D4B     		ldr	r3, .L395+20
 4804 1050 0090     		str	r0, [sp]
 4805 1052 5D4E     		ldr	r6, .L395+24
 4806              	.LVL386:
1564:HANcoder_E407_TTA_CombineModel_V2.c ****         &canRxData_0_TRLS1_ID4.uint8_T_info[0], NULL);
 4807              		.loc 1 1564 28 view .LVU1809
 4808 1054 1968     		ldr	r1, [r3]
1557:HANcoder_E407_TTA_CombineModel_V2.c **** 
 4809              		.loc 1 1557 32 view .LVU1810
 4810 1056 0123     		movs	r3, #1
 4811 1058 84F84A30 		strb	r3, [r4, #74]
1564:HANcoder_E407_TTA_CombineModel_V2.c ****         &canRxData_0_TRLS1_ID4.uint8_T_info[0], NULL);
 4812              		.loc 1 1564 7 is_stmt 1 view .LVU1811
1564:HANcoder_E407_TTA_CombineModel_V2.c ****         &canRxData_0_TRLS1_ID4.uint8_T_info[0], NULL);
 4813              		.loc 1 1564 28 is_stmt 0 view .LVU1812
 4814 105c 3346     		mov	r3, r6
 4815 105e FFF7FEFF 		bl	CanIoGetMessage
 4816              	.LVL387:
1568:HANcoder_E407_TTA_CombineModel_V2.c ****         /* read the data */
 4817              		.loc 1 1568 7 is_stmt 1 view .LVU1813
1568:HANcoder_E407_TTA_CombineModel_V2.c ****         /* read the data */
 4818              		.loc 1 1568 10 is_stmt 0 view .LVU1814
 4819 1062 0028     		cmp	r0, #0
 4820 1064 40F38280 		ble	.L382
1570:HANcoder_E407_TTA_CombineModel_V2.c ****         rtb_SFunction_o3_p = canRxData_0_TRLS1_ID4.uint8_T_info[1];
 4821              		.loc 1 1570 9 is_stmt 1 view .LVU1815
1591:HANcoder_E407_TTA_CombineModel_V2.c ****       }
 4822              		.loc 1 1591 22 is_stmt 0 view .LVU1816
 4823 1068 5848     		ldr	r0, .L395+28
 4824              	.LVL388:
1570:HANcoder_E407_TTA_CombineModel_V2.c ****         rtb_SFunction_o3_p = canRxData_0_TRLS1_ID4.uint8_T_info[1];
 4825              		.loc 1 1570 28 view .LVU1817
 4826 106a 3178     		ldrb	r1, [r6]	@ zero_extendqisi2
 4827              	.LVL389:
1571:HANcoder_E407_TTA_CombineModel_V2.c ****         rtb_SFunction_o4_c = canRxData_0_TRLS1_ID4.uint8_T_info[2];
 4828              		.loc 1 1571 9 is_stmt 1 view .LVU1818
1571:HANcoder_E407_TTA_CombineModel_V2.c ****         rtb_SFunction_o4_c = canRxData_0_TRLS1_ID4.uint8_T_info[2];
 4829              		.loc 1 1571 28 is_stmt 0 view .LVU1819
 4830 106c 7278     		ldrb	r2, [r6, #1]	@ zero_extendqisi2
 4831              	.LVL390:
1572:HANcoder_E407_TTA_CombineModel_V2.c ****         rtb_SFunction_o5_c = canRxData_0_TRLS1_ID4.uint8_T_info[3];
 4832              		.loc 1 1572 9 is_stmt 1 view .LVU1820
1573:HANcoder_E407_TTA_CombineModel_V2.c ****         rtb_SFunction_o6_e = canRxData_0_TRLS1_ID4.uint8_T_info[4];
 4833              		.loc 1 1573 9 view .LVU1821
1574:HANcoder_E407_TTA_CombineModel_V2.c ****         rtb_SFunction_o7_l = canRxData_0_TRLS1_ID4.uint8_T_info[5];
 4834              		.loc 1 1574 9 view .LVU1822
1575:HANcoder_E407_TTA_CombineModel_V2.c ****         rtb_SFunction_o8_f = canRxData_0_TRLS1_ID4.uint8_T_info[6];
 4835              		.loc 1 1575 9 view .LVU1823
1575:HANcoder_E407_TTA_CombineModel_V2.c ****         rtb_SFunction_o8_f = canRxData_0_TRLS1_ID4.uint8_T_info[6];
 4836              		.loc 1 1575 28 is_stmt 0 view .LVU1824
 4837 106e 7379     		ldrb	r3, [r6, #5]	@ zero_extendqisi2
 4838              	.LVL391:
1576:HANcoder_E407_TTA_CombineModel_V2.c ****         rtb_SFunction_o9_h = canRxData_0_TRLS1_ID4.uint8_T_info[7];
 4839              		.loc 1 1576 9 is_stmt 1 view .LVU1825
1577:HANcoder_E407_TTA_CombineModel_V2.c ****       }
 4840              		.loc 1 1577 9 view .LVU1826
1583:HANcoder_E407_TTA_CombineModel_V2.c ****         /* SignalConversion generated from: '<S149>/In1' */
 4841              		.loc 1 1583 7 view .LVU1827
1585:HANcoder_E407_TTA_CombineModel_V2.c **** 
 4842              		.loc 1 1585 9 view .LVU1828
1588:HANcoder_E407_TTA_CombineModel_V2.c **** 
 4843              		.loc 1 1588 9 view .LVU1829
1585:HANcoder_E407_TTA_CombineModel_V2.c **** 
 4844              		.loc 1 1585 19 is_stmt 0 view .LVU1830
 4845 1070 8AF81A10 		strb	r1, [r10, #26]
1591:HANcoder_E407_TTA_CombineModel_V2.c ****       }
 4846              		.loc 1 1591 22 view .LVU1831
 4847 1074 0370     		strb	r3, [r0]
1588:HANcoder_E407_TTA_CombineModel_V2.c **** 
 4848              		.loc 1 1588 19 view .LVU1832
 4849 1076 8AF81B20 		strb	r2, [r10, #27]
1591:HANcoder_E407_TTA_CombineModel_V2.c ****       }
 4850              		.loc 1 1591 9 is_stmt 1 view .LVU1833
 4851              	.LVL392:
 4852              	.L178:
1597:HANcoder_E407_TTA_CombineModel_V2.c **** 
 4853              		.loc 1 1597 7 view .LVU1834
1600:HANcoder_E407_TTA_CombineModel_V2.c **** 
 4854              		.loc 1 1600 7 view .LVU1835
 4855              	.LBB303:
 4856              	.LBI303:
 631:HANcoder_E407_TTA_CombineModel_V2.c **** {
 4857              		.loc 1 631 6 view .LVU1836
 4858              	.LBB304:
 636:HANcoder_E407_TTA_CombineModel_V2.c **** }
 4859              		.loc 1 636 3 view .LVU1837
 636:HANcoder_E407_TTA_CombineModel_V2.c **** }
 4860              		.loc 1 636 15 is_stmt 0 view .LVU1838
 4861 107a 0902     		lsls	r1, r1, #8
 4862              	.LVL393:
 636:HANcoder_E407_TTA_CombineModel_V2.c **** }
 4863              		.loc 1 636 15 view .LVU1839
 4864              	.LBE304:
 4865              	.LBE303:
1615:HANcoder_E407_TTA_CombineModel_V2.c ****     } else if (rtDWork.TRLS_ID4_RX_MODE) {
 4866              		.loc 1 1615 35 view .LVU1840
 4867 107c 84F83E30 		strb	r3, [r4, #62]
1609:HANcoder_E407_TTA_CombineModel_V2.c ****         ((uint16_T)62921U);
 4868              		.loc 1 1609 23 view .LVU1841
 4869 1080 5318     		adds	r3, r2, r1
1687:HANcoder_E407_TTA_CombineModel_V2.c **** 
 4870              		.loc 1 1687 33 view .LVU1842
 4871 1082 9BF80020 		ldrb	r2, [fp]	@ zero_extendqisi2
 4872              	.LBB306:
 4873              	.LBB305:
 636:HANcoder_E407_TTA_CombineModel_V2.c **** }
 4874              		.loc 1 636 13 view .LVU1843
 4875 1086 AAF83410 		strh	r1, [r10, #52]	@ movhi
 4876              	.LVL394:
 636:HANcoder_E407_TTA_CombineModel_V2.c **** }
 4877              		.loc 1 636 13 view .LVU1844
 4878              	.LBE305:
 4879              	.LBE306:
1609:HANcoder_E407_TTA_CombineModel_V2.c ****         ((uint16_T)62921U);
 4880              		.loc 1 1609 7 is_stmt 1 view .LVU1845
1687:HANcoder_E407_TTA_CombineModel_V2.c **** 
 4881              		.loc 1 1687 33 is_stmt 0 view .LVU1846
 4882 108a 08EE102A 		vmov	s16, r2	@ int
 4883              	.LVL395:
1609:HANcoder_E407_TTA_CombineModel_V2.c ****         ((uint16_T)62921U);
 4884              		.loc 1 1609 13 view .LVU1847
 4885 108e 9BB2     		uxth	r3, r3
1609:HANcoder_E407_TTA_CombineModel_V2.c ****         ((uint16_T)62921U);
 4886              		.loc 1 1609 11 view .LVU1848
 4887 1090 4FF2C952 		movw	r2, #62921
 4888 1094 02FB03F3 		mul	r3, r2, r3
 4889              	.LVL396:
1611:HANcoder_E407_TTA_CombineModel_V2.c ****         (tmp >> 22));
 4890              		.loc 1 1611 7 is_stmt 1 view .LVU1849
1611:HANcoder_E407_TTA_CombineModel_V2.c ****         (tmp >> 22));
 4891              		.loc 1 1611 44 is_stmt 0 view .LVU1850
 4892 1098 C3F34052 		ubfx	r2, r3, #21, #1
1611:HANcoder_E407_TTA_CombineModel_V2.c ****         (tmp >> 22));
 4893              		.loc 1 1611 33 view .LVU1851
 4894 109c 02EB9353 		add	r3, r2, r3, lsr #22
 4895              	.LVL397:
1611:HANcoder_E407_TTA_CombineModel_V2.c ****         (tmp >> 22));
 4896              		.loc 1 1611 31 view .LVU1852
 4897 10a0 6386     		strh	r3, [r4, #50]	@ movhi
1615:HANcoder_E407_TTA_CombineModel_V2.c ****     } else if (rtDWork.TRLS_ID4_RX_MODE) {
 4898              		.loc 1 1615 7 is_stmt 1 view .LVU1853
1623:HANcoder_E407_TTA_CombineModel_V2.c **** 
 4899              		.loc 1 1623 5 view .LVU1854
1693:HANcoder_E407_TTA_CombineModel_V2.c **** 
 4900              		.loc 1 1693 27 is_stmt 0 view .LVU1855
 4901 10a2 D4E90667 		ldrd	r6, [r4, #24]
1687:HANcoder_E407_TTA_CombineModel_V2.c **** 
 4902              		.loc 1 1687 33 view .LVU1856
 4903 10a6 B8EEC88A 		vcvt.f32.s32	s16, s16
1623:HANcoder_E407_TTA_CombineModel_V2.c **** 
 4904              		.loc 1 1623 18 view .LVU1857
 4905 10aa 0023     		movs	r3, #0
 4906 10ac D1E4     		b	.L179
 4907              	.LVL398:
 4908              	.L369:
1501:HANcoder_E407_TTA_CombineModel_V2.c **** 
 4909              		.loc 1 1501 7 is_stmt 1 view .LVU1858
1508:HANcoder_E407_TTA_CombineModel_V2.c ****         &canRxData_0_TRCK1_ID3.uint8_T_info[0], NULL);
 4910              		.loc 1 1508 29 is_stmt 0 view .LVU1859
 4911 10ae 3168     		ldr	r1, [r6]
 4912 10b0 474E     		ldr	r6, .L395+32
 4913 10b2 0090     		str	r0, [sp]
1501:HANcoder_E407_TTA_CombineModel_V2.c **** 
 4914              		.loc 1 1501 32 view .LVU1860
 4915 10b4 0123     		movs	r3, #1
 4916 10b6 84F84B30 		strb	r3, [r4, #75]
1508:HANcoder_E407_TTA_CombineModel_V2.c ****         &canRxData_0_TRCK1_ID3.uint8_T_info[0], NULL);
 4917              		.loc 1 1508 7 is_stmt 1 view .LVU1861
1508:HANcoder_E407_TTA_CombineModel_V2.c ****         &canRxData_0_TRCK1_ID3.uint8_T_info[0], NULL);
 4918              		.loc 1 1508 29 is_stmt 0 view .LVU1862
 4919 10ba 3346     		mov	r3, r6
 4920 10bc FFF7FEFF 		bl	CanIoGetMessage
 4921              	.LVL399:
1512:HANcoder_E407_TTA_CombineModel_V2.c ****         /* read the data */
 4922              		.loc 1 1512 7 is_stmt 1 view .LVU1863
1512:HANcoder_E407_TTA_CombineModel_V2.c ****         /* read the data */
 4923              		.loc 1 1512 10 is_stmt 0 view .LVU1864
 4924 10c0 0028     		cmp	r0, #0
 4925 10c2 7FF769AC 		ble	.L172
1514:HANcoder_E407_TTA_CombineModel_V2.c ****         rtb_SFunction_o3_a = canRxData_0_TRCK1_ID3.uint8_T_info[1];
 4926              		.loc 1 1514 9 is_stmt 1 view .LVU1865
 4927              	.LVL400:
1515:HANcoder_E407_TTA_CombineModel_V2.c ****         rtb_SFunction_o4_i = canRxData_0_TRCK1_ID3.uint8_T_info[2];
 4928              		.loc 1 1515 9 view .LVU1866
1516:HANcoder_E407_TTA_CombineModel_V2.c ****         rtb_SFunction_o5_k = canRxData_0_TRCK1_ID3.uint8_T_info[3];
 4929              		.loc 1 1516 9 view .LVU1867
1517:HANcoder_E407_TTA_CombineModel_V2.c ****         rtb_SFunction_o6_c = canRxData_0_TRCK1_ID3.uint8_T_info[4];
 4930              		.loc 1 1517 9 view .LVU1868
1518:HANcoder_E407_TTA_CombineModel_V2.c ****         rtb_SFunction_o7_d = canRxData_0_TRCK1_ID3.uint8_T_info[5];
 4931              		.loc 1 1518 9 view .LVU1869
1519:HANcoder_E407_TTA_CombineModel_V2.c ****         rtb_SFunction_o8_h = canRxData_0_TRCK1_ID3.uint8_T_info[6];
 4932              		.loc 1 1519 9 view .LVU1870
1520:HANcoder_E407_TTA_CombineModel_V2.c ****         rtb_SFunction_o9_b = canRxData_0_TRCK1_ID3.uint8_T_info[7];
 4933              		.loc 1 1520 9 view .LVU1871
1521:HANcoder_E407_TTA_CombineModel_V2.c ****       }
 4934              		.loc 1 1521 9 view .LVU1872
1525:HANcoder_E407_TTA_CombineModel_V2.c ****                        &rtB.EnabledSubsystem_b);
 4935              		.loc 1 1525 7 view .LVU1873
 4936              	.LBB307:
 4937              	.LBI307:
 284:HANcoder_E407_TTA_CombineModel_V2.c ****                       *localB)
 4938              		.loc 1 284 6 view .LVU1874
 4939              	.LBB308:
 290:HANcoder_E407_TTA_CombineModel_V2.c ****     /* SignalConversion generated from: '<S38>/In1' */
 4940              		.loc 1 290 3 view .LVU1875
 292:HANcoder_E407_TTA_CombineModel_V2.c ****   }
 4941              		.loc 1 292 5 view .LVU1876
 292:HANcoder_E407_TTA_CombineModel_V2.c ****   }
 4942              		.loc 1 292 17 is_stmt 0 view .LVU1877
 4943 10c6 3378     		ldrb	r3, [r6]	@ zero_extendqisi2
 4944 10c8 8AF83630 		strb	r3, [r10, #54]
 4945 10cc 64E4     		b	.L172
 4946              	.LVL401:
 4947              	.L201:
 292:HANcoder_E407_TTA_CombineModel_V2.c ****   }
 4948              		.loc 1 292 17 view .LVU1878
 4949              	.LBE308:
 4950              	.LBE307:
1969:HANcoder_E407_TTA_CombineModel_V2.c **** 
 4951              		.loc 1 1969 7 is_stmt 1 view .LVU1879
1969:HANcoder_E407_TTA_CombineModel_V2.c **** 
 4952              		.loc 1 1969 24 is_stmt 0 view .LVU1880
 4953 10ce 9AF82810 		ldrb	r1, [r10, #40]	@ zero_extendqisi2
 4954 10d2 84F84110 		strb	r1, [r4, #65]
1974:HANcoder_E407_TTA_CombineModel_V2.c **** 
 4955              		.loc 1 1974 7 is_stmt 1 view .LVU1881
1979:HANcoder_E407_TTA_CombineModel_V2.c **** 
 4956              		.loc 1 1979 7 view .LVU1882
1979:HANcoder_E407_TTA_CombineModel_V2.c **** 
 4957              		.loc 1 1979 28 is_stmt 0 view .LVU1883
 4958 10d6 0122     		movs	r2, #1
1974:HANcoder_E407_TTA_CombineModel_V2.c **** 
 4959              		.loc 1 1974 27 view .LVU1884
 4960 10d8 4FF48073 		mov	r3, #256
2000:HANcoder_E407_TTA_CombineModel_V2.c ****     rtAction = 0;
 4961              		.loc 1 2000 14 view .LVU1885
 4962 10dc D4E90667 		ldrd	r6, [r4, #24]
1979:HANcoder_E407_TTA_CombineModel_V2.c **** 
 4963              		.loc 1 1979 28 view .LVU1886
 4964 10e0 84F84220 		strb	r2, [r4, #66]
1984:HANcoder_E407_TTA_CombineModel_V2.c ****     }
 4965              		.loc 1 1984 7 is_stmt 1 view .LVU1887
1974:HANcoder_E407_TTA_CombineModel_V2.c **** 
 4966              		.loc 1 1974 27 is_stmt 0 view .LVU1888
 4967 10e4 6387     		strh	r3, [r4, #58]	@ movhi
 4968 10e6 65E5     		b	.L202
 4969              	.LVL402:
 4970              	.L364:
1087:HANcoder_E407_TTA_CombineModel_V2.c ****       }
 4971              		.loc 1 1087 9 is_stmt 1 view .LVU1889
 4972 10e8 0120     		movs	r0, #1
 4973 10ea FFF7FEFF 		bl	QuadEncResetCounter
 4974              	.LVL403:
 4975 10ee FFF71CB9 		b	.L133
 4976              	.LVL404:
 4977              	.L339:
1248:HANcoder_E407_TTA_CombineModel_V2.c ****       }
 4978              		.loc 1 1248 15 is_stmt 0 view .LVU1890
 4979 10f2 9FED2F7B 		vldr.64	d7, .L395
 4980 10f6 8DED0E7B 		vstr.64	d7, [sp, #56]
 4981 10fa FFF757BA 		b	.L144
 4982              	.LVL405:
 4983              	.L125:
 921:HANcoder_E407_TTA_CombineModel_V2.c ****       rtDWork.SYNC1_RX_MODE = true;
 4984              		.loc 1 921 5 is_stmt 1 view .LVU1891
 922:HANcoder_E407_TTA_CombineModel_V2.c **** 
 4985              		.loc 1 922 7 view .LVU1892
 922:HANcoder_E407_TTA_CombineModel_V2.c **** 
 4986              		.loc 1 922 29 is_stmt 0 view .LVU1893
 4987 10fe 84F84C80 		strb	r8, [r4, #76]
 929:HANcoder_E407_TTA_CombineModel_V2.c ****         &canRxData_0_SYNC1_ID.uint8_T_info[0], NULL);
 4988              		.loc 1 929 7 is_stmt 1 view .LVU1894
 929:HANcoder_E407_TTA_CombineModel_V2.c ****         &canRxData_0_SYNC1_ID.uint8_T_info[0], NULL);
 4989              		.loc 1 929 28 is_stmt 0 view .LVU1895
 4990 1102 344B     		ldr	r3, .L395+36
 4991 1104 DFF8D480 		ldr	r8, .L395+44
 4992 1108 0090     		str	r0, [sp]
 4993 110a 1968     		ldr	r1, [r3]
 4994 110c 4346     		mov	r3, r8
 4995 110e FFF7FEFF 		bl	CanIoGetMessage
 4996              	.LVL406:
 933:HANcoder_E407_TTA_CombineModel_V2.c ****         /* read the data */
 4997              		.loc 1 933 7 is_stmt 1 view .LVU1896
 933:HANcoder_E407_TTA_CombineModel_V2.c ****         /* read the data */
 4998              		.loc 1 933 10 is_stmt 0 view .LVU1897
 4999 1112 021E     		subs	r2, r0, #0
 935:HANcoder_E407_TTA_CombineModel_V2.c ****         rtb_SFunction_o3_g = canRxData_0_SYNC1_ID.uint8_T_info[1];
 5000              		.loc 1 935 9 is_stmt 1 view .LVU1898
 5001              	.LVL407:
 936:HANcoder_E407_TTA_CombineModel_V2.c ****         rtb_SFunction_o4_j = canRxData_0_SYNC1_ID.uint8_T_info[2];
 5002              		.loc 1 936 9 view .LVU1899
 937:HANcoder_E407_TTA_CombineModel_V2.c ****         rtb_SFunction_o5_f = canRxData_0_SYNC1_ID.uint8_T_info[3];
 5003              		.loc 1 937 9 view .LVU1900
 938:HANcoder_E407_TTA_CombineModel_V2.c ****         rtb_SFunction_o6_g = canRxData_0_SYNC1_ID.uint8_T_info[4];
 5004              		.loc 1 938 9 view .LVU1901
 939:HANcoder_E407_TTA_CombineModel_V2.c ****         rtb_SFunction_o7_k = canRxData_0_SYNC1_ID.uint8_T_info[5];
 5005              		.loc 1 939 9 view .LVU1902
 940:HANcoder_E407_TTA_CombineModel_V2.c ****         rtb_SFunction_o8_n = canRxData_0_SYNC1_ID.uint8_T_info[6];
 5006              		.loc 1 940 9 view .LVU1903
 941:HANcoder_E407_TTA_CombineModel_V2.c ****         rtb_SFunction_o9_b1 = canRxData_0_SYNC1_ID.uint8_T_info[7];
 5007              		.loc 1 941 9 view .LVU1904
 942:HANcoder_E407_TTA_CombineModel_V2.c ****       }
 5008              		.loc 1 942 9 view .LVU1905
 946:HANcoder_E407_TTA_CombineModel_V2.c ****                        &rtB.EnabledSubsystem_c);
 5009              		.loc 1 946 7 view .LVU1906
 5010              	.LBB309:
 5011              	.LBI309:
 284:HANcoder_E407_TTA_CombineModel_V2.c ****                       *localB)
 5012              		.loc 1 284 6 view .LVU1907
 5013              	.LBB310:
 290:HANcoder_E407_TTA_CombineModel_V2.c ****     /* SignalConversion generated from: '<S38>/In1' */
 5014              		.loc 1 290 3 view .LVU1908
 292:HANcoder_E407_TTA_CombineModel_V2.c ****   }
 5015              		.loc 1 292 5 view .LVU1909
 292:HANcoder_E407_TTA_CombineModel_V2.c ****   }
 5016              		.loc 1 292 5 is_stmt 0 view .LVU1910
 5017              	.LBE310:
 5018              	.LBE309:
 954:HANcoder_E407_TTA_CombineModel_V2.c ****                             &rtPrevZCSigState.Subsystem_Trig_ZCE_h,
 5019              		.loc 1 954 7 is_stmt 1 view .LVU1911
 5020              	.LBB313:
 5021              	.LBB311:
 292:HANcoder_E407_TTA_CombineModel_V2.c ****   }
 5022              		.loc 1 292 17 is_stmt 0 view .LVU1912
 5023 1114 C8BF     		it	gt
 5024 1116 98F80030 		ldrbgt	r3, [r8]	@ zero_extendqisi2
 5025              	.LBE311:
 5026              	.LBE313:
 954:HANcoder_E407_TTA_CombineModel_V2.c ****                             &rtPrevZCSigState.Subsystem_Trig_ZCE_h,
 5027              		.loc 1 954 17 view .LVU1913
 5028 111a 2F49     		ldr	r1, .L395+40
 5029              	.LBB314:
 5030              	.LBB312:
 292:HANcoder_E407_TTA_CombineModel_V2.c ****   }
 5031              		.loc 1 292 17 view .LVU1914
 5032 111c C8BF     		it	gt
 5033 111e 8AF86430 		strbgt	r3, [r10, #100]
 5034              	.LBE312:
 5035              	.LBE314:
 954:HANcoder_E407_TTA_CombineModel_V2.c ****                             &rtPrevZCSigState.Subsystem_Trig_ZCE_h,
 5036              		.loc 1 954 17 view .LVU1915
 5037 1122 0120     		movs	r0, #1
 5038              	.LVL408:
 954:HANcoder_E407_TTA_CombineModel_V2.c ****                             &rtPrevZCSigState.Subsystem_Trig_ZCE_h,
 5039              		.loc 1 954 17 view .LVU1916
 5040 1124 FFF7FEFF 		bl	rt_I32ZCFcn
 5041              	.LVL409:
 957:HANcoder_E407_TTA_CombineModel_V2.c ****         /* DataStoreWrite: '<S44>/Data Store Write' */
 5042              		.loc 1 957 7 is_stmt 1 view .LVU1917
 957:HANcoder_E407_TTA_CombineModel_V2.c ****         /* DataStoreWrite: '<S44>/Data Store Write' */
 5043              		.loc 1 957 10 is_stmt 0 view .LVU1918
 5044 1128 30B1     		cbz	r0, .L128
 959:HANcoder_E407_TTA_CombineModel_V2.c **** 
 5045              		.loc 1 959 9 is_stmt 1 view .LVU1919
 959:HANcoder_E407_TTA_CombineModel_V2.c **** 
 5046              		.loc 1 959 26 is_stmt 0 view .LVU1920
 5047 112a 9AF86430 		ldrb	r3, [r10, #100]	@ zero_extendqisi2
 5048 112e 84F84130 		strb	r3, [r4, #65]
 964:HANcoder_E407_TTA_CombineModel_V2.c **** 
 5049              		.loc 1 964 9 is_stmt 1 view .LVU1921
 969:HANcoder_E407_TTA_CombineModel_V2.c ****       }
 5050              		.loc 1 969 9 view .LVU1922
 964:HANcoder_E407_TTA_CombineModel_V2.c **** 
 5051              		.loc 1 964 29 is_stmt 0 view .LVU1923
 5052 1132 4FF48173 		mov	r3, #258
 5053 1136 6387     		strh	r3, [r4, #58]	@ movhi
 980:HANcoder_E407_TTA_CombineModel_V2.c **** 
 5054              		.loc 1 980 5 is_stmt 1 view .LVU1924
 5055              	.L128:
1034:HANcoder_E407_TTA_CombineModel_V2.c **** 
 5056              		.loc 1 1034 35 is_stmt 0 view .LVU1925
 5057 1138 9BF80080 		ldrb	r8, [fp]	@ zero_extendqisi2
 5058 113c FFF799B8 		b	.L231
 5059              	.LVL410:
 5060              	.L379:
2105:HANcoder_E407_TTA_CombineModel_V2.c **** 
 5061              		.loc 1 2105 9 is_stmt 1 view .LVU1926
2105:HANcoder_E407_TTA_CombineModel_V2.c **** 
 5062              		.loc 1 2105 22 is_stmt 0 view .LVU1927
 5063 1140 011E     		subs	r1, r0, #0
 5064 1142 18BF     		it	ne
 5065 1144 0121     		movne	r1, #1
 5066 1146 C901     		lsls	r1, r1, #7
2124:HANcoder_E407_TTA_CombineModel_V2.c **** 
 5067              		.loc 1 2124 62 view .LVU1928
 5068 1148 9AF81E30 		ldrb	r3, [r10, #30]	@ zero_extendqisi2
2105:HANcoder_E407_TTA_CombineModel_V2.c **** 
 5069              		.loc 1 2105 20 view .LVU1929
 5070 114c 8AF82210 		strb	r1, [r10, #34]
 5071 1150 F8E5     		b	.L214
 5072              	.LVL411:
 5073              	.L378:
2065:HANcoder_E407_TTA_CombineModel_V2.c **** 
 5074              		.loc 1 2065 9 is_stmt 1 view .LVU1930
2065:HANcoder_E407_TTA_CombineModel_V2.c **** 
 5075              		.loc 1 2065 22 is_stmt 0 view .LVU1931
 5076 1152 2B1E     		subs	r3, r5, #0
 5077 1154 18BF     		it	ne
 5078 1156 0123     		movne	r3, #1
 5079 1158 DB01     		lsls	r3, r3, #7
2084:HANcoder_E407_TTA_CombineModel_V2.c **** 
 5080              		.loc 1 2084 62 view .LVU1932
 5081 115a 9AF81D20 		ldrb	r2, [r10, #29]	@ zero_extendqisi2
2065:HANcoder_E407_TTA_CombineModel_V2.c **** 
 5082              		.loc 1 2065 20 view .LVU1933
 5083 115e 8AF82130 		strb	r3, [r10, #33]
 5084 1162 D0E5     		b	.L212
 5085              	.LVL412:
 5086              	.L252:
2065:HANcoder_E407_TTA_CombineModel_V2.c **** 
 5087              		.loc 1 2065 20 view .LVU1934
 5088 1164 4FF4FA73 		mov	r3, #500
 5089 1168 FFF7D4BA 		b	.L146
 5090              	.LVL413:
 5091              	.L382:
1615:HANcoder_E407_TTA_CombineModel_V2.c ****     } else if (rtDWork.TRLS_ID4_RX_MODE) {
 5092              		.loc 1 1615 35 view .LVU1935
 5093 116c 174B     		ldr	r3, .L395+28
1597:HANcoder_E407_TTA_CombineModel_V2.c **** 
 5094              		.loc 1 1597 24 view .LVU1936
 5095 116e 9AF81A10 		ldrb	r1, [r10, #26]	@ zero_extendqisi2
1615:HANcoder_E407_TTA_CombineModel_V2.c ****     } else if (rtDWork.TRLS_ID4_RX_MODE) {
 5096              		.loc 1 1615 35 view .LVU1937
 5097 1172 1B78     		ldrb	r3, [r3]	@ zero_extendqisi2
1609:HANcoder_E407_TTA_CombineModel_V2.c ****         ((uint16_T)62921U);
 5098              		.loc 1 1609 67 view .LVU1938
 5099 1174 9AF81B20 		ldrb	r2, [r10, #27]	@ zero_extendqisi2
 5100 1178 7FE7     		b	.L178
 5101              	.LVL414:
 5102              	.L381:
1744:HANcoder_E407_TTA_CombineModel_V2.c **** 
 5103              		.loc 1 1744 35 view .LVU1939
 5104 117a 114B     		ldr	r3, .L395+16
1747:HANcoder_E407_TTA_CombineModel_V2.c **** 
 5105              		.loc 1 1747 24 view .LVU1940
 5106 117c 9AF81210 		ldrb	r1, [r10, #18]	@ zero_extendqisi2
1744:HANcoder_E407_TTA_CombineModel_V2.c **** 
 5107              		.loc 1 1744 35 view .LVU1941
 5108 1180 1B78     		ldrb	r3, [r3]	@ zero_extendqisi2
1759:HANcoder_E407_TTA_CombineModel_V2.c ****         ((uint16_T)62921U);
 5109              		.loc 1 1759 66 view .LVU1942
 5110 1182 9AF81320 		ldrb	r2, [r10, #19]	@ zero_extendqisi2
 5111 1186 4DE7     		b	.L184
 5112              	.LVL415:
 5113              	.L366:
1367:HANcoder_E407_TTA_CombineModel_V2.c ****       }
 5114              		.loc 1 1367 9 is_stmt 1 view .LVU1943
1376:HANcoder_E407_TTA_CombineModel_V2.c ****         rtAction = 1;
 5115              		.loc 1 1376 7 view .LVU1944
1376:HANcoder_E407_TTA_CombineModel_V2.c ****         rtAction = 1;
 5116              		.loc 1 1376 10 is_stmt 0 view .LVU1945
 5117 1188 3046     		mov	r0, r6
 5118 118a 3946     		mov	r1, r7
 5119 118c FFF7FEFF 		bl	__aeabi_dcmpgt
 5120              	.LVL416:
 5121 1190 0028     		cmp	r0, #0
 5122 1192 7FF411AB 		bne	.L156
1379:HANcoder_E407_TTA_CombineModel_V2.c ****       }
 5123              		.loc 1 1379 9 is_stmt 1 view .LVU1946
 5124              	.LVL417:
1391:HANcoder_E407_TTA_CombineModel_V2.c ****         rtb_IntegralGain = 0.0;
 5125              		.loc 1 1391 7 view .LVU1947
1391:HANcoder_E407_TTA_CombineModel_V2.c ****         rtb_IntegralGain = 0.0;
 5126              		.loc 1 1391 10 is_stmt 0 view .LVU1948
 5127 1196 DDE90601 		ldrd	r0, [sp, #24]
 5128 119a 0022     		movs	r2, #0
 5129 119c 0023     		movs	r3, #0
 5130 119e FFF7FEFF 		bl	__aeabi_dcmpeq
 5131              	.LVL418:
 5132 11a2 0028     		cmp	r0, #0
 5133 11a4 3FF406AB 		beq	.L355
 5134 11a8 FFF706BB 		b	.L156
 5135              	.L396:
 5136 11ac AFF30080 		.align	3
 5137              	.L395:
 5138 11b0 00000000 		.word	0
 5139 11b4 00000000 		.word	0
 5140 11b8 00000000 		.word	TRLS1_ID5
 5141 11bc 00000000 		.word	canRxData_0_TRLS1_ID5
 5142 11c0 00000000 		.word	buttonpress2
 5143 11c4 00000000 		.word	TRLS1_ID4
 5144 11c8 00000000 		.word	canRxData_0_TRLS1_ID4
 5145 11cc 00000000 		.word	buttonpress1
 5146 11d0 00000000 		.word	canRxData_0_TRCK1_ID3
 5147 11d4 00000000 		.word	SYNC1_ID
 5148 11d8 0A000000 		.word	rtPrevZCSigState+10
 5149 11dc 00000000 		.word	canRxData_0_SYNC1_ID
 5150              		.cfi_endproc
 5151              	.LFE128:
 5153              		.section	.rodata.HANcoder_E407_TTA_CombineModel_V2_initialize.str1.4,"aMS",%progbits,1
 5154              		.align	2
 5155              	.LC1:
 5156 0000 48414E63 		.ascii	"HANcoder_E407_TTA_CombineModel_V2.c\000"
 5156      6F646572 
 5156      5F453430 
 5156      375F5454 
 5156      415F436F 
 5157              		.section	.text.HANcoder_E407_TTA_CombineModel_V2_initialize,"ax",%progbits
 5158              		.align	1
 5159              		.p2align 2,,3
 5160              		.global	HANcoder_E407_TTA_CombineModel_V2_initialize
 5161              		.syntax unified
 5162              		.thumb
 5163              		.thumb_func
 5165              	HANcoder_E407_TTA_CombineModel_V2_initialize:
 5166              	.LFB129:
2167:HANcoder_E407_TTA_CombineModel_V2.c **** 
2168:HANcoder_E407_TTA_CombineModel_V2.c **** /* Model initialize function */
2169:HANcoder_E407_TTA_CombineModel_V2.c **** void HANcoder_E407_TTA_CombineModel_V2_initialize(void)
2170:HANcoder_E407_TTA_CombineModel_V2.c **** {
 5167              		.loc 1 2170 1 is_stmt 1 view -0
 5168              		.cfi_startproc
 5169              		@ args = 0, pretend = 0, frame = 16
 5170              		@ frame_needed = 0, uses_anonymous_args = 0
 5171              	.LBB336:
2171:HANcoder_E407_TTA_CombineModel_V2.c ****   {
2172:HANcoder_E407_TTA_CombineModel_V2.c ****     /* user code (Start function Header) */
2173:HANcoder_E407_TTA_CombineModel_V2.c ****     uint8_t canResult1;
 5172              		.loc 1 2173 5 view .LVU1950
2174:HANcoder_E407_TTA_CombineModel_V2.c ****     tCanFilter canFilter1;
 5173              		.loc 1 2174 5 view .LVU1951
2175:HANcoder_E407_TTA_CombineModel_V2.c **** 
2176:HANcoder_E407_TTA_CombineModel_V2.c ****     /* user code (Start function Body) */
2177:HANcoder_E407_TTA_CombineModel_V2.c **** 
2178:HANcoder_E407_TTA_CombineModel_V2.c ****     /* initialize the CAN driver. */
2179:HANcoder_E407_TTA_CombineModel_V2.c ****     CanInit(64, 8);
 5174              		.loc 1 2179 5 view .LVU1952
 5175              	.LBE336:
2170:HANcoder_E407_TTA_CombineModel_V2.c ****   {
 5176              		.loc 1 2170 1 is_stmt 0 view .LVU1953
 5177 0000 2DE9F041 		push	{r4, r5, r6, r7, r8, lr}
 5178              		.cfi_def_cfa_offset 24
 5179              		.cfi_offset 4, -24
 5180              		.cfi_offset 5, -20
 5181              		.cfi_offset 6, -16
 5182              		.cfi_offset 7, -12
 5183              		.cfi_offset 8, -8
 5184              		.cfi_offset 14, -4
 5185              	.LBB387:
 5186              		.loc 1 2179 5 view .LVU1954
 5187 0004 0821     		movs	r1, #8
 5188              	.LBE387:
2170:HANcoder_E407_TTA_CombineModel_V2.c ****   {
 5189              		.loc 1 2170 1 view .LVU1955
 5190 0006 84B0     		sub	sp, sp, #16
 5191              		.cfi_def_cfa_offset 40
 5192              	.LBB388:
 5193              		.loc 1 2179 5 view .LVU1956
 5194 0008 4020     		movs	r0, #64
 5195 000a FFF7FEFF 		bl	CanInit
 5196              	.LVL419:
2180:HANcoder_E407_TTA_CombineModel_V2.c **** 
2181:HANcoder_E407_TTA_CombineModel_V2.c ****     /* initialize the CAN I/O module for channel 1 */
2182:HANcoder_E407_TTA_CombineModel_V2.c ****     CanIoInit(0);
 5197              		.loc 1 2182 5 is_stmt 1 view .LVU1957
 5198 000e 0020     		movs	r0, #0
2183:HANcoder_E407_TTA_CombineModel_V2.c **** 
2184:HANcoder_E407_TTA_CombineModel_V2.c ****     /* initialize the timer module for output compare. */
2185:HANcoder_E407_TTA_CombineModel_V2.c ****     TimeoutInitModule(TIMEOUT_MODULE_TIM4, 1000000);
2186:HANcoder_E407_TTA_CombineModel_V2.c **** 
2187:HANcoder_E407_TTA_CombineModel_V2.c ****     /* Start for If: '<S1>/If1' */
2188:HANcoder_E407_TTA_CombineModel_V2.c ****     rtDWork.If1_ActiveSubsystem = -1;
 5199              		.loc 1 2188 33 is_stmt 0 view .LVU1958
 5200 0010 774C     		ldr	r4, .L405
2189:HANcoder_E407_TTA_CombineModel_V2.c **** 
2190:HANcoder_E407_TTA_CombineModel_V2.c ****     /* Start for IfAction SubSystem: '<S1>/Setting ID' */
2191:HANcoder_E407_TTA_CombineModel_V2.c ****     /* Start for M-S-Function: '<S174>/Level-2 M-file S-Function' */
2192:HANcoder_E407_TTA_CombineModel_V2.c **** 
2193:HANcoder_E407_TTA_CombineModel_V2.c ****     /* configure the digital input */
2194:HANcoder_E407_TTA_CombineModel_V2.c ****     DiginConfigure(DIGIN_PORTG_PIN12, DIGIN_CFG_PULLDOWN);
2195:HANcoder_E407_TTA_CombineModel_V2.c **** 
2196:HANcoder_E407_TTA_CombineModel_V2.c ****     /* Start for M-S-Function: '<S175>/Level-2 M-file S-Function' */
2197:HANcoder_E407_TTA_CombineModel_V2.c **** 
2198:HANcoder_E407_TTA_CombineModel_V2.c ****     /* configure the digital input */
2199:HANcoder_E407_TTA_CombineModel_V2.c ****     DiginConfigure(DIGIN_PORTG_PIN15, DIGIN_CFG_PULLDOWN);
2200:HANcoder_E407_TTA_CombineModel_V2.c **** 
2201:HANcoder_E407_TTA_CombineModel_V2.c ****     /* Start for M-S-Function: '<S176>/Level-2 M-file S-Function' */
2202:HANcoder_E407_TTA_CombineModel_V2.c **** 
2203:HANcoder_E407_TTA_CombineModel_V2.c ****     /* configure the digital input */
2204:HANcoder_E407_TTA_CombineModel_V2.c ****     DiginConfigure(DIGIN_PORTA_PIN4, DIGIN_CFG_PULLDOWN);
2205:HANcoder_E407_TTA_CombineModel_V2.c **** 
2206:HANcoder_E407_TTA_CombineModel_V2.c ****     /* End of Start for SubSystem: '<S1>/Setting ID' */
2207:HANcoder_E407_TTA_CombineModel_V2.c **** 
2208:HANcoder_E407_TTA_CombineModel_V2.c ****     /* register the callback handler */
2209:HANcoder_E407_TTA_CombineModel_V2.c ****     TimeoutRegisterCompareEventCallback(TIMEOUT_TIM4_PIN_PD12,
2210:HANcoder_E407_TTA_CombineModel_V2.c ****       TimeoutEventIRQ_TIMEOUT_TIM4_PIN_PD12);
2211:HANcoder_E407_TTA_CombineModel_V2.c **** 
2212:HANcoder_E407_TTA_CombineModel_V2.c ****     /* End of Start for S-Function (sfcn_timeout_event_irq): '<S4>/S-Function' */
2213:HANcoder_E407_TTA_CombineModel_V2.c **** 
2214:HANcoder_E407_TTA_CombineModel_V2.c ****     /* Start for Enabled SubSystem: '<S1>/Message selector'
2215:HANcoder_E407_TTA_CombineModel_V2.c ****      *
2216:HANcoder_E407_TTA_CombineModel_V2.c ****      * Block description for '<S1>/Message selector':
2217:HANcoder_E407_TTA_CombineModel_V2.c ****      *  Truck 1
2218:HANcoder_E407_TTA_CombineModel_V2.c ****      */
2219:HANcoder_E407_TTA_CombineModel_V2.c ****     /* Start for Enabled SubSystem: '<S8>/MMBS1_RX' */
2220:HANcoder_E407_TTA_CombineModel_V2.c ****     /* Constant: '<S8>/Constant12' */
2221:HANcoder_E407_TTA_CombineModel_V2.c ****     MMBS1_RX_Start(MMBS1_ID);
2222:HANcoder_E407_TTA_CombineModel_V2.c **** 
2223:HANcoder_E407_TTA_CombineModel_V2.c ****     /* End of Start for SubSystem: '<S8>/MMBS1_RX' */
2224:HANcoder_E407_TTA_CombineModel_V2.c **** 
2225:HANcoder_E407_TTA_CombineModel_V2.c ****     /* Start for Enabled SubSystem: '<S8>/SSTM1_RX' */
2226:HANcoder_E407_TTA_CombineModel_V2.c ****     /* Constant: '<S8>/Constant14' */
2227:HANcoder_E407_TTA_CombineModel_V2.c ****     MMBS1_RX_Start(SSTM1_ID);
2228:HANcoder_E407_TTA_CombineModel_V2.c **** 
2229:HANcoder_E407_TTA_CombineModel_V2.c ****     /* End of Start for SubSystem: '<S8>/SSTM1_RX' */
2230:HANcoder_E407_TTA_CombineModel_V2.c **** 
2231:HANcoder_E407_TTA_CombineModel_V2.c ****     /* Start for Enabled SubSystem: '<S8>/SYNC1_RX' */
2232:HANcoder_E407_TTA_CombineModel_V2.c ****     /* Start for M-S-Function: '<S43>/S-Function' incorporates:
2233:HANcoder_E407_TTA_CombineModel_V2.c ****      *  Constant: '<S8>/Constant10'
2234:HANcoder_E407_TTA_CombineModel_V2.c ****      */
2235:HANcoder_E407_TTA_CombineModel_V2.c **** 
2236:HANcoder_E407_TTA_CombineModel_V2.c ****     /* register a CAN storage buffer for the message with this ID */
2237:HANcoder_E407_TTA_CombineModel_V2.c ****     CanIoCreateMessageReceivedStorage(0, SYNC1_ID);
 5201              		.loc 1 2237 5 view .LVU1959
 5202 0012 DFF81C82 		ldr	r8, .L405+64
2182:HANcoder_E407_TTA_CombineModel_V2.c **** 
 5203              		.loc 1 2182 5 view .LVU1960
 5204 0016 FFF7FEFF 		bl	CanIoInit
 5205              	.LVL420:
2185:HANcoder_E407_TTA_CombineModel_V2.c **** 
 5206              		.loc 1 2185 5 is_stmt 1 view .LVU1961
 5207 001a 7649     		ldr	r1, .L405+4
 5208 001c 0320     		movs	r0, #3
 5209 001e FFF7FEFF 		bl	TimeoutInitModule
 5210              	.LVL421:
2188:HANcoder_E407_TTA_CombineModel_V2.c **** 
 5211              		.loc 1 2188 5 view .LVU1962
2188:HANcoder_E407_TTA_CombineModel_V2.c **** 
 5212              		.loc 1 2188 33 is_stmt 0 view .LVU1963
 5213 0022 FF27     		movs	r7, #255
2194:HANcoder_E407_TTA_CombineModel_V2.c **** 
 5214              		.loc 1 2194 5 view .LVU1964
 5215 0024 0221     		movs	r1, #2
 5216 0026 0E20     		movs	r0, #14
2188:HANcoder_E407_TTA_CombineModel_V2.c **** 
 5217              		.loc 1 2188 33 view .LVU1965
 5218 0028 84F83870 		strb	r7, [r4, #56]
2194:HANcoder_E407_TTA_CombineModel_V2.c **** 
 5219              		.loc 1 2194 5 is_stmt 1 view .LVU1966
 5220 002c FFF7FEFF 		bl	DiginConfigure
 5221              	.LVL422:
2199:HANcoder_E407_TTA_CombineModel_V2.c **** 
 5222              		.loc 1 2199 5 view .LVU1967
 5223 0030 0221     		movs	r1, #2
 5224 0032 0F20     		movs	r0, #15
 5225 0034 FFF7FEFF 		bl	DiginConfigure
 5226              	.LVL423:
2204:HANcoder_E407_TTA_CombineModel_V2.c **** 
 5227              		.loc 1 2204 5 view .LVU1968
 5228 0038 0221     		movs	r1, #2
 5229 003a 1020     		movs	r0, #16
 5230 003c FFF7FEFF 		bl	DiginConfigure
 5231              	.LVL424:
2209:HANcoder_E407_TTA_CombineModel_V2.c ****       TimeoutEventIRQ_TIMEOUT_TIM4_PIN_PD12);
 5232              		.loc 1 2209 5 view .LVU1969
 5233 0040 6D49     		ldr	r1, .L405+8
 5234 0042 0720     		movs	r0, #7
 5235 0044 FFF7FEFF 		bl	TimeoutRegisterCompareEventCallback
 5236              	.LVL425:
2221:HANcoder_E407_TTA_CombineModel_V2.c **** 
 5237              		.loc 1 2221 5 view .LVU1970
 5238              	.LBB337:
 5239              	.LBI337:
 317:HANcoder_E407_TTA_CombineModel_V2.c **** {
 5240              		.loc 1 317 6 view .LVU1971
 5241              	.LBB338:
 322:HANcoder_E407_TTA_CombineModel_V2.c **** }
 5242              		.loc 1 322 3 view .LVU1972
 5243              	.LBE338:
 5244              	.LBE337:
2221:HANcoder_E407_TTA_CombineModel_V2.c **** 
 5245              		.loc 1 2221 5 is_stmt 0 view .LVU1973
 5246 0048 6C4B     		ldr	r3, .L405+12
 5247              	.LBB340:
 5248              	.LBB339:
 322:HANcoder_E407_TTA_CombineModel_V2.c **** }
 5249              		.loc 1 322 3 view .LVU1974
 5250 004a 0020     		movs	r0, #0
 5251 004c 1968     		ldr	r1, [r3]
 5252 004e FFF7FEFF 		bl	CanIoCreateMessageReceivedStorage
 5253              	.LVL426:
 322:HANcoder_E407_TTA_CombineModel_V2.c **** }
 5254              		.loc 1 322 3 view .LVU1975
 5255              	.LBE339:
 5256              	.LBE340:
2227:HANcoder_E407_TTA_CombineModel_V2.c **** 
 5257              		.loc 1 2227 5 is_stmt 1 view .LVU1976
 5258              	.LBB341:
 5259              	.LBI341:
 317:HANcoder_E407_TTA_CombineModel_V2.c **** {
 5260              		.loc 1 317 6 view .LVU1977
 5261              	.LBB342:
 322:HANcoder_E407_TTA_CombineModel_V2.c **** }
 5262              		.loc 1 322 3 view .LVU1978
 5263              	.LBE342:
 5264              	.LBE341:
2227:HANcoder_E407_TTA_CombineModel_V2.c **** 
 5265              		.loc 1 2227 5 is_stmt 0 view .LVU1979
 5266 0052 6B4B     		ldr	r3, .L405+16
 5267              	.LBB344:
 5268              	.LBB343:
 322:HANcoder_E407_TTA_CombineModel_V2.c **** }
 5269              		.loc 1 322 3 view .LVU1980
 5270 0054 0020     		movs	r0, #0
 5271 0056 1968     		ldr	r1, [r3]
 5272 0058 FFF7FEFF 		bl	CanIoCreateMessageReceivedStorage
 5273              	.LVL427:
 322:HANcoder_E407_TTA_CombineModel_V2.c **** }
 5274              		.loc 1 322 3 view .LVU1981
 5275              	.LBE343:
 5276              	.LBE344:
 5277              		.loc 1 2237 5 is_stmt 1 view .LVU1982
 5278 005c D8F80010 		ldr	r1, [r8]
 5279 0060 0020     		movs	r0, #0
 5280              	.LBB345:
 5281              	.LBB346:
 450:HANcoder_E407_TTA_CombineModel_V2.c ****   localDW->objisempty = true;
 5282              		.loc 1 450 39 is_stmt 0 view .LVU1983
 5283 0062 0025     		movs	r5, #0
 5284              	.LBE346:
 5285              	.LBE345:
 5286              		.loc 1 2237 5 view .LVU1984
 5287 0064 FFF7FEFF 		bl	CanIoCreateMessageReceivedStorage
 5288              	.LVL428:
2238:HANcoder_E407_TTA_CombineModel_V2.c **** 
2239:HANcoder_E407_TTA_CombineModel_V2.c ****     /* End of Start for SubSystem: '<S8>/SYNC1_RX' */
2240:HANcoder_E407_TTA_CombineModel_V2.c **** 
2241:HANcoder_E407_TTA_CombineModel_V2.c ****     /* Start for Triggered SubSystem: '<S8>/Slot 5 execution' */
2242:HANcoder_E407_TTA_CombineModel_V2.c ****     /* Start for M-S-Function: '<S51>/Level-2 M-file S-Function' */
2243:HANcoder_E407_TTA_CombineModel_V2.c **** 
2244:HANcoder_E407_TTA_CombineModel_V2.c ****     /* configure the analog input for filtered inputs */
2245:HANcoder_E407_TTA_CombineModel_V2.c ****     AninConfigure(ANIN_PORTF_PIN7,0);
 5289              		.loc 1 2245 5 is_stmt 1 view .LVU1985
 5290 0068 0021     		movs	r1, #0
 5291 006a 0420     		movs	r0, #4
 5292 006c FFF7FEFF 		bl	AninConfigure
 5293              	.LVL429:
2246:HANcoder_E407_TTA_CombineModel_V2.c ****     MovingAverage_Start(&rtDWork.MovingAverage_p);
 5294              		.loc 1 2246 5 view .LVU1986
 5295              	.LBB358:
 5296              	.LBI345:
 444:HANcoder_E407_TTA_CombineModel_V2.c **** {
 5297              		.loc 1 444 6 view .LVU1987
 5298              	.LBB355:
 447:HANcoder_E407_TTA_CombineModel_V2.c ****   localDW->obj.NumChannels = -1;
 5299              		.loc 1 447 3 view .LVU1988
 448:HANcoder_E407_TTA_CombineModel_V2.c ****   localDW->obj.FrameLength = -1;
 5300              		.loc 1 448 3 view .LVU1989
 449:HANcoder_E407_TTA_CombineModel_V2.c ****   localDW->obj.matlabCodegenIsDeleted = false;
 5301              		.loc 1 449 3 view .LVU1990
 450:HANcoder_E407_TTA_CombineModel_V2.c ****   localDW->objisempty = true;
 5302              		.loc 1 450 3 view .LVU1991
 451:HANcoder_E407_TTA_CombineModel_V2.c ****   SystemCore_setup(&localDW->obj);
 5303              		.loc 1 451 23 is_stmt 0 view .LVU1992
 5304 0070 0126     		movs	r6, #1
 5305              	.LBB347:
 5306              	.LBB348:
 417:HANcoder_E407_TTA_CombineModel_V2.c ****   obj->isSetupComplete = true;
 5307              		.loc 1 417 19 view .LVU1993
 5308 0072 04F5E273 		add	r3, r4, #452
 5309              	.LBE348:
 5310              	.LBE347:
 5311              	.LBE355:
 5312              	.LBE358:
2247:HANcoder_E407_TTA_CombineModel_V2.c **** 
2248:HANcoder_E407_TTA_CombineModel_V2.c ****     /* Start for M-S-Function: '<S52>/Level-2 M-file S-Function' */
2249:HANcoder_E407_TTA_CombineModel_V2.c **** 
2250:HANcoder_E407_TTA_CombineModel_V2.c ****     /* configure the analog input for filtered inputs */
2251:HANcoder_E407_TTA_CombineModel_V2.c ****     AninConfigure(ANIN_PORTF_PIN8,0);
 5313              		.loc 1 2251 5 view .LVU1994
 5314 0076 2946     		mov	r1, r5
 5315 0078 0520     		movs	r0, #5
 5316              	.LBB359:
 5317              	.LBB356:
 5318              	.LBB352:
 5319              	.LBB349:
 417:HANcoder_E407_TTA_CombineModel_V2.c ****   obj->isSetupComplete = true;
 5320              		.loc 1 417 19 view .LVU1995
 5321 007a C4F8B831 		str	r3, [r4, #440]
 414:HANcoder_E407_TTA_CombineModel_V2.c ****   obj->_pobj0.isInitialized = 0;
 5322              		.loc 1 414 20 view .LVU1996
 5323 007e C4E96F66 		strd	r6, r6, [r4, #444]
 5324              	.LBE349:
 5325              	.LBE352:
 450:HANcoder_E407_TTA_CombineModel_V2.c ****   localDW->objisempty = true;
 5326              		.loc 1 450 39 view .LVU1997
 5327 0082 84F88C51 		strb	r5, [r4, #396]
 451:HANcoder_E407_TTA_CombineModel_V2.c ****   SystemCore_setup(&localDW->obj);
 5328              		.loc 1 451 3 is_stmt 1 view .LVU1998
 451:HANcoder_E407_TTA_CombineModel_V2.c ****   SystemCore_setup(&localDW->obj);
 5329              		.loc 1 451 23 is_stmt 0 view .LVU1999
 5330 0086 84F8C462 		strb	r6, [r4, #708]
 452:HANcoder_E407_TTA_CombineModel_V2.c **** }
 5331              		.loc 1 452 3 is_stmt 1 view .LVU2000
 5332              	.LVL430:
 5333              	.LBB353:
 5334              	.LBI347:
 409:HANcoder_E407_TTA_CombineModel_V2.c **** {
 5335              		.loc 1 409 13 view .LVU2001
 5336              	.LBB350:
 411:HANcoder_E407_TTA_CombineModel_V2.c ****   obj->isInitialized = 1;
 5337              		.loc 1 411 3 view .LVU2002
 412:HANcoder_E407_TTA_CombineModel_V2.c ****   obj->NumChannels = 1;
 5338              		.loc 1 412 3 view .LVU2003
 412:HANcoder_E407_TTA_CombineModel_V2.c ****   obj->NumChannels = 1;
 5339              		.loc 1 412 22 is_stmt 0 view .LVU2004
 5340 008a C4F89061 		str	r6, [r4, #400]
 413:HANcoder_E407_TTA_CombineModel_V2.c ****   obj->FrameLength = 1;
 5341              		.loc 1 413 3 is_stmt 1 view .LVU2005
 415:HANcoder_E407_TTA_CombineModel_V2.c ****   obj->_pobj0.isInitialized = 0;
 5342              		.loc 1 415 3 view .LVU2006
 415:HANcoder_E407_TTA_CombineModel_V2.c ****   obj->_pobj0.isInitialized = 0;
 5343              		.loc 1 415 29 is_stmt 0 view .LVU2007
 5344 008e C4F8C451 		str	r5, [r4, #452]
 416:HANcoder_E407_TTA_CombineModel_V2.c ****   obj->pStatistic = &obj->_pobj0;
 5345              		.loc 1 416 3 is_stmt 1 view .LVU2008
 417:HANcoder_E407_TTA_CombineModel_V2.c ****   obj->isSetupComplete = true;
 5346              		.loc 1 417 3 view .LVU2009
 418:HANcoder_E407_TTA_CombineModel_V2.c ****   obj->TunablePropsChanged = false;
 5347              		.loc 1 418 3 view .LVU2010
 419:HANcoder_E407_TTA_CombineModel_V2.c **** }
 5348              		.loc 1 419 3 view .LVU2011
 5349              	.LVL431:
 419:HANcoder_E407_TTA_CombineModel_V2.c **** }
 5350              		.loc 1 419 3 is_stmt 0 view .LVU2012
 5351              	.LBE350:
 5352              	.LBE353:
 5353              	.LBE356:
 5354              	.LBE359:
 5355              		.loc 1 2251 5 is_stmt 1 view .LVU2013
 5356              	.LBB360:
 5357              	.LBB357:
 5358              	.LBB354:
 5359              	.LBB351:
 418:HANcoder_E407_TTA_CombineModel_V2.c ****   obj->TunablePropsChanged = false;
 5360              		.loc 1 418 24 is_stmt 0 view .LVU2014
 5361 0092 A4F89461 		strh	r6, [r4, #404]	@ movhi
 5362              	.LBE351:
 5363              	.LBE354:
 5364              	.LBE357:
 5365              	.LBE360:
 5366              		.loc 1 2251 5 view .LVU2015
 5367 0096 FFF7FEFF 		bl	AninConfigure
 5368              	.LVL432:
2252:HANcoder_E407_TTA_CombineModel_V2.c ****     MovingAverage_Start(&rtDWork.MovingAverage1);
 5369              		.loc 1 2252 5 is_stmt 1 view .LVU2016
 5370              	.LBB361:
 5371              	.LBI361:
 444:HANcoder_E407_TTA_CombineModel_V2.c **** {
 5372              		.loc 1 444 6 view .LVU2017
 5373              	.LBB362:
 447:HANcoder_E407_TTA_CombineModel_V2.c ****   localDW->obj.NumChannels = -1;
 5374              		.loc 1 447 3 view .LVU2018
 448:HANcoder_E407_TTA_CombineModel_V2.c ****   localDW->obj.FrameLength = -1;
 5375              		.loc 1 448 3 view .LVU2019
 449:HANcoder_E407_TTA_CombineModel_V2.c ****   localDW->obj.matlabCodegenIsDeleted = false;
 5376              		.loc 1 449 3 view .LVU2020
 450:HANcoder_E407_TTA_CombineModel_V2.c ****   localDW->objisempty = true;
 5377              		.loc 1 450 3 view .LVU2021
 5378              	.LBB363:
 5379              	.LBB364:
 415:HANcoder_E407_TTA_CombineModel_V2.c ****   obj->_pobj0.isInitialized = 0;
 5380              		.loc 1 415 29 is_stmt 0 view .LVU2022
 5381 009a 2346     		mov	r3, r4
 5382              	.LBE364:
 5383              	.LBE363:
 5384              	.LBE362:
 5385              	.LBE361:
2253:HANcoder_E407_TTA_CombineModel_V2.c **** 
2254:HANcoder_E407_TTA_CombineModel_V2.c ****     /* Start for M-S-Function: '<S49>/Level-2 M-file S-Function' */
2255:HANcoder_E407_TTA_CombineModel_V2.c **** 
2256:HANcoder_E407_TTA_CombineModel_V2.c ****     /* configure the digital input */
2257:HANcoder_E407_TTA_CombineModel_V2.c ****     DiginConfigure(DIGIN_PORTA_PIN0, DIGIN_CFG_PULLDOWN);
 5386              		.loc 1 2257 5 view .LVU2023
 5387 009c 0221     		movs	r1, #2
 5388              	.LBB376:
 5389              	.LBB373:
 5390              	.LBB369:
 5391              	.LBB365:
 415:HANcoder_E407_TTA_CombineModel_V2.c ****   obj->_pobj0.isInitialized = 0;
 5392              		.loc 1 415 29 view .LVU2024
 5393 009e 43F8885F 		str	r5, [r3, #136]!
 5394              	.LBE365:
 5395              	.LBE369:
 5396              	.LBE373:
 5397              	.LBE376:
 5398              		.loc 1 2257 5 view .LVU2025
 5399 00a2 4720     		movs	r0, #71
 5400              	.LBB377:
 5401              	.LBB374:
 5402              	.LBB370:
 5403              	.LBB366:
 417:HANcoder_E407_TTA_CombineModel_V2.c ****   obj->isSetupComplete = true;
 5404              		.loc 1 417 19 view .LVU2026
 5405 00a4 E367     		str	r3, [r4, #124]
 414:HANcoder_E407_TTA_CombineModel_V2.c ****   obj->_pobj0.isInitialized = 0;
 5406              		.loc 1 414 20 view .LVU2027
 5407 00a6 C4E92066 		strd	r6, r6, [r4, #128]
 5408              	.LBE366:
 5409              	.LBE370:
 450:HANcoder_E407_TTA_CombineModel_V2.c ****   localDW->objisempty = true;
 5410              		.loc 1 450 39 view .LVU2028
 5411 00aa 84F85050 		strb	r5, [r4, #80]
 451:HANcoder_E407_TTA_CombineModel_V2.c ****   SystemCore_setup(&localDW->obj);
 5412              		.loc 1 451 3 is_stmt 1 view .LVU2029
 451:HANcoder_E407_TTA_CombineModel_V2.c ****   SystemCore_setup(&localDW->obj);
 5413              		.loc 1 451 23 is_stmt 0 view .LVU2030
 5414 00ae 84F88861 		strb	r6, [r4, #392]
 452:HANcoder_E407_TTA_CombineModel_V2.c **** }
 5415              		.loc 1 452 3 is_stmt 1 view .LVU2031
 5416              	.LVL433:
 5417              	.LBB371:
 5418              	.LBI363:
 409:HANcoder_E407_TTA_CombineModel_V2.c **** {
 5419              		.loc 1 409 13 view .LVU2032
 5420              	.LBB367:
 411:HANcoder_E407_TTA_CombineModel_V2.c ****   obj->isInitialized = 1;
 5421              		.loc 1 411 3 view .LVU2033
 412:HANcoder_E407_TTA_CombineModel_V2.c ****   obj->NumChannels = 1;
 5422              		.loc 1 412 3 view .LVU2034
 412:HANcoder_E407_TTA_CombineModel_V2.c ****   obj->NumChannels = 1;
 5423              		.loc 1 412 22 is_stmt 0 view .LVU2035
 5424 00b2 6665     		str	r6, [r4, #84]
 413:HANcoder_E407_TTA_CombineModel_V2.c ****   obj->FrameLength = 1;
 5425              		.loc 1 413 3 is_stmt 1 view .LVU2036
 415:HANcoder_E407_TTA_CombineModel_V2.c ****   obj->_pobj0.isInitialized = 0;
 5426              		.loc 1 415 3 view .LVU2037
 416:HANcoder_E407_TTA_CombineModel_V2.c ****   obj->pStatistic = &obj->_pobj0;
 5427              		.loc 1 416 3 view .LVU2038
 417:HANcoder_E407_TTA_CombineModel_V2.c ****   obj->isSetupComplete = true;
 5428              		.loc 1 417 3 view .LVU2039
 418:HANcoder_E407_TTA_CombineModel_V2.c ****   obj->TunablePropsChanged = false;
 5429              		.loc 1 418 3 view .LVU2040
 419:HANcoder_E407_TTA_CombineModel_V2.c **** }
 5430              		.loc 1 419 3 view .LVU2041
 5431              	.LVL434:
 419:HANcoder_E407_TTA_CombineModel_V2.c **** }
 5432              		.loc 1 419 3 is_stmt 0 view .LVU2042
 5433              	.LBE367:
 5434              	.LBE371:
 5435              	.LBE374:
 5436              	.LBE377:
 5437              		.loc 1 2257 5 is_stmt 1 view .LVU2043
 5438              	.LBB378:
 5439              	.LBB375:
 5440              	.LBB372:
 5441              	.LBB368:
 418:HANcoder_E407_TTA_CombineModel_V2.c ****   obj->TunablePropsChanged = false;
 5442              		.loc 1 418 24 is_stmt 0 view .LVU2044
 5443 00b4 A4F85860 		strh	r6, [r4, #88]	@ movhi
 5444              	.LBE368:
 5445              	.LBE372:
 5446              	.LBE375:
 5447              	.LBE378:
 5448              		.loc 1 2257 5 view .LVU2045
 5449 00b8 FFF7FEFF 		bl	DiginConfigure
 5450              	.LVL435:
2258:HANcoder_E407_TTA_CombineModel_V2.c **** 
2259:HANcoder_E407_TTA_CombineModel_V2.c ****     /* Start for M-S-Function: '<S50>/Level-2 M-file S-Function' */
2260:HANcoder_E407_TTA_CombineModel_V2.c **** 
2261:HANcoder_E407_TTA_CombineModel_V2.c ****     /* configure the quadrature encoder module */
2262:HANcoder_E407_TTA_CombineModel_V2.c ****     QuadEncConfigure(QUADENC_TIM3_PA6_PB5, QUADENC_CFG_FLOATING);
 5451              		.loc 1 2262 5 is_stmt 1 view .LVU2046
 5452 00bc 2946     		mov	r1, r5
 5453 00be 3046     		mov	r0, r6
 5454 00c0 FFF7FEFF 		bl	QuadEncConfigure
 5455              	.LVL436:
2263:HANcoder_E407_TTA_CombineModel_V2.c **** 
2264:HANcoder_E407_TTA_CombineModel_V2.c ****     /* Start for M-S-Function: '<S54>/Level-2 M-file S-Function' */
2265:HANcoder_E407_TTA_CombineModel_V2.c **** 
2266:HANcoder_E407_TTA_CombineModel_V2.c ****     /* configure the digital output */
2267:HANcoder_E407_TTA_CombineModel_V2.c ****     DigoutConfigure(DIGOUT_PORTE_PIN5, DIGOUT_CFG_PUSHPULL);
 5456              		.loc 1 2267 5 view .LVU2047
 5457 00c4 3146     		mov	r1, r6
 5458 00c6 0A20     		movs	r0, #10
 5459 00c8 FFF7FEFF 		bl	DigoutConfigure
 5460              	.LVL437:
2268:HANcoder_E407_TTA_CombineModel_V2.c **** 
2269:HANcoder_E407_TTA_CombineModel_V2.c ****     /* Start for M-S-Function: '<S55>/Level-2 M-file S-Function' */
2270:HANcoder_E407_TTA_CombineModel_V2.c **** 
2271:HANcoder_E407_TTA_CombineModel_V2.c ****     /* configure the digital output */
2272:HANcoder_E407_TTA_CombineModel_V2.c ****     DigoutConfigure(DIGOUT_PORTE_PIN6, DIGOUT_CFG_PUSHPULL);
 5461              		.loc 1 2272 5 view .LVU2048
 5462 00cc 3146     		mov	r1, r6
 5463 00ce 0B20     		movs	r0, #11
 5464 00d0 FFF7FEFF 		bl	DigoutConfigure
 5465              	.LVL438:
2273:HANcoder_E407_TTA_CombineModel_V2.c **** 
2274:HANcoder_E407_TTA_CombineModel_V2.c ****     /* Start for M-S-Function: '<S56>/Level-2 M-file S-Function' */
2275:HANcoder_E407_TTA_CombineModel_V2.c **** 
2276:HANcoder_E407_TTA_CombineModel_V2.c ****     /* configure the digital output */
2277:HANcoder_E407_TTA_CombineModel_V2.c ****     DigoutConfigure(DIGOUT_PORTC_PIN13, DIGOUT_CFG_PUSHPULL);
 5466              		.loc 1 2277 5 view .LVU2049
 5467 00d4 3146     		mov	r1, r6
 5468 00d6 4720     		movs	r0, #71
 5469 00d8 FFF7FEFF 		bl	DigoutConfigure
 5470              	.LVL439:
2278:HANcoder_E407_TTA_CombineModel_V2.c **** 
2279:HANcoder_E407_TTA_CombineModel_V2.c ****     /* Start for S-Function (sfcn_pwmout_init): '<S58>/S-Function' */
2280:HANcoder_E407_TTA_CombineModel_V2.c **** 
2281:HANcoder_E407_TTA_CombineModel_V2.c ****     /* initialize the PWM module and register the callback handler */
2282:HANcoder_E407_TTA_CombineModel_V2.c ****     PwmoutInit(PWMOUT_MODULE_TIM14, 10253, PWMOUT_EDGE_ALIGNMENT);
 5471              		.loc 1 2282 5 view .LVU2050
 5472 00dc 2A46     		mov	r2, r5
 5473 00de 42F60D01 		movw	r1, #10253
 5474 00e2 0920     		movs	r0, #9
 5475 00e4 FFF7FEFF 		bl	PwmoutInit
 5476              	.LVL440:
2283:HANcoder_E407_TTA_CombineModel_V2.c ****     PwmoutRegisterPeriodCompleteCallback(PWMOUT_MODULE_TIM14,
 5477              		.loc 1 2283 5 view .LVU2051
 5478 00e8 4649     		ldr	r1, .L405+20
 5479 00ea 0920     		movs	r0, #9
 5480 00ec FFF7FEFF 		bl	PwmoutRegisterPeriodCompleteCallback
 5481              	.LVL441:
2284:HANcoder_E407_TTA_CombineModel_V2.c ****       PwmoutIRQ_PWMOUT_MODULE_TIM14);
2285:HANcoder_E407_TTA_CombineModel_V2.c **** 
2286:HANcoder_E407_TTA_CombineModel_V2.c ****     /* configures channel 1 */
2287:HANcoder_E407_TTA_CombineModel_V2.c ****     PwmoutConfigure(PWMOUT_TIM14_PIN_PF9, PWMOUT_ACTIVE_HIGH,
 5482              		.loc 1 2287 5 view .LVU2052
 5483 00f0 2A46     		mov	r2, r5
 5484 00f2 2946     		mov	r1, r5
 5485 00f4 1020     		movs	r0, #16
 5486 00f6 FFF7FEFF 		bl	PwmoutConfigure
 5487              	.LVL442:
2288:HANcoder_E407_TTA_CombineModel_V2.c ****                     PWMOUT_INVERTED_OUTPUT_OFF);
2289:HANcoder_E407_TTA_CombineModel_V2.c **** 
2290:HANcoder_E407_TTA_CombineModel_V2.c ****     /* End of Start for SubSystem: '<S8>/Slot 5 execution' */
2291:HANcoder_E407_TTA_CombineModel_V2.c **** 
2292:HANcoder_E407_TTA_CombineModel_V2.c ****     /* Start for Enabled SubSystem: '<S8>/TRCK1_ID2_RX' */
2293:HANcoder_E407_TTA_CombineModel_V2.c ****     /* Constant: '<S8>/Constant5' */
2294:HANcoder_E407_TTA_CombineModel_V2.c ****     MMBS1_RX_Start(TRCK1_ID2);
 5488              		.loc 1 2294 5 view .LVU2053
 5489              	.LBB379:
 5490              	.LBI379:
 317:HANcoder_E407_TTA_CombineModel_V2.c **** {
 5491              		.loc 1 317 6 view .LVU2054
 5492              	.LBB380:
 322:HANcoder_E407_TTA_CombineModel_V2.c **** }
 5493              		.loc 1 322 3 view .LVU2055
 5494              	.LBE380:
 5495              	.LBE379:
 5496              		.loc 1 2294 5 is_stmt 0 view .LVU2056
 5497 00fa 434B     		ldr	r3, .L405+24
 5498              	.LBB382:
 5499              	.LBB381:
 322:HANcoder_E407_TTA_CombineModel_V2.c **** }
 5500              		.loc 1 322 3 view .LVU2057
 5501 00fc 2846     		mov	r0, r5
 5502 00fe 1968     		ldr	r1, [r3]
 5503 0100 FFF7FEFF 		bl	CanIoCreateMessageReceivedStorage
 5504              	.LVL443:
 322:HANcoder_E407_TTA_CombineModel_V2.c **** }
 5505              		.loc 1 322 3 view .LVU2058
 5506              	.LBE381:
 5507              	.LBE382:
2295:HANcoder_E407_TTA_CombineModel_V2.c **** 
2296:HANcoder_E407_TTA_CombineModel_V2.c ****     /* End of Start for SubSystem: '<S8>/TRCK1_ID2_RX' */
2297:HANcoder_E407_TTA_CombineModel_V2.c **** 
2298:HANcoder_E407_TTA_CombineModel_V2.c ****     /* Start for Enabled SubSystem: '<S8>/TRCK1_RX' */
2299:HANcoder_E407_TTA_CombineModel_V2.c ****     /* Constant: '<S8>/Constant3' */
2300:HANcoder_E407_TTA_CombineModel_V2.c ****     MMBS1_RX_Start(TRCK1_ID1);
 5508              		.loc 1 2300 5 is_stmt 1 view .LVU2059
 5509              	.LBB383:
 5510              	.LBI383:
 317:HANcoder_E407_TTA_CombineModel_V2.c **** {
 5511              		.loc 1 317 6 view .LVU2060
 5512              	.LBB384:
 322:HANcoder_E407_TTA_CombineModel_V2.c **** }
 5513              		.loc 1 322 3 view .LVU2061
 5514              	.LBE384:
 5515              	.LBE383:
 5516              		.loc 1 2300 5 is_stmt 0 view .LVU2062
 5517 0104 414B     		ldr	r3, .L405+28
 5518              	.LBB386:
 5519              	.LBB385:
 322:HANcoder_E407_TTA_CombineModel_V2.c **** }
 5520              		.loc 1 322 3 view .LVU2063
 5521 0106 2846     		mov	r0, r5
 5522 0108 1968     		ldr	r1, [r3]
 5523 010a FFF7FEFF 		bl	CanIoCreateMessageReceivedStorage
 5524              	.LVL444:
 322:HANcoder_E407_TTA_CombineModel_V2.c **** }
 5525              		.loc 1 322 3 view .LVU2064
 5526              	.LBE385:
 5527              	.LBE386:
2301:HANcoder_E407_TTA_CombineModel_V2.c **** 
2302:HANcoder_E407_TTA_CombineModel_V2.c ****     /* End of Start for SubSystem: '<S8>/TRCK1_RX' */
2303:HANcoder_E407_TTA_CombineModel_V2.c **** 
2304:HANcoder_E407_TTA_CombineModel_V2.c ****     /* Start for Enabled SubSystem: '<S8>/TRCK_ID3_RX' */
2305:HANcoder_E407_TTA_CombineModel_V2.c ****     /* Start for M-S-Function: '<S143>/S-Function' incorporates:
2306:HANcoder_E407_TTA_CombineModel_V2.c ****      *  Constant: '<S8>/Constant26'
2307:HANcoder_E407_TTA_CombineModel_V2.c ****      */
2308:HANcoder_E407_TTA_CombineModel_V2.c **** 
2309:HANcoder_E407_TTA_CombineModel_V2.c ****     /* register a CAN storage buffer for the message with this ID */
2310:HANcoder_E407_TTA_CombineModel_V2.c ****     CanIoCreateMessageReceivedStorage(0, TRCK1_ID3);
 5528              		.loc 1 2310 5 is_stmt 1 view .LVU2065
 5529 010e 404B     		ldr	r3, .L405+32
 5530 0110 2846     		mov	r0, r5
 5531 0112 1968     		ldr	r1, [r3]
 5532 0114 FFF7FEFF 		bl	CanIoCreateMessageReceivedStorage
 5533              	.LVL445:
2311:HANcoder_E407_TTA_CombineModel_V2.c **** 
2312:HANcoder_E407_TTA_CombineModel_V2.c ****     /* End of Start for SubSystem: '<S8>/TRCK_ID3_RX' */
2313:HANcoder_E407_TTA_CombineModel_V2.c **** 
2314:HANcoder_E407_TTA_CombineModel_V2.c ****     /* Start for Enabled SubSystem: '<S8>/TRLS_ID4_RX' */
2315:HANcoder_E407_TTA_CombineModel_V2.c ****     /* Start for M-S-Function: '<S146>/S-Function' incorporates:
2316:HANcoder_E407_TTA_CombineModel_V2.c ****      *  Constant: '<S8>/Constant8'
2317:HANcoder_E407_TTA_CombineModel_V2.c ****      */
2318:HANcoder_E407_TTA_CombineModel_V2.c **** 
2319:HANcoder_E407_TTA_CombineModel_V2.c ****     /* register a CAN storage buffer for the message with this ID */
2320:HANcoder_E407_TTA_CombineModel_V2.c ****     CanIoCreateMessageReceivedStorage(0, TRLS1_ID4);
 5534              		.loc 1 2320 5 view .LVU2066
 5535 0118 3E4B     		ldr	r3, .L405+36
 5536 011a 2846     		mov	r0, r5
 5537 011c 1968     		ldr	r1, [r3]
 5538 011e FFF7FEFF 		bl	CanIoCreateMessageReceivedStorage
 5539              	.LVL446:
2321:HANcoder_E407_TTA_CombineModel_V2.c **** 
2322:HANcoder_E407_TTA_CombineModel_V2.c ****     /* End of Start for SubSystem: '<S8>/TRLS_ID4_RX' */
2323:HANcoder_E407_TTA_CombineModel_V2.c **** 
2324:HANcoder_E407_TTA_CombineModel_V2.c ****     /* Start for Enabled SubSystem: '<S8>/TRLS_ID5_RX' */
2325:HANcoder_E407_TTA_CombineModel_V2.c ****     /* Start for M-S-Function: '<S158>/S-Function' incorporates:
2326:HANcoder_E407_TTA_CombineModel_V2.c ****      *  Constant: '<S8>/Constant18'
2327:HANcoder_E407_TTA_CombineModel_V2.c ****      */
2328:HANcoder_E407_TTA_CombineModel_V2.c **** 
2329:HANcoder_E407_TTA_CombineModel_V2.c ****     /* register a CAN storage buffer for the message with this ID */
2330:HANcoder_E407_TTA_CombineModel_V2.c ****     CanIoCreateMessageReceivedStorage(0, TRLS1_ID5);
 5540              		.loc 1 2330 5 view .LVU2067
 5541 0122 3D4B     		ldr	r3, .L405+40
 5542 0124 2846     		mov	r0, r5
 5543 0126 1968     		ldr	r1, [r3]
 5544 0128 FFF7FEFF 		bl	CanIoCreateMessageReceivedStorage
 5545              	.LVL447:
2331:HANcoder_E407_TTA_CombineModel_V2.c **** 
2332:HANcoder_E407_TTA_CombineModel_V2.c ****     /* End of Start for SubSystem: '<S8>/TRLS_ID5_RX' */
2333:HANcoder_E407_TTA_CombineModel_V2.c ****     /* End of Start for SubSystem: '<S1>/Message selector' */
2334:HANcoder_E407_TTA_CombineModel_V2.c **** 
2335:HANcoder_E407_TTA_CombineModel_V2.c ****     /* Start for Enabled SubSystem: '<S10>/Subsystem2' */
2336:HANcoder_E407_TTA_CombineModel_V2.c ****     /* Start for M-S-Function: '<S171>/S-Function' incorporates:
2337:HANcoder_E407_TTA_CombineModel_V2.c ****      *  Constant: '<S170>/Constant10'
2338:HANcoder_E407_TTA_CombineModel_V2.c ****      */
2339:HANcoder_E407_TTA_CombineModel_V2.c **** 
2340:HANcoder_E407_TTA_CombineModel_V2.c ****     /* register a CAN storage buffer for the message with this ID */
2341:HANcoder_E407_TTA_CombineModel_V2.c ****     CanIoCreateMessageReceivedStorage(0, SYNC1_ID);
 5546              		.loc 1 2341 5 view .LVU2068
 5547 012c D8F80010 		ldr	r1, [r8]
 5548 0130 2846     		mov	r0, r5
 5549 0132 FFF7FEFF 		bl	CanIoCreateMessageReceivedStorage
 5550              	.LVL448:
2342:HANcoder_E407_TTA_CombineModel_V2.c **** 
2343:HANcoder_E407_TTA_CombineModel_V2.c ****     /* End of Start for SubSystem: '<S10>/Subsystem2' */
2344:HANcoder_E407_TTA_CombineModel_V2.c **** 
2345:HANcoder_E407_TTA_CombineModel_V2.c ****     /* Start for If: '<S1>/If' */
2346:HANcoder_E407_TTA_CombineModel_V2.c ****     rtDWork.If_ActiveSubsystem = -1;
 5551              		.loc 1 2346 5 view .LVU2069
2347:HANcoder_E407_TTA_CombineModel_V2.c **** 
2348:HANcoder_E407_TTA_CombineModel_V2.c ****     /* Start for IfAction SubSystem: '<S1>/Triggered Subsystem' */
2349:HANcoder_E407_TTA_CombineModel_V2.c ****     /* Start for M-S-Function: '<S180>/Level-2 M-file S-Function' */
2350:HANcoder_E407_TTA_CombineModel_V2.c **** 
2351:HANcoder_E407_TTA_CombineModel_V2.c ****     /* configure the digital input */
2352:HANcoder_E407_TTA_CombineModel_V2.c ****     DiginConfigure(DIGIN_PORTA_PIN0, DIGIN_CFG_PULLDOWN);
 5552              		.loc 1 2352 5 is_stmt 0 view .LVU2070
 5553 0136 0221     		movs	r1, #2
 5554 0138 4720     		movs	r0, #71
2346:HANcoder_E407_TTA_CombineModel_V2.c **** 
 5555              		.loc 1 2346 32 view .LVU2071
 5556 013a 84F83970 		strb	r7, [r4, #57]
 5557              		.loc 1 2352 5 is_stmt 1 view .LVU2072
 5558 013e FFF7FEFF 		bl	DiginConfigure
 5559              	.LVL449:
2353:HANcoder_E407_TTA_CombineModel_V2.c **** 
2354:HANcoder_E407_TTA_CombineModel_V2.c ****     /* End of Start for SubSystem: '<S1>/Triggered Subsystem' */
2355:HANcoder_E407_TTA_CombineModel_V2.c **** 
2356:HANcoder_E407_TTA_CombineModel_V2.c ****     /* Start for M-S-Function: '<S2>/Level-2 M-file S-Function' */
2357:HANcoder_E407_TTA_CombineModel_V2.c **** 
2358:HANcoder_E407_TTA_CombineModel_V2.c ****     /* configure the stack size for the task that executes the model */
2359:HANcoder_E407_TTA_CombineModel_V2.c ****     AppCtrlTaskSetStackSize((configMINIMAL_STACK_SIZE*sizeof(portBASE_TYPE)) +
 5560              		.loc 1 2359 5 view .LVU2073
 5561 0142 4FF41970 		mov	r0, #612
 5562 0146 FFF7FEFF 		bl	AppCtrlTaskSetStackSize
 5563              	.LVL450:
2360:HANcoder_E407_TTA_CombineModel_V2.c ****       100);
2361:HANcoder_E407_TTA_CombineModel_V2.c **** 
2362:HANcoder_E407_TTA_CombineModel_V2.c ****     /* configure the sample time of the model in microseconds */
2363:HANcoder_E407_TTA_CombineModel_V2.c ****     AppCtrlTaskSetPeriod(1000);
 5564              		.loc 1 2363 5 view .LVU2074
 5565 014a 4FF47A70 		mov	r0, #1000
 5566 014e FFF7FEFF 		bl	AppCtrlTaskSetPeriod
 5567              	.LVL451:
2364:HANcoder_E407_TTA_CombineModel_V2.c **** 
2365:HANcoder_E407_TTA_CombineModel_V2.c ****     /* Run the ADC conversions ten times faster than the Simulink model */
2366:HANcoder_E407_TTA_CombineModel_V2.c ****     ADCconversionTaskSetPeriod(1000/10);
 5568              		.loc 1 2366 5 view .LVU2075
 5569 0152 6420     		movs	r0, #100
 5570 0154 FFF7FEFF 		bl	ADCconversionTaskSetPeriod
 5571              	.LVL452:
2367:HANcoder_E407_TTA_CombineModel_V2.c **** 
2368:HANcoder_E407_TTA_CombineModel_V2.c ****     /* Start for M-S-Function: '<S3>/Level-2 M-file S-Function' */
2369:HANcoder_E407_TTA_CombineModel_V2.c **** 
2370:HANcoder_E407_TTA_CombineModel_V2.c ****     /* store the CAN controller's filter configuration */
2371:HANcoder_E407_TTA_CombineModel_V2.c ****     canFilter1.mask = 0x00000000;
 5572              		.loc 1 2371 5 view .LVU2076
2372:HANcoder_E407_TTA_CombineModel_V2.c ****     canFilter1.code = 0x00000000;
2373:HANcoder_E407_TTA_CombineModel_V2.c ****     canFilter1.mode = CAN_FILTER_MODE_STDID_ONLY;
2374:HANcoder_E407_TTA_CombineModel_V2.c **** 
2375:HANcoder_E407_TTA_CombineModel_V2.c ****     /* connect and synchronize the CAN bus */
2376:HANcoder_E407_TTA_CombineModel_V2.c ****     canResult1 = CanConnect(0, 1000000, &canFilter1);
 5573              		.loc 1 2376 18 is_stmt 0 view .LVU2077
 5574 0158 2649     		ldr	r1, .L405+4
2373:HANcoder_E407_TTA_CombineModel_V2.c **** 
 5575              		.loc 1 2373 21 view .LVU2078
 5576 015a 8DF80C50 		strb	r5, [sp, #12]
 5577              		.loc 1 2376 18 view .LVU2079
 5578 015e 01AA     		add	r2, sp, #4
 5579 0160 2846     		mov	r0, r5
2372:HANcoder_E407_TTA_CombineModel_V2.c ****     canFilter1.code = 0x00000000;
 5580              		.loc 1 2372 21 view .LVU2080
 5581 0162 CDE90155 		strd	r5, r5, [sp, #4]
2373:HANcoder_E407_TTA_CombineModel_V2.c **** 
 5582              		.loc 1 2373 5 is_stmt 1 view .LVU2081
 5583              		.loc 1 2376 5 view .LVU2082
 5584              		.loc 1 2376 18 is_stmt 0 view .LVU2083
 5585 0166 FFF7FEFF 		bl	CanConnect
 5586              	.LVL453:
2377:HANcoder_E407_TTA_CombineModel_V2.c ****     configASSERT(canResult1 == TRUE);
 5587              		.loc 1 2377 5 is_stmt 1 view .LVU2084
 5588 016a B042     		cmp	r0, r6
 5589 016c 04D0     		beq	.L398
 5590              		.loc 1 2377 5 discriminator 2 view .LVU2085
 5591 016e 2B48     		ldr	r0, .L405+44
 5592              	.LVL454:
 5593              		.loc 1 2377 5 is_stmt 0 discriminator 2 view .LVU2086
 5594 0170 40F64911 		movw	r1, #2377
 5595 0174 FFF7FEFF 		bl	AssertFailure
 5596              	.LVL455:
 5597              	.L398:
2378:HANcoder_E407_TTA_CombineModel_V2.c **** 
2379:HANcoder_E407_TTA_CombineModel_V2.c ****     /* Start for S-Function (sfcn_timeout_init): '<S9>/S-Function' */
2380:HANcoder_E407_TTA_CombineModel_V2.c **** 
2381:HANcoder_E407_TTA_CombineModel_V2.c ****     /* register the free running counter overflow callback handler */
2382:HANcoder_E407_TTA_CombineModel_V2.c ****     TimeoutRegisterOverflowCallback(TIMEOUT_MODULE_TIM4,
 5598              		.loc 1 2382 5 is_stmt 1 view .LVU2087
 5599 0178 2949     		ldr	r1, .L405+48
 5600 017a 0320     		movs	r0, #3
 5601 017c FFF7FEFF 		bl	TimeoutRegisterOverflowCallback
 5602              	.LVL456:
2383:HANcoder_E407_TTA_CombineModel_V2.c ****       TimeoutOverflowIRQ_TIMEOUT_MODULE_TIM4);
2384:HANcoder_E407_TTA_CombineModel_V2.c **** 
2385:HANcoder_E407_TTA_CombineModel_V2.c ****     /* Start for M-S-Function: '<S14>/Level-2 M-file S-Function' */
2386:HANcoder_E407_TTA_CombineModel_V2.c **** 
2387:HANcoder_E407_TTA_CombineModel_V2.c ****     /* initialize the measurement and calibration interface */
2388:HANcoder_E407_TTA_CombineModel_V2.c ****     MacUsbComInit();
 5603              		.loc 1 2388 5 view .LVU2088
 5604 0180 FFF7FEFF 		bl	MacUsbComInit
 5605              	.LVL457:
2389:HANcoder_E407_TTA_CombineModel_V2.c ****     MacInit();
 5606              		.loc 1 2389 5 view .LVU2089
 5607 0184 FFF7FEFF 		bl	MacInit
 5608              	.LVL458:
 5609              	.LBE388:
2390:HANcoder_E407_TTA_CombineModel_V2.c ****   }
2391:HANcoder_E407_TTA_CombineModel_V2.c **** 
2392:HANcoder_E407_TTA_CombineModel_V2.c ****   rtPrevZCSigState.EnabledSubsystem_Trig_ZCE = POS_ZCSIG;
 5610              		.loc 1 2392 3 view .LVU2090
2393:HANcoder_E407_TTA_CombineModel_V2.c ****   rtPrevZCSigState.Subsystem_Trig_ZCE_h = UNINITIALIZED_ZCSIG;
 5611              		.loc 1 2393 3 view .LVU2091
2394:HANcoder_E407_TTA_CombineModel_V2.c ****   rtPrevZCSigState.SYNC1_TX_Trig_ZCE = POS_ZCSIG;
 5612              		.loc 1 2394 3 view .LVU2092
2395:HANcoder_E407_TTA_CombineModel_V2.c ****   rtPrevZCSigState.Slot5execution_Trig_ZCE = POS_ZCSIG;
 5613              		.loc 1 2395 3 view .LVU2093
2396:HANcoder_E407_TTA_CombineModel_V2.c ****   rtPrevZCSigState.Subsystem_Trig_ZCE_g = POS_ZCSIG;
 5614              		.loc 1 2396 3 view .LVU2094
2397:HANcoder_E407_TTA_CombineModel_V2.c ****   rtPrevZCSigState.TRLS_ID4_TX_Trig_ZCE = POS_ZCSIG;
 5615              		.loc 1 2397 3 view .LVU2095
2398:HANcoder_E407_TTA_CombineModel_V2.c ****   rtPrevZCSigState.TRLS_ID5_TX_Trig_ZCE = POS_ZCSIG;
 5616              		.loc 1 2398 3 view .LVU2096
2399:HANcoder_E407_TTA_CombineModel_V2.c ****   rtPrevZCSigState.Subsystem_Trig_ZCE = POS_ZCSIG;
 5617              		.loc 1 2399 3 view .LVU2097
2400:HANcoder_E407_TTA_CombineModel_V2.c ****   rtPrevZCSigState.Subsystem1_Trig_ZCE = UNINITIALIZED_ZCSIG;
 5618              		.loc 1 2400 3 view .LVU2098
2401:HANcoder_E407_TTA_CombineModel_V2.c ****   rtPrevZCSigState.TRCK1_TX.TRCK1_ID2_TX_Trig_ZCE = POS_ZCSIG;
 5619              		.loc 1 2401 3 view .LVU2099
2402:HANcoder_E407_TTA_CombineModel_V2.c ****   rtPrevZCSigState.TRCK1_ID3_TX.TRCK1_ID2_TX_Trig_ZCE = POS_ZCSIG;
 5620              		.loc 1 2402 3 view .LVU2100
2403:HANcoder_E407_TTA_CombineModel_V2.c ****   rtPrevZCSigState.TRCK1_ID2_TX_f.TRCK1_ID2_TX_Trig_ZCE = POS_ZCSIG;
 5621              		.loc 1 2403 3 view .LVU2101
2404:HANcoder_E407_TTA_CombineModel_V2.c ****   rtPrevZCSigState.SSTM1_TX.MMBS1_TX_Trig_ZCE = POS_ZCSIG;
 5622              		.loc 1 2404 3 view .LVU2102
2400:HANcoder_E407_TTA_CombineModel_V2.c ****   rtPrevZCSigState.TRCK1_TX.TRCK1_ID2_TX_Trig_ZCE = POS_ZCSIG;
 5623              		.loc 1 2400 40 is_stmt 0 view .LVU2103
 5624 0188 264B     		ldr	r3, .L405+52
 5625 018a 2749     		ldr	r1, .L405+56
 5626 018c 274A     		ldr	r2, .L405+60
 5627 018e 9A60     		str	r2, [r3, #8]
2405:HANcoder_E407_TTA_CombineModel_V2.c ****   rtPrevZCSigState.MMBS1_TX_a.MMBS1_TX_Trig_ZCE = POS_ZCSIG;
 5628              		.loc 1 2405 3 is_stmt 1 view .LVU2104
2400:HANcoder_E407_TTA_CombineModel_V2.c ****   rtPrevZCSigState.TRCK1_TX.TRCK1_ID2_TX_Trig_ZCE = POS_ZCSIG;
 5629              		.loc 1 2400 40 is_stmt 0 view .LVU2105
 5630 0190 4FF00130 		mov	r0, #16843009
 5631 0194 C3E90010 		strd	r1, r0, [r3]
 5632              	.LBB389:
 5633              	.LBB390:
 429:HANcoder_E407_TTA_CombineModel_V2.c ****   if (obj->isInitialized == 1) {
 5634              		.loc 1 429 7 view .LVU2106
 5635 0198 D4F8B851 		ldr	r5, [r4, #440]
 5636              	.LBE390:
 5637              	.LBE389:
 5638              		.loc 1 2405 49 view .LVU2107
 5639 019c 40F20112 		movw	r2, #257
 5640 01a0 9A81     		strh	r2, [r3, #12]	@ movhi
2406:HANcoder_E407_TTA_CombineModel_V2.c **** 
2407:HANcoder_E407_TTA_CombineModel_V2.c ****   /* SystemInitialize for Enabled SubSystem: '<S1>/Message selector'
2408:HANcoder_E407_TTA_CombineModel_V2.c ****    *
2409:HANcoder_E407_TTA_CombineModel_V2.c ****    * Block description for '<S1>/Message selector':
2410:HANcoder_E407_TTA_CombineModel_V2.c ****    *  Truck 1
2411:HANcoder_E407_TTA_CombineModel_V2.c ****    */
2412:HANcoder_E407_TTA_CombineModel_V2.c ****   /* SystemInitialize for Triggered SubSystem: '<S8>/Slot 5 execution' */
2413:HANcoder_E407_TTA_CombineModel_V2.c ****   MovingAverage_Init(&rtDWork.MovingAverage_p);
 5641              		.loc 1 2413 3 is_stmt 1 view .LVU2108
 5642              	.LVL459:
 5643              	.LBB392:
 5644              	.LBI389:
 423:HANcoder_E407_TTA_CombineModel_V2.c **** {
 5645              		.loc 1 423 6 view .LVU2109
 5646              	.LBB391:
 425:HANcoder_E407_TTA_CombineModel_V2.c ****   int32_T i;
 5647              		.loc 1 425 3 view .LVU2110
 426:HANcoder_E407_TTA_CombineModel_V2.c **** 
 5648              		.loc 1 426 3 view .LVU2111
 429:HANcoder_E407_TTA_CombineModel_V2.c ****   if (obj->isInitialized == 1) {
 5649              		.loc 1 429 3 view .LVU2112
 430:HANcoder_E407_TTA_CombineModel_V2.c ****     obj->pCumSum = 0.0F;
 5650              		.loc 1 430 3 view .LVU2113
 430:HANcoder_E407_TTA_CombineModel_V2.c ****     obj->pCumSum = 0.0F;
 5651              		.loc 1 430 6 is_stmt 0 view .LVU2114
 5652 01a2 2B68     		ldr	r3, [r5]
 5653 01a4 012B     		cmp	r3, #1
 5654 01a6 0DD1     		bne	.L399
 431:HANcoder_E407_TTA_CombineModel_V2.c ****     for (i = 0; i < 59; i++) {
 5655              		.loc 1 431 5 is_stmt 1 view .LVU2115
 431:HANcoder_E407_TTA_CombineModel_V2.c ****     for (i = 0; i < 59; i++) {
 5656              		.loc 1 431 18 is_stmt 0 view .LVU2116
 5657 01a8 0026     		movs	r6, #0
 433:HANcoder_E407_TTA_CombineModel_V2.c ****     }
 5658              		.loc 1 433 26 view .LVU2117
 5659 01aa EC22     		movs	r2, #236
 431:HANcoder_E407_TTA_CombineModel_V2.c ****     for (i = 0; i < 59; i++) {
 5660              		.loc 1 431 18 view .LVU2118
 5661 01ac AE60     		str	r6, [r5, #8]	@ float
 432:HANcoder_E407_TTA_CombineModel_V2.c ****       obj->pCumSumRev[i] = 0.0F;
 5662              		.loc 1 432 5 is_stmt 1 view .LVU2119
 5663              	.LVL460:
 432:HANcoder_E407_TTA_CombineModel_V2.c ****       obj->pCumSumRev[i] = 0.0F;
 5664              		.loc 1 432 19 view .LVU2120
 433:HANcoder_E407_TTA_CombineModel_V2.c ****     }
 5665              		.loc 1 433 26 is_stmt 0 view .LVU2121
 5666 01ae 0021     		movs	r1, #0
 5667 01b0 05F10C00 		add	r0, r5, #12
 5668 01b4 FFF7FEFF 		bl	memset
 5669              	.LVL461:
 436:HANcoder_E407_TTA_CombineModel_V2.c ****     obj->pModValueRev = 0.0F;
 5670              		.loc 1 436 5 is_stmt 1 view .LVU2122
 436:HANcoder_E407_TTA_CombineModel_V2.c ****     obj->pModValueRev = 0.0F;
 5671              		.loc 1 436 23 is_stmt 0 view .LVU2123
 5672 01b8 4FF07E53 		mov	r3, #1065353216
 5673 01bc C5F8F830 		str	r3, [r5, #248]	@ float
 437:HANcoder_E407_TTA_CombineModel_V2.c ****   }
 5674              		.loc 1 437 5 is_stmt 1 view .LVU2124
 437:HANcoder_E407_TTA_CombineModel_V2.c ****   }
 5675              		.loc 1 437 23 is_stmt 0 view .LVU2125
 5676 01c0 C5F8FC60 		str	r6, [r5, #252]	@ float
 5677              	.L399:
 5678              	.LVL462:
 437:HANcoder_E407_TTA_CombineModel_V2.c ****   }
 5679              		.loc 1 437 23 view .LVU2126
 5680              	.LBE391:
 5681              	.LBE392:
2414:HANcoder_E407_TTA_CombineModel_V2.c ****   MovingAverage_Init(&rtDWork.MovingAverage1);
 5682              		.loc 1 2414 3 is_stmt 1 view .LVU2127
 5683              	.LBB393:
 5684              	.LBI393:
 423:HANcoder_E407_TTA_CombineModel_V2.c **** {
 5685              		.loc 1 423 6 view .LVU2128
 5686              	.LBB394:
 425:HANcoder_E407_TTA_CombineModel_V2.c ****   int32_T i;
 5687              		.loc 1 425 3 view .LVU2129
 426:HANcoder_E407_TTA_CombineModel_V2.c **** 
 5688              		.loc 1 426 3 view .LVU2130
 429:HANcoder_E407_TTA_CombineModel_V2.c ****   if (obj->isInitialized == 1) {
 5689              		.loc 1 429 3 view .LVU2131
 429:HANcoder_E407_TTA_CombineModel_V2.c ****   if (obj->isInitialized == 1) {
 5690              		.loc 1 429 7 is_stmt 0 view .LVU2132
 5691 01c4 E46F     		ldr	r4, [r4, #124]
 5692              	.LVL463:
 430:HANcoder_E407_TTA_CombineModel_V2.c ****     obj->pCumSum = 0.0F;
 5693              		.loc 1 430 3 is_stmt 1 view .LVU2133
 430:HANcoder_E407_TTA_CombineModel_V2.c ****     obj->pCumSum = 0.0F;
 5694              		.loc 1 430 6 is_stmt 0 view .LVU2134
 5695 01c6 2368     		ldr	r3, [r4]
 5696 01c8 012B     		cmp	r3, #1
 5697 01ca 0DD1     		bne	.L397
 431:HANcoder_E407_TTA_CombineModel_V2.c ****     for (i = 0; i < 59; i++) {
 5698              		.loc 1 431 5 is_stmt 1 view .LVU2135
 431:HANcoder_E407_TTA_CombineModel_V2.c ****     for (i = 0; i < 59; i++) {
 5699              		.loc 1 431 18 is_stmt 0 view .LVU2136
 5700 01cc 0025     		movs	r5, #0
 433:HANcoder_E407_TTA_CombineModel_V2.c ****     }
 5701              		.loc 1 433 26 view .LVU2137
 5702 01ce EC22     		movs	r2, #236
 431:HANcoder_E407_TTA_CombineModel_V2.c ****     for (i = 0; i < 59; i++) {
 5703              		.loc 1 431 18 view .LVU2138
 5704 01d0 A560     		str	r5, [r4, #8]	@ float
 432:HANcoder_E407_TTA_CombineModel_V2.c ****       obj->pCumSumRev[i] = 0.0F;
 5705              		.loc 1 432 5 is_stmt 1 view .LVU2139
 5706              	.LVL464:
 432:HANcoder_E407_TTA_CombineModel_V2.c ****       obj->pCumSumRev[i] = 0.0F;
 5707              		.loc 1 432 19 view .LVU2140
 433:HANcoder_E407_TTA_CombineModel_V2.c ****     }
 5708              		.loc 1 433 26 is_stmt 0 view .LVU2141
 5709 01d2 0021     		movs	r1, #0
 5710 01d4 04F10C00 		add	r0, r4, #12
 5711 01d8 FFF7FEFF 		bl	memset
 5712              	.LVL465:
 436:HANcoder_E407_TTA_CombineModel_V2.c ****     obj->pModValueRev = 0.0F;
 5713              		.loc 1 436 5 is_stmt 1 view .LVU2142
 436:HANcoder_E407_TTA_CombineModel_V2.c ****     obj->pModValueRev = 0.0F;
 5714              		.loc 1 436 23 is_stmt 0 view .LVU2143
 5715 01dc 4FF07E53 		mov	r3, #1065353216
 5716 01e0 C4F8F830 		str	r3, [r4, #248]	@ float
 437:HANcoder_E407_TTA_CombineModel_V2.c ****   }
 5717              		.loc 1 437 5 is_stmt 1 view .LVU2144
 437:HANcoder_E407_TTA_CombineModel_V2.c ****   }
 5718              		.loc 1 437 23 is_stmt 0 view .LVU2145
 5719 01e4 C4F8FC50 		str	r5, [r4, #252]	@ float
 5720              	.LVL466:
 5721              	.L397:
 437:HANcoder_E407_TTA_CombineModel_V2.c ****   }
 5722              		.loc 1 437 23 view .LVU2146
 5723              	.LBE394:
 5724              	.LBE393:
2415:HANcoder_E407_TTA_CombineModel_V2.c **** 
2416:HANcoder_E407_TTA_CombineModel_V2.c ****   /* End of SystemInitialize for SubSystem: '<S8>/Slot 5 execution' */
2417:HANcoder_E407_TTA_CombineModel_V2.c ****   /* End of SystemInitialize for SubSystem: '<S1>/Message selector' */
2418:HANcoder_E407_TTA_CombineModel_V2.c **** }
 5725              		.loc 1 2418 1 view .LVU2147
 5726 01e8 04B0     		add	sp, sp, #16
 5727              		.cfi_def_cfa_offset 24
 5728              		@ sp needed
 5729 01ea BDE8F081 		pop	{r4, r5, r6, r7, r8, pc}
 5730              	.L406:
 5731 01ee 00BF     		.align	2
 5732              	.L405:
 5733 01f0 00000000 		.word	rtDWork
 5734 01f4 40420F00 		.word	1000000
 5735 01f8 00000000 		.word	TimeoutEventIRQ_TIMEOUT_TIM4_PIN_PD12
 5736 01fc 00000000 		.word	MMBS1_ID
 5737 0200 00000000 		.word	SSTM1_ID
 5738 0204 00000000 		.word	PwmoutIRQ_PWMOUT_MODULE_TIM14
 5739 0208 00000000 		.word	TRCK1_ID2
 5740 020c 00000000 		.word	TRCK1_ID1
 5741 0210 00000000 		.word	TRCK1_ID3
 5742 0214 00000000 		.word	TRLS1_ID4
 5743 0218 00000000 		.word	TRLS1_ID5
 5744 021c 00000000 		.word	.LC1
 5745 0220 00000000 		.word	TimeoutOverflowIRQ_TIMEOUT_MODULE_TIM4
 5746 0224 00000000 		.word	rtPrevZCSigState
 5747 0228 03010101 		.word	16843011
 5748 022c 01010301 		.word	16974081
 5749 0230 00000000 		.word	SYNC1_ID
 5750              		.cfi_endproc
 5751              	.LFE129:
 5753              		.section	.bss.canRxData_0_TRLS1_ID5,"aw",%nobits
 5754              		.align	2
 5757              	canRxData_0_TRLS1_ID5:
 5758 0000 00000000 		.space	8
 5758      00000000 
 5759              		.section	.bss.canRxData_0_TRLS1_ID4,"aw",%nobits
 5760              		.align	2
 5763              	canRxData_0_TRLS1_ID4:
 5764 0000 00000000 		.space	8
 5764      00000000 
 5765              		.section	.bss.canRxData_0_TRCK1_ID3,"aw",%nobits
 5766              		.align	2
 5769              	canRxData_0_TRCK1_ID3:
 5770 0000 00000000 		.space	8
 5770      00000000 
 5771              		.section	.bss.canRxData_0_SYNC1_ID,"aw",%nobits
 5772              		.align	2
 5775              	canRxData_0_SYNC1_ID:
 5776 0000 00000000 		.space	8
 5776      00000000 
 5777              		.section	.bss.canTxData,"aw",%nobits
 5778              		.align	2
 5781              	canTxData:
 5782 0000 00000000 		.space	8
 5782      00000000 
 5783              		.section	.bss.canRxData_0_rtu_In1,"aw",%nobits
 5784              		.align	2
 5787              	canRxData_0_rtu_In1:
 5788 0000 00000000 		.space	8
 5788      00000000 
 5789              		.global	rtPrevZCSigState
 5790              		.section	.bss.rtPrevZCSigState,"aw",%nobits
 5791              		.align	2
 5794              	rtPrevZCSigState:
 5795 0000 00000000 		.space	14
 5795      00000000 
 5795      00000000 
 5795      0000
 5796              		.global	rtDWork
 5797              		.section	.bss.rtDWork,"aw",%nobits
 5798              		.align	3
 5801              	rtDWork:
 5802 0000 00000000 		.space	720
 5802      00000000 
 5802      00000000 
 5802      00000000 
 5802      00000000 
 5803              		.global	rtB
 5804              		.section	.bss.rtB,"aw",%nobits
 5805              		.align	3
 5808              	rtB:
 5809 0000 00000000 		.space	104
 5809      00000000 
 5809      00000000 
 5809      00000000 
 5809      00000000 
 5810              		.global	slotTime
 5811              		.section	.data.slotTime,"aw"
 5814              	slotTime:
 5815 0000 32       		.byte	50
 5816              		.global	TRLS1_ID5
 5817              		.section	.data.TRLS1_ID5,"aw"
 5818              		.align	2
 5821              	TRLS1_ID5:
 5822 0000 3B000000 		.word	59
 5823              		.global	TRLS1_ID4
 5824              		.section	.data.TRLS1_ID4,"aw"
 5825              		.align	2
 5828              	TRLS1_ID4:
 5829 0000 30000000 		.word	48
 5830              		.global	TRCK1_ID3
 5831              		.section	.data.TRCK1_ID3,"aw"
 5832              		.align	2
 5835              	TRCK1_ID3:
 5836 0000 25000000 		.word	37
 5837              		.global	TRCK1_ID2
 5838              		.section	.data.TRCK1_ID2,"aw"
 5839              		.align	2
 5842              	TRCK1_ID2:
 5843 0000 1A000000 		.word	26
 5844              		.global	TRCK1_ID1
 5845              		.section	.data.TRCK1_ID1,"aw"
 5846              		.align	2
 5849              	TRCK1_ID1:
 5850 0000 0E000000 		.word	14
 5851              		.global	SYNC1_ID
 5852              		.section	.data.SYNC1_ID,"aw"
 5853              		.align	2
 5856              	SYNC1_ID:
 5857 0000 0B000000 		.word	11
 5858              		.global	SSTM1_ID
 5859              		.section	.data.SSTM1_ID,"aw"
 5860              		.align	2
 5863              	SSTM1_ID:
 5864 0000 0D000000 		.word	13
 5865              		.global	MMBS1_ID
 5866              		.section	.data.MMBS1_ID,"aw"
 5867              		.align	2
 5870              	MMBS1_ID:
 5871 0000 0C000000 		.word	12
 5872              		.global	propVal
 5873              		.section	.data.propVal,"aw"
 5874              		.align	3
 5877              	propVal:
 5878 0000 00000000 		.word	0
 5879 0004 0000F03F 		.word	1072693248
 5880              		.global	matrixRows
 5881              		.section	.data.matrixRows,"aw"
 5882              		.align	3
 5885              	matrixRows:
 5886 0000 00000000 		.word	0
 5887 0004 00002440 		.word	1076101120
 5888              		.global	intVal
 5889              		.section	.data.intVal,"aw"
 5890              		.align	3
 5893              	intVal:
 5894 0000 00000040 		.word	1073741824
 5895 0004 3333C33F 		.word	1069757235
 5896              		.global	desiredAngle
 5897              		.section	.data.desiredAngle,"aw"
 5898              		.align	3
 5901              	desiredAngle:
 5902 0000 00000000 		.space	8
 5902      00000000 
 5903              		.global	controlWidth
 5904              		.section	.data.controlWidth,"aw"
 5905              		.align	3
 5908              	controlWidth:
 5909 0000 00000000 		.word	0
 5910 0004 00000840 		.word	1074266112
 5911              		.global	ResetPosition
 5912              		.section	.data.ResetPosition,"aw"
 5913              		.align	3
 5916              	ResetPosition:
 5917 0000 00000000 		.space	8
 5917      00000000 
 5918              		.global	ClockOn
 5919              		.section	.data.ClockOn,"aw"
 5920              		.align	3
 5923              	ClockOn:
 5924 0000 00000000 		.space	8
 5924      00000000 
 5925              		.global	canActive
 5926              		.section	.bss.canActive,"aw",%nobits
 5929              	canActive:
 5930 0000 00       		.space	1
 5931              		.global	ccw
 5932              		.section	.bss.ccw,"aw",%nobits
 5935              	ccw:
 5936 0000 00       		.space	1
 5937              		.global	cw
 5938              		.section	.bss.cw,"aw",%nobits
 5941              	cw:
 5942 0000 00       		.space	1
 5943              		.global	boolCan
 5944              		.section	.bss.boolCan,"aw",%nobits
 5947              	boolCan:
 5948 0000 00       		.space	1
 5949              		.global	masterID
 5950              		.section	.bss.masterID,"aw",%nobits
 5953              	masterID:
 5954 0000 00       		.space	1
 5955              		.global	slotSelected
 5956              		.section	.bss.slotSelected,"aw",%nobits
 5959              	slotSelected:
 5960 0000 00       		.space	1
 5961              		.global	setSlotTime
 5962              		.section	.bss.setSlotTime,"aw",%nobits
 5965              	setSlotTime:
 5966 0000 00       		.space	1
 5967              		.global	local_ticks_interrupt
 5968              		.section	.bss.local_ticks_interrupt,"aw",%nobits
 5971              	local_ticks_interrupt:
 5972 0000 00       		.space	1
 5973              		.global	positionID4
 5974              		.section	.bss.positionID4,"aw",%nobits
 5977              	positionID4:
 5978 0000 00       		.space	1
 5979              		.global	positionID5
 5980              		.section	.bss.positionID5,"aw",%nobits
 5983              	positionID5:
 5984 0000 00       		.space	1
 5985              		.global	amounttrailers
 5986              		.section	.bss.amounttrailers,"aw",%nobits
 5989              	amounttrailers:
 5990 0000 00       		.space	1
 5991              		.global	buttonpress1
 5992              		.section	.bss.buttonpress1,"aw",%nobits
 5995              	buttonpress1:
 5996 0000 00       		.space	1
 5997              		.global	buttonpress2
 5998              		.section	.bss.buttonpress2,"aw",%nobits
 6001              	buttonpress2:
 6002 0000 00       		.space	1
 6003              		.global	SI_CPUload
 6004              		.section	.bss.SI_CPUload,"aw",%nobits
 6007              	SI_CPUload:
 6008 0000 00       		.space	1
 6009              		.global	testCounter
 6010              		.section	.bss.testCounter,"aw",%nobits
 6011              		.align	1
 6014              	testCounter:
 6015 0000 0000     		.space	2
 6016              		.global	pot2
 6017              		.section	.bss.pot2,"aw",%nobits
 6018              		.align	1
 6021              	pot2:
 6022 0000 0000     		.space	2
 6023              		.global	analogPot2
 6024              		.section	.bss.analogPot2,"aw",%nobits
 6025              		.align	1
 6028              	analogPot2:
 6029 0000 0000     		.space	2
 6030              		.global	pot1
 6031              		.section	.bss.pot1,"aw",%nobits
 6032              		.align	1
 6035              	pot1:
 6036 0000 0000     		.space	2
 6037              		.global	analogPot1
 6038              		.section	.bss.analogPot1,"aw",%nobits
 6039              		.align	1
 6042              	analogPot1:
 6043 0000 0000     		.space	2
 6044              		.global	mospeed
 6045              		.section	.bss.mospeed,"aw",%nobits
 6046              		.align	1
 6049              	mospeed:
 6050 0000 0000     		.space	2
 6051              		.global	Gamma2
 6052              		.section	.bss.Gamma2,"aw",%nobits
 6053              		.align	1
 6056              	Gamma2:
 6057 0000 0000     		.space	2
 6058              		.global	t1Angle
 6059              		.section	.bss.t1Angle,"aw",%nobits
 6060              		.align	1
 6063              	t1Angle:
 6064 0000 0000     		.space	2
 6065              		.global	t2Angle
 6066              		.section	.bss.t2Angle,"aw",%nobits
 6067              		.align	1
 6070              	t2Angle:
 6071 0000 0000     		.space	2
 6072              		.global	delta12K
 6073              		.section	.bss.delta12K,"aw",%nobits
 6074              		.align	2
 6077              	delta12K:
 6078 0000 00000000 		.space	4
 6079              		.global	SI_FreeStack
 6080              		.section	.bss.SI_FreeStack,"aw",%nobits
 6081              		.align	2
 6084              	SI_FreeStack:
 6085 0000 00000000 		.space	4
 6086              		.global	SI_FreeHeap
 6087              		.section	.bss.SI_FreeHeap,"aw",%nobits
 6088              		.align	2
 6091              	SI_FreeHeap:
 6092 0000 00000000 		.space	4
 6093              		.global	control
 6094              		.section	.bss.control,"aw",%nobits
 6095              		.align	3
 6098              	control:
 6099 0000 00000000 		.space	8
 6099      00000000 
 6100              		.global	position
 6101              		.section	.bss.position,"aw",%nobits
 6102              		.align	3
 6105              	position:
 6106 0000 00000000 		.space	8
 6106      00000000 
 6107              		.global	steering
 6108              		.section	.bss.steering,"aw",%nobits
 6109              		.align	3
 6112              	steering:
 6113 0000 00000000 		.space	8
 6113      00000000 
 6114              		.global	Gamma1
 6115              		.section	.bss.Gamma1,"aw",%nobits
 6116              		.align	3
 6119              	Gamma1:
 6120 0000 00000000 		.space	8
 6120      00000000 
 6121              		.global	reqAngle
 6122              		.section	.bss.reqAngle,"aw",%nobits
 6123              		.align	3
 6126              	reqAngle:
 6127 0000 00000000 		.space	8
 6127      00000000 
 6128              		.text
 6129              	.Letext0:
 6130              		.file 2 "rtwtypes.h"
 6131              		.file 3 "c:\\program files (x86)\\arm gnu toolchain arm-none-eabi\\12.2 rel1\\arm-none-eabi\\inclu
 6132              		.file 4 "c:\\program files (x86)\\arm gnu toolchain arm-none-eabi\\12.2 rel1\\arm-none-eabi\\inclu
 6133              		.file 5 "../blockset/rtw/STM32/inc/STM32_E407/timeout.h"
 6134              		.file 6 "../blockset/rtw/STM32/inc/STM32_E407/digin.h"
 6135              		.file 7 "../blockset/rtw/STM32/inc/STM32_E407/can.h"
 6136              		.file 8 "../blockset/rtw/STM32/inc/STM32_E407/quadencoder.h"
 6137              		.file 9 "../blockset/rtw/STM32/inc/STM32_E407/pwmout.h"
 6138              		.file 10 "../blockset/rtw/STM32/inc/STM32_E407/digout.h"
 6139              		.file 11 "c:\\program files (x86)\\arm gnu toolchain arm-none-eabi\\12.2 rel1\\lib\\gcc\\arm-none-
 6140              		.file 12 "HANcoder_E407_TTA_CombineModel_V2_types.h"
 6141              		.file 13 "zero_crossing_types.h"
 6142              		.file 14 "HANcoder_E407_TTA_CombineModel_V2.h"
 6143              		.file 15 "../blockset/rtw/STM32/inc/STM32_E407/mac.h"
 6144              		.file 16 "../blockset/rtw/STM32/inc/STM32_E407/FreeRTOSConfig.h"
 6145              		.file 17 "../blockset/rtw/STM32/inc/STM32_E407/anin.h"
 6146              		.file 18 "../blockset/rtw/STM32/inc/app.h"
 6147              		.file 19 "../blockset/rtw/STM32/inc/STM32_E407/canio.h"
 6148              		.file 20 "../blockset/rtw/STM32/inc/os.h"
 6149              		.file 21 "c:\\program files (x86)\\arm gnu toolchain arm-none-eabi\\12.2 rel1\\arm-none-eabi\\incl
 6150              		.file 22 "rt_i32zcfcn.h"
 6151              		.file 23 "<built-in>"
DEFINED SYMBOLS
                            *ABS*:00000000 HANcoder_E407_TTA_CombineModel_V2.c
C:\Users\luukr\AppData\Local\Temp\ccZ1jnO7.s:20     .text.PwmoutIRQ_PWMOUT_MODULE_TIM14:00000000 $t
C:\Users\luukr\AppData\Local\Temp\ccZ1jnO7.s:27     .text.PwmoutIRQ_PWMOUT_MODULE_TIM14:00000000 PwmoutIRQ_PWMOUT_MODULE_TIM14
C:\Users\luukr\AppData\Local\Temp\ccZ1jnO7.s:41     .text.TimeoutEventIRQ_TIMEOUT_TIM4_PIN_PD12:00000000 $t
C:\Users\luukr\AppData\Local\Temp\ccZ1jnO7.s:48     .text.TimeoutEventIRQ_TIMEOUT_TIM4_PIN_PD12:00000000 TimeoutEventIRQ_TIMEOUT_TIM4_PIN_PD12
C:\Users\luukr\AppData\Local\Temp\ccZ1jnO7.s:195    .text.TimeoutEventIRQ_TIMEOUT_TIM4_PIN_PD12:00000090 $d
C:\Users\luukr\AppData\Local\Temp\ccZ1jnO7.s:5808   .bss.rtB:00000000 rtB
C:\Users\luukr\AppData\Local\Temp\ccZ1jnO7.s:5929   .bss.canActive:00000000 canActive
C:\Users\luukr\AppData\Local\Temp\ccZ1jnO7.s:5801   .bss.rtDWork:00000000 rtDWork
C:\Users\luukr\AppData\Local\Temp\ccZ1jnO7.s:5971   .bss.local_ticks_interrupt:00000000 local_ticks_interrupt
C:\Users\luukr\AppData\Local\Temp\ccZ1jnO7.s:5965   .bss.setSlotTime:00000000 setSlotTime
C:\Users\luukr\AppData\Local\Temp\ccZ1jnO7.s:5794   .bss.rtPrevZCSigState:00000000 rtPrevZCSigState
C:\Users\luukr\AppData\Local\Temp\ccZ1jnO7.s:5885   .data.matrixRows:00000000 matrixRows
C:\Users\luukr\AppData\Local\Temp\ccZ1jnO7.s:5959   .bss.slotSelected:00000000 slotSelected
C:\Users\luukr\AppData\Local\Temp\ccZ1jnO7.s:208    .text.TimeoutOverflowIRQ_TIMEOUT_MODULE_TIM4:00000000 $t
C:\Users\luukr\AppData\Local\Temp\ccZ1jnO7.s:215    .text.TimeoutOverflowIRQ_TIMEOUT_MODULE_TIM4:00000000 TimeoutOverflowIRQ_TIMEOUT_MODULE_TIM4
C:\Users\luukr\AppData\Local\Temp\ccZ1jnO7.s:227    .text.ByteSwap_x:00000000 $t
C:\Users\luukr\AppData\Local\Temp\ccZ1jnO7.s:234    .text.ByteSwap_x:00000000 ByteSwap_x
C:\Users\luukr\AppData\Local\Temp\ccZ1jnO7.s:320    .text.EnabledSubsystem:00000000 $t
C:\Users\luukr\AppData\Local\Temp\ccZ1jnO7.s:327    .text.EnabledSubsystem:00000000 EnabledSubsystem
C:\Users\luukr\AppData\Local\Temp\ccZ1jnO7.s:348    .text.MMBS1_RX_Disable:00000000 $t
C:\Users\luukr\AppData\Local\Temp\ccZ1jnO7.s:355    .text.MMBS1_RX_Disable:00000000 MMBS1_RX_Disable
C:\Users\luukr\AppData\Local\Temp\ccZ1jnO7.s:373    .text.MMBS1_RX_Start:00000000 $t
C:\Users\luukr\AppData\Local\Temp\ccZ1jnO7.s:380    .text.MMBS1_RX_Start:00000000 MMBS1_RX_Start
C:\Users\luukr\AppData\Local\Temp\ccZ1jnO7.s:402    .text.MMBS1_RX:00000000 $t
C:\Users\luukr\AppData\Local\Temp\ccZ1jnO7.s:409    .text.MMBS1_RX:00000000 MMBS1_RX
C:\Users\luukr\AppData\Local\Temp\ccZ1jnO7.s:537    .text.MMBS1_RX:00000030 $d
C:\Users\luukr\AppData\Local\Temp\ccZ1jnO7.s:5787   .bss.canRxData_0_rtu_In1:00000000 canRxData_0_rtu_In1
C:\Users\luukr\AppData\Local\Temp\ccZ1jnO7.s:542    .text.MMBS1_TX:00000000 $t
C:\Users\luukr\AppData\Local\Temp\ccZ1jnO7.s:549    .text.MMBS1_TX:00000000 MMBS1_TX
C:\Users\luukr\AppData\Local\Temp\ccZ1jnO7.s:603    .text.MMBS1_TX:00000024 $d
C:\Users\luukr\AppData\Local\Temp\ccZ1jnO7.s:5781   .bss.canTxData:00000000 canTxData
C:\Users\luukr\AppData\Local\Temp\ccZ1jnO7.s:608    .text.MovingAverage_Init:00000000 $t
C:\Users\luukr\AppData\Local\Temp\ccZ1jnO7.s:615    .text.MovingAverage_Init:00000000 MovingAverage_Init
C:\Users\luukr\AppData\Local\Temp\ccZ1jnO7.s:675    .text.MovingAverage_Start:00000000 $t
C:\Users\luukr\AppData\Local\Temp\ccZ1jnO7.s:682    .text.MovingAverage_Start:00000000 MovingAverage_Start
C:\Users\luukr\AppData\Local\Temp\ccZ1jnO7.s:747    .text.MovingAverage:00000000 $t
C:\Users\luukr\AppData\Local\Temp\ccZ1jnO7.s:754    .text.MovingAverage:00000000 MovingAverage
C:\Users\luukr\AppData\Local\Temp\ccZ1jnO7.s:1046   .text.MovingAverage:00000148 $d
C:\Users\luukr\AppData\Local\Temp\ccZ1jnO7.s:1053   .text.BitShift:00000000 $t
C:\Users\luukr\AppData\Local\Temp\ccZ1jnO7.s:1060   .text.BitShift:00000000 BitShift
C:\Users\luukr\AppData\Local\Temp\ccZ1jnO7.s:1080   .text.TRCK1_ID2_TX:00000000 $t
C:\Users\luukr\AppData\Local\Temp\ccZ1jnO7.s:1087   .text.TRCK1_ID2_TX:00000000 TRCK1_ID2_TX
C:\Users\luukr\AppData\Local\Temp\ccZ1jnO7.s:1229   .text.TRCK1_ID2_TX:00000068 $d
C:\Users\luukr\AppData\Local\Temp\ccZ1jnO7.s:1234   .text.BitShift_j:00000000 $t
C:\Users\luukr\AppData\Local\Temp\ccZ1jnO7.s:1241   .text.BitShift_j:00000000 BitShift_j
C:\Users\luukr\AppData\Local\Temp\ccZ1jnO7.s:1274   .rodata.HANcoder_E407_TTA_CombineModel_V2_step.str1.4:00000000 $d
C:\Users\luukr\AppData\Local\Temp\ccZ1jnO7.s:1278   .text.HANcoder_E407_TTA_CombineModel_V2_step:00000000 $t
C:\Users\luukr\AppData\Local\Temp\ccZ1jnO7.s:1285   .text.HANcoder_E407_TTA_CombineModel_V2_step:00000000 HANcoder_E407_TTA_CombineModel_V2_step
C:\Users\luukr\AppData\Local\Temp\ccZ1jnO7.s:1807   .text.HANcoder_E407_TTA_CombineModel_V2_step:000001c0 $d
C:\Users\luukr\AppData\Local\Temp\ccZ1jnO7.s:5923   .data.ClockOn:00000000 ClockOn
C:\Users\luukr\AppData\Local\Temp\ccZ1jnO7.s:5953   .bss.masterID:00000000 masterID
C:\Users\luukr\AppData\Local\Temp\ccZ1jnO7.s:5870   .data.MMBS1_ID:00000000 MMBS1_ID
C:\Users\luukr\AppData\Local\Temp\ccZ1jnO7.s:5856   .data.SYNC1_ID:00000000 SYNC1_ID
C:\Users\luukr\AppData\Local\Temp\ccZ1jnO7.s:5947   .bss.boolCan:00000000 boolCan
C:\Users\luukr\AppData\Local\Temp\ccZ1jnO7.s:6014   .bss.testCounter:00000000 testCounter
C:\Users\luukr\AppData\Local\Temp\ccZ1jnO7.s:1839   .text.HANcoder_E407_TTA_CombineModel_V2_step:000001f8 $t
C:\Users\luukr\AppData\Local\Temp\ccZ1jnO7.s:2452   .text.HANcoder_E407_TTA_CombineModel_V2_step:00000508 $d
C:\Users\luukr\AppData\Local\Temp\ccZ1jnO7.s:5863   .data.SSTM1_ID:00000000 SSTM1_ID
C:\Users\luukr\AppData\Local\Temp\ccZ1jnO7.s:6042   .bss.analogPot1:00000000 analogPot1
C:\Users\luukr\AppData\Local\Temp\ccZ1jnO7.s:6035   .bss.pot1:00000000 pot1
C:\Users\luukr\AppData\Local\Temp\ccZ1jnO7.s:6028   .bss.analogPot2:00000000 analogPot2
C:\Users\luukr\AppData\Local\Temp\ccZ1jnO7.s:6021   .bss.pot2:00000000 pot2
C:\Users\luukr\AppData\Local\Temp\ccZ1jnO7.s:5901   .data.desiredAngle:00000000 desiredAngle
C:\Users\luukr\AppData\Local\Temp\ccZ1jnO7.s:6126   .bss.reqAngle:00000000 reqAngle
C:\Users\luukr\AppData\Local\Temp\ccZ1jnO7.s:6070   .bss.t2Angle:00000000 t2Angle
C:\Users\luukr\AppData\Local\Temp\ccZ1jnO7.s:6063   .bss.t1Angle:00000000 t1Angle
C:\Users\luukr\AppData\Local\Temp\ccZ1jnO7.s:6056   .bss.Gamma2:00000000 Gamma2
C:\Users\luukr\AppData\Local\Temp\ccZ1jnO7.s:6119   .bss.Gamma1:00000000 Gamma1
C:\Users\luukr\AppData\Local\Temp\ccZ1jnO7.s:2480   .text.HANcoder_E407_TTA_CombineModel_V2_step:00000570 $t
C:\Users\luukr\AppData\Local\Temp\ccZ1jnO7.s:3037   .text.HANcoder_E407_TTA_CombineModel_V2_step:000008b8 $d
C:\Users\luukr\AppData\Local\Temp\ccZ1jnO7.s:6077   .bss.delta12K:00000000 delta12K
C:\Users\luukr\AppData\Local\Temp\ccZ1jnO7.s:6112   .bss.steering:00000000 steering
C:\Users\luukr\AppData\Local\Temp\ccZ1jnO7.s:6105   .bss.position:00000000 position
C:\Users\luukr\AppData\Local\Temp\ccZ1jnO7.s:6098   .bss.control:00000000 control
C:\Users\luukr\AppData\Local\Temp\ccZ1jnO7.s:5877   .data.propVal:00000000 propVal
C:\Users\luukr\AppData\Local\Temp\ccZ1jnO7.s:6049   .bss.mospeed:00000000 mospeed
C:\Users\luukr\AppData\Local\Temp\ccZ1jnO7.s:5908   .data.controlWidth:00000000 controlWidth
C:\Users\luukr\AppData\Local\Temp\ccZ1jnO7.s:5941   .bss.cw:00000000 cw
C:\Users\luukr\AppData\Local\Temp\ccZ1jnO7.s:5935   .bss.ccw:00000000 ccw
C:\Users\luukr\AppData\Local\Temp\ccZ1jnO7.s:5893   .data.intVal:00000000 intVal
C:\Users\luukr\AppData\Local\Temp\ccZ1jnO7.s:5835   .data.TRCK1_ID3:00000000 TRCK1_ID3
C:\Users\luukr\AppData\Local\Temp\ccZ1jnO7.s:5842   .data.TRCK1_ID2:00000000 TRCK1_ID2
C:\Users\luukr\AppData\Local\Temp\ccZ1jnO7.s:3068   .text.HANcoder_E407_TTA_CombineModel_V2_step:00000928 $t
C:\Users\luukr\AppData\Local\Temp\ccZ1jnO7.s:3732   .text.HANcoder_E407_TTA_CombineModel_V2_step:00000bf0 $d
C:\Users\luukr\AppData\Local\Temp\ccZ1jnO7.s:5828   .data.TRLS1_ID4:00000000 TRLS1_ID4
C:\Users\luukr\AppData\Local\Temp\ccZ1jnO7.s:5821   .data.TRLS1_ID5:00000000 TRLS1_ID5
C:\Users\luukr\AppData\Local\Temp\ccZ1jnO7.s:5814   .data.slotTime:00000000 slotTime
C:\Users\luukr\AppData\Local\Temp\ccZ1jnO7.s:6007   .bss.SI_CPUload:00000000 SI_CPUload
C:\Users\luukr\AppData\Local\Temp\ccZ1jnO7.s:6091   .bss.SI_FreeHeap:00000000 SI_FreeHeap
C:\Users\luukr\AppData\Local\Temp\ccZ1jnO7.s:6084   .bss.SI_FreeStack:00000000 SI_FreeStack
C:\Users\luukr\AppData\Local\Temp\ccZ1jnO7.s:5849   .data.TRCK1_ID1:00000000 TRCK1_ID1
C:\Users\luukr\AppData\Local\Temp\ccZ1jnO7.s:3756   .text.HANcoder_E407_TTA_CombineModel_V2_step:00000c38 $t
C:\Users\luukr\AppData\Local\Temp\ccZ1jnO7.s:4674   .text.HANcoder_E407_TTA_CombineModel_V2_step:00000fa8 $d
C:\Users\luukr\AppData\Local\Temp\ccZ1jnO7.s:5989   .bss.amounttrailers:00000000 amounttrailers
C:\Users\luukr\AppData\Local\Temp\ccZ1jnO7.s:5916   .data.ResetPosition:00000000 ResetPosition
C:\Users\luukr\AppData\Local\Temp\ccZ1jnO7.s:5983   .bss.positionID5:00000000 positionID5
C:\Users\luukr\AppData\Local\Temp\ccZ1jnO7.s:5977   .bss.positionID4:00000000 positionID4
C:\Users\luukr\AppData\Local\Temp\ccZ1jnO7.s:5775   .bss.canRxData_0_SYNC1_ID:00000000 canRxData_0_SYNC1_ID
C:\Users\luukr\AppData\Local\Temp\ccZ1jnO7.s:4699   .text.HANcoder_E407_TTA_CombineModel_V2_step:00000ff8 $t
C:\Users\luukr\AppData\Local\Temp\ccZ1jnO7.s:5138   .text.HANcoder_E407_TTA_CombineModel_V2_step:000011b0 $d
C:\Users\luukr\AppData\Local\Temp\ccZ1jnO7.s:5757   .bss.canRxData_0_TRLS1_ID5:00000000 canRxData_0_TRLS1_ID5
C:\Users\luukr\AppData\Local\Temp\ccZ1jnO7.s:6001   .bss.buttonpress2:00000000 buttonpress2
C:\Users\luukr\AppData\Local\Temp\ccZ1jnO7.s:5763   .bss.canRxData_0_TRLS1_ID4:00000000 canRxData_0_TRLS1_ID4
C:\Users\luukr\AppData\Local\Temp\ccZ1jnO7.s:5995   .bss.buttonpress1:00000000 buttonpress1
C:\Users\luukr\AppData\Local\Temp\ccZ1jnO7.s:5769   .bss.canRxData_0_TRCK1_ID3:00000000 canRxData_0_TRCK1_ID3
C:\Users\luukr\AppData\Local\Temp\ccZ1jnO7.s:5154   .rodata.HANcoder_E407_TTA_CombineModel_V2_initialize.str1.4:00000000 $d
C:\Users\luukr\AppData\Local\Temp\ccZ1jnO7.s:5158   .text.HANcoder_E407_TTA_CombineModel_V2_initialize:00000000 $t
C:\Users\luukr\AppData\Local\Temp\ccZ1jnO7.s:5165   .text.HANcoder_E407_TTA_CombineModel_V2_initialize:00000000 HANcoder_E407_TTA_CombineModel_V2_initialize
C:\Users\luukr\AppData\Local\Temp\ccZ1jnO7.s:5733   .text.HANcoder_E407_TTA_CombineModel_V2_initialize:000001f0 $d
C:\Users\luukr\AppData\Local\Temp\ccZ1jnO7.s:5754   .bss.canRxData_0_TRLS1_ID5:00000000 $d
C:\Users\luukr\AppData\Local\Temp\ccZ1jnO7.s:5760   .bss.canRxData_0_TRLS1_ID4:00000000 $d
C:\Users\luukr\AppData\Local\Temp\ccZ1jnO7.s:5766   .bss.canRxData_0_TRCK1_ID3:00000000 $d
C:\Users\luukr\AppData\Local\Temp\ccZ1jnO7.s:5772   .bss.canRxData_0_SYNC1_ID:00000000 $d
C:\Users\luukr\AppData\Local\Temp\ccZ1jnO7.s:5778   .bss.canTxData:00000000 $d
C:\Users\luukr\AppData\Local\Temp\ccZ1jnO7.s:5784   .bss.canRxData_0_rtu_In1:00000000 $d
C:\Users\luukr\AppData\Local\Temp\ccZ1jnO7.s:5791   .bss.rtPrevZCSigState:00000000 $d
C:\Users\luukr\AppData\Local\Temp\ccZ1jnO7.s:5798   .bss.rtDWork:00000000 $d
C:\Users\luukr\AppData\Local\Temp\ccZ1jnO7.s:5805   .bss.rtB:00000000 $d
C:\Users\luukr\AppData\Local\Temp\ccZ1jnO7.s:5818   .data.TRLS1_ID5:00000000 $d
C:\Users\luukr\AppData\Local\Temp\ccZ1jnO7.s:5825   .data.TRLS1_ID4:00000000 $d
C:\Users\luukr\AppData\Local\Temp\ccZ1jnO7.s:5832   .data.TRCK1_ID3:00000000 $d
C:\Users\luukr\AppData\Local\Temp\ccZ1jnO7.s:5839   .data.TRCK1_ID2:00000000 $d
C:\Users\luukr\AppData\Local\Temp\ccZ1jnO7.s:5846   .data.TRCK1_ID1:00000000 $d
C:\Users\luukr\AppData\Local\Temp\ccZ1jnO7.s:5853   .data.SYNC1_ID:00000000 $d
C:\Users\luukr\AppData\Local\Temp\ccZ1jnO7.s:5860   .data.SSTM1_ID:00000000 $d
C:\Users\luukr\AppData\Local\Temp\ccZ1jnO7.s:5867   .data.MMBS1_ID:00000000 $d
C:\Users\luukr\AppData\Local\Temp\ccZ1jnO7.s:5874   .data.propVal:00000000 $d
C:\Users\luukr\AppData\Local\Temp\ccZ1jnO7.s:5882   .data.matrixRows:00000000 $d
C:\Users\luukr\AppData\Local\Temp\ccZ1jnO7.s:5890   .data.intVal:00000000 $d
C:\Users\luukr\AppData\Local\Temp\ccZ1jnO7.s:5898   .data.desiredAngle:00000000 $d
C:\Users\luukr\AppData\Local\Temp\ccZ1jnO7.s:5905   .data.controlWidth:00000000 $d
C:\Users\luukr\AppData\Local\Temp\ccZ1jnO7.s:5913   .data.ResetPosition:00000000 $d
C:\Users\luukr\AppData\Local\Temp\ccZ1jnO7.s:5920   .data.ClockOn:00000000 $d
C:\Users\luukr\AppData\Local\Temp\ccZ1jnO7.s:5930   .bss.canActive:00000000 $d
C:\Users\luukr\AppData\Local\Temp\ccZ1jnO7.s:5936   .bss.ccw:00000000 $d
C:\Users\luukr\AppData\Local\Temp\ccZ1jnO7.s:5942   .bss.cw:00000000 $d
C:\Users\luukr\AppData\Local\Temp\ccZ1jnO7.s:5948   .bss.boolCan:00000000 $d
C:\Users\luukr\AppData\Local\Temp\ccZ1jnO7.s:5954   .bss.masterID:00000000 $d
C:\Users\luukr\AppData\Local\Temp\ccZ1jnO7.s:5960   .bss.slotSelected:00000000 $d
C:\Users\luukr\AppData\Local\Temp\ccZ1jnO7.s:5966   .bss.setSlotTime:00000000 $d
C:\Users\luukr\AppData\Local\Temp\ccZ1jnO7.s:5972   .bss.local_ticks_interrupt:00000000 $d
C:\Users\luukr\AppData\Local\Temp\ccZ1jnO7.s:5978   .bss.positionID4:00000000 $d
C:\Users\luukr\AppData\Local\Temp\ccZ1jnO7.s:5984   .bss.positionID5:00000000 $d
C:\Users\luukr\AppData\Local\Temp\ccZ1jnO7.s:5990   .bss.amounttrailers:00000000 $d
C:\Users\luukr\AppData\Local\Temp\ccZ1jnO7.s:5996   .bss.buttonpress1:00000000 $d
C:\Users\luukr\AppData\Local\Temp\ccZ1jnO7.s:6002   .bss.buttonpress2:00000000 $d
C:\Users\luukr\AppData\Local\Temp\ccZ1jnO7.s:6008   .bss.SI_CPUload:00000000 $d
C:\Users\luukr\AppData\Local\Temp\ccZ1jnO7.s:6011   .bss.testCounter:00000000 $d
C:\Users\luukr\AppData\Local\Temp\ccZ1jnO7.s:6018   .bss.pot2:00000000 $d
C:\Users\luukr\AppData\Local\Temp\ccZ1jnO7.s:6025   .bss.analogPot2:00000000 $d
C:\Users\luukr\AppData\Local\Temp\ccZ1jnO7.s:6032   .bss.pot1:00000000 $d
C:\Users\luukr\AppData\Local\Temp\ccZ1jnO7.s:6039   .bss.analogPot1:00000000 $d
C:\Users\luukr\AppData\Local\Temp\ccZ1jnO7.s:6046   .bss.mospeed:00000000 $d
C:\Users\luukr\AppData\Local\Temp\ccZ1jnO7.s:6053   .bss.Gamma2:00000000 $d
C:\Users\luukr\AppData\Local\Temp\ccZ1jnO7.s:6060   .bss.t1Angle:00000000 $d
C:\Users\luukr\AppData\Local\Temp\ccZ1jnO7.s:6067   .bss.t2Angle:00000000 $d
C:\Users\luukr\AppData\Local\Temp\ccZ1jnO7.s:6074   .bss.delta12K:00000000 $d
C:\Users\luukr\AppData\Local\Temp\ccZ1jnO7.s:6081   .bss.SI_FreeStack:00000000 $d
C:\Users\luukr\AppData\Local\Temp\ccZ1jnO7.s:6088   .bss.SI_FreeHeap:00000000 $d
C:\Users\luukr\AppData\Local\Temp\ccZ1jnO7.s:6095   .bss.control:00000000 $d
C:\Users\luukr\AppData\Local\Temp\ccZ1jnO7.s:6102   .bss.position:00000000 $d
C:\Users\luukr\AppData\Local\Temp\ccZ1jnO7.s:6109   .bss.steering:00000000 $d
C:\Users\luukr\AppData\Local\Temp\ccZ1jnO7.s:6116   .bss.Gamma1:00000000 $d
C:\Users\luukr\AppData\Local\Temp\ccZ1jnO7.s:6123   .bss.reqAngle:00000000 $d

UNDEFINED SYMBOLS
__aeabi_d2uiz
TimeoutGetLastEventCounter
TimeoutScheduleCompareEvent
CanIoCreateMessageReceivedStorage
CanIoGetMessage
CanTransmit
memset
memcpy
__aeabi_dcmpeq
__aeabi_dadd
__aeabi_i2d
__aeabi_dmul
__aeabi_dcmplt
__aeabi_ui2d
__aeabi_dsub
__aeabi_dcmpgt
__aeabi_ddiv
__aeabi_d2f
__aeabi_f2d
__aeabi_dcmpge
__aeabi_dcmple
AninGet
DiginGet
QuadEncGetCounter
PwmoutSet
DigoutSet
tan
sin
cos
rtConstB
atan
floor
OsGetCpuLoad
OsGetFreeHeapSize
OsGetTaskFreeStackSize
rt_I32ZCFcn
rtConstP
QuadEncResetCounter
CanInit
CanIoInit
TimeoutInitModule
DiginConfigure
TimeoutRegisterCompareEventCallback
AninConfigure
QuadEncConfigure
DigoutConfigure
PwmoutInit
PwmoutRegisterPeriodCompleteCallback
PwmoutConfigure
AppCtrlTaskSetStackSize
AppCtrlTaskSetPeriod
ADCconversionTaskSetPeriod
CanConnect
AssertFailure
TimeoutRegisterOverflowCallback
MacUsbComInit
MacInit
