   1              		.cpu cortex-m4
   2              		.arch armv7e-m
   3              		.fpu fpv4-sp-d16
   4              		.eabi_attribute 27, 1
   5              		.eabi_attribute 20, 1
   6              		.eabi_attribute 21, 1
   7              		.eabi_attribute 23, 3
   8              		.eabi_attribute 24, 1
   9              		.eabi_attribute 25, 1
  10              		.eabi_attribute 26, 1
  11              		.eabi_attribute 30, 2
  12              		.eabi_attribute 34, 1
  13              		.eabi_attribute 18, 4
  14              		.file	"HANcoder_E407_TTA_CombineModel.c"
  15              		.text
  16              	.Ltext0:
  17              		.cfi_sections	.debug_frame
  18              		.section	.text.PwmoutIRQ_PWMOUT_MODULE_TIM14,"ax",%progbits
  19              		.align	1
  20              		.p2align 2,,3
  21              		.global	PwmoutIRQ_PWMOUT_MODULE_TIM14
  22              		.syntax unified
  23              		.thumb
  24              		.thumb_func
  26              	PwmoutIRQ_PWMOUT_MODULE_TIM14:
  27              	.LFB114:
  28              		.file 1 "HANcoder_E407_TTA_CombineModel.c"
   1:HANcoder_E407_TTA_CombineModel.c **** /*
   2:HANcoder_E407_TTA_CombineModel.c ****  * Academic License - for use in teaching, academic research, and meeting
   3:HANcoder_E407_TTA_CombineModel.c ****  * course requirements at degree granting institutions only.  Not for
   4:HANcoder_E407_TTA_CombineModel.c ****  * government, commercial, or other organizational use.
   5:HANcoder_E407_TTA_CombineModel.c ****  *
   6:HANcoder_E407_TTA_CombineModel.c ****  * File: HANcoder_E407_TTA_CombineModel.c
   7:HANcoder_E407_TTA_CombineModel.c ****  *
   8:HANcoder_E407_TTA_CombineModel.c ****  * Code generated for Simulink model 'HANcoder_E407_TTA_CombineModel'.
   9:HANcoder_E407_TTA_CombineModel.c ****  *
  10:HANcoder_E407_TTA_CombineModel.c ****  * Model version                  : 17.33
  11:HANcoder_E407_TTA_CombineModel.c ****  * Simulink Coder version         : 9.8 (R2022b) 13-May-2022
  12:HANcoder_E407_TTA_CombineModel.c ****  * C/C++ source code generated on : Mon Jun 19 10:01:47 2023
  13:HANcoder_E407_TTA_CombineModel.c ****  *
  14:HANcoder_E407_TTA_CombineModel.c ****  * Target selection: ert.tlc
  15:HANcoder_E407_TTA_CombineModel.c ****  * Embedded hardware selection: ARM Compatible->ARM Cortex
  16:HANcoder_E407_TTA_CombineModel.c ****  * Code generation objectives: Unspecified
  17:HANcoder_E407_TTA_CombineModel.c ****  * Validation result: Not run
  18:HANcoder_E407_TTA_CombineModel.c ****  */
  19:HANcoder_E407_TTA_CombineModel.c **** 
  20:HANcoder_E407_TTA_CombineModel.c **** #include "HANcoder_E407_TTA_CombineModel.h"
  21:HANcoder_E407_TTA_CombineModel.c **** #include "rtwtypes.h"
  22:HANcoder_E407_TTA_CombineModel.c **** #include "HANcoder_E407_TTA_CombineModel_types.h"
  23:HANcoder_E407_TTA_CombineModel.c **** #include "HANcoder_E407_TTA_CombineModel_private.h"
  24:HANcoder_E407_TTA_CombineModel.c **** #include <math.h>
  25:HANcoder_E407_TTA_CombineModel.c **** #include "zero_crossing_types.h"
  26:HANcoder_E407_TTA_CombineModel.c **** 
  27:HANcoder_E407_TTA_CombineModel.c **** /* map ByteSwap function */
  28:HANcoder_E407_TTA_CombineModel.c **** #define ByteSwap(x)                    (ByteSwap_x((uint8_t *) &x, sizeof(x)))
  29:HANcoder_E407_TTA_CombineModel.c **** 
  30:HANcoder_E407_TTA_CombineModel.c **** void PwmoutIRQ_PWMOUT_MODULE_TIM14(void);
  31:HANcoder_E407_TTA_CombineModel.c **** void TimeoutEventIRQ_TIMEOUT_TIM4_PIN_PD12(void);
  32:HANcoder_E407_TTA_CombineModel.c **** void TimeoutOverflowIRQ_TIMEOUT_MODULE_TIM4(void);
  33:HANcoder_E407_TTA_CombineModel.c **** 
  34:HANcoder_E407_TTA_CombineModel.c **** /* Exported block signals */
  35:HANcoder_E407_TTA_CombineModel.c **** real_T reqAngle;                       /* '<S5>/Data Store Read' */
  36:HANcoder_E407_TTA_CombineModel.c **** real_T Gamma1;                         /* '<S19>/Sum1' */
  37:HANcoder_E407_TTA_CombineModel.c **** real_T steering;                       /* '<S18>/Gain2' */
  38:HANcoder_E407_TTA_CombineModel.c **** real_T position;                       /* '<S18>/Gain1' */
  39:HANcoder_E407_TTA_CombineModel.c **** real_T control;                        /* '<S18>/Sum' */
  40:HANcoder_E407_TTA_CombineModel.c **** uint32_T SI_FreeHeap;                  /* '<S372>/Level-2 M-file S-Function' */
  41:HANcoder_E407_TTA_CombineModel.c **** uint32_T SI_FreeStack;                 /* '<S373>/Level-2 M-file S-Function' */
  42:HANcoder_E407_TTA_CombineModel.c **** real32_T derivativeMean;               /* '<S79>/Moving Average' */
  43:HANcoder_E407_TTA_CombineModel.c **** real32_T delta12K;                     /* '<S74>/tan 1' */
  44:HANcoder_E407_TTA_CombineModel.c **** int32_T motorPos;                      /* '<S81>/Level-2 M-file S-Function' */
  45:HANcoder_E407_TTA_CombineModel.c **** uint16_T pot31;                        /* '<S245>/Add' */
  46:HANcoder_E407_TTA_CombineModel.c **** uint16_T pot32;                        /* '<S244>/Add' */
  47:HANcoder_E407_TTA_CombineModel.c **** uint16_T pot11;                        /* '<S198>/Add' */
  48:HANcoder_E407_TTA_CombineModel.c **** uint16_T pot12;                        /* '<S197>/Add' */
  49:HANcoder_E407_TTA_CombineModel.c **** uint16_T pot21;                        /* '<S129>/Add' */
  50:HANcoder_E407_TTA_CombineModel.c **** uint16_T pot22;                        /* '<S128>/Add' */
  51:HANcoder_E407_TTA_CombineModel.c **** uint16_T testCounter;                  /* '<S107>/Data Store Read1' */
  52:HANcoder_E407_TTA_CombineModel.c **** uint16_T potRaw;                       /* '<S79>/Data Store Read5' */
  53:HANcoder_E407_TTA_CombineModel.c **** uint16_T lastPot;                      /* '<S79>/Data Store Read6' */
  54:HANcoder_E407_TTA_CombineModel.c **** uint16_T derivative;                   /* '<S90>/Diff' */
  55:HANcoder_E407_TTA_CombineModel.c **** uint16_T analogPot1;                   /* '<S82>/Level-2 M-file S-Function' */
  56:HANcoder_E407_TTA_CombineModel.c **** uint16_T pot1;                         /* '<S77>/Cast1' */
  57:HANcoder_E407_TTA_CombineModel.c **** uint16_T analogPot2;                   /* '<S83>/Level-2 M-file S-Function' */
  58:HANcoder_E407_TTA_CombineModel.c **** uint16_T pot2;                         /* '<S77>/Cast2' */
  59:HANcoder_E407_TTA_CombineModel.c **** uint16_T t2Angle;                      /* '<S5>/Data Store Read2' */
  60:HANcoder_E407_TTA_CombineModel.c **** uint16_T t1Angle;                      /* '<S5>/Data Store Read1' */
  61:HANcoder_E407_TTA_CombineModel.c **** uint16_T Gamma2;                       /* '<S19>/Sum2' */
  62:HANcoder_E407_TTA_CombineModel.c **** uint16_T mospeed;                      /* '<S18>/Add' */
  63:HANcoder_E407_TTA_CombineModel.c **** uint8_T SI_CPUload;                    /* '<S371>/Level-2 M-file S-Function' */
  64:HANcoder_E407_TTA_CombineModel.c **** uint8_T buttonpress2;                  /* '<S324>/In6' */
  65:HANcoder_E407_TTA_CombineModel.c **** uint8_T buttonpress1;                  /* '<S277>/In6' */
  66:HANcoder_E407_TTA_CombineModel.c **** uint8_T amounttrailers;                /* '<S16>/Add' */
  67:HANcoder_E407_TTA_CombineModel.c **** uint8_T positionID5;                   /* '<S16>/Cast3' */
  68:HANcoder_E407_TTA_CombineModel.c **** uint8_T positionID4;                   /* '<S16>/Cast2' */
  69:HANcoder_E407_TTA_CombineModel.c **** uint8_T local_ticks_interrupt;         /* '<S9>/Switch' */
  70:HANcoder_E407_TTA_CombineModel.c **** uint8_T setSlotTime;                   /* '<S9>/Data Store Read3' */
  71:HANcoder_E407_TTA_CombineModel.c **** uint8_T slotSelected;                  /* '<S98>/Switch' */
  72:HANcoder_E407_TTA_CombineModel.c **** boolean_T boolCan;                     /* '<S10>/AND' */
  73:HANcoder_E407_TTA_CombineModel.c **** boolean_T potFaultDetected;            /* '<S112>/Data Store Read4' */
  74:HANcoder_E407_TTA_CombineModel.c **** boolean_T masterCanFail;               /* '<S102>/NOT' */
  75:HANcoder_E407_TTA_CombineModel.c **** boolean_T mf1;                         /* '<S79>/Delay' */
  76:HANcoder_E407_TTA_CombineModel.c **** boolean_T mf2;                         /* '<S79>/Delay1' */
  77:HANcoder_E407_TTA_CombineModel.c **** boolean_T mf3;                         /* '<S79>/Delay2' */
  78:HANcoder_E407_TTA_CombineModel.c **** boolean_T mf4;                         /* '<S79>/Delay4' */
  79:HANcoder_E407_TTA_CombineModel.c **** boolean_T mf5;                         /* '<S79>/Delay3' */
  80:HANcoder_E407_TTA_CombineModel.c **** boolean_T motorFaultDetected;          /* '<S79>/AND2' */
  81:HANcoder_E407_TTA_CombineModel.c **** boolean_T ioInit;                      /* '<S77>/Constant' */
  82:HANcoder_E407_TTA_CombineModel.c **** boolean_T cw;                          /* '<S18>/Cast1' */
  83:HANcoder_E407_TTA_CombineModel.c **** boolean_T ccw;                         /* '<S18>/NOT' */
  84:HANcoder_E407_TTA_CombineModel.c **** boolean_T canActive;                   /* '<S9>/Clock_State' */
  85:HANcoder_E407_TTA_CombineModel.c **** 
  86:HANcoder_E407_TTA_CombineModel.c **** /* Exported block parameters */
  87:HANcoder_E407_TTA_CombineModel.c **** real_T ClockOn = 0.0;                  /* Variable: ClockOn
  88:HANcoder_E407_TTA_CombineModel.c ****                                         * Referenced by: '<S12>/Constant'
  89:HANcoder_E407_TTA_CombineModel.c ****                                         */
  90:HANcoder_E407_TTA_CombineModel.c **** real_T ResetPosition = 0.0;            /* Variable: ResetPosition
  91:HANcoder_E407_TTA_CombineModel.c ****                                         * Referenced by: '<S375>/Constant'
  92:HANcoder_E407_TTA_CombineModel.c ****                                         */
  93:HANcoder_E407_TTA_CombineModel.c **** real_T controlWidth = 3.0;             /* Variable: controlWidth
  94:HANcoder_E407_TTA_CombineModel.c ****                                         * Referenced by: '<S18>/Constant'
  95:HANcoder_E407_TTA_CombineModel.c ****                                         */
  96:HANcoder_E407_TTA_CombineModel.c **** real_T desiredAngle = 0.0;             /* Variable: desiredAngle
  97:HANcoder_E407_TTA_CombineModel.c ****                                         * Referenced by: '<S77>/Constant2'
  98:HANcoder_E407_TTA_CombineModel.c ****                                         */
  99:HANcoder_E407_TTA_CombineModel.c **** real_T intVal = 0.15;                  /* Variable: intVal
 100:HANcoder_E407_TTA_CombineModel.c ****                                         * Referenced by: '<S51>/Integral Gain'
 101:HANcoder_E407_TTA_CombineModel.c ****                                         */
 102:HANcoder_E407_TTA_CombineModel.c **** real_T matrixRows = 10.0;              /* Variable: matrixRows
 103:HANcoder_E407_TTA_CombineModel.c ****                                         * Referenced by: '<S98>/Constant1'
 104:HANcoder_E407_TTA_CombineModel.c ****                                         */
 105:HANcoder_E407_TTA_CombineModel.c **** real_T propVal = 1.0;                  /* Variable: propVal
 106:HANcoder_E407_TTA_CombineModel.c ****                                         * Referenced by: '<S59>/Proportional Gain'
 107:HANcoder_E407_TTA_CombineModel.c ****                                         */
 108:HANcoder_E407_TTA_CombineModel.c **** uint32_T MMBS1_ID = 12U;               /* Variable: MMBS1_ID
 109:HANcoder_E407_TTA_CombineModel.c ****                                         * Referenced by: '<S10>/Constant12'
 110:HANcoder_E407_TTA_CombineModel.c ****                                         */
 111:HANcoder_E407_TTA_CombineModel.c **** uint32_T SSTM1_ID = 13U;               /* Variable: SSTM1_ID
 112:HANcoder_E407_TTA_CombineModel.c ****                                         * Referenced by: '<S10>/Constant14'
 113:HANcoder_E407_TTA_CombineModel.c ****                                         */
 114:HANcoder_E407_TTA_CombineModel.c **** uint32_T SYNC1_ID = 11U;               /* Variable: SYNC1_ID
 115:HANcoder_E407_TTA_CombineModel.c ****                                         * Referenced by:
 116:HANcoder_E407_TTA_CombineModel.c ****                                         *   '<S10>/Constant10'
 117:HANcoder_E407_TTA_CombineModel.c ****                                         *   '<S364>/Constant10'
 118:HANcoder_E407_TTA_CombineModel.c ****                                         */
 119:HANcoder_E407_TTA_CombineModel.c **** uint32_T TRCK1_ID1 = 14U;              /* Variable: TRCK1_ID1
 120:HANcoder_E407_TTA_CombineModel.c ****                                         * Referenced by: '<S10>/Constant3'
 121:HANcoder_E407_TTA_CombineModel.c ****                                         */
 122:HANcoder_E407_TTA_CombineModel.c **** uint32_T TRCK1_ID2 = 26U;              /* Variable: TRCK1_ID2
 123:HANcoder_E407_TTA_CombineModel.c ****                                         * Referenced by: '<S10>/Constant5'
 124:HANcoder_E407_TTA_CombineModel.c ****                                         */
 125:HANcoder_E407_TTA_CombineModel.c **** uint32_T TRCK1_ID3 = 37U;              /* Variable: TRCK1_ID3
 126:HANcoder_E407_TTA_CombineModel.c ****                                         * Referenced by: '<S10>/Constant26'
 127:HANcoder_E407_TTA_CombineModel.c ****                                         */
 128:HANcoder_E407_TTA_CombineModel.c **** uint32_T TRLS1_ID4 = 48U;              /* Variable: TRLS1_ID4
 129:HANcoder_E407_TTA_CombineModel.c ****                                         * Referenced by: '<S10>/Constant8'
 130:HANcoder_E407_TTA_CombineModel.c ****                                         */
 131:HANcoder_E407_TTA_CombineModel.c **** uint32_T TRLS1_ID5 = 59U;              /* Variable: TRLS1_ID5
 132:HANcoder_E407_TTA_CombineModel.c ****                                         * Referenced by: '<S10>/Constant18'
 133:HANcoder_E407_TTA_CombineModel.c ****                                         */
 134:HANcoder_E407_TTA_CombineModel.c **** uint8_T slotTime = 50U;                /* Variable: slotTime
 135:HANcoder_E407_TTA_CombineModel.c ****                                         * Referenced by: '<S363>/Constant3'
 136:HANcoder_E407_TTA_CombineModel.c ****                                         */
 137:HANcoder_E407_TTA_CombineModel.c **** 
 138:HANcoder_E407_TTA_CombineModel.c **** /* Block signals (default storage) */
 139:HANcoder_E407_TTA_CombineModel.c **** BlockIO rtB;
 140:HANcoder_E407_TTA_CombineModel.c **** 
 141:HANcoder_E407_TTA_CombineModel.c **** /* Block states (default storage) */
 142:HANcoder_E407_TTA_CombineModel.c **** D_Work rtDWork;
 143:HANcoder_E407_TTA_CombineModel.c **** 
 144:HANcoder_E407_TTA_CombineModel.c **** /* Previous zero-crossings (trigger) states */
 145:HANcoder_E407_TTA_CombineModel.c **** PrevZCSigStates rtPrevZCSigState;
 146:HANcoder_E407_TTA_CombineModel.c **** 
 147:HANcoder_E407_TTA_CombineModel.c **** /* Real-time model */
 148:HANcoder_E407_TTA_CombineModel.c **** static RT_MODEL rtM_;
 149:HANcoder_E407_TTA_CombineModel.c **** RT_MODEL *const rtM = &rtM_;
 150:HANcoder_E407_TTA_CombineModel.c **** 
 151:HANcoder_E407_TTA_CombineModel.c **** /* Forward declaration for local functions */
 152:HANcoder_E407_TTA_CombineModel.c **** static void SystemCore_setup(dsp_simulink_MovingAverage *obj);
 153:HANcoder_E407_TTA_CombineModel.c **** 
 154:HANcoder_E407_TTA_CombineModel.c **** /* Forward declaration for local functions */
 155:HANcoder_E407_TTA_CombineModel.c **** static void SystemCore_setup_l(dsp_simulink_MovingAverage *obj);
 156:HANcoder_E407_TTA_CombineModel.c **** static tCanDataTypes canRxData_0_MMBS1_ID;
 157:HANcoder_E407_TTA_CombineModel.c **** static tCanDataTypes canTxData;
 158:HANcoder_E407_TTA_CombineModel.c **** static tCanDataTypes canRxData_0_SSTM1_ID;
 159:HANcoder_E407_TTA_CombineModel.c **** static tCanDataTypes canRxData_0_SYNC1_ID;
 160:HANcoder_E407_TTA_CombineModel.c **** static tCanDataTypes canRxData_0_TRCK1_ID2;
 161:HANcoder_E407_TTA_CombineModel.c **** static tCanDataTypes canRxData_0_TRCK1_ID1;
 162:HANcoder_E407_TTA_CombineModel.c **** static tCanDataTypes canRxData_0_TRCK1_ID3;
 163:HANcoder_E407_TTA_CombineModel.c **** static tCanDataTypes canRxData_0_TRLS1_ID4;
 164:HANcoder_E407_TTA_CombineModel.c **** static tCanDataTypes canRxData_0_TRLS1_ID5;
 165:HANcoder_E407_TTA_CombineModel.c **** static tCanDataTypes canRxData_0_SYNC1_ID;
 166:HANcoder_E407_TTA_CombineModel.c **** 
 167:HANcoder_E407_TTA_CombineModel.c **** /*
 168:HANcoder_E407_TTA_CombineModel.c ****  * Swaps the values of two bytes.
 169:HANcoder_E407_TTA_CombineModel.c ****  * a, b pointers to data values that need swapping
 170:HANcoder_E407_TTA_CombineModel.c ****  */
 171:HANcoder_E407_TTA_CombineModel.c **** static void swap(unsigned char *a, unsigned char *b)
 172:HANcoder_E407_TTA_CombineModel.c **** {
 173:HANcoder_E407_TTA_CombineModel.c ****   register char i = *a;
 174:HANcoder_E407_TTA_CombineModel.c ****   *a = *b;
 175:HANcoder_E407_TTA_CombineModel.c ****   *b = i;
 176:HANcoder_E407_TTA_CombineModel.c **** }                                      /*** end of swap ***/
 177:HANcoder_E407_TTA_CombineModel.c **** 
 178:HANcoder_E407_TTA_CombineModel.c **** /*
 179:HANcoder_E407_TTA_CombineModel.c ****  * Swaps all bytes in b. Typically used to fix endianes.
 180:HANcoder_E407_TTA_CombineModel.c ****  * b pointer to data with bytes to swap
 181:HANcoder_E407_TTA_CombineModel.c ****  * n number of bytes to swap
 182:HANcoder_E407_TTA_CombineModel.c ****  */
 183:HANcoder_E407_TTA_CombineModel.c **** void ByteSwap_x(uint8_t *b, size_t n)
 184:HANcoder_E407_TTA_CombineModel.c **** {
 185:HANcoder_E407_TTA_CombineModel.c ****   int i = 0;
 186:HANcoder_E407_TTA_CombineModel.c ****   int j = n-1;
 187:HANcoder_E407_TTA_CombineModel.c ****   while (i<j) {
 188:HANcoder_E407_TTA_CombineModel.c ****     swap(&b[i], &b[j]);
 189:HANcoder_E407_TTA_CombineModel.c ****     i++, j--;
 190:HANcoder_E407_TTA_CombineModel.c ****   }
 191:HANcoder_E407_TTA_CombineModel.c **** }
 192:HANcoder_E407_TTA_CombineModel.c **** 
 193:HANcoder_E407_TTA_CombineModel.c **** void TimeoutEventIRQ_TIMEOUT_TIM4_PIN_PD12(void)
 194:HANcoder_E407_TTA_CombineModel.c **** {
 195:HANcoder_E407_TTA_CombineModel.c ****   /* Output and update for function-call system: '<S1>/Local Time generation' */
 196:HANcoder_E407_TTA_CombineModel.c ****   {
 197:HANcoder_E407_TTA_CombineModel.c ****     /* local block i/o variables */
 198:HANcoder_E407_TTA_CombineModel.c ****     uint16_T rtb_Level2MfileSFunction;
 199:HANcoder_E407_TTA_CombineModel.c ****     boolean_T rtb_Equal;
 200:HANcoder_E407_TTA_CombineModel.c **** 
 201:HANcoder_E407_TTA_CombineModel.c ****     /* SignalConversion generated from: '<S9>/Clock_State' */
 202:HANcoder_E407_TTA_CombineModel.c ****     canActive = rtB.OR;
 203:HANcoder_E407_TTA_CombineModel.c **** 
 204:HANcoder_E407_TTA_CombineModel.c ****     /* Switch: '<S9>/Switch' */
 205:HANcoder_E407_TTA_CombineModel.c ****     if (canActive) {
 206:HANcoder_E407_TTA_CombineModel.c ****       /* Switch: '<S9>/Switch' incorporates:
 207:HANcoder_E407_TTA_CombineModel.c ****        *  Constant: '<S9>/Constant2'
 208:HANcoder_E407_TTA_CombineModel.c ****        *  DataStoreRead: '<S9>/Data Store Read'
 209:HANcoder_E407_TTA_CombineModel.c ****        *  Sum: '<S9>/Sum1'
 210:HANcoder_E407_TTA_CombineModel.c ****        */
 211:HANcoder_E407_TTA_CombineModel.c ****       local_ticks_interrupt = (uint8_T)((uint32_T)rtDWork.Local_Ticks +
 212:HANcoder_E407_TTA_CombineModel.c ****         ((uint8_T)1U));
 213:HANcoder_E407_TTA_CombineModel.c ****     } else {
 214:HANcoder_E407_TTA_CombineModel.c ****       /* Switch: '<S9>/Switch' incorporates:
 215:HANcoder_E407_TTA_CombineModel.c ****        *  DataStoreRead: '<S9>/Data Store Read1'
 216:HANcoder_E407_TTA_CombineModel.c ****        */
 217:HANcoder_E407_TTA_CombineModel.c ****       local_ticks_interrupt = rtDWork.Local_Ticks;
 218:HANcoder_E407_TTA_CombineModel.c ****     }
 219:HANcoder_E407_TTA_CombineModel.c **** 
 220:HANcoder_E407_TTA_CombineModel.c ****     /* End of Switch: '<S9>/Switch' */
 221:HANcoder_E407_TTA_CombineModel.c **** 
 222:HANcoder_E407_TTA_CombineModel.c ****     /* DataStoreWrite: '<S9>/Data Store Write' */
 223:HANcoder_E407_TTA_CombineModel.c ****     rtDWork.Local_Ticks = local_ticks_interrupt;
 224:HANcoder_E407_TTA_CombineModel.c **** 
 225:HANcoder_E407_TTA_CombineModel.c ****     /* DataStoreRead: '<S9>/Data Store Read3' */
 226:HANcoder_E407_TTA_CombineModel.c ****     setSlotTime = rtDWork.SlotTime;
 227:HANcoder_E407_TTA_CombineModel.c **** 
 228:HANcoder_E407_TTA_CombineModel.c ****     /* M-S-Function: '<S99>/Level-2 M-file S-Function' incorporates:
 229:HANcoder_E407_TTA_CombineModel.c ****      *  DataTypeConversion: '<S9>/Cast'
 230:HANcoder_E407_TTA_CombineModel.c ****      */
 231:HANcoder_E407_TTA_CombineModel.c ****     rtb_Level2MfileSFunction = setSlotTime;
 232:HANcoder_E407_TTA_CombineModel.c **** 
 233:HANcoder_E407_TTA_CombineModel.c ****     /* RelationalOperator: '<S9>/Equal' incorporates:
 234:HANcoder_E407_TTA_CombineModel.c ****      *  DataStoreRead: '<S9>/Data Store Read2'
 235:HANcoder_E407_TTA_CombineModel.c ****      */
 236:HANcoder_E407_TTA_CombineModel.c ****     rtb_Equal = (rtDWork.Local_Ticks >= rtb_Level2MfileSFunction);
 237:HANcoder_E407_TTA_CombineModel.c **** 
 238:HANcoder_E407_TTA_CombineModel.c ****     /* Outputs for Triggered SubSystem: '<S9>/Enabled Subsystem' incorporates:
 239:HANcoder_E407_TTA_CombineModel.c ****      *  TriggerPort: '<S98>/Trigger'
 240:HANcoder_E407_TTA_CombineModel.c ****      */
 241:HANcoder_E407_TTA_CombineModel.c ****     if (rtb_Equal && (rtPrevZCSigState.EnabledSubsystem_Trig_ZCE != POS_ZCSIG))
 242:HANcoder_E407_TTA_CombineModel.c ****     {
 243:HANcoder_E407_TTA_CombineModel.c ****       /* Switch: '<S98>/Switch' incorporates:
 244:HANcoder_E407_TTA_CombineModel.c ****        *  Constant: '<S98>/Constant1'
 245:HANcoder_E407_TTA_CombineModel.c ****        *  DataStoreRead: '<S98>/Data Store Read1'
 246:HANcoder_E407_TTA_CombineModel.c ****        *  DataTypeConversion: '<S98>/Cast'
 247:HANcoder_E407_TTA_CombineModel.c ****        *  RelationalOperator: '<S98>/Equal'
 248:HANcoder_E407_TTA_CombineModel.c ****        */
 249:HANcoder_E407_TTA_CombineModel.c ****       if (rtDWork.slot < (uint8_T)matrixRows) {
 250:HANcoder_E407_TTA_CombineModel.c ****         /* Switch: '<S98>/Switch' incorporates:
 251:HANcoder_E407_TTA_CombineModel.c ****          *  Constant: '<S98>/Constant'
 252:HANcoder_E407_TTA_CombineModel.c ****          *  DataStoreRead: '<S98>/Data Store Read'
 253:HANcoder_E407_TTA_CombineModel.c ****          *  Sum: '<S98>/Plus'
 254:HANcoder_E407_TTA_CombineModel.c ****          */
 255:HANcoder_E407_TTA_CombineModel.c ****         slotSelected = (uint8_T)((uint32_T)rtDWork.slot + ((uint8_T)1U));
 256:HANcoder_E407_TTA_CombineModel.c ****       } else {
 257:HANcoder_E407_TTA_CombineModel.c ****         /* Switch: '<S98>/Switch' incorporates:
 258:HANcoder_E407_TTA_CombineModel.c ****          *  Constant: '<S98>/Constant2'
 259:HANcoder_E407_TTA_CombineModel.c ****          */
 260:HANcoder_E407_TTA_CombineModel.c ****         slotSelected = (uint8_T)1.0;
 261:HANcoder_E407_TTA_CombineModel.c ****       }
 262:HANcoder_E407_TTA_CombineModel.c **** 
 263:HANcoder_E407_TTA_CombineModel.c ****       /* End of Switch: '<S98>/Switch' */
 264:HANcoder_E407_TTA_CombineModel.c **** 
 265:HANcoder_E407_TTA_CombineModel.c ****       /* DataStoreWrite: '<S98>/Data Store Write' */
 266:HANcoder_E407_TTA_CombineModel.c ****       rtDWork.slot = slotSelected;
 267:HANcoder_E407_TTA_CombineModel.c **** 
 268:HANcoder_E407_TTA_CombineModel.c ****       /* DataStoreWrite: '<S98>/Data Store Write1' incorporates:
 269:HANcoder_E407_TTA_CombineModel.c ****        *  Constant: '<S98>/Constant3'
 270:HANcoder_E407_TTA_CombineModel.c ****        */
 271:HANcoder_E407_TTA_CombineModel.c ****       rtDWork.Local_Ticks = ((uint8_T)0U);
 272:HANcoder_E407_TTA_CombineModel.c ****     }
 273:HANcoder_E407_TTA_CombineModel.c **** 
 274:HANcoder_E407_TTA_CombineModel.c ****     rtPrevZCSigState.EnabledSubsystem_Trig_ZCE = rtb_Equal;
 275:HANcoder_E407_TTA_CombineModel.c **** 
 276:HANcoder_E407_TTA_CombineModel.c ****     /* End of Outputs for SubSystem: '<S9>/Enabled Subsystem' */
 277:HANcoder_E407_TTA_CombineModel.c ****     /* M-S-Function: '<S99>/Level-2 M-file S-Function' */
 278:HANcoder_E407_TTA_CombineModel.c ****     /* read 16-bit free running counter timestamp of the last output compare event */
 279:HANcoder_E407_TTA_CombineModel.c ****     rtb_Level2MfileSFunction = TimeoutGetLastEventCounter(TIMEOUT_TIM4_PIN_PD12);
 280:HANcoder_E407_TTA_CombineModel.c **** 
 281:HANcoder_E407_TTA_CombineModel.c ****     /* Sum: '<S9>/Sum' incorporates:
 282:HANcoder_E407_TTA_CombineModel.c ****      *  Constant: '<S9>/Constant'
 283:HANcoder_E407_TTA_CombineModel.c ****      */
 284:HANcoder_E407_TTA_CombineModel.c ****     rtB.Sum = (uint16_T)((uint32_T)rtb_Level2MfileSFunction + ((uint16_T)1000U));
 285:HANcoder_E407_TTA_CombineModel.c **** 
 286:HANcoder_E407_TTA_CombineModel.c ****     /* Update for M-S-Function: '<S100>/Level-2 M-file S-Function' incorporates:
 287:HANcoder_E407_TTA_CombineModel.c ****      *  Constant: '<S9>/Constant1'
 288:HANcoder_E407_TTA_CombineModel.c ****      */
 289:HANcoder_E407_TTA_CombineModel.c ****     /* schedule the next output compare event */
 290:HANcoder_E407_TTA_CombineModel.c ****     TimeoutScheduleCompareEvent(TIMEOUT_TIM4_PIN_PD12, rtB.Sum, (tTimeoutAction)
 291:HANcoder_E407_TTA_CombineModel.c ****       ((uint8_T)3U));
 292:HANcoder_E407_TTA_CombineModel.c ****   }
 293:HANcoder_E407_TTA_CombineModel.c **** }
 294:HANcoder_E407_TTA_CombineModel.c **** 
 295:HANcoder_E407_TTA_CombineModel.c **** void PwmoutIRQ_PWMOUT_MODULE_TIM14(void)
 296:HANcoder_E407_TTA_CombineModel.c **** {
  29              		.loc 1 296 1 view -0
  30              		.cfi_startproc
  31              		@ args = 0, pretend = 0, frame = 0
  32              		@ frame_needed = 0, uses_anonymous_args = 0
  33              		@ link register save eliminated.
 297:HANcoder_E407_TTA_CombineModel.c **** }
  34              		.loc 1 297 1 view .LVU1
  35 0000 7047     		bx	lr
  36              		.cfi_endproc
  37              	.LFE114:
  39              		.global	__aeabi_d2uiz
  40 0002 00BF     		.section	.text.TimeoutEventIRQ_TIMEOUT_TIM4_PIN_PD12,"ax",%progbits
  41              		.align	1
  42              		.p2align 2,,3
  43              		.global	TimeoutEventIRQ_TIMEOUT_TIM4_PIN_PD12
  44              		.syntax unified
  45              		.thumb
  46              		.thumb_func
  48              	TimeoutEventIRQ_TIMEOUT_TIM4_PIN_PD12:
  49              	.LFB113:
 194:HANcoder_E407_TTA_CombineModel.c ****   /* Output and update for function-call system: '<S1>/Local Time generation' */
  50              		.loc 1 194 1 view -0
  51              		.cfi_startproc
  52              		@ args = 0, pretend = 0, frame = 0
  53              		@ frame_needed = 0, uses_anonymous_args = 0
  54              	.LBB204:
 198:HANcoder_E407_TTA_CombineModel.c ****     boolean_T rtb_Equal;
  55              		.loc 1 198 5 view .LVU3
 199:HANcoder_E407_TTA_CombineModel.c **** 
  56              		.loc 1 199 5 view .LVU4
 202:HANcoder_E407_TTA_CombineModel.c **** 
  57              		.loc 1 202 5 view .LVU5
  58              	.LBE204:
 194:HANcoder_E407_TTA_CombineModel.c ****   /* Output and update for function-call system: '<S1>/Local Time generation' */
  59              		.loc 1 194 1 is_stmt 0 view .LVU6
  60 0000 2DE9F041 		push	{r4, r5, r6, r7, r8, lr}
  61              		.cfi_def_cfa_offset 24
  62              		.cfi_offset 4, -24
  63              		.cfi_offset 5, -20
  64              		.cfi_offset 6, -16
  65              		.cfi_offset 7, -12
  66              		.cfi_offset 8, -8
  67              		.cfi_offset 14, -4
  68              	.LBB205:
 202:HANcoder_E407_TTA_CombineModel.c **** 
  69              		.loc 1 202 20 view .LVU7
  70 0004 224D     		ldr	r5, .L15
 202:HANcoder_E407_TTA_CombineModel.c **** 
  71              		.loc 1 202 15 view .LVU8
  72 0006 234A     		ldr	r2, .L15+4
 202:HANcoder_E407_TTA_CombineModel.c **** 
  73              		.loc 1 202 20 view .LVU9
  74 0008 95F82930 		ldrb	r3, [r5, #41]	@ zero_extendqisi2
 211:HANcoder_E407_TTA_CombineModel.c ****         ((uint8_T)1U));
  75              		.loc 1 211 58 view .LVU10
  76 000c 224C     		ldr	r4, .L15+8
 202:HANcoder_E407_TTA_CombineModel.c **** 
  77              		.loc 1 202 15 view .LVU11
  78 000e 1370     		strb	r3, [r2]
 205:HANcoder_E407_TTA_CombineModel.c ****       /* Switch: '<S9>/Switch' incorporates:
  79              		.loc 1 205 5 is_stmt 1 view .LVU12
 205:HANcoder_E407_TTA_CombineModel.c ****       /* Switch: '<S9>/Switch' incorporates:
  80              		.loc 1 205 8 is_stmt 0 view .LVU13
  81 0010 002B     		cmp	r3, #0
  82 0012 3AD0     		beq	.L4
 211:HANcoder_E407_TTA_CombineModel.c ****         ((uint8_T)1U));
  83              		.loc 1 211 7 is_stmt 1 view .LVU14
 211:HANcoder_E407_TTA_CombineModel.c ****         ((uint8_T)1U));
  84              		.loc 1 211 31 is_stmt 0 view .LVU15
  85 0014 94F84931 		ldrb	r3, [r4, #329]	@ zero_extendqisi2
  86 0018 0133     		adds	r3, r3, #1
  87 001a DBB2     		uxtb	r3, r3
  88              	.L5:
  89 001c 1F49     		ldr	r1, .L15+12
 226:HANcoder_E407_TTA_CombineModel.c **** 
  90              		.loc 1 226 26 view .LVU16
  91 001e 94F84C21 		ldrb	r2, [r4, #332]	@ zero_extendqisi2
  92 0022 0B70     		strb	r3, [r1]
 223:HANcoder_E407_TTA_CombineModel.c **** 
  93              		.loc 1 223 5 is_stmt 1 view .LVU17
 226:HANcoder_E407_TTA_CombineModel.c **** 
  94              		.loc 1 226 17 is_stmt 0 view .LVU18
  95 0024 1E49     		ldr	r1, .L15+16
 241:HANcoder_E407_TTA_CombineModel.c ****     {
  96              		.loc 1 241 39 view .LVU19
  97 0026 1F4E     		ldr	r6, .L15+20
 223:HANcoder_E407_TTA_CombineModel.c **** 
  98              		.loc 1 223 25 view .LVU20
  99 0028 84F84931 		strb	r3, [r4, #329]
 226:HANcoder_E407_TTA_CombineModel.c **** 
 100              		.loc 1 226 5 is_stmt 1 view .LVU21
 236:HANcoder_E407_TTA_CombineModel.c **** 
 101              		.loc 1 236 38 is_stmt 0 view .LVU22
 102 002c 9A42     		cmp	r2, r3
 226:HANcoder_E407_TTA_CombineModel.c **** 
 103              		.loc 1 226 17 view .LVU23
 104 002e 0A70     		strb	r2, [r1]
 231:HANcoder_E407_TTA_CombineModel.c **** 
 105              		.loc 1 231 5 is_stmt 1 view .LVU24
 106              	.LVL0:
 236:HANcoder_E407_TTA_CombineModel.c **** 
 107              		.loc 1 236 5 view .LVU25
 236:HANcoder_E407_TTA_CombineModel.c **** 
 108              		.loc 1 236 15 is_stmt 0 view .LVU26
 109 0030 94BF     		ite	ls
 110 0032 4FF00108 		movls	r8, #1
 111 0036 4FF00008 		movhi	r8, #0
 112              	.LVL1:
 241:HANcoder_E407_TTA_CombineModel.c ****     {
 113              		.loc 1 241 5 is_stmt 1 view .LVU27
 241:HANcoder_E407_TTA_CombineModel.c ****     {
 114              		.loc 1 241 8 is_stmt 0 view .LVU28
 115 003a 17D8     		bhi	.L6
 241:HANcoder_E407_TTA_CombineModel.c ****     {
 116              		.loc 1 241 19 discriminator 1 view .LVU29
 117 003c 737B     		ldrb	r3, [r6, #13]	@ zero_extendqisi2
 118 003e 012B     		cmp	r3, #1
 119 0040 14D0     		beq	.L6
 249:HANcoder_E407_TTA_CombineModel.c ****         /* Switch: '<S98>/Switch' incorporates:
 120              		.loc 1 249 7 is_stmt 1 view .LVU30
 249:HANcoder_E407_TTA_CombineModel.c ****         /* Switch: '<S98>/Switch' incorporates:
 121              		.loc 1 249 26 is_stmt 0 view .LVU31
 122 0042 194B     		ldr	r3, .L15+24
 249:HANcoder_E407_TTA_CombineModel.c ****         /* Switch: '<S98>/Switch' incorporates:
 123              		.loc 1 249 18 view .LVU32
 124 0044 94F84B71 		ldrb	r7, [r4, #331]	@ zero_extendqisi2
 249:HANcoder_E407_TTA_CombineModel.c ****         /* Switch: '<S98>/Switch' incorporates:
 125              		.loc 1 249 26 view .LVU33
 126 0048 D3E90001 		ldrd	r0, [r3]
 127 004c FFF7FEFF 		bl	__aeabi_d2uiz
 128              	.LVL2:
 249:HANcoder_E407_TTA_CombineModel.c ****         /* Switch: '<S98>/Switch' incorporates:
 129              		.loc 1 249 10 view .LVU34
 130 0050 C0B2     		uxtb	r0, r0
 131 0052 B842     		cmp	r0, r7
 255:HANcoder_E407_TTA_CombineModel.c ****       } else {
 132              		.loc 1 255 9 is_stmt 1 view .LVU35
 255:HANcoder_E407_TTA_CombineModel.c ****       } else {
 133              		.loc 1 255 24 is_stmt 0 view .LVU36
 134 0054 88BF     		it	hi
 135 0056 7B1C     		addhi	r3, r7, #1
 136 0058 144A     		ldr	r2, .L15+28
 137 005a 8CBF     		ite	hi
 138 005c DBB2     		uxtbhi	r3, r3
 260:HANcoder_E407_TTA_CombineModel.c ****       }
 139              		.loc 1 260 22 view .LVU37
 140 005e 0123     		movls	r3, #1
 266:HANcoder_E407_TTA_CombineModel.c **** 
 141              		.loc 1 266 20 view .LVU38
 142 0060 84F84B31 		strb	r3, [r4, #331]
 143 0064 1370     		strb	r3, [r2]
 266:HANcoder_E407_TTA_CombineModel.c **** 
 144              		.loc 1 266 7 is_stmt 1 view .LVU39
 271:HANcoder_E407_TTA_CombineModel.c ****     }
 145              		.loc 1 271 7 view .LVU40
 271:HANcoder_E407_TTA_CombineModel.c ****     }
 146              		.loc 1 271 27 is_stmt 0 view .LVU41
 147 0066 0023     		movs	r3, #0
 148 0068 84F84931 		strb	r3, [r4, #329]
 149              	.L6:
 274:HANcoder_E407_TTA_CombineModel.c **** 
 150              		.loc 1 274 5 is_stmt 1 view .LVU42
 279:HANcoder_E407_TTA_CombineModel.c **** 
 151              		.loc 1 279 32 is_stmt 0 view .LVU43
 152 006c 0720     		movs	r0, #7
 274:HANcoder_E407_TTA_CombineModel.c **** 
 153              		.loc 1 274 48 view .LVU44
 154 006e 86F80D80 		strb	r8, [r6, #13]
 279:HANcoder_E407_TTA_CombineModel.c **** 
 155              		.loc 1 279 5 is_stmt 1 view .LVU45
 279:HANcoder_E407_TTA_CombineModel.c **** 
 156              		.loc 1 279 32 is_stmt 0 view .LVU46
 157 0072 FFF7FEFF 		bl	TimeoutGetLastEventCounter
 158              	.LVL3:
 284:HANcoder_E407_TTA_CombineModel.c **** 
 159              		.loc 1 284 5 is_stmt 1 view .LVU47
 284:HANcoder_E407_TTA_CombineModel.c **** 
 160              		.loc 1 284 15 is_stmt 0 view .LVU48
 161 0076 00F57A70 		add	r0, r0, #1000
 162              	.LVL4:
 284:HANcoder_E407_TTA_CombineModel.c **** 
 163              		.loc 1 284 15 view .LVU49
 164 007a 81B2     		uxth	r1, r0
 284:HANcoder_E407_TTA_CombineModel.c **** 
 165              		.loc 1 284 13 view .LVU50
 166 007c 6980     		strh	r1, [r5, #2]	@ movhi
 290:HANcoder_E407_TTA_CombineModel.c ****       ((uint8_T)3U));
 167              		.loc 1 290 5 is_stmt 1 view .LVU51
 168 007e 0322     		movs	r2, #3
 169              	.LBE205:
 293:HANcoder_E407_TTA_CombineModel.c **** 
 170              		.loc 1 293 1 is_stmt 0 view .LVU52
 171 0080 BDE8F041 		pop	{r4, r5, r6, r7, r8, lr}
 172              		.cfi_remember_state
 173              		.cfi_restore 14
 174              		.cfi_restore 8
 175              		.cfi_restore 7
 176              		.cfi_restore 6
 177              		.cfi_restore 5
 178              		.cfi_restore 4
 179              		.cfi_def_cfa_offset 0
 180              	.LVL5:
 181              	.LBB206:
 290:HANcoder_E407_TTA_CombineModel.c ****       ((uint8_T)3U));
 182              		.loc 1 290 5 view .LVU53
 183 0084 0720     		movs	r0, #7
 184 0086 FFF7FEBF 		b	TimeoutScheduleCompareEvent
 185              	.LVL6:
 186              	.L4:
 187              		.cfi_restore_state
 217:HANcoder_E407_TTA_CombineModel.c ****     }
 188              		.loc 1 217 7 is_stmt 1 view .LVU54
 217:HANcoder_E407_TTA_CombineModel.c ****     }
 189              		.loc 1 217 38 is_stmt 0 view .LVU55
 190 008a 94F84931 		ldrb	r3, [r4, #329]	@ zero_extendqisi2
 191 008e C5E7     		b	.L5
 192              	.L16:
 193              		.align	2
 194              	.L15:
 195 0090 00000000 		.word	.LANCHOR0
 196 0094 00000000 		.word	.LANCHOR1
 197 0098 00000000 		.word	.LANCHOR2
 198 009c 00000000 		.word	.LANCHOR3
 199 00a0 00000000 		.word	.LANCHOR4
 200 00a4 00000000 		.word	.LANCHOR5
 201 00a8 00000000 		.word	.LANCHOR6
 202 00ac 00000000 		.word	.LANCHOR7
 203              	.LBE206:
 204              		.cfi_endproc
 205              	.LFE113:
 207              		.section	.text.TimeoutOverflowIRQ_TIMEOUT_MODULE_TIM4,"ax",%progbits
 208              		.align	1
 209              		.p2align 2,,3
 210              		.global	TimeoutOverflowIRQ_TIMEOUT_MODULE_TIM4
 211              		.syntax unified
 212              		.thumb
 213              		.thumb_func
 215              	TimeoutOverflowIRQ_TIMEOUT_MODULE_TIM4:
 216              	.LFB143:
 217              		.cfi_startproc
 218              		@ args = 0, pretend = 0, frame = 0
 219              		@ frame_needed = 0, uses_anonymous_args = 0
 220              		@ link register save eliminated.
 221 0000 7047     		bx	lr
 222              		.cfi_endproc
 223              	.LFE143:
 225 0002 00BF     		.section	.text.ByteSwap_x,"ax",%progbits
 226              		.align	1
 227              		.p2align 2,,3
 228              		.global	ByteSwap_x
 229              		.syntax unified
 230              		.thumb
 231              		.thumb_func
 233              	ByteSwap_x:
 234              	.LVL7:
 235              	.LFB112:
 184:HANcoder_E407_TTA_CombineModel.c ****   int i = 0;
 236              		.loc 1 184 1 is_stmt 1 view -0
 237              		.cfi_startproc
 238              		@ args = 0, pretend = 0, frame = 0
 239              		@ frame_needed = 0, uses_anonymous_args = 0
 185:HANcoder_E407_TTA_CombineModel.c ****   int j = n-1;
 240              		.loc 1 185 3 view .LVU57
 186:HANcoder_E407_TTA_CombineModel.c ****   while (i<j) {
 241              		.loc 1 186 3 view .LVU58
 184:HANcoder_E407_TTA_CombineModel.c ****   int i = 0;
 242              		.loc 1 184 1 is_stmt 0 view .LVU59
 243 0000 70B5     		push	{r4, r5, r6, lr}
 244              		.cfi_def_cfa_offset 16
 245              		.cfi_offset 4, -16
 246              		.cfi_offset 5, -12
 247              		.cfi_offset 6, -8
 248              		.cfi_offset 14, -4
 186:HANcoder_E407_TTA_CombineModel.c ****   while (i<j) {
 249              		.loc 1 186 12 view .LVU60
 250 0002 01F1FF3E 		add	lr, r1, #-1
 251              	.LVL8:
 187:HANcoder_E407_TTA_CombineModel.c ****     swap(&b[i], &b[j]);
 252              		.loc 1 187 3 is_stmt 1 view .LVU61
 187:HANcoder_E407_TTA_CombineModel.c ****     swap(&b[i], &b[j]);
 253              		.loc 1 187 9 view .LVU62
 254 0006 BEF1000F 		cmp	lr, #0
 255 000a 15DD     		ble	.L18
 256 000c 00F1FF3C 		add	ip, r0, #-1
 257 0010 8644     		add	lr, lr, r0
 258              	.LVL9:
 187:HANcoder_E407_TTA_CombineModel.c ****     swap(&b[i], &b[j]);
 259              		.loc 1 187 9 is_stmt 0 view .LVU63
 260 0012 6FF00106 		mvn	r6, #1
 261              	.LVL10:
 262              	.L20:
 188:HANcoder_E407_TTA_CombineModel.c ****     i++, j--;
 263              		.loc 1 188 5 is_stmt 1 view .LVU64
 264              	.LBB207:
 265              	.LBI207:
 171:HANcoder_E407_TTA_CombineModel.c **** {
 266              		.loc 1 171 13 view .LVU65
 267              	.LBB208:
 173:HANcoder_E407_TTA_CombineModel.c ****   *a = *b;
 268              		.loc 1 173 3 view .LVU66
 269 0016 6246     		mov	r2, ip
 173:HANcoder_E407_TTA_CombineModel.c ****   *a = *b;
 270              		.loc 1 173 17 is_stmt 0 view .LVU67
 271 0018 1CF8014F 		ldrb	r4, [ip, #1]!	@ zero_extendqisi2
 272              	.LVL11:
 174:HANcoder_E407_TTA_CombineModel.c ****   *b = i;
 273              		.loc 1 174 3 is_stmt 1 view .LVU68
 174:HANcoder_E407_TTA_CombineModel.c ****   *b = i;
 274              		.loc 1 174 8 is_stmt 0 view .LVU69
 275 001c 9EF80050 		ldrb	r5, [lr]	@ zero_extendqisi2
 174:HANcoder_E407_TTA_CombineModel.c ****   *b = i;
 276              		.loc 1 174 6 view .LVU70
 277 0020 8CF80050 		strb	r5, [ip]
 175:HANcoder_E407_TTA_CombineModel.c **** }                                      /*** end of swap ***/
 278              		.loc 1 175 3 is_stmt 1 view .LVU71
 279              	.LBE208:
 280              	.LBE207:
 187:HANcoder_E407_TTA_CombineModel.c ****     swap(&b[i], &b[j]);
 281              		.loc 1 187 9 is_stmt 0 view .LVU72
 282 0024 A6EB0C03 		sub	r3, r6, ip
 283 0028 0232     		adds	r2, r2, #2
 284              	.LVL12:
 187:HANcoder_E407_TTA_CombineModel.c ****     swap(&b[i], &b[j]);
 285              		.loc 1 187 9 view .LVU73
 286 002a 0344     		add	r3, r3, r0
 287 002c 121A     		subs	r2, r2, r0
 288              	.LVL13:
 187:HANcoder_E407_TTA_CombineModel.c ****     swap(&b[i], &b[j]);
 289              		.loc 1 187 9 view .LVU74
 290 002e 0B44     		add	r3, r3, r1
 291 0030 9A42     		cmp	r2, r3
 292              	.LBB210:
 293              	.LBB209:
 175:HANcoder_E407_TTA_CombineModel.c **** }                                      /*** end of swap ***/
 294              		.loc 1 175 6 view .LVU75
 295 0032 0EF80149 		strb	r4, [lr], #-1
 296              	.LVL14:
 175:HANcoder_E407_TTA_CombineModel.c **** }                                      /*** end of swap ***/
 297              		.loc 1 175 6 view .LVU76
 298              	.LBE209:
 299              	.LBE210:
 189:HANcoder_E407_TTA_CombineModel.c ****   }
 300              		.loc 1 189 5 is_stmt 1 view .LVU77
 187:HANcoder_E407_TTA_CombineModel.c ****     swap(&b[i], &b[j]);
 301              		.loc 1 187 9 view .LVU78
 302 0036 EEDB     		blt	.L20
 303              	.LVL15:
 304              	.L18:
 191:HANcoder_E407_TTA_CombineModel.c **** 
 305              		.loc 1 191 1 is_stmt 0 view .LVU79
 306 0038 70BD     		pop	{r4, r5, r6, pc}
 307              		.cfi_endproc
 308              	.LFE112:
 310 003a 00BF     		.section	.text.MovingAverage_Init,"ax",%progbits
 311              		.align	1
 312              		.p2align 2,,3
 313              		.global	MovingAverage_Init
 314              		.syntax unified
 315              		.thumb
 316              		.thumb_func
 318              	MovingAverage_Init:
 319              	.LVL16:
 320              	.LFB117:
 298:HANcoder_E407_TTA_CombineModel.c **** 
 299:HANcoder_E407_TTA_CombineModel.c **** void TimeoutOverflowIRQ_TIMEOUT_MODULE_TIM4(void)
 300:HANcoder_E407_TTA_CombineModel.c **** {
 301:HANcoder_E407_TTA_CombineModel.c **** }
 302:HANcoder_E407_TTA_CombineModel.c **** 
 303:HANcoder_E407_TTA_CombineModel.c **** static void SystemCore_setup(dsp_simulink_MovingAverage *obj)
 304:HANcoder_E407_TTA_CombineModel.c **** {
 305:HANcoder_E407_TTA_CombineModel.c ****   obj->isSetupComplete = false;
 306:HANcoder_E407_TTA_CombineModel.c ****   obj->isInitialized = 1;
 307:HANcoder_E407_TTA_CombineModel.c ****   obj->NumChannels = 1;
 308:HANcoder_E407_TTA_CombineModel.c ****   obj->FrameLength = 1;
 309:HANcoder_E407_TTA_CombineModel.c ****   obj->_pobj0.isInitialized = 0;
 310:HANcoder_E407_TTA_CombineModel.c ****   obj->_pobj0.isInitialized = 0;
 311:HANcoder_E407_TTA_CombineModel.c ****   obj->pStatistic = &obj->_pobj0;
 312:HANcoder_E407_TTA_CombineModel.c ****   obj->isSetupComplete = true;
 313:HANcoder_E407_TTA_CombineModel.c ****   obj->TunablePropsChanged = false;
 314:HANcoder_E407_TTA_CombineModel.c **** }
 315:HANcoder_E407_TTA_CombineModel.c **** 
 316:HANcoder_E407_TTA_CombineModel.c **** /* System initialize for atomic system: */
 317:HANcoder_E407_TTA_CombineModel.c **** void MovingAverage_Init(rtDW_MovingAverage *localDW)
 318:HANcoder_E407_TTA_CombineModel.c **** {
 321              		.loc 1 318 1 is_stmt 1 view -0
 322              		.cfi_startproc
 323              		@ args = 0, pretend = 0, frame = 0
 324              		@ frame_needed = 0, uses_anonymous_args = 0
 319:HANcoder_E407_TTA_CombineModel.c ****   g_dsp_internal_SlidingWindowAve *obj;
 325              		.loc 1 319 3 view .LVU81
 320:HANcoder_E407_TTA_CombineModel.c ****   int32_T i;
 326              		.loc 1 320 3 view .LVU82
 321:HANcoder_E407_TTA_CombineModel.c **** 
 322:HANcoder_E407_TTA_CombineModel.c ****   /* InitializeConditions for MATLABSystem: '<S77>/Moving Average' */
 323:HANcoder_E407_TTA_CombineModel.c ****   obj = localDW->obj.pStatistic;
 327              		.loc 1 323 3 view .LVU83
 318:HANcoder_E407_TTA_CombineModel.c ****   g_dsp_internal_SlidingWindowAve *obj;
 328              		.loc 1 318 1 is_stmt 0 view .LVU84
 329 0000 38B5     		push	{r3, r4, r5, lr}
 330              		.cfi_def_cfa_offset 16
 331              		.cfi_offset 3, -16
 332              		.cfi_offset 4, -12
 333              		.cfi_offset 5, -8
 334              		.cfi_offset 14, -4
 335              		.loc 1 323 7 view .LVU85
 336 0002 C46A     		ldr	r4, [r0, #44]
 337              	.LVL17:
 324:HANcoder_E407_TTA_CombineModel.c ****   if (obj->isInitialized == 1) {
 338              		.loc 1 324 3 is_stmt 1 view .LVU86
 339              		.loc 1 324 6 is_stmt 0 view .LVU87
 340 0004 2368     		ldr	r3, [r4]
 341 0006 012B     		cmp	r3, #1
 342 0008 00D0     		beq	.L26
 325:HANcoder_E407_TTA_CombineModel.c ****     obj->pCumSum = 0.0F;
 326:HANcoder_E407_TTA_CombineModel.c ****     for (i = 0; i < 9; i++) {
 327:HANcoder_E407_TTA_CombineModel.c ****       obj->pCumSumRev[i] = 0.0F;
 328:HANcoder_E407_TTA_CombineModel.c ****     }
 329:HANcoder_E407_TTA_CombineModel.c **** 
 330:HANcoder_E407_TTA_CombineModel.c ****     obj->pCumRevIndex = 1.0F;
 331:HANcoder_E407_TTA_CombineModel.c ****     obj->pModValueRev = 0.0F;
 332:HANcoder_E407_TTA_CombineModel.c ****   }
 333:HANcoder_E407_TTA_CombineModel.c **** 
 334:HANcoder_E407_TTA_CombineModel.c ****   /* End of InitializeConditions for MATLABSystem: '<S77>/Moving Average' */
 335:HANcoder_E407_TTA_CombineModel.c **** }
 343              		.loc 1 335 1 view .LVU88
 344 000a 38BD     		pop	{r3, r4, r5, pc}
 345              	.LVL18:
 346              	.L26:
 325:HANcoder_E407_TTA_CombineModel.c ****     obj->pCumSum = 0.0F;
 347              		.loc 1 325 5 is_stmt 1 view .LVU89
 325:HANcoder_E407_TTA_CombineModel.c ****     obj->pCumSum = 0.0F;
 348              		.loc 1 325 18 is_stmt 0 view .LVU90
 349 000c 0025     		movs	r5, #0
 327:HANcoder_E407_TTA_CombineModel.c ****     }
 350              		.loc 1 327 26 view .LVU91
 351 000e 2422     		movs	r2, #36
 325:HANcoder_E407_TTA_CombineModel.c ****     obj->pCumSum = 0.0F;
 352              		.loc 1 325 18 view .LVU92
 353 0010 A560     		str	r5, [r4, #8]	@ float
 326:HANcoder_E407_TTA_CombineModel.c ****       obj->pCumSumRev[i] = 0.0F;
 354              		.loc 1 326 5 is_stmt 1 view .LVU93
 355              	.LVL19:
 326:HANcoder_E407_TTA_CombineModel.c ****       obj->pCumSumRev[i] = 0.0F;
 356              		.loc 1 326 17 view .LVU94
 327:HANcoder_E407_TTA_CombineModel.c ****     }
 357              		.loc 1 327 26 is_stmt 0 view .LVU95
 358 0012 0021     		movs	r1, #0
 359 0014 04F10C00 		add	r0, r4, #12
 360              	.LVL20:
 327:HANcoder_E407_TTA_CombineModel.c ****     }
 361              		.loc 1 327 26 view .LVU96
 362 0018 FFF7FEFF 		bl	memset
 363              	.LVL21:
 330:HANcoder_E407_TTA_CombineModel.c ****     obj->pModValueRev = 0.0F;
 364              		.loc 1 330 5 is_stmt 1 view .LVU97
 330:HANcoder_E407_TTA_CombineModel.c ****     obj->pModValueRev = 0.0F;
 365              		.loc 1 330 23 is_stmt 0 view .LVU98
 366 001c 4FF07E53 		mov	r3, #1065353216
 367 0020 2363     		str	r3, [r4, #48]	@ float
 331:HANcoder_E407_TTA_CombineModel.c ****   }
 368              		.loc 1 331 5 is_stmt 1 view .LVU99
 331:HANcoder_E407_TTA_CombineModel.c ****   }
 369              		.loc 1 331 23 is_stmt 0 view .LVU100
 370 0022 6563     		str	r5, [r4, #52]	@ float
 371              		.loc 1 335 1 view .LVU101
 372 0024 38BD     		pop	{r3, r4, r5, pc}
 373              		.loc 1 335 1 view .LVU102
 374              		.cfi_endproc
 375              	.LFE117:
 377 0026 00BF     		.section	.text.MovingAverage_Start,"ax",%progbits
 378              		.align	1
 379              		.p2align 2,,3
 380              		.global	MovingAverage_Start
 381              		.syntax unified
 382              		.thumb
 383              		.thumb_func
 385              	MovingAverage_Start:
 386              	.LVL22:
 387              	.LFB118:
 336:HANcoder_E407_TTA_CombineModel.c **** 
 337:HANcoder_E407_TTA_CombineModel.c **** /* Start for atomic system: */
 338:HANcoder_E407_TTA_CombineModel.c **** void MovingAverage_Start(rtDW_MovingAverage *localDW)
 339:HANcoder_E407_TTA_CombineModel.c **** {
 388              		.loc 1 339 1 is_stmt 1 view -0
 389              		.cfi_startproc
 390              		@ args = 0, pretend = 0, frame = 0
 391              		@ frame_needed = 0, uses_anonymous_args = 0
 392              		@ link register save eliminated.
 340:HANcoder_E407_TTA_CombineModel.c ****   /* Start for MATLABSystem: '<S77>/Moving Average' */
 341:HANcoder_E407_TTA_CombineModel.c ****   localDW->obj.isInitialized = 0;
 393              		.loc 1 341 3 view .LVU104
 342:HANcoder_E407_TTA_CombineModel.c ****   localDW->obj.NumChannels = -1;
 394              		.loc 1 342 3 view .LVU105
 343:HANcoder_E407_TTA_CombineModel.c ****   localDW->obj.FrameLength = -1;
 395              		.loc 1 343 3 view .LVU106
 344:HANcoder_E407_TTA_CombineModel.c ****   localDW->obj.matlabCodegenIsDeleted = false;
 396              		.loc 1 344 3 view .LVU107
 397              	.LBB211:
 398              	.LBB212:
 309:HANcoder_E407_TTA_CombineModel.c ****   obj->_pobj0.isInitialized = 0;
 399              		.loc 1 309 29 is_stmt 0 view .LVU108
 400 0000 0246     		mov	r2, r0
 401              	.LBE212:
 402              	.LBE211:
 345:HANcoder_E407_TTA_CombineModel.c ****   localDW->objisempty = true;
 403              		.loc 1 345 23 view .LVU109
 404 0002 0123     		movs	r3, #1
 344:HANcoder_E407_TTA_CombineModel.c ****   localDW->obj.matlabCodegenIsDeleted = false;
 405              		.loc 1 344 39 view .LVU110
 406 0004 0021     		movs	r1, #0
 407              	.LBB215:
 408              	.LBB213:
 308:HANcoder_E407_TTA_CombineModel.c ****   obj->_pobj0.isInitialized = 0;
 409              		.loc 1 308 20 view .LVU111
 410 0006 C0E90C33 		strd	r3, r3, [r0, #48]
 411              	.LBE213:
 412              	.LBE215:
 344:HANcoder_E407_TTA_CombineModel.c ****   localDW->objisempty = true;
 413              		.loc 1 344 39 view .LVU112
 414 000a 0170     		strb	r1, [r0]
 415              		.loc 1 345 3 is_stmt 1 view .LVU113
 416              		.loc 1 345 23 is_stmt 0 view .LVU114
 417 000c 80F87030 		strb	r3, [r0, #112]
 346:HANcoder_E407_TTA_CombineModel.c ****   SystemCore_setup(&localDW->obj);
 418              		.loc 1 346 3 is_stmt 1 view .LVU115
 419              	.LVL23:
 420              	.LBB216:
 421              	.LBI211:
 303:HANcoder_E407_TTA_CombineModel.c **** {
 422              		.loc 1 303 13 view .LVU116
 423              	.LBB214:
 305:HANcoder_E407_TTA_CombineModel.c ****   obj->isInitialized = 1;
 424              		.loc 1 305 3 view .LVU117
 306:HANcoder_E407_TTA_CombineModel.c ****   obj->NumChannels = 1;
 425              		.loc 1 306 3 view .LVU118
 307:HANcoder_E407_TTA_CombineModel.c ****   obj->FrameLength = 1;
 426              		.loc 1 307 3 view .LVU119
 309:HANcoder_E407_TTA_CombineModel.c ****   obj->_pobj0.isInitialized = 0;
 427              		.loc 1 309 3 view .LVU120
 309:HANcoder_E407_TTA_CombineModel.c ****   obj->_pobj0.isInitialized = 0;
 428              		.loc 1 309 29 is_stmt 0 view .LVU121
 429 0010 42F8381F 		str	r1, [r2, #56]!
 310:HANcoder_E407_TTA_CombineModel.c ****   obj->pStatistic = &obj->_pobj0;
 430              		.loc 1 310 3 is_stmt 1 view .LVU122
 311:HANcoder_E407_TTA_CombineModel.c ****   obj->isSetupComplete = true;
 431              		.loc 1 311 3 view .LVU123
 306:HANcoder_E407_TTA_CombineModel.c ****   obj->NumChannels = 1;
 432              		.loc 1 306 22 is_stmt 0 view .LVU124
 433 0014 4360     		str	r3, [r0, #4]
 311:HANcoder_E407_TTA_CombineModel.c ****   obj->isSetupComplete = true;
 434              		.loc 1 311 19 view .LVU125
 435 0016 C262     		str	r2, [r0, #44]
 312:HANcoder_E407_TTA_CombineModel.c ****   obj->TunablePropsChanged = false;
 436              		.loc 1 312 3 is_stmt 1 view .LVU126
 313:HANcoder_E407_TTA_CombineModel.c **** }
 437              		.loc 1 313 3 view .LVU127
 312:HANcoder_E407_TTA_CombineModel.c ****   obj->TunablePropsChanged = false;
 438              		.loc 1 312 24 is_stmt 0 view .LVU128
 439 0018 0381     		strh	r3, [r0, #8]	@ movhi
 440              	.LVL24:
 312:HANcoder_E407_TTA_CombineModel.c ****   obj->TunablePropsChanged = false;
 441              		.loc 1 312 24 view .LVU129
 442              	.LBE214:
 443              	.LBE216:
 347:HANcoder_E407_TTA_CombineModel.c **** }
 444              		.loc 1 347 1 view .LVU130
 445 001a 7047     		bx	lr
 446              		.cfi_endproc
 447              	.LFE118:
 449              		.section	.text.MovingAverage,"ax",%progbits
 450              		.align	1
 451              		.p2align 2,,3
 452              		.global	MovingAverage
 453              		.syntax unified
 454              		.thumb
 455              		.thumb_func
 457              	MovingAverage:
 458              	.LVL25:
 459              	.LFB119:
 348:HANcoder_E407_TTA_CombineModel.c **** 
 349:HANcoder_E407_TTA_CombineModel.c **** /* Output and update for atomic system: */
 350:HANcoder_E407_TTA_CombineModel.c **** void MovingAverage(real32_T rtu_0, rtB_MovingAverage *localB, rtDW_MovingAverage
 351:HANcoder_E407_TTA_CombineModel.c ****                    *localDW)
 352:HANcoder_E407_TTA_CombineModel.c **** {
 460              		.loc 1 352 1 is_stmt 1 view -0
 461              		.cfi_startproc
 462              		@ args = 0, pretend = 0, frame = 40
 463              		@ frame_needed = 0, uses_anonymous_args = 0
 353:HANcoder_E407_TTA_CombineModel.c ****   g_dsp_internal_SlidingWindowAve *obj;
 464              		.loc 1 353 3 view .LVU132
 354:HANcoder_E407_TTA_CombineModel.c ****   int32_T i;
 465              		.loc 1 354 3 view .LVU133
 355:HANcoder_E407_TTA_CombineModel.c ****   real32_T csumrev[9];
 466              		.loc 1 355 3 view .LVU134
 356:HANcoder_E407_TTA_CombineModel.c ****   real32_T csum;
 467              		.loc 1 356 3 view .LVU135
 357:HANcoder_E407_TTA_CombineModel.c ****   real32_T cumRevIndex;
 468              		.loc 1 357 3 view .LVU136
 358:HANcoder_E407_TTA_CombineModel.c ****   real32_T modValueRev;
 469              		.loc 1 358 3 view .LVU137
 359:HANcoder_E407_TTA_CombineModel.c ****   real32_T z;
 470              		.loc 1 359 3 view .LVU138
 360:HANcoder_E407_TTA_CombineModel.c **** 
 361:HANcoder_E407_TTA_CombineModel.c ****   /* MATLABSystem: '<S77>/Moving Average' */
 362:HANcoder_E407_TTA_CombineModel.c ****   if (localDW->obj.TunablePropsChanged) {
 471              		.loc 1 362 3 view .LVU139
 352:HANcoder_E407_TTA_CombineModel.c ****   g_dsp_internal_SlidingWindowAve *obj;
 472              		.loc 1 352 1 is_stmt 0 view .LVU140
 473 0000 2DE9F047 		push	{r4, r5, r6, r7, r8, r9, r10, lr}
 474              		.cfi_def_cfa_offset 32
 475              		.cfi_offset 4, -32
 476              		.cfi_offset 5, -28
 477              		.cfi_offset 6, -24
 478              		.cfi_offset 7, -20
 479              		.cfi_offset 8, -16
 480              		.cfi_offset 9, -12
 481              		.cfi_offset 10, -8
 482              		.cfi_offset 14, -4
 483 0004 2DED028B 		vpush.64	{d8}
 484              		.cfi_def_cfa_offset 40
 485              		.cfi_offset 80, -40
 486              		.cfi_offset 81, -36
 487              		.loc 1 362 6 view .LVU141
 488 0008 537A     		ldrb	r3, [r2, #9]	@ zero_extendqisi2
 352:HANcoder_E407_TTA_CombineModel.c ****   g_dsp_internal_SlidingWindowAve *obj;
 489              		.loc 1 352 1 view .LVU142
 490 000a 08EE100A 		vmov	s16, r0
 491 000e 8AB0     		sub	sp, sp, #40
 492              		.cfi_def_cfa_offset 80
 352:HANcoder_E407_TTA_CombineModel.c ****   g_dsp_internal_SlidingWindowAve *obj;
 493              		.loc 1 352 1 view .LVU143
 494 0010 0F46     		mov	r7, r1
 495              		.loc 1 362 6 view .LVU144
 496 0012 0BB1     		cbz	r3, .L29
 363:HANcoder_E407_TTA_CombineModel.c ****     localDW->obj.TunablePropsChanged = false;
 497              		.loc 1 363 5 is_stmt 1 view .LVU145
 498              		.loc 1 363 38 is_stmt 0 view .LVU146
 499 0014 0023     		movs	r3, #0
 500 0016 5372     		strb	r3, [r2, #9]
 501              	.L29:
 364:HANcoder_E407_TTA_CombineModel.c ****   }
 365:HANcoder_E407_TTA_CombineModel.c **** 
 366:HANcoder_E407_TTA_CombineModel.c ****   obj = localDW->obj.pStatistic;
 502              		.loc 1 366 3 is_stmt 1 view .LVU147
 503              		.loc 1 366 7 is_stmt 0 view .LVU148
 504 0018 D56A     		ldr	r5, [r2, #44]
 505              	.LVL26:
 367:HANcoder_E407_TTA_CombineModel.c ****   if (obj->isInitialized != 1) {
 506              		.loc 1 367 3 is_stmt 1 view .LVU149
 507              		.loc 1 367 6 is_stmt 0 view .LVU150
 508 001a 2B68     		ldr	r3, [r5]
 509 001c 012B     		cmp	r3, #1
 510 001e 00F08380 		beq	.L30
 368:HANcoder_E407_TTA_CombineModel.c ****     obj->isSetupComplete = false;
 511              		.loc 1 368 5 is_stmt 1 view .LVU151
 369:HANcoder_E407_TTA_CombineModel.c ****     obj->isInitialized = 1;
 512              		.loc 1 369 5 view .LVU152
 370:HANcoder_E407_TTA_CombineModel.c ****     obj->pCumSum = 0.0F;
 513              		.loc 1 370 18 is_stmt 0 view .LVU153
 514 0022 0022     		movs	r2, #0
 515              	.LVL27:
 369:HANcoder_E407_TTA_CombineModel.c ****     obj->isInitialized = 1;
 516              		.loc 1 369 24 view .LVU154
 517 0024 0123     		movs	r3, #1
 371:HANcoder_E407_TTA_CombineModel.c ****     for (i = 0; i < 9; i++) {
 372:HANcoder_E407_TTA_CombineModel.c ****       obj->pCumSumRev[i] = 0.0F;
 373:HANcoder_E407_TTA_CombineModel.c ****     }
 374:HANcoder_E407_TTA_CombineModel.c **** 
 375:HANcoder_E407_TTA_CombineModel.c ****     obj->pCumRevIndex = 1.0F;
 376:HANcoder_E407_TTA_CombineModel.c ****     obj->pModValueRev = 0.0F;
 377:HANcoder_E407_TTA_CombineModel.c ****     obj->isSetupComplete = true;
 378:HANcoder_E407_TTA_CombineModel.c ****     obj->pCumSum = 0.0F;
 379:HANcoder_E407_TTA_CombineModel.c ****     for (i = 0; i < 9; i++) {
 380:HANcoder_E407_TTA_CombineModel.c ****       obj->pCumSumRev[i] = 0.0F;
 518              		.loc 1 380 26 view .LVU155
 519 0026 05F10C0C 		add	ip, r5, #12
 375:HANcoder_E407_TTA_CombineModel.c ****     obj->pModValueRev = 0.0F;
 520              		.loc 1 375 23 view .LVU156
 521 002a 4FF07E51 		mov	r1, #1065353216
 522              	.LVL28:
 370:HANcoder_E407_TTA_CombineModel.c ****     obj->pCumSum = 0.0F;
 523              		.loc 1 370 18 view .LVU157
 524 002e AA60     		str	r2, [r5, #8]	@ float
 375:HANcoder_E407_TTA_CombineModel.c ****     obj->pModValueRev = 0.0F;
 525              		.loc 1 375 23 view .LVU158
 526 0030 2963     		str	r1, [r5, #48]	@ float
 376:HANcoder_E407_TTA_CombineModel.c ****     obj->isSetupComplete = true;
 527              		.loc 1 376 23 view .LVU159
 528 0032 6A63     		str	r2, [r5, #52]	@ float
 529              		.loc 1 380 26 view .LVU160
 530 0034 6046     		mov	r0, ip
 531              	.LVL29:
 369:HANcoder_E407_TTA_CombineModel.c ****     obj->pCumSum = 0.0F;
 532              		.loc 1 369 24 view .LVU161
 533 0036 2B60     		str	r3, [r5]
 370:HANcoder_E407_TTA_CombineModel.c ****     for (i = 0; i < 9; i++) {
 534              		.loc 1 370 5 is_stmt 1 view .LVU162
 371:HANcoder_E407_TTA_CombineModel.c ****       obj->pCumSumRev[i] = 0.0F;
 535              		.loc 1 371 5 view .LVU163
 536              	.LVL30:
 371:HANcoder_E407_TTA_CombineModel.c ****       obj->pCumSumRev[i] = 0.0F;
 537              		.loc 1 371 17 view .LVU164
 375:HANcoder_E407_TTA_CombineModel.c ****     obj->pModValueRev = 0.0F;
 538              		.loc 1 375 5 view .LVU165
 376:HANcoder_E407_TTA_CombineModel.c ****     obj->isSetupComplete = true;
 539              		.loc 1 376 5 view .LVU166
 377:HANcoder_E407_TTA_CombineModel.c ****     obj->pCumSum = 0.0F;
 540              		.loc 1 377 5 view .LVU167
 377:HANcoder_E407_TTA_CombineModel.c ****     obj->pCumSum = 0.0F;
 541              		.loc 1 377 26 is_stmt 0 view .LVU168
 542 0038 2B71     		strb	r3, [r5, #4]
 378:HANcoder_E407_TTA_CombineModel.c ****     for (i = 0; i < 9; i++) {
 543              		.loc 1 378 5 is_stmt 1 view .LVU169
 379:HANcoder_E407_TTA_CombineModel.c ****       obj->pCumSumRev[i] = 0.0F;
 544              		.loc 1 379 5 view .LVU170
 545              	.LVL31:
 379:HANcoder_E407_TTA_CombineModel.c ****       obj->pCumSumRev[i] = 0.0F;
 546              		.loc 1 379 17 view .LVU171
 547              		.loc 1 380 26 is_stmt 0 view .LVU172
 548 003a 2422     		movs	r2, #36
 549 003c 0021     		movs	r1, #0
 550 003e FFF7FEFF 		bl	memset
 551              	.LVL32:
 381:HANcoder_E407_TTA_CombineModel.c ****     }
 382:HANcoder_E407_TTA_CombineModel.c **** 
 383:HANcoder_E407_TTA_CombineModel.c ****     obj->pCumRevIndex = 1.0F;
 384:HANcoder_E407_TTA_CombineModel.c ****     obj->pModValueRev = 0.0F;
 385:HANcoder_E407_TTA_CombineModel.c ****   }
 386:HANcoder_E407_TTA_CombineModel.c **** 
 387:HANcoder_E407_TTA_CombineModel.c ****   cumRevIndex = obj->pCumRevIndex;
 552              		.loc 1 387 3 is_stmt 1 view .LVU173
 388:HANcoder_E407_TTA_CombineModel.c ****   csum = obj->pCumSum;
 553              		.loc 1 388 3 view .LVU174
 389:HANcoder_E407_TTA_CombineModel.c ****   for (i = 0; i < 9; i++) {
 554              		.loc 1 389 3 view .LVU175
 555              		.loc 1 389 15 view .LVU176
 390:HANcoder_E407_TTA_CombineModel.c ****     csumrev[i] = obj->pCumSumRev[i];
 556              		.loc 1 390 16 is_stmt 0 view .LVU177
 557 0042 01AE     		add	r6, sp, #4
 558 0044 8446     		mov	ip, r0
 559 0046 0446     		mov	r4, r0
 560 0048 B046     		mov	r8, r6
 561 004a 05F12C09 		add	r9, r5, #44
 562              	.LVL33:
 563              	.L31:
 564              		.loc 1 390 16 view .LVU178
 565 004e 2068     		ldr	r0, [r4]	@ unaligned
 566 0050 6168     		ldr	r1, [r4, #4]	@ unaligned
 567 0052 A268     		ldr	r2, [r4, #8]	@ unaligned
 568 0054 E368     		ldr	r3, [r4, #12]	@ unaligned
 569 0056 1034     		adds	r4, r4, #16
 570 0058 C646     		mov	lr, r8
 571 005a 4C45     		cmp	r4, r9
 572 005c AEE80F00 		stmia	lr!, {r0, r1, r2, r3}
 573 0060 08F11008 		add	r8, r8, #16
 574 0064 F3D1     		bne	.L31
 391:HANcoder_E407_TTA_CombineModel.c ****   }
 392:HANcoder_E407_TTA_CombineModel.c **** 
 393:HANcoder_E407_TTA_CombineModel.c ****   modValueRev = obj->pModValueRev;
 394:HANcoder_E407_TTA_CombineModel.c ****   z = 0.0F;
 395:HANcoder_E407_TTA_CombineModel.c **** 
 396:HANcoder_E407_TTA_CombineModel.c ****   /* MATLABSystem: '<S77>/Moving Average' */
 397:HANcoder_E407_TTA_CombineModel.c ****   localB->MovingAverage_n = 0.0F;
 575              		.loc 1 397 27 view .LVU179
 576 0066 DFED547A 		vldr.32	s15, .L54
 390:HANcoder_E407_TTA_CombineModel.c ****     csumrev[i] = obj->pCumSumRev[i];
 577              		.loc 1 390 16 view .LVU180
 578 006a 2068     		ldr	r0, [r4]	@ unaligned
 579 006c C8F80000 		str	r0, [r8]
 580              	.LVL34:
 393:HANcoder_E407_TTA_CombineModel.c ****   z = 0.0F;
 581              		.loc 1 393 3 is_stmt 1 view .LVU181
 394:HANcoder_E407_TTA_CombineModel.c **** 
 582              		.loc 1 394 3 view .LVU182
 583              		.loc 1 397 3 view .LVU183
 398:HANcoder_E407_TTA_CombineModel.c **** 
 399:HANcoder_E407_TTA_CombineModel.c ****   /* MATLABSystem: '<S77>/Moving Average' */
 400:HANcoder_E407_TTA_CombineModel.c ****   csum += rtu_0;
 584              		.loc 1 400 8 is_stmt 0 view .LVU184
 585 0070 38EE277A 		vadd.f32	s14, s16, s15
 586 0074 F0EE676A 		vmov.f32	s13, s15
 397:HANcoder_E407_TTA_CombineModel.c **** 
 587              		.loc 1 397 27 view .LVU185
 588 0078 C7ED007A 		vstr.32	s15, [r7]
 589              		.loc 1 400 3 is_stmt 1 view .LVU186
 590              	.LVL35:
 401:HANcoder_E407_TTA_CombineModel.c ****   if (modValueRev == 0.0F) {
 591              		.loc 1 401 3 view .LVU187
 400:HANcoder_E407_TTA_CombineModel.c ****   if (modValueRev == 0.0F) {
 592              		.loc 1 400 8 is_stmt 0 view .LVU188
 593 007c 4FF00009 		mov	r9, #0
 594 0080 F7EE007A 		vmov.f32	s15, #1.0e+0
 595              	.LVL36:
 596              	.L32:
 402:HANcoder_E407_TTA_CombineModel.c ****     z = csumrev[(int32_T)cumRevIndex - 1] + csum;
 597              		.loc 1 402 5 is_stmt 1 view .LVU189
 598              		.loc 1 402 16 is_stmt 0 view .LVU190
 599 0084 0AAB     		add	r3, sp, #40
 600 0086 03EB8903 		add	r3, r3, r9, lsl #2
 601              		.loc 1 402 7 view .LVU191
 602 008a 13ED096A 		vldr.32	s12, [r3, #-36]
 603 008e 37EE066A 		vadd.f32	s12, s14, s12
 604              	.LVL37:
 605              		.loc 1 402 16 view .LVU192
 606 0092 4FEA8909 		lsl	r9, r9, #2
 607              	.LVL38:
 608              	.L34:
 403:HANcoder_E407_TTA_CombineModel.c ****   }
 404:HANcoder_E407_TTA_CombineModel.c **** 
 405:HANcoder_E407_TTA_CombineModel.c ****   csumrev[(int32_T)cumRevIndex - 1] = rtu_0;
 609              		.loc 1 405 3 is_stmt 1 view .LVU193
 406:HANcoder_E407_TTA_CombineModel.c ****   if (cumRevIndex != 9.0F) {
 610              		.loc 1 406 6 is_stmt 0 view .LVU194
 611 0096 F2EE025A 		vmov.f32	s11, #9.0e+0
 405:HANcoder_E407_TTA_CombineModel.c ****   if (cumRevIndex != 9.0F) {
 612              		.loc 1 405 37 view .LVU195
 613 009a 09F12803 		add	r3, r9, #40
 614              		.loc 1 406 6 view .LVU196
 615 009e F4EE657A 		vcmp.f32	s15, s11
 405:HANcoder_E407_TTA_CombineModel.c ****   if (cumRevIndex != 9.0F) {
 616              		.loc 1 405 37 view .LVU197
 617 00a2 0DEB0309 		add	r9, sp, r3
 618              		.loc 1 406 6 view .LVU198
 619 00a6 F1EE10FA 		vmrs	APSR_nzcv, FPSCR
 405:HANcoder_E407_TTA_CombineModel.c ****   if (cumRevIndex != 9.0F) {
 620              		.loc 1 405 37 view .LVU199
 621 00aa 09ED098A 		vstr.32	s16, [r9, #-36]
 622              		.loc 1 406 3 is_stmt 1 view .LVU200
 623              		.loc 1 406 6 is_stmt 0 view .LVU201
 624 00ae 71D0     		beq	.L35
 407:HANcoder_E407_TTA_CombineModel.c ****     cumRevIndex++;
 625              		.loc 1 407 5 is_stmt 1 view .LVU202
 626              		.loc 1 407 16 is_stmt 0 view .LVU203
 627 00b0 F7EE005A 		vmov.f32	s11, #1.0e+0
 628 00b4 77EEA57A 		vadd.f32	s15, s15, s11
 629              	.LVL39:
 630              		.loc 1 407 16 view .LVU204
 631 00b8 0DF12408 		add	r8, sp, #36
 632              	.LVL40:
 633              	.L36:
 408:HANcoder_E407_TTA_CombineModel.c ****   } else {
 409:HANcoder_E407_TTA_CombineModel.c ****     cumRevIndex = 1.0F;
 410:HANcoder_E407_TTA_CombineModel.c ****     csum = 0.0F;
 411:HANcoder_E407_TTA_CombineModel.c ****     for (i = 7; i >= 0; i--) {
 412:HANcoder_E407_TTA_CombineModel.c ****       csumrev[i] += csumrev[i + 1];
 413:HANcoder_E407_TTA_CombineModel.c ****     }
 414:HANcoder_E407_TTA_CombineModel.c ****   }
 415:HANcoder_E407_TTA_CombineModel.c **** 
 416:HANcoder_E407_TTA_CombineModel.c ****   if (modValueRev == 0.0F) {
 634              		.loc 1 416 3 is_stmt 1 view .LVU205
 635              		.loc 1 416 6 is_stmt 0 view .LVU206
 636 00bc F5EE406A 		vcmp.f32	s13, #0
 637 00c0 F1EE10FA 		vmrs	APSR_nzcv, FPSCR
 638 00c4 05D1     		bne	.L38
 417:HANcoder_E407_TTA_CombineModel.c ****     /* MATLABSystem: '<S77>/Moving Average' */
 418:HANcoder_E407_TTA_CombineModel.c ****     localB->MovingAverage_n = z / 10.0F;
 639              		.loc 1 418 5 is_stmt 1 view .LVU207
 640              		.loc 1 418 33 is_stmt 0 view .LVU208
 641 00c6 B2EE045A 		vmov.f32	s10, #1.0e+1
 642 00ca C6EE055A 		vdiv.f32	s11, s12, s10
 643              		.loc 1 418 29 view .LVU209
 644 00ce C7ED005A 		vstr.32	s11, [r7]
 645              	.L38:
 419:HANcoder_E407_TTA_CombineModel.c ****   }
 420:HANcoder_E407_TTA_CombineModel.c **** 
 421:HANcoder_E407_TTA_CombineModel.c ****   obj->pCumSum = csum;
 646              		.loc 1 421 3 is_stmt 1 view .LVU210
 647              		.loc 1 421 16 is_stmt 0 view .LVU211
 648 00d2 85ED027A 		vstr.32	s14, [r5, #8]
 422:HANcoder_E407_TTA_CombineModel.c ****   for (i = 0; i < 9; i++) {
 649              		.loc 1 422 3 is_stmt 1 view .LVU212
 650              	.LVL41:
 651              		.loc 1 422 15 view .LVU213
 423:HANcoder_E407_TTA_CombineModel.c ****     obj->pCumSumRev[i] = csumrev[i];
 652              		.loc 1 423 24 is_stmt 0 view .LVU214
 653 00d6 3446     		mov	r4, r6
 654              	.L39:
 655 00d8 A646     		mov	lr, r4
 656 00da BEE80F00 		ldmia	lr!, {r0, r1, r2, r3}
 657 00de C645     		cmp	lr, r8
 658 00e0 0CF1100C 		add	ip, ip, #16
 659 00e4 7446     		mov	r4, lr
 660 00e6 4CF8100C 		str	r0, [ip, #-16]	@ unaligned
 661 00ea 4CF80C1C 		str	r1, [ip, #-12]	@ unaligned
 662 00ee 4CF8082C 		str	r2, [ip, #-8]	@ unaligned
 663 00f2 4CF8043C 		str	r3, [ip, #-4]	@ unaligned
 664 00f6 EFD1     		bne	.L39
 424:HANcoder_E407_TTA_CombineModel.c ****   }
 425:HANcoder_E407_TTA_CombineModel.c **** 
 426:HANcoder_E407_TTA_CombineModel.c ****   obj->pCumRevIndex = cumRevIndex;
 427:HANcoder_E407_TTA_CombineModel.c ****   if (modValueRev > 0.0F) {
 665              		.loc 1 427 6 view .LVU215
 666 00f8 F5EEC06A 		vcmpe.f32	s13, #0
 423:HANcoder_E407_TTA_CombineModel.c ****     obj->pCumSumRev[i] = csumrev[i];
 667              		.loc 1 423 24 view .LVU216
 668 00fc DEF80000 		ldr	r0, [lr]
 669 0100 CCF80000 		str	r0, [ip]	@ unaligned
 670              	.LVL42:
 426:HANcoder_E407_TTA_CombineModel.c ****   if (modValueRev > 0.0F) {
 671              		.loc 1 426 3 is_stmt 1 view .LVU217
 672              		.loc 1 427 6 is_stmt 0 view .LVU218
 673 0104 F1EE10FA 		vmrs	APSR_nzcv, FPSCR
 426:HANcoder_E407_TTA_CombineModel.c ****   if (modValueRev > 0.0F) {
 674              		.loc 1 426 21 view .LVU219
 675 0108 C5ED0C7A 		vstr.32	s15, [r5, #48]
 676              		.loc 1 427 3 is_stmt 1 view .LVU220
 428:HANcoder_E407_TTA_CombineModel.c ****     obj->pModValueRev = modValueRev - 1.0F;
 677              		.loc 1 428 5 view .LVU221
 678              		.loc 1 428 37 is_stmt 0 view .LVU222
 679 010c C6BF     		itte	gt
 680 010e F7EE007A 		vmovgt.f32	s15, #1.0e+0
 681              	.LVL43:
 682              		.loc 1 428 37 view .LVU223
 683 0112 76EEE76A 		vsubgt.f32	s13, s13, s15
 429:HANcoder_E407_TTA_CombineModel.c ****   } else {
 430:HANcoder_E407_TTA_CombineModel.c ****     obj->pModValueRev = 0.0F;
 684              		.loc 1 430 23 view .LVU224
 685 0116 DFED286A 		vldrle.32	s13, .L54
 686 011a C5ED0D6A 		vstr.32	s13, [r5, #52]
 431:HANcoder_E407_TTA_CombineModel.c ****   }
 432:HANcoder_E407_TTA_CombineModel.c **** }
 687              		.loc 1 432 1 view .LVU225
 688 011e 0AB0     		add	sp, sp, #40
 689              		.cfi_remember_state
 690              		.cfi_def_cfa_offset 40
 691              		@ sp needed
 692 0120 BDEC028B 		vldm	sp!, {d8}
 693              		.cfi_restore 80
 694              		.cfi_restore 81
 695              		.cfi_def_cfa_offset 32
 696              	.LVL44:
 697              		.loc 1 432 1 view .LVU226
 698 0124 BDE8F087 		pop	{r4, r5, r6, r7, r8, r9, r10, pc}
 699              	.LVL45:
 700              	.L30:
 701              		.cfi_restore_state
 387:HANcoder_E407_TTA_CombineModel.c ****   csum = obj->pCumSum;
 702              		.loc 1 387 15 view .LVU227
 703 0128 D5ED0C7A 		vldr.32	s15, [r5, #48]
 393:HANcoder_E407_TTA_CombineModel.c ****   z = 0.0F;
 704              		.loc 1 393 15 view .LVU228
 705 012c D5ED0D6A 		vldr.32	s13, [r5, #52]
 402:HANcoder_E407_TTA_CombineModel.c ****   }
 706              		.loc 1 402 17 view .LVU229
 707 0130 BDEEE77A 		vcvt.s32.f32	s14, s15
 708 0134 05F10C0C 		add	ip, r5, #12
 709 0138 17EE109A 		vmov	r9, s14	@ int
 390:HANcoder_E407_TTA_CombineModel.c ****   }
 710              		.loc 1 390 16 view .LVU230
 711 013c 01AE     		add	r6, sp, #4
 388:HANcoder_E407_TTA_CombineModel.c ****   for (i = 0; i < 9; i++) {
 712              		.loc 1 388 8 view .LVU231
 713 013e 95ED027A 		vldr.32	s14, [r5, #8]
 402:HANcoder_E407_TTA_CombineModel.c ****   }
 714              		.loc 1 402 38 view .LVU232
 715 0142 09F1FF39 		add	r9, r9, #-1
 387:HANcoder_E407_TTA_CombineModel.c ****   csum = obj->pCumSum;
 716              		.loc 1 387 3 is_stmt 1 view .LVU233
 717              	.LVL46:
 388:HANcoder_E407_TTA_CombineModel.c ****   for (i = 0; i < 9; i++) {
 718              		.loc 1 388 3 view .LVU234
 389:HANcoder_E407_TTA_CombineModel.c ****     csumrev[i] = obj->pCumSumRev[i];
 719              		.loc 1 389 3 view .LVU235
 389:HANcoder_E407_TTA_CombineModel.c ****     csumrev[i] = obj->pCumSumRev[i];
 720              		.loc 1 389 15 view .LVU236
 390:HANcoder_E407_TTA_CombineModel.c ****   }
 721              		.loc 1 390 16 is_stmt 0 view .LVU237
 722 0146 E646     		mov	lr, ip
 723 0148 B046     		mov	r8, r6
 724 014a 05F12C0A 		add	r10, r5, #44
 725              	.LVL47:
 726              	.L33:
 390:HANcoder_E407_TTA_CombineModel.c ****   }
 727              		.loc 1 390 16 view .LVU238
 728 014e DEF80000 		ldr	r0, [lr]	@ unaligned
 729 0152 DEF80410 		ldr	r1, [lr, #4]	@ unaligned
 730 0156 DEF80820 		ldr	r2, [lr, #8]	@ unaligned
 731 015a DEF80C30 		ldr	r3, [lr, #12]	@ unaligned
 732 015e 0EF1100E 		add	lr, lr, #16
 733 0162 4446     		mov	r4, r8
 734 0164 D645     		cmp	lr, r10
 735 0166 0FC4     		stmia	r4!, {r0, r1, r2, r3}
 736 0168 08F11008 		add	r8, r8, #16
 737 016c EFD1     		bne	.L33
 397:HANcoder_E407_TTA_CombineModel.c **** 
 738              		.loc 1 397 27 view .LVU239
 739 016e 9FED126A 		vldr.32	s12, .L54
 390:HANcoder_E407_TTA_CombineModel.c ****   }
 740              		.loc 1 390 16 view .LVU240
 741 0172 DEF80000 		ldr	r0, [lr]	@ unaligned
 742 0176 C8F80000 		str	r0, [r8]
 743              	.LVL48:
 393:HANcoder_E407_TTA_CombineModel.c ****   z = 0.0F;
 744              		.loc 1 393 3 is_stmt 1 view .LVU241
 394:HANcoder_E407_TTA_CombineModel.c **** 
 745              		.loc 1 394 3 view .LVU242
 397:HANcoder_E407_TTA_CombineModel.c **** 
 746              		.loc 1 397 3 view .LVU243
 401:HANcoder_E407_TTA_CombineModel.c ****     z = csumrev[(int32_T)cumRevIndex - 1] + csum;
 747              		.loc 1 401 6 is_stmt 0 view .LVU244
 748 017a F4EE466A 		vcmp.f32	s13, s12
 749 017e F1EE10FA 		vmrs	APSR_nzcv, FPSCR
 400:HANcoder_E407_TTA_CombineModel.c ****   if (modValueRev == 0.0F) {
 750              		.loc 1 400 8 view .LVU245
 751 0182 37EE087A 		vadd.f32	s14, s14, s16
 752              	.LVL49:
 397:HANcoder_E407_TTA_CombineModel.c **** 
 753              		.loc 1 397 27 view .LVU246
 754 0186 87ED006A 		vstr.32	s12, [r7]
 400:HANcoder_E407_TTA_CombineModel.c ****   if (modValueRev == 0.0F) {
 755              		.loc 1 400 3 is_stmt 1 view .LVU247
 756              	.LVL50:
 401:HANcoder_E407_TTA_CombineModel.c ****     z = csumrev[(int32_T)cumRevIndex - 1] + csum;
 757              		.loc 1 401 3 view .LVU248
 401:HANcoder_E407_TTA_CombineModel.c ****     z = csumrev[(int32_T)cumRevIndex - 1] + csum;
 758              		.loc 1 401 6 is_stmt 0 view .LVU249
 759 018a 3FF47BAF 		beq	.L32
 760 018e 4FEA8909 		lsl	r9, r9, #2
 761 0192 80E7     		b	.L34
 762              	.LVL51:
 763              	.L35:
 401:HANcoder_E407_TTA_CombineModel.c ****     z = csumrev[(int32_T)cumRevIndex - 1] + csum;
 764              		.loc 1 401 6 view .LVU250
 765 0194 0DF12408 		add	r8, sp, #36
 766 0198 4346     		mov	r3, r8
 767              	.LVL52:
 768              	.L37:
 412:HANcoder_E407_TTA_CombineModel.c ****     }
 769              		.loc 1 412 7 is_stmt 1 discriminator 3 view .LVU251
 412:HANcoder_E407_TTA_CombineModel.c ****     }
 770              		.loc 1 412 18 is_stmt 0 discriminator 3 view .LVU252
 771 019a 73ED017A 		vldmdb.32	r3!, {s15}
 772 019e 93ED017A 		vldr.32	s14, [r3, #4]
 773 01a2 77EE877A 		vadd.f32	s15, s15, s14
 411:HANcoder_E407_TTA_CombineModel.c ****       csumrev[i] += csumrev[i + 1];
 774              		.loc 1 411 5 discriminator 3 view .LVU253
 775 01a6 9E42     		cmp	r6, r3
 412:HANcoder_E407_TTA_CombineModel.c ****     }
 776              		.loc 1 412 18 discriminator 3 view .LVU254
 777 01a8 C3ED007A 		vstr.32	s15, [r3]
 411:HANcoder_E407_TTA_CombineModel.c ****       csumrev[i] += csumrev[i + 1];
 778              		.loc 1 411 25 is_stmt 1 discriminator 3 view .LVU255
 411:HANcoder_E407_TTA_CombineModel.c ****       csumrev[i] += csumrev[i + 1];
 779              		.loc 1 411 17 discriminator 3 view .LVU256
 411:HANcoder_E407_TTA_CombineModel.c ****       csumrev[i] += csumrev[i + 1];
 780              		.loc 1 411 5 is_stmt 0 discriminator 3 view .LVU257
 781 01ac F5D1     		bne	.L37
 410:HANcoder_E407_TTA_CombineModel.c ****     for (i = 7; i >= 0; i--) {
 782              		.loc 1 410 10 view .LVU258
 783 01ae 9FED027A 		vldr.32	s14, .L54
 409:HANcoder_E407_TTA_CombineModel.c ****     csum = 0.0F;
 784              		.loc 1 409 17 view .LVU259
 785 01b2 F7EE007A 		vmov.f32	s15, #1.0e+0
 786 01b6 81E7     		b	.L36
 787              	.L55:
 788              		.align	2
 789              	.L54:
 790 01b8 00000000 		.word	0
 791              		.cfi_endproc
 792              	.LFE119:
 794              		.section	.text.EnabledSubsystem,"ax",%progbits
 795              		.align	1
 796              		.p2align 2,,3
 797              		.global	EnabledSubsystem
 798              		.syntax unified
 799              		.thumb
 800              		.thumb_func
 802              	EnabledSubsystem:
 803              	.LVL53:
 804              	.LFB120:
 433:HANcoder_E407_TTA_CombineModel.c **** 
 434:HANcoder_E407_TTA_CombineModel.c **** /*
 435:HANcoder_E407_TTA_CombineModel.c ****  * Output and update for enable system:
 436:HANcoder_E407_TTA_CombineModel.c ****  *    '<S118>/Enabled Subsystem'
 437:HANcoder_E407_TTA_CombineModel.c ****  *    '<S121>/Enabled Subsystem'
 438:HANcoder_E407_TTA_CombineModel.c ****  *    '<S124>/Enabled Subsystem'
 439:HANcoder_E407_TTA_CombineModel.c ****  *    '<S130>/Enabled Subsystem'
 440:HANcoder_E407_TTA_CombineModel.c ****  *    '<S199>/Enabled Subsystem'
 441:HANcoder_E407_TTA_CombineModel.c ****  *    '<S246>/Enabled Subsystem'
 442:HANcoder_E407_TTA_CombineModel.c ****  *    '<S365>/Enabled Subsystem'
 443:HANcoder_E407_TTA_CombineModel.c ****  */
 444:HANcoder_E407_TTA_CombineModel.c **** void EnabledSubsystem(int8_T rtu_Enable, uint8_T rtu_In1, uint8_T rtu_In2,
 445:HANcoder_E407_TTA_CombineModel.c ****                       uint8_T rtu_In3, uint8_T rtu_In4, uint8_T rtu_In5, uint8_T
 446:HANcoder_E407_TTA_CombineModel.c ****                       rtu_In6, uint8_T rtu_In7, uint8_T rtu_In8,
 447:HANcoder_E407_TTA_CombineModel.c ****                       rtB_EnabledSubsystem *localB)
 448:HANcoder_E407_TTA_CombineModel.c **** {
 805              		.loc 1 448 1 is_stmt 1 view -0
 806              		.cfi_startproc
 807              		@ args = 24, pretend = 0, frame = 0
 808              		@ frame_needed = 0, uses_anonymous_args = 0
 449:HANcoder_E407_TTA_CombineModel.c ****   uint8_T rtb_In5_nc;
 809              		.loc 1 449 3 view .LVU261
 450:HANcoder_E407_TTA_CombineModel.c ****   uint8_T rtb_In6;
 810              		.loc 1 450 3 view .LVU262
 451:HANcoder_E407_TTA_CombineModel.c ****   uint8_T rtb_In8_m;
 811              		.loc 1 451 3 view .LVU263
 452:HANcoder_E407_TTA_CombineModel.c **** 
 453:HANcoder_E407_TTA_CombineModel.c ****   /* Outputs for Enabled SubSystem: '<S118>/Enabled Subsystem' incorporates:
 454:HANcoder_E407_TTA_CombineModel.c ****    *  EnablePort: '<S119>/Enable'
 455:HANcoder_E407_TTA_CombineModel.c ****    */
 456:HANcoder_E407_TTA_CombineModel.c ****   if (rtu_Enable > 0) {
 812              		.loc 1 456 3 view .LVU264
 448:HANcoder_E407_TTA_CombineModel.c ****   uint8_T rtb_In5_nc;
 813              		.loc 1 448 1 is_stmt 0 view .LVU265
 814 0000 10B5     		push	{r4, lr}
 815              		.cfi_def_cfa_offset 8
 816              		.cfi_offset 4, -8
 817              		.cfi_offset 14, -4
 818              		.loc 1 456 6 view .LVU266
 819 0002 0028     		cmp	r0, #0
 448:HANcoder_E407_TTA_CombineModel.c ****   uint8_T rtb_In5_nc;
 820              		.loc 1 448 1 view .LVU267
 821 0004 9DF808E0 		ldrb	lr, [sp, #8]	@ zero_extendqisi2
 822 0008 9DF814C0 		ldrb	ip, [sp, #20]	@ zero_extendqisi2
 823 000c 079C     		ldr	r4, [sp, #28]
 824              		.loc 1 456 6 view .LVU268
 825 000e 06DD     		ble	.L56
 457:HANcoder_E407_TTA_CombineModel.c ****     /* SignalConversion generated from: '<S119>/In1' */
 458:HANcoder_E407_TTA_CombineModel.c ****     localB->In1 = rtu_In1;
 826              		.loc 1 458 5 is_stmt 1 view .LVU269
 827              		.loc 1 458 17 is_stmt 0 view .LVU270
 828 0010 2170     		strb	r1, [r4]
 459:HANcoder_E407_TTA_CombineModel.c **** 
 460:HANcoder_E407_TTA_CombineModel.c ****     /* SignalConversion generated from: '<S119>/In2' */
 461:HANcoder_E407_TTA_CombineModel.c ****     localB->In2 = rtu_In2;
 829              		.loc 1 461 5 is_stmt 1 view .LVU271
 830              		.loc 1 461 17 is_stmt 0 view .LVU272
 831 0012 6270     		strb	r2, [r4, #1]
 462:HANcoder_E407_TTA_CombineModel.c **** 
 463:HANcoder_E407_TTA_CombineModel.c ****     /* SignalConversion generated from: '<S119>/In3' */
 464:HANcoder_E407_TTA_CombineModel.c ****     localB->In3 = rtu_In3;
 832              		.loc 1 464 5 is_stmt 1 view .LVU273
 833              		.loc 1 464 17 is_stmt 0 view .LVU274
 834 0014 A370     		strb	r3, [r4, #2]
 465:HANcoder_E407_TTA_CombineModel.c **** 
 466:HANcoder_E407_TTA_CombineModel.c ****     /* SignalConversion generated from: '<S119>/In4' */
 467:HANcoder_E407_TTA_CombineModel.c ****     localB->In4 = rtu_In4;
 835              		.loc 1 467 5 is_stmt 1 view .LVU275
 836              		.loc 1 467 17 is_stmt 0 view .LVU276
 837 0016 84F803E0 		strb	lr, [r4, #3]
 468:HANcoder_E407_TTA_CombineModel.c **** 
 469:HANcoder_E407_TTA_CombineModel.c ****     /* SignalConversion generated from: '<S119>/In5' */
 470:HANcoder_E407_TTA_CombineModel.c ****     rtb_In5_nc = rtu_In5;
 838              		.loc 1 470 5 is_stmt 1 view .LVU277
 839              	.LVL54:
 471:HANcoder_E407_TTA_CombineModel.c **** 
 472:HANcoder_E407_TTA_CombineModel.c ****     /* SignalConversion generated from: '<S119>/In6' */
 473:HANcoder_E407_TTA_CombineModel.c ****     rtb_In6 = rtu_In6;
 840              		.loc 1 473 5 view .LVU278
 474:HANcoder_E407_TTA_CombineModel.c **** 
 475:HANcoder_E407_TTA_CombineModel.c ****     /* SignalConversion generated from: '<S119>/In7' */
 476:HANcoder_E407_TTA_CombineModel.c ****     localB->In7 = rtu_In7;
 841              		.loc 1 476 5 view .LVU279
 842              		.loc 1 476 17 is_stmt 0 view .LVU280
 843 001a 84F804C0 		strb	ip, [r4, #4]
 477:HANcoder_E407_TTA_CombineModel.c **** 
 478:HANcoder_E407_TTA_CombineModel.c ****     /* SignalConversion generated from: '<S119>/In8' */
 479:HANcoder_E407_TTA_CombineModel.c ****     rtb_In8_m = rtu_In8;
 844              		.loc 1 479 5 is_stmt 1 view .LVU281
 845              	.LVL55:
 846              	.L56:
 480:HANcoder_E407_TTA_CombineModel.c ****   }
 481:HANcoder_E407_TTA_CombineModel.c **** 
 482:HANcoder_E407_TTA_CombineModel.c ****   /* End of Outputs for SubSystem: '<S118>/Enabled Subsystem' */
 483:HANcoder_E407_TTA_CombineModel.c **** }
 847              		.loc 1 483 1 is_stmt 0 view .LVU282
 848 001e 10BD     		pop	{r4, pc}
 849              		.loc 1 483 1 view .LVU283
 850              		.cfi_endproc
 851              	.LFE120:
 853              		.section	.text.MMBS1_TX,"ax",%progbits
 854              		.align	1
 855              		.p2align 2,,3
 856              		.global	MMBS1_TX
 857              		.syntax unified
 858              		.thumb
 859              		.thumb_func
 861              	MMBS1_TX:
 862              	.LVL56:
 863              	.LFB121:
 484:HANcoder_E407_TTA_CombineModel.c **** 
 485:HANcoder_E407_TTA_CombineModel.c **** /*
 486:HANcoder_E407_TTA_CombineModel.c ****  * Output and update for trigger system:
 487:HANcoder_E407_TTA_CombineModel.c ****  *    '<S10>/MMBS1_TX'
 488:HANcoder_E407_TTA_CombineModel.c ****  *    '<S10>/SSTM1_TX'
 489:HANcoder_E407_TTA_CombineModel.c ****  */
 490:HANcoder_E407_TTA_CombineModel.c **** void MMBS1_TX(boolean_T rtu_Trigger, uint32_T rtu_In1, rtZCE_MMBS1_TX *localZCE)
 491:HANcoder_E407_TTA_CombineModel.c **** {
 864              		.loc 1 491 1 is_stmt 1 view -0
 865              		.cfi_startproc
 866              		@ args = 0, pretend = 0, frame = 0
 867              		@ frame_needed = 0, uses_anonymous_args = 0
 492:HANcoder_E407_TTA_CombineModel.c ****   /* Outputs for Triggered SubSystem: '<S10>/MMBS1_TX' incorporates:
 493:HANcoder_E407_TTA_CombineModel.c ****    *  TriggerPort: '<S103>/Trigger'
 494:HANcoder_E407_TTA_CombineModel.c ****    */
 495:HANcoder_E407_TTA_CombineModel.c ****   if (rtu_Trigger && (localZCE->MMBS1_TX_Trig_ZCE != POS_ZCSIG)) {
 868              		.loc 1 495 3 view .LVU285
 491:HANcoder_E407_TTA_CombineModel.c ****   /* Outputs for Triggered SubSystem: '<S10>/MMBS1_TX' incorporates:
 869              		.loc 1 491 1 is_stmt 0 view .LVU286
 870 0000 38B5     		push	{r3, r4, r5, lr}
 871              		.cfi_def_cfa_offset 16
 872              		.cfi_offset 3, -16
 873              		.cfi_offset 4, -12
 874              		.cfi_offset 5, -8
 875              		.cfi_offset 14, -4
 491:HANcoder_E407_TTA_CombineModel.c ****   /* Outputs for Triggered SubSystem: '<S10>/MMBS1_TX' incorporates:
 876              		.loc 1 491 1 view .LVU287
 877 0002 1546     		mov	r5, r2
 878              		.loc 1 495 6 view .LVU288
 879 0004 0446     		mov	r4, r0
 880 0006 10B1     		cbz	r0, .L60
 881              		.loc 1 495 19 discriminator 1 view .LVU289
 882 0008 1378     		ldrb	r3, [r2]	@ zero_extendqisi2
 883 000a 012B     		cmp	r3, #1
 884 000c 01D1     		bne	.L68
 885              	.L60:
 496:HANcoder_E407_TTA_CombineModel.c ****     /* Update for M-S-Function: '<S120>/S-Function' */
 497:HANcoder_E407_TTA_CombineModel.c ****     {
 498:HANcoder_E407_TTA_CombineModel.c ****       /* prepare the data */
 499:HANcoder_E407_TTA_CombineModel.c ****       canTxData.uint8_T_info[0] = 0U;
 500:HANcoder_E407_TTA_CombineModel.c **** 
 501:HANcoder_E407_TTA_CombineModel.c ****       /* send the data */
 502:HANcoder_E407_TTA_CombineModel.c ****       CanTransmit(0, rtu_In1, 1, &canTxData.uint8_T_info[0]);
 503:HANcoder_E407_TTA_CombineModel.c ****     }
 504:HANcoder_E407_TTA_CombineModel.c ****   }
 505:HANcoder_E407_TTA_CombineModel.c **** 
 506:HANcoder_E407_TTA_CombineModel.c ****   localZCE->MMBS1_TX_Trig_ZCE = rtu_Trigger;
 886              		.loc 1 506 3 is_stmt 1 view .LVU290
 887              		.loc 1 506 31 is_stmt 0 view .LVU291
 888 000e 2C70     		strb	r4, [r5]
 507:HANcoder_E407_TTA_CombineModel.c **** 
 508:HANcoder_E407_TTA_CombineModel.c ****   /* End of Outputs for SubSystem: '<S10>/MMBS1_TX' */
 509:HANcoder_E407_TTA_CombineModel.c **** }
 889              		.loc 1 509 1 view .LVU292
 890 0010 38BD     		pop	{r3, r4, r5, pc}
 891              	.L68:
 499:HANcoder_E407_TTA_CombineModel.c **** 
 892              		.loc 1 499 7 is_stmt 1 view .LVU293
 499:HANcoder_E407_TTA_CombineModel.c **** 
 893              		.loc 1 499 33 is_stmt 0 view .LVU294
 894 0012 044B     		ldr	r3, .L69
 895 0014 0020     		movs	r0, #0
 896              	.LVL57:
 499:HANcoder_E407_TTA_CombineModel.c **** 
 897              		.loc 1 499 33 view .LVU295
 898 0016 1870     		strb	r0, [r3]
 502:HANcoder_E407_TTA_CombineModel.c ****     }
 899              		.loc 1 502 7 is_stmt 1 view .LVU296
 900 0018 0122     		movs	r2, #1
 901              	.LVL58:
 502:HANcoder_E407_TTA_CombineModel.c ****     }
 902              		.loc 1 502 7 is_stmt 0 view .LVU297
 903 001a FFF7FEFF 		bl	CanTransmit
 904              	.LVL59:
 506:HANcoder_E407_TTA_CombineModel.c **** 
 905              		.loc 1 506 3 is_stmt 1 view .LVU298
 506:HANcoder_E407_TTA_CombineModel.c **** 
 906              		.loc 1 506 31 is_stmt 0 view .LVU299
 907 001e 2C70     		strb	r4, [r5]
 908              		.loc 1 509 1 view .LVU300
 909 0020 38BD     		pop	{r3, r4, r5, pc}
 910              	.LVL60:
 911              	.L70:
 912              		.loc 1 509 1 view .LVU301
 913 0022 00BF     		.align	2
 914              	.L69:
 915 0024 00000000 		.word	.LANCHOR8
 916              		.cfi_endproc
 917              	.LFE121:
 919              		.section	.text.BitShift,"ax",%progbits
 920              		.align	1
 921              		.p2align 2,,3
 922              		.global	BitShift
 923              		.syntax unified
 924              		.thumb
 925              		.thumb_func
 927              	BitShift:
 928              	.LVL61:
 929              	.LFB122:
 510:HANcoder_E407_TTA_CombineModel.c **** 
 511:HANcoder_E407_TTA_CombineModel.c **** /*
 512:HANcoder_E407_TTA_CombineModel.c ****  * Output and update for atomic system:
 513:HANcoder_E407_TTA_CombineModel.c ****  *    '<S128>/Bit Shift'
 514:HANcoder_E407_TTA_CombineModel.c ****  *    '<S129>/Bit Shift'
 515:HANcoder_E407_TTA_CombineModel.c ****  *    '<S197>/Bit Shift'
 516:HANcoder_E407_TTA_CombineModel.c ****  *    '<S198>/Bit Shift'
 517:HANcoder_E407_TTA_CombineModel.c ****  *    '<S244>/Bit Shift'
 518:HANcoder_E407_TTA_CombineModel.c ****  *    '<S245>/Bit Shift'
 519:HANcoder_E407_TTA_CombineModel.c ****  *    '<S269>/Bit Shift'
 520:HANcoder_E407_TTA_CombineModel.c ****  *    '<S270>/Bit Shift'
 521:HANcoder_E407_TTA_CombineModel.c ****  *    '<S316>/Bit Shift'
 522:HANcoder_E407_TTA_CombineModel.c ****  *    '<S317>/Bit Shift'
 523:HANcoder_E407_TTA_CombineModel.c ****  */
 524:HANcoder_E407_TTA_CombineModel.c **** void BitShift(uint16_T rtu_u, rtB_BitShift *localB)
 525:HANcoder_E407_TTA_CombineModel.c **** {
 930              		.loc 1 525 1 is_stmt 1 view -0
 931              		.cfi_startproc
 932              		@ args = 0, pretend = 0, frame = 0
 933              		@ frame_needed = 0, uses_anonymous_args = 0
 934              		@ link register save eliminated.
 526:HANcoder_E407_TTA_CombineModel.c ****   /* MATLAB Function: '<S132>/bit_shift' */
 527:HANcoder_E407_TTA_CombineModel.c ****   /* MATLAB Function 'Logic and Bit Operations/Bit Shift/bit_shift': '<S133>:1' */
 528:HANcoder_E407_TTA_CombineModel.c ****   /* '<S133>:1:6' */
 529:HANcoder_E407_TTA_CombineModel.c ****   localB->y = (uint16_T)(rtu_u << 8);
 935              		.loc 1 529 3 view .LVU303
 936              		.loc 1 529 15 is_stmt 0 view .LVU304
 937 0000 0002     		lsls	r0, r0, #8
 938              	.LVL62:
 939              		.loc 1 529 13 view .LVU305
 940 0002 0880     		strh	r0, [r1]	@ movhi
 530:HANcoder_E407_TTA_CombineModel.c **** }
 941              		.loc 1 530 1 view .LVU306
 942 0004 7047     		bx	lr
 943              		.cfi_endproc
 944              	.LFE122:
 946 0006 00BF     		.section	.text.BitShift_g,"ax",%progbits
 947              		.align	1
 948              		.p2align 2,,3
 949              		.global	BitShift_g
 950              		.syntax unified
 951              		.thumb
 952              		.thumb_func
 954              	BitShift_g:
 955              	.LVL63:
 956              	.LFB123:
 531:HANcoder_E407_TTA_CombineModel.c **** 
 532:HANcoder_E407_TTA_CombineModel.c **** /*
 533:HANcoder_E407_TTA_CombineModel.c ****  * Output and update for atomic system:
 534:HANcoder_E407_TTA_CombineModel.c ****  *    '<S131>/Bit Shift'
 535:HANcoder_E407_TTA_CombineModel.c ****  *    '<S131>/Bit Shift7'
 536:HANcoder_E407_TTA_CombineModel.c ****  *    '<S200>/Bit Shift'
 537:HANcoder_E407_TTA_CombineModel.c ****  *    '<S200>/Bit Shift7'
 538:HANcoder_E407_TTA_CombineModel.c ****  *    '<S247>/Bit Shift'
 539:HANcoder_E407_TTA_CombineModel.c ****  *    '<S247>/Bit Shift7'
 540:HANcoder_E407_TTA_CombineModel.c ****  *    '<S272>/Bit Shift'
 541:HANcoder_E407_TTA_CombineModel.c ****  *    '<S272>/Bit Shift7'
 542:HANcoder_E407_TTA_CombineModel.c ****  *    '<S319>/Bit Shift'
 543:HANcoder_E407_TTA_CombineModel.c ****  *    '<S319>/Bit Shift7'
 544:HANcoder_E407_TTA_CombineModel.c ****  */
 545:HANcoder_E407_TTA_CombineModel.c **** void BitShift_g(uint8_T rtu_u, rtB_BitShift_l *localB)
 546:HANcoder_E407_TTA_CombineModel.c **** {
 957              		.loc 1 546 1 is_stmt 1 view -0
 958              		.cfi_startproc
 959              		@ args = 0, pretend = 0, frame = 0
 960              		@ frame_needed = 0, uses_anonymous_args = 0
 961              		@ link register save eliminated.
 547:HANcoder_E407_TTA_CombineModel.c ****   /* MATLAB Function: '<S137>/bit_shift' */
 548:HANcoder_E407_TTA_CombineModel.c ****   /* MATLAB Function 'Logic and Bit Operations/Bit Shift/bit_shift': '<S145>:1' */
 549:HANcoder_E407_TTA_CombineModel.c ****   /* '<S145>:1:8' */
 550:HANcoder_E407_TTA_CombineModel.c ****   localB->y = (uint8_T)((uint32_T)rtu_u >> 1);
 962              		.loc 1 550 3 view .LVU308
 963              		.loc 1 550 15 is_stmt 0 view .LVU309
 964 0000 4008     		lsrs	r0, r0, #1
 965              	.LVL64:
 966              		.loc 1 550 13 view .LVU310
 967 0002 0870     		strb	r0, [r1]
 551:HANcoder_E407_TTA_CombineModel.c **** }
 968              		.loc 1 551 1 view .LVU311
 969 0004 7047     		bx	lr
 970              		.cfi_endproc
 971              	.LFE123:
 973 0006 00BF     		.section	.text.BitShift1,"ax",%progbits
 974              		.align	1
 975              		.p2align 2,,3
 976              		.global	BitShift1
 977              		.syntax unified
 978              		.thumb
 979              		.thumb_func
 981              	BitShift1:
 982              	.LVL65:
 983              	.LFB124:
 552:HANcoder_E407_TTA_CombineModel.c **** 
 553:HANcoder_E407_TTA_CombineModel.c **** /*
 554:HANcoder_E407_TTA_CombineModel.c ****  * Output and update for atomic system:
 555:HANcoder_E407_TTA_CombineModel.c ****  *    '<S131>/Bit Shift1'
 556:HANcoder_E407_TTA_CombineModel.c ****  *    '<S200>/Bit Shift1'
 557:HANcoder_E407_TTA_CombineModel.c ****  *    '<S247>/Bit Shift1'
 558:HANcoder_E407_TTA_CombineModel.c ****  *    '<S272>/Bit Shift1'
 559:HANcoder_E407_TTA_CombineModel.c ****  *    '<S319>/Bit Shift1'
 560:HANcoder_E407_TTA_CombineModel.c ****  */
 561:HANcoder_E407_TTA_CombineModel.c **** void BitShift1(uint8_T rtu_u, rtB_BitShift1 *localB)
 562:HANcoder_E407_TTA_CombineModel.c **** {
 984              		.loc 1 562 1 is_stmt 1 view -0
 985              		.cfi_startproc
 986              		@ args = 0, pretend = 0, frame = 0
 987              		@ frame_needed = 0, uses_anonymous_args = 0
 988              		@ link register save eliminated.
 563:HANcoder_E407_TTA_CombineModel.c ****   /* MATLAB Function: '<S138>/bit_shift' */
 564:HANcoder_E407_TTA_CombineModel.c ****   /* MATLAB Function 'Logic and Bit Operations/Bit Shift/bit_shift': '<S146>:1' */
 565:HANcoder_E407_TTA_CombineModel.c ****   /* '<S146>:1:8' */
 566:HANcoder_E407_TTA_CombineModel.c ****   localB->y = (uint8_T)((uint32_T)rtu_u >> 2);
 989              		.loc 1 566 3 view .LVU313
 990              		.loc 1 566 15 is_stmt 0 view .LVU314
 991 0000 8008     		lsrs	r0, r0, #2
 992              	.LVL66:
 993              		.loc 1 566 13 view .LVU315
 994 0002 0870     		strb	r0, [r1]
 567:HANcoder_E407_TTA_CombineModel.c **** }
 995              		.loc 1 567 1 view .LVU316
 996 0004 7047     		bx	lr
 997              		.cfi_endproc
 998              	.LFE124:
 1000 0006 00BF     		.section	.text.BitShift2,"ax",%progbits
 1001              		.align	1
 1002              		.p2align 2,,3
 1003              		.global	BitShift2
 1004              		.syntax unified
 1005              		.thumb
 1006              		.thumb_func
 1008              	BitShift2:
 1009              	.LVL67:
 1010              	.LFB125:
 568:HANcoder_E407_TTA_CombineModel.c **** 
 569:HANcoder_E407_TTA_CombineModel.c **** /*
 570:HANcoder_E407_TTA_CombineModel.c ****  * Output and update for atomic system:
 571:HANcoder_E407_TTA_CombineModel.c ****  *    '<S131>/Bit Shift2'
 572:HANcoder_E407_TTA_CombineModel.c ****  *    '<S200>/Bit Shift2'
 573:HANcoder_E407_TTA_CombineModel.c ****  *    '<S247>/Bit Shift2'
 574:HANcoder_E407_TTA_CombineModel.c ****  *    '<S272>/Bit Shift2'
 575:HANcoder_E407_TTA_CombineModel.c ****  *    '<S319>/Bit Shift2'
 576:HANcoder_E407_TTA_CombineModel.c ****  */
 577:HANcoder_E407_TTA_CombineModel.c **** void BitShift2(uint8_T rtu_u, rtB_BitShift2 *localB)
 578:HANcoder_E407_TTA_CombineModel.c **** {
 1011              		.loc 1 578 1 is_stmt 1 view -0
 1012              		.cfi_startproc
 1013              		@ args = 0, pretend = 0, frame = 0
 1014              		@ frame_needed = 0, uses_anonymous_args = 0
 1015              		@ link register save eliminated.
 579:HANcoder_E407_TTA_CombineModel.c ****   /* MATLAB Function: '<S139>/bit_shift' */
 580:HANcoder_E407_TTA_CombineModel.c ****   /* MATLAB Function 'Logic and Bit Operations/Bit Shift/bit_shift': '<S147>:1' */
 581:HANcoder_E407_TTA_CombineModel.c ****   /* '<S147>:1:8' */
 582:HANcoder_E407_TTA_CombineModel.c ****   localB->y = (uint8_T)((uint32_T)rtu_u >> 3);
 1016              		.loc 1 582 3 view .LVU318
 1017              		.loc 1 582 15 is_stmt 0 view .LVU319
 1018 0000 C008     		lsrs	r0, r0, #3
 1019              	.LVL68:
 1020              		.loc 1 582 13 view .LVU320
 1021 0002 0870     		strb	r0, [r1]
 583:HANcoder_E407_TTA_CombineModel.c **** }
 1022              		.loc 1 583 1 view .LVU321
 1023 0004 7047     		bx	lr
 1024              		.cfi_endproc
 1025              	.LFE125:
 1027 0006 00BF     		.section	.text.BitShift3,"ax",%progbits
 1028              		.align	1
 1029              		.p2align 2,,3
 1030              		.global	BitShift3
 1031              		.syntax unified
 1032              		.thumb
 1033              		.thumb_func
 1035              	BitShift3:
 1036              	.LVL69:
 1037              	.LFB126:
 584:HANcoder_E407_TTA_CombineModel.c **** 
 585:HANcoder_E407_TTA_CombineModel.c **** /*
 586:HANcoder_E407_TTA_CombineModel.c ****  * Output and update for atomic system:
 587:HANcoder_E407_TTA_CombineModel.c ****  *    '<S131>/Bit Shift3'
 588:HANcoder_E407_TTA_CombineModel.c ****  *    '<S200>/Bit Shift3'
 589:HANcoder_E407_TTA_CombineModel.c ****  *    '<S247>/Bit Shift3'
 590:HANcoder_E407_TTA_CombineModel.c ****  *    '<S272>/Bit Shift3'
 591:HANcoder_E407_TTA_CombineModel.c ****  *    '<S319>/Bit Shift3'
 592:HANcoder_E407_TTA_CombineModel.c ****  */
 593:HANcoder_E407_TTA_CombineModel.c **** void BitShift3(uint8_T rtu_u, rtB_BitShift3 *localB)
 594:HANcoder_E407_TTA_CombineModel.c **** {
 1038              		.loc 1 594 1 is_stmt 1 view -0
 1039              		.cfi_startproc
 1040              		@ args = 0, pretend = 0, frame = 0
 1041              		@ frame_needed = 0, uses_anonymous_args = 0
 1042              		@ link register save eliminated.
 595:HANcoder_E407_TTA_CombineModel.c ****   /* MATLAB Function: '<S140>/bit_shift' */
 596:HANcoder_E407_TTA_CombineModel.c ****   /* MATLAB Function 'Logic and Bit Operations/Bit Shift/bit_shift': '<S148>:1' */
 597:HANcoder_E407_TTA_CombineModel.c ****   /* '<S148>:1:8' */
 598:HANcoder_E407_TTA_CombineModel.c ****   localB->y = (uint8_T)((uint32_T)rtu_u >> 4);
 1043              		.loc 1 598 3 view .LVU323
 1044              		.loc 1 598 15 is_stmt 0 view .LVU324
 1045 0000 0009     		lsrs	r0, r0, #4
 1046              	.LVL70:
 1047              		.loc 1 598 13 view .LVU325
 1048 0002 0870     		strb	r0, [r1]
 599:HANcoder_E407_TTA_CombineModel.c **** }
 1049              		.loc 1 599 1 view .LVU326
 1050 0004 7047     		bx	lr
 1051              		.cfi_endproc
 1052              	.LFE126:
 1054 0006 00BF     		.section	.text.BitShift4,"ax",%progbits
 1055              		.align	1
 1056              		.p2align 2,,3
 1057              		.global	BitShift4
 1058              		.syntax unified
 1059              		.thumb
 1060              		.thumb_func
 1062              	BitShift4:
 1063              	.LVL71:
 1064              	.LFB127:
 600:HANcoder_E407_TTA_CombineModel.c **** 
 601:HANcoder_E407_TTA_CombineModel.c **** /*
 602:HANcoder_E407_TTA_CombineModel.c ****  * Output and update for atomic system:
 603:HANcoder_E407_TTA_CombineModel.c ****  *    '<S131>/Bit Shift4'
 604:HANcoder_E407_TTA_CombineModel.c ****  *    '<S200>/Bit Shift4'
 605:HANcoder_E407_TTA_CombineModel.c ****  *    '<S247>/Bit Shift4'
 606:HANcoder_E407_TTA_CombineModel.c ****  *    '<S272>/Bit Shift4'
 607:HANcoder_E407_TTA_CombineModel.c ****  *    '<S319>/Bit Shift4'
 608:HANcoder_E407_TTA_CombineModel.c ****  */
 609:HANcoder_E407_TTA_CombineModel.c **** void BitShift4(uint8_T rtu_u, rtB_BitShift4 *localB)
 610:HANcoder_E407_TTA_CombineModel.c **** {
 1065              		.loc 1 610 1 is_stmt 1 view -0
 1066              		.cfi_startproc
 1067              		@ args = 0, pretend = 0, frame = 0
 1068              		@ frame_needed = 0, uses_anonymous_args = 0
 1069              		@ link register save eliminated.
 611:HANcoder_E407_TTA_CombineModel.c ****   /* MATLAB Function: '<S141>/bit_shift' */
 612:HANcoder_E407_TTA_CombineModel.c ****   /* MATLAB Function 'Logic and Bit Operations/Bit Shift/bit_shift': '<S149>:1' */
 613:HANcoder_E407_TTA_CombineModel.c ****   /* '<S149>:1:8' */
 614:HANcoder_E407_TTA_CombineModel.c ****   localB->y = (uint8_T)((uint32_T)rtu_u >> 5);
 1070              		.loc 1 614 3 view .LVU328
 1071              		.loc 1 614 15 is_stmt 0 view .LVU329
 1072 0000 4009     		lsrs	r0, r0, #5
 1073              	.LVL72:
 1074              		.loc 1 614 13 view .LVU330
 1075 0002 0870     		strb	r0, [r1]
 615:HANcoder_E407_TTA_CombineModel.c **** }
 1076              		.loc 1 615 1 view .LVU331
 1077 0004 7047     		bx	lr
 1078              		.cfi_endproc
 1079              	.LFE127:
 1081 0006 00BF     		.section	.text.BitShift5,"ax",%progbits
 1082              		.align	1
 1083              		.p2align 2,,3
 1084              		.global	BitShift5
 1085              		.syntax unified
 1086              		.thumb
 1087              		.thumb_func
 1089              	BitShift5:
 1090              	.LVL73:
 1091              	.LFB128:
 616:HANcoder_E407_TTA_CombineModel.c **** 
 617:HANcoder_E407_TTA_CombineModel.c **** /*
 618:HANcoder_E407_TTA_CombineModel.c ****  * Output and update for atomic system:
 619:HANcoder_E407_TTA_CombineModel.c ****  *    '<S131>/Bit Shift5'
 620:HANcoder_E407_TTA_CombineModel.c ****  *    '<S200>/Bit Shift5'
 621:HANcoder_E407_TTA_CombineModel.c ****  *    '<S247>/Bit Shift5'
 622:HANcoder_E407_TTA_CombineModel.c ****  *    '<S272>/Bit Shift5'
 623:HANcoder_E407_TTA_CombineModel.c ****  *    '<S319>/Bit Shift5'
 624:HANcoder_E407_TTA_CombineModel.c ****  */
 625:HANcoder_E407_TTA_CombineModel.c **** void BitShift5(uint8_T rtu_u, rtB_BitShift5 *localB)
 626:HANcoder_E407_TTA_CombineModel.c **** {
 1092              		.loc 1 626 1 is_stmt 1 view -0
 1093              		.cfi_startproc
 1094              		@ args = 0, pretend = 0, frame = 0
 1095              		@ frame_needed = 0, uses_anonymous_args = 0
 1096              		@ link register save eliminated.
 627:HANcoder_E407_TTA_CombineModel.c ****   /* MATLAB Function: '<S142>/bit_shift' */
 628:HANcoder_E407_TTA_CombineModel.c ****   /* MATLAB Function 'Logic and Bit Operations/Bit Shift/bit_shift': '<S150>:1' */
 629:HANcoder_E407_TTA_CombineModel.c ****   /* '<S150>:1:8' */
 630:HANcoder_E407_TTA_CombineModel.c ****   localB->y = (uint8_T)((uint32_T)rtu_u >> 6);
 1097              		.loc 1 630 3 view .LVU333
 1098              		.loc 1 630 15 is_stmt 0 view .LVU334
 1099 0000 8009     		lsrs	r0, r0, #6
 1100              	.LVL74:
 1101              		.loc 1 630 13 view .LVU335
 1102 0002 0870     		strb	r0, [r1]
 631:HANcoder_E407_TTA_CombineModel.c **** }
 1103              		.loc 1 631 1 view .LVU336
 1104 0004 7047     		bx	lr
 1105              		.cfi_endproc
 1106              	.LFE128:
 1108 0006 00BF     		.section	.text.BitShift6,"ax",%progbits
 1109              		.align	1
 1110              		.p2align 2,,3
 1111              		.global	BitShift6
 1112              		.syntax unified
 1113              		.thumb
 1114              		.thumb_func
 1116              	BitShift6:
 1117              	.LVL75:
 1118              	.LFB129:
 632:HANcoder_E407_TTA_CombineModel.c **** 
 633:HANcoder_E407_TTA_CombineModel.c **** /*
 634:HANcoder_E407_TTA_CombineModel.c ****  * Output and update for atomic system:
 635:HANcoder_E407_TTA_CombineModel.c ****  *    '<S131>/Bit Shift6'
 636:HANcoder_E407_TTA_CombineModel.c ****  *    '<S200>/Bit Shift6'
 637:HANcoder_E407_TTA_CombineModel.c ****  *    '<S247>/Bit Shift6'
 638:HANcoder_E407_TTA_CombineModel.c ****  *    '<S272>/Bit Shift6'
 639:HANcoder_E407_TTA_CombineModel.c ****  *    '<S319>/Bit Shift6'
 640:HANcoder_E407_TTA_CombineModel.c ****  */
 641:HANcoder_E407_TTA_CombineModel.c **** void BitShift6(uint8_T rtu_u, rtB_BitShift6 *localB)
 642:HANcoder_E407_TTA_CombineModel.c **** {
 1119              		.loc 1 642 1 is_stmt 1 view -0
 1120              		.cfi_startproc
 1121              		@ args = 0, pretend = 0, frame = 0
 1122              		@ frame_needed = 0, uses_anonymous_args = 0
 1123              		@ link register save eliminated.
 643:HANcoder_E407_TTA_CombineModel.c ****   /* MATLAB Function: '<S143>/bit_shift' */
 644:HANcoder_E407_TTA_CombineModel.c ****   /* MATLAB Function 'Logic and Bit Operations/Bit Shift/bit_shift': '<S151>:1' */
 645:HANcoder_E407_TTA_CombineModel.c ****   /* '<S151>:1:8' */
 646:HANcoder_E407_TTA_CombineModel.c ****   localB->y = (uint8_T)((uint32_T)rtu_u >> 7);
 1124              		.loc 1 646 3 view .LVU338
 1125              		.loc 1 646 15 is_stmt 0 view .LVU339
 1126 0000 C009     		lsrs	r0, r0, #7
 1127              	.LVL76:
 1128              		.loc 1 646 13 view .LVU340
 1129 0002 0870     		strb	r0, [r1]
 647:HANcoder_E407_TTA_CombineModel.c **** }
 1130              		.loc 1 647 1 view .LVU341
 1131 0004 7047     		bx	lr
 1132              		.cfi_endproc
 1133              	.LFE129:
 1135 0006 00BF     		.section	.text.BitShift_gy,"ax",%progbits
 1136              		.align	1
 1137              		.p2align 2,,3
 1138              		.global	BitShift_gy
 1139              		.syntax unified
 1140              		.thumb
 1141              		.thumb_func
 1143              	BitShift_gy:
 1144              	.LVL77:
 1145              	.LFB130:
 648:HANcoder_E407_TTA_CombineModel.c **** 
 649:HANcoder_E407_TTA_CombineModel.c **** /*
 650:HANcoder_E407_TTA_CombineModel.c ****  * Output and update for atomic system:
 651:HANcoder_E407_TTA_CombineModel.c ****  *    '<S154>/Bit Shift'
 652:HANcoder_E407_TTA_CombineModel.c ****  *    '<S176>/Bit Shift'
 653:HANcoder_E407_TTA_CombineModel.c ****  *    '<S223>/Bit Shift'
 654:HANcoder_E407_TTA_CombineModel.c ****  *    '<S295>/Bit Shift'
 655:HANcoder_E407_TTA_CombineModel.c ****  *    '<S342>/Bit Shift'
 656:HANcoder_E407_TTA_CombineModel.c ****  */
 657:HANcoder_E407_TTA_CombineModel.c **** void BitShift_gy(uint8_T rtu_u, rtB_BitShift_o *localB)
 658:HANcoder_E407_TTA_CombineModel.c **** {
 1146              		.loc 1 658 1 is_stmt 1 view -0
 1147              		.cfi_startproc
 1148              		@ args = 0, pretend = 0, frame = 0
 1149              		@ frame_needed = 0, uses_anonymous_args = 0
 1150              		@ link register save eliminated.
 659:HANcoder_E407_TTA_CombineModel.c ****   /* MATLAB Function: '<S157>/bit_shift' */
 660:HANcoder_E407_TTA_CombineModel.c ****   /* MATLAB Function 'Logic and Bit Operations/Bit Shift/bit_shift': '<S164>:1' */
 661:HANcoder_E407_TTA_CombineModel.c ****   /* '<S164>:1:6' */
 662:HANcoder_E407_TTA_CombineModel.c ****   localB->y = (uint8_T)(rtu_u << 2);
 1151              		.loc 1 662 3 view .LVU343
 1152              		.loc 1 662 15 is_stmt 0 view .LVU344
 1153 0000 8000     		lsls	r0, r0, #2
 1154              	.LVL78:
 1155              		.loc 1 662 13 view .LVU345
 1156 0002 0870     		strb	r0, [r1]
 663:HANcoder_E407_TTA_CombineModel.c **** }
 1157              		.loc 1 663 1 view .LVU346
 1158 0004 7047     		bx	lr
 1159              		.cfi_endproc
 1160              	.LFE130:
 1162 0006 00BF     		.section	.text.BitShift1_b,"ax",%progbits
 1163              		.align	1
 1164              		.p2align 2,,3
 1165              		.global	BitShift1_b
 1166              		.syntax unified
 1167              		.thumb
 1168              		.thumb_func
 1170              	BitShift1_b:
 1171              	.LVL79:
 1172              	.LFB131:
 664:HANcoder_E407_TTA_CombineModel.c **** 
 665:HANcoder_E407_TTA_CombineModel.c **** /*
 666:HANcoder_E407_TTA_CombineModel.c ****  * Output and update for atomic system:
 667:HANcoder_E407_TTA_CombineModel.c ****  *    '<S154>/Bit Shift1'
 668:HANcoder_E407_TTA_CombineModel.c ****  *    '<S176>/Bit Shift1'
 669:HANcoder_E407_TTA_CombineModel.c ****  *    '<S223>/Bit Shift1'
 670:HANcoder_E407_TTA_CombineModel.c ****  *    '<S295>/Bit Shift1'
 671:HANcoder_E407_TTA_CombineModel.c ****  *    '<S342>/Bit Shift1'
 672:HANcoder_E407_TTA_CombineModel.c ****  */
 673:HANcoder_E407_TTA_CombineModel.c **** void BitShift1_b(uint8_T rtu_u, rtB_BitShift1_j *localB)
 674:HANcoder_E407_TTA_CombineModel.c **** {
 1173              		.loc 1 674 1 is_stmt 1 view -0
 1174              		.cfi_startproc
 1175              		@ args = 0, pretend = 0, frame = 0
 1176              		@ frame_needed = 0, uses_anonymous_args = 0
 1177              		@ link register save eliminated.
 675:HANcoder_E407_TTA_CombineModel.c ****   /* MATLAB Function: '<S158>/bit_shift' */
 676:HANcoder_E407_TTA_CombineModel.c ****   /* MATLAB Function 'Logic and Bit Operations/Bit Shift/bit_shift': '<S165>:1' */
 677:HANcoder_E407_TTA_CombineModel.c ****   /* '<S165>:1:6' */
 678:HANcoder_E407_TTA_CombineModel.c ****   localB->y = (uint8_T)(rtu_u << 1);
 1178              		.loc 1 678 3 view .LVU348
 1179              		.loc 1 678 15 is_stmt 0 view .LVU349
 1180 0000 4000     		lsls	r0, r0, #1
 1181              	.LVL80:
 1182              		.loc 1 678 13 view .LVU350
 1183 0002 0870     		strb	r0, [r1]
 679:HANcoder_E407_TTA_CombineModel.c **** }
 1184              		.loc 1 679 1 view .LVU351
 1185 0004 7047     		bx	lr
 1186              		.cfi_endproc
 1187              	.LFE131:
 1189 0006 00BF     		.section	.text.BitShift2_p,"ax",%progbits
 1190              		.align	1
 1191              		.p2align 2,,3
 1192              		.global	BitShift2_p
 1193              		.syntax unified
 1194              		.thumb
 1195              		.thumb_func
 1197              	BitShift2_p:
 1198              	.LVL81:
 1199              	.LFB132:
 680:HANcoder_E407_TTA_CombineModel.c **** 
 681:HANcoder_E407_TTA_CombineModel.c **** /*
 682:HANcoder_E407_TTA_CombineModel.c ****  * Output and update for atomic system:
 683:HANcoder_E407_TTA_CombineModel.c ****  *    '<S154>/Bit Shift2'
 684:HANcoder_E407_TTA_CombineModel.c ****  *    '<S176>/Bit Shift2'
 685:HANcoder_E407_TTA_CombineModel.c ****  *    '<S223>/Bit Shift2'
 686:HANcoder_E407_TTA_CombineModel.c ****  *    '<S295>/Bit Shift2'
 687:HANcoder_E407_TTA_CombineModel.c ****  *    '<S342>/Bit Shift2'
 688:HANcoder_E407_TTA_CombineModel.c ****  */
 689:HANcoder_E407_TTA_CombineModel.c **** void BitShift2_p(uint8_T rtu_u, rtB_BitShift2_e *localB)
 690:HANcoder_E407_TTA_CombineModel.c **** {
 1200              		.loc 1 690 1 is_stmt 1 view -0
 1201              		.cfi_startproc
 1202              		@ args = 0, pretend = 0, frame = 0
 1203              		@ frame_needed = 0, uses_anonymous_args = 0
 1204              		@ link register save eliminated.
 691:HANcoder_E407_TTA_CombineModel.c ****   /* MATLAB Function: '<S159>/bit_shift' */
 692:HANcoder_E407_TTA_CombineModel.c ****   /* MATLAB Function 'Logic and Bit Operations/Bit Shift/bit_shift': '<S166>:1' */
 693:HANcoder_E407_TTA_CombineModel.c ****   /* '<S166>:1:6' */
 694:HANcoder_E407_TTA_CombineModel.c ****   localB->y = (uint8_T)(rtu_u << 3);
 1205              		.loc 1 694 3 view .LVU353
 1206              		.loc 1 694 15 is_stmt 0 view .LVU354
 1207 0000 C000     		lsls	r0, r0, #3
 1208              	.LVL82:
 1209              		.loc 1 694 13 view .LVU355
 1210 0002 0870     		strb	r0, [r1]
 695:HANcoder_E407_TTA_CombineModel.c **** }
 1211              		.loc 1 695 1 view .LVU356
 1212 0004 7047     		bx	lr
 1213              		.cfi_endproc
 1214              	.LFE132:
 1216 0006 00BF     		.section	.text.BitShift3_l,"ax",%progbits
 1217              		.align	1
 1218              		.p2align 2,,3
 1219              		.global	BitShift3_l
 1220              		.syntax unified
 1221              		.thumb
 1222              		.thumb_func
 1224              	BitShift3_l:
 1225              	.LVL83:
 1226              	.LFB133:
 696:HANcoder_E407_TTA_CombineModel.c **** 
 697:HANcoder_E407_TTA_CombineModel.c **** /*
 698:HANcoder_E407_TTA_CombineModel.c ****  * Output and update for atomic system:
 699:HANcoder_E407_TTA_CombineModel.c ****  *    '<S154>/Bit Shift3'
 700:HANcoder_E407_TTA_CombineModel.c ****  *    '<S176>/Bit Shift3'
 701:HANcoder_E407_TTA_CombineModel.c ****  *    '<S223>/Bit Shift3'
 702:HANcoder_E407_TTA_CombineModel.c ****  *    '<S295>/Bit Shift3'
 703:HANcoder_E407_TTA_CombineModel.c ****  *    '<S342>/Bit Shift3'
 704:HANcoder_E407_TTA_CombineModel.c ****  */
 705:HANcoder_E407_TTA_CombineModel.c **** void BitShift3_l(uint8_T rtu_u, rtB_BitShift3_g *localB)
 706:HANcoder_E407_TTA_CombineModel.c **** {
 1227              		.loc 1 706 1 is_stmt 1 view -0
 1228              		.cfi_startproc
 1229              		@ args = 0, pretend = 0, frame = 0
 1230              		@ frame_needed = 0, uses_anonymous_args = 0
 1231              		@ link register save eliminated.
 707:HANcoder_E407_TTA_CombineModel.c ****   /* MATLAB Function: '<S160>/bit_shift' */
 708:HANcoder_E407_TTA_CombineModel.c ****   /* MATLAB Function 'Logic and Bit Operations/Bit Shift/bit_shift': '<S167>:1' */
 709:HANcoder_E407_TTA_CombineModel.c ****   /* '<S167>:1:6' */
 710:HANcoder_E407_TTA_CombineModel.c ****   localB->y = (uint8_T)(rtu_u << 4);
 1232              		.loc 1 710 3 view .LVU358
 1233              		.loc 1 710 15 is_stmt 0 view .LVU359
 1234 0000 0001     		lsls	r0, r0, #4
 1235              	.LVL84:
 1236              		.loc 1 710 13 view .LVU360
 1237 0002 0870     		strb	r0, [r1]
 711:HANcoder_E407_TTA_CombineModel.c **** }
 1238              		.loc 1 711 1 view .LVU361
 1239 0004 7047     		bx	lr
 1240              		.cfi_endproc
 1241              	.LFE133:
 1243 0006 00BF     		.section	.text.BitShift4_g,"ax",%progbits
 1244              		.align	1
 1245              		.p2align 2,,3
 1246              		.global	BitShift4_g
 1247              		.syntax unified
 1248              		.thumb
 1249              		.thumb_func
 1251              	BitShift4_g:
 1252              	.LVL85:
 1253              	.LFB134:
 712:HANcoder_E407_TTA_CombineModel.c **** 
 713:HANcoder_E407_TTA_CombineModel.c **** /*
 714:HANcoder_E407_TTA_CombineModel.c ****  * Output and update for atomic system:
 715:HANcoder_E407_TTA_CombineModel.c ****  *    '<S154>/Bit Shift4'
 716:HANcoder_E407_TTA_CombineModel.c ****  *    '<S176>/Bit Shift4'
 717:HANcoder_E407_TTA_CombineModel.c ****  *    '<S223>/Bit Shift4'
 718:HANcoder_E407_TTA_CombineModel.c ****  *    '<S295>/Bit Shift4'
 719:HANcoder_E407_TTA_CombineModel.c ****  *    '<S342>/Bit Shift4'
 720:HANcoder_E407_TTA_CombineModel.c ****  */
 721:HANcoder_E407_TTA_CombineModel.c **** void BitShift4_g(uint8_T rtu_u, rtB_BitShift4_g *localB)
 722:HANcoder_E407_TTA_CombineModel.c **** {
 1254              		.loc 1 722 1 is_stmt 1 view -0
 1255              		.cfi_startproc
 1256              		@ args = 0, pretend = 0, frame = 0
 1257              		@ frame_needed = 0, uses_anonymous_args = 0
 1258              		@ link register save eliminated.
 723:HANcoder_E407_TTA_CombineModel.c ****   /* MATLAB Function: '<S161>/bit_shift' */
 724:HANcoder_E407_TTA_CombineModel.c ****   /* MATLAB Function 'Logic and Bit Operations/Bit Shift/bit_shift': '<S168>:1' */
 725:HANcoder_E407_TTA_CombineModel.c ****   /* '<S168>:1:6' */
 726:HANcoder_E407_TTA_CombineModel.c ****   localB->y = (uint8_T)(rtu_u << 5);
 1259              		.loc 1 726 3 view .LVU363
 1260              		.loc 1 726 15 is_stmt 0 view .LVU364
 1261 0000 4001     		lsls	r0, r0, #5
 1262              	.LVL86:
 1263              		.loc 1 726 13 view .LVU365
 1264 0002 0870     		strb	r0, [r1]
 727:HANcoder_E407_TTA_CombineModel.c **** }
 1265              		.loc 1 727 1 view .LVU366
 1266 0004 7047     		bx	lr
 1267              		.cfi_endproc
 1268              	.LFE134:
 1270 0006 00BF     		.section	.text.BitShift5_n,"ax",%progbits
 1271              		.align	1
 1272              		.p2align 2,,3
 1273              		.global	BitShift5_n
 1274              		.syntax unified
 1275              		.thumb
 1276              		.thumb_func
 1278              	BitShift5_n:
 1279              	.LVL87:
 1280              	.LFB135:
 728:HANcoder_E407_TTA_CombineModel.c **** 
 729:HANcoder_E407_TTA_CombineModel.c **** /*
 730:HANcoder_E407_TTA_CombineModel.c ****  * Output and update for atomic system:
 731:HANcoder_E407_TTA_CombineModel.c ****  *    '<S154>/Bit Shift5'
 732:HANcoder_E407_TTA_CombineModel.c ****  *    '<S176>/Bit Shift5'
 733:HANcoder_E407_TTA_CombineModel.c ****  *    '<S223>/Bit Shift5'
 734:HANcoder_E407_TTA_CombineModel.c ****  *    '<S295>/Bit Shift5'
 735:HANcoder_E407_TTA_CombineModel.c ****  *    '<S342>/Bit Shift5'
 736:HANcoder_E407_TTA_CombineModel.c ****  */
 737:HANcoder_E407_TTA_CombineModel.c **** void BitShift5_n(uint8_T rtu_u, rtB_BitShift5_e *localB)
 738:HANcoder_E407_TTA_CombineModel.c **** {
 1281              		.loc 1 738 1 is_stmt 1 view -0
 1282              		.cfi_startproc
 1283              		@ args = 0, pretend = 0, frame = 0
 1284              		@ frame_needed = 0, uses_anonymous_args = 0
 1285              		@ link register save eliminated.
 739:HANcoder_E407_TTA_CombineModel.c ****   /* MATLAB Function: '<S162>/bit_shift' */
 740:HANcoder_E407_TTA_CombineModel.c ****   /* MATLAB Function 'Logic and Bit Operations/Bit Shift/bit_shift': '<S169>:1' */
 741:HANcoder_E407_TTA_CombineModel.c ****   /* '<S169>:1:6' */
 742:HANcoder_E407_TTA_CombineModel.c ****   localB->y = (uint8_T)(rtu_u << 6);
 1286              		.loc 1 742 3 view .LVU368
 1287              		.loc 1 742 15 is_stmt 0 view .LVU369
 1288 0000 8001     		lsls	r0, r0, #6
 1289              	.LVL88:
 1290              		.loc 1 742 13 view .LVU370
 1291 0002 0870     		strb	r0, [r1]
 743:HANcoder_E407_TTA_CombineModel.c **** }
 1292              		.loc 1 743 1 view .LVU371
 1293 0004 7047     		bx	lr
 1294              		.cfi_endproc
 1295              	.LFE135:
 1297 0006 00BF     		.section	.text.BitShift6_d,"ax",%progbits
 1298              		.align	1
 1299              		.p2align 2,,3
 1300              		.global	BitShift6_d
 1301              		.syntax unified
 1302              		.thumb
 1303              		.thumb_func
 1305              	BitShift6_d:
 1306              	.LVL89:
 1307              	.LFB136:
 744:HANcoder_E407_TTA_CombineModel.c **** 
 745:HANcoder_E407_TTA_CombineModel.c **** /*
 746:HANcoder_E407_TTA_CombineModel.c ****  * Output and update for atomic system:
 747:HANcoder_E407_TTA_CombineModel.c ****  *    '<S154>/Bit Shift6'
 748:HANcoder_E407_TTA_CombineModel.c ****  *    '<S176>/Bit Shift6'
 749:HANcoder_E407_TTA_CombineModel.c ****  *    '<S223>/Bit Shift6'
 750:HANcoder_E407_TTA_CombineModel.c ****  *    '<S295>/Bit Shift6'
 751:HANcoder_E407_TTA_CombineModel.c ****  *    '<S342>/Bit Shift6'
 752:HANcoder_E407_TTA_CombineModel.c ****  */
 753:HANcoder_E407_TTA_CombineModel.c **** void BitShift6_d(uint8_T rtu_u, rtB_BitShift6_b *localB)
 754:HANcoder_E407_TTA_CombineModel.c **** {
 1308              		.loc 1 754 1 is_stmt 1 view -0
 1309              		.cfi_startproc
 1310              		@ args = 0, pretend = 0, frame = 0
 1311              		@ frame_needed = 0, uses_anonymous_args = 0
 1312              		@ link register save eliminated.
 755:HANcoder_E407_TTA_CombineModel.c ****   /* MATLAB Function: '<S163>/bit_shift' */
 756:HANcoder_E407_TTA_CombineModel.c ****   /* MATLAB Function 'Logic and Bit Operations/Bit Shift/bit_shift': '<S170>:1' */
 757:HANcoder_E407_TTA_CombineModel.c ****   /* '<S170>:1:6' */
 758:HANcoder_E407_TTA_CombineModel.c ****   localB->y = (uint8_T)(rtu_u << 7);
 1313              		.loc 1 758 3 view .LVU373
 1314              		.loc 1 758 15 is_stmt 0 view .LVU374
 1315 0000 C001     		lsls	r0, r0, #7
 1316              	.LVL90:
 1317              		.loc 1 758 13 view .LVU375
 1318 0002 0870     		strb	r0, [r1]
 759:HANcoder_E407_TTA_CombineModel.c **** }
 1319              		.loc 1 759 1 view .LVU376
 1320 0004 7047     		bx	lr
 1321              		.cfi_endproc
 1322              	.LFE136:
 1324 0006 00BF     		.section	.text.BitShift_o,"ax",%progbits
 1325              		.align	1
 1326              		.p2align 2,,3
 1327              		.global	BitShift_o
 1328              		.syntax unified
 1329              		.thumb
 1330              		.thumb_func
 1332              	BitShift_o:
 1333              	.LVL91:
 1334              	.LFB137:
 760:HANcoder_E407_TTA_CombineModel.c **** 
 761:HANcoder_E407_TTA_CombineModel.c **** /*
 762:HANcoder_E407_TTA_CombineModel.c ****  * Output and update for atomic system:
 763:HANcoder_E407_TTA_CombineModel.c ****  *    '<S155>/Bit Shift'
 764:HANcoder_E407_TTA_CombineModel.c ****  *    '<S156>/Bit Shift'
 765:HANcoder_E407_TTA_CombineModel.c ****  *    '<S177>/Bit Shift'
 766:HANcoder_E407_TTA_CombineModel.c ****  *    '<S178>/Bit Shift'
 767:HANcoder_E407_TTA_CombineModel.c ****  *    '<S224>/Bit Shift'
 768:HANcoder_E407_TTA_CombineModel.c ****  *    '<S225>/Bit Shift'
 769:HANcoder_E407_TTA_CombineModel.c ****  *    '<S296>/Bit Shift'
 770:HANcoder_E407_TTA_CombineModel.c ****  *    '<S297>/Bit Shift'
 771:HANcoder_E407_TTA_CombineModel.c ****  *    '<S343>/Bit Shift'
 772:HANcoder_E407_TTA_CombineModel.c ****  *    '<S344>/Bit Shift'
 773:HANcoder_E407_TTA_CombineModel.c ****  */
 774:HANcoder_E407_TTA_CombineModel.c **** void BitShift_o(uint16_T rtu_u, rtB_BitShift_c *localB)
 775:HANcoder_E407_TTA_CombineModel.c **** {
 1335              		.loc 1 775 1 is_stmt 1 view -0
 1336              		.cfi_startproc
 1337              		@ args = 0, pretend = 0, frame = 0
 1338              		@ frame_needed = 0, uses_anonymous_args = 0
 1339              		@ link register save eliminated.
 776:HANcoder_E407_TTA_CombineModel.c ****   /* MATLAB Function: '<S171>/bit_shift' */
 777:HANcoder_E407_TTA_CombineModel.c ****   /* MATLAB Function 'Logic and Bit Operations/Bit Shift/bit_shift': '<S172>:1' */
 778:HANcoder_E407_TTA_CombineModel.c ****   /* '<S172>:1:8' */
 779:HANcoder_E407_TTA_CombineModel.c ****   localB->y = (uint16_T)((uint32_T)rtu_u >> 8);
 1340              		.loc 1 779 3 view .LVU378
 1341              		.loc 1 779 15 is_stmt 0 view .LVU379
 1342 0000 000A     		lsrs	r0, r0, #8
 1343              	.LVL92:
 1344              		.loc 1 779 13 view .LVU380
 1345 0002 0880     		strh	r0, [r1]	@ movhi
 780:HANcoder_E407_TTA_CombineModel.c **** }
 1346              		.loc 1 780 1 view .LVU381
 1347 0004 7047     		bx	lr
 1348              		.cfi_endproc
 1349              	.LFE137:
 1351 0006 00BF     		.section	.text.TRCK1_ID2_TX,"ax",%progbits
 1352              		.align	1
 1353              		.p2align 2,,3
 1354              		.global	TRCK1_ID2_TX
 1355              		.syntax unified
 1356              		.thumb
 1357              		.thumb_func
 1359              	TRCK1_ID2_TX:
 1360              	.LVL93:
 1361              	.LFB138:
 781:HANcoder_E407_TTA_CombineModel.c **** 
 782:HANcoder_E407_TTA_CombineModel.c **** /*
 783:HANcoder_E407_TTA_CombineModel.c ****  * Output and update for trigger system:
 784:HANcoder_E407_TTA_CombineModel.c ****  *    '<S10>/TRCK1_ID2_TX'
 785:HANcoder_E407_TTA_CombineModel.c ****  *    '<S10>/TRCK1_ID3_TX'
 786:HANcoder_E407_TTA_CombineModel.c ****  */
 787:HANcoder_E407_TTA_CombineModel.c **** void TRCK1_ID2_TX(boolean_T rtu_Trigger, uint32_T rtu_In1, const uint8_T
 788:HANcoder_E407_TTA_CombineModel.c ****                   *rtd_Local_Ticks, const boolean_T *rtd_motorFailed, const
 789:HANcoder_E407_TTA_CombineModel.c ****                   boolean_T *rtd_potFault, const uint16_T *rtd_potentiometer1,
 790:HANcoder_E407_TTA_CombineModel.c ****                   const uint16_T *rtd_potentiometer2, rtB_TRCK1_ID2_TX *localB,
 791:HANcoder_E407_TTA_CombineModel.c ****                   const rtC_TRCK1_ID2_TX *localC, rtZCE_TRCK1_ID2_TX *localZCE)
 792:HANcoder_E407_TTA_CombineModel.c **** {
 1362              		.loc 1 792 1 is_stmt 1 view -0
 1363              		.cfi_startproc
 1364              		@ args = 24, pretend = 0, frame = 0
 1365              		@ frame_needed = 0, uses_anonymous_args = 0
 793:HANcoder_E407_TTA_CombineModel.c ****   uint8_T rtb_Cast1_j;
 1366              		.loc 1 793 3 view .LVU383
 794:HANcoder_E407_TTA_CombineModel.c **** 
 795:HANcoder_E407_TTA_CombineModel.c ****   /* Outputs for Triggered SubSystem: '<S10>/TRCK1_ID2_TX' incorporates:
 796:HANcoder_E407_TTA_CombineModel.c ****    *  TriggerPort: '<S109>/Trigger'
 797:HANcoder_E407_TTA_CombineModel.c ****    */
 798:HANcoder_E407_TTA_CombineModel.c ****   if (rtu_Trigger && (localZCE->TRCK1_ID2_TX_Trig_ZCE != POS_ZCSIG)) {
 1367              		.loc 1 798 3 view .LVU384
 792:HANcoder_E407_TTA_CombineModel.c ****   uint8_T rtb_Cast1_j;
 1368              		.loc 1 792 1 is_stmt 0 view .LVU385
 1369 0000 2DE9F047 		push	{r4, r5, r6, r7, r8, r9, r10, lr}
 1370              		.cfi_def_cfa_offset 32
 1371              		.cfi_offset 4, -32
 1372              		.cfi_offset 5, -28
 1373              		.cfi_offset 6, -24
 1374              		.cfi_offset 7, -20
 1375              		.cfi_offset 8, -16
 1376              		.cfi_offset 9, -12
 1377              		.cfi_offset 10, -8
 1378              		.cfi_offset 14, -4
 792:HANcoder_E407_TTA_CombineModel.c ****   uint8_T rtb_Cast1_j;
 1379              		.loc 1 792 1 view .LVU386
 1380 0004 0D9E     		ldr	r6, [sp, #52]
 1381 0006 DDE90B57 		ldrd	r5, r7, [sp, #44]
 1382              		.loc 1 798 6 view .LVU387
 1383 000a 0446     		mov	r4, r0
 1384 000c 10B1     		cbz	r0, .L88
 1385              		.loc 1 798 19 discriminator 1 view .LVU388
 1386 000e 3078     		ldrb	r0, [r6]	@ zero_extendqisi2
 1387              	.LVL94:
 1388              		.loc 1 798 19 discriminator 1 view .LVU389
 1389 0010 0128     		cmp	r0, #1
 1390 0012 02D1     		bne	.L96
 1391              	.L88:
 799:HANcoder_E407_TTA_CombineModel.c ****     /* DataStoreRead: '<S109>/Data Store Read2' */
 800:HANcoder_E407_TTA_CombineModel.c ****     localB->DataStoreRead2 = *rtd_Local_Ticks;
 801:HANcoder_E407_TTA_CombineModel.c **** 
 802:HANcoder_E407_TTA_CombineModel.c ****     /* DataTypeConversion: '<S154>/Cast1' incorporates:
 803:HANcoder_E407_TTA_CombineModel.c ****      *  DataStoreRead: '<S109>/Data Store Read4'
 804:HANcoder_E407_TTA_CombineModel.c ****      */
 805:HANcoder_E407_TTA_CombineModel.c ****     rtb_Cast1_j = *rtd_potFault;
 806:HANcoder_E407_TTA_CombineModel.c **** 
 807:HANcoder_E407_TTA_CombineModel.c ****     /* Outputs for Atomic SubSystem: '<S154>/Bit Shift1' */
 808:HANcoder_E407_TTA_CombineModel.c ****     BitShift1_b(rtb_Cast1_j, &localB->BitShift1_b0);
 809:HANcoder_E407_TTA_CombineModel.c **** 
 810:HANcoder_E407_TTA_CombineModel.c ****     /* End of Outputs for SubSystem: '<S154>/Bit Shift1' */
 811:HANcoder_E407_TTA_CombineModel.c **** 
 812:HANcoder_E407_TTA_CombineModel.c ****     /* Outputs for Atomic SubSystem: '<S154>/Bit Shift' */
 813:HANcoder_E407_TTA_CombineModel.c ****     BitShift_gy(localC->Cast, &localB->BitShift_gyk);
 814:HANcoder_E407_TTA_CombineModel.c **** 
 815:HANcoder_E407_TTA_CombineModel.c ****     /* End of Outputs for SubSystem: '<S154>/Bit Shift' */
 816:HANcoder_E407_TTA_CombineModel.c **** 
 817:HANcoder_E407_TTA_CombineModel.c ****     /* Outputs for Atomic SubSystem: '<S154>/Bit Shift2' */
 818:HANcoder_E407_TTA_CombineModel.c ****     BitShift2_p(localC->Cast2, &localB->BitShift2_pw);
 819:HANcoder_E407_TTA_CombineModel.c **** 
 820:HANcoder_E407_TTA_CombineModel.c ****     /* End of Outputs for SubSystem: '<S154>/Bit Shift2' */
 821:HANcoder_E407_TTA_CombineModel.c **** 
 822:HANcoder_E407_TTA_CombineModel.c ****     /* Outputs for Atomic SubSystem: '<S154>/Bit Shift3' */
 823:HANcoder_E407_TTA_CombineModel.c ****     BitShift3_l(localC->Cast3, &localB->BitShift3_lh);
 824:HANcoder_E407_TTA_CombineModel.c **** 
 825:HANcoder_E407_TTA_CombineModel.c ****     /* End of Outputs for SubSystem: '<S154>/Bit Shift3' */
 826:HANcoder_E407_TTA_CombineModel.c **** 
 827:HANcoder_E407_TTA_CombineModel.c ****     /* Outputs for Atomic SubSystem: '<S154>/Bit Shift4' */
 828:HANcoder_E407_TTA_CombineModel.c ****     BitShift4_g(localC->Cast4, &localB->BitShift4_g2);
 829:HANcoder_E407_TTA_CombineModel.c **** 
 830:HANcoder_E407_TTA_CombineModel.c ****     /* End of Outputs for SubSystem: '<S154>/Bit Shift4' */
 831:HANcoder_E407_TTA_CombineModel.c **** 
 832:HANcoder_E407_TTA_CombineModel.c ****     /* Outputs for Atomic SubSystem: '<S154>/Bit Shift5' */
 833:HANcoder_E407_TTA_CombineModel.c ****     BitShift5_n(localC->Cast5, &localB->BitShift5_nr);
 834:HANcoder_E407_TTA_CombineModel.c **** 
 835:HANcoder_E407_TTA_CombineModel.c ****     /* End of Outputs for SubSystem: '<S154>/Bit Shift5' */
 836:HANcoder_E407_TTA_CombineModel.c **** 
 837:HANcoder_E407_TTA_CombineModel.c ****     /* Outputs for Atomic SubSystem: '<S154>/Bit Shift6' */
 838:HANcoder_E407_TTA_CombineModel.c ****     BitShift6_d(localC->Cast6, &localB->BitShift6_dc);
 839:HANcoder_E407_TTA_CombineModel.c **** 
 840:HANcoder_E407_TTA_CombineModel.c ****     /* End of Outputs for SubSystem: '<S154>/Bit Shift6' */
 841:HANcoder_E407_TTA_CombineModel.c **** 
 842:HANcoder_E407_TTA_CombineModel.c ****     /* Sum: '<S154>/Add' incorporates:
 843:HANcoder_E407_TTA_CombineModel.c ****      *  DataStoreRead: '<S109>/Data Store Read3'
 844:HANcoder_E407_TTA_CombineModel.c ****      *  DataTypeConversion: '<S154>/Cast7'
 845:HANcoder_E407_TTA_CombineModel.c ****      */
 846:HANcoder_E407_TTA_CombineModel.c ****     localB->Add = (uint8_T)((uint32_T)(uint8_T)((uint32_T)(uint8_T)((uint32_T)
 847:HANcoder_E407_TTA_CombineModel.c ****       (uint8_T)((uint32_T)(uint8_T)((uint32_T)(uint8_T)((uint32_T)(uint8_T)
 848:HANcoder_E407_TTA_CombineModel.c ****       ((uint32_T)*rtd_motorFailed + localB->BitShift1_b0.y) +
 849:HANcoder_E407_TTA_CombineModel.c ****       localB->BitShift_gyk.y) + localB->BitShift2_pw.y) + localB->BitShift3_lh.y)
 850:HANcoder_E407_TTA_CombineModel.c ****       + localB->BitShift4_g2.y) + localB->BitShift5_nr.y) +
 851:HANcoder_E407_TTA_CombineModel.c ****       localB->BitShift6_dc.y);
 852:HANcoder_E407_TTA_CombineModel.c **** 
 853:HANcoder_E407_TTA_CombineModel.c ****     /* Outputs for Atomic SubSystem: '<S155>/Bit Shift' */
 854:HANcoder_E407_TTA_CombineModel.c ****     /* DataStoreRead: '<S109>/Data Store Read1' */
 855:HANcoder_E407_TTA_CombineModel.c ****     BitShift_o(*rtd_potentiometer2, &localB->BitShift_of);
 856:HANcoder_E407_TTA_CombineModel.c **** 
 857:HANcoder_E407_TTA_CombineModel.c ****     /* End of Outputs for SubSystem: '<S155>/Bit Shift' */
 858:HANcoder_E407_TTA_CombineModel.c **** 
 859:HANcoder_E407_TTA_CombineModel.c ****     /* DataTypeConversion: '<S155>/Cast' */
 860:HANcoder_E407_TTA_CombineModel.c ****     localB->Cast = (uint8_T)localB->BitShift_of.y;
 861:HANcoder_E407_TTA_CombineModel.c **** 
 862:HANcoder_E407_TTA_CombineModel.c ****     /* DataTypeConversion: '<S155>/Cast1' incorporates:
 863:HANcoder_E407_TTA_CombineModel.c ****      *  DataStoreRead: '<S109>/Data Store Read1'
 864:HANcoder_E407_TTA_CombineModel.c ****      */
 865:HANcoder_E407_TTA_CombineModel.c ****     localB->Cast1 = (uint8_T)*rtd_potentiometer2;
 866:HANcoder_E407_TTA_CombineModel.c **** 
 867:HANcoder_E407_TTA_CombineModel.c ****     /* Outputs for Atomic SubSystem: '<S156>/Bit Shift' */
 868:HANcoder_E407_TTA_CombineModel.c ****     /* DataStoreRead: '<S109>/Data Store Read' */
 869:HANcoder_E407_TTA_CombineModel.c ****     BitShift_o(*rtd_potentiometer1, &localB->BitShift_h);
 870:HANcoder_E407_TTA_CombineModel.c **** 
 871:HANcoder_E407_TTA_CombineModel.c ****     /* End of Outputs for SubSystem: '<S156>/Bit Shift' */
 872:HANcoder_E407_TTA_CombineModel.c **** 
 873:HANcoder_E407_TTA_CombineModel.c ****     /* DataTypeConversion: '<S156>/Cast' */
 874:HANcoder_E407_TTA_CombineModel.c ****     localB->Cast_k = (uint8_T)localB->BitShift_h.y;
 875:HANcoder_E407_TTA_CombineModel.c **** 
 876:HANcoder_E407_TTA_CombineModel.c ****     /* DataTypeConversion: '<S156>/Cast1' incorporates:
 877:HANcoder_E407_TTA_CombineModel.c ****      *  DataStoreRead: '<S109>/Data Store Read'
 878:HANcoder_E407_TTA_CombineModel.c ****      */
 879:HANcoder_E407_TTA_CombineModel.c ****     localB->Cast1_i = (uint8_T)*rtd_potentiometer1;
 880:HANcoder_E407_TTA_CombineModel.c **** 
 881:HANcoder_E407_TTA_CombineModel.c ****     /* Update for M-S-Function: '<S153>/S-Function' incorporates:
 882:HANcoder_E407_TTA_CombineModel.c ****      *  Constant: '<S109>/Constant'
 883:HANcoder_E407_TTA_CombineModel.c ****      *  Constant: '<S109>/Constant1'
 884:HANcoder_E407_TTA_CombineModel.c ****      */
 885:HANcoder_E407_TTA_CombineModel.c ****     {
 886:HANcoder_E407_TTA_CombineModel.c ****       /* prepare the data */
 887:HANcoder_E407_TTA_CombineModel.c ****       canTxData.uint8_T_info[0] = localB->Cast_k;
 888:HANcoder_E407_TTA_CombineModel.c ****       canTxData.uint8_T_info[1] = localB->Cast1_i;
 889:HANcoder_E407_TTA_CombineModel.c ****       canTxData.uint8_T_info[2] = localB->Cast;
 890:HANcoder_E407_TTA_CombineModel.c ****       canTxData.uint8_T_info[3] = localB->Cast1;
 891:HANcoder_E407_TTA_CombineModel.c ****       canTxData.uint8_T_info[4] = localB->DataStoreRead2;
 892:HANcoder_E407_TTA_CombineModel.c ****       canTxData.uint8_T_info[5] = ((uint8_T)0U);
 893:HANcoder_E407_TTA_CombineModel.c ****       canTxData.uint8_T_info[6] = localB->Add;
 894:HANcoder_E407_TTA_CombineModel.c ****       canTxData.uint8_T_info[7] = ((uint8_T)0U);
 895:HANcoder_E407_TTA_CombineModel.c **** 
 896:HANcoder_E407_TTA_CombineModel.c ****       /* send the data */
 897:HANcoder_E407_TTA_CombineModel.c ****       CanTransmit(0, rtu_In1, 8, &canTxData.uint8_T_info[0]);
 898:HANcoder_E407_TTA_CombineModel.c ****     }
 899:HANcoder_E407_TTA_CombineModel.c ****   }
 900:HANcoder_E407_TTA_CombineModel.c **** 
 901:HANcoder_E407_TTA_CombineModel.c ****   localZCE->TRCK1_ID2_TX_Trig_ZCE = rtu_Trigger;
 1392              		.loc 1 901 3 is_stmt 1 view .LVU390
 1393              		.loc 1 901 35 is_stmt 0 view .LVU391
 1394 0014 3470     		strb	r4, [r6]
 902:HANcoder_E407_TTA_CombineModel.c **** 
 903:HANcoder_E407_TTA_CombineModel.c ****   /* End of Outputs for SubSystem: '<S10>/TRCK1_ID2_TX' */
 904:HANcoder_E407_TTA_CombineModel.c **** }
 1395              		.loc 1 904 1 view .LVU392
 1396 0016 BDE8F087 		pop	{r4, r5, r6, r7, r8, r9, r10, pc}
 1397              	.LVL95:
 1398              	.L96:
 800:HANcoder_E407_TTA_CombineModel.c **** 
 1399              		.loc 1 800 5 is_stmt 1 view .LVU393
 800:HANcoder_E407_TTA_CombineModel.c **** 
 1400              		.loc 1 800 30 is_stmt 0 view .LVU394
 1401 001a 92F80080 		ldrb	r8, [r2]	@ zero_extendqisi2
 1402              	.LBB217:
 1403              	.LBB218:
 678:HANcoder_E407_TTA_CombineModel.c **** }
 1404              		.loc 1 678 15 view .LVU395
 1405 001e 089A     		ldr	r2, [sp, #32]
 1406              	.LVL96:
 678:HANcoder_E407_TTA_CombineModel.c **** }
 1407              		.loc 1 678 15 view .LVU396
 1408              	.LBE218:
 1409              	.LBE217:
 800:HANcoder_E407_TTA_CombineModel.c **** 
 1410              		.loc 1 800 28 view .LVU397
 1411 0020 85F80080 		strb	r8, [r5]
 805:HANcoder_E407_TTA_CombineModel.c **** 
 1412              		.loc 1 805 5 is_stmt 1 view .LVU398
 1413              	.LVL97:
 808:HANcoder_E407_TTA_CombineModel.c **** 
 1414              		.loc 1 808 5 view .LVU399
 1415              	.LBB220:
 1416              	.LBI217:
 673:HANcoder_E407_TTA_CombineModel.c **** {
 1417              		.loc 1 673 6 view .LVU400
 1418              	.LBB219:
 678:HANcoder_E407_TTA_CombineModel.c **** }
 1419              		.loc 1 678 3 view .LVU401
 678:HANcoder_E407_TTA_CombineModel.c **** }
 1420              		.loc 1 678 15 is_stmt 0 view .LVU402
 1421 0024 92F800E0 		ldrb	lr, [r2]	@ zero_extendqisi2
 1422 0028 4FEA4E0E 		lsl	lr, lr, #1
 1423 002c 5FFA8EFE 		uxtb	lr, lr
 678:HANcoder_E407_TTA_CombineModel.c **** }
 1424              		.loc 1 678 13 view .LVU403
 1425 0030 85F80FE0 		strb	lr, [r5, #15]
 1426              	.LVL98:
 678:HANcoder_E407_TTA_CombineModel.c **** }
 1427              		.loc 1 678 13 view .LVU404
 1428              	.LBE219:
 1429              	.LBE220:
 813:HANcoder_E407_TTA_CombineModel.c **** 
 1430              		.loc 1 813 5 is_stmt 1 view .LVU405
 1431              	.LBB221:
 1432              	.LBI221:
 657:HANcoder_E407_TTA_CombineModel.c **** {
 1433              		.loc 1 657 6 view .LVU406
 1434              	.LBB222:
 662:HANcoder_E407_TTA_CombineModel.c **** }
 1435              		.loc 1 662 3 view .LVU407
 662:HANcoder_E407_TTA_CombineModel.c **** }
 1436              		.loc 1 662 15 is_stmt 0 view .LVU408
 1437 0034 3A78     		ldrb	r2, [r7]	@ zero_extendqisi2
 1438 0036 9200     		lsls	r2, r2, #2
 1439 0038 D2B2     		uxtb	r2, r2
 662:HANcoder_E407_TTA_CombineModel.c **** }
 1440              		.loc 1 662 13 view .LVU409
 1441 003a 2A74     		strb	r2, [r5, #16]
 1442              	.LVL99:
 662:HANcoder_E407_TTA_CombineModel.c **** }
 1443              		.loc 1 662 13 view .LVU410
 1444              	.LBE222:
 1445              	.LBE221:
 818:HANcoder_E407_TTA_CombineModel.c **** 
 1446              		.loc 1 818 5 is_stmt 1 view .LVU411
 1447              	.LBB223:
 1448              	.LBI223:
 689:HANcoder_E407_TTA_CombineModel.c **** {
 1449              		.loc 1 689 6 view .LVU412
 1450              	.LBB224:
 694:HANcoder_E407_TTA_CombineModel.c **** }
 1451              		.loc 1 694 3 view .LVU413
 694:HANcoder_E407_TTA_CombineModel.c **** }
 1452              		.loc 1 694 15 is_stmt 0 view .LVU414
 1453 003c 7878     		ldrb	r0, [r7, #1]	@ zero_extendqisi2
 1454 003e C000     		lsls	r0, r0, #3
 1455 0040 C0B2     		uxtb	r0, r0
 694:HANcoder_E407_TTA_CombineModel.c **** }
 1456              		.loc 1 694 13 view .LVU415
 1457 0042 A873     		strb	r0, [r5, #14]
 1458              	.LVL100:
 694:HANcoder_E407_TTA_CombineModel.c **** }
 1459              		.loc 1 694 13 view .LVU416
 1460              	.LBE224:
 1461              	.LBE223:
 823:HANcoder_E407_TTA_CombineModel.c **** 
 1462              		.loc 1 823 5 is_stmt 1 view .LVU417
 1463              	.LBB225:
 1464              	.LBI225:
 705:HANcoder_E407_TTA_CombineModel.c **** {
 1465              		.loc 1 705 6 view .LVU418
 1466              	.LBB226:
 710:HANcoder_E407_TTA_CombineModel.c **** }
 1467              		.loc 1 710 3 view .LVU419
 710:HANcoder_E407_TTA_CombineModel.c **** }
 1468              		.loc 1 710 15 is_stmt 0 view .LVU420
 1469 0044 97F802C0 		ldrb	ip, [r7, #2]	@ zero_extendqisi2
 1470 0048 4FEA0C1C 		lsl	ip, ip, #4
 1471 004c 5FFA8CFC 		uxtb	ip, ip
 710:HANcoder_E407_TTA_CombineModel.c **** }
 1472              		.loc 1 710 13 view .LVU421
 1473 0050 85F80DC0 		strb	ip, [r5, #13]
 1474              	.LVL101:
 710:HANcoder_E407_TTA_CombineModel.c **** }
 1475              		.loc 1 710 13 view .LVU422
 1476              	.LBE226:
 1477              	.LBE225:
 828:HANcoder_E407_TTA_CombineModel.c **** 
 1478              		.loc 1 828 5 is_stmt 1 view .LVU423
 1479              	.LBB227:
 1480              	.LBI227:
 721:HANcoder_E407_TTA_CombineModel.c **** {
 1481              		.loc 1 721 6 view .LVU424
 1482              	.LBB228:
 726:HANcoder_E407_TTA_CombineModel.c **** }
 1483              		.loc 1 726 3 view .LVU425
 1484              	.LBE228:
 1485              	.LBE227:
 846:HANcoder_E407_TTA_CombineModel.c ****       (uint8_T)((uint32_T)(uint8_T)((uint32_T)(uint8_T)((uint32_T)(uint8_T)
 1486              		.loc 1 846 19 is_stmt 0 view .LVU426
 1487 0054 00EB0209 		add	r9, r0, r2
 1488              	.LBB230:
 1489              	.LBB229:
 726:HANcoder_E407_TTA_CombineModel.c **** }
 1490              		.loc 1 726 15 view .LVU427
 1491 0058 F878     		ldrb	r0, [r7, #3]	@ zero_extendqisi2
 1492 005a 4001     		lsls	r0, r0, #5
 1493 005c C0B2     		uxtb	r0, r0
 726:HANcoder_E407_TTA_CombineModel.c **** }
 1494              		.loc 1 726 13 view .LVU428
 1495 005e 2873     		strb	r0, [r5, #12]
 1496              	.LVL102:
 726:HANcoder_E407_TTA_CombineModel.c **** }
 1497              		.loc 1 726 13 view .LVU429
 1498              	.LBE229:
 1499              	.LBE230:
 833:HANcoder_E407_TTA_CombineModel.c **** 
 1500              		.loc 1 833 5 is_stmt 1 view .LVU430
 1501              	.LBB231:
 1502              	.LBI231:
 737:HANcoder_E407_TTA_CombineModel.c **** {
 1503              		.loc 1 737 6 view .LVU431
 1504              	.LBB232:
 742:HANcoder_E407_TTA_CombineModel.c **** }
 1505              		.loc 1 742 3 view .LVU432
 742:HANcoder_E407_TTA_CombineModel.c **** }
 1506              		.loc 1 742 15 is_stmt 0 view .LVU433
 1507 0060 97F804A0 		ldrb	r10, [r7, #4]	@ zero_extendqisi2
 1508 0064 4FEA8A1A 		lsl	r10, r10, #6
 1509 0068 5FFA8AFA 		uxtb	r10, r10
 742:HANcoder_E407_TTA_CombineModel.c **** }
 1510              		.loc 1 742 13 view .LVU434
 1511 006c 85F80BA0 		strb	r10, [r5, #11]
 1512              	.LVL103:
 742:HANcoder_E407_TTA_CombineModel.c **** }
 1513              		.loc 1 742 13 view .LVU435
 1514              	.LBE232:
 1515              	.LBE231:
 838:HANcoder_E407_TTA_CombineModel.c **** 
 1516              		.loc 1 838 5 is_stmt 1 view .LVU436
 1517              	.LBB233:
 1518              	.LBI233:
 753:HANcoder_E407_TTA_CombineModel.c **** {
 1519              		.loc 1 753 6 view .LVU437
 1520              	.LBB234:
 758:HANcoder_E407_TTA_CombineModel.c **** }
 1521              		.loc 1 758 3 view .LVU438
 758:HANcoder_E407_TTA_CombineModel.c **** }
 1522              		.loc 1 758 15 is_stmt 0 view .LVU439
 1523 0070 7A79     		ldrb	r2, [r7, #5]	@ zero_extendqisi2
 1524 0072 D201     		lsls	r2, r2, #7
 1525 0074 D2B2     		uxtb	r2, r2
 758:HANcoder_E407_TTA_CombineModel.c **** }
 1526              		.loc 1 758 13 view .LVU440
 1527 0076 AA72     		strb	r2, [r5, #10]
 1528              	.LVL104:
 758:HANcoder_E407_TTA_CombineModel.c **** }
 1529              		.loc 1 758 13 view .LVU441
 1530              	.LBE234:
 1531              	.LBE233:
 846:HANcoder_E407_TTA_CombineModel.c ****       (uint8_T)((uint32_T)(uint8_T)((uint32_T)(uint8_T)((uint32_T)(uint8_T)
 1532              		.loc 1 846 5 is_stmt 1 view .LVU442
 846:HANcoder_E407_TTA_CombineModel.c ****       (uint8_T)((uint32_T)(uint8_T)((uint32_T)(uint8_T)((uint32_T)(uint8_T)
 1533              		.loc 1 846 19 is_stmt 0 view .LVU443
 1534 0078 1B78     		ldrb	r3, [r3]	@ zero_extendqisi2
 1535              	.LVL105:
 846:HANcoder_E407_TTA_CombineModel.c ****       (uint8_T)((uint32_T)(uint8_T)((uint32_T)(uint8_T)((uint32_T)(uint8_T)
 1536              		.loc 1 846 19 view .LVU444
 1537 007a 9944     		add	r9, r9, r3
 1538 007c CC44     		add	ip, ip, r9
 1539 007e 6044     		add	r0, r0, ip
 1540 0080 8244     		add	r10, r10, r0
 1541 0082 5244     		add	r2, r2, r10
 1542 0084 7244     		add	r2, r2, lr
 1543              	.LBB235:
 1544              	.LBB236:
 779:HANcoder_E407_TTA_CombineModel.c **** }
 1545              		.loc 1 779 15 view .LVU445
 1546 0086 0A9B     		ldr	r3, [sp, #40]
 1547              	.LBE236:
 1548              	.LBE235:
 846:HANcoder_E407_TTA_CombineModel.c ****       (uint8_T)((uint32_T)(uint8_T)((uint32_T)(uint8_T)((uint32_T)(uint8_T)
 1549              		.loc 1 846 19 view .LVU446
 1550 0088 5FFA82FA 		uxtb	r10, r2
 846:HANcoder_E407_TTA_CombineModel.c ****       (uint8_T)((uint32_T)(uint8_T)((uint32_T)(uint8_T)((uint32_T)(uint8_T)
 1551              		.loc 1 846 17 view .LVU447
 1552 008c 85F801A0 		strb	r10, [r5, #1]
 855:HANcoder_E407_TTA_CombineModel.c **** 
 1553              		.loc 1 855 5 is_stmt 1 view .LVU448
 1554              	.LVL106:
 1555              	.LBB239:
 1556              	.LBI235:
 774:HANcoder_E407_TTA_CombineModel.c **** {
 1557              		.loc 1 774 6 view .LVU449
 1558              	.LBB237:
 779:HANcoder_E407_TTA_CombineModel.c **** }
 1559              		.loc 1 779 3 view .LVU450
 779:HANcoder_E407_TTA_CombineModel.c **** }
 1560              		.loc 1 779 15 is_stmt 0 view .LVU451
 1561 0090 1F88     		ldrh	r7, [r3]
 1562              	.LBE237:
 1563              	.LBE239:
 879:HANcoder_E407_TTA_CombineModel.c **** 
 1564              		.loc 1 879 23 view .LVU452
 1565 0092 099A     		ldr	r2, [sp, #36]
 1566              	.LBB240:
 1567              	.LBB238:
 779:HANcoder_E407_TTA_CombineModel.c **** }
 1568              		.loc 1 779 15 view .LVU453
 1569 0094 3F0A     		lsrs	r7, r7, #8
 779:HANcoder_E407_TTA_CombineModel.c **** }
 1570              		.loc 1 779 13 view .LVU454
 1571 0096 2F81     		strh	r7, [r5, #8]	@ movhi
 1572              	.LVL107:
 779:HANcoder_E407_TTA_CombineModel.c **** }
 1573              		.loc 1 779 13 view .LVU455
 1574              	.LBE238:
 1575              	.LBE240:
 860:HANcoder_E407_TTA_CombineModel.c **** 
 1576              		.loc 1 860 5 is_stmt 1 view .LVU456
 860:HANcoder_E407_TTA_CombineModel.c **** 
 1577              		.loc 1 860 20 is_stmt 0 view .LVU457
 1578 0098 FFB2     		uxtb	r7, r7
 860:HANcoder_E407_TTA_CombineModel.c **** 
 1579              		.loc 1 860 18 view .LVU458
 1580 009a AF70     		strb	r7, [r5, #2]
 865:HANcoder_E407_TTA_CombineModel.c **** 
 1581              		.loc 1 865 5 is_stmt 1 view .LVU459
 865:HANcoder_E407_TTA_CombineModel.c **** 
 1582              		.loc 1 865 21 is_stmt 0 view .LVU460
 1583 009c 93F800E0 		ldrb	lr, [r3]	@ zero_extendqisi2
 1584              	.LBB241:
 1585              	.LBB242:
 779:HANcoder_E407_TTA_CombineModel.c **** }
 1586              		.loc 1 779 15 view .LVU461
 1587 00a0 099B     		ldr	r3, [sp, #36]
 1588              	.LBE242:
 1589              	.LBE241:
 865:HANcoder_E407_TTA_CombineModel.c **** 
 1590              		.loc 1 865 19 view .LVU462
 1591 00a2 85F803E0 		strb	lr, [r5, #3]
 869:HANcoder_E407_TTA_CombineModel.c **** 
 1592              		.loc 1 869 5 is_stmt 1 view .LVU463
 1593              	.LVL108:
 1594              	.LBB245:
 1595              	.LBI241:
 774:HANcoder_E407_TTA_CombineModel.c **** {
 1596              		.loc 1 774 6 view .LVU464
 1597              	.LBB243:
 779:HANcoder_E407_TTA_CombineModel.c **** }
 1598              		.loc 1 779 3 view .LVU465
 779:HANcoder_E407_TTA_CombineModel.c **** }
 1599              		.loc 1 779 15 is_stmt 0 view .LVU466
 1600 00a6 B3F800C0 		ldrh	ip, [r3]
 1601              	.LBE243:
 1602              	.LBE245:
 887:HANcoder_E407_TTA_CombineModel.c ****       canTxData.uint8_T_info[1] = localB->Cast1_i;
 1603              		.loc 1 887 33 view .LVU467
 1604 00aa 104B     		ldr	r3, .L97
 1605              	.LBB246:
 1606              	.LBB244:
 779:HANcoder_E407_TTA_CombineModel.c **** }
 1607              		.loc 1 779 15 view .LVU468
 1608 00ac 4FEA1C2C 		lsr	ip, ip, #8
 779:HANcoder_E407_TTA_CombineModel.c **** }
 1609              		.loc 1 779 13 view .LVU469
 1610 00b0 A5F806C0 		strh	ip, [r5, #6]	@ movhi
 1611              	.LVL109:
 779:HANcoder_E407_TTA_CombineModel.c **** }
 1612              		.loc 1 779 13 view .LVU470
 1613              	.LBE244:
 1614              	.LBE246:
 874:HANcoder_E407_TTA_CombineModel.c **** 
 1615              		.loc 1 874 5 is_stmt 1 view .LVU471
 874:HANcoder_E407_TTA_CombineModel.c **** 
 1616              		.loc 1 874 22 is_stmt 0 view .LVU472
 1617 00b4 5FFA8CFC 		uxtb	ip, ip
 874:HANcoder_E407_TTA_CombineModel.c **** 
 1618              		.loc 1 874 20 view .LVU473
 1619 00b8 85F804C0 		strb	ip, [r5, #4]
 879:HANcoder_E407_TTA_CombineModel.c **** 
 1620              		.loc 1 879 5 is_stmt 1 view .LVU474
 879:HANcoder_E407_TTA_CombineModel.c **** 
 1621              		.loc 1 879 23 is_stmt 0 view .LVU475
 1622 00bc 92F80090 		ldrb	r9, [r2]	@ zero_extendqisi2
 879:HANcoder_E407_TTA_CombineModel.c **** 
 1623              		.loc 1 879 21 view .LVU476
 1624 00c0 85F80590 		strb	r9, [r5, #5]
 887:HANcoder_E407_TTA_CombineModel.c ****       canTxData.uint8_T_info[1] = localB->Cast1_i;
 1625              		.loc 1 887 7 is_stmt 1 view .LVU477
 892:HANcoder_E407_TTA_CombineModel.c ****       canTxData.uint8_T_info[6] = localB->Add;
 1626              		.loc 1 892 33 is_stmt 0 view .LVU478
 1627 00c4 0020     		movs	r0, #0
 887:HANcoder_E407_TTA_CombineModel.c ****       canTxData.uint8_T_info[1] = localB->Cast1_i;
 1628              		.loc 1 887 33 view .LVU479
 1629 00c6 83F800C0 		strb	ip, [r3]
 888:HANcoder_E407_TTA_CombineModel.c ****       canTxData.uint8_T_info[2] = localB->Cast;
 1630              		.loc 1 888 7 is_stmt 1 view .LVU480
 897:HANcoder_E407_TTA_CombineModel.c ****     }
 1631              		.loc 1 897 7 is_stmt 0 view .LVU481
 1632 00ca 0822     		movs	r2, #8
 888:HANcoder_E407_TTA_CombineModel.c ****       canTxData.uint8_T_info[2] = localB->Cast;
 1633              		.loc 1 888 33 view .LVU482
 1634 00cc 83F80190 		strb	r9, [r3, #1]
 889:HANcoder_E407_TTA_CombineModel.c ****       canTxData.uint8_T_info[3] = localB->Cast1;
 1635              		.loc 1 889 7 is_stmt 1 view .LVU483
 889:HANcoder_E407_TTA_CombineModel.c ****       canTxData.uint8_T_info[3] = localB->Cast1;
 1636              		.loc 1 889 33 is_stmt 0 view .LVU484
 1637 00d0 9F70     		strb	r7, [r3, #2]
 890:HANcoder_E407_TTA_CombineModel.c ****       canTxData.uint8_T_info[4] = localB->DataStoreRead2;
 1638              		.loc 1 890 7 is_stmt 1 view .LVU485
 890:HANcoder_E407_TTA_CombineModel.c ****       canTxData.uint8_T_info[4] = localB->DataStoreRead2;
 1639              		.loc 1 890 33 is_stmt 0 view .LVU486
 1640 00d2 83F803E0 		strb	lr, [r3, #3]
 891:HANcoder_E407_TTA_CombineModel.c ****       canTxData.uint8_T_info[5] = ((uint8_T)0U);
 1641              		.loc 1 891 7 is_stmt 1 view .LVU487
 891:HANcoder_E407_TTA_CombineModel.c ****       canTxData.uint8_T_info[5] = ((uint8_T)0U);
 1642              		.loc 1 891 33 is_stmt 0 view .LVU488
 1643 00d6 83F80480 		strb	r8, [r3, #4]
 892:HANcoder_E407_TTA_CombineModel.c ****       canTxData.uint8_T_info[6] = localB->Add;
 1644              		.loc 1 892 7 is_stmt 1 view .LVU489
 893:HANcoder_E407_TTA_CombineModel.c ****       canTxData.uint8_T_info[7] = ((uint8_T)0U);
 1645              		.loc 1 893 33 is_stmt 0 view .LVU490
 1646 00da 83F806A0 		strb	r10, [r3, #6]
 892:HANcoder_E407_TTA_CombineModel.c ****       canTxData.uint8_T_info[6] = localB->Add;
 1647              		.loc 1 892 33 view .LVU491
 1648 00de 5871     		strb	r0, [r3, #5]
 893:HANcoder_E407_TTA_CombineModel.c ****       canTxData.uint8_T_info[7] = ((uint8_T)0U);
 1649              		.loc 1 893 7 is_stmt 1 view .LVU492
 894:HANcoder_E407_TTA_CombineModel.c **** 
 1650              		.loc 1 894 7 view .LVU493
 894:HANcoder_E407_TTA_CombineModel.c **** 
 1651              		.loc 1 894 33 is_stmt 0 view .LVU494
 1652 00e0 D871     		strb	r0, [r3, #7]
 897:HANcoder_E407_TTA_CombineModel.c ****     }
 1653              		.loc 1 897 7 is_stmt 1 view .LVU495
 1654 00e2 FFF7FEFF 		bl	CanTransmit
 1655              	.LVL110:
 901:HANcoder_E407_TTA_CombineModel.c **** 
 1656              		.loc 1 901 3 view .LVU496
 901:HANcoder_E407_TTA_CombineModel.c **** 
 1657              		.loc 1 901 35 is_stmt 0 view .LVU497
 1658 00e6 3470     		strb	r4, [r6]
 1659              		.loc 1 904 1 view .LVU498
 1660 00e8 BDE8F087 		pop	{r4, r5, r6, r7, r8, r9, r10, pc}
 1661              	.LVL111:
 1662              	.L98:
 1663              		.loc 1 904 1 view .LVU499
 1664              		.align	2
 1665              	.L97:
 1666 00ec 00000000 		.word	.LANCHOR8
 1667              		.cfi_endproc
 1668              	.LFE138:
 1670              		.global	__aeabi_dcmpeq
 1671              		.global	__aeabi_dmul
 1672              		.global	__aeabi_ui2d
 1673              		.global	__aeabi_dadd
 1674              		.global	__aeabi_dsub
 1675              		.global	__aeabi_dcmplt
 1676              		.global	__aeabi_dcmpgt
 1677              		.global	__aeabi_ddiv
 1678              		.global	__aeabi_d2f
 1679              		.global	__aeabi_f2d
 1680              		.global	__aeabi_i2d
 1681              		.global	__aeabi_dcmpge
 1682              		.global	__aeabi_dcmple
 1683              		.section	.rodata.HANcoder_E407_TTA_CombineModel_step.str1.4,"aMS",%progbits,1
 1684              		.align	2
 1685              	.LC0:
 1686 0000 41707043 		.ascii	"AppCtrlTask\000"
 1686      74726C54 
 1686      61736B00 
 1687              		.section	.text.HANcoder_E407_TTA_CombineModel_step,"ax",%progbits
 1688              		.align	1
 1689              		.p2align 2,,3
 1690              		.global	HANcoder_E407_TTA_CombineModel_step
 1691              		.syntax unified
 1692              		.thumb
 1693              		.thumb_func
 1695              	HANcoder_E407_TTA_CombineModel_step:
 1696              	.LFB140:
 905:HANcoder_E407_TTA_CombineModel.c **** 
 906:HANcoder_E407_TTA_CombineModel.c **** static void SystemCore_setup_l(dsp_simulink_MovingAverage *obj)
 907:HANcoder_E407_TTA_CombineModel.c **** {
 908:HANcoder_E407_TTA_CombineModel.c ****   obj->isSetupComplete = false;
 909:HANcoder_E407_TTA_CombineModel.c ****   obj->isInitialized = 1;
 910:HANcoder_E407_TTA_CombineModel.c ****   obj->NumChannels = 1;
 911:HANcoder_E407_TTA_CombineModel.c ****   obj->FrameLength = 1;
 912:HANcoder_E407_TTA_CombineModel.c ****   obj->_pobj0.isInitialized = 0;
 913:HANcoder_E407_TTA_CombineModel.c ****   obj->_pobj0.isInitialized = 0;
 914:HANcoder_E407_TTA_CombineModel.c ****   obj->pStatistic = &obj->_pobj0;
 915:HANcoder_E407_TTA_CombineModel.c ****   obj->isSetupComplete = true;
 916:HANcoder_E407_TTA_CombineModel.c ****   obj->TunablePropsChanged = false;
 917:HANcoder_E407_TTA_CombineModel.c **** }
 918:HANcoder_E407_TTA_CombineModel.c **** 
 919:HANcoder_E407_TTA_CombineModel.c **** /* Model step function */
 920:HANcoder_E407_TTA_CombineModel.c **** void HANcoder_E407_TTA_CombineModel_step(void)
 921:HANcoder_E407_TTA_CombineModel.c **** {
 1697              		.loc 1 921 1 is_stmt 1 view -0
 1698              		.cfi_startproc
 1699              		@ args = 0, pretend = 0, frame = 88
 1700              		@ frame_needed = 0, uses_anonymous_args = 0
 922:HANcoder_E407_TTA_CombineModel.c ****   /* local block i/o variables */
 923:HANcoder_E407_TTA_CombineModel.c ****   real32_T rtb_Cast_m;
 1701              		.loc 1 923 3 view .LVU501
 924:HANcoder_E407_TTA_CombineModel.c ****   real32_T rtb_Cast3;
 1702              		.loc 1 924 3 view .LVU502
 925:HANcoder_E407_TTA_CombineModel.c ****   uint8_T rtb_SFunction_o2;
 1703              		.loc 1 925 3 view .LVU503
 926:HANcoder_E407_TTA_CombineModel.c ****   uint8_T rtb_SFunction_o3;
 1704              		.loc 1 926 3 view .LVU504
 927:HANcoder_E407_TTA_CombineModel.c ****   uint8_T rtb_SFunction_o4;
 1705              		.loc 1 927 3 view .LVU505
 928:HANcoder_E407_TTA_CombineModel.c ****   uint8_T rtb_SFunction_o5;
 1706              		.loc 1 928 3 view .LVU506
 929:HANcoder_E407_TTA_CombineModel.c ****   uint8_T rtb_SFunction_o6;
 1707              		.loc 1 929 3 view .LVU507
 930:HANcoder_E407_TTA_CombineModel.c ****   uint8_T rtb_SFunction_o7;
 1708              		.loc 1 930 3 view .LVU508
 931:HANcoder_E407_TTA_CombineModel.c ****   uint8_T rtb_SFunction_o8;
 1709              		.loc 1 931 3 view .LVU509
 932:HANcoder_E407_TTA_CombineModel.c ****   uint8_T rtb_SFunction_o9;
 1710              		.loc 1 932 3 view .LVU510
 933:HANcoder_E407_TTA_CombineModel.c ****   uint8_T rtb_SFunction_o2_l;
 1711              		.loc 1 933 3 view .LVU511
 934:HANcoder_E407_TTA_CombineModel.c ****   uint8_T rtb_SFunction_o3_m;
 1712              		.loc 1 934 3 view .LVU512
 935:HANcoder_E407_TTA_CombineModel.c ****   uint8_T rtb_SFunction_o4_b;
 1713              		.loc 1 935 3 view .LVU513
 936:HANcoder_E407_TTA_CombineModel.c ****   uint8_T rtb_SFunction_o5_o;
 1714              		.loc 1 936 3 view .LVU514
 937:HANcoder_E407_TTA_CombineModel.c ****   uint8_T rtb_SFunction_o6_i;
 1715              		.loc 1 937 3 view .LVU515
 938:HANcoder_E407_TTA_CombineModel.c ****   uint8_T rtb_SFunction_o7_f;
 1716              		.loc 1 938 3 view .LVU516
 939:HANcoder_E407_TTA_CombineModel.c ****   uint8_T rtb_SFunction_o8_p;
 1717              		.loc 1 939 3 view .LVU517
 940:HANcoder_E407_TTA_CombineModel.c ****   uint8_T rtb_SFunction_o9_l;
 1718              		.loc 1 940 3 view .LVU518
 941:HANcoder_E407_TTA_CombineModel.c ****   uint8_T rtb_SFunction_o2_e;
 1719              		.loc 1 941 3 view .LVU519
 942:HANcoder_E407_TTA_CombineModel.c ****   uint8_T rtb_SFunction_o3_p;
 1720              		.loc 1 942 3 view .LVU520
 943:HANcoder_E407_TTA_CombineModel.c ****   uint8_T rtb_SFunction_o4_c;
 1721              		.loc 1 943 3 view .LVU521
 944:HANcoder_E407_TTA_CombineModel.c ****   uint8_T rtb_SFunction_o5_c;
 1722              		.loc 1 944 3 view .LVU522
 945:HANcoder_E407_TTA_CombineModel.c ****   uint8_T rtb_SFunction_o6_e;
 1723              		.loc 1 945 3 view .LVU523
 946:HANcoder_E407_TTA_CombineModel.c ****   uint8_T rtb_SFunction_o7_l;
 1724              		.loc 1 946 3 view .LVU524
 947:HANcoder_E407_TTA_CombineModel.c ****   uint8_T rtb_SFunction_o8_f;
 1725              		.loc 1 947 3 view .LVU525
 948:HANcoder_E407_TTA_CombineModel.c ****   uint8_T rtb_SFunction_o9_h;
 1726              		.loc 1 948 3 view .LVU526
 949:HANcoder_E407_TTA_CombineModel.c ****   uint8_T rtb_SFunction_o2_j;
 1727              		.loc 1 949 3 view .LVU527
 950:HANcoder_E407_TTA_CombineModel.c ****   uint8_T rtb_SFunction_o3_a;
 1728              		.loc 1 950 3 view .LVU528
 951:HANcoder_E407_TTA_CombineModel.c ****   uint8_T rtb_SFunction_o4_i;
 1729              		.loc 1 951 3 view .LVU529
 952:HANcoder_E407_TTA_CombineModel.c ****   uint8_T rtb_SFunction_o5_k;
 1730              		.loc 1 952 3 view .LVU530
 953:HANcoder_E407_TTA_CombineModel.c ****   uint8_T rtb_SFunction_o6_c;
 1731              		.loc 1 953 3 view .LVU531
 954:HANcoder_E407_TTA_CombineModel.c ****   uint8_T rtb_SFunction_o7_d;
 1732              		.loc 1 954 3 view .LVU532
 955:HANcoder_E407_TTA_CombineModel.c ****   uint8_T rtb_SFunction_o8_h;
 1733              		.loc 1 955 3 view .LVU533
 956:HANcoder_E407_TTA_CombineModel.c ****   uint8_T rtb_SFunction_o9_b;
 1734              		.loc 1 956 3 view .LVU534
 957:HANcoder_E407_TTA_CombineModel.c ****   uint8_T rtb_SFunction_o2_i;
 1735              		.loc 1 957 3 view .LVU535
 958:HANcoder_E407_TTA_CombineModel.c ****   uint8_T rtb_SFunction_o3_i;
 1736              		.loc 1 958 3 view .LVU536
 959:HANcoder_E407_TTA_CombineModel.c ****   uint8_T rtb_SFunction_o4_n;
 1737              		.loc 1 959 3 view .LVU537
 960:HANcoder_E407_TTA_CombineModel.c ****   uint8_T rtb_SFunction_o5_p;
 1738              		.loc 1 960 3 view .LVU538
 961:HANcoder_E407_TTA_CombineModel.c ****   uint8_T rtb_SFunction_o6_g;
 1739              		.loc 1 961 3 view .LVU539
 962:HANcoder_E407_TTA_CombineModel.c ****   uint8_T rtb_SFunction_o7_fg;
 1740              		.loc 1 962 3 view .LVU540
 963:HANcoder_E407_TTA_CombineModel.c ****   uint8_T rtb_SFunction_o8_i;
 1741              		.loc 1 963 3 view .LVU541
 964:HANcoder_E407_TTA_CombineModel.c ****   uint8_T rtb_SFunction_o9_o;
 1742              		.loc 1 964 3 view .LVU542
 965:HANcoder_E407_TTA_CombineModel.c ****   uint8_T rtb_SFunction_o2_n;
 1743              		.loc 1 965 3 view .LVU543
 966:HANcoder_E407_TTA_CombineModel.c ****   uint8_T rtb_SFunction_o3_l;
 1744              		.loc 1 966 3 view .LVU544
 967:HANcoder_E407_TTA_CombineModel.c ****   uint8_T rtb_SFunction_o4_m;
 1745              		.loc 1 967 3 view .LVU545
 968:HANcoder_E407_TTA_CombineModel.c ****   uint8_T rtb_SFunction_o5_i;
 1746              		.loc 1 968 3 view .LVU546
 969:HANcoder_E407_TTA_CombineModel.c ****   uint8_T rtb_SFunction_o6_o;
 1747              		.loc 1 969 3 view .LVU547
 970:HANcoder_E407_TTA_CombineModel.c ****   uint8_T rtb_SFunction_o7_j;
 1748              		.loc 1 970 3 view .LVU548
 971:HANcoder_E407_TTA_CombineModel.c ****   uint8_T rtb_SFunction_o8_d;
 1749              		.loc 1 971 3 view .LVU549
 972:HANcoder_E407_TTA_CombineModel.c ****   uint8_T rtb_SFunction_o9_lv;
 1750              		.loc 1 972 3 view .LVU550
 973:HANcoder_E407_TTA_CombineModel.c ****   uint8_T rtb_SFunction_o2_ib;
 1751              		.loc 1 973 3 view .LVU551
 974:HANcoder_E407_TTA_CombineModel.c ****   uint8_T rtb_SFunction_o3_g;
 1752              		.loc 1 974 3 view .LVU552
 975:HANcoder_E407_TTA_CombineModel.c ****   uint8_T rtb_SFunction_o4_j;
 1753              		.loc 1 975 3 view .LVU553
 976:HANcoder_E407_TTA_CombineModel.c ****   uint8_T rtb_SFunction_o5_f;
 1754              		.loc 1 976 3 view .LVU554
 977:HANcoder_E407_TTA_CombineModel.c ****   uint8_T rtb_SFunction_o6_gy;
 1755              		.loc 1 977 3 view .LVU555
 978:HANcoder_E407_TTA_CombineModel.c ****   uint8_T rtb_SFunction_o7_k;
 1756              		.loc 1 978 3 view .LVU556
 979:HANcoder_E407_TTA_CombineModel.c ****   uint8_T rtb_SFunction_o8_n;
 1757              		.loc 1 979 3 view .LVU557
 980:HANcoder_E407_TTA_CombineModel.c ****   uint8_T rtb_SFunction_o9_b1;
 1758              		.loc 1 980 3 view .LVU558
 981:HANcoder_E407_TTA_CombineModel.c ****   uint8_T rtb_SFunction_o2_c;
 1759              		.loc 1 981 3 view .LVU559
 982:HANcoder_E407_TTA_CombineModel.c ****   uint8_T rtb_SFunction_o3_f;
 1760              		.loc 1 982 3 view .LVU560
 983:HANcoder_E407_TTA_CombineModel.c ****   uint8_T rtb_SFunction_o4_k;
 1761              		.loc 1 983 3 view .LVU561
 984:HANcoder_E407_TTA_CombineModel.c ****   uint8_T rtb_SFunction_o5_h;
 1762              		.loc 1 984 3 view .LVU562
 985:HANcoder_E407_TTA_CombineModel.c ****   uint8_T rtb_SFunction_o6_k;
 1763              		.loc 1 985 3 view .LVU563
 986:HANcoder_E407_TTA_CombineModel.c ****   uint8_T rtb_SFunction_o7_e;
 1764              		.loc 1 986 3 view .LVU564
 987:HANcoder_E407_TTA_CombineModel.c ****   uint8_T rtb_SFunction_o8_pe;
 1765              		.loc 1 987 3 view .LVU565
 988:HANcoder_E407_TTA_CombineModel.c ****   uint8_T rtb_SFunction_o9_f;
 1766              		.loc 1 988 3 view .LVU566
 989:HANcoder_E407_TTA_CombineModel.c ****   uint8_T rtb_SFunction_o2_n2;
 1767              		.loc 1 989 3 view .LVU567
 990:HANcoder_E407_TTA_CombineModel.c ****   uint8_T rtb_SFunction_o3_b;
 1768              		.loc 1 990 3 view .LVU568
 991:HANcoder_E407_TTA_CombineModel.c ****   uint8_T rtb_SFunction_o4_l;
 1769              		.loc 1 991 3 view .LVU569
 992:HANcoder_E407_TTA_CombineModel.c ****   uint8_T rtb_SFunction_o5_e;
 1770              		.loc 1 992 3 view .LVU570
 993:HANcoder_E407_TTA_CombineModel.c ****   uint8_T rtb_SFunction_o6_k1;
 1771              		.loc 1 993 3 view .LVU571
 994:HANcoder_E407_TTA_CombineModel.c ****   uint8_T rtb_SFunction_o7_dj;
 1772              		.loc 1 994 3 view .LVU572
 995:HANcoder_E407_TTA_CombineModel.c ****   uint8_T rtb_SFunction_o8_n1;
 1773              		.loc 1 995 3 view .LVU573
 996:HANcoder_E407_TTA_CombineModel.c ****   uint8_T rtb_SFunction_o9_ok;
 1774              		.loc 1 996 3 view .LVU574
 997:HANcoder_E407_TTA_CombineModel.c ****   int8_T rtb_SFunction_o1;
 1775              		.loc 1 997 3 view .LVU575
 998:HANcoder_E407_TTA_CombineModel.c ****   int8_T rtb_SFunction_o1_n;
 1776              		.loc 1 998 3 view .LVU576
 999:HANcoder_E407_TTA_CombineModel.c ****   int8_T rtb_SFunction_o1_k;
 1777              		.loc 1 999 3 view .LVU577
1000:HANcoder_E407_TTA_CombineModel.c ****   int8_T rtb_SFunction_o1_k1;
 1778              		.loc 1 1000 3 view .LVU578
1001:HANcoder_E407_TTA_CombineModel.c ****   int8_T rtb_SFunction_o1_ns;
 1779              		.loc 1 1001 3 view .LVU579
1002:HANcoder_E407_TTA_CombineModel.c ****   int8_T rtb_SFunction_o1_p;
 1780              		.loc 1 1002 3 view .LVU580
1003:HANcoder_E407_TTA_CombineModel.c ****   int8_T rtb_SFunction_o1_h;
 1781              		.loc 1 1003 3 view .LVU581
1004:HANcoder_E407_TTA_CombineModel.c ****   int8_T rtb_SFunction_o1_b;
 1782              		.loc 1 1004 3 view .LVU582
1005:HANcoder_E407_TTA_CombineModel.c ****   int8_T rtb_SFunction_o1_g;
 1783              		.loc 1 1005 3 view .LVU583
1006:HANcoder_E407_TTA_CombineModel.c ****   boolean_T rtb_Level2MfileSFunction_h;
 1784              		.loc 1 1006 3 view .LVU584
1007:HANcoder_E407_TTA_CombineModel.c ****   boolean_T rtb_Level2MfileSFunction_d;
 1785              		.loc 1 1007 3 view .LVU585
1008:HANcoder_E407_TTA_CombineModel.c ****   boolean_T rtb_Equal17;
 1786              		.loc 1 1008 3 view .LVU586
1009:HANcoder_E407_TTA_CombineModel.c ****   g_dsp_internal_SlidingWindowAve *obj;
 1787              		.loc 1 1009 3 view .LVU587
1010:HANcoder_E407_TTA_CombineModel.c ****   real_T rtb_IntegralGain;
 1788              		.loc 1 1010 3 view .LVU588
1011:HANcoder_E407_TTA_CombineModel.c ****   real_T rtb_Integrator;
 1789              		.loc 1 1011 3 view .LVU589
1012:HANcoder_E407_TTA_CombineModel.c ****   real_T rtb_Integrator_tmp;
 1790              		.loc 1 1012 3 view .LVU590
1013:HANcoder_E407_TTA_CombineModel.c ****   real_T rtb_Uk1;
 1791              		.loc 1 1013 3 view .LVU591
1014:HANcoder_E407_TTA_CombineModel.c ****   real_T tmp;
 1792              		.loc 1 1014 3 view .LVU592
1015:HANcoder_E407_TTA_CombineModel.c ****   int32_T i;
 1793              		.loc 1 1015 3 view .LVU593
1016:HANcoder_E407_TTA_CombineModel.c ****   int_T idxDelay;
 1794              		.loc 1 1016 3 view .LVU594
1017:HANcoder_E407_TTA_CombineModel.c ****   real32_T csumrev[9];
 1795              		.loc 1 1017 3 view .LVU595
1018:HANcoder_E407_TTA_CombineModel.c ****   real32_T csum;
 1796              		.loc 1 1018 3 view .LVU596
1019:HANcoder_E407_TTA_CombineModel.c ****   real32_T cumRevIndex;
 1797              		.loc 1 1019 3 view .LVU597
1020:HANcoder_E407_TTA_CombineModel.c ****   real32_T modValueRev;
 1798              		.loc 1 1020 3 view .LVU598
1021:HANcoder_E407_TTA_CombineModel.c ****   real32_T z;
 1799              		.loc 1 1021 3 view .LVU599
1022:HANcoder_E407_TTA_CombineModel.c ****   uint32_T IOexecution_ELAPS_T[2];
 1800              		.loc 1 1022 3 view .LVU600
1023:HANcoder_E407_TTA_CombineModel.c ****   uint32_T IOexecution_ELAPS_T_tmp;
 1801              		.loc 1 1023 3 view .LVU601
1024:HANcoder_E407_TTA_CombineModel.c ****   int16_T u;
 1802              		.loc 1 1024 3 view .LVU602
1025:HANcoder_E407_TTA_CombineModel.c ****   uint16_T rtb_Cast_d;
 1803              		.loc 1 1025 3 view .LVU603
1026:HANcoder_E407_TTA_CombineModel.c ****   uint16_T rtb_Cast_e1;
 1804              		.loc 1 1026 3 view .LVU604
1027:HANcoder_E407_TTA_CombineModel.c ****   uint16_T rtb_Cast_g;
 1805              		.loc 1 1027 3 view .LVU605
1028:HANcoder_E407_TTA_CombineModel.c ****   uint16_T rtb_Cast_gh;
 1806              		.loc 1 1028 3 view .LVU606
1029:HANcoder_E407_TTA_CombineModel.c ****   uint16_T rtb_Cast_i;
 1807              		.loc 1 1029 3 view .LVU607
1030:HANcoder_E407_TTA_CombineModel.c ****   uint16_T rtb_Cast_j;
 1808              		.loc 1 1030 3 view .LVU608
1031:HANcoder_E407_TTA_CombineModel.c ****   uint16_T rtb_Cast_ky;
 1809              		.loc 1 1031 3 view .LVU609
1032:HANcoder_E407_TTA_CombineModel.c ****   uint16_T rtb_Cast_lr;
 1810              		.loc 1 1032 3 view .LVU610
1033:HANcoder_E407_TTA_CombineModel.c ****   uint16_T rtb_Cast_o;
 1811              		.loc 1 1033 3 view .LVU611
1034:HANcoder_E407_TTA_CombineModel.c ****   uint16_T rtb_Cast_ow;
 1812              		.loc 1 1034 3 view .LVU612
1035:HANcoder_E407_TTA_CombineModel.c ****   uint16_T rtb_DataStoreRead8;
 1813              		.loc 1 1035 3 view .LVU613
1036:HANcoder_E407_TTA_CombineModel.c ****   uint16_T rtb_TSamp;
 1814              		.loc 1 1036 3 view .LVU614
1037:HANcoder_E407_TTA_CombineModel.c ****   int8_T rtAction;
 1815              		.loc 1 1037 3 view .LVU615
1038:HANcoder_E407_TTA_CombineModel.c ****   int8_T rtPrevAction;
 1816              		.loc 1 1038 3 view .LVU616
1039:HANcoder_E407_TTA_CombineModel.c ****   uint8_T rtb_Cast1_cy;
 1817              		.loc 1 1039 3 view .LVU617
1040:HANcoder_E407_TTA_CombineModel.c ****   uint8_T rtb_Cast1_j;
 1818              		.loc 1 1040 3 view .LVU618
1041:HANcoder_E407_TTA_CombineModel.c ****   uint8_T rtb_Cast1_m;
 1819              		.loc 1 1041 3 view .LVU619
1042:HANcoder_E407_TTA_CombineModel.c ****   uint8_T rtb_Multiply;
 1820              		.loc 1 1042 3 view .LVU620
1043:HANcoder_E407_TTA_CombineModel.c ****   uint8_T rtb_Multiply1;
 1821              		.loc 1 1043 3 view .LVU621
1044:HANcoder_E407_TTA_CombineModel.c ****   boolean_T rtb_AND;
 1822              		.loc 1 1044 3 view .LVU622
1045:HANcoder_E407_TTA_CombineModel.c ****   boolean_T rtb_AND10;
 1823              		.loc 1 1045 3 view .LVU623
1046:HANcoder_E407_TTA_CombineModel.c ****   boolean_T rtb_AND13;
 1824              		.loc 1 1046 3 view .LVU624
1047:HANcoder_E407_TTA_CombineModel.c ****   boolean_T rtb_AND15;
 1825              		.loc 1 1047 3 view .LVU625
1048:HANcoder_E407_TTA_CombineModel.c ****   boolean_T rtb_AND1_k;
 1826              		.loc 1 1048 3 view .LVU626
1049:HANcoder_E407_TTA_CombineModel.c ****   boolean_T rtb_AND2;
 1827              		.loc 1 1049 3 view .LVU627
1050:HANcoder_E407_TTA_CombineModel.c ****   boolean_T rtb_AND3;
 1828              		.loc 1 1050 3 view .LVU628
1051:HANcoder_E407_TTA_CombineModel.c ****   boolean_T rtb_AND4;
 1829              		.loc 1 1051 3 view .LVU629
1052:HANcoder_E407_TTA_CombineModel.c ****   boolean_T rtb_AND5;
 1830              		.loc 1 1052 3 view .LVU630
1053:HANcoder_E407_TTA_CombineModel.c ****   boolean_T rtb_AND7;
 1831              		.loc 1 1053 3 view .LVU631
1054:HANcoder_E407_TTA_CombineModel.c ****   boolean_T rtb_AND8;
 1832              		.loc 1 1054 3 view .LVU632
1055:HANcoder_E407_TTA_CombineModel.c ****   boolean_T rtb_AND9;
 1833              		.loc 1 1055 3 view .LVU633
1056:HANcoder_E407_TTA_CombineModel.c ****   boolean_T rtb_AND_n;
 1834              		.loc 1 1056 3 view .LVU634
1057:HANcoder_E407_TTA_CombineModel.c ****   boolean_T rtb_DataStoreRead11;
 1835              		.loc 1 1057 3 view .LVU635
1058:HANcoder_E407_TTA_CombineModel.c ****   boolean_T rtb_Logic_c_idx_0;
 1836              		.loc 1 1058 3 view .LVU636
1059:HANcoder_E407_TTA_CombineModel.c ****   boolean_T rtb_Logic_f_idx_0;
 1837              		.loc 1 1059 3 view .LVU637
1060:HANcoder_E407_TTA_CombineModel.c ****   boolean_T rtb_OR1;
 1838              		.loc 1 1060 3 view .LVU638
1061:HANcoder_E407_TTA_CombineModel.c ****   ZCEventType zcEvent;
 1839              		.loc 1 1061 3 view .LVU639
1062:HANcoder_E407_TTA_CombineModel.c **** 
1063:HANcoder_E407_TTA_CombineModel.c ****   /* Outputs for Enabled SubSystem: '<S1>/Initialize Clock Schedule' incorporates:
1064:HANcoder_E407_TTA_CombineModel.c ****    *  EnablePort: '<S8>/Enable'
1065:HANcoder_E407_TTA_CombineModel.c ****    */
1066:HANcoder_E407_TTA_CombineModel.c ****   /* Logic: '<S1>/NOT' incorporates:
1067:HANcoder_E407_TTA_CombineModel.c ****    *  DataStoreRead: '<S1>/If 1 -> Clock initialized '
1068:HANcoder_E407_TTA_CombineModel.c ****    */
1069:HANcoder_E407_TTA_CombineModel.c ****   if (rtDWork.init_clock == 0.0) {
 1840              		.loc 1 1069 3 view .LVU640
 921:HANcoder_E407_TTA_CombineModel.c ****   /* local block i/o variables */
 1841              		.loc 1 921 1 is_stmt 0 view .LVU641
 1842 0000 2DE9F04F 		push	{r4, r5, r6, r7, r8, r9, r10, fp, lr}
 1843              		.cfi_def_cfa_offset 36
 1844              		.cfi_offset 4, -36
 1845              		.cfi_offset 5, -32
 1846              		.cfi_offset 6, -28
 1847              		.cfi_offset 7, -24
 1848              		.cfi_offset 8, -20
 1849              		.cfi_offset 9, -16
 1850              		.cfi_offset 10, -12
 1851              		.cfi_offset 11, -8
 1852              		.cfi_offset 14, -4
 1853 0004 2DED088B 		vpush.64	{d8, d9, d10, d11}
 1854              		.cfi_def_cfa_offset 68
 1855              		.cfi_offset 80, -68
 1856              		.cfi_offset 81, -64
 1857              		.cfi_offset 82, -60
 1858              		.cfi_offset 83, -56
 1859              		.cfi_offset 84, -52
 1860              		.cfi_offset 85, -48
 1861              		.cfi_offset 86, -44
 1862              		.cfi_offset 87, -40
 1863              		.loc 1 1069 14 view .LVU642
 1864 0008 C44C     		ldr	r4, .L458
 921:HANcoder_E407_TTA_CombineModel.c ****   /* local block i/o variables */
 1865              		.loc 1 921 1 view .LVU643
 1866 000a 9DB0     		sub	sp, sp, #116
 1867              		.cfi_def_cfa_offset 184
 1868              		.loc 1 1069 6 view .LVU644
 1869 000c D4E92401 		ldrd	r0, [r4, #144]
 1870 0010 0022     		movs	r2, #0
 1871 0012 0023     		movs	r3, #0
 1872 0014 FFF7FEFF 		bl	__aeabi_dcmpeq
 1873              	.LVL112:
 1874 0018 0028     		cmp	r0, #0
 1875 001a 40F0B287 		bne	.L421
1070:HANcoder_E407_TTA_CombineModel.c ****     rtDWork.InitializeClockSchedule_MODE = true;
1071:HANcoder_E407_TTA_CombineModel.c **** 
1072:HANcoder_E407_TTA_CombineModel.c ****     /* DataStoreWrite: '<S8>/Data Store Write' incorporates:
1073:HANcoder_E407_TTA_CombineModel.c ****      *  Constant: '<S8>/Constant2'
1074:HANcoder_E407_TTA_CombineModel.c ****      */
1075:HANcoder_E407_TTA_CombineModel.c ****     rtDWork.init_clock = 1.0;
1076:HANcoder_E407_TTA_CombineModel.c **** 
1077:HANcoder_E407_TTA_CombineModel.c ****     /* Update for M-S-Function: '<S97>/Level-2 M-file S-Function' incorporates:
1078:HANcoder_E407_TTA_CombineModel.c ****      *  Constant: '<S8>/Constant'
1079:HANcoder_E407_TTA_CombineModel.c ****      *  Constant: '<S8>/Constant1'
1080:HANcoder_E407_TTA_CombineModel.c ****      */
1081:HANcoder_E407_TTA_CombineModel.c ****     /* schedule the next output compare event */
1082:HANcoder_E407_TTA_CombineModel.c ****     TimeoutScheduleCompareEvent(TIMEOUT_TIM4_PIN_PD12, ((uint16_T)1U),
1083:HANcoder_E407_TTA_CombineModel.c ****       (tTimeoutAction)((uint8_T)3U));
1084:HANcoder_E407_TTA_CombineModel.c ****   } else if (rtDWork.InitializeClockSchedule_MODE) {
 1876              		.loc 1 1084 10 is_stmt 1 view .LVU645
 1877              		.loc 1 1084 13 is_stmt 0 view .LVU646
 1878 001e 94F86B31 		ldrb	r3, [r4, #363]	@ zero_extendqisi2
 1879 0022 002B     		cmp	r3, #0
 1880 0024 40F05087 		bne	.L422
 1881              	.L102:
1085:HANcoder_E407_TTA_CombineModel.c ****     rtDWork.InitializeClockSchedule_MODE = false;
1086:HANcoder_E407_TTA_CombineModel.c ****   }
1087:HANcoder_E407_TTA_CombineModel.c **** 
1088:HANcoder_E407_TTA_CombineModel.c ****   /* End of Logic: '<S1>/NOT' */
1089:HANcoder_E407_TTA_CombineModel.c ****   /* End of Outputs for SubSystem: '<S1>/Initialize Clock Schedule' */
1090:HANcoder_E407_TTA_CombineModel.c **** 
1091:HANcoder_E407_TTA_CombineModel.c ****   /* If: '<S1>/If1' incorporates:
1092:HANcoder_E407_TTA_CombineModel.c ****    *  DataStoreRead: '<S1>/Data Store Read2'
1093:HANcoder_E407_TTA_CombineModel.c ****    */
1094:HANcoder_E407_TTA_CombineModel.c ****   rtPrevAction = rtDWork.If1_ActiveSubsystem;
 1882              		.loc 1 1094 3 is_stmt 1 view .LVU647
 1883              	.LVL113:
1095:HANcoder_E407_TTA_CombineModel.c ****   rtAction = -1;
 1884              		.loc 1 1095 3 view .LVU648
1096:HANcoder_E407_TTA_CombineModel.c ****   if (rtDWork.Board_ID == 0) {
 1885              		.loc 1 1096 3 view .LVU649
 1886              		.loc 1 1096 6 is_stmt 0 view .LVU650
 1887 0028 94F84831 		ldrb	r3, [r4, #328]	@ zero_extendqisi2
 1888 002c 002B     		cmp	r3, #0
 1889 002e 00F05287 		beq	.L103
 1890              	.L449:
1097:HANcoder_E407_TTA_CombineModel.c ****     rtAction = 0;
1098:HANcoder_E407_TTA_CombineModel.c ****   }
1099:HANcoder_E407_TTA_CombineModel.c **** 
1100:HANcoder_E407_TTA_CombineModel.c ****   rtDWork.If1_ActiveSubsystem = rtAction;
 1891              		.loc 1 1100 3 is_stmt 1 view .LVU651
1101:HANcoder_E407_TTA_CombineModel.c ****   if ((rtPrevAction != rtAction) && (rtPrevAction == 0)) {
1102:HANcoder_E407_TTA_CombineModel.c ****   }
1103:HANcoder_E407_TTA_CombineModel.c **** 
1104:HANcoder_E407_TTA_CombineModel.c ****   if (rtAction == 0) {
1105:HANcoder_E407_TTA_CombineModel.c ****     /* Outputs for IfAction SubSystem: '<S1>/Setting ID' incorporates:
1106:HANcoder_E407_TTA_CombineModel.c ****      *  ActionPort: '<S13>/Action Port'
1107:HANcoder_E407_TTA_CombineModel.c ****      */
1108:HANcoder_E407_TTA_CombineModel.c ****     /* M-S-Function: '<S368>/Level-2 M-file S-Function' */
1109:HANcoder_E407_TTA_CombineModel.c ****     /* read from digital input */
1110:HANcoder_E407_TTA_CombineModel.c ****     rtb_Level2MfileSFunction_d = DiginGet(DIGIN_PORTG_PIN12);
1111:HANcoder_E407_TTA_CombineModel.c **** 
1112:HANcoder_E407_TTA_CombineModel.c ****     /* Product: '<S13>/Multiply' incorporates:
1113:HANcoder_E407_TTA_CombineModel.c ****      *  Constant: '<S13>/Constant1'
1114:HANcoder_E407_TTA_CombineModel.c ****      */
1115:HANcoder_E407_TTA_CombineModel.c ****     rtb_Multiply = (uint8_T)(rtb_Level2MfileSFunction_d ? (int32_T)((uint8_T)1U)
1116:HANcoder_E407_TTA_CombineModel.c ****       : 0);
1117:HANcoder_E407_TTA_CombineModel.c **** 
1118:HANcoder_E407_TTA_CombineModel.c ****     /* M-S-Function: '<S369>/Level-2 M-file S-Function' */
1119:HANcoder_E407_TTA_CombineModel.c ****     /* read from digital input */
1120:HANcoder_E407_TTA_CombineModel.c ****     rtb_Level2MfileSFunction_d = DiginGet(DIGIN_PORTG_PIN15);
1121:HANcoder_E407_TTA_CombineModel.c **** 
1122:HANcoder_E407_TTA_CombineModel.c ****     /* Product: '<S13>/Multiply1' incorporates:
1123:HANcoder_E407_TTA_CombineModel.c ****      *  Constant: '<S13>/Constant4'
1124:HANcoder_E407_TTA_CombineModel.c ****      */
1125:HANcoder_E407_TTA_CombineModel.c ****     rtb_Multiply1 = (uint8_T)(rtb_Level2MfileSFunction_d ? (int32_T)((uint8_T)2U)
1126:HANcoder_E407_TTA_CombineModel.c ****       : 0);
1127:HANcoder_E407_TTA_CombineModel.c **** 
1128:HANcoder_E407_TTA_CombineModel.c ****     /* M-S-Function: '<S370>/Level-2 M-file S-Function' */
1129:HANcoder_E407_TTA_CombineModel.c ****     /* read from digital input */
1130:HANcoder_E407_TTA_CombineModel.c ****     rtb_Level2MfileSFunction_d = DiginGet(DIGIN_PORTA_PIN4);
1131:HANcoder_E407_TTA_CombineModel.c **** 
1132:HANcoder_E407_TTA_CombineModel.c ****     /* Sum: '<S13>/Add' incorporates:
1133:HANcoder_E407_TTA_CombineModel.c ****      *  Constant: '<S13>/Constant6'
1134:HANcoder_E407_TTA_CombineModel.c ****      *  Product: '<S13>/Multiply2'
1135:HANcoder_E407_TTA_CombineModel.c ****      */
1136:HANcoder_E407_TTA_CombineModel.c ****     rtB.Add_i = (uint8_T)((uint8_T)((uint32_T)rtb_Multiply + rtb_Multiply1) +
1137:HANcoder_E407_TTA_CombineModel.c ****                           (uint32_T)(rtb_Level2MfileSFunction_d ? (int32_T)
1138:HANcoder_E407_TTA_CombineModel.c ****       ((uint8_T)4U) : 0));
1139:HANcoder_E407_TTA_CombineModel.c **** 
1140:HANcoder_E407_TTA_CombineModel.c ****     /* End of Outputs for SubSystem: '<S1>/Setting ID' */
1141:HANcoder_E407_TTA_CombineModel.c ****   }
1142:HANcoder_E407_TTA_CombineModel.c **** 
1143:HANcoder_E407_TTA_CombineModel.c ****   /* End of If: '<S1>/If1' */
1144:HANcoder_E407_TTA_CombineModel.c **** 
1145:HANcoder_E407_TTA_CombineModel.c ****   /* DataStoreWrite: '<S1>/Data Store Write1' */
1146:HANcoder_E407_TTA_CombineModel.c ****   rtDWork.Board_ID = rtB.Add_i;
 1892              		.loc 1 1146 25 is_stmt 0 view .LVU652
 1893 0032 BB4D     		ldr	r5, .L458+4
1100:HANcoder_E407_TTA_CombineModel.c ****   if ((rtPrevAction != rtAction) && (rtPrevAction == 0)) {
 1894              		.loc 1 1100 31 view .LVU653
 1895 0034 FF23     		movs	r3, #255
 1896              		.loc 1 1146 25 view .LVU654
 1897 0036 95F822A0 		ldrb	r10, [r5, #34]	@ zero_extendqisi2
1100:HANcoder_E407_TTA_CombineModel.c ****   if ((rtPrevAction != rtAction) && (rtPrevAction == 0)) {
 1898              		.loc 1 1100 31 view .LVU655
 1899 003a 84F84531 		strb	r3, [r4, #325]
 1900              	.LVL114:
1101:HANcoder_E407_TTA_CombineModel.c ****   if ((rtPrevAction != rtAction) && (rtPrevAction == 0)) {
 1901              		.loc 1 1101 3 is_stmt 1 view .LVU656
1102:HANcoder_E407_TTA_CombineModel.c **** 
 1902              		.loc 1 1102 3 view .LVU657
1104:HANcoder_E407_TTA_CombineModel.c ****     /* Outputs for IfAction SubSystem: '<S1>/Setting ID' incorporates:
 1903              		.loc 1 1104 3 view .LVU658
 1904              	.L104:
 1905              		.loc 1 1146 3 view .LVU659
1147:HANcoder_E407_TTA_CombineModel.c **** 
1148:HANcoder_E407_TTA_CombineModel.c ****   /* Logic: '<S12>/AND' incorporates:
1149:HANcoder_E407_TTA_CombineModel.c ****    *  Constant: '<S12>/Constant'
1150:HANcoder_E407_TTA_CombineModel.c ****    *  Constant: '<S12>/Constant4'
1151:HANcoder_E407_TTA_CombineModel.c ****    *  DataStoreRead: '<S1>/Data Store Read3'
1152:HANcoder_E407_TTA_CombineModel.c ****    *  RelationalOperator: '<S12>/Less Than'
1153:HANcoder_E407_TTA_CombineModel.c ****    */
1154:HANcoder_E407_TTA_CombineModel.c ****   rtb_AND = ((ClockOn != 0.0) && (rtDWork.Board_ID == ((uint8_T)1U)));
 1906              		.loc 1 1154 23 is_stmt 0 view .LVU660
 1907 003e B949     		ldr	r1, .L458+8
1146:HANcoder_E407_TTA_CombineModel.c **** 
 1908              		.loc 1 1146 20 view .LVU661
 1909 0040 84F848A1 		strb	r10, [r4, #328]
 1910              		.loc 1 1154 3 is_stmt 1 view .LVU662
 1911              		.loc 1 1154 31 is_stmt 0 view .LVU663
 1912 0044 D1E90001 		ldrd	r0, [r1]
 1913 0048 0022     		movs	r2, #0
 1914 004a 0023     		movs	r3, #0
 1915 004c FFF7FEFF 		bl	__aeabi_dcmpeq
 1916              	.LVL115:
 1917 0050 18B9     		cbnz	r0, .L107
 1918              		.loc 1 1154 31 discriminator 1 view .LVU664
 1919 0052 BAF1010F 		cmp	r10, #1
 1920 0056 01F07C81 		beq	.L423
 1921              	.L107:
 1922              	.LVL116:
1155:HANcoder_E407_TTA_CombineModel.c **** 
1156:HANcoder_E407_TTA_CombineModel.c ****   /* Logic: '<S12>/OR' incorporates:
1157:HANcoder_E407_TTA_CombineModel.c ****    *  DataStoreRead: '<S12>/Data Store Read2'
1158:HANcoder_E407_TTA_CombineModel.c ****    */
1159:HANcoder_E407_TTA_CombineModel.c ****   rtB.OR = (rtb_AND || rtDWork.slaveClockOn);
 1923              		.loc 1 1159 3 is_stmt 1 view .LVU665
 1924              		.loc 1 1159 21 is_stmt 0 view .LVU666
 1925 005a 94F85131 		ldrb	r3, [r4, #337]	@ zero_extendqisi2
1154:HANcoder_E407_TTA_CombineModel.c **** 
 1926              		.loc 1 1154 11 view .LVU667
 1927 005e 0022     		movs	r2, #0
 1928              		.loc 1 1159 10 view .LVU668
 1929 0060 9B1A     		subs	r3, r3, r2
1154:HANcoder_E407_TTA_CombineModel.c **** 
 1930              		.loc 1 1154 11 view .LVU669
 1931 0062 0992     		str	r2, [sp, #36]
 1932              		.loc 1 1159 10 view .LVU670
 1933 0064 18BF     		it	ne
 1934 0066 0123     		movne	r3, #1
1154:HANcoder_E407_TTA_CombineModel.c **** 
 1935              		.loc 1 1154 31 view .LVU671
 1936 0068 0892     		str	r2, [sp, #32]
 1937              	.LVL117:
 1938              	.L269:
 1939              		.loc 1 1159 10 discriminator 6 view .LVU672
 1940 006a 85F82930 		strb	r3, [r5, #41]
1160:HANcoder_E407_TTA_CombineModel.c **** 
1161:HANcoder_E407_TTA_CombineModel.c ****   /* End of Outputs for S-Function (sfcn_timeout_event_irq): '<S4>/S-Function' */
1162:HANcoder_E407_TTA_CombineModel.c **** 
1163:HANcoder_E407_TTA_CombineModel.c ****   /* Logic: '<S14>/OR1' incorporates:
1164:HANcoder_E407_TTA_CombineModel.c ****    *  Constant: '<S14>/Constant27'
1165:HANcoder_E407_TTA_CombineModel.c ****    *  Constant: '<S14>/Constant4'
1166:HANcoder_E407_TTA_CombineModel.c ****    *  RelationalOperator: '<S14>/Equal19'
1167:HANcoder_E407_TTA_CombineModel.c ****    *  RelationalOperator: '<S14>/Equal4'
1168:HANcoder_E407_TTA_CombineModel.c ****    */
1169:HANcoder_E407_TTA_CombineModel.c ****   rtb_OR1 = ((slotSelected == 5.0) || (slotSelected == 10.0));
 1941              		.loc 1 1169 3 is_stmt 1 discriminator 6 view .LVU673
 1942              		.loc 1 1169 28 is_stmt 0 discriminator 6 view .LVU674
 1943 006e AE4B     		ldr	r3, .L458+12
 1944 0070 1B78     		ldrb	r3, [r3]	@ zero_extendqisi2
 1945 0072 07EE903A 		vmov	s15, r3	@ int
 1946 0076 F8EEE77A 		vcvt.f32.s32	s15, s15
 1947              		.loc 1 1169 36 discriminator 6 view .LVU675
 1948 007a B1EE047A 		vmov.f32	s14, #5.0e+0
 1949 007e F4EE477A 		vcmp.f32	s15, s14
 1950 0082 F1EE10FA 		vmrs	APSR_nzcv, FPSCR
 1951 0086 00F00B82 		beq	.L109
 1952              		.loc 1 1169 36 discriminator 2 view .LVU676
 1953 008a B2EE047A 		vmov.f32	s14, #1.0e+1
 1954 008e F4EE477A 		vcmp.f32	s15, s14
 1955 0092 F1EE10FA 		vmrs	APSR_nzcv, FPSCR
 1956 0096 00F00382 		beq	.L109
 1957              	.LVL118:
1170:HANcoder_E407_TTA_CombineModel.c **** 
1171:HANcoder_E407_TTA_CombineModel.c ****   /* Outputs for Triggered SubSystem: '<S1>/Control execution' incorporates:
1172:HANcoder_E407_TTA_CombineModel.c ****    *  TriggerPort: '<S5>/Trigger'
1173:HANcoder_E407_TTA_CombineModel.c ****    */
1174:HANcoder_E407_TTA_CombineModel.c ****   if (rtb_OR1 && (rtPrevZCSigState.Controlexecution_Trig_ZCE != POS_ZCSIG)) {
 1958              		.loc 1 1174 3 is_stmt 1 view .LVU677
1175:HANcoder_E407_TTA_CombineModel.c ****     /* DataStoreRead: '<S5>/Data Store Read' */
1176:HANcoder_E407_TTA_CombineModel.c ****     reqAngle = rtDWork.requestedAngle;
1177:HANcoder_E407_TTA_CombineModel.c **** 
1178:HANcoder_E407_TTA_CombineModel.c ****     /* Product: '<S73>/Product' incorporates:
1179:HANcoder_E407_TTA_CombineModel.c ****      *  Constant: '<S19>/TrailUnitWheelbase'
1180:HANcoder_E407_TTA_CombineModel.c ****      *  Trigonometry: '<S73>/tan '
1181:HANcoder_E407_TTA_CombineModel.c ****      */
1182:HANcoder_E407_TTA_CombineModel.c ****     rtb_Uk1 = tan(reqAngle) * rtConstB.Abs / 4.0;
1183:HANcoder_E407_TTA_CombineModel.c **** 
1184:HANcoder_E407_TTA_CombineModel.c ****     /* DataStoreRead: '<S5>/Data Store Read2' */
1185:HANcoder_E407_TTA_CombineModel.c ****     t2Angle = rtDWork.trailerTwoAngle;
1186:HANcoder_E407_TTA_CombineModel.c **** 
1187:HANcoder_E407_TTA_CombineModel.c ****     /* DataStoreRead: '<S5>/Data Store Read1' */
1188:HANcoder_E407_TTA_CombineModel.c ****     t1Angle = rtDWork.trailerOneAngle;
1189:HANcoder_E407_TTA_CombineModel.c **** 
1190:HANcoder_E407_TTA_CombineModel.c ****     /* Sum: '<S19>/Sum2' */
1191:HANcoder_E407_TTA_CombineModel.c ****     Gamma2 = (uint16_T)(t1Angle - t2Angle);
1192:HANcoder_E407_TTA_CombineModel.c **** 
1193:HANcoder_E407_TTA_CombineModel.c ****     /* Trigonometry: '<S71>/tan 1' incorporates:
1194:HANcoder_E407_TTA_CombineModel.c ****      *  DataTypeConversion: '<S71>/Cast'
1195:HANcoder_E407_TTA_CombineModel.c ****      *  Trigonometry: '<S72>/tan '
1196:HANcoder_E407_TTA_CombineModel.c ****      */
1197:HANcoder_E407_TTA_CombineModel.c ****     rtb_IntegralGain = sin(Gamma2);
1198:HANcoder_E407_TTA_CombineModel.c **** 
1199:HANcoder_E407_TTA_CombineModel.c ****     /* Trigonometry: '<S71>/tan 2' incorporates:
1200:HANcoder_E407_TTA_CombineModel.c ****      *  DataTypeConversion: '<S71>/Cast'
1201:HANcoder_E407_TTA_CombineModel.c ****      *  Trigonometry: '<S72>/tan 1'
1202:HANcoder_E407_TTA_CombineModel.c ****      */
1203:HANcoder_E407_TTA_CombineModel.c ****     rtb_Integrator_tmp = cos(Gamma2);
1204:HANcoder_E407_TTA_CombineModel.c **** 
1205:HANcoder_E407_TTA_CombineModel.c ****     /* Sum: '<S71>/Add' incorporates:
1206:HANcoder_E407_TTA_CombineModel.c ****      *  Constant: '<S19>/TrailUnitWheelbase'
1207:HANcoder_E407_TTA_CombineModel.c ****      *  Constant: '<S5>/Constant'
1208:HANcoder_E407_TTA_CombineModel.c ****      *  Product: '<S71>/Product1'
1209:HANcoder_E407_TTA_CombineModel.c ****      *  Product: '<S71>/Product2'
1210:HANcoder_E407_TTA_CombineModel.c ****      *  Trigonometry: '<S71>/tan 1'
1211:HANcoder_E407_TTA_CombineModel.c ****      *  Trigonometry: '<S71>/tan 2'
1212:HANcoder_E407_TTA_CombineModel.c ****      */
1213:HANcoder_E407_TTA_CombineModel.c ****     rtb_Integrator = rtb_Uk1 * 4.0 * rtb_IntegralGain + rtb_Integrator_tmp * 0.5;
1214:HANcoder_E407_TTA_CombineModel.c **** 
1215:HANcoder_E407_TTA_CombineModel.c ****     /* Sum: '<S19>/Sum1' incorporates:
1216:HANcoder_E407_TTA_CombineModel.c ****      *  Constant: '<S5>/Constant1'
1217:HANcoder_E407_TTA_CombineModel.c ****      */
1218:HANcoder_E407_TTA_CombineModel.c ****     Gamma1 = 0.0 - (real_T)t1Angle;
1219:HANcoder_E407_TTA_CombineModel.c **** 
1220:HANcoder_E407_TTA_CombineModel.c ****     /* Product: '<S72>/Product' incorporates:
1221:HANcoder_E407_TTA_CombineModel.c ****      *  Constant: '<S19>/RearAxleToHitch'
1222:HANcoder_E407_TTA_CombineModel.c ****      *  Constant: '<S19>/TrailUnitWheelbase'
1223:HANcoder_E407_TTA_CombineModel.c ****      *  Constant: '<S5>/Constant'
1224:HANcoder_E407_TTA_CombineModel.c ****      *  Gain: '<S72>/Gain'
1225:HANcoder_E407_TTA_CombineModel.c ****      *  Product: '<S72>/Product1'
1226:HANcoder_E407_TTA_CombineModel.c ****      *  Product: '<S72>/Product3'
1227:HANcoder_E407_TTA_CombineModel.c ****      *  Sum: '<S72>/Add'
1228:HANcoder_E407_TTA_CombineModel.c ****      */
1229:HANcoder_E407_TTA_CombineModel.c ****     rtb_IntegralGain = (0.5 / 1.0 * rtb_IntegralGain * (-1.0) +
1230:HANcoder_E407_TTA_CombineModel.c ****                         rtb_Integrator_tmp / 1.0 * 4.0 * rtb_Uk1) *
1231:HANcoder_E407_TTA_CombineModel.c ****       (rtConstB.signV2 * rtConstB.signL0b);
1232:HANcoder_E407_TTA_CombineModel.c **** 
1233:HANcoder_E407_TTA_CombineModel.c ****     /* Trigonometry: '<S76>/tan ' incorporates:
1234:HANcoder_E407_TTA_CombineModel.c ****      *  DataTypeConversion: '<S76>/Cast'
1235:HANcoder_E407_TTA_CombineModel.c ****      *  Trigonometry: '<S75>/tan 1'
1236:HANcoder_E407_TTA_CombineModel.c ****      */
1237:HANcoder_E407_TTA_CombineModel.c ****     rtb_Uk1 = sin(Gamma1);
1238:HANcoder_E407_TTA_CombineModel.c **** 
1239:HANcoder_E407_TTA_CombineModel.c ****     /* Trigonometry: '<S76>/tan 1' incorporates:
1240:HANcoder_E407_TTA_CombineModel.c ****      *  DataTypeConversion: '<S76>/Cast'
1241:HANcoder_E407_TTA_CombineModel.c ****      *  Trigonometry: '<S75>/tan 2'
1242:HANcoder_E407_TTA_CombineModel.c ****      */
1243:HANcoder_E407_TTA_CombineModel.c ****     rtb_Integrator_tmp = cos(Gamma1);
1244:HANcoder_E407_TTA_CombineModel.c **** 
1245:HANcoder_E407_TTA_CombineModel.c ****     /* Signum: '<S76>/Sign' */
1246:HANcoder_E407_TTA_CombineModel.c ****     if (rtb_Integrator < 0.0) {
1247:HANcoder_E407_TTA_CombineModel.c ****       tmp = -1.0;
1248:HANcoder_E407_TTA_CombineModel.c ****     } else {
1249:HANcoder_E407_TTA_CombineModel.c ****       tmp = (rtb_Integrator > 0.0);
1250:HANcoder_E407_TTA_CombineModel.c ****     }
1251:HANcoder_E407_TTA_CombineModel.c **** 
1252:HANcoder_E407_TTA_CombineModel.c ****     /* Trigonometry: '<S74>/tan 1' incorporates:
1253:HANcoder_E407_TTA_CombineModel.c ****      *  Constant: '<S19>/RearAxleToHitch'
1254:HANcoder_E407_TTA_CombineModel.c ****      *  Constant: '<S19>/TractorWheelbase'
1255:HANcoder_E407_TTA_CombineModel.c ****      *  Constant: '<S19>/TrailUnitWheelbase'
1256:HANcoder_E407_TTA_CombineModel.c ****      *  DataTypeConversion: '<S74>/Cast'
1257:HANcoder_E407_TTA_CombineModel.c ****      *  Gain: '<S76>/Gain'
1258:HANcoder_E407_TTA_CombineModel.c ****      *  Product: '<S74>/Product1'
1259:HANcoder_E407_TTA_CombineModel.c ****      *  Product: '<S75>/Product1'
1260:HANcoder_E407_TTA_CombineModel.c ****      *  Product: '<S75>/Product2'
1261:HANcoder_E407_TTA_CombineModel.c ****      *  Product: '<S76>/Product'
1262:HANcoder_E407_TTA_CombineModel.c ****      *  Product: '<S76>/Product1'
1263:HANcoder_E407_TTA_CombineModel.c ****      *  Product: '<S76>/Product3'
1264:HANcoder_E407_TTA_CombineModel.c ****      *  Signum: '<S76>/Sign'
1265:HANcoder_E407_TTA_CombineModel.c ****      *  Sum: '<S75>/Add'
1266:HANcoder_E407_TTA_CombineModel.c ****      *  Sum: '<S76>/Add'
1267:HANcoder_E407_TTA_CombineModel.c ****      *  Trigonometry: '<S76>/tan '
1268:HANcoder_E407_TTA_CombineModel.c ****      *  Trigonometry: '<S76>/tan 1'
1269:HANcoder_E407_TTA_CombineModel.c ****      */
1270:HANcoder_E407_TTA_CombineModel.c ****     delta12K = (real32_T)atan((real32_T)((rtb_Integrator / 1.0 * rtb_Uk1 * (-1.0)
1271:HANcoder_E407_TTA_CombineModel.c ****       + rtb_Integrator_tmp / 1.0 * 4.0 * rtb_IntegralGain) * (tmp *
1272:HANcoder_E407_TTA_CombineModel.c ****       rtConstB.signL0b_o) * 3.0 / (rtb_IntegralGain * 4.0 * rtb_Uk1 +
1273:HANcoder_E407_TTA_CombineModel.c ****       rtb_Integrator_tmp * rtb_Integrator)));
1274:HANcoder_E407_TTA_CombineModel.c **** 
1275:HANcoder_E407_TTA_CombineModel.c ****     /* Gain: '<S18>/Gain2' incorporates:
1276:HANcoder_E407_TTA_CombineModel.c ****      *  DataTypeConversion: '<S18>/Cast3'
1277:HANcoder_E407_TTA_CombineModel.c ****      */
1278:HANcoder_E407_TTA_CombineModel.c ****     steering = 45.6 * delta12K;
1279:HANcoder_E407_TTA_CombineModel.c **** 
1280:HANcoder_E407_TTA_CombineModel.c ****     /* Gain: '<S18>/Gain1' incorporates:
1281:HANcoder_E407_TTA_CombineModel.c ****      *  DataStoreRead: '<S18>/Data Store Read'
1282:HANcoder_E407_TTA_CombineModel.c ****      */
1283:HANcoder_E407_TTA_CombineModel.c ****     position = (real_T)1717986918 * 5.8207660913467407E-11 * (real_T)
1284:HANcoder_E407_TTA_CombineModel.c ****       rtDWork.encoderPosition;
1285:HANcoder_E407_TTA_CombineModel.c **** 
1286:HANcoder_E407_TTA_CombineModel.c ****     /* Sum: '<S18>/Sum' incorporates:
1287:HANcoder_E407_TTA_CombineModel.c ****      *  Rounding: '<S18>/Round'
1288:HANcoder_E407_TTA_CombineModel.c ****      *  Rounding: '<S18>/Round1'
1289:HANcoder_E407_TTA_CombineModel.c ****      */
1290:HANcoder_E407_TTA_CombineModel.c ****     control = floor(steering) - floor(position);
1291:HANcoder_E407_TTA_CombineModel.c **** 
1292:HANcoder_E407_TTA_CombineModel.c ****     /* Abs: '<S18>/Abs' */
1293:HANcoder_E407_TTA_CombineModel.c ****     rtb_IntegralGain = fabs(control);
1294:HANcoder_E407_TTA_CombineModel.c **** 
1295:HANcoder_E407_TTA_CombineModel.c ****     /* Sum: '<S63>/Sum' incorporates:
1296:HANcoder_E407_TTA_CombineModel.c ****      *  DiscreteIntegrator: '<S54>/Integrator'
1297:HANcoder_E407_TTA_CombineModel.c ****      *  Gain: '<S59>/Proportional Gain'
1298:HANcoder_E407_TTA_CombineModel.c ****      */
1299:HANcoder_E407_TTA_CombineModel.c ****     rtb_Uk1 = propVal * rtb_IntegralGain + rtDWork.Integrator_DSTATE;
1300:HANcoder_E407_TTA_CombineModel.c **** 
1301:HANcoder_E407_TTA_CombineModel.c ****     /* Saturate: '<S61>/Saturation' */
1302:HANcoder_E407_TTA_CombineModel.c ****     if (rtb_Uk1 > 300.0) {
1303:HANcoder_E407_TTA_CombineModel.c ****       tmp = 300.0;
1304:HANcoder_E407_TTA_CombineModel.c ****     } else if (rtb_Uk1 < 0.0) {
1305:HANcoder_E407_TTA_CombineModel.c ****       tmp = 0.0;
1306:HANcoder_E407_TTA_CombineModel.c ****     } else {
1307:HANcoder_E407_TTA_CombineModel.c ****       tmp = rtb_Uk1;
1308:HANcoder_E407_TTA_CombineModel.c ****     }
1309:HANcoder_E407_TTA_CombineModel.c **** 
1310:HANcoder_E407_TTA_CombineModel.c ****     /* Sum: '<S18>/Add' incorporates:
1311:HANcoder_E407_TTA_CombineModel.c ****      *  Constant: '<S18>/Motor dead zone'
1312:HANcoder_E407_TTA_CombineModel.c ****      *  DataTypeConversion: '<S18>/Cast'
1313:HANcoder_E407_TTA_CombineModel.c ****      *  Saturate: '<S61>/Saturation'
1314:HANcoder_E407_TTA_CombineModel.c ****      */
1315:HANcoder_E407_TTA_CombineModel.c ****     mospeed = (uint16_T)((uint32_T)((uint16_T)500U) + (uint16_T)tmp);
1316:HANcoder_E407_TTA_CombineModel.c **** 
1317:HANcoder_E407_TTA_CombineModel.c ****     /* DataStoreWrite: '<S5>/Data Store Write' */
1318:HANcoder_E407_TTA_CombineModel.c ****     rtDWork.pwmMotor = mospeed;
1319:HANcoder_E407_TTA_CombineModel.c **** 
1320:HANcoder_E407_TTA_CombineModel.c ****     /* RelationalOperator: '<S10>/Equal17' incorporates:
1321:HANcoder_E407_TTA_CombineModel.c ****      *  Constant: '<S18>/Constant'
1322:HANcoder_E407_TTA_CombineModel.c ****      *  RelationalOperator: '<S18>/GreaterThan1'
1323:HANcoder_E407_TTA_CombineModel.c ****      */
1324:HANcoder_E407_TTA_CombineModel.c ****     rtb_Equal17 = (rtb_IntegralGain > controlWidth);
1325:HANcoder_E407_TTA_CombineModel.c **** 
1326:HANcoder_E407_TTA_CombineModel.c ****     /* DataTypeConversion: '<S18>/Cast1' incorporates:
1327:HANcoder_E407_TTA_CombineModel.c ****      *  Constant: '<S18>/Constant1'
1328:HANcoder_E407_TTA_CombineModel.c ****      *  RelationalOperator: '<S18>/GreaterThan'
1329:HANcoder_E407_TTA_CombineModel.c ****      */
1330:HANcoder_E407_TTA_CombineModel.c ****     cw = (control > 0.0);
1331:HANcoder_E407_TTA_CombineModel.c **** 
1332:HANcoder_E407_TTA_CombineModel.c ****     /* Logic: '<S18>/AND' incorporates:
1333:HANcoder_E407_TTA_CombineModel.c ****      *  DataStoreWrite: '<S5>/Data Store Write1'
1334:HANcoder_E407_TTA_CombineModel.c ****      */
1335:HANcoder_E407_TTA_CombineModel.c ****     rtDWork.cwMotor = (rtb_Equal17 && cw);
1336:HANcoder_E407_TTA_CombineModel.c **** 
1337:HANcoder_E407_TTA_CombineModel.c ****     /* Logic: '<S18>/NOT' */
1338:HANcoder_E407_TTA_CombineModel.c ****     ccw = !cw;
1339:HANcoder_E407_TTA_CombineModel.c **** 
1340:HANcoder_E407_TTA_CombineModel.c ****     /* Logic: '<S18>/AND1' incorporates:
1341:HANcoder_E407_TTA_CombineModel.c ****      *  DataStoreWrite: '<S5>/Data Store Write8'
1342:HANcoder_E407_TTA_CombineModel.c ****      */
1343:HANcoder_E407_TTA_CombineModel.c ****     rtDWork.ccwMotor = (rtb_Equal17 && ccw);
1344:HANcoder_E407_TTA_CombineModel.c **** 
1345:HANcoder_E407_TTA_CombineModel.c ****     /* DeadZone: '<S47>/DeadZone' */
1346:HANcoder_E407_TTA_CombineModel.c ****     if (rtb_Uk1 > 300.0) {
1347:HANcoder_E407_TTA_CombineModel.c ****       rtb_Uk1 -= 300.0;
1348:HANcoder_E407_TTA_CombineModel.c ****     } else if (rtb_Uk1 >= 0.0) {
1349:HANcoder_E407_TTA_CombineModel.c ****       rtb_Uk1 = 0.0;
1350:HANcoder_E407_TTA_CombineModel.c ****     } else {
1351:HANcoder_E407_TTA_CombineModel.c ****       rtb_Uk1 -= 0.0;
1352:HANcoder_E407_TTA_CombineModel.c ****     }
1353:HANcoder_E407_TTA_CombineModel.c **** 
1354:HANcoder_E407_TTA_CombineModel.c ****     /* End of DeadZone: '<S47>/DeadZone' */
1355:HANcoder_E407_TTA_CombineModel.c **** 
1356:HANcoder_E407_TTA_CombineModel.c ****     /* Gain: '<S51>/Integral Gain' */
1357:HANcoder_E407_TTA_CombineModel.c ****     rtb_IntegralGain *= intVal;
1358:HANcoder_E407_TTA_CombineModel.c **** 
1359:HANcoder_E407_TTA_CombineModel.c ****     /* Switch: '<S45>/Switch1' incorporates:
1360:HANcoder_E407_TTA_CombineModel.c ****      *  Constant: '<S45>/Clamping_zero'
1361:HANcoder_E407_TTA_CombineModel.c ****      *  Constant: '<S45>/Constant'
1362:HANcoder_E407_TTA_CombineModel.c ****      *  Constant: '<S45>/Constant2'
1363:HANcoder_E407_TTA_CombineModel.c ****      *  RelationalOperator: '<S45>/fix for DT propagation issue'
1364:HANcoder_E407_TTA_CombineModel.c ****      */
1365:HANcoder_E407_TTA_CombineModel.c ****     if (rtb_Uk1 > 0.0) {
1366:HANcoder_E407_TTA_CombineModel.c ****       rtPrevAction = 1;
1367:HANcoder_E407_TTA_CombineModel.c ****     } else {
1368:HANcoder_E407_TTA_CombineModel.c ****       rtPrevAction = (-1);
1369:HANcoder_E407_TTA_CombineModel.c ****     }
1370:HANcoder_E407_TTA_CombineModel.c **** 
1371:HANcoder_E407_TTA_CombineModel.c ****     /* Switch: '<S45>/Switch2' incorporates:
1372:HANcoder_E407_TTA_CombineModel.c ****      *  Constant: '<S45>/Clamping_zero'
1373:HANcoder_E407_TTA_CombineModel.c ****      *  Constant: '<S45>/Constant3'
1374:HANcoder_E407_TTA_CombineModel.c ****      *  Constant: '<S45>/Constant4'
1375:HANcoder_E407_TTA_CombineModel.c ****      *  RelationalOperator: '<S45>/fix for DT propagation issue1'
1376:HANcoder_E407_TTA_CombineModel.c ****      */
1377:HANcoder_E407_TTA_CombineModel.c ****     if (rtb_IntegralGain > 0.0) {
1378:HANcoder_E407_TTA_CombineModel.c ****       rtAction = 1;
1379:HANcoder_E407_TTA_CombineModel.c ****     } else {
1380:HANcoder_E407_TTA_CombineModel.c ****       rtAction = (-1);
1381:HANcoder_E407_TTA_CombineModel.c ****     }
1382:HANcoder_E407_TTA_CombineModel.c **** 
1383:HANcoder_E407_TTA_CombineModel.c ****     /* Switch: '<S45>/Switch' incorporates:
1384:HANcoder_E407_TTA_CombineModel.c ****      *  Constant: '<S45>/Clamping_zero'
1385:HANcoder_E407_TTA_CombineModel.c ****      *  Constant: '<S45>/Constant1'
1386:HANcoder_E407_TTA_CombineModel.c ****      *  Logic: '<S45>/AND3'
1387:HANcoder_E407_TTA_CombineModel.c ****      *  RelationalOperator: '<S45>/Equal1'
1388:HANcoder_E407_TTA_CombineModel.c ****      *  RelationalOperator: '<S45>/Relational Operator'
1389:HANcoder_E407_TTA_CombineModel.c ****      *  Switch: '<S45>/Switch1'
1390:HANcoder_E407_TTA_CombineModel.c ****      *  Switch: '<S45>/Switch2'
1391:HANcoder_E407_TTA_CombineModel.c ****      */
1392:HANcoder_E407_TTA_CombineModel.c ****     if ((0.0 != rtb_Uk1) && (rtPrevAction == rtAction)) {
1393:HANcoder_E407_TTA_CombineModel.c ****       rtb_IntegralGain = 0.0;
1394:HANcoder_E407_TTA_CombineModel.c ****     }
1395:HANcoder_E407_TTA_CombineModel.c **** 
1396:HANcoder_E407_TTA_CombineModel.c ****     /* Update for DiscreteIntegrator: '<S54>/Integrator' incorporates:
1397:HANcoder_E407_TTA_CombineModel.c ****      *  Switch: '<S45>/Switch'
1398:HANcoder_E407_TTA_CombineModel.c ****      */
1399:HANcoder_E407_TTA_CombineModel.c ****     rtDWork.Integrator_DSTATE += 1.0 * rtb_IntegralGain;
1400:HANcoder_E407_TTA_CombineModel.c ****     if (rtDWork.Integrator_DSTATE >= 100.0) {
1401:HANcoder_E407_TTA_CombineModel.c ****       rtDWork.Integrator_DSTATE = 100.0;
1402:HANcoder_E407_TTA_CombineModel.c ****     } else if (rtDWork.Integrator_DSTATE <= 0.0) {
1403:HANcoder_E407_TTA_CombineModel.c ****       rtDWork.Integrator_DSTATE = 0.0;
1404:HANcoder_E407_TTA_CombineModel.c ****     }
1405:HANcoder_E407_TTA_CombineModel.c **** 
1406:HANcoder_E407_TTA_CombineModel.c ****     /* End of Update for DiscreteIntegrator: '<S54>/Integrator' */
1407:HANcoder_E407_TTA_CombineModel.c ****   }
1408:HANcoder_E407_TTA_CombineModel.c **** 
1409:HANcoder_E407_TTA_CombineModel.c ****   rtPrevZCSigState.Controlexecution_Trig_ZCE = rtb_OR1;
 1959              		.loc 1 1409 3 view .LVU678
 1960              		.loc 1 1409 46 is_stmt 0 view .LVU679
 1961 009a DFF8D8B2 		ldr	fp, .L458+88
 1962 009e 0023     		movs	r3, #0
 1963 00a0 8BF80C30 		strb	r3, [fp, #12]
 1964              	.LVL119:
 1965              	.L412:
1410:HANcoder_E407_TTA_CombineModel.c **** 
1411:HANcoder_E407_TTA_CombineModel.c ****   /* End of Outputs for SubSystem: '<S1>/Control execution' */
1412:HANcoder_E407_TTA_CombineModel.c **** 
1413:HANcoder_E407_TTA_CombineModel.c ****   /* Outputs for Triggered SubSystem: '<S1>/IO execution' incorporates:
1414:HANcoder_E407_TTA_CombineModel.c ****    *  TriggerPort: '<S7>/Trigger'
1415:HANcoder_E407_TTA_CombineModel.c ****    */
1416:HANcoder_E407_TTA_CombineModel.c ****   if (rtb_OR1 && (rtPrevZCSigState.IOexecution_Trig_ZCE != POS_ZCSIG)) {
 1966              		.loc 1 1416 3 is_stmt 1 view .LVU680
1417:HANcoder_E407_TTA_CombineModel.c ****     IOexecution_ELAPS_T_tmp = rtM->Timing.clockTick0;
1418:HANcoder_E407_TTA_CombineModel.c ****     IOexecution_ELAPS_T[0] = IOexecution_ELAPS_T_tmp -
1419:HANcoder_E407_TTA_CombineModel.c ****       rtDWork.IOexecution_PREV_T[0];
1420:HANcoder_E407_TTA_CombineModel.c ****     rtDWork.IOexecution_PREV_T[0] = IOexecution_ELAPS_T_tmp;
1421:HANcoder_E407_TTA_CombineModel.c ****     rtDWork.IOexecution_PREV_T[1] = rtM->Timing.clockTickH0;
1422:HANcoder_E407_TTA_CombineModel.c **** 
1423:HANcoder_E407_TTA_CombineModel.c ****     /* Delay: '<S79>/Delay' */
1424:HANcoder_E407_TTA_CombineModel.c ****     mf1 = rtDWork.Delay_DSTATE[0];
1425:HANcoder_E407_TTA_CombineModel.c **** 
1426:HANcoder_E407_TTA_CombineModel.c ****     /* Delay: '<S79>/Delay1' */
1427:HANcoder_E407_TTA_CombineModel.c ****     mf2 = rtDWork.Delay1_DSTATE[0];
1428:HANcoder_E407_TTA_CombineModel.c **** 
1429:HANcoder_E407_TTA_CombineModel.c ****     /* Delay: '<S79>/Delay2' */
1430:HANcoder_E407_TTA_CombineModel.c ****     mf3 = rtDWork.Delay2_DSTATE[0];
1431:HANcoder_E407_TTA_CombineModel.c **** 
1432:HANcoder_E407_TTA_CombineModel.c ****     /* Delay: '<S79>/Delay4' */
1433:HANcoder_E407_TTA_CombineModel.c ****     mf4 = rtDWork.Delay4_DSTATE[0];
1434:HANcoder_E407_TTA_CombineModel.c **** 
1435:HANcoder_E407_TTA_CombineModel.c ****     /* Delay: '<S79>/Delay3' */
1436:HANcoder_E407_TTA_CombineModel.c ****     mf5 = rtDWork.Delay3_DSTATE[0];
1437:HANcoder_E407_TTA_CombineModel.c **** 
1438:HANcoder_E407_TTA_CombineModel.c ****     /* RelationalOperator: '<S10>/Equal17' incorporates:
1439:HANcoder_E407_TTA_CombineModel.c ****      *  Logic: '<S79>/AND1'
1440:HANcoder_E407_TTA_CombineModel.c ****      */
1441:HANcoder_E407_TTA_CombineModel.c ****     rtb_Equal17 = (mf1 && mf2 && mf3 && mf4 && mf5);
1442:HANcoder_E407_TTA_CombineModel.c **** 
1443:HANcoder_E407_TTA_CombineModel.c ****     /* CombinatorialLogic: '<S91>/Logic' incorporates:
1444:HANcoder_E407_TTA_CombineModel.c ****      *  Memory: '<S91>/Memory'
1445:HANcoder_E407_TTA_CombineModel.c ****      */
1446:HANcoder_E407_TTA_CombineModel.c ****     rtb_Logic_c_idx_0 = rtConstP.pooled23[((((uint32_T)rtb_Equal17 << 1) + false)
1447:HANcoder_E407_TTA_CombineModel.c ****       << 1) + rtDWork.Memory_PreviousInput_d1];
1448:HANcoder_E407_TTA_CombineModel.c **** 
1449:HANcoder_E407_TTA_CombineModel.c ****     /* RelationalOperator: '<S10>/Equal17' incorporates:
1450:HANcoder_E407_TTA_CombineModel.c ****      *  Constant: '<S79>/Constant2'
1451:HANcoder_E407_TTA_CombineModel.c ****      *  DataStoreRead: '<S1>/Data Store Read1'
1452:HANcoder_E407_TTA_CombineModel.c ****      *  RelationalOperator: '<S79>/Equal1'
1453:HANcoder_E407_TTA_CombineModel.c ****      */
1454:HANcoder_E407_TTA_CombineModel.c ****     rtb_Equal17 = (rtDWork.Board_ID == ((uint8_T)1U));
1455:HANcoder_E407_TTA_CombineModel.c **** 
1456:HANcoder_E407_TTA_CombineModel.c ****     /* Logic: '<S79>/AND2' */
1457:HANcoder_E407_TTA_CombineModel.c ****     motorFaultDetected = (rtb_Logic_c_idx_0 && rtb_Equal17);
1458:HANcoder_E407_TTA_CombineModel.c **** 
1459:HANcoder_E407_TTA_CombineModel.c ****     /* DataStoreWrite: '<S79>/Data Store Write' */
1460:HANcoder_E407_TTA_CombineModel.c ****     rtDWork.motorFailed = motorFaultDetected;
1461:HANcoder_E407_TTA_CombineModel.c **** 
1462:HANcoder_E407_TTA_CombineModel.c ****     /* DataStoreRead: '<S79>/Data Store Read5' */
1463:HANcoder_E407_TTA_CombineModel.c ****     potRaw = rtDWork.potentiometer1Raw;
1464:HANcoder_E407_TTA_CombineModel.c **** 
1465:HANcoder_E407_TTA_CombineModel.c ****     /* DataStoreRead: '<S79>/Data Store Read6' */
1466:HANcoder_E407_TTA_CombineModel.c ****     lastPot = rtDWork.lastPot1;
1467:HANcoder_E407_TTA_CombineModel.c **** 
1468:HANcoder_E407_TTA_CombineModel.c ****     /* Sum: '<S79>/Add' incorporates:
1469:HANcoder_E407_TTA_CombineModel.c ****      *  DataTypeConversion: '<S79>/Cast'
1470:HANcoder_E407_TTA_CombineModel.c ****      *  DataTypeConversion: '<S79>/Cast1'
1471:HANcoder_E407_TTA_CombineModel.c ****      */
1472:HANcoder_E407_TTA_CombineModel.c ****     u = (int16_T)((int16_T)potRaw - (int16_T)lastPot);
1473:HANcoder_E407_TTA_CombineModel.c **** 
1474:HANcoder_E407_TTA_CombineModel.c ****     /* Abs: '<S79>/Abs' */
1475:HANcoder_E407_TTA_CombineModel.c ****     if (u < 0) {
1476:HANcoder_E407_TTA_CombineModel.c ****       u = (int16_T)-u;
1477:HANcoder_E407_TTA_CombineModel.c ****     }
1478:HANcoder_E407_TTA_CombineModel.c **** 
1479:HANcoder_E407_TTA_CombineModel.c ****     /* RelationalOperator: '<S10>/Equal17' incorporates:
1480:HANcoder_E407_TTA_CombineModel.c ****      *  Abs: '<S79>/Abs'
1481:HANcoder_E407_TTA_CombineModel.c ****      *  Constant: '<S79>/Constant1'
1482:HANcoder_E407_TTA_CombineModel.c ****      *  Delay: '<S79>/Delay6'
1483:HANcoder_E407_TTA_CombineModel.c ****      *  Logic: '<S79>/AND3'
1484:HANcoder_E407_TTA_CombineModel.c ****      *  RelationalOperator: '<S79>/GreaterThan1'
1485:HANcoder_E407_TTA_CombineModel.c ****      */
1486:HANcoder_E407_TTA_CombineModel.c ****     rtb_Equal17 = ((u > 500) && rtDWork.Delay6_DSTATE[0]);
1487:HANcoder_E407_TTA_CombineModel.c **** 
1488:HANcoder_E407_TTA_CombineModel.c ****     /* CombinatorialLogic: '<S92>/Logic' incorporates:
1489:HANcoder_E407_TTA_CombineModel.c ****      *  Memory: '<S92>/Memory'
1490:HANcoder_E407_TTA_CombineModel.c ****      */
1491:HANcoder_E407_TTA_CombineModel.c ****     rtb_Logic_f_idx_0 = rtConstP.pooled23[((((uint32_T)rtb_Equal17 << 1) + false)
1492:HANcoder_E407_TTA_CombineModel.c ****       << 1) + rtDWork.Memory_PreviousInput_a];
1493:HANcoder_E407_TTA_CombineModel.c **** 
1494:HANcoder_E407_TTA_CombineModel.c ****     /* DataStoreWrite: '<S79>/Data Store Write2' */
1495:HANcoder_E407_TTA_CombineModel.c ****     rtDWork.potFault = rtb_Logic_f_idx_0;
1496:HANcoder_E407_TTA_CombineModel.c **** 
1497:HANcoder_E407_TTA_CombineModel.c ****     /* Delay: '<S79>/Delay7' incorporates:
1498:HANcoder_E407_TTA_CombineModel.c ****      *  DataStoreWrite: '<S79>/Data Store Write1'
1499:HANcoder_E407_TTA_CombineModel.c ****      */
1500:HANcoder_E407_TTA_CombineModel.c ****     rtDWork.lastPot1 = rtDWork.Delay7_DSTATE[0];
1501:HANcoder_E407_TTA_CombineModel.c **** 
1502:HANcoder_E407_TTA_CombineModel.c ****     /* Logic: '<S79>/AND' incorporates:
1503:HANcoder_E407_TTA_CombineModel.c ****      *  Constant: '<S79>/Constant'
1504:HANcoder_E407_TTA_CombineModel.c ****      *  DataStoreRead: '<S79>/Data Store Read2'
1505:HANcoder_E407_TTA_CombineModel.c ****      *  DataStoreRead: '<S79>/Data Store Read4'
1506:HANcoder_E407_TTA_CombineModel.c ****      *  Delay: '<S79>/Delay5'
1507:HANcoder_E407_TTA_CombineModel.c ****      *  RelationalOperator: '<S79>/Equal'
1508:HANcoder_E407_TTA_CombineModel.c ****      *  RelationalOperator: '<S79>/GreaterThan'
1509:HANcoder_E407_TTA_CombineModel.c ****      */
1510:HANcoder_E407_TTA_CombineModel.c ****     rtb_AND_n = ((rtDWork.Delay5_DSTATE[0] == rtDWork.encoderPosition) &&
1511:HANcoder_E407_TTA_CombineModel.c ****                  (rtDWork.pwmMotor > ((uint16_T)650U)));
1512:HANcoder_E407_TTA_CombineModel.c **** 
1513:HANcoder_E407_TTA_CombineModel.c ****     /* SampleTimeMath: '<S90>/TSamp'
1514:HANcoder_E407_TTA_CombineModel.c ****      *
1515:HANcoder_E407_TTA_CombineModel.c ****      * About '<S90>/TSamp':
1516:HANcoder_E407_TTA_CombineModel.c ****      *  y = u * K where K = 1 / ( w * Ts )
1517:HANcoder_E407_TTA_CombineModel.c ****      */
1518:HANcoder_E407_TTA_CombineModel.c ****     rtb_TSamp = (uint16_T)(potRaw * 1000U / IOexecution_ELAPS_T[0]);
1519:HANcoder_E407_TTA_CombineModel.c **** 
1520:HANcoder_E407_TTA_CombineModel.c ****     /* Sum: '<S90>/Diff' incorporates:
1521:HANcoder_E407_TTA_CombineModel.c ****      *  UnitDelay: '<S90>/UD'
1522:HANcoder_E407_TTA_CombineModel.c ****      *
1523:HANcoder_E407_TTA_CombineModel.c ****      * Block description for '<S90>/Diff':
1524:HANcoder_E407_TTA_CombineModel.c ****      *
1525:HANcoder_E407_TTA_CombineModel.c ****      *  Add in CPU
1526:HANcoder_E407_TTA_CombineModel.c ****      *
1527:HANcoder_E407_TTA_CombineModel.c ****      * Block description for '<S90>/UD':
1528:HANcoder_E407_TTA_CombineModel.c ****      *
1529:HANcoder_E407_TTA_CombineModel.c ****      *  Store in Global RAM
1530:HANcoder_E407_TTA_CombineModel.c ****      */
1531:HANcoder_E407_TTA_CombineModel.c ****     derivative = (uint16_T)(rtb_TSamp - rtDWork.UD_DSTATE);
1532:HANcoder_E407_TTA_CombineModel.c **** 
1533:HANcoder_E407_TTA_CombineModel.c ****     /* DataStoreRead: '<S79>/Data Store Read11' */
1534:HANcoder_E407_TTA_CombineModel.c ****     rtb_DataStoreRead11 = rtDWork.ioInitialized;
1535:HANcoder_E407_TTA_CombineModel.c **** 
1536:HANcoder_E407_TTA_CombineModel.c ****     /* MATLABSystem: '<S79>/Moving Average' */
1537:HANcoder_E407_TTA_CombineModel.c ****     if (rtDWork.obj.TunablePropsChanged) {
1538:HANcoder_E407_TTA_CombineModel.c ****       rtDWork.obj.TunablePropsChanged = false;
1539:HANcoder_E407_TTA_CombineModel.c ****     }
1540:HANcoder_E407_TTA_CombineModel.c **** 
1541:HANcoder_E407_TTA_CombineModel.c ****     obj = rtDWork.obj.pStatistic;
1542:HANcoder_E407_TTA_CombineModel.c ****     if (obj->isInitialized != 1) {
1543:HANcoder_E407_TTA_CombineModel.c ****       obj->isSetupComplete = false;
1544:HANcoder_E407_TTA_CombineModel.c ****       obj->isInitialized = 1;
1545:HANcoder_E407_TTA_CombineModel.c ****       obj->pCumSum = 0.0F;
1546:HANcoder_E407_TTA_CombineModel.c ****       for (i = 0; i < 9; i++) {
1547:HANcoder_E407_TTA_CombineModel.c ****         obj->pCumSumRev[i] = 0.0F;
1548:HANcoder_E407_TTA_CombineModel.c ****       }
1549:HANcoder_E407_TTA_CombineModel.c **** 
1550:HANcoder_E407_TTA_CombineModel.c ****       obj->pCumRevIndex = 1.0F;
1551:HANcoder_E407_TTA_CombineModel.c ****       obj->pModValueRev = 0.0F;
1552:HANcoder_E407_TTA_CombineModel.c ****       obj->isSetupComplete = true;
1553:HANcoder_E407_TTA_CombineModel.c ****       obj->pCumSum = 0.0F;
1554:HANcoder_E407_TTA_CombineModel.c ****       for (i = 0; i < 9; i++) {
1555:HANcoder_E407_TTA_CombineModel.c ****         obj->pCumSumRev[i] = 0.0F;
1556:HANcoder_E407_TTA_CombineModel.c ****       }
1557:HANcoder_E407_TTA_CombineModel.c **** 
1558:HANcoder_E407_TTA_CombineModel.c ****       obj->pCumRevIndex = 1.0F;
1559:HANcoder_E407_TTA_CombineModel.c ****       obj->pModValueRev = 0.0F;
1560:HANcoder_E407_TTA_CombineModel.c ****     }
1561:HANcoder_E407_TTA_CombineModel.c **** 
1562:HANcoder_E407_TTA_CombineModel.c ****     cumRevIndex = obj->pCumRevIndex;
1563:HANcoder_E407_TTA_CombineModel.c ****     csum = obj->pCumSum;
1564:HANcoder_E407_TTA_CombineModel.c ****     for (i = 0; i < 9; i++) {
1565:HANcoder_E407_TTA_CombineModel.c ****       csumrev[i] = obj->pCumSumRev[i];
1566:HANcoder_E407_TTA_CombineModel.c ****     }
1567:HANcoder_E407_TTA_CombineModel.c **** 
1568:HANcoder_E407_TTA_CombineModel.c ****     modValueRev = obj->pModValueRev;
1569:HANcoder_E407_TTA_CombineModel.c ****     z = 0.0F;
1570:HANcoder_E407_TTA_CombineModel.c **** 
1571:HANcoder_E407_TTA_CombineModel.c ****     /* MATLABSystem: '<S79>/Moving Average' */
1572:HANcoder_E407_TTA_CombineModel.c ****     derivativeMean = 0.0F;
1573:HANcoder_E407_TTA_CombineModel.c **** 
1574:HANcoder_E407_TTA_CombineModel.c ****     /* MATLABSystem: '<S79>/Moving Average' incorporates:
1575:HANcoder_E407_TTA_CombineModel.c ****      *  DataTypeConversion: '<S79>/Cast2'
1576:HANcoder_E407_TTA_CombineModel.c ****      */
1577:HANcoder_E407_TTA_CombineModel.c ****     csum += (real32_T)derivative;
1578:HANcoder_E407_TTA_CombineModel.c ****     if (modValueRev == 0.0F) {
1579:HANcoder_E407_TTA_CombineModel.c ****       z = csumrev[(int32_T)cumRevIndex - 1] + csum;
1580:HANcoder_E407_TTA_CombineModel.c ****     }
1581:HANcoder_E407_TTA_CombineModel.c **** 
1582:HANcoder_E407_TTA_CombineModel.c ****     csumrev[(int32_T)cumRevIndex - 1] = derivative;
1583:HANcoder_E407_TTA_CombineModel.c ****     if (cumRevIndex != 9.0F) {
1584:HANcoder_E407_TTA_CombineModel.c ****       cumRevIndex++;
1585:HANcoder_E407_TTA_CombineModel.c ****     } else {
1586:HANcoder_E407_TTA_CombineModel.c ****       cumRevIndex = 1.0F;
1587:HANcoder_E407_TTA_CombineModel.c ****       csum = 0.0F;
1588:HANcoder_E407_TTA_CombineModel.c ****       for (i = 7; i >= 0; i--) {
1589:HANcoder_E407_TTA_CombineModel.c ****         csumrev[i] += csumrev[i + 1];
1590:HANcoder_E407_TTA_CombineModel.c ****       }
1591:HANcoder_E407_TTA_CombineModel.c ****     }
1592:HANcoder_E407_TTA_CombineModel.c **** 
1593:HANcoder_E407_TTA_CombineModel.c ****     if (modValueRev == 0.0F) {
1594:HANcoder_E407_TTA_CombineModel.c ****       /* MATLABSystem: '<S79>/Moving Average' */
1595:HANcoder_E407_TTA_CombineModel.c ****       derivativeMean = z / 10.0F;
1596:HANcoder_E407_TTA_CombineModel.c ****     }
1597:HANcoder_E407_TTA_CombineModel.c **** 
1598:HANcoder_E407_TTA_CombineModel.c ****     obj->pCumSum = csum;
1599:HANcoder_E407_TTA_CombineModel.c ****     for (i = 0; i < 9; i++) {
1600:HANcoder_E407_TTA_CombineModel.c ****       obj->pCumSumRev[i] = csumrev[i];
1601:HANcoder_E407_TTA_CombineModel.c ****     }
1602:HANcoder_E407_TTA_CombineModel.c **** 
1603:HANcoder_E407_TTA_CombineModel.c ****     obj->pCumRevIndex = cumRevIndex;
1604:HANcoder_E407_TTA_CombineModel.c ****     if (modValueRev > 0.0F) {
1605:HANcoder_E407_TTA_CombineModel.c ****       obj->pModValueRev = modValueRev - 1.0F;
1606:HANcoder_E407_TTA_CombineModel.c ****     } else {
1607:HANcoder_E407_TTA_CombineModel.c ****       obj->pModValueRev = 0.0F;
1608:HANcoder_E407_TTA_CombineModel.c ****     }
1609:HANcoder_E407_TTA_CombineModel.c **** 
1610:HANcoder_E407_TTA_CombineModel.c ****     /* Outputs for Enabled SubSystem: '<S79>/Triggered Subsystem' incorporates:
1611:HANcoder_E407_TTA_CombineModel.c ****      *  EnablePort: '<S93>/Enable'
1612:HANcoder_E407_TTA_CombineModel.c ****      */
1613:HANcoder_E407_TTA_CombineModel.c ****     /* Logic: '<S79>/NOT' incorporates:
1614:HANcoder_E407_TTA_CombineModel.c ****      *  DataStoreRead: '<S79>/Data Store Read1'
1615:HANcoder_E407_TTA_CombineModel.c ****      *  DataStoreRead: '<S79>/Data Store Read9'
1616:HANcoder_E407_TTA_CombineModel.c ****      *  Logic: '<S79>/OR'
1617:HANcoder_E407_TTA_CombineModel.c ****      */
1618:HANcoder_E407_TTA_CombineModel.c ****     if ((!rtDWork.node4Active) && (!rtDWork.potReadNode4Fail)) {
1619:HANcoder_E407_TTA_CombineModel.c ****       /* Gain: '<S93>/Gain' incorporates:
1620:HANcoder_E407_TTA_CombineModel.c ****        *  DataStoreRead: '<S93>/Data Store Read'
1621:HANcoder_E407_TTA_CombineModel.c ****        *  DataStoreWrite: '<S93>/Data Store Write1'
1622:HANcoder_E407_TTA_CombineModel.c ****        */
1623:HANcoder_E407_TTA_CombineModel.c ****       rtDWork.trailerOneAngle = (uint16_T)(((uint32_T)((uint16_T)62602U) *
1624:HANcoder_E407_TTA_CombineModel.c ****         rtDWork.potentiometer2) >> 22);
1625:HANcoder_E407_TTA_CombineModel.c ****     } else {
1626:HANcoder_E407_TTA_CombineModel.c ****       /* Outputs for Enabled SubSystem: '<S79>/Triggered Subsystem1' incorporates:
1627:HANcoder_E407_TTA_CombineModel.c ****        *  EnablePort: '<S94>/Enable'
1628:HANcoder_E407_TTA_CombineModel.c ****        */
1629:HANcoder_E407_TTA_CombineModel.c ****       /* Gain: '<S94>/Gain' incorporates:
1630:HANcoder_E407_TTA_CombineModel.c ****        *  DataStoreRead: '<S94>/Data Store Read1'
1631:HANcoder_E407_TTA_CombineModel.c ****        *  DataStoreWrite: '<S94>/Data Store Write1'
1632:HANcoder_E407_TTA_CombineModel.c ****        */
1633:HANcoder_E407_TTA_CombineModel.c ****       rtDWork.trailerOneAngle = (uint16_T)(((uint32_T)((uint16_T)62602U) *
1634:HANcoder_E407_TTA_CombineModel.c ****         rtDWork.pot4_1) >> 22);
1635:HANcoder_E407_TTA_CombineModel.c **** 
1636:HANcoder_E407_TTA_CombineModel.c ****       /* End of Outputs for SubSystem: '<S79>/Triggered Subsystem1' */
1637:HANcoder_E407_TTA_CombineModel.c ****     }
1638:HANcoder_E407_TTA_CombineModel.c **** 
1639:HANcoder_E407_TTA_CombineModel.c ****     /* End of Logic: '<S79>/NOT' */
1640:HANcoder_E407_TTA_CombineModel.c ****     /* End of Outputs for SubSystem: '<S79>/Triggered Subsystem' */
1641:HANcoder_E407_TTA_CombineModel.c **** 
1642:HANcoder_E407_TTA_CombineModel.c ****     /* Outputs for Enabled SubSystem: '<S79>/Triggered Subsystem2' incorporates:
1643:HANcoder_E407_TTA_CombineModel.c ****      *  EnablePort: '<S95>/Enable'
1644:HANcoder_E407_TTA_CombineModel.c ****      */
1645:HANcoder_E407_TTA_CombineModel.c ****     /* Logic: '<S79>/NOT1' incorporates:
1646:HANcoder_E407_TTA_CombineModel.c ****      *  DataStoreRead: '<S79>/Data Store Read10'
1647:HANcoder_E407_TTA_CombineModel.c ****      *  DataStoreRead: '<S79>/Data Store Read3'
1648:HANcoder_E407_TTA_CombineModel.c ****      *  Logic: '<S79>/OR1'
1649:HANcoder_E407_TTA_CombineModel.c ****      */
1650:HANcoder_E407_TTA_CombineModel.c ****     if ((!rtDWork.node5Active) && (!rtDWork.potReadNode5Fail)) {
1651:HANcoder_E407_TTA_CombineModel.c ****       /* Gain: '<S95>/Gain' incorporates:
1652:HANcoder_E407_TTA_CombineModel.c ****        *  DataStoreRead: '<S95>/Data Store Read'
1653:HANcoder_E407_TTA_CombineModel.c ****        *  DataStoreWrite: '<S95>/Data Store Write1'
1654:HANcoder_E407_TTA_CombineModel.c ****        */
1655:HANcoder_E407_TTA_CombineModel.c ****       rtDWork.trailerOneAngle = (uint16_T)(((uint32_T)((uint16_T)62602U) *
1656:HANcoder_E407_TTA_CombineModel.c ****         rtDWork.pot4_2) >> 22);
1657:HANcoder_E407_TTA_CombineModel.c ****     } else {
1658:HANcoder_E407_TTA_CombineModel.c ****       /* Outputs for Enabled SubSystem: '<S79>/Triggered Subsystem3' incorporates:
1659:HANcoder_E407_TTA_CombineModel.c ****        *  EnablePort: '<S96>/Enable'
1660:HANcoder_E407_TTA_CombineModel.c ****        */
1661:HANcoder_E407_TTA_CombineModel.c ****       /* Gain: '<S96>/Gain' incorporates:
1662:HANcoder_E407_TTA_CombineModel.c ****        *  DataStoreRead: '<S96>/Data Store Read1'
1663:HANcoder_E407_TTA_CombineModel.c ****        *  DataStoreWrite: '<S96>/Data Store Write1'
1664:HANcoder_E407_TTA_CombineModel.c ****        */
1665:HANcoder_E407_TTA_CombineModel.c ****       rtDWork.trailerOneAngle = (uint16_T)(((uint32_T)((uint16_T)62602U) *
1666:HANcoder_E407_TTA_CombineModel.c ****         rtDWork.pot5_1) >> 22);
1667:HANcoder_E407_TTA_CombineModel.c **** 
1668:HANcoder_E407_TTA_CombineModel.c ****       /* End of Outputs for SubSystem: '<S79>/Triggered Subsystem3' */
1669:HANcoder_E407_TTA_CombineModel.c ****     }
1670:HANcoder_E407_TTA_CombineModel.c **** 
1671:HANcoder_E407_TTA_CombineModel.c ****     /* End of Logic: '<S79>/NOT1' */
1672:HANcoder_E407_TTA_CombineModel.c ****     /* End of Outputs for SubSystem: '<S79>/Triggered Subsystem2' */
1673:HANcoder_E407_TTA_CombineModel.c **** 
1674:HANcoder_E407_TTA_CombineModel.c ****     /* DataStoreRead: '<S79>/Data Store Read7' */
1675:HANcoder_E407_TTA_CombineModel.c ****     i = rtDWork.encoderPosition;
1676:HANcoder_E407_TTA_CombineModel.c **** 
1677:HANcoder_E407_TTA_CombineModel.c ****     /* DataStoreRead: '<S79>/Data Store Read8' */
1678:HANcoder_E407_TTA_CombineModel.c ****     rtb_DataStoreRead8 = rtDWork.potentiometer1Raw;
1679:HANcoder_E407_TTA_CombineModel.c **** 
1680:HANcoder_E407_TTA_CombineModel.c ****     /* M-S-Function: '<S82>/Level-2 M-file S-Function' */
1681:HANcoder_E407_TTA_CombineModel.c ****     /* read from analog input for filtered inputs*/
1682:HANcoder_E407_TTA_CombineModel.c ****     analogPot1 = AninGet(ANIN_PORTF_PIN7,0);
1683:HANcoder_E407_TTA_CombineModel.c **** 
1684:HANcoder_E407_TTA_CombineModel.c ****     /* DataTypeConversion: '<S77>/Cast' */
1685:HANcoder_E407_TTA_CombineModel.c ****     rtb_Cast_m = analogPot1;
1686:HANcoder_E407_TTA_CombineModel.c ****     MovingAverage(rtb_Cast_m, &rtB.MovingAverage_p, &rtDWork.MovingAverage_p);
1687:HANcoder_E407_TTA_CombineModel.c **** 
1688:HANcoder_E407_TTA_CombineModel.c ****     /* DataTypeConversion: '<S77>/Cast1' */
1689:HANcoder_E407_TTA_CombineModel.c ****     pot1 = (uint16_T)rtB.MovingAverage_p.MovingAverage_n;
1690:HANcoder_E407_TTA_CombineModel.c **** 
1691:HANcoder_E407_TTA_CombineModel.c ****     /* DataStoreWrite: '<S77>/Data Store Write1' */
1692:HANcoder_E407_TTA_CombineModel.c ****     rtDWork.potentiometer1 = pot1;
1693:HANcoder_E407_TTA_CombineModel.c **** 
1694:HANcoder_E407_TTA_CombineModel.c ****     /* DataStoreWrite: '<S77>/Data Store Write4' */
1695:HANcoder_E407_TTA_CombineModel.c ****     rtDWork.potentiometer1Raw = analogPot1;
1696:HANcoder_E407_TTA_CombineModel.c **** 
1697:HANcoder_E407_TTA_CombineModel.c ****     /* M-S-Function: '<S83>/Level-2 M-file S-Function' */
1698:HANcoder_E407_TTA_CombineModel.c ****     /* read from analog input for filtered inputs*/
1699:HANcoder_E407_TTA_CombineModel.c ****     analogPot2 = AninGet(ANIN_PORTF_PIN8,0);
1700:HANcoder_E407_TTA_CombineModel.c **** 
1701:HANcoder_E407_TTA_CombineModel.c ****     /* DataTypeConversion: '<S77>/Cast3' */
1702:HANcoder_E407_TTA_CombineModel.c ****     rtb_Cast3 = analogPot2;
1703:HANcoder_E407_TTA_CombineModel.c ****     MovingAverage(rtb_Cast3, &rtB.MovingAverage1, &rtDWork.MovingAverage1);
1704:HANcoder_E407_TTA_CombineModel.c **** 
1705:HANcoder_E407_TTA_CombineModel.c ****     /* DataTypeConversion: '<S77>/Cast2' */
1706:HANcoder_E407_TTA_CombineModel.c ****     pot2 = (uint16_T)rtB.MovingAverage1.MovingAverage_n;
1707:HANcoder_E407_TTA_CombineModel.c **** 
1708:HANcoder_E407_TTA_CombineModel.c ****     /* DataStoreWrite: '<S77>/Data Store Write3' */
1709:HANcoder_E407_TTA_CombineModel.c ****     rtDWork.potentiometer2 = pot2;
1710:HANcoder_E407_TTA_CombineModel.c **** 
1711:HANcoder_E407_TTA_CombineModel.c ****     /* M-S-Function: '<S80>/Level-2 M-file S-Function' */
1712:HANcoder_E407_TTA_CombineModel.c ****     /* read from digital input */
1713:HANcoder_E407_TTA_CombineModel.c ****     rtb_Equal17 = DiginGet(DIGIN_PORTA_PIN0);
1714:HANcoder_E407_TTA_CombineModel.c **** 
1715:HANcoder_E407_TTA_CombineModel.c ****     /* DataTypeConversion: '<S77>/Cast4' incorporates:
1716:HANcoder_E407_TTA_CombineModel.c ****      *  DataStoreWrite: '<S77>/Data Store Write6'
1717:HANcoder_E407_TTA_CombineModel.c ****      */
1718:HANcoder_E407_TTA_CombineModel.c ****     rtDWork.buttonPress = rtb_Equal17;
1719:HANcoder_E407_TTA_CombineModel.c **** 
1720:HANcoder_E407_TTA_CombineModel.c ****     /* DataStoreWrite: '<S77>/Data Store Write5' */
1721:HANcoder_E407_TTA_CombineModel.c ****     rtDWork.ioInitialized = ioInit;
1722:HANcoder_E407_TTA_CombineModel.c **** 
1723:HANcoder_E407_TTA_CombineModel.c ****     /* Gain: '<S77>/Gain' incorporates:
1724:HANcoder_E407_TTA_CombineModel.c ****      *  Constant: '<S77>/Constant2'
1725:HANcoder_E407_TTA_CombineModel.c ****      *  DataStoreWrite: '<S77>/Data Store Write2'
1726:HANcoder_E407_TTA_CombineModel.c ****      */
1727:HANcoder_E407_TTA_CombineModel.c ****     rtDWork.requestedAngle = 0.015001500150015003 * desiredAngle;
1728:HANcoder_E407_TTA_CombineModel.c **** 
1729:HANcoder_E407_TTA_CombineModel.c ****     /* M-S-Function: '<S81>/Level-2 M-file S-Function' */
1730:HANcoder_E407_TTA_CombineModel.c ****     /* determine if the counter needs a reset  */
1731:HANcoder_E407_TTA_CombineModel.c ****     if (rtB.DataTypeConversion > 0) {
1732:HANcoder_E407_TTA_CombineModel.c ****       QuadEncResetCounter(QUADENC_TIM3_PA6_PB5);
1733:HANcoder_E407_TTA_CombineModel.c ****     }
1734:HANcoder_E407_TTA_CombineModel.c **** 
1735:HANcoder_E407_TTA_CombineModel.c ****     /* read counter from the quadrature encoder module */
1736:HANcoder_E407_TTA_CombineModel.c ****     motorPos = QuadEncGetCounter(QUADENC_TIM3_PA6_PB5);
1737:HANcoder_E407_TTA_CombineModel.c **** 
1738:HANcoder_E407_TTA_CombineModel.c ****     /* DataStoreWrite: '<S77>/Data Store Write' */
1739:HANcoder_E407_TTA_CombineModel.c ****     rtDWork.encoderPosition = motorPos;
1740:HANcoder_E407_TTA_CombineModel.c **** 
1741:HANcoder_E407_TTA_CombineModel.c ****     /* DataTypeConversion: '<S81>/Data Type Conversion' incorporates:
1742:HANcoder_E407_TTA_CombineModel.c ****      *  RelationalOperator: '<S84>/FixPt Relational Operator'
1743:HANcoder_E407_TTA_CombineModel.c ****      *  UnitDelay: '<S84>/Delay Input1'
1744:HANcoder_E407_TTA_CombineModel.c ****      *
1745:HANcoder_E407_TTA_CombineModel.c ****      * Block description for '<S84>/Delay Input1':
1746:HANcoder_E407_TTA_CombineModel.c ****      *
1747:HANcoder_E407_TTA_CombineModel.c ****      *  Store in Global RAM
1748:HANcoder_E407_TTA_CombineModel.c ****      */
1749:HANcoder_E407_TTA_CombineModel.c ****     rtB.DataTypeConversion = (rtDWork.DelayInput1_DSTATE < 0.0);
1750:HANcoder_E407_TTA_CombineModel.c **** 
1751:HANcoder_E407_TTA_CombineModel.c ****     /* Switch: '<S78>/Switch' incorporates:
1752:HANcoder_E407_TTA_CombineModel.c ****      *  Switch: '<S78>/Switch1'
1753:HANcoder_E407_TTA_CombineModel.c ****      *  Switch: '<S78>/Switch2'
1754:HANcoder_E407_TTA_CombineModel.c ****      */
1755:HANcoder_E407_TTA_CombineModel.c ****     if (canActive) {
1756:HANcoder_E407_TTA_CombineModel.c ****       /* Switch: '<S78>/Switch' incorporates:
1757:HANcoder_E407_TTA_CombineModel.c ****        *  DataStoreRead: '<S7>/Data Store Read'
1758:HANcoder_E407_TTA_CombineModel.c ****        */
1759:HANcoder_E407_TTA_CombineModel.c ****       rtB.Switch = rtDWork.pwmMotor;
1760:HANcoder_E407_TTA_CombineModel.c **** 
1761:HANcoder_E407_TTA_CombineModel.c ****       /* Switch: '<S78>/Switch1' incorporates:
1762:HANcoder_E407_TTA_CombineModel.c ****        *  DataStoreRead: '<S7>/Data Store Read1'
1763:HANcoder_E407_TTA_CombineModel.c ****        */
1764:HANcoder_E407_TTA_CombineModel.c ****       rtB.Switch1 = rtDWork.cwMotor;
1765:HANcoder_E407_TTA_CombineModel.c **** 
1766:HANcoder_E407_TTA_CombineModel.c ****       /* Switch: '<S78>/Switch2' incorporates:
1767:HANcoder_E407_TTA_CombineModel.c ****        *  DataStoreRead: '<S7>/Data Store Read3'
1768:HANcoder_E407_TTA_CombineModel.c ****        */
1769:HANcoder_E407_TTA_CombineModel.c ****       rtB.Switch2 = rtDWork.ccwMotor;
1770:HANcoder_E407_TTA_CombineModel.c ****     } else {
1771:HANcoder_E407_TTA_CombineModel.c ****       /* Switch: '<S78>/Switch' */
1772:HANcoder_E407_TTA_CombineModel.c ****       rtB.Switch = rtConstB.Cast;
1773:HANcoder_E407_TTA_CombineModel.c **** 
1774:HANcoder_E407_TTA_CombineModel.c ****       /* Switch: '<S78>/Switch1' */
1775:HANcoder_E407_TTA_CombineModel.c ****       rtB.Switch1 = rtConstB.Cast1;
1776:HANcoder_E407_TTA_CombineModel.c **** 
1777:HANcoder_E407_TTA_CombineModel.c ****       /* Switch: '<S78>/Switch2' */
1778:HANcoder_E407_TTA_CombineModel.c ****       rtB.Switch2 = rtConstB.Cast2_p;
1779:HANcoder_E407_TTA_CombineModel.c ****     }
1780:HANcoder_E407_TTA_CombineModel.c **** 
1781:HANcoder_E407_TTA_CombineModel.c ****     /* End of Switch: '<S78>/Switch' */
1782:HANcoder_E407_TTA_CombineModel.c ****     /* RelationalOperator: '<S78>/NotEqual' incorporates:
1783:HANcoder_E407_TTA_CombineModel.c ****      *  Constant: '<S78>/Constant'
1784:HANcoder_E407_TTA_CombineModel.c ****      *  DataStoreRead: '<S1>/Data Store Read1'
1785:HANcoder_E407_TTA_CombineModel.c ****      */
1786:HANcoder_E407_TTA_CombineModel.c ****     rtB.NotEqual = (rtDWork.Board_ID != ((uint8_T)1U));
1787:HANcoder_E407_TTA_CombineModel.c **** 
1788:HANcoder_E407_TTA_CombineModel.c ****     /* Update for Delay: '<S79>/Delay' */
1789:HANcoder_E407_TTA_CombineModel.c ****     rtDWork.Delay_DSTATE[0] = rtDWork.Delay_DSTATE[1];
1790:HANcoder_E407_TTA_CombineModel.c ****     rtDWork.Delay_DSTATE[1] = rtb_AND_n;
1791:HANcoder_E407_TTA_CombineModel.c **** 
1792:HANcoder_E407_TTA_CombineModel.c ****     /* Update for Delay: '<S79>/Delay1' */
1793:HANcoder_E407_TTA_CombineModel.c ****     for (idxDelay = 0; idxDelay < 8; idxDelay++) {
1794:HANcoder_E407_TTA_CombineModel.c ****       rtDWork.Delay1_DSTATE[idxDelay] = rtDWork.Delay1_DSTATE[idxDelay + 1];
1795:HANcoder_E407_TTA_CombineModel.c ****     }
1796:HANcoder_E407_TTA_CombineModel.c **** 
1797:HANcoder_E407_TTA_CombineModel.c ****     rtDWork.Delay1_DSTATE[8] = rtb_AND_n;
1798:HANcoder_E407_TTA_CombineModel.c **** 
1799:HANcoder_E407_TTA_CombineModel.c ****     /* End of Update for Delay: '<S79>/Delay1' */
1800:HANcoder_E407_TTA_CombineModel.c **** 
1801:HANcoder_E407_TTA_CombineModel.c ****     /* Update for Delay: '<S79>/Delay2' */
1802:HANcoder_E407_TTA_CombineModel.c ****     for (idxDelay = 0; idxDelay < 15; idxDelay++) {
1803:HANcoder_E407_TTA_CombineModel.c ****       rtDWork.Delay2_DSTATE[idxDelay] = rtDWork.Delay2_DSTATE[idxDelay + 1];
1804:HANcoder_E407_TTA_CombineModel.c ****     }
1805:HANcoder_E407_TTA_CombineModel.c **** 
1806:HANcoder_E407_TTA_CombineModel.c ****     rtDWork.Delay2_DSTATE[15] = rtb_AND_n;
1807:HANcoder_E407_TTA_CombineModel.c **** 
1808:HANcoder_E407_TTA_CombineModel.c ****     /* End of Update for Delay: '<S79>/Delay2' */
1809:HANcoder_E407_TTA_CombineModel.c **** 
1810:HANcoder_E407_TTA_CombineModel.c ****     /* Update for Delay: '<S79>/Delay4' */
1811:HANcoder_E407_TTA_CombineModel.c ****     for (idxDelay = 0; idxDelay < 24; idxDelay++) {
1812:HANcoder_E407_TTA_CombineModel.c ****       rtDWork.Delay4_DSTATE[idxDelay] = rtDWork.Delay4_DSTATE[idxDelay + 1];
1813:HANcoder_E407_TTA_CombineModel.c ****     }
1814:HANcoder_E407_TTA_CombineModel.c **** 
1815:HANcoder_E407_TTA_CombineModel.c ****     rtDWork.Delay4_DSTATE[24] = rtb_AND_n;
1816:HANcoder_E407_TTA_CombineModel.c **** 
1817:HANcoder_E407_TTA_CombineModel.c ****     /* End of Update for Delay: '<S79>/Delay4' */
1818:HANcoder_E407_TTA_CombineModel.c **** 
1819:HANcoder_E407_TTA_CombineModel.c ****     /* Update for Delay: '<S79>/Delay3' */
1820:HANcoder_E407_TTA_CombineModel.c ****     for (idxDelay = 0; idxDelay < 34; idxDelay++) {
1821:HANcoder_E407_TTA_CombineModel.c ****       rtDWork.Delay3_DSTATE[idxDelay] = rtDWork.Delay3_DSTATE[idxDelay + 1];
1822:HANcoder_E407_TTA_CombineModel.c ****     }
1823:HANcoder_E407_TTA_CombineModel.c **** 
1824:HANcoder_E407_TTA_CombineModel.c ****     rtDWork.Delay3_DSTATE[34] = rtb_AND_n;
1825:HANcoder_E407_TTA_CombineModel.c **** 
1826:HANcoder_E407_TTA_CombineModel.c ****     /* End of Update for Delay: '<S79>/Delay3' */
1827:HANcoder_E407_TTA_CombineModel.c **** 
1828:HANcoder_E407_TTA_CombineModel.c ****     /* Update for Memory: '<S91>/Memory' */
1829:HANcoder_E407_TTA_CombineModel.c ****     rtDWork.Memory_PreviousInput_d1 = rtb_Logic_c_idx_0;
1830:HANcoder_E407_TTA_CombineModel.c **** 
1831:HANcoder_E407_TTA_CombineModel.c ****     /* Update for Delay: '<S79>/Delay6' */
1832:HANcoder_E407_TTA_CombineModel.c ****     for (idxDelay = 0; idxDelay < 9; idxDelay++) {
1833:HANcoder_E407_TTA_CombineModel.c ****       rtDWork.Delay6_DSTATE[idxDelay] = rtDWork.Delay6_DSTATE[idxDelay + 1];
1834:HANcoder_E407_TTA_CombineModel.c ****     }
1835:HANcoder_E407_TTA_CombineModel.c **** 
1836:HANcoder_E407_TTA_CombineModel.c ****     rtDWork.Delay6_DSTATE[9] = rtb_DataStoreRead11;
1837:HANcoder_E407_TTA_CombineModel.c **** 
1838:HANcoder_E407_TTA_CombineModel.c ****     /* End of Update for Delay: '<S79>/Delay6' */
1839:HANcoder_E407_TTA_CombineModel.c **** 
1840:HANcoder_E407_TTA_CombineModel.c ****     /* Update for Memory: '<S92>/Memory' */
1841:HANcoder_E407_TTA_CombineModel.c ****     rtDWork.Memory_PreviousInput_a = rtb_Logic_f_idx_0;
1842:HANcoder_E407_TTA_CombineModel.c **** 
1843:HANcoder_E407_TTA_CombineModel.c ****     /* Update for Delay: '<S79>/Delay5' */
1844:HANcoder_E407_TTA_CombineModel.c ****     for (idxDelay = 0; idxDelay < 6; idxDelay++) {
1845:HANcoder_E407_TTA_CombineModel.c ****       rtDWork.Delay5_DSTATE[idxDelay] = rtDWork.Delay5_DSTATE[idxDelay + 1];
1846:HANcoder_E407_TTA_CombineModel.c ****     }
1847:HANcoder_E407_TTA_CombineModel.c **** 
1848:HANcoder_E407_TTA_CombineModel.c ****     rtDWork.Delay5_DSTATE[6] = i;
1849:HANcoder_E407_TTA_CombineModel.c **** 
1850:HANcoder_E407_TTA_CombineModel.c ****     /* End of Update for Delay: '<S79>/Delay5' */
1851:HANcoder_E407_TTA_CombineModel.c **** 
1852:HANcoder_E407_TTA_CombineModel.c ****     /* Update for Delay: '<S79>/Delay7' */
1853:HANcoder_E407_TTA_CombineModel.c ****     rtDWork.Delay7_DSTATE[0] = rtDWork.Delay7_DSTATE[1];
1854:HANcoder_E407_TTA_CombineModel.c ****     rtDWork.Delay7_DSTATE[1] = rtb_DataStoreRead8;
1855:HANcoder_E407_TTA_CombineModel.c **** 
1856:HANcoder_E407_TTA_CombineModel.c ****     /* Update for UnitDelay: '<S90>/UD'
1857:HANcoder_E407_TTA_CombineModel.c ****      *
1858:HANcoder_E407_TTA_CombineModel.c ****      * Block description for '<S90>/UD':
1859:HANcoder_E407_TTA_CombineModel.c ****      *
1860:HANcoder_E407_TTA_CombineModel.c ****      *  Store in Global RAM
1861:HANcoder_E407_TTA_CombineModel.c ****      */
1862:HANcoder_E407_TTA_CombineModel.c ****     rtDWork.UD_DSTATE = rtb_TSamp;
1863:HANcoder_E407_TTA_CombineModel.c **** 
1864:HANcoder_E407_TTA_CombineModel.c ****     /* Update for UnitDelay: '<S84>/Delay Input1'
1865:HANcoder_E407_TTA_CombineModel.c ****      *
1866:HANcoder_E407_TTA_CombineModel.c ****      * Block description for '<S84>/Delay Input1':
1867:HANcoder_E407_TTA_CombineModel.c ****      *
1868:HANcoder_E407_TTA_CombineModel.c ****      *  Store in Global RAM
1869:HANcoder_E407_TTA_CombineModel.c ****      */
1870:HANcoder_E407_TTA_CombineModel.c ****     rtDWork.DelayInput1_DSTATE = 0.0;
1871:HANcoder_E407_TTA_CombineModel.c **** 
1872:HANcoder_E407_TTA_CombineModel.c ****     /* Update for M-S-Function: '<S85>/Level-2 M-file S-Function' */
1873:HANcoder_E407_TTA_CombineModel.c ****     /* update digital output */
1874:HANcoder_E407_TTA_CombineModel.c ****     if (rtB.Switch1 == 0) {
1875:HANcoder_E407_TTA_CombineModel.c ****       DigoutSet(DIGOUT_PORTE_PIN5, DIGOUT_LOW);
1876:HANcoder_E407_TTA_CombineModel.c ****     } else {
1877:HANcoder_E407_TTA_CombineModel.c ****       DigoutSet(DIGOUT_PORTE_PIN5, DIGOUT_HIGH);
1878:HANcoder_E407_TTA_CombineModel.c ****     }
1879:HANcoder_E407_TTA_CombineModel.c **** 
1880:HANcoder_E407_TTA_CombineModel.c ****     /* Update for M-S-Function: '<S86>/Level-2 M-file S-Function' */
1881:HANcoder_E407_TTA_CombineModel.c ****     /* update digital output */
1882:HANcoder_E407_TTA_CombineModel.c ****     if (rtB.Switch2 == 0) {
1883:HANcoder_E407_TTA_CombineModel.c ****       DigoutSet(DIGOUT_PORTE_PIN6, DIGOUT_LOW);
1884:HANcoder_E407_TTA_CombineModel.c ****     } else {
1885:HANcoder_E407_TTA_CombineModel.c ****       DigoutSet(DIGOUT_PORTE_PIN6, DIGOUT_HIGH);
1886:HANcoder_E407_TTA_CombineModel.c ****     }
1887:HANcoder_E407_TTA_CombineModel.c **** 
1888:HANcoder_E407_TTA_CombineModel.c ****     /* Update for M-S-Function: '<S88>/Level-2 M-file S-Function' */
1889:HANcoder_E407_TTA_CombineModel.c ****     /* set the new duty cycle */
1890:HANcoder_E407_TTA_CombineModel.c ****     PwmoutSet(PWMOUT_TIM14_PIN_PF9, rtB.Switch);
1891:HANcoder_E407_TTA_CombineModel.c **** 
1892:HANcoder_E407_TTA_CombineModel.c ****     /* Update for M-S-Function: '<S87>/Level-2 M-file S-Function' */
1893:HANcoder_E407_TTA_CombineModel.c ****     /* update digital output */
1894:HANcoder_E407_TTA_CombineModel.c ****     if (rtB.NotEqual == 0) {
1895:HANcoder_E407_TTA_CombineModel.c ****       DigoutSet(DIGOUT_PORTC_PIN13, DIGOUT_LOW);
1896:HANcoder_E407_TTA_CombineModel.c ****     } else {
1897:HANcoder_E407_TTA_CombineModel.c ****       DigoutSet(DIGOUT_PORTC_PIN13, DIGOUT_HIGH);
1898:HANcoder_E407_TTA_CombineModel.c ****     }
1899:HANcoder_E407_TTA_CombineModel.c ****   }
1900:HANcoder_E407_TTA_CombineModel.c **** 
1901:HANcoder_E407_TTA_CombineModel.c ****   /* Outputs for Triggered SubSystem: '<S1>/Control execution' incorporates:
1902:HANcoder_E407_TTA_CombineModel.c ****    *  TriggerPort: '<S5>/Trigger'
1903:HANcoder_E407_TTA_CombineModel.c ****    */
1904:HANcoder_E407_TTA_CombineModel.c ****   rtPrevZCSigState.IOexecution_Trig_ZCE = rtb_OR1;
 1967              		.loc 1 1904 3 view .LVU681
 1968 00a4 A14E     		ldr	r6, .L458+16
 1969              		.loc 1 1904 41 is_stmt 0 view .LVU682
 1970 00a6 8BF80B30 		strb	r3, [fp, #11]
1905:HANcoder_E407_TTA_CombineModel.c **** 
1906:HANcoder_E407_TTA_CombineModel.c ****   /* End of Outputs for SubSystem: '<S1>/Control execution' */
1907:HANcoder_E407_TTA_CombineModel.c ****   /* End of Outputs for SubSystem: '<S1>/IO execution' */
1908:HANcoder_E407_TTA_CombineModel.c **** 
1909:HANcoder_E407_TTA_CombineModel.c ****   /* Outputs for Enabled SubSystem: '<S1>/Message selector' incorporates:
1910:HANcoder_E407_TTA_CombineModel.c ****    *  EnablePort: '<S10>/Enable'
1911:HANcoder_E407_TTA_CombineModel.c ****    *
1912:HANcoder_E407_TTA_CombineModel.c ****    * Block description for '<S1>/Message selector':
1913:HANcoder_E407_TTA_CombineModel.c ****    *  Truck 1
1914:HANcoder_E407_TTA_CombineModel.c ****    */
1915:HANcoder_E407_TTA_CombineModel.c ****   if (canActive) {
 1971              		.loc 1 1915 3 is_stmt 1 view .LVU683
 1972              		.loc 1 1915 6 is_stmt 0 view .LVU684
 1973 00aa 3378     		ldrb	r3, [r6]	@ zero_extendqisi2
 1974 00ac DFF8C882 		ldr	r8, .L458+92
 1975 00b0 002B     		cmp	r3, #0
 1976 00b2 00F06386 		beq	.L161
 1977              	.L445:
1916:HANcoder_E407_TTA_CombineModel.c ****     rtDWork.Messageselector_MODE = true;
 1978              		.loc 1 1916 5 is_stmt 1 view .LVU685
1917:HANcoder_E407_TTA_CombineModel.c **** 
1918:HANcoder_E407_TTA_CombineModel.c ****     /* RelationalOperator: '<S10>/Equal1' incorporates:
1919:HANcoder_E407_TTA_CombineModel.c ****      *  Constant: '<S10>/Constant1'
1920:HANcoder_E407_TTA_CombineModel.c ****      */
1921:HANcoder_E407_TTA_CombineModel.c ****     rtb_OR1 = (slotSelected == 2.0);
1922:HANcoder_E407_TTA_CombineModel.c **** 
1923:HANcoder_E407_TTA_CombineModel.c ****     /* Logic: '<S101>/AND16' incorporates:
1924:HANcoder_E407_TTA_CombineModel.c ****      *  Constant: '<S101>/Constant4'
1925:HANcoder_E407_TTA_CombineModel.c ****      *  DataStoreRead: '<S101>/Data Store Read'
1926:HANcoder_E407_TTA_CombineModel.c ****      *  DataStoreRead: '<S1>/Data Store Read1'
1927:HANcoder_E407_TTA_CombineModel.c ****      *  RelationalOperator: '<S101>/Equal4'
1928:HANcoder_E407_TTA_CombineModel.c ****      */
1929:HANcoder_E407_TTA_CombineModel.c ****     rtb_AND_n = ((rtDWork.Board_ID == 2.0) && rtDWork.node1CanFailed);
 1979              		.loc 1 1929 36 is_stmt 0 view .LVU686
 1980 00b6 07EE90AA 		vmov	s15, r10	@ int
1921:HANcoder_E407_TTA_CombineModel.c **** 
 1981              		.loc 1 1921 29 view .LVU687
 1982 00ba 9B4B     		ldr	r3, .L458+12
 1983              		.loc 1 1929 36 view .LVU688
 1984 00bc F8EEE77A 		vcvt.f32.s32	s15, s15
1921:HANcoder_E407_TTA_CombineModel.c **** 
 1985              		.loc 1 1921 29 view .LVU689
 1986 00c0 1B78     		ldrb	r3, [r3]	@ zero_extendqisi2
 1987              		.loc 1 1929 44 view .LVU690
 1988 00c2 F0EE006A 		vmov.f32	s13, #2.0e+0
1921:HANcoder_E407_TTA_CombineModel.c **** 
 1989              		.loc 1 1921 29 view .LVU691
 1990 00c6 07EE103A 		vmov	s14, r3	@ int
 1991              		.loc 1 1929 44 view .LVU692
 1992 00ca F4EE667A 		vcmp.f32	s15, s13
1916:HANcoder_E407_TTA_CombineModel.c ****     rtDWork.Messageselector_MODE = true;
 1993              		.loc 1 1916 34 view .LVU693
 1994 00ce 0126     		movs	r6, #1
 1995              		.loc 1 1929 44 view .LVU694
 1996 00d0 F1EE10FA 		vmrs	APSR_nzcv, FPSCR
1921:HANcoder_E407_TTA_CombineModel.c **** 
 1997              		.loc 1 1921 29 view .LVU695
 1998 00d4 B8EEC77A 		vcvt.f32.s32	s14, s14
1916:HANcoder_E407_TTA_CombineModel.c ****     rtDWork.Messageselector_MODE = true;
 1999              		.loc 1 1916 34 view .LVU696
 2000 00d8 84F86261 		strb	r6, [r4, #354]
1921:HANcoder_E407_TTA_CombineModel.c **** 
 2001              		.loc 1 1921 5 is_stmt 1 view .LVU697
 2002              	.LVL120:
 2003              		.loc 1 1929 5 view .LVU698
 2004              		.loc 1 1929 44 is_stmt 0 view .LVU699
 2005 00dc 00F03C87 		beq	.L424
 2006              	.LVL121:
1930:HANcoder_E407_TTA_CombineModel.c **** 
1931:HANcoder_E407_TTA_CombineModel.c ****     /* Logic: '<S10>/OR' incorporates:
1932:HANcoder_E407_TTA_CombineModel.c ****      *  Constant: '<S10>/Constant13'
1933:HANcoder_E407_TTA_CombineModel.c ****      *  DataStoreRead: '<S1>/Data Store Read1'
1934:HANcoder_E407_TTA_CombineModel.c ****      *  RelationalOperator: '<S10>/Equal11'
1935:HANcoder_E407_TTA_CombineModel.c ****      */
1936:HANcoder_E407_TTA_CombineModel.c ****     rtb_DataStoreRead11 = ((rtDWork.Board_ID == 1.0) || rtb_AND_n);
 2007              		.loc 1 1936 5 is_stmt 1 discriminator 6 view .LVU700
 2008              		.loc 1 1936 54 is_stmt 0 discriminator 6 view .LVU701
 2009 00e0 B7EE006A 		vmov.f32	s12, #1.0e+0
 2010 00e4 F4EE467A 		vcmp.f32	s15, s12
 2011 00e8 F1EE10FA 		vmrs	APSR_nzcv, FPSCR
 2012 00ec 41F0F981 		bne	.L163
 2013              	.LVL122:
1937:HANcoder_E407_TTA_CombineModel.c **** 
1938:HANcoder_E407_TTA_CombineModel.c ****     /* Logic: '<S10>/AND3' incorporates:
1939:HANcoder_E407_TTA_CombineModel.c ****      *  Logic: '<S10>/NOT1'
1940:HANcoder_E407_TTA_CombineModel.c ****      */
1941:HANcoder_E407_TTA_CombineModel.c ****     rtb_AND3 = (rtb_OR1 && (!rtb_DataStoreRead11));
1942:HANcoder_E407_TTA_CombineModel.c **** 
1943:HANcoder_E407_TTA_CombineModel.c ****     /* Outputs for Enabled SubSystem: '<S10>/MMBS1_RX' incorporates:
1944:HANcoder_E407_TTA_CombineModel.c ****      *  EnablePort: '<S102>/Enable'
1945:HANcoder_E407_TTA_CombineModel.c ****      */
1946:HANcoder_E407_TTA_CombineModel.c ****     if (rtb_AND3) {
 2014              		.loc 1 1946 5 is_stmt 1 view .LVU702
1947:HANcoder_E407_TTA_CombineModel.c ****       rtDWork.MMBS1_RX_MODE = true;
1948:HANcoder_E407_TTA_CombineModel.c **** 
1949:HANcoder_E407_TTA_CombineModel.c ****       /* Logic: '<S102>/NOT' incorporates:
1950:HANcoder_E407_TTA_CombineModel.c ****        *  Constant: '<S102>/Constant'
1951:HANcoder_E407_TTA_CombineModel.c ****        *  DataStoreRead: '<S102>/Data Store Read'
1952:HANcoder_E407_TTA_CombineModel.c ****        *  RelationalOperator: '<S102>/Equal'
1953:HANcoder_E407_TTA_CombineModel.c ****        */
1954:HANcoder_E407_TTA_CombineModel.c ****       masterCanFail = (rtDWork.receiveSync != true);
1955:HANcoder_E407_TTA_CombineModel.c **** 
1956:HANcoder_E407_TTA_CombineModel.c ****       /* DataStoreWrite: '<S102>/Data Store Write' */
1957:HANcoder_E407_TTA_CombineModel.c ****       rtDWork.node1CanFailed = masterCanFail;
1958:HANcoder_E407_TTA_CombineModel.c **** 
1959:HANcoder_E407_TTA_CombineModel.c ****       /* DataStoreWrite: '<S102>/Data Store Write1' incorporates:
1960:HANcoder_E407_TTA_CombineModel.c ****        *  Constant: '<S102>/Constant1'
1961:HANcoder_E407_TTA_CombineModel.c ****        */
1962:HANcoder_E407_TTA_CombineModel.c ****       rtDWork.receiveSync = false;
1963:HANcoder_E407_TTA_CombineModel.c **** 
1964:HANcoder_E407_TTA_CombineModel.c ****       /* M-S-Function: '<S118>/S-Function' incorporates:
1965:HANcoder_E407_TTA_CombineModel.c ****        *  Constant: '<S10>/Constant12'
1966:HANcoder_E407_TTA_CombineModel.c ****        */
1967:HANcoder_E407_TTA_CombineModel.c **** 
1968:HANcoder_E407_TTA_CombineModel.c ****       /* read the message data and store the new parameter */
1969:HANcoder_E407_TTA_CombineModel.c ****       rtb_SFunction_o1_g = CanIoGetMessage(0, MMBS1_ID, NULL,
1970:HANcoder_E407_TTA_CombineModel.c ****         &canRxData_0_MMBS1_ID.uint8_T_info[0], NULL);
1971:HANcoder_E407_TTA_CombineModel.c **** 
1972:HANcoder_E407_TTA_CombineModel.c ****       /* process the message data */
1973:HANcoder_E407_TTA_CombineModel.c ****       if (rtb_SFunction_o1_g > 0) {
1974:HANcoder_E407_TTA_CombineModel.c ****         /* read the data */
1975:HANcoder_E407_TTA_CombineModel.c ****         rtb_SFunction_o2_n2 = canRxData_0_MMBS1_ID.uint8_T_info[0];
1976:HANcoder_E407_TTA_CombineModel.c ****         rtb_SFunction_o3_b = canRxData_0_MMBS1_ID.uint8_T_info[1];
1977:HANcoder_E407_TTA_CombineModel.c ****         rtb_SFunction_o4_l = canRxData_0_MMBS1_ID.uint8_T_info[2];
1978:HANcoder_E407_TTA_CombineModel.c ****         rtb_SFunction_o5_e = canRxData_0_MMBS1_ID.uint8_T_info[3];
1979:HANcoder_E407_TTA_CombineModel.c ****         rtb_SFunction_o6_k1 = canRxData_0_MMBS1_ID.uint8_T_info[4];
1980:HANcoder_E407_TTA_CombineModel.c ****         rtb_SFunction_o7_dj = canRxData_0_MMBS1_ID.uint8_T_info[5];
1981:HANcoder_E407_TTA_CombineModel.c ****         rtb_SFunction_o8_n1 = canRxData_0_MMBS1_ID.uint8_T_info[6];
1982:HANcoder_E407_TTA_CombineModel.c ****         rtb_SFunction_o9_ok = canRxData_0_MMBS1_ID.uint8_T_info[7];
1983:HANcoder_E407_TTA_CombineModel.c ****       }
1984:HANcoder_E407_TTA_CombineModel.c **** 
1985:HANcoder_E407_TTA_CombineModel.c ****       /* Outputs for Enabled SubSystem: '<S118>/Enabled Subsystem' */
1986:HANcoder_E407_TTA_CombineModel.c ****       EnabledSubsystem(rtb_SFunction_o1_g, rtb_SFunction_o2_n2,
1987:HANcoder_E407_TTA_CombineModel.c ****                        rtb_SFunction_o3_b, rtb_SFunction_o4_l,
1988:HANcoder_E407_TTA_CombineModel.c ****                        rtb_SFunction_o5_e, rtb_SFunction_o6_k1,
1989:HANcoder_E407_TTA_CombineModel.c ****                        rtb_SFunction_o7_dj, rtb_SFunction_o8_n1,
1990:HANcoder_E407_TTA_CombineModel.c ****                        rtb_SFunction_o9_ok, &rtB.EnabledSubsystem_k);
1991:HANcoder_E407_TTA_CombineModel.c **** 
1992:HANcoder_E407_TTA_CombineModel.c ****       /* End of Outputs for SubSystem: '<S118>/Enabled Subsystem' */
1993:HANcoder_E407_TTA_CombineModel.c ****     } else if (rtDWork.MMBS1_RX_MODE) {
 2015              		.loc 1 1993 12 view .LVU703
 2016              		.loc 1 1993 23 is_stmt 0 view .LVU704
 2017 00f0 94F86A61 		ldrb	r6, [r4, #362]	@ zero_extendqisi2
 2018              		.loc 1 1993 15 view .LVU705
 2019 00f4 16B1     		cbz	r6, .L419
1994:HANcoder_E407_TTA_CombineModel.c ****       rtDWork.MMBS1_RX_MODE = false;
 2020              		.loc 1 1994 7 is_stmt 1 view .LVU706
 2021              		.loc 1 1994 29 is_stmt 0 view .LVU707
 2022 00f6 0026     		movs	r6, #0
 2023 00f8 84F86A61 		strb	r6, [r4, #362]
 2024              	.L419:
1995:HANcoder_E407_TTA_CombineModel.c ****     }
1996:HANcoder_E407_TTA_CombineModel.c **** 
1997:HANcoder_E407_TTA_CombineModel.c ****     /* End of Outputs for SubSystem: '<S10>/MMBS1_RX' */
1998:HANcoder_E407_TTA_CombineModel.c **** 
1999:HANcoder_E407_TTA_CombineModel.c ****     /* Logic: '<S10>/AND2' */
2000:HANcoder_E407_TTA_CombineModel.c ****     rtb_AND2 = (rtb_OR1 && rtb_DataStoreRead11);
 2025              		.loc 1 2000 5 is_stmt 1 view .LVU708
 2026              		.loc 1 2000 25 is_stmt 0 view .LVU709
 2027 00fc B4EE667A 		vcmp.f32	s14, s13
 2028 0100 F1EE10FA 		vmrs	APSR_nzcv, FPSCR
 2029 0104 40F04A87 		bne	.L425
 2030              	.LVL123:
 2031              	.L170:
2001:HANcoder_E407_TTA_CombineModel.c **** 
2002:HANcoder_E407_TTA_CombineModel.c ****     /* Outputs for Triggered SubSystem: '<S10>/MMBS1_TX' */
2003:HANcoder_E407_TTA_CombineModel.c ****     /* Constant: '<S10>/Constant12' */
2004:HANcoder_E407_TTA_CombineModel.c ****     MMBS1_TX(rtb_AND2, MMBS1_ID, &rtPrevZCSigState.MMBS1_TX_a);
 2032              		.loc 1 2004 5 is_stmt 1 view .LVU710
 2033              	.LBB419:
 2034              	.LBI419:
 490:HANcoder_E407_TTA_CombineModel.c **** {
 2035              		.loc 1 490 6 view .LVU711
 2036              	.LBB420:
 495:HANcoder_E407_TTA_CombineModel.c ****     /* Update for M-S-Function: '<S120>/S-Function' */
 2037              		.loc 1 495 3 view .LVU712
 495:HANcoder_E407_TTA_CombineModel.c ****     /* Update for M-S-Function: '<S120>/S-Function' */
 2038              		.loc 1 495 31 is_stmt 0 view .LVU713
 2039 0108 9BF80A20 		ldrb	r2, [fp, #10]	@ zero_extendqisi2
 495:HANcoder_E407_TTA_CombineModel.c ****     /* Update for M-S-Function: '<S120>/S-Function' */
 2040              		.loc 1 495 19 view .LVU714
 2041 010c 012A     		cmp	r2, #1
 2042 010e 41F09082 		bne	.L426
 2043              	.LVL124:
 2044              	.L264:
 506:HANcoder_E407_TTA_CombineModel.c **** 
 2045              		.loc 1 506 3 is_stmt 1 view .LVU715
 2046              	.LBE420:
 2047              	.LBE419:
2005:HANcoder_E407_TTA_CombineModel.c **** 
2006:HANcoder_E407_TTA_CombineModel.c ****     /* End of Outputs for SubSystem: '<S10>/MMBS1_TX' */
2007:HANcoder_E407_TTA_CombineModel.c **** 
2008:HANcoder_E407_TTA_CombineModel.c ****     /* RelationalOperator: '<S10>/Equal2' incorporates:
2009:HANcoder_E407_TTA_CombineModel.c ****      *  Constant: '<S10>/Constant2'
2010:HANcoder_E407_TTA_CombineModel.c ****      */
2011:HANcoder_E407_TTA_CombineModel.c ****     rtb_OR1 = (slotSelected == 3.0);
2012:HANcoder_E407_TTA_CombineModel.c **** 
2013:HANcoder_E407_TTA_CombineModel.c ****     /* Logic: '<S10>/OR2' incorporates:
2014:HANcoder_E407_TTA_CombineModel.c ****      *  Constant: '<S10>/Constant15'
2015:HANcoder_E407_TTA_CombineModel.c ****      *  DataStoreRead: '<S1>/Data Store Read1'
2016:HANcoder_E407_TTA_CombineModel.c ****      *  RelationalOperator: '<S10>/Equal12'
2017:HANcoder_E407_TTA_CombineModel.c ****      */
2018:HANcoder_E407_TTA_CombineModel.c ****     rtb_DataStoreRead11 = ((rtDWork.Board_ID == 1.0) || rtb_AND_n);
 2048              		.loc 1 2018 54 is_stmt 0 view .LVU716
 2049 0112 F7EE006A 		vmov.f32	s13, #1.0e+0
 2050 0116 F4EE667A 		vcmp.f32	s15, s13
 2051 011a F1EE10FA 		vmrs	APSR_nzcv, FPSCR
 2052              	.LBB426:
 2053              	.LBB421:
 506:HANcoder_E407_TTA_CombineModel.c **** 
 2054              		.loc 1 506 31 view .LVU717
 2055 011e 8BF80A20 		strb	r2, [fp, #10]
 2056              	.LBE421:
 2057              	.LBE426:
2011:HANcoder_E407_TTA_CombineModel.c **** 
 2058              		.loc 1 2011 5 is_stmt 1 view .LVU718
 2059              	.LVL125:
 2060              		.loc 1 2018 5 view .LVU719
 2061              		.loc 1 2018 54 is_stmt 0 view .LVU720
 2062 0122 00F03E87 		beq	.L174
 2063              	.LVL126:
2019:HANcoder_E407_TTA_CombineModel.c **** 
2020:HANcoder_E407_TTA_CombineModel.c ****     /* Logic: '<S10>/AND5' incorporates:
2021:HANcoder_E407_TTA_CombineModel.c ****      *  Logic: '<S10>/NOT2'
2022:HANcoder_E407_TTA_CombineModel.c ****      */
2023:HANcoder_E407_TTA_CombineModel.c ****     rtb_AND5 = (rtb_OR1 && (!rtb_DataStoreRead11));
 2064              		.loc 1 2023 5 is_stmt 1 discriminator 6 view .LVU721
 2065              		.loc 1 2023 25 is_stmt 0 discriminator 6 view .LVU722
 2066 0126 F0EE087A 		vmov.f32	s15, #3.0e+0
 2067 012a B4EE677A 		vcmp.f32	s14, s15
 2068 012e F1EE10FA 		vmrs	APSR_nzcv, FPSCR
 2069 0132 41F0E781 		bne	.L175
 2070              		.loc 1 2023 25 discriminator 1 view .LVU723
 2071 0136 002E     		cmp	r6, #0
 2072 0138 41F0B184 		bne	.L427
 2073              	.LVL127:
2024:HANcoder_E407_TTA_CombineModel.c **** 
2025:HANcoder_E407_TTA_CombineModel.c ****     /* Outputs for Enabled SubSystem: '<S10>/SSTM1_RX' incorporates:
2026:HANcoder_E407_TTA_CombineModel.c ****      *  EnablePort: '<S104>/Enable'
2027:HANcoder_E407_TTA_CombineModel.c ****      */
2028:HANcoder_E407_TTA_CombineModel.c ****     if (rtb_AND5) {
 2074              		.loc 1 2028 5 is_stmt 1 view .LVU724
2029:HANcoder_E407_TTA_CombineModel.c ****       rtDWork.SSTM1_RX_MODE = true;
 2075              		.loc 1 2029 7 view .LVU725
2030:HANcoder_E407_TTA_CombineModel.c **** 
2031:HANcoder_E407_TTA_CombineModel.c ****       /* M-S-Function: '<S121>/S-Function' incorporates:
2032:HANcoder_E407_TTA_CombineModel.c ****        *  Constant: '<S10>/Constant14'
2033:HANcoder_E407_TTA_CombineModel.c ****        */
2034:HANcoder_E407_TTA_CombineModel.c **** 
2035:HANcoder_E407_TTA_CombineModel.c ****       /* read the message data and store the new parameter */
2036:HANcoder_E407_TTA_CombineModel.c ****       rtb_SFunction_o1_b = CanIoGetMessage(0, SSTM1_ID, NULL,
 2076              		.loc 1 2036 28 is_stmt 0 view .LVU726
 2077 013c 7C4B     		ldr	r3, .L458+20
 2078 013e 0096     		str	r6, [sp]
 2079 0140 7C4F     		ldr	r7, .L458+24
 2080 0142 1968     		ldr	r1, [r3]
2029:HANcoder_E407_TTA_CombineModel.c ****       rtDWork.SSTM1_RX_MODE = true;
 2081              		.loc 1 2029 29 view .LVU727
 2082 0144 0123     		movs	r3, #1
 2083 0146 84F86931 		strb	r3, [r4, #361]
 2084              		.loc 1 2036 7 is_stmt 1 view .LVU728
 2085              		.loc 1 2036 28 is_stmt 0 view .LVU729
 2086 014a 3246     		mov	r2, r6
 2087 014c 3B46     		mov	r3, r7
 2088 014e 3046     		mov	r0, r6
 2089 0150 FFF7FEFF 		bl	CanIoGetMessage
 2090              	.LVL128:
2037:HANcoder_E407_TTA_CombineModel.c ****         &canRxData_0_SSTM1_ID.uint8_T_info[0], NULL);
2038:HANcoder_E407_TTA_CombineModel.c **** 
2039:HANcoder_E407_TTA_CombineModel.c ****       /* process the message data */
2040:HANcoder_E407_TTA_CombineModel.c ****       if (rtb_SFunction_o1_b > 0) {
 2091              		.loc 1 2040 7 is_stmt 1 view .LVU730
 2092              		.loc 1 2040 10 is_stmt 0 view .LVU731
 2093 0154 0028     		cmp	r0, #0
 2094 0156 41F33984 		ble	.L428
2041:HANcoder_E407_TTA_CombineModel.c ****         /* read the data */
2042:HANcoder_E407_TTA_CombineModel.c ****         rtb_SFunction_o2_c = canRxData_0_SSTM1_ID.uint8_T_info[0];
 2095              		.loc 1 2042 9 is_stmt 1 view .LVU732
 2096              	.LVL129:
2043:HANcoder_E407_TTA_CombineModel.c ****         rtb_SFunction_o3_f = canRxData_0_SSTM1_ID.uint8_T_info[1];
 2097              		.loc 1 2043 9 view .LVU733
 2098              		.loc 1 2043 28 is_stmt 0 view .LVU734
 2099 015a 7B78     		ldrb	r3, [r7, #1]	@ zero_extendqisi2
 2100              	.LVL130:
2044:HANcoder_E407_TTA_CombineModel.c ****         rtb_SFunction_o4_k = canRxData_0_SSTM1_ID.uint8_T_info[2];
 2101              		.loc 1 2044 9 is_stmt 1 view .LVU735
 2102              	.LBB427:
 2103              	.LBB428:
 461:HANcoder_E407_TTA_CombineModel.c **** 
 2104              		.loc 1 461 17 is_stmt 0 view .LVU736
 2105 015c 85F8CE30 		strb	r3, [r5, #206]
 2106              	.LBE428:
 2107              	.LBE427:
 2108              		.loc 1 2044 28 view .LVU737
 2109 0160 BB78     		ldrb	r3, [r7, #2]	@ zero_extendqisi2
 2110              	.LVL131:
2045:HANcoder_E407_TTA_CombineModel.c ****         rtb_SFunction_o5_h = canRxData_0_SSTM1_ID.uint8_T_info[3];
 2111              		.loc 1 2045 9 is_stmt 1 view .LVU738
 2112              	.LBB432:
 2113              	.LBB429:
 464:HANcoder_E407_TTA_CombineModel.c **** 
 2114              		.loc 1 464 17 is_stmt 0 view .LVU739
 2115 0162 85F8CF30 		strb	r3, [r5, #207]
 2116              	.LBE429:
 2117              	.LBE432:
 2118              		.loc 1 2045 28 view .LVU740
 2119 0166 FB78     		ldrb	r3, [r7, #3]	@ zero_extendqisi2
 2120              	.LVL132:
2046:HANcoder_E407_TTA_CombineModel.c ****         rtb_SFunction_o6_k = canRxData_0_SSTM1_ID.uint8_T_info[4];
 2121              		.loc 1 2046 9 is_stmt 1 view .LVU741
2047:HANcoder_E407_TTA_CombineModel.c ****         rtb_SFunction_o7_e = canRxData_0_SSTM1_ID.uint8_T_info[5];
 2122              		.loc 1 2047 9 view .LVU742
2048:HANcoder_E407_TTA_CombineModel.c ****         rtb_SFunction_o8_pe = canRxData_0_SSTM1_ID.uint8_T_info[6];
 2123              		.loc 1 2048 9 view .LVU743
 2124              	.LBB433:
 2125              	.LBB430:
 467:HANcoder_E407_TTA_CombineModel.c **** 
 2126              		.loc 1 467 17 is_stmt 0 view .LVU744
 2127 0168 85F8D030 		strb	r3, [r5, #208]
 2128              	.LBE430:
 2129              	.LBE433:
 2130              		.loc 1 2048 29 view .LVU745
 2131 016c BB79     		ldrb	r3, [r7, #6]	@ zero_extendqisi2
 2132              	.LVL133:
2049:HANcoder_E407_TTA_CombineModel.c ****         rtb_SFunction_o9_f = canRxData_0_SSTM1_ID.uint8_T_info[7];
 2133              		.loc 1 2049 9 is_stmt 1 view .LVU746
2050:HANcoder_E407_TTA_CombineModel.c ****       }
2051:HANcoder_E407_TTA_CombineModel.c **** 
2052:HANcoder_E407_TTA_CombineModel.c ****       /* Outputs for Enabled SubSystem: '<S121>/Enabled Subsystem' */
2053:HANcoder_E407_TTA_CombineModel.c ****       EnabledSubsystem(rtb_SFunction_o1_b, rtb_SFunction_o2_c,
 2134              		.loc 1 2053 7 view .LVU747
 2135              	.LBB434:
 2136              	.LBI427:
 444:HANcoder_E407_TTA_CombineModel.c ****                       uint8_T rtu_In3, uint8_T rtu_In4, uint8_T rtu_In5, uint8_T
 2137              		.loc 1 444 6 view .LVU748
 2138              	.LBB431:
 449:HANcoder_E407_TTA_CombineModel.c ****   uint8_T rtb_In6;
 2139              		.loc 1 449 3 view .LVU749
 450:HANcoder_E407_TTA_CombineModel.c ****   uint8_T rtb_In8_m;
 2140              		.loc 1 450 3 view .LVU750
 451:HANcoder_E407_TTA_CombineModel.c **** 
 2141              		.loc 1 451 3 view .LVU751
 456:HANcoder_E407_TTA_CombineModel.c ****     /* SignalConversion generated from: '<S119>/In1' */
 2142              		.loc 1 456 3 view .LVU752
 458:HANcoder_E407_TTA_CombineModel.c **** 
 2143              		.loc 1 458 5 view .LVU753
 476:HANcoder_E407_TTA_CombineModel.c **** 
 2144              		.loc 1 476 17 is_stmt 0 view .LVU754
 2145 016e 85F8D130 		strb	r3, [r5, #209]
 458:HANcoder_E407_TTA_CombineModel.c **** 
 2146              		.loc 1 458 17 view .LVU755
 2147 0172 3B78     		ldrb	r3, [r7]	@ zero_extendqisi2
 2148              	.LVL134:
 458:HANcoder_E407_TTA_CombineModel.c **** 
 2149              		.loc 1 458 17 view .LVU756
 2150 0174 85F8CD30 		strb	r3, [r5, #205]
 461:HANcoder_E407_TTA_CombineModel.c **** 
 2151              		.loc 1 461 5 is_stmt 1 view .LVU757
 464:HANcoder_E407_TTA_CombineModel.c **** 
 2152              		.loc 1 464 5 view .LVU758
 467:HANcoder_E407_TTA_CombineModel.c **** 
 2153              		.loc 1 467 5 view .LVU759
 470:HANcoder_E407_TTA_CombineModel.c **** 
 2154              		.loc 1 470 5 view .LVU760
 473:HANcoder_E407_TTA_CombineModel.c **** 
 2155              		.loc 1 473 5 view .LVU761
 476:HANcoder_E407_TTA_CombineModel.c **** 
 2156              		.loc 1 476 5 view .LVU762
 479:HANcoder_E407_TTA_CombineModel.c ****   }
 2157              		.loc 1 479 5 view .LVU763
 2158              	.LVL135:
 479:HANcoder_E407_TTA_CombineModel.c ****   }
 2159              		.loc 1 479 5 is_stmt 0 view .LVU764
 2160              	.LBE431:
 2161              	.LBE434:
2054:HANcoder_E407_TTA_CombineModel.c ****                        rtb_SFunction_o3_f, rtb_SFunction_o4_k,
2055:HANcoder_E407_TTA_CombineModel.c ****                        rtb_SFunction_o5_h, rtb_SFunction_o6_k,
2056:HANcoder_E407_TTA_CombineModel.c ****                        rtb_SFunction_o7_e, rtb_SFunction_o8_pe,
2057:HANcoder_E407_TTA_CombineModel.c ****                        rtb_SFunction_o9_f, &rtB.EnabledSubsystem_h);
2058:HANcoder_E407_TTA_CombineModel.c **** 
2059:HANcoder_E407_TTA_CombineModel.c ****       /* End of Outputs for SubSystem: '<S121>/Enabled Subsystem' */
2060:HANcoder_E407_TTA_CombineModel.c ****     } else if (rtDWork.SSTM1_RX_MODE) {
2061:HANcoder_E407_TTA_CombineModel.c ****       rtDWork.SSTM1_RX_MODE = false;
2062:HANcoder_E407_TTA_CombineModel.c ****     }
2063:HANcoder_E407_TTA_CombineModel.c **** 
2064:HANcoder_E407_TTA_CombineModel.c ****     /* End of Outputs for SubSystem: '<S10>/SSTM1_RX' */
2065:HANcoder_E407_TTA_CombineModel.c **** 
2066:HANcoder_E407_TTA_CombineModel.c ****     /* Logic: '<S10>/AND4' */
2067:HANcoder_E407_TTA_CombineModel.c ****     rtb_AND4 = (rtb_OR1 && rtb_DataStoreRead11);
 2162              		.loc 1 2067 5 is_stmt 1 view .LVU765
2068:HANcoder_E407_TTA_CombineModel.c **** 
2069:HANcoder_E407_TTA_CombineModel.c ****     /* Outputs for Triggered SubSystem: '<S10>/SSTM1_TX' */
2070:HANcoder_E407_TTA_CombineModel.c ****     /* Constant: '<S10>/Constant14' */
2071:HANcoder_E407_TTA_CombineModel.c ****     MMBS1_TX(rtb_AND4, SSTM1_ID, &rtPrevZCSigState.SSTM1_TX);
2072:HANcoder_E407_TTA_CombineModel.c **** 
2073:HANcoder_E407_TTA_CombineModel.c ****     /* End of Outputs for SubSystem: '<S10>/SSTM1_TX' */
2074:HANcoder_E407_TTA_CombineModel.c **** 
2075:HANcoder_E407_TTA_CombineModel.c ****     /* RelationalOperator: '<S10>/Equal' incorporates:
2076:HANcoder_E407_TTA_CombineModel.c ****      *  Constant: '<S10>/Constant'
2077:HANcoder_E407_TTA_CombineModel.c ****      */
2078:HANcoder_E407_TTA_CombineModel.c ****     rtb_OR1 = (slotSelected == ((uint8_T)1U));
 2163              		.loc 1 2078 29 is_stmt 0 view .LVU766
 2164 0178 6B4B     		ldr	r3, .L458+12
2079:HANcoder_E407_TTA_CombineModel.c **** 
2080:HANcoder_E407_TTA_CombineModel.c ****     /* Logic: '<S10>/OR1' incorporates:
2081:HANcoder_E407_TTA_CombineModel.c ****      *  Constant: '<S10>/Constant11'
2082:HANcoder_E407_TTA_CombineModel.c ****      *  DataStoreRead: '<S1>/Data Store Read1'
2083:HANcoder_E407_TTA_CombineModel.c ****      *  RelationalOperator: '<S10>/Equal10'
2084:HANcoder_E407_TTA_CombineModel.c ****      */
2085:HANcoder_E407_TTA_CombineModel.c ****     rtb_AND_n = ((rtDWork.Board_ID == ((uint8_T)1U)) || rtb_AND_n);
 2165              		.loc 1 2085 26 view .LVU767
 2166 017a 94F848A1 		ldrb	r10, [r4, #328]	@ zero_extendqisi2
2078:HANcoder_E407_TTA_CombineModel.c **** 
 2167              		.loc 1 2078 29 view .LVU768
 2168 017e 1B78     		ldrb	r3, [r3]	@ zero_extendqisi2
 2169              	.LVL136:
 2170              	.L180:
2071:HANcoder_E407_TTA_CombineModel.c **** 
 2171              		.loc 1 2071 5 is_stmt 1 view .LVU769
 2172              	.LBB435:
 2173              	.LBI435:
 490:HANcoder_E407_TTA_CombineModel.c **** {
 2174              		.loc 1 490 6 view .LVU770
 2175              	.LBB436:
 495:HANcoder_E407_TTA_CombineModel.c ****     /* Update for M-S-Function: '<S120>/S-Function' */
 2176              		.loc 1 495 3 view .LVU771
 2177              	.LBE436:
 2178              	.LBE435:
2067:HANcoder_E407_TTA_CombineModel.c **** 
 2179              		.loc 1 2067 14 is_stmt 0 view .LVU772
 2180 0180 0022     		movs	r2, #0
 2181              	.LVL137:
 2182              	.L260:
 2183              	.LBB443:
 2184              	.LBB437:
 506:HANcoder_E407_TTA_CombineModel.c **** 
 2185              		.loc 1 506 3 is_stmt 1 view .LVU773
 2186              	.LBE437:
 2187              	.LBE443:
 2188              		.loc 1 2085 54 is_stmt 0 view .LVU774
 2189 0182 BAF1010F 		cmp	r10, #1
 2190              	.LBB444:
 2191              	.LBB438:
 506:HANcoder_E407_TTA_CombineModel.c **** 
 2192              		.loc 1 506 31 view .LVU775
 2193 0186 8BF80920 		strb	r2, [fp, #9]
 2194              	.LBE438:
 2195              	.LBE444:
2078:HANcoder_E407_TTA_CombineModel.c **** 
 2196              		.loc 1 2078 5 is_stmt 1 view .LVU776
 2197              	.LVL138:
 2198              		.loc 1 2085 5 view .LVU777
 2199              		.loc 1 2085 54 is_stmt 0 view .LVU778
 2200 018a 00F03087 		beq	.L182
 2201              	.LVL139:
 2202              	.L451:
2086:HANcoder_E407_TTA_CombineModel.c **** 
2087:HANcoder_E407_TTA_CombineModel.c ****     /* Logic: '<S10>/AND1' incorporates:
2088:HANcoder_E407_TTA_CombineModel.c ****      *  Logic: '<S10>/NOT'
2089:HANcoder_E407_TTA_CombineModel.c ****      */
2090:HANcoder_E407_TTA_CombineModel.c ****     rtb_AND1_k = (rtb_OR1 && (!rtb_AND_n));
 2203              		.loc 1 2090 5 is_stmt 1 discriminator 6 view .LVU779
 2204              		.loc 1 2090 27 is_stmt 0 discriminator 6 view .LVU780
 2205 018e 012B     		cmp	r3, #1
 2206 0190 01F0A883 		beq	.L429
 2207              	.LVL140:
2091:HANcoder_E407_TTA_CombineModel.c **** 
2092:HANcoder_E407_TTA_CombineModel.c ****     /* Outputs for Enabled SubSystem: '<S10>/SYNC1_RX' incorporates:
2093:HANcoder_E407_TTA_CombineModel.c ****      *  EnablePort: '<S106>/Enable'
2094:HANcoder_E407_TTA_CombineModel.c ****      */
2095:HANcoder_E407_TTA_CombineModel.c ****     if (rtb_AND1_k) {
 2208              		.loc 1 2095 5 is_stmt 1 discriminator 4 view .LVU781
2096:HANcoder_E407_TTA_CombineModel.c ****       rtDWork.SYNC1_RX_MODE = true;
2097:HANcoder_E407_TTA_CombineModel.c **** 
2098:HANcoder_E407_TTA_CombineModel.c ****       /* M-S-Function: '<S124>/S-Function' incorporates:
2099:HANcoder_E407_TTA_CombineModel.c ****        *  Constant: '<S10>/Constant10'
2100:HANcoder_E407_TTA_CombineModel.c ****        */
2101:HANcoder_E407_TTA_CombineModel.c **** 
2102:HANcoder_E407_TTA_CombineModel.c ****       /* read the message data and store the new parameter */
2103:HANcoder_E407_TTA_CombineModel.c ****       rtb_SFunction_o1_h = CanIoGetMessage(0, SYNC1_ID, NULL,
2104:HANcoder_E407_TTA_CombineModel.c ****         &canRxData_0_SYNC1_ID.uint8_T_info[0], NULL);
2105:HANcoder_E407_TTA_CombineModel.c **** 
2106:HANcoder_E407_TTA_CombineModel.c ****       /* process the message data */
2107:HANcoder_E407_TTA_CombineModel.c ****       if (rtb_SFunction_o1_h > 0) {
2108:HANcoder_E407_TTA_CombineModel.c ****         /* read the data */
2109:HANcoder_E407_TTA_CombineModel.c ****         rtb_SFunction_o2_ib = canRxData_0_SYNC1_ID.uint8_T_info[0];
2110:HANcoder_E407_TTA_CombineModel.c ****         rtb_SFunction_o3_g = canRxData_0_SYNC1_ID.uint8_T_info[1];
2111:HANcoder_E407_TTA_CombineModel.c ****         rtb_SFunction_o4_j = canRxData_0_SYNC1_ID.uint8_T_info[2];
2112:HANcoder_E407_TTA_CombineModel.c ****         rtb_SFunction_o5_f = canRxData_0_SYNC1_ID.uint8_T_info[3];
2113:HANcoder_E407_TTA_CombineModel.c ****         rtb_SFunction_o6_gy = canRxData_0_SYNC1_ID.uint8_T_info[4];
2114:HANcoder_E407_TTA_CombineModel.c ****         rtb_SFunction_o7_k = canRxData_0_SYNC1_ID.uint8_T_info[5];
2115:HANcoder_E407_TTA_CombineModel.c ****         rtb_SFunction_o8_n = canRxData_0_SYNC1_ID.uint8_T_info[6];
2116:HANcoder_E407_TTA_CombineModel.c ****         rtb_SFunction_o9_b1 = canRxData_0_SYNC1_ID.uint8_T_info[7];
2117:HANcoder_E407_TTA_CombineModel.c ****       }
2118:HANcoder_E407_TTA_CombineModel.c **** 
2119:HANcoder_E407_TTA_CombineModel.c ****       /* Outputs for Enabled SubSystem: '<S124>/Enabled Subsystem' */
2120:HANcoder_E407_TTA_CombineModel.c ****       EnabledSubsystem(rtb_SFunction_o1_h, rtb_SFunction_o2_ib,
2121:HANcoder_E407_TTA_CombineModel.c ****                        rtb_SFunction_o3_g, rtb_SFunction_o4_j,
2122:HANcoder_E407_TTA_CombineModel.c ****                        rtb_SFunction_o5_f, rtb_SFunction_o6_gy,
2123:HANcoder_E407_TTA_CombineModel.c ****                        rtb_SFunction_o7_k, rtb_SFunction_o8_n,
2124:HANcoder_E407_TTA_CombineModel.c ****                        rtb_SFunction_o9_b1, &rtB.EnabledSubsystem_c);
2125:HANcoder_E407_TTA_CombineModel.c **** 
2126:HANcoder_E407_TTA_CombineModel.c ****       /* End of Outputs for SubSystem: '<S124>/Enabled Subsystem' */
2127:HANcoder_E407_TTA_CombineModel.c **** 
2128:HANcoder_E407_TTA_CombineModel.c ****       /* Outputs for Triggered SubSystem: '<S106>/Subsystem' incorporates:
2129:HANcoder_E407_TTA_CombineModel.c ****        *  TriggerPort: '<S125>/Trigger'
2130:HANcoder_E407_TTA_CombineModel.c ****        */
2131:HANcoder_E407_TTA_CombineModel.c ****       zcEvent = rt_I32ZCFcn(RISING_ZERO_CROSSING,
2132:HANcoder_E407_TTA_CombineModel.c ****                             &rtPrevZCSigState.Subsystem_Trig_ZCE_h,
2133:HANcoder_E407_TTA_CombineModel.c ****                             (rtb_SFunction_o1_h));
2134:HANcoder_E407_TTA_CombineModel.c ****       if (zcEvent != NO_ZCEVENT) {
2135:HANcoder_E407_TTA_CombineModel.c ****         /* DataStoreWrite: '<S125>/Data Store Write' */
2136:HANcoder_E407_TTA_CombineModel.c ****         rtDWork.SlotTime = rtB.EnabledSubsystem_c.In1;
2137:HANcoder_E407_TTA_CombineModel.c **** 
2138:HANcoder_E407_TTA_CombineModel.c ****         /* DataStoreWrite: '<S125>/Data Store Write1' incorporates:
2139:HANcoder_E407_TTA_CombineModel.c ****          *  Constant: '<S125>/Constant'
2140:HANcoder_E407_TTA_CombineModel.c ****          */
2141:HANcoder_E407_TTA_CombineModel.c ****         rtDWork.Local_Ticks = ((uint8_T)1U);
2142:HANcoder_E407_TTA_CombineModel.c **** 
2143:HANcoder_E407_TTA_CombineModel.c ****         /* DataStoreWrite: '<S125>/Data Store Write2' incorporates:
2144:HANcoder_E407_TTA_CombineModel.c ****          *  Constant: '<S125>/Constant1'
2145:HANcoder_E407_TTA_CombineModel.c ****          */
2146:HANcoder_E407_TTA_CombineModel.c ****         rtDWork.slot = ((uint8_T)1U);
2147:HANcoder_E407_TTA_CombineModel.c **** 
2148:HANcoder_E407_TTA_CombineModel.c ****         /* DataStoreWrite: '<S125>/Data Store Write3' incorporates:
2149:HANcoder_E407_TTA_CombineModel.c ****          *  Constant: '<S125>/Constant2'
2150:HANcoder_E407_TTA_CombineModel.c ****          */
2151:HANcoder_E407_TTA_CombineModel.c ****         rtDWork.receiveSync = true;
2152:HANcoder_E407_TTA_CombineModel.c ****       }
2153:HANcoder_E407_TTA_CombineModel.c **** 
2154:HANcoder_E407_TTA_CombineModel.c ****       /* End of Outputs for SubSystem: '<S106>/Subsystem' */
2155:HANcoder_E407_TTA_CombineModel.c ****     } else if (rtDWork.SYNC1_RX_MODE) {
 2209              		.loc 1 2155 12 discriminator 4 view .LVU782
 2210              		.loc 1 2155 15 is_stmt 0 discriminator 4 view .LVU783
 2211 0194 94F86821 		ldrb	r2, [r4, #360]	@ zero_extendqisi2
 2212 0198 002A     		cmp	r2, #0
 2213 019a 41F06182 		bne	.L189
 2214              	.LVL141:
 2215              	.L188:
2156:HANcoder_E407_TTA_CombineModel.c ****       rtDWork.SYNC1_RX_MODE = false;
2157:HANcoder_E407_TTA_CombineModel.c ****     }
2158:HANcoder_E407_TTA_CombineModel.c **** 
2159:HANcoder_E407_TTA_CombineModel.c ****     /* End of Outputs for SubSystem: '<S10>/SYNC1_RX' */
2160:HANcoder_E407_TTA_CombineModel.c **** 
2161:HANcoder_E407_TTA_CombineModel.c ****     /* Logic: '<S10>/AND' */
2162:HANcoder_E407_TTA_CombineModel.c ****     boolCan = (rtb_OR1 && rtb_AND_n);
 2216              		.loc 1 2162 13 view .LVU784
 2217 019e 6649     		ldr	r1, .L458+28
 2218 01a0 0022     		movs	r2, #0
 2219 01a2 0A70     		strb	r2, [r1]
2163:HANcoder_E407_TTA_CombineModel.c **** 
2164:HANcoder_E407_TTA_CombineModel.c ****     /* Outputs for Triggered SubSystem: '<S10>/SYNC1_TX' incorporates:
2165:HANcoder_E407_TTA_CombineModel.c ****      *  TriggerPort: '<S107>/Trigger'
2166:HANcoder_E407_TTA_CombineModel.c ****      */
2167:HANcoder_E407_TTA_CombineModel.c ****     if (boolCan && (rtPrevZCSigState.SYNC1_TX_Trig_ZCE != POS_ZCSIG)) {
 2220              		.loc 1 2167 5 is_stmt 1 view .LVU785
 2221              	.L257:
2168:HANcoder_E407_TTA_CombineModel.c ****       /* DataStoreRead: '<S107>/Data Store Read1' */
2169:HANcoder_E407_TTA_CombineModel.c ****       testCounter = rtDWork.testCount;
2170:HANcoder_E407_TTA_CombineModel.c **** 
2171:HANcoder_E407_TTA_CombineModel.c ****       /* Sum: '<S107>/Add' incorporates:
2172:HANcoder_E407_TTA_CombineModel.c ****        *  Constant: '<S107>/Constant7'
2173:HANcoder_E407_TTA_CombineModel.c ****        *  DataStoreWrite: '<S107>/Data Store Write'
2174:HANcoder_E407_TTA_CombineModel.c ****        */
2175:HANcoder_E407_TTA_CombineModel.c ****       rtDWork.testCount = (uint16_T)((uint32_T)testCounter + ((uint16_T)1U));
2176:HANcoder_E407_TTA_CombineModel.c **** 
2177:HANcoder_E407_TTA_CombineModel.c ****       /* DataStoreRead: '<S107>/Data Store Read' */
2178:HANcoder_E407_TTA_CombineModel.c ****       rtB.DataStoreRead = rtDWork.SlotTime;
2179:HANcoder_E407_TTA_CombineModel.c **** 
2180:HANcoder_E407_TTA_CombineModel.c ****       /* Update for M-S-Function: '<S127>/S-Function' incorporates:
2181:HANcoder_E407_TTA_CombineModel.c ****        *  Constant: '<S107>/Constant'
2182:HANcoder_E407_TTA_CombineModel.c ****        *  Constant: '<S107>/Constant1'
2183:HANcoder_E407_TTA_CombineModel.c ****        *  Constant: '<S107>/Constant2'
2184:HANcoder_E407_TTA_CombineModel.c ****        *  Constant: '<S107>/Constant3'
2185:HANcoder_E407_TTA_CombineModel.c ****        *  Constant: '<S107>/Constant4'
2186:HANcoder_E407_TTA_CombineModel.c ****        *  Constant: '<S107>/Constant5'
2187:HANcoder_E407_TTA_CombineModel.c ****        *  Constant: '<S107>/Constant6'
2188:HANcoder_E407_TTA_CombineModel.c ****        *  Constant: '<S10>/Constant10'
2189:HANcoder_E407_TTA_CombineModel.c ****        */
2190:HANcoder_E407_TTA_CombineModel.c ****       {
2191:HANcoder_E407_TTA_CombineModel.c ****         /* prepare the data */
2192:HANcoder_E407_TTA_CombineModel.c ****         canTxData.uint8_T_info[0] = rtB.DataStoreRead;
2193:HANcoder_E407_TTA_CombineModel.c ****         canTxData.uint8_T_info[1] = ((uint8_T)1U);
2194:HANcoder_E407_TTA_CombineModel.c ****         canTxData.uint8_T_info[2] = ((uint8_T)0U);
2195:HANcoder_E407_TTA_CombineModel.c ****         canTxData.uint8_T_info[3] = ((uint8_T)0U);
2196:HANcoder_E407_TTA_CombineModel.c ****         canTxData.uint8_T_info[4] = ((uint8_T)0U);
2197:HANcoder_E407_TTA_CombineModel.c ****         canTxData.uint8_T_info[5] = ((uint8_T)0U);
2198:HANcoder_E407_TTA_CombineModel.c ****         canTxData.uint8_T_info[6] = ((uint8_T)0U);
2199:HANcoder_E407_TTA_CombineModel.c ****         canTxData.uint8_T_info[7] = ((uint8_T)1U);
2200:HANcoder_E407_TTA_CombineModel.c **** 
2201:HANcoder_E407_TTA_CombineModel.c ****         /* send the data */
2202:HANcoder_E407_TTA_CombineModel.c ****         CanTransmit(0, SYNC1_ID, 8, &canTxData.uint8_T_info[0]);
2203:HANcoder_E407_TTA_CombineModel.c ****       }
2204:HANcoder_E407_TTA_CombineModel.c ****     }
2205:HANcoder_E407_TTA_CombineModel.c **** 
2206:HANcoder_E407_TTA_CombineModel.c ****     rtPrevZCSigState.SYNC1_TX_Trig_ZCE = boolCan;
 2222              		.loc 1 2206 5 view .LVU786
2207:HANcoder_E407_TTA_CombineModel.c **** 
2208:HANcoder_E407_TTA_CombineModel.c ****     /* End of Outputs for SubSystem: '<S10>/SYNC1_TX' */
2209:HANcoder_E407_TTA_CombineModel.c **** 
2210:HANcoder_E407_TTA_CombineModel.c ****     /* RelationalOperator: '<S10>/Equal6' incorporates:
2211:HANcoder_E407_TTA_CombineModel.c ****      *  Constant: '<S10>/Constant7'
2212:HANcoder_E407_TTA_CombineModel.c ****      */
2213:HANcoder_E407_TTA_CombineModel.c ****     rtb_AND_n = (slotSelected == 6.0);
 2223              		.loc 1 2213 31 is_stmt 0 view .LVU787
 2224 01a4 07EE903A 		vmov	s15, r3	@ int
 2225 01a8 B8EEE77A 		vcvt.f32.s32	s14, s15
2214:HANcoder_E407_TTA_CombineModel.c **** 
2215:HANcoder_E407_TTA_CombineModel.c ****     /* RelationalOperator: '<S10>/Equal5' incorporates:
2216:HANcoder_E407_TTA_CombineModel.c ****      *  Constant: '<S10>/Constant6'
2217:HANcoder_E407_TTA_CombineModel.c ****      *  DataStoreRead: '<S1>/Data Store Read1'
2218:HANcoder_E407_TTA_CombineModel.c ****      */
2219:HANcoder_E407_TTA_CombineModel.c ****     rtb_OR1 = (rtDWork.Board_ID == 2.0);
 2226              		.loc 1 2219 33 view .LVU788
 2227 01ac 07EE90AA 		vmov	s15, r10	@ int
 2228 01b0 F8EEE76A 		vcvt.f32.s32	s13, s15
2220:HANcoder_E407_TTA_CombineModel.c **** 
2221:HANcoder_E407_TTA_CombineModel.c ****     /* Logic: '<S10>/AND9' incorporates:
2222:HANcoder_E407_TTA_CombineModel.c ****      *  Logic: '<S10>/NOT4'
2223:HANcoder_E407_TTA_CombineModel.c ****      */
2224:HANcoder_E407_TTA_CombineModel.c ****     rtb_AND9 = (rtb_AND_n && (!rtb_OR1));
 2229              		.loc 1 2224 27 view .LVU789
 2230 01b4 F1EE087A 		vmov.f32	s15, #6.0e+0
 2231 01b8 B4EE677A 		vcmp.f32	s14, s15
 2232 01bc F1EE10FA 		vmrs	APSR_nzcv, FPSCR
2206:HANcoder_E407_TTA_CombineModel.c **** 
 2233              		.loc 1 2206 40 view .LVU790
 2234 01c0 8BF80720 		strb	r2, [fp, #7]
2213:HANcoder_E407_TTA_CombineModel.c **** 
 2235              		.loc 1 2213 5 is_stmt 1 view .LVU791
 2236              	.LVL142:
2219:HANcoder_E407_TTA_CombineModel.c **** 
 2237              		.loc 1 2219 5 view .LVU792
 2238              		.loc 1 2224 5 view .LVU793
 2239              		.loc 1 2224 27 is_stmt 0 view .LVU794
 2240 01c4 00F04387 		beq	.L430
 2241              	.LVL143:
2225:HANcoder_E407_TTA_CombineModel.c **** 
2226:HANcoder_E407_TTA_CombineModel.c ****     /* Outputs for Enabled SubSystem: '<S10>/TRCK1_ID2_RX' incorporates:
2227:HANcoder_E407_TTA_CombineModel.c ****      *  EnablePort: '<S108>/Enable'
2228:HANcoder_E407_TTA_CombineModel.c ****      */
2229:HANcoder_E407_TTA_CombineModel.c ****     if (rtb_AND9) {
 2242              		.loc 1 2229 5 is_stmt 1 view .LVU795
2230:HANcoder_E407_TTA_CombineModel.c ****       rtDWork.TRCK1_ID2_RX_MODE = true;
2231:HANcoder_E407_TTA_CombineModel.c **** 
2232:HANcoder_E407_TTA_CombineModel.c ****       /* M-S-Function: '<S130>/S-Function' incorporates:
2233:HANcoder_E407_TTA_CombineModel.c ****        *  Constant: '<S10>/Constant5'
2234:HANcoder_E407_TTA_CombineModel.c ****        */
2235:HANcoder_E407_TTA_CombineModel.c **** 
2236:HANcoder_E407_TTA_CombineModel.c ****       /* read the message data and store the new parameter */
2237:HANcoder_E407_TTA_CombineModel.c ****       rtb_SFunction_o1_p = CanIoGetMessage(0, TRCK1_ID2, NULL,
2238:HANcoder_E407_TTA_CombineModel.c ****         &canRxData_0_TRCK1_ID2.uint8_T_info[0], NULL);
2239:HANcoder_E407_TTA_CombineModel.c **** 
2240:HANcoder_E407_TTA_CombineModel.c ****       /* process the message data */
2241:HANcoder_E407_TTA_CombineModel.c ****       if (rtb_SFunction_o1_p > 0) {
2242:HANcoder_E407_TTA_CombineModel.c ****         /* read the data */
2243:HANcoder_E407_TTA_CombineModel.c ****         rtb_SFunction_o2_n = canRxData_0_TRCK1_ID2.uint8_T_info[0];
2244:HANcoder_E407_TTA_CombineModel.c ****         rtb_SFunction_o3_l = canRxData_0_TRCK1_ID2.uint8_T_info[1];
2245:HANcoder_E407_TTA_CombineModel.c ****         rtb_SFunction_o4_m = canRxData_0_TRCK1_ID2.uint8_T_info[2];
2246:HANcoder_E407_TTA_CombineModel.c ****         rtb_SFunction_o5_i = canRxData_0_TRCK1_ID2.uint8_T_info[3];
2247:HANcoder_E407_TTA_CombineModel.c ****         rtb_SFunction_o6_o = canRxData_0_TRCK1_ID2.uint8_T_info[4];
2248:HANcoder_E407_TTA_CombineModel.c ****         rtb_SFunction_o7_j = canRxData_0_TRCK1_ID2.uint8_T_info[5];
2249:HANcoder_E407_TTA_CombineModel.c ****         rtb_SFunction_o8_d = canRxData_0_TRCK1_ID2.uint8_T_info[6];
2250:HANcoder_E407_TTA_CombineModel.c ****         rtb_SFunction_o9_lv = canRxData_0_TRCK1_ID2.uint8_T_info[7];
2251:HANcoder_E407_TTA_CombineModel.c ****       }
2252:HANcoder_E407_TTA_CombineModel.c **** 
2253:HANcoder_E407_TTA_CombineModel.c ****       /* Outputs for Enabled SubSystem: '<S130>/Enabled Subsystem' */
2254:HANcoder_E407_TTA_CombineModel.c ****       EnabledSubsystem(rtb_SFunction_o1_p, rtb_SFunction_o2_n,
2255:HANcoder_E407_TTA_CombineModel.c ****                        rtb_SFunction_o3_l, rtb_SFunction_o4_m,
2256:HANcoder_E407_TTA_CombineModel.c ****                        rtb_SFunction_o5_i, rtb_SFunction_o6_o,
2257:HANcoder_E407_TTA_CombineModel.c ****                        rtb_SFunction_o7_j, rtb_SFunction_o8_d,
2258:HANcoder_E407_TTA_CombineModel.c ****                        rtb_SFunction_o9_lv, &rtB.EnabledSubsystem_b);
2259:HANcoder_E407_TTA_CombineModel.c **** 
2260:HANcoder_E407_TTA_CombineModel.c ****       /* End of Outputs for SubSystem: '<S130>/Enabled Subsystem' */
2261:HANcoder_E407_TTA_CombineModel.c **** 
2262:HANcoder_E407_TTA_CombineModel.c ****       /* DataTypeConversion: '<S129>/Cast' */
2263:HANcoder_E407_TTA_CombineModel.c ****       rtb_Cast_o = rtB.EnabledSubsystem_b.In1;
2264:HANcoder_E407_TTA_CombineModel.c **** 
2265:HANcoder_E407_TTA_CombineModel.c ****       /* Outputs for Atomic SubSystem: '<S129>/Bit Shift' */
2266:HANcoder_E407_TTA_CombineModel.c ****       BitShift(rtb_Cast_o, &rtB.BitShift_gvk);
2267:HANcoder_E407_TTA_CombineModel.c **** 
2268:HANcoder_E407_TTA_CombineModel.c ****       /* End of Outputs for SubSystem: '<S129>/Bit Shift' */
2269:HANcoder_E407_TTA_CombineModel.c **** 
2270:HANcoder_E407_TTA_CombineModel.c ****       /* Sum: '<S129>/Add' incorporates:
2271:HANcoder_E407_TTA_CombineModel.c ****        *  DataTypeConversion: '<S129>/Cast1'
2272:HANcoder_E407_TTA_CombineModel.c ****        */
2273:HANcoder_E407_TTA_CombineModel.c ****       pot21 = (uint16_T)((uint32_T)rtB.BitShift_gvk.y +
2274:HANcoder_E407_TTA_CombineModel.c ****                          rtB.EnabledSubsystem_b.In2);
2275:HANcoder_E407_TTA_CombineModel.c **** 
2276:HANcoder_E407_TTA_CombineModel.c ****       /* DataTypeConversion: '<S128>/Cast' */
2277:HANcoder_E407_TTA_CombineModel.c ****       rtb_Cast_j = rtB.EnabledSubsystem_b.In3;
2278:HANcoder_E407_TTA_CombineModel.c **** 
2279:HANcoder_E407_TTA_CombineModel.c ****       /* Outputs for Atomic SubSystem: '<S128>/Bit Shift' */
2280:HANcoder_E407_TTA_CombineModel.c ****       BitShift(rtb_Cast_j, &rtB.BitShift_gv);
2281:HANcoder_E407_TTA_CombineModel.c **** 
2282:HANcoder_E407_TTA_CombineModel.c ****       /* End of Outputs for SubSystem: '<S128>/Bit Shift' */
2283:HANcoder_E407_TTA_CombineModel.c **** 
2284:HANcoder_E407_TTA_CombineModel.c ****       /* Sum: '<S128>/Add' incorporates:
2285:HANcoder_E407_TTA_CombineModel.c ****        *  DataTypeConversion: '<S128>/Cast1'
2286:HANcoder_E407_TTA_CombineModel.c ****        */
2287:HANcoder_E407_TTA_CombineModel.c ****       pot22 = (uint16_T)((uint32_T)rtB.BitShift_gv.y +
2288:HANcoder_E407_TTA_CombineModel.c ****                          rtB.EnabledSubsystem_b.In4);
2289:HANcoder_E407_TTA_CombineModel.c **** 
2290:HANcoder_E407_TTA_CombineModel.c ****       /* Outputs for Atomic SubSystem: '<S131>/Bit Shift' */
2291:HANcoder_E407_TTA_CombineModel.c ****       BitShift_g(rtB.EnabledSubsystem_b.In7, &rtB.BitShift_gy3);
2292:HANcoder_E407_TTA_CombineModel.c **** 
2293:HANcoder_E407_TTA_CombineModel.c ****       /* End of Outputs for SubSystem: '<S131>/Bit Shift' */
2294:HANcoder_E407_TTA_CombineModel.c **** 
2295:HANcoder_E407_TTA_CombineModel.c ****       /* Outputs for Atomic SubSystem: '<S131>/Bit Shift1' */
2296:HANcoder_E407_TTA_CombineModel.c ****       BitShift1(rtB.EnabledSubsystem_b.In7, &rtB.BitShift1_g);
2297:HANcoder_E407_TTA_CombineModel.c **** 
2298:HANcoder_E407_TTA_CombineModel.c ****       /* End of Outputs for SubSystem: '<S131>/Bit Shift1' */
2299:HANcoder_E407_TTA_CombineModel.c **** 
2300:HANcoder_E407_TTA_CombineModel.c ****       /* Outputs for Atomic SubSystem: '<S131>/Bit Shift2' */
2301:HANcoder_E407_TTA_CombineModel.c ****       BitShift2(rtB.EnabledSubsystem_b.In7, &rtB.BitShift2_i);
2302:HANcoder_E407_TTA_CombineModel.c **** 
2303:HANcoder_E407_TTA_CombineModel.c ****       /* End of Outputs for SubSystem: '<S131>/Bit Shift2' */
2304:HANcoder_E407_TTA_CombineModel.c **** 
2305:HANcoder_E407_TTA_CombineModel.c ****       /* Outputs for Atomic SubSystem: '<S131>/Bit Shift3' */
2306:HANcoder_E407_TTA_CombineModel.c ****       BitShift3(rtB.EnabledSubsystem_b.In7, &rtB.BitShift3_c);
2307:HANcoder_E407_TTA_CombineModel.c **** 
2308:HANcoder_E407_TTA_CombineModel.c ****       /* End of Outputs for SubSystem: '<S131>/Bit Shift3' */
2309:HANcoder_E407_TTA_CombineModel.c **** 
2310:HANcoder_E407_TTA_CombineModel.c ****       /* Outputs for Atomic SubSystem: '<S131>/Bit Shift4' */
2311:HANcoder_E407_TTA_CombineModel.c ****       BitShift4(rtB.EnabledSubsystem_b.In7, &rtB.BitShift4_e);
2312:HANcoder_E407_TTA_CombineModel.c **** 
2313:HANcoder_E407_TTA_CombineModel.c ****       /* End of Outputs for SubSystem: '<S131>/Bit Shift4' */
2314:HANcoder_E407_TTA_CombineModel.c **** 
2315:HANcoder_E407_TTA_CombineModel.c ****       /* Outputs for Atomic SubSystem: '<S131>/Bit Shift5' */
2316:HANcoder_E407_TTA_CombineModel.c ****       BitShift5(rtB.EnabledSubsystem_b.In7, &rtB.BitShift5_b);
2317:HANcoder_E407_TTA_CombineModel.c **** 
2318:HANcoder_E407_TTA_CombineModel.c ****       /* End of Outputs for SubSystem: '<S131>/Bit Shift5' */
2319:HANcoder_E407_TTA_CombineModel.c **** 
2320:HANcoder_E407_TTA_CombineModel.c ****       /* Outputs for Atomic SubSystem: '<S131>/Bit Shift6' */
2321:HANcoder_E407_TTA_CombineModel.c ****       BitShift6(rtB.EnabledSubsystem_b.In7, &rtB.BitShift6_o);
2322:HANcoder_E407_TTA_CombineModel.c **** 
2323:HANcoder_E407_TTA_CombineModel.c ****       /* End of Outputs for SubSystem: '<S131>/Bit Shift6' */
2324:HANcoder_E407_TTA_CombineModel.c **** 
2325:HANcoder_E407_TTA_CombineModel.c ****       /* Outputs for Atomic SubSystem: '<S131>/Bit Shift7' */
2326:HANcoder_E407_TTA_CombineModel.c ****       BitShift_g(rtB.EnabledSubsystem_b.In7, &rtB.BitShift7);
2327:HANcoder_E407_TTA_CombineModel.c **** 
2328:HANcoder_E407_TTA_CombineModel.c ****       /* End of Outputs for SubSystem: '<S131>/Bit Shift7' */
2329:HANcoder_E407_TTA_CombineModel.c ****     } else if (rtDWork.TRCK1_ID2_RX_MODE) {
 2243              		.loc 1 2329 12 view .LVU796
 2244              		.loc 1 2329 15 is_stmt 0 view .LVU797
 2245 01c8 94F86731 		ldrb	r3, [r4, #359]	@ zero_extendqisi2
 2246              	.LVL144:
 2247              		.loc 1 2329 15 view .LVU798
 2248 01cc 002B     		cmp	r3, #0
 2249 01ce 41F04C82 		bne	.L280
 2250              	.L281:
 2251 01d2 5A4E     		ldr	r6, .L458+32
2162:HANcoder_E407_TTA_CombineModel.c **** 
 2252              		.loc 1 2162 13 view .LVU799
 2253 01d4 0020     		movs	r0, #0
 2254              	.LVL145:
 2255              	.L194:
2330:HANcoder_E407_TTA_CombineModel.c ****       rtDWork.TRCK1_ID2_RX_MODE = false;
2331:HANcoder_E407_TTA_CombineModel.c ****     }
2332:HANcoder_E407_TTA_CombineModel.c **** 
2333:HANcoder_E407_TTA_CombineModel.c ****     /* End of Outputs for SubSystem: '<S10>/TRCK1_ID2_RX' */
2334:HANcoder_E407_TTA_CombineModel.c **** 
2335:HANcoder_E407_TTA_CombineModel.c ****     /* Logic: '<S10>/AND8' */
2336:HANcoder_E407_TTA_CombineModel.c ****     rtb_AND8 = (rtb_AND_n && rtb_OR1);
2337:HANcoder_E407_TTA_CombineModel.c **** 
2338:HANcoder_E407_TTA_CombineModel.c ****     /* Outputs for Triggered SubSystem: '<S10>/TRCK1_ID2_TX' */
2339:HANcoder_E407_TTA_CombineModel.c ****     /* Constant: '<S10>/Constant5' */
2340:HANcoder_E407_TTA_CombineModel.c ****     TRCK1_ID2_TX(rtb_AND8, TRCK1_ID2, &rtDWork.Local_Ticks, &rtDWork.motorFailed,
 2256              		.loc 1 2340 5 is_stmt 1 discriminator 6 view .LVU800
 2257 01d6 3168     		ldr	r1, [r6]
 2258 01d8 594B     		ldr	r3, .L458+36
 2259 01da 5A4E     		ldr	r6, .L458+40
 2260 01dc 0593     		str	r3, [sp, #20]
 2261 01de 5A4B     		ldr	r3, .L458+44
 2262 01e0 0493     		str	r3, [sp, #16]
 2263 01e2 A6F10E09 		sub	r9, r6, #14
 2264 01e6 594B     		ldr	r3, .L458+48
 2265 01e8 0393     		str	r3, [sp, #12]
 2266 01ea 06F17B07 		add	r7, r6, #123
 2267 01ee 06F17A03 		add	r3, r6, #122
 2268 01f2 0296     		str	r6, [sp, #8]
 2269 01f4 CDF80490 		str	r9, [sp, #4]
 2270 01f8 0097     		str	r7, [sp]
 2271 01fa 06F16D02 		add	r2, r6, #109
 2272 01fe FFF7FEFF 		bl	TRCK1_ID2_TX
 2273              	.LVL146:
2341:HANcoder_E407_TTA_CombineModel.c ****                  &rtDWork.potFault, &rtDWork.potentiometer1,
2342:HANcoder_E407_TTA_CombineModel.c ****                  &rtDWork.potentiometer2, &rtB.TRCK1_ID2_TX_f,
2343:HANcoder_E407_TTA_CombineModel.c ****                  &rtConstB.TRCK1_ID2_TX_f, &rtPrevZCSigState.TRCK1_ID2_TX_f);
2344:HANcoder_E407_TTA_CombineModel.c **** 
2345:HANcoder_E407_TTA_CombineModel.c ****     /* End of Outputs for SubSystem: '<S10>/TRCK1_ID2_TX' */
2346:HANcoder_E407_TTA_CombineModel.c **** 
2347:HANcoder_E407_TTA_CombineModel.c ****     /* RelationalOperator: '<S10>/Equal14' incorporates:
2348:HANcoder_E407_TTA_CombineModel.c ****      *  Constant: '<S10>/Constant20'
2349:HANcoder_E407_TTA_CombineModel.c ****      */
2350:HANcoder_E407_TTA_CombineModel.c ****     rtb_AND_n = (slotSelected == 7.0);
 2274              		.loc 1 2350 5 discriminator 6 view .LVU801
 2275              		.loc 1 2350 31 is_stmt 0 discriminator 6 view .LVU802
 2276 0202 494B     		ldr	r3, .L458+12
 2277 0204 1B78     		ldrb	r3, [r3]	@ zero_extendqisi2
 2278 0206 08EE103A 		vmov	s16, r3	@ int
2351:HANcoder_E407_TTA_CombineModel.c **** 
2352:HANcoder_E407_TTA_CombineModel.c ****     /* RelationalOperator: '<S10>/Equal7' incorporates:
2353:HANcoder_E407_TTA_CombineModel.c ****      *  Constant: '<S10>/Constant19'
2354:HANcoder_E407_TTA_CombineModel.c ****      *  DataStoreRead: '<S1>/Data Store Read1'
2355:HANcoder_E407_TTA_CombineModel.c ****      */
2356:HANcoder_E407_TTA_CombineModel.c ****     rtb_OR1 = (rtDWork.Board_ID == 3.0);
 2279              		.loc 1 2356 23 discriminator 6 view .LVU803
 2280 020a 94F84831 		ldrb	r3, [r4, #328]	@ zero_extendqisi2
2350:HANcoder_E407_TTA_CombineModel.c **** 
 2281              		.loc 1 2350 31 discriminator 6 view .LVU804
 2282 020e B8EEC88A 		vcvt.f32.s32	s16, s16
 2283              	.LVL147:
 2284              		.loc 1 2356 5 is_stmt 1 discriminator 6 view .LVU805
2357:HANcoder_E407_TTA_CombineModel.c **** 
2358:HANcoder_E407_TTA_CombineModel.c ****     /* Logic: '<S10>/AND10' */
2359:HANcoder_E407_TTA_CombineModel.c ****     rtb_AND10 = (rtb_AND_n && rtb_OR1);
 2285              		.loc 1 2359 28 is_stmt 0 discriminator 6 view .LVU806
 2286 0212 F1EE0C7A 		vmov.f32	s15, #7.0e+0
2356:HANcoder_E407_TTA_CombineModel.c **** 
 2287              		.loc 1 2356 33 discriminator 6 view .LVU807
 2288 0216 07EE103A 		vmov	s14, r3	@ int
 2289              		.loc 1 2359 28 discriminator 6 view .LVU808
 2290 021a B4EE678A 		vcmp.f32	s16, s15
 2291 021e F1EE10FA 		vmrs	APSR_nzcv, FPSCR
2356:HANcoder_E407_TTA_CombineModel.c **** 
 2292              		.loc 1 2356 33 discriminator 6 view .LVU809
 2293 0222 F8EEC78A 		vcvt.f32.s32	s17, s14
 2294              	.LVL148:
 2295              		.loc 1 2359 5 is_stmt 1 discriminator 6 view .LVU810
 2296              		.loc 1 2359 28 is_stmt 0 discriminator 6 view .LVU811
 2297 0226 41F07280 		bne	.L305
 2298              		.loc 1 2359 28 discriminator 1 view .LVU812
 2299 022a F0EE087A 		vmov.f32	s15, #3.0e+0
 2300 022e F4EE678A 		vcmp.f32	s17, s15
 2301 0232 F1EE10FA 		vmrs	APSR_nzcv, FPSCR
 2302 0236 0CBF     		ite	eq
 2303 0238 0120     		moveq	r0, #1
 2304 023a 0020     		movne	r0, #0
 2305              	.L195:
2360:HANcoder_E407_TTA_CombineModel.c **** 
2361:HANcoder_E407_TTA_CombineModel.c ****     /* Outputs for Triggered SubSystem: '<S10>/TRCK1_ID3_TX' */
2362:HANcoder_E407_TTA_CombineModel.c ****     /* Constant: '<S10>/Constant26' */
2363:HANcoder_E407_TTA_CombineModel.c ****     TRCK1_ID2_TX(rtb_AND10, TRCK1_ID3, &rtDWork.Local_Ticks,
 2306              		.loc 1 2363 5 is_stmt 1 discriminator 6 view .LVU813
 2307 023c 444A     		ldr	r2, .L458+52
 2308 023e 0592     		str	r2, [sp, #20]
 2309 0240 CDE90196 		strd	r9, r6, [sp, #4]
 2310 0244 434A     		ldr	r2, .L458+56
 2311 0246 444B     		ldr	r3, .L458+60
 2312 0248 0492     		str	r2, [sp, #16]
 2313 024a 444E     		ldr	r6, .L458+64
 2314 024c 444A     		ldr	r2, .L458+68
 2315 024e 0392     		str	r2, [sp, #12]
 2316 0250 0097     		str	r7, [sp]
 2317 0252 A3F10D02 		sub	r2, r3, #13
 2318 0256 3168     		ldr	r1, [r6]
 2319 0258 FFF7FEFF 		bl	TRCK1_ID2_TX
 2320              	.LVL149:
2364:HANcoder_E407_TTA_CombineModel.c ****                  &rtDWork.motorFailed, &rtDWork.potFault,
2365:HANcoder_E407_TTA_CombineModel.c ****                  &rtDWork.potentiometer1, &rtDWork.potentiometer2,
2366:HANcoder_E407_TTA_CombineModel.c ****                  &rtB.TRCK1_ID3_TX, &rtConstB.TRCK1_ID3_TX,
2367:HANcoder_E407_TTA_CombineModel.c ****                  &rtPrevZCSigState.TRCK1_ID3_TX);
2368:HANcoder_E407_TTA_CombineModel.c **** 
2369:HANcoder_E407_TTA_CombineModel.c ****     /* End of Outputs for SubSystem: '<S10>/TRCK1_ID3_TX' */
2370:HANcoder_E407_TTA_CombineModel.c **** 
2371:HANcoder_E407_TTA_CombineModel.c ****     /* RelationalOperator: '<S10>/Equal13' incorporates:
2372:HANcoder_E407_TTA_CombineModel.c ****      *  Constant: '<S10>/Constant17'
2373:HANcoder_E407_TTA_CombineModel.c ****      */
2374:HANcoder_E407_TTA_CombineModel.c ****     rtb_DataStoreRead11 = (slotSelected == 4.0);
 2321              		.loc 1 2374 5 discriminator 6 view .LVU814
2375:HANcoder_E407_TTA_CombineModel.c **** 
2376:HANcoder_E407_TTA_CombineModel.c ****     /* RelationalOperator: '<S10>/Equal17' incorporates:
2377:HANcoder_E407_TTA_CombineModel.c ****      *  Constant: '<S10>/Constant16'
2378:HANcoder_E407_TTA_CombineModel.c ****      *  DataStoreRead: '<S1>/Data Store Read1'
2379:HANcoder_E407_TTA_CombineModel.c ****      *  RelationalOperator: '<S10>/Equal3'
2380:HANcoder_E407_TTA_CombineModel.c ****      */
2381:HANcoder_E407_TTA_CombineModel.c ****     rtb_Equal17 = (rtDWork.Board_ID == 1.0);
 2322              		.loc 1 2381 5 discriminator 6 view .LVU815
2374:HANcoder_E407_TTA_CombineModel.c **** 
 2323              		.loc 1 2374 41 is_stmt 0 discriminator 6 view .LVU816
 2324 025c 324B     		ldr	r3, .L458+12
 2325 025e 1B78     		ldrb	r3, [r3]	@ zero_extendqisi2
 2326 0260 07EE903A 		vmov	s15, r3	@ int
 2327              		.loc 1 2381 27 discriminator 6 view .LVU817
 2328 0264 94F84831 		ldrb	r3, [r4, #328]	@ zero_extendqisi2
2374:HANcoder_E407_TTA_CombineModel.c **** 
 2329              		.loc 1 2374 41 discriminator 6 view .LVU818
 2330 0268 F8EEE77A 		vcvt.f32.s32	s15, s15
2382:HANcoder_E407_TTA_CombineModel.c **** 
2383:HANcoder_E407_TTA_CombineModel.c ****     /* Logic: '<S10>/AND7' incorporates:
2384:HANcoder_E407_TTA_CombineModel.c ****      *  Logic: '<S10>/NOT3'
2385:HANcoder_E407_TTA_CombineModel.c ****      */
2386:HANcoder_E407_TTA_CombineModel.c ****     rtb_AND7 = (rtb_DataStoreRead11 && (!rtb_Equal17));
 2331              		.loc 1 2386 37 discriminator 6 view .LVU819
 2332 026c F1EE006A 		vmov.f32	s13, #4.0e+0
2381:HANcoder_E407_TTA_CombineModel.c **** 
 2333              		.loc 1 2381 37 discriminator 6 view .LVU820
 2334 0270 07EE103A 		vmov	s14, r3	@ int
 2335              		.loc 1 2386 37 discriminator 6 view .LVU821
 2336 0274 F4EE667A 		vcmp.f32	s15, s13
 2337 0278 F1EE10FA 		vmrs	APSR_nzcv, FPSCR
2381:HANcoder_E407_TTA_CombineModel.c **** 
 2338              		.loc 1 2381 37 discriminator 6 view .LVU822
 2339 027c B8EEC77A 		vcvt.f32.s32	s14, s14
 2340              	.LVL150:
 2341              		.loc 1 2386 5 is_stmt 1 discriminator 6 view .LVU823
 2342              		.loc 1 2386 37 is_stmt 0 discriminator 6 view .LVU824
 2343 0280 40F03187 		bne	.L196
 2344              		.loc 1 2386 37 discriminator 1 view .LVU825
 2345 0284 F7EE007A 		vmov.f32	s15, #1.0e+0
 2346 0288 B4EE677A 		vcmp.f32	s14, s15
 2347 028c F1EE10FA 		vmrs	APSR_nzcv, FPSCR
 2348 0290 01F06281 		beq	.L431
 2349              	.LVL151:
2387:HANcoder_E407_TTA_CombineModel.c **** 
2388:HANcoder_E407_TTA_CombineModel.c ****     /* Outputs for Enabled SubSystem: '<S10>/TRCK1_RX' incorporates:
2389:HANcoder_E407_TTA_CombineModel.c ****      *  EnablePort: '<S111>/Enable'
2390:HANcoder_E407_TTA_CombineModel.c ****      */
2391:HANcoder_E407_TTA_CombineModel.c ****     if (rtb_AND7) {
 2350              		.loc 1 2391 5 is_stmt 1 view .LVU826
2392:HANcoder_E407_TTA_CombineModel.c ****       rtDWork.TRCK1_RX_MODE = true;
 2351              		.loc 1 2392 7 view .LVU827
2393:HANcoder_E407_TTA_CombineModel.c **** 
2394:HANcoder_E407_TTA_CombineModel.c ****       /* M-S-Function: '<S199>/S-Function' incorporates:
2395:HANcoder_E407_TTA_CombineModel.c ****        *  Constant: '<S10>/Constant3'
2396:HANcoder_E407_TTA_CombineModel.c ****        */
2397:HANcoder_E407_TTA_CombineModel.c **** 
2398:HANcoder_E407_TTA_CombineModel.c ****       /* read the message data and store the new parameter */
2399:HANcoder_E407_TTA_CombineModel.c ****       rtb_SFunction_o1_ns = CanIoGetMessage(0, TRCK1_ID1, NULL,
 2352              		.loc 1 2399 29 is_stmt 0 view .LVU828
 2353 0294 334B     		ldr	r3, .L458+72
 2354 0296 344F     		ldr	r7, .L458+76
 2355 0298 1968     		ldr	r1, [r3]
 2356 029a 0022     		movs	r2, #0
2392:HANcoder_E407_TTA_CombineModel.c ****       rtDWork.TRCK1_RX_MODE = true;
 2357              		.loc 1 2392 29 view .LVU829
 2358 029c 0123     		movs	r3, #1
 2359 029e 84F86631 		strb	r3, [r4, #358]
 2360              		.loc 1 2399 7 is_stmt 1 view .LVU830
 2361              		.loc 1 2399 29 is_stmt 0 view .LVU831
 2362 02a2 0092     		str	r2, [sp]
 2363 02a4 3B46     		mov	r3, r7
 2364 02a6 1046     		mov	r0, r2
 2365 02a8 FFF7FEFF 		bl	CanIoGetMessage
 2366              	.LVL152:
2400:HANcoder_E407_TTA_CombineModel.c ****         &canRxData_0_TRCK1_ID1.uint8_T_info[0], NULL);
2401:HANcoder_E407_TTA_CombineModel.c **** 
2402:HANcoder_E407_TTA_CombineModel.c ****       /* process the message data */
2403:HANcoder_E407_TTA_CombineModel.c ****       if (rtb_SFunction_o1_ns > 0) {
 2367              		.loc 1 2403 7 is_stmt 1 view .LVU832
 2368              		.loc 1 2403 10 is_stmt 0 view .LVU833
 2369 02ac 0028     		cmp	r0, #0
 2370 02ae 41F38183 		ble	.L432
2404:HANcoder_E407_TTA_CombineModel.c ****         /* read the data */
2405:HANcoder_E407_TTA_CombineModel.c ****         rtb_SFunction_o2_i = canRxData_0_TRCK1_ID1.uint8_T_info[0];
 2371              		.loc 1 2405 9 is_stmt 1 view .LVU834
 2372              		.loc 1 2405 28 is_stmt 0 view .LVU835
 2373 02b2 3B78     		ldrb	r3, [r7]	@ zero_extendqisi2
 2374              	.LVL153:
2406:HANcoder_E407_TTA_CombineModel.c ****         rtb_SFunction_o3_i = canRxData_0_TRCK1_ID1.uint8_T_info[1];
 2375              		.loc 1 2406 9 is_stmt 1 view .LVU836
 2376              		.loc 1 2406 28 is_stmt 0 view .LVU837
 2377 02b4 7878     		ldrb	r0, [r7, #1]	@ zero_extendqisi2
 2378              	.LVL154:
2407:HANcoder_E407_TTA_CombineModel.c ****         rtb_SFunction_o4_n = canRxData_0_TRCK1_ID1.uint8_T_info[2];
 2379              		.loc 1 2407 9 is_stmt 1 view .LVU838
 2380              		.loc 1 2407 28 is_stmt 0 view .LVU839
 2381 02b6 BA78     		ldrb	r2, [r7, #2]	@ zero_extendqisi2
 2382              	.LVL155:
2408:HANcoder_E407_TTA_CombineModel.c ****         rtb_SFunction_o5_p = canRxData_0_TRCK1_ID1.uint8_T_info[3];
 2383              		.loc 1 2408 9 is_stmt 1 view .LVU840
 2384              		.loc 1 2408 28 is_stmt 0 view .LVU841
 2385 02b8 F978     		ldrb	r1, [r7, #3]	@ zero_extendqisi2
 2386              	.LVL156:
2409:HANcoder_E407_TTA_CombineModel.c ****         rtb_SFunction_o6_g = canRxData_0_TRCK1_ID1.uint8_T_info[4];
 2387              		.loc 1 2409 9 is_stmt 1 view .LVU842
2410:HANcoder_E407_TTA_CombineModel.c ****         rtb_SFunction_o7_fg = canRxData_0_TRCK1_ID1.uint8_T_info[5];
 2388              		.loc 1 2410 9 view .LVU843
2411:HANcoder_E407_TTA_CombineModel.c ****         rtb_SFunction_o8_i = canRxData_0_TRCK1_ID1.uint8_T_info[6];
 2389              		.loc 1 2411 9 view .LVU844
 2390              		.loc 1 2411 28 is_stmt 0 view .LVU845
 2391 02ba BF79     		ldrb	r7, [r7, #6]	@ zero_extendqisi2
 2392              	.LVL157:
2412:HANcoder_E407_TTA_CombineModel.c ****         rtb_SFunction_o9_o = canRxData_0_TRCK1_ID1.uint8_T_info[7];
 2393              		.loc 1 2412 9 is_stmt 1 view .LVU846
2413:HANcoder_E407_TTA_CombineModel.c ****       }
2414:HANcoder_E407_TTA_CombineModel.c **** 
2415:HANcoder_E407_TTA_CombineModel.c ****       /* Outputs for Enabled SubSystem: '<S199>/Enabled Subsystem' */
2416:HANcoder_E407_TTA_CombineModel.c ****       EnabledSubsystem(rtb_SFunction_o1_ns, rtb_SFunction_o2_i,
 2394              		.loc 1 2416 7 view .LVU847
 2395              	.LBB445:
 2396              	.LBI445:
 444:HANcoder_E407_TTA_CombineModel.c ****                       uint8_T rtu_In3, uint8_T rtu_In4, uint8_T rtu_In5, uint8_T
 2397              		.loc 1 444 6 view .LVU848
 2398              	.LBB446:
 449:HANcoder_E407_TTA_CombineModel.c ****   uint8_T rtb_In6;
 2399              		.loc 1 449 3 view .LVU849
 450:HANcoder_E407_TTA_CombineModel.c ****   uint8_T rtb_In8_m;
 2400              		.loc 1 450 3 view .LVU850
 451:HANcoder_E407_TTA_CombineModel.c **** 
 2401              		.loc 1 451 3 view .LVU851
 456:HANcoder_E407_TTA_CombineModel.c ****     /* SignalConversion generated from: '<S119>/In1' */
 2402              		.loc 1 456 3 view .LVU852
 458:HANcoder_E407_TTA_CombineModel.c **** 
 2403              		.loc 1 458 5 view .LVU853
 461:HANcoder_E407_TTA_CombineModel.c **** 
 2404              		.loc 1 461 5 view .LVU854
 464:HANcoder_E407_TTA_CombineModel.c **** 
 2405              		.loc 1 464 5 view .LVU855
 467:HANcoder_E407_TTA_CombineModel.c **** 
 2406              		.loc 1 467 5 view .LVU856
 458:HANcoder_E407_TTA_CombineModel.c **** 
 2407              		.loc 1 458 17 is_stmt 0 view .LVU857
 2408 02bc 85F88930 		strb	r3, [r5, #137]
 461:HANcoder_E407_TTA_CombineModel.c **** 
 2409              		.loc 1 461 17 view .LVU858
 2410 02c0 85F88A00 		strb	r0, [r5, #138]
 464:HANcoder_E407_TTA_CombineModel.c **** 
 2411              		.loc 1 464 17 view .LVU859
 2412 02c4 85F88B20 		strb	r2, [r5, #139]
 467:HANcoder_E407_TTA_CombineModel.c **** 
 2413              		.loc 1 467 17 view .LVU860
 2414 02c8 85F88C10 		strb	r1, [r5, #140]
 470:HANcoder_E407_TTA_CombineModel.c **** 
 2415              		.loc 1 470 5 is_stmt 1 view .LVU861
 473:HANcoder_E407_TTA_CombineModel.c **** 
 2416              		.loc 1 473 5 view .LVU862
 476:HANcoder_E407_TTA_CombineModel.c **** 
 2417              		.loc 1 476 5 view .LVU863
 476:HANcoder_E407_TTA_CombineModel.c **** 
 2418              		.loc 1 476 17 is_stmt 0 view .LVU864
 2419 02cc 85F88D70 		strb	r7, [r5, #141]
 479:HANcoder_E407_TTA_CombineModel.c ****   }
 2420              		.loc 1 479 5 is_stmt 1 view .LVU865
 2421              	.LVL158:
 2422              	.L253:
 479:HANcoder_E407_TTA_CombineModel.c ****   }
 2423              		.loc 1 479 5 is_stmt 0 view .LVU866
 2424              	.LBE446:
 2425              	.LBE445:
2417:HANcoder_E407_TTA_CombineModel.c ****                        rtb_SFunction_o3_i, rtb_SFunction_o4_n,
2418:HANcoder_E407_TTA_CombineModel.c ****                        rtb_SFunction_o5_p, rtb_SFunction_o6_g,
2419:HANcoder_E407_TTA_CombineModel.c ****                        rtb_SFunction_o7_fg, rtb_SFunction_o8_i,
2420:HANcoder_E407_TTA_CombineModel.c ****                        rtb_SFunction_o9_o, &rtB.EnabledSubsystem_hn);
2421:HANcoder_E407_TTA_CombineModel.c **** 
2422:HANcoder_E407_TTA_CombineModel.c ****       /* End of Outputs for SubSystem: '<S199>/Enabled Subsystem' */
2423:HANcoder_E407_TTA_CombineModel.c **** 
2424:HANcoder_E407_TTA_CombineModel.c ****       /* DataTypeConversion: '<S198>/Cast' */
2425:HANcoder_E407_TTA_CombineModel.c ****       rtb_Cast_d = rtB.EnabledSubsystem_hn.In1;
 2426              		.loc 1 2425 7 is_stmt 1 view .LVU867
2426:HANcoder_E407_TTA_CombineModel.c **** 
2427:HANcoder_E407_TTA_CombineModel.c ****       /* Outputs for Atomic SubSystem: '<S198>/Bit Shift' */
2428:HANcoder_E407_TTA_CombineModel.c ****       BitShift(rtb_Cast_d, &rtB.BitShift_j);
 2427              		.loc 1 2428 7 view .LVU868
 2428              	.LBB447:
 2429              	.LBI447:
 524:HANcoder_E407_TTA_CombineModel.c **** {
 2430              		.loc 1 524 6 view .LVU869
 2431              	.LBB448:
 529:HANcoder_E407_TTA_CombineModel.c **** }
 2432              		.loc 1 529 3 view .LVU870
 529:HANcoder_E407_TTA_CombineModel.c **** }
 2433              		.loc 1 529 15 is_stmt 0 view .LVU871
 2434 02d0 1B02     		lsls	r3, r3, #8
 2435              	.LVL159:
 529:HANcoder_E407_TTA_CombineModel.c **** }
 2436              		.loc 1 529 15 view .LVU872
 2437              	.LBE448:
 2438              	.LBE447:
2429:HANcoder_E407_TTA_CombineModel.c **** 
2430:HANcoder_E407_TTA_CombineModel.c ****       /* End of Outputs for SubSystem: '<S198>/Bit Shift' */
2431:HANcoder_E407_TTA_CombineModel.c **** 
2432:HANcoder_E407_TTA_CombineModel.c ****       /* Sum: '<S198>/Add' incorporates:
2433:HANcoder_E407_TTA_CombineModel.c ****        *  DataTypeConversion: '<S198>/Cast1'
2434:HANcoder_E407_TTA_CombineModel.c ****        */
2435:HANcoder_E407_TTA_CombineModel.c ****       pot11 = (uint16_T)((uint32_T)rtB.BitShift_j.y +
 2439              		.loc 1 2435 15 view .LVU873
 2440 02d2 1844     		add	r0, r0, r3
 2441              	.LBB450:
 2442              	.LBB449:
 529:HANcoder_E407_TTA_CombineModel.c **** }
 2443              		.loc 1 529 13 view .LVU874
 2444 02d4 A5F88E30 		strh	r3, [r5, #142]	@ movhi
 2445              	.LVL160:
 529:HANcoder_E407_TTA_CombineModel.c **** }
 2446              		.loc 1 529 13 view .LVU875
 2447              	.LBE449:
 2448              	.LBE450:
 2449              		.loc 1 2435 7 is_stmt 1 view .LVU876
 2450              		.loc 1 2435 13 is_stmt 0 view .LVU877
 2451 02d8 244B     		ldr	r3, .L458+80
 2452              	.LBB451:
 2453              	.LBB452:
 529:HANcoder_E407_TTA_CombineModel.c **** }
 2454              		.loc 1 529 15 view .LVU878
 2455 02da 1202     		lsls	r2, r2, #8
 2456              	.LBE452:
 2457              	.LBE451:
 2458              		.loc 1 2435 13 view .LVU879
 2459 02dc 1880     		strh	r0, [r3]	@ movhi
2436:HANcoder_E407_TTA_CombineModel.c ****                          rtB.EnabledSubsystem_hn.In2);
2437:HANcoder_E407_TTA_CombineModel.c **** 
2438:HANcoder_E407_TTA_CombineModel.c ****       /* DataTypeConversion: '<S197>/Cast' */
2439:HANcoder_E407_TTA_CombineModel.c ****       rtb_Cast_lr = rtB.EnabledSubsystem_hn.In3;
 2460              		.loc 1 2439 7 is_stmt 1 view .LVU880
 2461              	.LVL161:
2440:HANcoder_E407_TTA_CombineModel.c **** 
2441:HANcoder_E407_TTA_CombineModel.c ****       /* Outputs for Atomic SubSystem: '<S197>/Bit Shift' */
2442:HANcoder_E407_TTA_CombineModel.c ****       BitShift(rtb_Cast_lr, &rtB.BitShift_k);
 2462              		.loc 1 2442 7 view .LVU881
 2463              	.LBB455:
 2464              	.LBI451:
 524:HANcoder_E407_TTA_CombineModel.c **** {
 2465              		.loc 1 524 6 view .LVU882
 2466              	.LBB453:
 529:HANcoder_E407_TTA_CombineModel.c **** }
 2467              		.loc 1 529 3 view .LVU883
 529:HANcoder_E407_TTA_CombineModel.c **** }
 2468              		.loc 1 529 3 is_stmt 0 view .LVU884
 2469              	.LBE453:
 2470              	.LBE455:
2443:HANcoder_E407_TTA_CombineModel.c **** 
2444:HANcoder_E407_TTA_CombineModel.c ****       /* End of Outputs for SubSystem: '<S197>/Bit Shift' */
2445:HANcoder_E407_TTA_CombineModel.c **** 
2446:HANcoder_E407_TTA_CombineModel.c ****       /* Sum: '<S197>/Add' incorporates:
2447:HANcoder_E407_TTA_CombineModel.c ****        *  DataTypeConversion: '<S197>/Cast1'
2448:HANcoder_E407_TTA_CombineModel.c ****        */
2449:HANcoder_E407_TTA_CombineModel.c ****       pot12 = (uint16_T)((uint32_T)rtB.BitShift_k.y +
 2471              		.loc 1 2449 7 is_stmt 1 view .LVU885
 2472              		.loc 1 2449 13 is_stmt 0 view .LVU886
 2473 02de 244B     		ldr	r3, .L458+84
 2474              	.LBB456:
 2475              	.LBB454:
 529:HANcoder_E407_TTA_CombineModel.c **** }
 2476              		.loc 1 529 13 view .LVU887
 2477 02e0 A5F89020 		strh	r2, [r5, #144]	@ movhi
 2478              	.LBE454:
 2479              	.LBE456:
 2480              		.loc 1 2449 15 view .LVU888
 2481 02e4 1144     		add	r1, r1, r2
 2482              		.loc 1 2449 13 view .LVU889
 2483 02e6 1980     		strh	r1, [r3]	@ movhi
2450:HANcoder_E407_TTA_CombineModel.c ****                          rtB.EnabledSubsystem_hn.In4);
2451:HANcoder_E407_TTA_CombineModel.c **** 
2452:HANcoder_E407_TTA_CombineModel.c ****       /* Outputs for Atomic SubSystem: '<S200>/Bit Shift' */
2453:HANcoder_E407_TTA_CombineModel.c ****       BitShift_g(rtB.EnabledSubsystem_hn.In7, &rtB.BitShift_c);
 2484              		.loc 1 2453 7 is_stmt 1 view .LVU890
 2485              	.LVL162:
 2486              	.LBB457:
 2487              	.LBI457:
 545:HANcoder_E407_TTA_CombineModel.c **** {
 2488              		.loc 1 545 6 view .LVU891
 2489              	.LBB458:
 550:HANcoder_E407_TTA_CombineModel.c **** }
 2490              		.loc 1 550 3 view .LVU892
 550:HANcoder_E407_TTA_CombineModel.c **** }
 2491              		.loc 1 550 15 is_stmt 0 view .LVU893
 2492 02e8 7B08     		lsrs	r3, r7, #1
 550:HANcoder_E407_TTA_CombineModel.c **** }
 2493              		.loc 1 550 13 view .LVU894
 2494 02ea 85F88830 		strb	r3, [r5, #136]
 2495              	.LVL163:
 550:HANcoder_E407_TTA_CombineModel.c **** }
 2496              		.loc 1 550 13 view .LVU895
 2497              	.LBE458:
 2498              	.LBE457:
2454:HANcoder_E407_TTA_CombineModel.c **** 
2455:HANcoder_E407_TTA_CombineModel.c ****       /* End of Outputs for SubSystem: '<S200>/Bit Shift' */
2456:HANcoder_E407_TTA_CombineModel.c **** 
2457:HANcoder_E407_TTA_CombineModel.c ****       /* Outputs for Atomic SubSystem: '<S200>/Bit Shift7' */
2458:HANcoder_E407_TTA_CombineModel.c ****       BitShift_g(rtB.EnabledSubsystem_hn.In7, &rtB.BitShift7_e);
 2499              		.loc 1 2458 7 is_stmt 1 view .LVU896
 2500              	.LBB459:
 2501              	.LBI459:
 545:HANcoder_E407_TTA_CombineModel.c **** {
 2502              		.loc 1 545 6 view .LVU897
 2503              	.LBB460:
 550:HANcoder_E407_TTA_CombineModel.c **** }
 2504              		.loc 1 550 3 view .LVU898
 550:HANcoder_E407_TTA_CombineModel.c **** }
 2505              		.loc 1 550 13 is_stmt 0 view .LVU899
 2506 02ee 85F88130 		strb	r3, [r5, #129]
 2507              	.LVL164:
 550:HANcoder_E407_TTA_CombineModel.c **** }
 2508              		.loc 1 550 13 view .LVU900
 2509              	.LBE460:
 2510              	.LBE459:
2459:HANcoder_E407_TTA_CombineModel.c **** 
2460:HANcoder_E407_TTA_CombineModel.c ****       /* End of Outputs for SubSystem: '<S200>/Bit Shift7' */
2461:HANcoder_E407_TTA_CombineModel.c **** 
2462:HANcoder_E407_TTA_CombineModel.c ****       /* Outputs for Atomic SubSystem: '<S200>/Bit Shift1' */
2463:HANcoder_E407_TTA_CombineModel.c ****       BitShift1(rtB.EnabledSubsystem_hn.In7, &rtB.BitShift1_l);
 2511              		.loc 1 2463 7 is_stmt 1 view .LVU901
 2512              	.LBB461:
 2513              	.LBI461:
 561:HANcoder_E407_TTA_CombineModel.c **** {
 2514              		.loc 1 561 6 view .LVU902
 2515              	.LBB462:
 566:HANcoder_E407_TTA_CombineModel.c **** }
 2516              		.loc 1 566 3 view .LVU903
 566:HANcoder_E407_TTA_CombineModel.c **** }
 2517              		.loc 1 566 15 is_stmt 0 view .LVU904
 2518 02f2 BB08     		lsrs	r3, r7, #2
 566:HANcoder_E407_TTA_CombineModel.c **** }
 2519              		.loc 1 566 13 view .LVU905
 2520 02f4 85F88730 		strb	r3, [r5, #135]
 2521              	.LVL165:
 566:HANcoder_E407_TTA_CombineModel.c **** }
 2522              		.loc 1 566 13 view .LVU906
 2523              	.LBE462:
 2524              	.LBE461:
2464:HANcoder_E407_TTA_CombineModel.c **** 
2465:HANcoder_E407_TTA_CombineModel.c ****       /* End of Outputs for SubSystem: '<S200>/Bit Shift1' */
2466:HANcoder_E407_TTA_CombineModel.c **** 
2467:HANcoder_E407_TTA_CombineModel.c ****       /* Outputs for Atomic SubSystem: '<S200>/Bit Shift2' */
2468:HANcoder_E407_TTA_CombineModel.c ****       BitShift2(rtB.EnabledSubsystem_hn.In7, &rtB.BitShift2_c);
 2525              		.loc 1 2468 7 is_stmt 1 view .LVU907
 2526              	.LBB463:
 2527              	.LBI463:
 577:HANcoder_E407_TTA_CombineModel.c **** {
 2528              		.loc 1 577 6 view .LVU908
 2529              	.LBB464:
 582:HANcoder_E407_TTA_CombineModel.c **** }
 2530              		.loc 1 582 3 view .LVU909
 582:HANcoder_E407_TTA_CombineModel.c **** }
 2531              		.loc 1 582 15 is_stmt 0 view .LVU910
 2532 02f8 FB08     		lsrs	r3, r7, #3
 582:HANcoder_E407_TTA_CombineModel.c **** }
 2533              		.loc 1 582 13 view .LVU911
 2534 02fa 85F88630 		strb	r3, [r5, #134]
 2535              	.LVL166:
 582:HANcoder_E407_TTA_CombineModel.c **** }
 2536              		.loc 1 582 13 view .LVU912
 2537              	.LBE464:
 2538              	.LBE463:
2469:HANcoder_E407_TTA_CombineModel.c **** 
2470:HANcoder_E407_TTA_CombineModel.c ****       /* End of Outputs for SubSystem: '<S200>/Bit Shift2' */
2471:HANcoder_E407_TTA_CombineModel.c **** 
2472:HANcoder_E407_TTA_CombineModel.c ****       /* Outputs for Atomic SubSystem: '<S200>/Bit Shift3' */
2473:HANcoder_E407_TTA_CombineModel.c ****       BitShift3(rtB.EnabledSubsystem_hn.In7, &rtB.BitShift3_lj);
 2539              		.loc 1 2473 7 is_stmt 1 view .LVU913
 2540              	.LBB465:
 2541              	.LBI465:
 593:HANcoder_E407_TTA_CombineModel.c **** {
 2542              		.loc 1 593 6 view .LVU914
 2543              	.LBB466:
 598:HANcoder_E407_TTA_CombineModel.c **** }
 2544              		.loc 1 598 3 view .LVU915
 598:HANcoder_E407_TTA_CombineModel.c **** }
 2545              		.loc 1 598 15 is_stmt 0 view .LVU916
 2546 02fe 3B09     		lsrs	r3, r7, #4
 598:HANcoder_E407_TTA_CombineModel.c **** }
 2547              		.loc 1 598 13 view .LVU917
 2548 0300 85F88530 		strb	r3, [r5, #133]
 2549              	.LVL167:
 598:HANcoder_E407_TTA_CombineModel.c **** }
 2550              		.loc 1 598 13 view .LVU918
 2551              	.LBE466:
 2552              	.LBE465:
2474:HANcoder_E407_TTA_CombineModel.c **** 
2475:HANcoder_E407_TTA_CombineModel.c ****       /* End of Outputs for SubSystem: '<S200>/Bit Shift3' */
2476:HANcoder_E407_TTA_CombineModel.c **** 
2477:HANcoder_E407_TTA_CombineModel.c ****       /* Outputs for Atomic SubSystem: '<S200>/Bit Shift4' */
2478:HANcoder_E407_TTA_CombineModel.c ****       BitShift4(rtB.EnabledSubsystem_hn.In7, &rtB.BitShift4_a);
 2553              		.loc 1 2478 7 is_stmt 1 view .LVU919
 2554              	.LBB467:
 2555              	.LBI467:
 609:HANcoder_E407_TTA_CombineModel.c **** {
 2556              		.loc 1 609 6 view .LVU920
 2557              	.LBB468:
 614:HANcoder_E407_TTA_CombineModel.c **** }
 2558              		.loc 1 614 3 view .LVU921
 614:HANcoder_E407_TTA_CombineModel.c **** }
 2559              		.loc 1 614 15 is_stmt 0 view .LVU922
 2560 0304 7B09     		lsrs	r3, r7, #5
 614:HANcoder_E407_TTA_CombineModel.c **** }
 2561              		.loc 1 614 13 view .LVU923
 2562 0306 85F88430 		strb	r3, [r5, #132]
 2563              	.LVL168:
 614:HANcoder_E407_TTA_CombineModel.c **** }
 2564              		.loc 1 614 13 view .LVU924
 2565              	.LBE468:
 2566              	.LBE467:
2479:HANcoder_E407_TTA_CombineModel.c **** 
2480:HANcoder_E407_TTA_CombineModel.c ****       /* End of Outputs for SubSystem: '<S200>/Bit Shift4' */
2481:HANcoder_E407_TTA_CombineModel.c **** 
2482:HANcoder_E407_TTA_CombineModel.c ****       /* Outputs for Atomic SubSystem: '<S200>/Bit Shift5' */
2483:HANcoder_E407_TTA_CombineModel.c ****       BitShift5(rtB.EnabledSubsystem_hn.In7, &rtB.BitShift5_bs);
 2567              		.loc 1 2483 7 is_stmt 1 view .LVU925
 2568              	.LBB469:
 2569              	.LBI469:
 625:HANcoder_E407_TTA_CombineModel.c **** {
 2570              		.loc 1 625 6 view .LVU926
 2571              	.LBB470:
 630:HANcoder_E407_TTA_CombineModel.c **** }
 2572              		.loc 1 630 3 view .LVU927
 630:HANcoder_E407_TTA_CombineModel.c **** }
 2573              		.loc 1 630 15 is_stmt 0 view .LVU928
 2574 030a BB09     		lsrs	r3, r7, #6
 2575              	.LBE470:
 2576              	.LBE469:
 2577              	.LBB472:
 2578              	.LBB473:
 646:HANcoder_E407_TTA_CombineModel.c **** }
 2579              		.loc 1 646 15 view .LVU929
 2580 030c FF09     		lsrs	r7, r7, #7
 2581              	.LBE473:
 2582              	.LBE472:
 2583              	.LBB475:
 2584              	.LBB471:
 630:HANcoder_E407_TTA_CombineModel.c **** }
 2585              		.loc 1 630 13 view .LVU930
 2586 030e 85F88330 		strb	r3, [r5, #131]
 2587              	.LVL169:
 630:HANcoder_E407_TTA_CombineModel.c **** }
 2588              		.loc 1 630 13 view .LVU931
 2589              	.LBE471:
 2590              	.LBE475:
2484:HANcoder_E407_TTA_CombineModel.c **** 
2485:HANcoder_E407_TTA_CombineModel.c ****       /* End of Outputs for SubSystem: '<S200>/Bit Shift5' */
2486:HANcoder_E407_TTA_CombineModel.c **** 
2487:HANcoder_E407_TTA_CombineModel.c ****       /* Outputs for Atomic SubSystem: '<S200>/Bit Shift6' */
2488:HANcoder_E407_TTA_CombineModel.c ****       BitShift6(rtB.EnabledSubsystem_hn.In7, &rtB.BitShift6_i);
 2591              		.loc 1 2488 7 is_stmt 1 view .LVU932
 2592              	.LBB476:
 2593              	.LBI472:
 641:HANcoder_E407_TTA_CombineModel.c **** {
 2594              		.loc 1 641 6 view .LVU933
 2595              	.LBB474:
 646:HANcoder_E407_TTA_CombineModel.c **** }
 2596              		.loc 1 646 3 view .LVU934
 646:HANcoder_E407_TTA_CombineModel.c **** }
 2597              		.loc 1 646 13 is_stmt 0 view .LVU935
 2598 0312 85F88270 		strb	r7, [r5, #130]
 2599              	.LVL170:
 646:HANcoder_E407_TTA_CombineModel.c **** }
 2600              		.loc 1 646 13 view .LVU936
 2601              	.LBE474:
 2602              	.LBE476:
2489:HANcoder_E407_TTA_CombineModel.c **** 
2490:HANcoder_E407_TTA_CombineModel.c ****       /* End of Outputs for SubSystem: '<S200>/Bit Shift6' */
2491:HANcoder_E407_TTA_CombineModel.c ****     } else if (rtDWork.TRCK1_RX_MODE) {
2492:HANcoder_E407_TTA_CombineModel.c ****       rtDWork.TRCK1_RX_MODE = false;
2493:HANcoder_E407_TTA_CombineModel.c ****     }
2494:HANcoder_E407_TTA_CombineModel.c **** 
2495:HANcoder_E407_TTA_CombineModel.c ****     /* End of Outputs for SubSystem: '<S10>/TRCK1_RX' */
2496:HANcoder_E407_TTA_CombineModel.c **** 
2497:HANcoder_E407_TTA_CombineModel.c ****     /* Logic: '<S10>/AND6' */
2498:HANcoder_E407_TTA_CombineModel.c ****     rtb_DataStoreRead11 = (rtb_DataStoreRead11 && rtb_Equal17);
 2603              		.loc 1 2498 5 is_stmt 1 view .LVU937
 2604              	.L199:
2499:HANcoder_E407_TTA_CombineModel.c **** 
2500:HANcoder_E407_TTA_CombineModel.c ****     /* Outputs for Triggered SubSystem: '<S10>/TRCK1_TX' incorporates:
2501:HANcoder_E407_TTA_CombineModel.c ****      *  TriggerPort: '<S112>/Trigger'
2502:HANcoder_E407_TTA_CombineModel.c ****      */
2503:HANcoder_E407_TTA_CombineModel.c ****     if (rtb_DataStoreRead11 && (rtPrevZCSigState.TRCK1_TX_Trig_ZCE != POS_ZCSIG))
 2605              		.loc 1 2503 5 view .LVU938
2498:HANcoder_E407_TTA_CombineModel.c **** 
 2606              		.loc 1 2498 25 is_stmt 0 view .LVU939
 2607 0316 0023     		movs	r3, #0
 2608 0318 30E0     		b	.L459
 2609              	.L460:
 2610 031a 00BF     		.align	2
 2611              	.L458:
 2612 031c 00000000 		.word	.LANCHOR2
 2613 0320 00000000 		.word	.LANCHOR0
 2614 0324 00000000 		.word	.LANCHOR9
 2615 0328 00000000 		.word	.LANCHOR7
 2616 032c 00000000 		.word	.LANCHOR1
 2617 0330 00000000 		.word	.LANCHOR46
 2618 0334 00000000 		.word	.LANCHOR45
 2619 0338 00000000 		.word	.LANCHOR50
 2620 033c 00000000 		.word	.LANCHOR54
 2621 0340 06000000 		.word	.LANCHOR5+6
 2622 0344 DC000000 		.word	.LANCHOR2+220
 2623 0348 3E000000 		.word	rtConstB+62
 2624 034c A4000000 		.word	.LANCHOR0+164
 2625 0350 05000000 		.word	.LANCHOR5+5
 2626 0354 38000000 		.word	rtConstB+56
 2627 0358 56010000 		.word	.LANCHOR2+342
 2628 035c 00000000 		.word	.LANCHOR55
 2629 0360 92000000 		.word	.LANCHOR0+146
 2630 0364 00000000 		.word	.LANCHOR60
 2631 0368 00000000 		.word	.LANCHOR56
 2632 036c 00000000 		.word	.LANCHOR57
 2633 0370 00000000 		.word	.LANCHOR58
 2634 0374 00000000 		.word	.LANCHOR5
 2635 0378 00000000 		.word	.LANCHOR25
 2636              	.L459:
 2637              	.LVL171:
 2638              	.L251:
2504:HANcoder_E407_TTA_CombineModel.c ****     {
2505:HANcoder_E407_TTA_CombineModel.c ****       /* DataStoreRead: '<S112>/Data Store Read2' */
2506:HANcoder_E407_TTA_CombineModel.c ****       rtB.DataStoreRead2_h = rtDWork.Local_Ticks;
2507:HANcoder_E407_TTA_CombineModel.c **** 
2508:HANcoder_E407_TTA_CombineModel.c ****       /* DataStoreRead: '<S112>/Data Store Read4' */
2509:HANcoder_E407_TTA_CombineModel.c ****       potFaultDetected = rtDWork.potFault;
2510:HANcoder_E407_TTA_CombineModel.c **** 
2511:HANcoder_E407_TTA_CombineModel.c ****       /* DataTypeConversion: '<S223>/Cast1' */
2512:HANcoder_E407_TTA_CombineModel.c ****       rtb_Cast1_cy = potFaultDetected;
2513:HANcoder_E407_TTA_CombineModel.c **** 
2514:HANcoder_E407_TTA_CombineModel.c ****       /* Outputs for Atomic SubSystem: '<S223>/Bit Shift1' */
2515:HANcoder_E407_TTA_CombineModel.c ****       BitShift1_b(rtb_Cast1_cy, &rtB.BitShift1_n);
2516:HANcoder_E407_TTA_CombineModel.c **** 
2517:HANcoder_E407_TTA_CombineModel.c ****       /* End of Outputs for SubSystem: '<S223>/Bit Shift1' */
2518:HANcoder_E407_TTA_CombineModel.c **** 
2519:HANcoder_E407_TTA_CombineModel.c ****       /* Outputs for Atomic SubSystem: '<S223>/Bit Shift' */
2520:HANcoder_E407_TTA_CombineModel.c ****       BitShift_gy(rtConstB.Cast_f, &rtB.BitShift_gk);
2521:HANcoder_E407_TTA_CombineModel.c **** 
2522:HANcoder_E407_TTA_CombineModel.c ****       /* End of Outputs for SubSystem: '<S223>/Bit Shift' */
2523:HANcoder_E407_TTA_CombineModel.c **** 
2524:HANcoder_E407_TTA_CombineModel.c ****       /* Outputs for Atomic SubSystem: '<S223>/Bit Shift2' */
2525:HANcoder_E407_TTA_CombineModel.c ****       BitShift2_p(rtConstB.Cast2_i, &rtB.BitShift2_b);
2526:HANcoder_E407_TTA_CombineModel.c **** 
2527:HANcoder_E407_TTA_CombineModel.c ****       /* End of Outputs for SubSystem: '<S223>/Bit Shift2' */
2528:HANcoder_E407_TTA_CombineModel.c **** 
2529:HANcoder_E407_TTA_CombineModel.c ****       /* Outputs for Atomic SubSystem: '<S223>/Bit Shift3' */
2530:HANcoder_E407_TTA_CombineModel.c ****       BitShift3_l(rtConstB.Cast3_k, &rtB.BitShift3_b);
2531:HANcoder_E407_TTA_CombineModel.c **** 
2532:HANcoder_E407_TTA_CombineModel.c ****       /* End of Outputs for SubSystem: '<S223>/Bit Shift3' */
2533:HANcoder_E407_TTA_CombineModel.c **** 
2534:HANcoder_E407_TTA_CombineModel.c ****       /* Outputs for Atomic SubSystem: '<S223>/Bit Shift4' */
2535:HANcoder_E407_TTA_CombineModel.c ****       BitShift4_g(rtConstB.Cast4_b, &rtB.BitShift4_f);
2536:HANcoder_E407_TTA_CombineModel.c **** 
2537:HANcoder_E407_TTA_CombineModel.c ****       /* End of Outputs for SubSystem: '<S223>/Bit Shift4' */
2538:HANcoder_E407_TTA_CombineModel.c **** 
2539:HANcoder_E407_TTA_CombineModel.c ****       /* Outputs for Atomic SubSystem: '<S223>/Bit Shift5' */
2540:HANcoder_E407_TTA_CombineModel.c ****       BitShift5_n(rtConstB.Cast5_k, &rtB.BitShift5_i);
2541:HANcoder_E407_TTA_CombineModel.c **** 
2542:HANcoder_E407_TTA_CombineModel.c ****       /* End of Outputs for SubSystem: '<S223>/Bit Shift5' */
2543:HANcoder_E407_TTA_CombineModel.c **** 
2544:HANcoder_E407_TTA_CombineModel.c ****       /* Outputs for Atomic SubSystem: '<S223>/Bit Shift6' */
2545:HANcoder_E407_TTA_CombineModel.c ****       BitShift6_d(rtConstB.Cast6_i, &rtB.BitShift6_e);
2546:HANcoder_E407_TTA_CombineModel.c **** 
2547:HANcoder_E407_TTA_CombineModel.c ****       /* End of Outputs for SubSystem: '<S223>/Bit Shift6' */
2548:HANcoder_E407_TTA_CombineModel.c **** 
2549:HANcoder_E407_TTA_CombineModel.c ****       /* Sum: '<S223>/Add' incorporates:
2550:HANcoder_E407_TTA_CombineModel.c ****        *  DataStoreRead: '<S112>/Data Store Read3'
2551:HANcoder_E407_TTA_CombineModel.c ****        *  DataTypeConversion: '<S223>/Cast7'
2552:HANcoder_E407_TTA_CombineModel.c ****        */
2553:HANcoder_E407_TTA_CombineModel.c ****       rtB.Add_j = (uint8_T)((uint32_T)(uint8_T)((uint32_T)(uint8_T)((uint32_T)
2554:HANcoder_E407_TTA_CombineModel.c ****         (uint8_T)((uint32_T)(uint8_T)((uint32_T)(uint8_T)((uint32_T)(uint8_T)
2555:HANcoder_E407_TTA_CombineModel.c ****         ((uint32_T)rtDWork.motorFailed + rtB.BitShift1_n.y) + rtB.BitShift_gk.y)
2556:HANcoder_E407_TTA_CombineModel.c ****         + rtB.BitShift2_b.y) + rtB.BitShift3_b.y) + rtB.BitShift4_f.y) +
2557:HANcoder_E407_TTA_CombineModel.c ****         rtB.BitShift5_i.y) + rtB.BitShift6_e.y);
2558:HANcoder_E407_TTA_CombineModel.c **** 
2559:HANcoder_E407_TTA_CombineModel.c ****       /* Outputs for Atomic SubSystem: '<S224>/Bit Shift' */
2560:HANcoder_E407_TTA_CombineModel.c ****       /* DataStoreRead: '<S112>/Data Store Read1' */
2561:HANcoder_E407_TTA_CombineModel.c ****       BitShift_o(rtDWork.potentiometer2, &rtB.BitShift_jy);
2562:HANcoder_E407_TTA_CombineModel.c **** 
2563:HANcoder_E407_TTA_CombineModel.c ****       /* End of Outputs for SubSystem: '<S224>/Bit Shift' */
2564:HANcoder_E407_TTA_CombineModel.c **** 
2565:HANcoder_E407_TTA_CombineModel.c ****       /* DataTypeConversion: '<S224>/Cast' */
2566:HANcoder_E407_TTA_CombineModel.c ****       rtB.Cast_p = (uint8_T)rtB.BitShift_jy.y;
2567:HANcoder_E407_TTA_CombineModel.c **** 
2568:HANcoder_E407_TTA_CombineModel.c ****       /* DataTypeConversion: '<S224>/Cast1' incorporates:
2569:HANcoder_E407_TTA_CombineModel.c ****        *  DataStoreRead: '<S112>/Data Store Read1'
2570:HANcoder_E407_TTA_CombineModel.c ****        */
2571:HANcoder_E407_TTA_CombineModel.c ****       rtB.Cast1_b = (uint8_T)rtDWork.potentiometer2;
2572:HANcoder_E407_TTA_CombineModel.c **** 
2573:HANcoder_E407_TTA_CombineModel.c ****       /* Outputs for Atomic SubSystem: '<S225>/Bit Shift' */
2574:HANcoder_E407_TTA_CombineModel.c ****       /* DataStoreRead: '<S112>/Data Store Read' */
2575:HANcoder_E407_TTA_CombineModel.c ****       BitShift_o(rtDWork.potentiometer1, &rtB.BitShift_b);
2576:HANcoder_E407_TTA_CombineModel.c **** 
2577:HANcoder_E407_TTA_CombineModel.c ****       /* End of Outputs for SubSystem: '<S225>/Bit Shift' */
2578:HANcoder_E407_TTA_CombineModel.c **** 
2579:HANcoder_E407_TTA_CombineModel.c ****       /* DataTypeConversion: '<S225>/Cast' */
2580:HANcoder_E407_TTA_CombineModel.c ****       rtB.Cast_a = (uint8_T)rtB.BitShift_b.y;
2581:HANcoder_E407_TTA_CombineModel.c **** 
2582:HANcoder_E407_TTA_CombineModel.c ****       /* DataTypeConversion: '<S225>/Cast1' incorporates:
2583:HANcoder_E407_TTA_CombineModel.c ****        *  DataStoreRead: '<S112>/Data Store Read'
2584:HANcoder_E407_TTA_CombineModel.c ****        */
2585:HANcoder_E407_TTA_CombineModel.c ****       rtB.Cast1_n = (uint8_T)rtDWork.potentiometer1;
2586:HANcoder_E407_TTA_CombineModel.c **** 
2587:HANcoder_E407_TTA_CombineModel.c ****       /* Update for M-S-Function: '<S222>/S-Function' incorporates:
2588:HANcoder_E407_TTA_CombineModel.c ****        *  Constant: '<S10>/Constant3'
2589:HANcoder_E407_TTA_CombineModel.c ****        *  Constant: '<S112>/Constant'
2590:HANcoder_E407_TTA_CombineModel.c ****        *  Constant: '<S112>/Constant1'
2591:HANcoder_E407_TTA_CombineModel.c ****        */
2592:HANcoder_E407_TTA_CombineModel.c ****       {
2593:HANcoder_E407_TTA_CombineModel.c ****         /* prepare the data */
2594:HANcoder_E407_TTA_CombineModel.c ****         canTxData.uint8_T_info[0] = rtB.Cast_a;
2595:HANcoder_E407_TTA_CombineModel.c ****         canTxData.uint8_T_info[1] = rtB.Cast1_n;
2596:HANcoder_E407_TTA_CombineModel.c ****         canTxData.uint8_T_info[2] = rtB.Cast_p;
2597:HANcoder_E407_TTA_CombineModel.c ****         canTxData.uint8_T_info[3] = rtB.Cast1_b;
2598:HANcoder_E407_TTA_CombineModel.c ****         canTxData.uint8_T_info[4] = rtB.DataStoreRead2_h;
2599:HANcoder_E407_TTA_CombineModel.c ****         canTxData.uint8_T_info[5] = ((uint8_T)0U);
2600:HANcoder_E407_TTA_CombineModel.c ****         canTxData.uint8_T_info[6] = rtB.Add_j;
2601:HANcoder_E407_TTA_CombineModel.c ****         canTxData.uint8_T_info[7] = ((uint8_T)0U);
2602:HANcoder_E407_TTA_CombineModel.c **** 
2603:HANcoder_E407_TTA_CombineModel.c ****         /* send the data */
2604:HANcoder_E407_TTA_CombineModel.c ****         CanTransmit(0, TRCK1_ID1, 8, &canTxData.uint8_T_info[0]);
2605:HANcoder_E407_TTA_CombineModel.c ****       }
2606:HANcoder_E407_TTA_CombineModel.c ****     }
2607:HANcoder_E407_TTA_CombineModel.c **** 
2608:HANcoder_E407_TTA_CombineModel.c ****     rtPrevZCSigState.TRCK1_TX_Trig_ZCE = rtb_DataStoreRead11;
 2639              		.loc 1 2608 5 is_stmt 1 view .LVU940
2609:HANcoder_E407_TTA_CombineModel.c **** 
2610:HANcoder_E407_TTA_CombineModel.c ****     /* End of Outputs for SubSystem: '<S10>/TRCK1_TX' */
2611:HANcoder_E407_TTA_CombineModel.c **** 
2612:HANcoder_E407_TTA_CombineModel.c ****     /* Outputs for Enabled SubSystem: '<S10>/TRCK_ID3_RX' incorporates:
2613:HANcoder_E407_TTA_CombineModel.c ****      *  EnablePort: '<S113>/Enable'
2614:HANcoder_E407_TTA_CombineModel.c ****      */
2615:HANcoder_E407_TTA_CombineModel.c ****     /* Logic: '<S10>/AND11' incorporates:
2616:HANcoder_E407_TTA_CombineModel.c ****      *  Logic: '<S10>/NOT5'
2617:HANcoder_E407_TTA_CombineModel.c ****      */
2618:HANcoder_E407_TTA_CombineModel.c ****     if (rtb_AND_n && (!rtb_OR1)) {
 2640              		.loc 1 2618 8 is_stmt 0 view .LVU941
 2641 037c F1EE0C7A 		vmov.f32	s15, #7.0e+0
 2642 0380 B4EE678A 		vcmp.f32	s16, s15
 2643 0384 F1EE10FA 		vmrs	APSR_nzcv, FPSCR
2608:HANcoder_E407_TTA_CombineModel.c **** 
 2644              		.loc 1 2608 40 view .LVU942
 2645 0388 8BF80430 		strb	r3, [fp, #4]
 2646              		.loc 1 2618 5 is_stmt 1 view .LVU943
 2647              		.loc 1 2618 8 is_stmt 0 view .LVU944
 2648 038c 07D1     		bne	.L200
 2649              		.loc 1 2618 19 discriminator 1 view .LVU945
 2650 038e F0EE087A 		vmov.f32	s15, #3.0e+0
 2651 0392 F4EE678A 		vcmp.f32	s17, s15
 2652 0396 F1EE10FA 		vmrs	APSR_nzcv, FPSCR
 2653 039a 41F07581 		bne	.L433
 2654              	.L200:
2619:HANcoder_E407_TTA_CombineModel.c ****       rtDWork.TRCK_ID3_RX_MODE = true;
2620:HANcoder_E407_TTA_CombineModel.c **** 
2621:HANcoder_E407_TTA_CombineModel.c ****       /* M-S-Function: '<S246>/S-Function' incorporates:
2622:HANcoder_E407_TTA_CombineModel.c ****        *  Constant: '<S10>/Constant26'
2623:HANcoder_E407_TTA_CombineModel.c ****        */
2624:HANcoder_E407_TTA_CombineModel.c **** 
2625:HANcoder_E407_TTA_CombineModel.c ****       /* read the message data and store the new parameter */
2626:HANcoder_E407_TTA_CombineModel.c ****       rtb_SFunction_o1_k1 = CanIoGetMessage(0, TRCK1_ID3, NULL,
2627:HANcoder_E407_TTA_CombineModel.c ****         &canRxData_0_TRCK1_ID3.uint8_T_info[0], NULL);
2628:HANcoder_E407_TTA_CombineModel.c **** 
2629:HANcoder_E407_TTA_CombineModel.c ****       /* process the message data */
2630:HANcoder_E407_TTA_CombineModel.c ****       if (rtb_SFunction_o1_k1 > 0) {
2631:HANcoder_E407_TTA_CombineModel.c ****         /* read the data */
2632:HANcoder_E407_TTA_CombineModel.c ****         rtb_SFunction_o2_j = canRxData_0_TRCK1_ID3.uint8_T_info[0];
2633:HANcoder_E407_TTA_CombineModel.c ****         rtb_SFunction_o3_a = canRxData_0_TRCK1_ID3.uint8_T_info[1];
2634:HANcoder_E407_TTA_CombineModel.c ****         rtb_SFunction_o4_i = canRxData_0_TRCK1_ID3.uint8_T_info[2];
2635:HANcoder_E407_TTA_CombineModel.c ****         rtb_SFunction_o5_k = canRxData_0_TRCK1_ID3.uint8_T_info[3];
2636:HANcoder_E407_TTA_CombineModel.c ****         rtb_SFunction_o6_c = canRxData_0_TRCK1_ID3.uint8_T_info[4];
2637:HANcoder_E407_TTA_CombineModel.c ****         rtb_SFunction_o7_d = canRxData_0_TRCK1_ID3.uint8_T_info[5];
2638:HANcoder_E407_TTA_CombineModel.c ****         rtb_SFunction_o8_h = canRxData_0_TRCK1_ID3.uint8_T_info[6];
2639:HANcoder_E407_TTA_CombineModel.c ****         rtb_SFunction_o9_b = canRxData_0_TRCK1_ID3.uint8_T_info[7];
2640:HANcoder_E407_TTA_CombineModel.c ****       }
2641:HANcoder_E407_TTA_CombineModel.c **** 
2642:HANcoder_E407_TTA_CombineModel.c ****       /* Outputs for Enabled SubSystem: '<S246>/Enabled Subsystem' */
2643:HANcoder_E407_TTA_CombineModel.c ****       EnabledSubsystem(rtb_SFunction_o1_k1, rtb_SFunction_o2_j,
2644:HANcoder_E407_TTA_CombineModel.c ****                        rtb_SFunction_o3_a, rtb_SFunction_o4_i,
2645:HANcoder_E407_TTA_CombineModel.c ****                        rtb_SFunction_o5_k, rtb_SFunction_o6_c,
2646:HANcoder_E407_TTA_CombineModel.c ****                        rtb_SFunction_o7_d, rtb_SFunction_o8_h,
2647:HANcoder_E407_TTA_CombineModel.c ****                        rtb_SFunction_o9_b, &rtB.EnabledSubsystem_bj);
2648:HANcoder_E407_TTA_CombineModel.c **** 
2649:HANcoder_E407_TTA_CombineModel.c ****       /* End of Outputs for SubSystem: '<S246>/Enabled Subsystem' */
2650:HANcoder_E407_TTA_CombineModel.c **** 
2651:HANcoder_E407_TTA_CombineModel.c ****       /* DataTypeConversion: '<S245>/Cast' */
2652:HANcoder_E407_TTA_CombineModel.c ****       rtb_Cast_e1 = rtB.EnabledSubsystem_bj.In1;
2653:HANcoder_E407_TTA_CombineModel.c **** 
2654:HANcoder_E407_TTA_CombineModel.c ****       /* Outputs for Atomic SubSystem: '<S245>/Bit Shift' */
2655:HANcoder_E407_TTA_CombineModel.c ****       BitShift(rtb_Cast_e1, &rtB.BitShift_p);
2656:HANcoder_E407_TTA_CombineModel.c **** 
2657:HANcoder_E407_TTA_CombineModel.c ****       /* End of Outputs for SubSystem: '<S245>/Bit Shift' */
2658:HANcoder_E407_TTA_CombineModel.c **** 
2659:HANcoder_E407_TTA_CombineModel.c ****       /* Sum: '<S245>/Add' incorporates:
2660:HANcoder_E407_TTA_CombineModel.c ****        *  DataTypeConversion: '<S245>/Cast1'
2661:HANcoder_E407_TTA_CombineModel.c ****        */
2662:HANcoder_E407_TTA_CombineModel.c ****       pot31 = (uint16_T)((uint32_T)rtB.BitShift_p.y +
2663:HANcoder_E407_TTA_CombineModel.c ****                          rtB.EnabledSubsystem_bj.In2);
2664:HANcoder_E407_TTA_CombineModel.c **** 
2665:HANcoder_E407_TTA_CombineModel.c ****       /* DataTypeConversion: '<S244>/Cast' */
2666:HANcoder_E407_TTA_CombineModel.c ****       rtb_Cast_i = rtB.EnabledSubsystem_bj.In3;
2667:HANcoder_E407_TTA_CombineModel.c **** 
2668:HANcoder_E407_TTA_CombineModel.c ****       /* Outputs for Atomic SubSystem: '<S244>/Bit Shift' */
2669:HANcoder_E407_TTA_CombineModel.c ****       BitShift(rtb_Cast_i, &rtB.BitShift_e);
2670:HANcoder_E407_TTA_CombineModel.c **** 
2671:HANcoder_E407_TTA_CombineModel.c ****       /* End of Outputs for SubSystem: '<S244>/Bit Shift' */
2672:HANcoder_E407_TTA_CombineModel.c **** 
2673:HANcoder_E407_TTA_CombineModel.c ****       /* Sum: '<S244>/Add' incorporates:
2674:HANcoder_E407_TTA_CombineModel.c ****        *  DataTypeConversion: '<S244>/Cast1'
2675:HANcoder_E407_TTA_CombineModel.c ****        */
2676:HANcoder_E407_TTA_CombineModel.c ****       pot32 = (uint16_T)((uint32_T)rtB.BitShift_e.y +
2677:HANcoder_E407_TTA_CombineModel.c ****                          rtB.EnabledSubsystem_bj.In4);
2678:HANcoder_E407_TTA_CombineModel.c **** 
2679:HANcoder_E407_TTA_CombineModel.c ****       /* Outputs for Atomic SubSystem: '<S247>/Bit Shift' */
2680:HANcoder_E407_TTA_CombineModel.c ****       BitShift_g(rtB.EnabledSubsystem_bj.In7, &rtB.BitShift_f);
2681:HANcoder_E407_TTA_CombineModel.c **** 
2682:HANcoder_E407_TTA_CombineModel.c ****       /* End of Outputs for SubSystem: '<S247>/Bit Shift' */
2683:HANcoder_E407_TTA_CombineModel.c **** 
2684:HANcoder_E407_TTA_CombineModel.c ****       /* Outputs for Atomic SubSystem: '<S247>/Bit Shift1' */
2685:HANcoder_E407_TTA_CombineModel.c ****       BitShift1(rtB.EnabledSubsystem_bj.In7, &rtB.BitShift1_a);
2686:HANcoder_E407_TTA_CombineModel.c **** 
2687:HANcoder_E407_TTA_CombineModel.c ****       /* End of Outputs for SubSystem: '<S247>/Bit Shift1' */
2688:HANcoder_E407_TTA_CombineModel.c **** 
2689:HANcoder_E407_TTA_CombineModel.c ****       /* Outputs for Atomic SubSystem: '<S247>/Bit Shift2' */
2690:HANcoder_E407_TTA_CombineModel.c ****       BitShift2(rtB.EnabledSubsystem_bj.In7, &rtB.BitShift2_cw);
2691:HANcoder_E407_TTA_CombineModel.c **** 
2692:HANcoder_E407_TTA_CombineModel.c ****       /* End of Outputs for SubSystem: '<S247>/Bit Shift2' */
2693:HANcoder_E407_TTA_CombineModel.c **** 
2694:HANcoder_E407_TTA_CombineModel.c ****       /* Outputs for Atomic SubSystem: '<S247>/Bit Shift3' */
2695:HANcoder_E407_TTA_CombineModel.c ****       BitShift3(rtB.EnabledSubsystem_bj.In7, &rtB.BitShift3_d);
2696:HANcoder_E407_TTA_CombineModel.c **** 
2697:HANcoder_E407_TTA_CombineModel.c ****       /* End of Outputs for SubSystem: '<S247>/Bit Shift3' */
2698:HANcoder_E407_TTA_CombineModel.c **** 
2699:HANcoder_E407_TTA_CombineModel.c ****       /* Outputs for Atomic SubSystem: '<S247>/Bit Shift4' */
2700:HANcoder_E407_TTA_CombineModel.c ****       BitShift4(rtB.EnabledSubsystem_bj.In7, &rtB.BitShift4_d);
2701:HANcoder_E407_TTA_CombineModel.c **** 
2702:HANcoder_E407_TTA_CombineModel.c ****       /* End of Outputs for SubSystem: '<S247>/Bit Shift4' */
2703:HANcoder_E407_TTA_CombineModel.c **** 
2704:HANcoder_E407_TTA_CombineModel.c ****       /* Outputs for Atomic SubSystem: '<S247>/Bit Shift5' */
2705:HANcoder_E407_TTA_CombineModel.c ****       BitShift5(rtB.EnabledSubsystem_bj.In7, &rtB.BitShift5_c);
2706:HANcoder_E407_TTA_CombineModel.c **** 
2707:HANcoder_E407_TTA_CombineModel.c ****       /* End of Outputs for SubSystem: '<S247>/Bit Shift5' */
2708:HANcoder_E407_TTA_CombineModel.c **** 
2709:HANcoder_E407_TTA_CombineModel.c ****       /* Outputs for Atomic SubSystem: '<S247>/Bit Shift6' */
2710:HANcoder_E407_TTA_CombineModel.c ****       BitShift6(rtB.EnabledSubsystem_bj.In7, &rtB.BitShift6_b);
2711:HANcoder_E407_TTA_CombineModel.c **** 
2712:HANcoder_E407_TTA_CombineModel.c ****       /* End of Outputs for SubSystem: '<S247>/Bit Shift6' */
2713:HANcoder_E407_TTA_CombineModel.c **** 
2714:HANcoder_E407_TTA_CombineModel.c ****       /* Outputs for Atomic SubSystem: '<S247>/Bit Shift7' */
2715:HANcoder_E407_TTA_CombineModel.c ****       BitShift_g(rtB.EnabledSubsystem_bj.In7, &rtB.BitShift7_j);
2716:HANcoder_E407_TTA_CombineModel.c **** 
2717:HANcoder_E407_TTA_CombineModel.c ****       /* End of Outputs for SubSystem: '<S247>/Bit Shift7' */
2718:HANcoder_E407_TTA_CombineModel.c ****     } else if (rtDWork.TRCK_ID3_RX_MODE) {
 2655              		.loc 1 2718 12 is_stmt 1 view .LVU946
 2656              		.loc 1 2718 15 is_stmt 0 view .LVU947
 2657 039e 94F86531 		ldrb	r3, [r4, #357]	@ zero_extendqisi2
 2658 03a2 13B1     		cbz	r3, .L203
2719:HANcoder_E407_TTA_CombineModel.c ****       rtDWork.TRCK_ID3_RX_MODE = false;
 2659              		.loc 1 2719 7 is_stmt 1 view .LVU948
 2660              		.loc 1 2719 32 is_stmt 0 view .LVU949
 2661 03a4 0023     		movs	r3, #0
 2662 03a6 84F86531 		strb	r3, [r4, #357]
 2663              	.L203:
2720:HANcoder_E407_TTA_CombineModel.c ****     }
2721:HANcoder_E407_TTA_CombineModel.c **** 
2722:HANcoder_E407_TTA_CombineModel.c ****     /* End of Logic: '<S10>/AND11' */
2723:HANcoder_E407_TTA_CombineModel.c ****     /* End of Outputs for SubSystem: '<S10>/TRCK_ID3_RX' */
2724:HANcoder_E407_TTA_CombineModel.c **** 
2725:HANcoder_E407_TTA_CombineModel.c ****     /* RelationalOperator: '<S10>/Equal17' incorporates:
2726:HANcoder_E407_TTA_CombineModel.c ****      *  Constant: '<S10>/Constant22'
2727:HANcoder_E407_TTA_CombineModel.c ****      *  RelationalOperator: '<S10>/Equal15'
2728:HANcoder_E407_TTA_CombineModel.c ****      */
2729:HANcoder_E407_TTA_CombineModel.c ****     rtb_Equal17 = (slotSelected == 8.0);
 2664              		.loc 1 2729 5 is_stmt 1 view .LVU950
 2665              		.loc 1 2729 33 is_stmt 0 view .LVU951
 2666 03aa 374B     		ldr	r3, .L461
2730:HANcoder_E407_TTA_CombineModel.c **** 
2731:HANcoder_E407_TTA_CombineModel.c ****     /* RelationalOperator: '<S10>/Equal8' incorporates:
2732:HANcoder_E407_TTA_CombineModel.c ****      *  Constant: '<S10>/Constant21'
2733:HANcoder_E407_TTA_CombineModel.c ****      *  DataStoreRead: '<S1>/Data Store Read1'
2734:HANcoder_E407_TTA_CombineModel.c ****      */
2735:HANcoder_E407_TTA_CombineModel.c ****     rtb_AND_n = (rtDWork.Board_ID == 4.0);
 2667              		.loc 1 2735 25 view .LVU952
 2668 03ac 94F848A1 		ldrb	r10, [r4, #328]	@ zero_extendqisi2
2729:HANcoder_E407_TTA_CombineModel.c **** 
 2669              		.loc 1 2729 33 view .LVU953
 2670 03b0 1B78     		ldrb	r3, [r3]	@ zero_extendqisi2
 2671 03b2 07EE903A 		vmov	s15, r3	@ int
 2672 03b6 F8EEE77A 		vcvt.f32.s32	s15, s15
 2673              	.LVL172:
 2674              		.loc 1 2735 5 is_stmt 1 view .LVU954
2736:HANcoder_E407_TTA_CombineModel.c **** 
2737:HANcoder_E407_TTA_CombineModel.c ****     /* Logic: '<S10>/AND13' incorporates:
2738:HANcoder_E407_TTA_CombineModel.c ****      *  Logic: '<S10>/NOT6'
2739:HANcoder_E407_TTA_CombineModel.c ****      */
2740:HANcoder_E407_TTA_CombineModel.c ****     rtb_AND13 = (rtb_Equal17 && (!rtb_AND_n));
 2675              		.loc 1 2740 30 is_stmt 0 view .LVU955
 2676 03ba F2EE006A 		vmov.f32	s13, #8.0e+0
2735:HANcoder_E407_TTA_CombineModel.c **** 
 2677              		.loc 1 2735 35 view .LVU956
 2678 03be 07EE10AA 		vmov	s14, r10	@ int
 2679              		.loc 1 2740 30 view .LVU957
 2680 03c2 F4EE667A 		vcmp.f32	s15, s13
 2681 03c6 F1EE10FA 		vmrs	APSR_nzcv, FPSCR
2735:HANcoder_E407_TTA_CombineModel.c **** 
 2682              		.loc 1 2735 35 view .LVU958
 2683 03ca B8EEC77A 		vcvt.f32.s32	s14, s14
 2684              	.LVL173:
 2685              		.loc 1 2740 5 is_stmt 1 view .LVU959
 2686              		.loc 1 2740 30 is_stmt 0 view .LVU960
 2687 03ce 00F02187 		beq	.L434
 2688              	.LVL174:
2741:HANcoder_E407_TTA_CombineModel.c **** 
2742:HANcoder_E407_TTA_CombineModel.c ****     /* Outputs for Enabled SubSystem: '<S10>/TRLS_ID4_RX' incorporates:
2743:HANcoder_E407_TTA_CombineModel.c ****      *  EnablePort: '<S114>/Enable'
2744:HANcoder_E407_TTA_CombineModel.c ****      */
2745:HANcoder_E407_TTA_CombineModel.c ****     if (rtb_AND13) {
 2689              		.loc 1 2745 5 is_stmt 1 view .LVU961
2746:HANcoder_E407_TTA_CombineModel.c ****       rtDWork.TRLS_ID4_RX_MODE = true;
2747:HANcoder_E407_TTA_CombineModel.c **** 
2748:HANcoder_E407_TTA_CombineModel.c ****       /* M-S-Function: '<S271>/S-Function' incorporates:
2749:HANcoder_E407_TTA_CombineModel.c ****        *  Constant: '<S10>/Constant8'
2750:HANcoder_E407_TTA_CombineModel.c ****        */
2751:HANcoder_E407_TTA_CombineModel.c **** 
2752:HANcoder_E407_TTA_CombineModel.c ****       /* read the message data and store the new parameter */
2753:HANcoder_E407_TTA_CombineModel.c ****       rtb_SFunction_o1_k = CanIoGetMessage(0, TRLS1_ID4, NULL,
2754:HANcoder_E407_TTA_CombineModel.c ****         &canRxData_0_TRLS1_ID4.uint8_T_info[0], NULL);
2755:HANcoder_E407_TTA_CombineModel.c **** 
2756:HANcoder_E407_TTA_CombineModel.c ****       /* process the message data */
2757:HANcoder_E407_TTA_CombineModel.c ****       if (rtb_SFunction_o1_k > 0) {
2758:HANcoder_E407_TTA_CombineModel.c ****         /* read the data */
2759:HANcoder_E407_TTA_CombineModel.c ****         rtb_SFunction_o2_e = canRxData_0_TRLS1_ID4.uint8_T_info[0];
2760:HANcoder_E407_TTA_CombineModel.c ****         rtb_SFunction_o3_p = canRxData_0_TRLS1_ID4.uint8_T_info[1];
2761:HANcoder_E407_TTA_CombineModel.c ****         rtb_SFunction_o4_c = canRxData_0_TRLS1_ID4.uint8_T_info[2];
2762:HANcoder_E407_TTA_CombineModel.c ****         rtb_SFunction_o5_c = canRxData_0_TRLS1_ID4.uint8_T_info[3];
2763:HANcoder_E407_TTA_CombineModel.c ****         rtb_SFunction_o6_e = canRxData_0_TRLS1_ID4.uint8_T_info[4];
2764:HANcoder_E407_TTA_CombineModel.c ****         rtb_SFunction_o7_l = canRxData_0_TRLS1_ID4.uint8_T_info[5];
2765:HANcoder_E407_TTA_CombineModel.c ****         rtb_SFunction_o8_f = canRxData_0_TRLS1_ID4.uint8_T_info[6];
2766:HANcoder_E407_TTA_CombineModel.c ****         rtb_SFunction_o9_h = canRxData_0_TRLS1_ID4.uint8_T_info[7];
2767:HANcoder_E407_TTA_CombineModel.c ****       }
2768:HANcoder_E407_TTA_CombineModel.c **** 
2769:HANcoder_E407_TTA_CombineModel.c ****       /* Outputs for Enabled SubSystem: '<S271>/Enabled Subsystem' incorporates:
2770:HANcoder_E407_TTA_CombineModel.c ****        *  EnablePort: '<S277>/Enable'
2771:HANcoder_E407_TTA_CombineModel.c ****        */
2772:HANcoder_E407_TTA_CombineModel.c ****       if (rtb_SFunction_o1_k > 0) {
2773:HANcoder_E407_TTA_CombineModel.c ****         /* SignalConversion generated from: '<S277>/In1' */
2774:HANcoder_E407_TTA_CombineModel.c ****         rtB.In1_e = rtb_SFunction_o2_e;
2775:HANcoder_E407_TTA_CombineModel.c **** 
2776:HANcoder_E407_TTA_CombineModel.c ****         /* SignalConversion generated from: '<S277>/In2' */
2777:HANcoder_E407_TTA_CombineModel.c ****         rtB.In2_e = rtb_SFunction_o3_p;
2778:HANcoder_E407_TTA_CombineModel.c **** 
2779:HANcoder_E407_TTA_CombineModel.c ****         /* SignalConversion generated from: '<S277>/In3' */
2780:HANcoder_E407_TTA_CombineModel.c ****         rtB.In3_g = rtb_SFunction_o4_c;
2781:HANcoder_E407_TTA_CombineModel.c **** 
2782:HANcoder_E407_TTA_CombineModel.c ****         /* SignalConversion generated from: '<S277>/In4' */
2783:HANcoder_E407_TTA_CombineModel.c ****         rtB.In4_a = rtb_SFunction_o5_c;
2784:HANcoder_E407_TTA_CombineModel.c **** 
2785:HANcoder_E407_TTA_CombineModel.c ****         /* SignalConversion generated from: '<S277>/In6' */
2786:HANcoder_E407_TTA_CombineModel.c ****         buttonpress1 = rtb_SFunction_o7_l;
2787:HANcoder_E407_TTA_CombineModel.c **** 
2788:HANcoder_E407_TTA_CombineModel.c ****         /* SignalConversion generated from: '<S277>/In7' */
2789:HANcoder_E407_TTA_CombineModel.c ****         rtB.In7_g = rtb_SFunction_o8_f;
2790:HANcoder_E407_TTA_CombineModel.c ****       }
2791:HANcoder_E407_TTA_CombineModel.c **** 
2792:HANcoder_E407_TTA_CombineModel.c ****       /* End of Outputs for SubSystem: '<S271>/Enabled Subsystem' */
2793:HANcoder_E407_TTA_CombineModel.c **** 
2794:HANcoder_E407_TTA_CombineModel.c ****       /* DataStoreWrite: '<S114>/Data Store Write' */
2795:HANcoder_E407_TTA_CombineModel.c ****       rtDWork.trailer1buttonPress = buttonpress1;
2796:HANcoder_E407_TTA_CombineModel.c **** 
2797:HANcoder_E407_TTA_CombineModel.c ****       /* DataTypeConversion: '<S270>/Cast' */
2798:HANcoder_E407_TTA_CombineModel.c ****       rtb_Cast_gh = rtB.In1_e;
2799:HANcoder_E407_TTA_CombineModel.c **** 
2800:HANcoder_E407_TTA_CombineModel.c ****       /* Outputs for Atomic SubSystem: '<S270>/Bit Shift' */
2801:HANcoder_E407_TTA_CombineModel.c ****       BitShift(rtb_Cast_gh, &rtB.BitShift_n);
2802:HANcoder_E407_TTA_CombineModel.c **** 
2803:HANcoder_E407_TTA_CombineModel.c ****       /* End of Outputs for SubSystem: '<S270>/Bit Shift' */
2804:HANcoder_E407_TTA_CombineModel.c **** 
2805:HANcoder_E407_TTA_CombineModel.c ****       /* Sum: '<S270>/Add' incorporates:
2806:HANcoder_E407_TTA_CombineModel.c ****        *  DataStoreWrite: '<S114>/Data Store Write1'
2807:HANcoder_E407_TTA_CombineModel.c ****        *  DataTypeConversion: '<S270>/Cast1'
2808:HANcoder_E407_TTA_CombineModel.c ****        */
2809:HANcoder_E407_TTA_CombineModel.c ****       rtDWork.pot4_1 = (uint16_T)((uint32_T)rtB.BitShift_n.y + rtB.In2_e);
2810:HANcoder_E407_TTA_CombineModel.c **** 
2811:HANcoder_E407_TTA_CombineModel.c ****       /* DataTypeConversion: '<S269>/Cast' */
2812:HANcoder_E407_TTA_CombineModel.c ****       rtb_Cast_ow = rtB.In3_g;
2813:HANcoder_E407_TTA_CombineModel.c **** 
2814:HANcoder_E407_TTA_CombineModel.c ****       /* Outputs for Atomic SubSystem: '<S269>/Bit Shift' */
2815:HANcoder_E407_TTA_CombineModel.c ****       BitShift(rtb_Cast_ow, &rtB.BitShift_gu);
2816:HANcoder_E407_TTA_CombineModel.c **** 
2817:HANcoder_E407_TTA_CombineModel.c ****       /* End of Outputs for SubSystem: '<S269>/Bit Shift' */
2818:HANcoder_E407_TTA_CombineModel.c **** 
2819:HANcoder_E407_TTA_CombineModel.c ****       /* Sum: '<S269>/Add' incorporates:
2820:HANcoder_E407_TTA_CombineModel.c ****        *  DataStoreWrite: '<S114>/Data Store Write2'
2821:HANcoder_E407_TTA_CombineModel.c ****        *  DataTypeConversion: '<S269>/Cast1'
2822:HANcoder_E407_TTA_CombineModel.c ****        */
2823:HANcoder_E407_TTA_CombineModel.c ****       rtDWork.pot4_2 = (uint16_T)((uint32_T)rtB.BitShift_gu.y + rtB.In4_a);
2824:HANcoder_E407_TTA_CombineModel.c **** 
2825:HANcoder_E407_TTA_CombineModel.c ****       /* Outputs for Atomic SubSystem: '<S272>/Bit Shift' */
2826:HANcoder_E407_TTA_CombineModel.c ****       BitShift_g(rtB.In7_g, &rtB.BitShift_l);
2827:HANcoder_E407_TTA_CombineModel.c **** 
2828:HANcoder_E407_TTA_CombineModel.c ****       /* End of Outputs for SubSystem: '<S272>/Bit Shift' */
2829:HANcoder_E407_TTA_CombineModel.c **** 
2830:HANcoder_E407_TTA_CombineModel.c ****       /* DataTypeConversion: '<S272>/Cast' incorporates:
2831:HANcoder_E407_TTA_CombineModel.c ****        *  DataStoreWrite: '<S114>/Data Store Write4'
2832:HANcoder_E407_TTA_CombineModel.c ****        */
2833:HANcoder_E407_TTA_CombineModel.c ****       rtDWork.potReadNode4Fail = (rtB.BitShift_l.y != 0);
2834:HANcoder_E407_TTA_CombineModel.c **** 
2835:HANcoder_E407_TTA_CombineModel.c ****       /* Outputs for Atomic SubSystem: '<S272>/Bit Shift1' */
2836:HANcoder_E407_TTA_CombineModel.c ****       BitShift1(rtB.In7_g, &rtB.BitShift1_e);
2837:HANcoder_E407_TTA_CombineModel.c **** 
2838:HANcoder_E407_TTA_CombineModel.c ****       /* End of Outputs for SubSystem: '<S272>/Bit Shift1' */
2839:HANcoder_E407_TTA_CombineModel.c **** 
2840:HANcoder_E407_TTA_CombineModel.c ****       /* Outputs for Atomic SubSystem: '<S272>/Bit Shift2' */
2841:HANcoder_E407_TTA_CombineModel.c ****       BitShift2(rtB.In7_g, &rtB.BitShift2_l);
2842:HANcoder_E407_TTA_CombineModel.c **** 
2843:HANcoder_E407_TTA_CombineModel.c ****       /* End of Outputs for SubSystem: '<S272>/Bit Shift2' */
2844:HANcoder_E407_TTA_CombineModel.c **** 
2845:HANcoder_E407_TTA_CombineModel.c ****       /* Outputs for Atomic SubSystem: '<S272>/Bit Shift3' */
2846:HANcoder_E407_TTA_CombineModel.c ****       BitShift3(rtB.In7_g, &rtB.BitShift3_f);
2847:HANcoder_E407_TTA_CombineModel.c **** 
2848:HANcoder_E407_TTA_CombineModel.c ****       /* End of Outputs for SubSystem: '<S272>/Bit Shift3' */
2849:HANcoder_E407_TTA_CombineModel.c **** 
2850:HANcoder_E407_TTA_CombineModel.c ****       /* Outputs for Atomic SubSystem: '<S272>/Bit Shift4' */
2851:HANcoder_E407_TTA_CombineModel.c ****       BitShift4(rtB.In7_g, &rtB.BitShift4_j);
2852:HANcoder_E407_TTA_CombineModel.c **** 
2853:HANcoder_E407_TTA_CombineModel.c ****       /* End of Outputs for SubSystem: '<S272>/Bit Shift4' */
2854:HANcoder_E407_TTA_CombineModel.c **** 
2855:HANcoder_E407_TTA_CombineModel.c ****       /* Outputs for Atomic SubSystem: '<S272>/Bit Shift5' */
2856:HANcoder_E407_TTA_CombineModel.c ****       BitShift5(rtB.In7_g, &rtB.BitShift5_o);
2857:HANcoder_E407_TTA_CombineModel.c **** 
2858:HANcoder_E407_TTA_CombineModel.c ****       /* End of Outputs for SubSystem: '<S272>/Bit Shift5' */
2859:HANcoder_E407_TTA_CombineModel.c **** 
2860:HANcoder_E407_TTA_CombineModel.c ****       /* Outputs for Atomic SubSystem: '<S272>/Bit Shift6' */
2861:HANcoder_E407_TTA_CombineModel.c ****       BitShift6(rtB.In7_g, &rtB.BitShift6_o5);
2862:HANcoder_E407_TTA_CombineModel.c **** 
2863:HANcoder_E407_TTA_CombineModel.c ****       /* End of Outputs for SubSystem: '<S272>/Bit Shift6' */
2864:HANcoder_E407_TTA_CombineModel.c **** 
2865:HANcoder_E407_TTA_CombineModel.c ****       /* Outputs for Atomic SubSystem: '<S272>/Bit Shift7' */
2866:HANcoder_E407_TTA_CombineModel.c ****       BitShift_g(rtB.In7_g, &rtB.BitShift7_m);
2867:HANcoder_E407_TTA_CombineModel.c **** 
2868:HANcoder_E407_TTA_CombineModel.c ****       /* End of Outputs for SubSystem: '<S272>/Bit Shift7' */
2869:HANcoder_E407_TTA_CombineModel.c ****     } else if (rtDWork.TRLS_ID4_RX_MODE) {
 2690              		.loc 1 2869 12 view .LVU962
 2691              		.loc 1 2869 15 is_stmt 0 view .LVU963
 2692 03d2 94F86431 		ldrb	r3, [r4, #356]	@ zero_extendqisi2
 2693 03d6 002B     		cmp	r3, #0
 2694 03d8 41F05181 		bne	.L273
 2695              	.LVL175:
 2696              	.L207:
2870:HANcoder_E407_TTA_CombineModel.c ****       rtDWork.TRLS_ID4_RX_MODE = false;
2871:HANcoder_E407_TTA_CombineModel.c ****     }
2872:HANcoder_E407_TTA_CombineModel.c **** 
2873:HANcoder_E407_TTA_CombineModel.c ****     /* End of Outputs for SubSystem: '<S10>/TRLS_ID4_RX' */
2874:HANcoder_E407_TTA_CombineModel.c **** 
2875:HANcoder_E407_TTA_CombineModel.c ****     /* Logic: '<S10>/AND12' */
2876:HANcoder_E407_TTA_CombineModel.c ****     rtb_OR1 = (rtb_Equal17 && rtb_AND_n);
2877:HANcoder_E407_TTA_CombineModel.c **** 
2878:HANcoder_E407_TTA_CombineModel.c ****     /* Outputs for Triggered SubSystem: '<S10>/TRLS_ID4_TX' incorporates:
2879:HANcoder_E407_TTA_CombineModel.c ****      *  TriggerPort: '<S115>/Trigger'
2880:HANcoder_E407_TTA_CombineModel.c ****      */
2881:HANcoder_E407_TTA_CombineModel.c ****     if (rtb_OR1 && (rtPrevZCSigState.TRLS_ID4_TX_Trig_ZCE != POS_ZCSIG)) {
 2697              		.loc 1 2881 5 is_stmt 1 view .LVU964
2876:HANcoder_E407_TTA_CombineModel.c **** 
 2698              		.loc 1 2876 13 is_stmt 0 view .LVU965
 2699 03dc 0023     		movs	r3, #0
 2700              	.LVL176:
 2701              	.L247:
2882:HANcoder_E407_TTA_CombineModel.c ****       /* DataStoreRead: '<S115>/Data Store Read2' */
2883:HANcoder_E407_TTA_CombineModel.c ****       rtB.DataStoreRead2 = rtDWork.Local_Ticks;
2884:HANcoder_E407_TTA_CombineModel.c **** 
2885:HANcoder_E407_TTA_CombineModel.c ****       /* DataStoreRead: '<S115>/Data Store Read3' */
2886:HANcoder_E407_TTA_CombineModel.c ****       rtB.DataStoreRead3_c = rtDWork.buttonPress;
2887:HANcoder_E407_TTA_CombineModel.c **** 
2888:HANcoder_E407_TTA_CombineModel.c ****       /* DataTypeConversion: '<S295>/Cast1' incorporates:
2889:HANcoder_E407_TTA_CombineModel.c ****        *  DataStoreRead: '<S115>/Data Store Read4'
2890:HANcoder_E407_TTA_CombineModel.c ****        */
2891:HANcoder_E407_TTA_CombineModel.c ****       rtb_Cast1_m = rtDWork.potFault;
2892:HANcoder_E407_TTA_CombineModel.c **** 
2893:HANcoder_E407_TTA_CombineModel.c ****       /* Outputs for Atomic SubSystem: '<S295>/Bit Shift1' */
2894:HANcoder_E407_TTA_CombineModel.c ****       BitShift1_b(rtb_Cast1_m, &rtB.BitShift1_c);
2895:HANcoder_E407_TTA_CombineModel.c **** 
2896:HANcoder_E407_TTA_CombineModel.c ****       /* End of Outputs for SubSystem: '<S295>/Bit Shift1' */
2897:HANcoder_E407_TTA_CombineModel.c **** 
2898:HANcoder_E407_TTA_CombineModel.c ****       /* Outputs for Atomic SubSystem: '<S295>/Bit Shift' */
2899:HANcoder_E407_TTA_CombineModel.c ****       BitShift_gy(rtConstB.Cast_j, &rtB.BitShift_eg);
2900:HANcoder_E407_TTA_CombineModel.c **** 
2901:HANcoder_E407_TTA_CombineModel.c ****       /* End of Outputs for SubSystem: '<S295>/Bit Shift' */
2902:HANcoder_E407_TTA_CombineModel.c **** 
2903:HANcoder_E407_TTA_CombineModel.c ****       /* Outputs for Atomic SubSystem: '<S295>/Bit Shift2' */
2904:HANcoder_E407_TTA_CombineModel.c ****       BitShift2_p(rtConstB.Cast2_o, &rtB.BitShift2_l4);
2905:HANcoder_E407_TTA_CombineModel.c **** 
2906:HANcoder_E407_TTA_CombineModel.c ****       /* End of Outputs for SubSystem: '<S295>/Bit Shift2' */
2907:HANcoder_E407_TTA_CombineModel.c **** 
2908:HANcoder_E407_TTA_CombineModel.c ****       /* Outputs for Atomic SubSystem: '<S295>/Bit Shift3' */
2909:HANcoder_E407_TTA_CombineModel.c ****       BitShift3_l(rtConstB.Cast3_g, &rtB.BitShift3_m);
2910:HANcoder_E407_TTA_CombineModel.c **** 
2911:HANcoder_E407_TTA_CombineModel.c ****       /* End of Outputs for SubSystem: '<S295>/Bit Shift3' */
2912:HANcoder_E407_TTA_CombineModel.c **** 
2913:HANcoder_E407_TTA_CombineModel.c ****       /* Outputs for Atomic SubSystem: '<S295>/Bit Shift4' */
2914:HANcoder_E407_TTA_CombineModel.c ****       BitShift4_g(rtConstB.Cast4_l, &rtB.BitShift4_c);
2915:HANcoder_E407_TTA_CombineModel.c **** 
2916:HANcoder_E407_TTA_CombineModel.c ****       /* End of Outputs for SubSystem: '<S295>/Bit Shift4' */
2917:HANcoder_E407_TTA_CombineModel.c **** 
2918:HANcoder_E407_TTA_CombineModel.c ****       /* Outputs for Atomic SubSystem: '<S295>/Bit Shift5' */
2919:HANcoder_E407_TTA_CombineModel.c ****       BitShift5_n(rtConstB.Cast5_h, &rtB.BitShift5_og);
2920:HANcoder_E407_TTA_CombineModel.c **** 
2921:HANcoder_E407_TTA_CombineModel.c ****       /* End of Outputs for SubSystem: '<S295>/Bit Shift5' */
2922:HANcoder_E407_TTA_CombineModel.c **** 
2923:HANcoder_E407_TTA_CombineModel.c ****       /* Outputs for Atomic SubSystem: '<S295>/Bit Shift6' */
2924:HANcoder_E407_TTA_CombineModel.c ****       BitShift6_d(rtConstB.Cast6_e, &rtB.BitShift6_k);
2925:HANcoder_E407_TTA_CombineModel.c **** 
2926:HANcoder_E407_TTA_CombineModel.c ****       /* End of Outputs for SubSystem: '<S295>/Bit Shift6' */
2927:HANcoder_E407_TTA_CombineModel.c **** 
2928:HANcoder_E407_TTA_CombineModel.c ****       /* Sum: '<S295>/Add' */
2929:HANcoder_E407_TTA_CombineModel.c ****       rtB.Add_f = (uint8_T)((uint32_T)(uint8_T)((uint32_T)(uint8_T)((uint32_T)
2930:HANcoder_E407_TTA_CombineModel.c ****         (uint8_T)((uint32_T)(uint8_T)((uint32_T)(uint8_T)((uint32_T)(uint8_T)
2931:HANcoder_E407_TTA_CombineModel.c ****         ((uint32_T)rtConstB.Cast7_e + rtB.BitShift1_c.y) + rtB.BitShift_eg.y) +
2932:HANcoder_E407_TTA_CombineModel.c ****         rtB.BitShift2_l4.y) + rtB.BitShift3_m.y) + rtB.BitShift4_c.y) +
2933:HANcoder_E407_TTA_CombineModel.c ****         rtB.BitShift5_og.y) + rtB.BitShift6_k.y);
2934:HANcoder_E407_TTA_CombineModel.c **** 
2935:HANcoder_E407_TTA_CombineModel.c ****       /* Outputs for Atomic SubSystem: '<S296>/Bit Shift' */
2936:HANcoder_E407_TTA_CombineModel.c ****       /* DataStoreRead: '<S115>/Data Store Read1' */
2937:HANcoder_E407_TTA_CombineModel.c ****       BitShift_o(rtDWork.potentiometer2, &rtB.BitShift_h);
2938:HANcoder_E407_TTA_CombineModel.c **** 
2939:HANcoder_E407_TTA_CombineModel.c ****       /* End of Outputs for SubSystem: '<S296>/Bit Shift' */
2940:HANcoder_E407_TTA_CombineModel.c **** 
2941:HANcoder_E407_TTA_CombineModel.c ****       /* DataTypeConversion: '<S296>/Cast' */
2942:HANcoder_E407_TTA_CombineModel.c ****       rtB.Cast_d = (uint8_T)rtB.BitShift_h.y;
2943:HANcoder_E407_TTA_CombineModel.c **** 
2944:HANcoder_E407_TTA_CombineModel.c ****       /* DataTypeConversion: '<S296>/Cast1' incorporates:
2945:HANcoder_E407_TTA_CombineModel.c ****        *  DataStoreRead: '<S115>/Data Store Read1'
2946:HANcoder_E407_TTA_CombineModel.c ****        */
2947:HANcoder_E407_TTA_CombineModel.c ****       rtB.Cast1_c = (uint8_T)rtDWork.potentiometer2;
2948:HANcoder_E407_TTA_CombineModel.c **** 
2949:HANcoder_E407_TTA_CombineModel.c ****       /* Outputs for Atomic SubSystem: '<S297>/Bit Shift' */
2950:HANcoder_E407_TTA_CombineModel.c ****       /* DataStoreRead: '<S115>/Data Store Read' */
2951:HANcoder_E407_TTA_CombineModel.c ****       BitShift_o(rtDWork.potentiometer1, &rtB.BitShift_d);
2952:HANcoder_E407_TTA_CombineModel.c **** 
2953:HANcoder_E407_TTA_CombineModel.c ****       /* End of Outputs for SubSystem: '<S297>/Bit Shift' */
2954:HANcoder_E407_TTA_CombineModel.c **** 
2955:HANcoder_E407_TTA_CombineModel.c ****       /* DataTypeConversion: '<S297>/Cast' */
2956:HANcoder_E407_TTA_CombineModel.c ****       rtB.Cast_n = (uint8_T)rtB.BitShift_d.y;
2957:HANcoder_E407_TTA_CombineModel.c **** 
2958:HANcoder_E407_TTA_CombineModel.c ****       /* DataTypeConversion: '<S297>/Cast1' incorporates:
2959:HANcoder_E407_TTA_CombineModel.c ****        *  DataStoreRead: '<S115>/Data Store Read'
2960:HANcoder_E407_TTA_CombineModel.c ****        */
2961:HANcoder_E407_TTA_CombineModel.c ****       rtB.Cast1_i = (uint8_T)rtDWork.potentiometer1;
2962:HANcoder_E407_TTA_CombineModel.c **** 
2963:HANcoder_E407_TTA_CombineModel.c ****       /* Update for M-S-Function: '<S294>/S-Function' incorporates:
2964:HANcoder_E407_TTA_CombineModel.c ****        *  Constant: '<S10>/Constant8'
2965:HANcoder_E407_TTA_CombineModel.c ****        *  Constant: '<S115>/Constant1'
2966:HANcoder_E407_TTA_CombineModel.c ****        */
2967:HANcoder_E407_TTA_CombineModel.c ****       {
2968:HANcoder_E407_TTA_CombineModel.c ****         /* prepare the data */
2969:HANcoder_E407_TTA_CombineModel.c ****         canTxData.uint8_T_info[0] = rtB.Cast_n;
2970:HANcoder_E407_TTA_CombineModel.c ****         canTxData.uint8_T_info[1] = rtB.Cast1_i;
2971:HANcoder_E407_TTA_CombineModel.c ****         canTxData.uint8_T_info[2] = rtB.Cast_d;
2972:HANcoder_E407_TTA_CombineModel.c ****         canTxData.uint8_T_info[3] = rtB.Cast1_c;
2973:HANcoder_E407_TTA_CombineModel.c ****         canTxData.uint8_T_info[4] = rtB.DataStoreRead2;
2974:HANcoder_E407_TTA_CombineModel.c ****         canTxData.uint8_T_info[5] = rtB.DataStoreRead3_c;
2975:HANcoder_E407_TTA_CombineModel.c ****         canTxData.uint8_T_info[6] = rtB.Add_f;
2976:HANcoder_E407_TTA_CombineModel.c ****         canTxData.uint8_T_info[7] = ((uint8_T)0U);
2977:HANcoder_E407_TTA_CombineModel.c **** 
2978:HANcoder_E407_TTA_CombineModel.c ****         /* send the data */
2979:HANcoder_E407_TTA_CombineModel.c ****         CanTransmit(0, TRLS1_ID4, 8, &canTxData.uint8_T_info[0]);
2980:HANcoder_E407_TTA_CombineModel.c ****       }
2981:HANcoder_E407_TTA_CombineModel.c ****     }
2982:HANcoder_E407_TTA_CombineModel.c **** 
2983:HANcoder_E407_TTA_CombineModel.c ****     rtPrevZCSigState.TRLS_ID4_TX_Trig_ZCE = rtb_OR1;
 2702              		.loc 1 2983 5 is_stmt 1 view .LVU966
2984:HANcoder_E407_TTA_CombineModel.c **** 
2985:HANcoder_E407_TTA_CombineModel.c ****     /* End of Outputs for SubSystem: '<S10>/TRLS_ID4_TX' */
2986:HANcoder_E407_TTA_CombineModel.c **** 
2987:HANcoder_E407_TTA_CombineModel.c ****     /* RelationalOperator: '<S10>/Equal17' incorporates:
2988:HANcoder_E407_TTA_CombineModel.c ****      *  Constant: '<S10>/Constant25'
2989:HANcoder_E407_TTA_CombineModel.c ****      */
2990:HANcoder_E407_TTA_CombineModel.c ****     rtb_Equal17 = (slotSelected == 9.0);
2991:HANcoder_E407_TTA_CombineModel.c **** 
2992:HANcoder_E407_TTA_CombineModel.c ****     /* RelationalOperator: '<S10>/Equal16' incorporates:
2993:HANcoder_E407_TTA_CombineModel.c ****      *  Constant: '<S10>/Constant24'
2994:HANcoder_E407_TTA_CombineModel.c ****      *  DataStoreRead: '<S1>/Data Store Read1'
2995:HANcoder_E407_TTA_CombineModel.c ****      */
2996:HANcoder_E407_TTA_CombineModel.c ****     rtb_AND_n = (rtDWork.Board_ID == 5.0);
2997:HANcoder_E407_TTA_CombineModel.c **** 
2998:HANcoder_E407_TTA_CombineModel.c ****     /* Logic: '<S10>/AND15' incorporates:
2999:HANcoder_E407_TTA_CombineModel.c ****      *  Logic: '<S10>/NOT7'
3000:HANcoder_E407_TTA_CombineModel.c ****      */
3001:HANcoder_E407_TTA_CombineModel.c ****     rtb_AND15 = (rtb_Equal17 && (!rtb_AND_n));
 2703              		.loc 1 3001 30 is_stmt 0 view .LVU967
 2704 03de F2EE026A 		vmov.f32	s13, #9.0e+0
 2705 03e2 F4EE667A 		vcmp.f32	s15, s13
 2706 03e6 F1EE10FA 		vmrs	APSR_nzcv, FPSCR
2983:HANcoder_E407_TTA_CombineModel.c **** 
 2707              		.loc 1 2983 43 view .LVU968
 2708 03ea 8BF80330 		strb	r3, [fp, #3]
2990:HANcoder_E407_TTA_CombineModel.c **** 
 2709              		.loc 1 2990 5 is_stmt 1 view .LVU969
 2710              	.LVL177:
2996:HANcoder_E407_TTA_CombineModel.c **** 
 2711              		.loc 1 2996 5 view .LVU970
 2712              		.loc 1 3001 5 view .LVU971
 2713              		.loc 1 3001 30 is_stmt 0 view .LVU972
 2714 03ee 00F08486 		beq	.L435
 2715              	.LVL178:
3002:HANcoder_E407_TTA_CombineModel.c **** 
3003:HANcoder_E407_TTA_CombineModel.c ****     /* Outputs for Enabled SubSystem: '<S10>/TRLS_ID5_RX' incorporates:
3004:HANcoder_E407_TTA_CombineModel.c ****      *  EnablePort: '<S116>/Enable'
3005:HANcoder_E407_TTA_CombineModel.c ****      */
3006:HANcoder_E407_TTA_CombineModel.c ****     if (rtb_AND15) {
 2716              		.loc 1 3006 5 is_stmt 1 view .LVU973
3007:HANcoder_E407_TTA_CombineModel.c ****       rtDWork.TRLS_ID5_RX_MODE = true;
3008:HANcoder_E407_TTA_CombineModel.c **** 
3009:HANcoder_E407_TTA_CombineModel.c ****       /* M-S-Function: '<S318>/S-Function' incorporates:
3010:HANcoder_E407_TTA_CombineModel.c ****        *  Constant: '<S10>/Constant18'
3011:HANcoder_E407_TTA_CombineModel.c ****        */
3012:HANcoder_E407_TTA_CombineModel.c **** 
3013:HANcoder_E407_TTA_CombineModel.c ****       /* read the message data and store the new parameter */
3014:HANcoder_E407_TTA_CombineModel.c ****       rtb_SFunction_o1_n = CanIoGetMessage(0, TRLS1_ID5, NULL,
3015:HANcoder_E407_TTA_CombineModel.c ****         &canRxData_0_TRLS1_ID5.uint8_T_info[0], NULL);
3016:HANcoder_E407_TTA_CombineModel.c **** 
3017:HANcoder_E407_TTA_CombineModel.c ****       /* process the message data */
3018:HANcoder_E407_TTA_CombineModel.c ****       if (rtb_SFunction_o1_n > 0) {
3019:HANcoder_E407_TTA_CombineModel.c ****         /* read the data */
3020:HANcoder_E407_TTA_CombineModel.c ****         rtb_SFunction_o2_l = canRxData_0_TRLS1_ID5.uint8_T_info[0];
3021:HANcoder_E407_TTA_CombineModel.c ****         rtb_SFunction_o3_m = canRxData_0_TRLS1_ID5.uint8_T_info[1];
3022:HANcoder_E407_TTA_CombineModel.c ****         rtb_SFunction_o4_b = canRxData_0_TRLS1_ID5.uint8_T_info[2];
3023:HANcoder_E407_TTA_CombineModel.c ****         rtb_SFunction_o5_o = canRxData_0_TRLS1_ID5.uint8_T_info[3];
3024:HANcoder_E407_TTA_CombineModel.c ****         rtb_SFunction_o6_i = canRxData_0_TRLS1_ID5.uint8_T_info[4];
3025:HANcoder_E407_TTA_CombineModel.c ****         rtb_SFunction_o7_f = canRxData_0_TRLS1_ID5.uint8_T_info[5];
3026:HANcoder_E407_TTA_CombineModel.c ****         rtb_SFunction_o8_p = canRxData_0_TRLS1_ID5.uint8_T_info[6];
3027:HANcoder_E407_TTA_CombineModel.c ****         rtb_SFunction_o9_l = canRxData_0_TRLS1_ID5.uint8_T_info[7];
3028:HANcoder_E407_TTA_CombineModel.c ****       }
3029:HANcoder_E407_TTA_CombineModel.c **** 
3030:HANcoder_E407_TTA_CombineModel.c ****       /* Outputs for Enabled SubSystem: '<S318>/Enabled Subsystem' incorporates:
3031:HANcoder_E407_TTA_CombineModel.c ****        *  EnablePort: '<S324>/Enable'
3032:HANcoder_E407_TTA_CombineModel.c ****        */
3033:HANcoder_E407_TTA_CombineModel.c ****       if (rtb_SFunction_o1_n > 0) {
3034:HANcoder_E407_TTA_CombineModel.c ****         /* SignalConversion generated from: '<S324>/In1' */
3035:HANcoder_E407_TTA_CombineModel.c ****         rtB.In1 = rtb_SFunction_o2_l;
3036:HANcoder_E407_TTA_CombineModel.c **** 
3037:HANcoder_E407_TTA_CombineModel.c ****         /* SignalConversion generated from: '<S324>/In2' */
3038:HANcoder_E407_TTA_CombineModel.c ****         rtB.In2 = rtb_SFunction_o3_m;
3039:HANcoder_E407_TTA_CombineModel.c **** 
3040:HANcoder_E407_TTA_CombineModel.c ****         /* SignalConversion generated from: '<S324>/In3' */
3041:HANcoder_E407_TTA_CombineModel.c ****         rtB.In3 = rtb_SFunction_o4_b;
3042:HANcoder_E407_TTA_CombineModel.c **** 
3043:HANcoder_E407_TTA_CombineModel.c ****         /* SignalConversion generated from: '<S324>/In6' */
3044:HANcoder_E407_TTA_CombineModel.c ****         buttonpress2 = rtb_SFunction_o7_f;
3045:HANcoder_E407_TTA_CombineModel.c **** 
3046:HANcoder_E407_TTA_CombineModel.c ****         /* SignalConversion generated from: '<S324>/In7' */
3047:HANcoder_E407_TTA_CombineModel.c ****         rtB.In7 = rtb_SFunction_o8_p;
3048:HANcoder_E407_TTA_CombineModel.c ****       }
3049:HANcoder_E407_TTA_CombineModel.c **** 
3050:HANcoder_E407_TTA_CombineModel.c ****       /* End of Outputs for SubSystem: '<S318>/Enabled Subsystem' */
3051:HANcoder_E407_TTA_CombineModel.c **** 
3052:HANcoder_E407_TTA_CombineModel.c ****       /* DataStoreWrite: '<S116>/Data Store Write' */
3053:HANcoder_E407_TTA_CombineModel.c ****       rtDWork.trailer2buttonPress = buttonpress2;
3054:HANcoder_E407_TTA_CombineModel.c **** 
3055:HANcoder_E407_TTA_CombineModel.c ****       /* DataTypeConversion: '<S317>/Cast' */
3056:HANcoder_E407_TTA_CombineModel.c ****       rtb_Cast_g = rtB.In1;
3057:HANcoder_E407_TTA_CombineModel.c **** 
3058:HANcoder_E407_TTA_CombineModel.c ****       /* Outputs for Atomic SubSystem: '<S317>/Bit Shift' */
3059:HANcoder_E407_TTA_CombineModel.c ****       BitShift(rtb_Cast_g, &rtB.BitShift_jx);
3060:HANcoder_E407_TTA_CombineModel.c **** 
3061:HANcoder_E407_TTA_CombineModel.c ****       /* End of Outputs for SubSystem: '<S317>/Bit Shift' */
3062:HANcoder_E407_TTA_CombineModel.c **** 
3063:HANcoder_E407_TTA_CombineModel.c ****       /* Sum: '<S317>/Add' incorporates:
3064:HANcoder_E407_TTA_CombineModel.c ****        *  DataStoreWrite: '<S116>/Data Store Write1'
3065:HANcoder_E407_TTA_CombineModel.c ****        *  DataTypeConversion: '<S317>/Cast1'
3066:HANcoder_E407_TTA_CombineModel.c ****        */
3067:HANcoder_E407_TTA_CombineModel.c ****       rtDWork.pot5_1 = (uint16_T)((uint32_T)rtB.BitShift_jx.y + rtB.In2);
3068:HANcoder_E407_TTA_CombineModel.c **** 
3069:HANcoder_E407_TTA_CombineModel.c ****       /* DataTypeConversion: '<S316>/Cast' */
3070:HANcoder_E407_TTA_CombineModel.c ****       rtb_Cast_ky = rtB.In3;
3071:HANcoder_E407_TTA_CombineModel.c **** 
3072:HANcoder_E407_TTA_CombineModel.c ****       /* Outputs for Atomic SubSystem: '<S316>/Bit Shift' */
3073:HANcoder_E407_TTA_CombineModel.c ****       BitShift(rtb_Cast_ky, &rtB.BitShift_a);
3074:HANcoder_E407_TTA_CombineModel.c **** 
3075:HANcoder_E407_TTA_CombineModel.c ****       /* End of Outputs for SubSystem: '<S316>/Bit Shift' */
3076:HANcoder_E407_TTA_CombineModel.c **** 
3077:HANcoder_E407_TTA_CombineModel.c ****       /* Outputs for Atomic SubSystem: '<S319>/Bit Shift' */
3078:HANcoder_E407_TTA_CombineModel.c ****       BitShift_g(rtB.In7, &rtB.BitShift_dp);
3079:HANcoder_E407_TTA_CombineModel.c **** 
3080:HANcoder_E407_TTA_CombineModel.c ****       /* End of Outputs for SubSystem: '<S319>/Bit Shift' */
3081:HANcoder_E407_TTA_CombineModel.c **** 
3082:HANcoder_E407_TTA_CombineModel.c ****       /* DataTypeConversion: '<S319>/Cast' incorporates:
3083:HANcoder_E407_TTA_CombineModel.c ****        *  DataStoreWrite: '<S116>/Data Store Write5'
3084:HANcoder_E407_TTA_CombineModel.c ****        */
3085:HANcoder_E407_TTA_CombineModel.c ****       rtDWork.potReadNode5Fail = (rtB.BitShift_dp.y != 0);
3086:HANcoder_E407_TTA_CombineModel.c **** 
3087:HANcoder_E407_TTA_CombineModel.c ****       /* Outputs for Atomic SubSystem: '<S319>/Bit Shift1' */
3088:HANcoder_E407_TTA_CombineModel.c ****       BitShift1(rtB.In7, &rtB.BitShift1_au);
3089:HANcoder_E407_TTA_CombineModel.c **** 
3090:HANcoder_E407_TTA_CombineModel.c ****       /* End of Outputs for SubSystem: '<S319>/Bit Shift1' */
3091:HANcoder_E407_TTA_CombineModel.c **** 
3092:HANcoder_E407_TTA_CombineModel.c ****       /* Outputs for Atomic SubSystem: '<S319>/Bit Shift2' */
3093:HANcoder_E407_TTA_CombineModel.c ****       BitShift2(rtB.In7, &rtB.BitShift2_d);
3094:HANcoder_E407_TTA_CombineModel.c **** 
3095:HANcoder_E407_TTA_CombineModel.c ****       /* End of Outputs for SubSystem: '<S319>/Bit Shift2' */
3096:HANcoder_E407_TTA_CombineModel.c **** 
3097:HANcoder_E407_TTA_CombineModel.c ****       /* Outputs for Atomic SubSystem: '<S319>/Bit Shift3' */
3098:HANcoder_E407_TTA_CombineModel.c ****       BitShift3(rtB.In7, &rtB.BitShift3_dx);
3099:HANcoder_E407_TTA_CombineModel.c **** 
3100:HANcoder_E407_TTA_CombineModel.c ****       /* End of Outputs for SubSystem: '<S319>/Bit Shift3' */
3101:HANcoder_E407_TTA_CombineModel.c **** 
3102:HANcoder_E407_TTA_CombineModel.c ****       /* Outputs for Atomic SubSystem: '<S319>/Bit Shift4' */
3103:HANcoder_E407_TTA_CombineModel.c ****       BitShift4(rtB.In7, &rtB.BitShift4_o);
3104:HANcoder_E407_TTA_CombineModel.c **** 
3105:HANcoder_E407_TTA_CombineModel.c ****       /* End of Outputs for SubSystem: '<S319>/Bit Shift4' */
3106:HANcoder_E407_TTA_CombineModel.c **** 
3107:HANcoder_E407_TTA_CombineModel.c ****       /* Outputs for Atomic SubSystem: '<S319>/Bit Shift5' */
3108:HANcoder_E407_TTA_CombineModel.c ****       BitShift5(rtB.In7, &rtB.BitShift5_ni);
3109:HANcoder_E407_TTA_CombineModel.c **** 
3110:HANcoder_E407_TTA_CombineModel.c ****       /* End of Outputs for SubSystem: '<S319>/Bit Shift5' */
3111:HANcoder_E407_TTA_CombineModel.c **** 
3112:HANcoder_E407_TTA_CombineModel.c ****       /* Outputs for Atomic SubSystem: '<S319>/Bit Shift6' */
3113:HANcoder_E407_TTA_CombineModel.c ****       BitShift6(rtB.In7, &rtB.BitShift6_a);
3114:HANcoder_E407_TTA_CombineModel.c **** 
3115:HANcoder_E407_TTA_CombineModel.c ****       /* End of Outputs for SubSystem: '<S319>/Bit Shift6' */
3116:HANcoder_E407_TTA_CombineModel.c **** 
3117:HANcoder_E407_TTA_CombineModel.c ****       /* Outputs for Atomic SubSystem: '<S319>/Bit Shift7' */
3118:HANcoder_E407_TTA_CombineModel.c ****       BitShift_g(rtB.In7, &rtB.BitShift7_ms);
3119:HANcoder_E407_TTA_CombineModel.c **** 
3120:HANcoder_E407_TTA_CombineModel.c ****       /* End of Outputs for SubSystem: '<S319>/Bit Shift7' */
3121:HANcoder_E407_TTA_CombineModel.c ****     } else if (rtDWork.TRLS_ID5_RX_MODE) {
 2717              		.loc 1 3121 12 view .LVU974
 2718              		.loc 1 3121 15 is_stmt 0 view .LVU975
 2719 03f2 94F86331 		ldrb	r3, [r4, #355]	@ zero_extendqisi2
 2720 03f6 002B     		cmp	r3, #0
 2721 03f8 41F03C81 		bne	.L270
 2722              	.LVL179:
 2723              	.L211:
3122:HANcoder_E407_TTA_CombineModel.c ****       rtDWork.TRLS_ID5_RX_MODE = false;
3123:HANcoder_E407_TTA_CombineModel.c ****     }
3124:HANcoder_E407_TTA_CombineModel.c **** 
3125:HANcoder_E407_TTA_CombineModel.c ****     /* End of Outputs for SubSystem: '<S10>/TRLS_ID5_RX' */
3126:HANcoder_E407_TTA_CombineModel.c **** 
3127:HANcoder_E407_TTA_CombineModel.c ****     /* Logic: '<S10>/AND14' */
3128:HANcoder_E407_TTA_CombineModel.c ****     rtb_OR1 = (rtb_Equal17 && rtb_AND_n);
3129:HANcoder_E407_TTA_CombineModel.c **** 
3130:HANcoder_E407_TTA_CombineModel.c ****     /* Outputs for Triggered SubSystem: '<S10>/TRLS_ID5_TX' incorporates:
3131:HANcoder_E407_TTA_CombineModel.c ****      *  TriggerPort: '<S117>/Trigger'
3132:HANcoder_E407_TTA_CombineModel.c ****      */
3133:HANcoder_E407_TTA_CombineModel.c ****     if (rtb_OR1 && (rtPrevZCSigState.TRLS_ID5_TX_Trig_ZCE != POS_ZCSIG)) {
 2724              		.loc 1 3133 5 is_stmt 1 view .LVU976
3128:HANcoder_E407_TTA_CombineModel.c **** 
 2725              		.loc 1 3128 13 is_stmt 0 view .LVU977
 2726 03fc 0023     		movs	r3, #0
 2727              	.LVL180:
 2728              	.L242:
3134:HANcoder_E407_TTA_CombineModel.c ****       /* DataStoreRead: '<S117>/Data Store Read3' */
3135:HANcoder_E407_TTA_CombineModel.c ****       rtB.DataStoreRead3 = rtDWork.Local_Ticks;
3136:HANcoder_E407_TTA_CombineModel.c **** 
3137:HANcoder_E407_TTA_CombineModel.c ****       /* DataStoreRead: '<S117>/Data Store Read4' */
3138:HANcoder_E407_TTA_CombineModel.c ****       rtB.DataStoreRead4 = rtDWork.buttonPress;
3139:HANcoder_E407_TTA_CombineModel.c **** 
3140:HANcoder_E407_TTA_CombineModel.c ****       /* DataTypeConversion: '<S342>/Cast1' incorporates:
3141:HANcoder_E407_TTA_CombineModel.c ****        *  DataStoreRead: '<S117>/Data Store Read5'
3142:HANcoder_E407_TTA_CombineModel.c ****        */
3143:HANcoder_E407_TTA_CombineModel.c ****       rtb_Cast1_j = rtDWork.potFault;
3144:HANcoder_E407_TTA_CombineModel.c **** 
3145:HANcoder_E407_TTA_CombineModel.c ****       /* Outputs for Atomic SubSystem: '<S342>/Bit Shift1' */
3146:HANcoder_E407_TTA_CombineModel.c ****       BitShift1_b(rtb_Cast1_j, &rtB.BitShift1_n4);
3147:HANcoder_E407_TTA_CombineModel.c **** 
3148:HANcoder_E407_TTA_CombineModel.c ****       /* End of Outputs for SubSystem: '<S342>/Bit Shift1' */
3149:HANcoder_E407_TTA_CombineModel.c **** 
3150:HANcoder_E407_TTA_CombineModel.c ****       /* Outputs for Atomic SubSystem: '<S342>/Bit Shift' */
3151:HANcoder_E407_TTA_CombineModel.c ****       BitShift_gy(rtConstB.Cast_h, &rtB.BitShift_a0);
3152:HANcoder_E407_TTA_CombineModel.c **** 
3153:HANcoder_E407_TTA_CombineModel.c ****       /* End of Outputs for SubSystem: '<S342>/Bit Shift' */
3154:HANcoder_E407_TTA_CombineModel.c **** 
3155:HANcoder_E407_TTA_CombineModel.c ****       /* Outputs for Atomic SubSystem: '<S342>/Bit Shift2' */
3156:HANcoder_E407_TTA_CombineModel.c ****       BitShift2_p(rtConstB.Cast2, &rtB.BitShift2_f);
3157:HANcoder_E407_TTA_CombineModel.c **** 
3158:HANcoder_E407_TTA_CombineModel.c ****       /* End of Outputs for SubSystem: '<S342>/Bit Shift2' */
3159:HANcoder_E407_TTA_CombineModel.c **** 
3160:HANcoder_E407_TTA_CombineModel.c ****       /* Outputs for Atomic SubSystem: '<S342>/Bit Shift3' */
3161:HANcoder_E407_TTA_CombineModel.c ****       BitShift3_l(rtConstB.Cast3, &rtB.BitShift3_a);
3162:HANcoder_E407_TTA_CombineModel.c **** 
3163:HANcoder_E407_TTA_CombineModel.c ****       /* End of Outputs for SubSystem: '<S342>/Bit Shift3' */
3164:HANcoder_E407_TTA_CombineModel.c **** 
3165:HANcoder_E407_TTA_CombineModel.c ****       /* Outputs for Atomic SubSystem: '<S342>/Bit Shift4' */
3166:HANcoder_E407_TTA_CombineModel.c ****       BitShift4_g(rtConstB.Cast4, &rtB.BitShift4_ew);
3167:HANcoder_E407_TTA_CombineModel.c **** 
3168:HANcoder_E407_TTA_CombineModel.c ****       /* End of Outputs for SubSystem: '<S342>/Bit Shift4' */
3169:HANcoder_E407_TTA_CombineModel.c **** 
3170:HANcoder_E407_TTA_CombineModel.c ****       /* Outputs for Atomic SubSystem: '<S342>/Bit Shift5' */
3171:HANcoder_E407_TTA_CombineModel.c ****       BitShift5_n(rtConstB.Cast5, &rtB.BitShift5_nm);
3172:HANcoder_E407_TTA_CombineModel.c **** 
3173:HANcoder_E407_TTA_CombineModel.c ****       /* End of Outputs for SubSystem: '<S342>/Bit Shift5' */
3174:HANcoder_E407_TTA_CombineModel.c **** 
3175:HANcoder_E407_TTA_CombineModel.c ****       /* Outputs for Atomic SubSystem: '<S342>/Bit Shift6' */
3176:HANcoder_E407_TTA_CombineModel.c ****       BitShift6_d(rtConstB.Cast6, &rtB.BitShift6_ab);
3177:HANcoder_E407_TTA_CombineModel.c **** 
3178:HANcoder_E407_TTA_CombineModel.c ****       /* End of Outputs for SubSystem: '<S342>/Bit Shift6' */
3179:HANcoder_E407_TTA_CombineModel.c **** 
3180:HANcoder_E407_TTA_CombineModel.c ****       /* Sum: '<S342>/Add' */
3181:HANcoder_E407_TTA_CombineModel.c ****       rtB.Add = (uint8_T)((uint32_T)(uint8_T)((uint32_T)(uint8_T)((uint32_T)
3182:HANcoder_E407_TTA_CombineModel.c ****         (uint8_T)((uint32_T)(uint8_T)((uint32_T)(uint8_T)((uint32_T)(uint8_T)
3183:HANcoder_E407_TTA_CombineModel.c ****         ((uint32_T)rtConstB.Cast7 + rtB.BitShift1_n4.y) + rtB.BitShift_a0.y) +
3184:HANcoder_E407_TTA_CombineModel.c ****         rtB.BitShift2_f.y) + rtB.BitShift3_a.y) + rtB.BitShift4_ew.y) +
3185:HANcoder_E407_TTA_CombineModel.c ****         rtB.BitShift5_nm.y) + rtB.BitShift6_ab.y);
3186:HANcoder_E407_TTA_CombineModel.c **** 
3187:HANcoder_E407_TTA_CombineModel.c ****       /* Outputs for Atomic SubSystem: '<S343>/Bit Shift' */
3188:HANcoder_E407_TTA_CombineModel.c ****       /* DataStoreRead: '<S117>/Data Store Read2' */
3189:HANcoder_E407_TTA_CombineModel.c ****       BitShift_o(rtDWork.potentiometer2, &rtB.BitShift_g3);
3190:HANcoder_E407_TTA_CombineModel.c **** 
3191:HANcoder_E407_TTA_CombineModel.c ****       /* End of Outputs for SubSystem: '<S343>/Bit Shift' */
3192:HANcoder_E407_TTA_CombineModel.c **** 
3193:HANcoder_E407_TTA_CombineModel.c ****       /* DataTypeConversion: '<S343>/Cast' */
3194:HANcoder_E407_TTA_CombineModel.c ****       rtB.Cast = (uint8_T)rtB.BitShift_g3.y;
3195:HANcoder_E407_TTA_CombineModel.c **** 
3196:HANcoder_E407_TTA_CombineModel.c ****       /* DataTypeConversion: '<S343>/Cast1' incorporates:
3197:HANcoder_E407_TTA_CombineModel.c ****        *  DataStoreRead: '<S117>/Data Store Read2'
3198:HANcoder_E407_TTA_CombineModel.c ****        */
3199:HANcoder_E407_TTA_CombineModel.c ****       rtB.Cast1 = (uint8_T)rtDWork.potentiometer2;
3200:HANcoder_E407_TTA_CombineModel.c **** 
3201:HANcoder_E407_TTA_CombineModel.c ****       /* Outputs for Atomic SubSystem: '<S344>/Bit Shift' */
3202:HANcoder_E407_TTA_CombineModel.c ****       /* DataStoreRead: '<S117>/Data Store Read1' */
3203:HANcoder_E407_TTA_CombineModel.c ****       BitShift_o(rtDWork.potentiometer1, &rtB.BitShift_gul);
3204:HANcoder_E407_TTA_CombineModel.c **** 
3205:HANcoder_E407_TTA_CombineModel.c ****       /* End of Outputs for SubSystem: '<S344>/Bit Shift' */
3206:HANcoder_E407_TTA_CombineModel.c **** 
3207:HANcoder_E407_TTA_CombineModel.c ****       /* DataTypeConversion: '<S344>/Cast' */
3208:HANcoder_E407_TTA_CombineModel.c ****       rtB.Cast_f = (uint8_T)rtB.BitShift_gul.y;
3209:HANcoder_E407_TTA_CombineModel.c **** 
3210:HANcoder_E407_TTA_CombineModel.c ****       /* DataTypeConversion: '<S344>/Cast1' incorporates:
3211:HANcoder_E407_TTA_CombineModel.c ****        *  DataStoreRead: '<S117>/Data Store Read1'
3212:HANcoder_E407_TTA_CombineModel.c ****        */
3213:HANcoder_E407_TTA_CombineModel.c ****       rtB.Cast1_m = (uint8_T)rtDWork.potentiometer1;
3214:HANcoder_E407_TTA_CombineModel.c **** 
3215:HANcoder_E407_TTA_CombineModel.c ****       /* Update for M-S-Function: '<S341>/S-Function' incorporates:
3216:HANcoder_E407_TTA_CombineModel.c ****        *  Constant: '<S10>/Constant18'
3217:HANcoder_E407_TTA_CombineModel.c ****        *  Constant: '<S117>/Constant1'
3218:HANcoder_E407_TTA_CombineModel.c ****        */
3219:HANcoder_E407_TTA_CombineModel.c ****       {
3220:HANcoder_E407_TTA_CombineModel.c ****         /* prepare the data */
3221:HANcoder_E407_TTA_CombineModel.c ****         canTxData.uint8_T_info[0] = rtB.Cast_f;
3222:HANcoder_E407_TTA_CombineModel.c ****         canTxData.uint8_T_info[1] = rtB.Cast1_m;
3223:HANcoder_E407_TTA_CombineModel.c ****         canTxData.uint8_T_info[2] = rtB.Cast;
3224:HANcoder_E407_TTA_CombineModel.c ****         canTxData.uint8_T_info[3] = rtB.Cast1;
3225:HANcoder_E407_TTA_CombineModel.c ****         canTxData.uint8_T_info[4] = rtB.DataStoreRead3;
3226:HANcoder_E407_TTA_CombineModel.c ****         canTxData.uint8_T_info[5] = rtB.DataStoreRead4;
3227:HANcoder_E407_TTA_CombineModel.c ****         canTxData.uint8_T_info[6] = rtB.Add;
3228:HANcoder_E407_TTA_CombineModel.c ****         canTxData.uint8_T_info[7] = ((uint8_T)0U);
3229:HANcoder_E407_TTA_CombineModel.c **** 
3230:HANcoder_E407_TTA_CombineModel.c ****         /* send the data */
3231:HANcoder_E407_TTA_CombineModel.c ****         CanTransmit(0, TRLS1_ID5, 8, &canTxData.uint8_T_info[0]);
3232:HANcoder_E407_TTA_CombineModel.c ****       }
3233:HANcoder_E407_TTA_CombineModel.c ****     }
3234:HANcoder_E407_TTA_CombineModel.c **** 
3235:HANcoder_E407_TTA_CombineModel.c ****     rtPrevZCSigState.TRLS_ID5_TX_Trig_ZCE = rtb_OR1;
 2729              		.loc 1 3235 5 is_stmt 1 view .LVU978
 2730              		.loc 1 3235 43 is_stmt 0 view .LVU979
 2731 03fe 8BF80230 		strb	r3, [fp, #2]
 2732              	.L212:
3236:HANcoder_E407_TTA_CombineModel.c **** 
3237:HANcoder_E407_TTA_CombineModel.c ****     /* End of Outputs for SubSystem: '<S10>/TRLS_ID5_TX' */
3238:HANcoder_E407_TTA_CombineModel.c ****   } else if (rtDWork.Messageselector_MODE) {
3239:HANcoder_E407_TTA_CombineModel.c ****     /* Disable for Enabled SubSystem: '<S10>/MMBS1_RX' */
3240:HANcoder_E407_TTA_CombineModel.c ****     if (rtDWork.MMBS1_RX_MODE) {
3241:HANcoder_E407_TTA_CombineModel.c ****       rtDWork.MMBS1_RX_MODE = false;
3242:HANcoder_E407_TTA_CombineModel.c ****     }
3243:HANcoder_E407_TTA_CombineModel.c **** 
3244:HANcoder_E407_TTA_CombineModel.c ****     /* End of Disable for SubSystem: '<S10>/MMBS1_RX' */
3245:HANcoder_E407_TTA_CombineModel.c **** 
3246:HANcoder_E407_TTA_CombineModel.c ****     /* Disable for Triggered SubSystem: '<S10>/MMBS1_TX' */
3247:HANcoder_E407_TTA_CombineModel.c ****     /* Constant: '<S10>/Constant12' */
3248:HANcoder_E407_TTA_CombineModel.c ****     /* Disable for Enabled SubSystem: '<S10>/SSTM1_RX' */
3249:HANcoder_E407_TTA_CombineModel.c ****     if (rtDWork.SSTM1_RX_MODE) {
3250:HANcoder_E407_TTA_CombineModel.c ****       rtDWork.SSTM1_RX_MODE = false;
3251:HANcoder_E407_TTA_CombineModel.c ****     }
3252:HANcoder_E407_TTA_CombineModel.c **** 
3253:HANcoder_E407_TTA_CombineModel.c ****     /* End of Disable for SubSystem: '<S10>/SSTM1_RX' */
3254:HANcoder_E407_TTA_CombineModel.c **** 
3255:HANcoder_E407_TTA_CombineModel.c ****     /* Disable for Triggered SubSystem: '<S10>/SSTM1_TX' */
3256:HANcoder_E407_TTA_CombineModel.c ****     /* Constant: '<S10>/Constant14' */
3257:HANcoder_E407_TTA_CombineModel.c ****     /* Disable for Enabled SubSystem: '<S10>/SYNC1_RX' */
3258:HANcoder_E407_TTA_CombineModel.c ****     if (rtDWork.SYNC1_RX_MODE) {
3259:HANcoder_E407_TTA_CombineModel.c ****       rtDWork.SYNC1_RX_MODE = false;
3260:HANcoder_E407_TTA_CombineModel.c ****     }
3261:HANcoder_E407_TTA_CombineModel.c **** 
3262:HANcoder_E407_TTA_CombineModel.c ****     /* End of Disable for SubSystem: '<S10>/SYNC1_RX' */
3263:HANcoder_E407_TTA_CombineModel.c ****     /* Disable for Enabled SubSystem: '<S10>/TRCK1_ID2_RX' */
3264:HANcoder_E407_TTA_CombineModel.c ****     if (rtDWork.TRCK1_ID2_RX_MODE) {
3265:HANcoder_E407_TTA_CombineModel.c ****       rtDWork.TRCK1_ID2_RX_MODE = false;
3266:HANcoder_E407_TTA_CombineModel.c ****     }
3267:HANcoder_E407_TTA_CombineModel.c **** 
3268:HANcoder_E407_TTA_CombineModel.c ****     /* End of Disable for SubSystem: '<S10>/TRCK1_ID2_RX' */
3269:HANcoder_E407_TTA_CombineModel.c **** 
3270:HANcoder_E407_TTA_CombineModel.c ****     /* Disable for Triggered SubSystem: '<S10>/TRCK1_ID2_TX' */
3271:HANcoder_E407_TTA_CombineModel.c ****     /* Constant: '<S10>/Constant5' */
3272:HANcoder_E407_TTA_CombineModel.c ****     /* Disable for Triggered SubSystem: '<S10>/TRCK1_ID3_TX' */
3273:HANcoder_E407_TTA_CombineModel.c ****     /* Constant: '<S10>/Constant26' */
3274:HANcoder_E407_TTA_CombineModel.c ****     /* Disable for Enabled SubSystem: '<S10>/TRCK1_RX' */
3275:HANcoder_E407_TTA_CombineModel.c ****     if (rtDWork.TRCK1_RX_MODE) {
3276:HANcoder_E407_TTA_CombineModel.c ****       rtDWork.TRCK1_RX_MODE = false;
3277:HANcoder_E407_TTA_CombineModel.c ****     }
3278:HANcoder_E407_TTA_CombineModel.c **** 
3279:HANcoder_E407_TTA_CombineModel.c ****     /* End of Disable for SubSystem: '<S10>/TRCK1_RX' */
3280:HANcoder_E407_TTA_CombineModel.c ****     /* Disable for Enabled SubSystem: '<S10>/TRCK_ID3_RX' */
3281:HANcoder_E407_TTA_CombineModel.c ****     if (rtDWork.TRCK_ID3_RX_MODE) {
3282:HANcoder_E407_TTA_CombineModel.c ****       rtDWork.TRCK_ID3_RX_MODE = false;
3283:HANcoder_E407_TTA_CombineModel.c ****     }
3284:HANcoder_E407_TTA_CombineModel.c **** 
3285:HANcoder_E407_TTA_CombineModel.c ****     /* End of Disable for SubSystem: '<S10>/TRCK_ID3_RX' */
3286:HANcoder_E407_TTA_CombineModel.c **** 
3287:HANcoder_E407_TTA_CombineModel.c ****     /* Disable for Enabled SubSystem: '<S10>/TRLS_ID4_RX' */
3288:HANcoder_E407_TTA_CombineModel.c ****     if (rtDWork.TRLS_ID4_RX_MODE) {
3289:HANcoder_E407_TTA_CombineModel.c ****       rtDWork.TRLS_ID4_RX_MODE = false;
3290:HANcoder_E407_TTA_CombineModel.c ****     }
3291:HANcoder_E407_TTA_CombineModel.c **** 
3292:HANcoder_E407_TTA_CombineModel.c ****     /* End of Disable for SubSystem: '<S10>/TRLS_ID4_RX' */
3293:HANcoder_E407_TTA_CombineModel.c ****     /* Disable for Enabled SubSystem: '<S10>/TRLS_ID5_RX' */
3294:HANcoder_E407_TTA_CombineModel.c ****     if (rtDWork.TRLS_ID5_RX_MODE) {
3295:HANcoder_E407_TTA_CombineModel.c ****       rtDWork.TRLS_ID5_RX_MODE = false;
3296:HANcoder_E407_TTA_CombineModel.c ****     }
3297:HANcoder_E407_TTA_CombineModel.c **** 
3298:HANcoder_E407_TTA_CombineModel.c ****     /* End of Disable for SubSystem: '<S10>/TRLS_ID5_RX' */
3299:HANcoder_E407_TTA_CombineModel.c ****     rtDWork.Messageselector_MODE = false;
3300:HANcoder_E407_TTA_CombineModel.c ****   }
3301:HANcoder_E407_TTA_CombineModel.c **** 
3302:HANcoder_E407_TTA_CombineModel.c ****   /* End of Outputs for SubSystem: '<S1>/Message selector' */
3303:HANcoder_E407_TTA_CombineModel.c **** 
3304:HANcoder_E407_TTA_CombineModel.c ****   /* Outputs for Triggered SubSystem: '<S12>/Subsystem' incorporates:
3305:HANcoder_E407_TTA_CombineModel.c ****    *  TriggerPort: '<S363>/Trigger'
3306:HANcoder_E407_TTA_CombineModel.c ****    */
3307:HANcoder_E407_TTA_CombineModel.c ****   if (rtb_AND && (rtPrevZCSigState.Subsystem_Trig_ZCE != POS_ZCSIG)) {
 2733              		.loc 1 3307 3 is_stmt 1 view .LVU980
 2734              		.loc 1 3307 6 is_stmt 0 view .LVU981
 2735 0402 089B     		ldr	r3, [sp, #32]
 2736 0404 53B1     		cbz	r3, .L221
 2737              		.loc 1 3307 15 discriminator 1 view .LVU982
 2738 0406 9BF80130 		ldrb	r3, [fp, #1]	@ zero_extendqisi2
 2739 040a 012B     		cmp	r3, #1
 2740 040c 06D0     		beq	.L221
3308:HANcoder_E407_TTA_CombineModel.c ****     /* DataStoreWrite: '<S363>/Data Store Write1' incorporates:
3309:HANcoder_E407_TTA_CombineModel.c ****      *  Constant: '<S363>/Constant1'
3310:HANcoder_E407_TTA_CombineModel.c ****      */
3311:HANcoder_E407_TTA_CombineModel.c ****     rtDWork.Local_Ticks = ((uint8_T)0U);
 2741              		.loc 1 3311 5 is_stmt 1 view .LVU983
3312:HANcoder_E407_TTA_CombineModel.c **** 
3313:HANcoder_E407_TTA_CombineModel.c ****     /* DataStoreWrite: '<S363>/Data Store Write' incorporates:
3314:HANcoder_E407_TTA_CombineModel.c ****      *  Constant: '<S363>/Constant3'
3315:HANcoder_E407_TTA_CombineModel.c ****      */
3316:HANcoder_E407_TTA_CombineModel.c ****     rtDWork.SlotTime = slotTime;
 2742              		.loc 1 3316 22 is_stmt 0 view .LVU984
 2743 040e 1F4B     		ldr	r3, .L461+4
 2744 0410 1B78     		ldrb	r3, [r3]	@ zero_extendqisi2
 2745 0412 84F84C31 		strb	r3, [r4, #332]
3311:HANcoder_E407_TTA_CombineModel.c **** 
 2746              		.loc 1 3311 25 view .LVU985
 2747 0416 0023     		movs	r3, #0
 2748 0418 84F84931 		strb	r3, [r4, #329]
 2749              		.loc 1 3316 5 is_stmt 1 view .LVU986
 2750              	.L221:
3317:HANcoder_E407_TTA_CombineModel.c ****   }
3318:HANcoder_E407_TTA_CombineModel.c **** 
3319:HANcoder_E407_TTA_CombineModel.c ****   rtPrevZCSigState.Subsystem_Trig_ZCE = rtb_AND;
 2751              		.loc 1 3319 3 view .LVU987
 2752              		.loc 1 3319 39 is_stmt 0 view .LVU988
 2753 041c 099B     		ldr	r3, [sp, #36]
 2754 041e 8BF80130 		strb	r3, [fp, #1]
3320:HANcoder_E407_TTA_CombineModel.c **** 
3321:HANcoder_E407_TTA_CombineModel.c ****   /* End of Outputs for SubSystem: '<S12>/Subsystem' */
3322:HANcoder_E407_TTA_CombineModel.c **** 
3323:HANcoder_E407_TTA_CombineModel.c ****   /* Outputs for Enabled SubSystem: '<S12>/Subsystem2' incorporates:
3324:HANcoder_E407_TTA_CombineModel.c ****    *  EnablePort: '<S364>/Enable'
3325:HANcoder_E407_TTA_CombineModel.c ****    */
3326:HANcoder_E407_TTA_CombineModel.c ****   /* Logic: '<S12>/AND1' incorporates:
3327:HANcoder_E407_TTA_CombineModel.c ****    *  Constant: '<S12>/Constant1'
3328:HANcoder_E407_TTA_CombineModel.c ****    *  DataStoreRead: '<S12>/Data Store Read'
3329:HANcoder_E407_TTA_CombineModel.c ****    *  DataStoreRead: '<S1>/Data Store Read3'
3330:HANcoder_E407_TTA_CombineModel.c ****    *  Logic: '<S12>/NOT'
3331:HANcoder_E407_TTA_CombineModel.c ****    *  RelationalOperator: '<S12>/GreaterThan'
3332:HANcoder_E407_TTA_CombineModel.c ****    */
3333:HANcoder_E407_TTA_CombineModel.c ****   if ((rtDWork.Board_ID > ((uint8_T)1U)) && (!rtDWork.slaveClockOn)) {
 2755              		.loc 1 3333 3 is_stmt 1 view .LVU989
 2756              		.loc 1 3333 6 is_stmt 0 view .LVU990
 2757 0422 BAF1010F 		cmp	r10, #1
 2758 0426 04D9     		bls	.L222
 2759              		.loc 1 3333 42 discriminator 1 view .LVU991
 2760 0428 94F85121 		ldrb	r2, [r4, #337]	@ zero_extendqisi2
 2761 042c 002A     		cmp	r2, #0
 2762 042e 00F07187 		beq	.L436
 2763              	.L222:
3334:HANcoder_E407_TTA_CombineModel.c ****     rtDWork.Subsystem2_MODE = true;
3335:HANcoder_E407_TTA_CombineModel.c **** 
3336:HANcoder_E407_TTA_CombineModel.c ****     /* M-S-Function: '<S365>/S-Function' incorporates:
3337:HANcoder_E407_TTA_CombineModel.c ****      *  Constant: '<S364>/Constant10'
3338:HANcoder_E407_TTA_CombineModel.c ****      */
3339:HANcoder_E407_TTA_CombineModel.c **** 
3340:HANcoder_E407_TTA_CombineModel.c ****     /* read the message data and store the new parameter */
3341:HANcoder_E407_TTA_CombineModel.c ****     rtb_SFunction_o1 = CanIoGetMessage(0, SYNC1_ID, NULL,
3342:HANcoder_E407_TTA_CombineModel.c ****       &canRxData_0_SYNC1_ID.uint8_T_info[0], NULL);
3343:HANcoder_E407_TTA_CombineModel.c **** 
3344:HANcoder_E407_TTA_CombineModel.c ****     /* process the message data */
3345:HANcoder_E407_TTA_CombineModel.c ****     if (rtb_SFunction_o1 > 0) {
3346:HANcoder_E407_TTA_CombineModel.c ****       /* read the data */
3347:HANcoder_E407_TTA_CombineModel.c ****       rtb_SFunction_o2 = canRxData_0_SYNC1_ID.uint8_T_info[0];
3348:HANcoder_E407_TTA_CombineModel.c ****       rtb_SFunction_o3 = canRxData_0_SYNC1_ID.uint8_T_info[1];
3349:HANcoder_E407_TTA_CombineModel.c ****       rtb_SFunction_o4 = canRxData_0_SYNC1_ID.uint8_T_info[2];
3350:HANcoder_E407_TTA_CombineModel.c ****       rtb_SFunction_o5 = canRxData_0_SYNC1_ID.uint8_T_info[3];
3351:HANcoder_E407_TTA_CombineModel.c ****       rtb_SFunction_o6 = canRxData_0_SYNC1_ID.uint8_T_info[4];
3352:HANcoder_E407_TTA_CombineModel.c ****       rtb_SFunction_o7 = canRxData_0_SYNC1_ID.uint8_T_info[5];
3353:HANcoder_E407_TTA_CombineModel.c ****       rtb_SFunction_o8 = canRxData_0_SYNC1_ID.uint8_T_info[6];
3354:HANcoder_E407_TTA_CombineModel.c ****       rtb_SFunction_o9 = canRxData_0_SYNC1_ID.uint8_T_info[7];
3355:HANcoder_E407_TTA_CombineModel.c ****     }
3356:HANcoder_E407_TTA_CombineModel.c **** 
3357:HANcoder_E407_TTA_CombineModel.c ****     /* Outputs for Enabled SubSystem: '<S365>/Enabled Subsystem' */
3358:HANcoder_E407_TTA_CombineModel.c ****     EnabledSubsystem(rtb_SFunction_o1, rtb_SFunction_o2, rtb_SFunction_o3,
3359:HANcoder_E407_TTA_CombineModel.c ****                      rtb_SFunction_o4, rtb_SFunction_o5, rtb_SFunction_o6,
3360:HANcoder_E407_TTA_CombineModel.c ****                      rtb_SFunction_o7, rtb_SFunction_o8, rtb_SFunction_o9,
3361:HANcoder_E407_TTA_CombineModel.c ****                      &rtB.EnabledSubsystem_i);
3362:HANcoder_E407_TTA_CombineModel.c **** 
3363:HANcoder_E407_TTA_CombineModel.c ****     /* End of Outputs for SubSystem: '<S365>/Enabled Subsystem' */
3364:HANcoder_E407_TTA_CombineModel.c **** 
3365:HANcoder_E407_TTA_CombineModel.c ****     /* Outputs for Triggered SubSystem: '<S364>/Subsystem1' incorporates:
3366:HANcoder_E407_TTA_CombineModel.c ****      *  TriggerPort: '<S366>/Trigger'
3367:HANcoder_E407_TTA_CombineModel.c ****      */
3368:HANcoder_E407_TTA_CombineModel.c ****     zcEvent = rt_I32ZCFcn(RISING_ZERO_CROSSING,
3369:HANcoder_E407_TTA_CombineModel.c ****                           &rtPrevZCSigState.Subsystem1_Trig_ZCE,
3370:HANcoder_E407_TTA_CombineModel.c ****                           (rtb_SFunction_o1));
3371:HANcoder_E407_TTA_CombineModel.c ****     if (zcEvent != NO_ZCEVENT) {
3372:HANcoder_E407_TTA_CombineModel.c ****       /* DataStoreWrite: '<S366>/Data Store Write' */
3373:HANcoder_E407_TTA_CombineModel.c ****       rtDWork.SlotTime = rtB.EnabledSubsystem_i.In1;
3374:HANcoder_E407_TTA_CombineModel.c **** 
3375:HANcoder_E407_TTA_CombineModel.c ****       /* DataStoreWrite: '<S366>/Data Store Write1' incorporates:
3376:HANcoder_E407_TTA_CombineModel.c ****        *  Constant: '<S366>/Constant'
3377:HANcoder_E407_TTA_CombineModel.c ****        */
3378:HANcoder_E407_TTA_CombineModel.c ****       rtDWork.Local_Ticks = ((uint8_T)0U);
3379:HANcoder_E407_TTA_CombineModel.c **** 
3380:HANcoder_E407_TTA_CombineModel.c ****       /* DataStoreWrite: '<S366>/Data Store Write2' incorporates:
3381:HANcoder_E407_TTA_CombineModel.c ****        *  Constant: '<S366>/Constant1'
3382:HANcoder_E407_TTA_CombineModel.c ****        */
3383:HANcoder_E407_TTA_CombineModel.c ****       rtDWork.slaveClockOn = true;
3384:HANcoder_E407_TTA_CombineModel.c **** 
3385:HANcoder_E407_TTA_CombineModel.c ****       /* DataStoreWrite: '<S366>/Data Store Write3' incorporates:
3386:HANcoder_E407_TTA_CombineModel.c ****        *  Constant: '<S366>/Constant2'
3387:HANcoder_E407_TTA_CombineModel.c ****        */
3388:HANcoder_E407_TTA_CombineModel.c ****       rtDWork.slot = ((uint8_T)1U);
3389:HANcoder_E407_TTA_CombineModel.c ****     }
3390:HANcoder_E407_TTA_CombineModel.c **** 
3391:HANcoder_E407_TTA_CombineModel.c ****     /* End of Outputs for SubSystem: '<S364>/Subsystem1' */
3392:HANcoder_E407_TTA_CombineModel.c ****   } else if (rtDWork.Subsystem2_MODE) {
 2764              		.loc 1 3392 10 is_stmt 1 view .LVU992
 2765              		.loc 1 3392 13 is_stmt 0 view .LVU993
 2766 0432 94F86131 		ldrb	r3, [r4, #353]	@ zero_extendqisi2
 2767 0436 002B     		cmp	r3, #0
 2768 0438 40F0D984 		bne	.L437
 2769              	.L225:
3393:HANcoder_E407_TTA_CombineModel.c ****     rtDWork.Subsystem2_MODE = false;
3394:HANcoder_E407_TTA_CombineModel.c ****   }
3395:HANcoder_E407_TTA_CombineModel.c **** 
3396:HANcoder_E407_TTA_CombineModel.c ****   /* End of Logic: '<S12>/AND1' */
3397:HANcoder_E407_TTA_CombineModel.c ****   /* End of Outputs for SubSystem: '<S12>/Subsystem2' */
3398:HANcoder_E407_TTA_CombineModel.c **** 
3399:HANcoder_E407_TTA_CombineModel.c ****   /* If: '<S1>/If' incorporates:
3400:HANcoder_E407_TTA_CombineModel.c ****    *  DataStoreRead: '<S1>/Data Store Read38'
3401:HANcoder_E407_TTA_CombineModel.c ****    */
3402:HANcoder_E407_TTA_CombineModel.c ****   rtPrevAction = rtDWork.If_ActiveSubsystem;
 2770              		.loc 1 3402 3 is_stmt 1 view .LVU994
 2771              	.LVL181:
3403:HANcoder_E407_TTA_CombineModel.c ****   rtAction = -1;
 2772              		.loc 1 3403 3 view .LVU995
3404:HANcoder_E407_TTA_CombineModel.c ****   if (rtDWork.Board_ID <= 3) {
 2773              		.loc 1 3404 3 view .LVU996
 2774              		.loc 1 3404 6 is_stmt 0 view .LVU997
 2775 043c BAF1030F 		cmp	r10, #3
 2776 0440 40F2DC84 		bls	.L438
 2777              	.L226:
3405:HANcoder_E407_TTA_CombineModel.c ****     rtAction = 0;
3406:HANcoder_E407_TTA_CombineModel.c ****   }
3407:HANcoder_E407_TTA_CombineModel.c **** 
3408:HANcoder_E407_TTA_CombineModel.c ****   rtDWork.If_ActiveSubsystem = rtAction;
 2778              		.loc 1 3408 3 is_stmt 1 view .LVU998
 2779              		.loc 1 3408 30 is_stmt 0 view .LVU999
 2780 0444 FF23     		movs	r3, #255
 2781 0446 84F84631 		strb	r3, [r4, #326]
 2782              	.LVL182:
3409:HANcoder_E407_TTA_CombineModel.c ****   if ((rtPrevAction != rtAction) && (rtPrevAction == 0)) {
 2783              		.loc 1 3409 3 is_stmt 1 view .LVU1000
3410:HANcoder_E407_TTA_CombineModel.c ****   }
 2784              		.loc 1 3410 3 view .LVU1001
3411:HANcoder_E407_TTA_CombineModel.c **** 
3412:HANcoder_E407_TTA_CombineModel.c ****   if (rtAction == 0) {
 2785              		.loc 1 3412 3 view .LVU1002
 2786              	.L229:
3413:HANcoder_E407_TTA_CombineModel.c ****     /* Outputs for IfAction SubSystem: '<S1>/Triggered Subsystem' incorporates:
3414:HANcoder_E407_TTA_CombineModel.c ****      *  ActionPort: '<S16>/Action Port'
3415:HANcoder_E407_TTA_CombineModel.c ****      */
3416:HANcoder_E407_TTA_CombineModel.c ****     /* Saturate: '<S16>/Saturation' */
3417:HANcoder_E407_TTA_CombineModel.c ****     rtb_Multiply = ((uint8_T)1U);
3418:HANcoder_E407_TTA_CombineModel.c **** 
3419:HANcoder_E407_TTA_CombineModel.c ****     /* Saturate: '<S16>/Saturation1' */
3420:HANcoder_E407_TTA_CombineModel.c ****     rtb_Multiply1 = ((uint8_T)1U);
3421:HANcoder_E407_TTA_CombineModel.c **** 
3422:HANcoder_E407_TTA_CombineModel.c ****     /* Saturate: '<S16>/Saturation' incorporates:
3423:HANcoder_E407_TTA_CombineModel.c ****      *  DataStoreRead: '<S16>/Data Store Read46'
3424:HANcoder_E407_TTA_CombineModel.c ****      */
3425:HANcoder_E407_TTA_CombineModel.c ****     if (rtDWork.PositionID4 <= rtb_Multiply) {
3426:HANcoder_E407_TTA_CombineModel.c ****       rtb_Multiply = rtDWork.PositionID4;
3427:HANcoder_E407_TTA_CombineModel.c ****     }
3428:HANcoder_E407_TTA_CombineModel.c **** 
3429:HANcoder_E407_TTA_CombineModel.c ****     /* Saturate: '<S16>/Saturation1' incorporates:
3430:HANcoder_E407_TTA_CombineModel.c ****      *  DataStoreRead: '<S16>/Data Store Read45'
3431:HANcoder_E407_TTA_CombineModel.c ****      */
3432:HANcoder_E407_TTA_CombineModel.c ****     if (rtDWork.PositionID5 <= rtb_Multiply1) {
3433:HANcoder_E407_TTA_CombineModel.c ****       rtb_Multiply1 = rtDWork.PositionID5;
3434:HANcoder_E407_TTA_CombineModel.c ****     }
3435:HANcoder_E407_TTA_CombineModel.c **** 
3436:HANcoder_E407_TTA_CombineModel.c ****     /* Sum: '<S16>/Add' incorporates:
3437:HANcoder_E407_TTA_CombineModel.c ****      *  Saturate: '<S16>/Saturation'
3438:HANcoder_E407_TTA_CombineModel.c ****      *  Saturate: '<S16>/Saturation1'
3439:HANcoder_E407_TTA_CombineModel.c ****      */
3440:HANcoder_E407_TTA_CombineModel.c ****     amounttrailers = (uint8_T)((uint32_T)rtb_Multiply + rtb_Multiply1);
3441:HANcoder_E407_TTA_CombineModel.c **** 
3442:HANcoder_E407_TTA_CombineModel.c ****     /* M-S-Function: '<S374>/Level-2 M-file S-Function' */
3443:HANcoder_E407_TTA_CombineModel.c ****     /* read from digital input */
3444:HANcoder_E407_TTA_CombineModel.c ****     rtb_Level2MfileSFunction_h = DiginGet(DIGIN_PORTA_PIN0);
3445:HANcoder_E407_TTA_CombineModel.c **** 
3446:HANcoder_E407_TTA_CombineModel.c ****     /* Outputs for Enabled SubSystem: '<S16>/Subsystem' incorporates:
3447:HANcoder_E407_TTA_CombineModel.c ****      *  EnablePort: '<S375>/Enable'
3448:HANcoder_E407_TTA_CombineModel.c ****      */
3449:HANcoder_E407_TTA_CombineModel.c ****     if (rtb_Level2MfileSFunction_h) {
3450:HANcoder_E407_TTA_CombineModel.c ****       /* CombinatorialLogic: '<S381>/Logic' incorporates:
3451:HANcoder_E407_TTA_CombineModel.c ****        *  Constant: '<S375>/Constant'
3452:HANcoder_E407_TTA_CombineModel.c ****        *  DataStoreRead: '<S16>/Data Store Read1'
3453:HANcoder_E407_TTA_CombineModel.c ****        *  DataTypeConversion: '<S16>/Cast'
3454:HANcoder_E407_TTA_CombineModel.c ****        *  DataTypeConversion: '<S375>/Cast2'
3455:HANcoder_E407_TTA_CombineModel.c ****        *  Memory: '<S381>/Memory'
3456:HANcoder_E407_TTA_CombineModel.c ****        */
3457:HANcoder_E407_TTA_CombineModel.c ****       rtb_AND = rtConstP.pooled23[((((uint32_T)(rtDWork.trailer2buttonPress != 0)
3458:HANcoder_E407_TTA_CombineModel.c ****         << 1) + (uint32_T)(ResetPosition != 0.0)) << 1) +
3459:HANcoder_E407_TTA_CombineModel.c ****         rtDWork.Memory_PreviousInput];
3460:HANcoder_E407_TTA_CombineModel.c **** 
3461:HANcoder_E407_TTA_CombineModel.c ****       /* If: '<S375>/If1' incorporates:
3462:HANcoder_E407_TTA_CombineModel.c ****        *  DataStoreRead: '<S375>/Data Store Read3'
3463:HANcoder_E407_TTA_CombineModel.c ****        */
3464:HANcoder_E407_TTA_CombineModel.c ****       if (rtDWork.PositionID4 == 1) {
3465:HANcoder_E407_TTA_CombineModel.c ****         /* Outputs for IfAction SubSystem: '<S375>/If Action Subsystem' incorporates:
3466:HANcoder_E407_TTA_CombineModel.c ****          *  ActionPort: '<S376>/Action Port'
3467:HANcoder_E407_TTA_CombineModel.c ****          */
3468:HANcoder_E407_TTA_CombineModel.c ****         /* Gain: '<S376>/Gain' */
3469:HANcoder_E407_TTA_CombineModel.c ****         rtB.Gain_n = (uint8_T)(rtb_AND ? (int32_T)((uint8_T)128U) : 0);
3470:HANcoder_E407_TTA_CombineModel.c **** 
3471:HANcoder_E407_TTA_CombineModel.c ****         /* End of Outputs for SubSystem: '<S375>/If Action Subsystem' */
3472:HANcoder_E407_TTA_CombineModel.c ****       } else {
3473:HANcoder_E407_TTA_CombineModel.c ****         /* Outputs for IfAction SubSystem: '<S375>/If Action Subsystem1' incorporates:
3474:HANcoder_E407_TTA_CombineModel.c ****          *  ActionPort: '<S377>/Action Port'
3475:HANcoder_E407_TTA_CombineModel.c ****          */
3476:HANcoder_E407_TTA_CombineModel.c ****         /* Gain: '<S377>/Gain' */
3477:HANcoder_E407_TTA_CombineModel.c ****         rtB.Gain = (uint8_T)(rtb_AND ? (int32_T)((uint8_T)128U) : 0);
3478:HANcoder_E407_TTA_CombineModel.c **** 
3479:HANcoder_E407_TTA_CombineModel.c ****         /* End of Outputs for SubSystem: '<S375>/If Action Subsystem1' */
3480:HANcoder_E407_TTA_CombineModel.c ****       }
3481:HANcoder_E407_TTA_CombineModel.c **** 
3482:HANcoder_E407_TTA_CombineModel.c ****       /* End of If: '<S375>/If1' */
3483:HANcoder_E407_TTA_CombineModel.c **** 
3484:HANcoder_E407_TTA_CombineModel.c ****       /* Sum: '<S375>/Add1' incorporates:
3485:HANcoder_E407_TTA_CombineModel.c ****        *  Gain: '<S376>/Gain'
3486:HANcoder_E407_TTA_CombineModel.c ****        *  Gain: '<S377>/Gain'
3487:HANcoder_E407_TTA_CombineModel.c ****        */
3488:HANcoder_E407_TTA_CombineModel.c ****       rtB.Add1 = (uint8_T)((((uint32_T)rtB.Gain_n << 1) + rtB.Gain) >> 1);
3489:HANcoder_E407_TTA_CombineModel.c **** 
3490:HANcoder_E407_TTA_CombineModel.c ****       /* CombinatorialLogic: '<S380>/Logic' incorporates:
3491:HANcoder_E407_TTA_CombineModel.c ****        *  Constant: '<S375>/Constant'
3492:HANcoder_E407_TTA_CombineModel.c ****        *  DataStoreRead: '<S16>/Data Store Read'
3493:HANcoder_E407_TTA_CombineModel.c ****        *  DataTypeConversion: '<S16>/Cast1'
3494:HANcoder_E407_TTA_CombineModel.c ****        *  DataTypeConversion: '<S375>/Cast2'
3495:HANcoder_E407_TTA_CombineModel.c ****        *  Memory: '<S380>/Memory'
3496:HANcoder_E407_TTA_CombineModel.c ****        */
3497:HANcoder_E407_TTA_CombineModel.c ****       rtb_OR1 = rtConstP.pooled23[((((uint32_T)(rtDWork.trailer1buttonPress != 0)
3498:HANcoder_E407_TTA_CombineModel.c ****         << 1) + (uint32_T)(ResetPosition != 0.0)) << 1) +
3499:HANcoder_E407_TTA_CombineModel.c ****         rtDWork.Memory_PreviousInput_d];
3500:HANcoder_E407_TTA_CombineModel.c **** 
3501:HANcoder_E407_TTA_CombineModel.c ****       /* If: '<S375>/If' incorporates:
3502:HANcoder_E407_TTA_CombineModel.c ****        *  DataStoreRead: '<S375>/Data Store Read2'
3503:HANcoder_E407_TTA_CombineModel.c ****        */
3504:HANcoder_E407_TTA_CombineModel.c ****       if (rtDWork.PositionID5 == 1) {
3505:HANcoder_E407_TTA_CombineModel.c ****         /* Outputs for IfAction SubSystem: '<S375>/If Action Subsystem2' incorporates:
3506:HANcoder_E407_TTA_CombineModel.c ****          *  ActionPort: '<S378>/Action Port'
3507:HANcoder_E407_TTA_CombineModel.c ****          */
3508:HANcoder_E407_TTA_CombineModel.c ****         /* Gain: '<S378>/Gain' */
3509:HANcoder_E407_TTA_CombineModel.c ****         rtB.Gain_d = (uint8_T)(rtb_OR1 ? (int32_T)((uint8_T)128U) : 0);
3510:HANcoder_E407_TTA_CombineModel.c **** 
3511:HANcoder_E407_TTA_CombineModel.c ****         /* End of Outputs for SubSystem: '<S375>/If Action Subsystem2' */
3512:HANcoder_E407_TTA_CombineModel.c ****       } else {
3513:HANcoder_E407_TTA_CombineModel.c ****         /* Outputs for IfAction SubSystem: '<S375>/If Action Subsystem3' incorporates:
3514:HANcoder_E407_TTA_CombineModel.c ****          *  ActionPort: '<S379>/Action Port'
3515:HANcoder_E407_TTA_CombineModel.c ****          */
3516:HANcoder_E407_TTA_CombineModel.c ****         /* Gain: '<S379>/Gain' */
3517:HANcoder_E407_TTA_CombineModel.c ****         rtB.Gain_j = (uint8_T)(rtb_OR1 ? (int32_T)((uint8_T)128U) : 0);
3518:HANcoder_E407_TTA_CombineModel.c **** 
3519:HANcoder_E407_TTA_CombineModel.c ****         /* End of Outputs for SubSystem: '<S375>/If Action Subsystem3' */
3520:HANcoder_E407_TTA_CombineModel.c ****       }
3521:HANcoder_E407_TTA_CombineModel.c **** 
3522:HANcoder_E407_TTA_CombineModel.c ****       /* End of If: '<S375>/If' */
3523:HANcoder_E407_TTA_CombineModel.c **** 
3524:HANcoder_E407_TTA_CombineModel.c ****       /* Sum: '<S375>/Add2' incorporates:
3525:HANcoder_E407_TTA_CombineModel.c ****        *  Gain: '<S378>/Gain'
3526:HANcoder_E407_TTA_CombineModel.c ****        *  Gain: '<S379>/Gain'
3527:HANcoder_E407_TTA_CombineModel.c ****        */
3528:HANcoder_E407_TTA_CombineModel.c ****       rtB.Add2 = (uint8_T)((((uint32_T)rtB.Gain_d << 1) + rtB.Gain_j) >> 1);
3529:HANcoder_E407_TTA_CombineModel.c **** 
3530:HANcoder_E407_TTA_CombineModel.c ****       /* Update for Memory: '<S381>/Memory' */
3531:HANcoder_E407_TTA_CombineModel.c ****       rtDWork.Memory_PreviousInput = rtb_AND;
3532:HANcoder_E407_TTA_CombineModel.c **** 
3533:HANcoder_E407_TTA_CombineModel.c ****       /* Update for Memory: '<S380>/Memory' */
3534:HANcoder_E407_TTA_CombineModel.c ****       rtDWork.Memory_PreviousInput_d = rtb_OR1;
3535:HANcoder_E407_TTA_CombineModel.c ****     }
3536:HANcoder_E407_TTA_CombineModel.c **** 
3537:HANcoder_E407_TTA_CombineModel.c ****     /* End of Outputs for SubSystem: '<S16>/Subsystem' */
3538:HANcoder_E407_TTA_CombineModel.c **** 
3539:HANcoder_E407_TTA_CombineModel.c ****     /* DataTypeConversion: '<S16>/Cast3' incorporates:
3540:HANcoder_E407_TTA_CombineModel.c ****      *  Sum: '<S375>/Add1'
3541:HANcoder_E407_TTA_CombineModel.c ****      */
3542:HANcoder_E407_TTA_CombineModel.c ****     positionID5 = (uint8_T)((uint32_T)rtB.Add1 >> 6);
3543:HANcoder_E407_TTA_CombineModel.c **** 
3544:HANcoder_E407_TTA_CombineModel.c ****     /* DataStoreWrite: '<S16>/Data Store Write12' */
3545:HANcoder_E407_TTA_CombineModel.c ****     rtDWork.PositionID5 = positionID5;
3546:HANcoder_E407_TTA_CombineModel.c **** 
3547:HANcoder_E407_TTA_CombineModel.c ****     /* DataTypeConversion: '<S16>/Cast2' incorporates:
3548:HANcoder_E407_TTA_CombineModel.c ****      *  Sum: '<S375>/Add2'
3549:HANcoder_E407_TTA_CombineModel.c ****      */
3550:HANcoder_E407_TTA_CombineModel.c ****     positionID4 = (uint8_T)((uint32_T)rtB.Add2 >> 6);
3551:HANcoder_E407_TTA_CombineModel.c **** 
3552:HANcoder_E407_TTA_CombineModel.c ****     /* DataStoreWrite: '<S16>/Data Store Write6' */
3553:HANcoder_E407_TTA_CombineModel.c ****     rtDWork.PositionID4 = positionID4;
3554:HANcoder_E407_TTA_CombineModel.c **** 
3555:HANcoder_E407_TTA_CombineModel.c ****     /* End of Outputs for SubSystem: '<S1>/Triggered Subsystem' */
3556:HANcoder_E407_TTA_CombineModel.c ****   }
3557:HANcoder_E407_TTA_CombineModel.c **** 
3558:HANcoder_E407_TTA_CombineModel.c ****   /* End of If: '<S1>/If' */
3559:HANcoder_E407_TTA_CombineModel.c ****   /* M-S-Function: '<S371>/Level-2 M-file S-Function' */
3560:HANcoder_E407_TTA_CombineModel.c ****   /* read the current CPU load */
3561:HANcoder_E407_TTA_CombineModel.c ****   SI_CPUload = OsGetCpuLoad();
 2787              		.loc 1 3561 3 view .LVU1003
 2788              		.loc 1 3561 16 is_stmt 0 view .LVU1004
 2789 044a FFF7FEFF 		bl	OsGetCpuLoad
 2790              	.LVL183:
 2791              		.loc 1 3561 14 view .LVU1005
 2792 044e 104B     		ldr	r3, .L461+8
 2793 0450 1870     		strb	r0, [r3]
3562:HANcoder_E407_TTA_CombineModel.c **** 
3563:HANcoder_E407_TTA_CombineModel.c ****   /* M-S-Function: '<S372>/Level-2 M-file S-Function' */
3564:HANcoder_E407_TTA_CombineModel.c ****   /* read the free heap size */
3565:HANcoder_E407_TTA_CombineModel.c ****   SI_FreeHeap = OsGetFreeHeapSize();
 2794              		.loc 1 3565 3 is_stmt 1 view .LVU1006
 2795              		.loc 1 3565 17 is_stmt 0 view .LVU1007
 2796 0452 FFF7FEFF 		bl	OsGetFreeHeapSize
 2797              	.LVL184:
 2798              		.loc 1 3565 15 view .LVU1008
 2799 0456 0F4B     		ldr	r3, .L461+12
 2800              		.loc 1 3565 17 view .LVU1009
 2801 0458 0246     		mov	r2, r0
3566:HANcoder_E407_TTA_CombineModel.c **** 
3567:HANcoder_E407_TTA_CombineModel.c ****   /* M-S-Function: '<S373>/Level-2 M-file S-Function' */
3568:HANcoder_E407_TTA_CombineModel.c ****   /* read the task's free stack size */
3569:HANcoder_E407_TTA_CombineModel.c ****   SI_FreeStack = OsGetTaskFreeStackSize("AppCtrlTask");
 2802              		.loc 1 3569 18 view .LVU1010
 2803 045a 0F48     		ldr	r0, .L461+16
3565:HANcoder_E407_TTA_CombineModel.c **** 
 2804              		.loc 1 3565 15 view .LVU1011
 2805 045c 1A60     		str	r2, [r3]
 2806              		.loc 1 3569 3 is_stmt 1 view .LVU1012
 2807              		.loc 1 3569 18 is_stmt 0 view .LVU1013
 2808 045e FFF7FEFF 		bl	OsGetTaskFreeStackSize
 2809              	.LVL185:
3570:HANcoder_E407_TTA_CombineModel.c **** 
3571:HANcoder_E407_TTA_CombineModel.c ****   /* Update absolute time for base rate */
3572:HANcoder_E407_TTA_CombineModel.c ****   /* The "clockTick0" counts the number of times the code of this task has
3573:HANcoder_E407_TTA_CombineModel.c ****    * been executed. The resolution of this integer timer is 0.001, which is the step size
3574:HANcoder_E407_TTA_CombineModel.c ****    * of the task. Size of "clockTick0" ensures timer will not overflow during the
3575:HANcoder_E407_TTA_CombineModel.c ****    * application lifespan selected.
3576:HANcoder_E407_TTA_CombineModel.c ****    * Timer of this task consists of two 32 bit unsigned integers.
3577:HANcoder_E407_TTA_CombineModel.c ****    * The two integers represent the low bits Timing.clockTick0 and the high bits
3578:HANcoder_E407_TTA_CombineModel.c ****    * Timing.clockTickH0. When the low bit overflows to 0, the high bits increment.
3579:HANcoder_E407_TTA_CombineModel.c ****    */
3580:HANcoder_E407_TTA_CombineModel.c ****   rtM->Timing.clockTick0++;
 2810              		.loc 1 3580 25 view .LVU1014
 2811 0462 D8F80030 		ldr	r3, [r8]
3569:HANcoder_E407_TTA_CombineModel.c **** 
 2812              		.loc 1 3569 16 view .LVU1015
 2813 0466 0D4A     		ldr	r2, .L461+20
 2814              		.loc 1 3580 25 view .LVU1016
 2815 0468 0133     		adds	r3, r3, #1
3569:HANcoder_E407_TTA_CombineModel.c **** 
 2816              		.loc 1 3569 16 view .LVU1017
 2817 046a 1060     		str	r0, [r2]
 2818              		.loc 1 3580 3 is_stmt 1 view .LVU1018
 2819              		.loc 1 3580 25 is_stmt 0 view .LVU1019
 2820 046c C8F80030 		str	r3, [r8]
3581:HANcoder_E407_TTA_CombineModel.c ****   if (!rtM->Timing.clockTick0) {
 2821              		.loc 1 3581 3 is_stmt 1 view .LVU1020
 2822              		.loc 1 3581 6 is_stmt 0 view .LVU1021
 2823 0470 23B9     		cbnz	r3, .L99
3582:HANcoder_E407_TTA_CombineModel.c ****     rtM->Timing.clockTickH0++;
 2824              		.loc 1 3582 5 is_stmt 1 view .LVU1022
 2825              		.loc 1 3582 28 is_stmt 0 view .LVU1023
 2826 0472 D8F80430 		ldr	r3, [r8, #4]
 2827 0476 0133     		adds	r3, r3, #1
 2828 0478 C8F80430 		str	r3, [r8, #4]
 2829              	.L99:
3583:HANcoder_E407_TTA_CombineModel.c ****   }
3584:HANcoder_E407_TTA_CombineModel.c **** }
 2830              		.loc 1 3584 1 view .LVU1024
 2831 047c 1DB0     		add	sp, sp, #116
 2832              		.cfi_remember_state
 2833              		.cfi_def_cfa_offset 68
 2834              		@ sp needed
 2835 047e BDEC088B 		vldm	sp!, {d8-d11}
 2836              		.cfi_restore 86
 2837              		.cfi_restore 87
 2838              		.cfi_restore 84
 2839              		.cfi_restore 85
 2840              		.cfi_restore 82
 2841              		.cfi_restore 83
 2842              		.cfi_restore 80
 2843              		.cfi_restore 81
 2844              		.cfi_def_cfa_offset 36
 2845 0482 BDE8F08F 		pop	{r4, r5, r6, r7, r8, r9, r10, fp, pc}
 2846              	.L462:
 2847 0486 00BF     		.align	2
 2848              	.L461:
 2849 0488 00000000 		.word	.LANCHOR7
 2850 048c 00000000 		.word	.LANCHOR70
 2851 0490 00000000 		.word	.LANCHOR75
 2852 0494 00000000 		.word	.LANCHOR76
 2853 0498 00000000 		.word	.LC0
 2854 049c 00000000 		.word	.LANCHOR77
 2855              	.L109:
 2856              		.cfi_restore_state
 2857              	.LVL186:
1174:HANcoder_E407_TTA_CombineModel.c ****     /* DataStoreRead: '<S5>/Data Store Read' */
 2858              		.loc 1 1174 3 is_stmt 1 view .LVU1025
1174:HANcoder_E407_TTA_CombineModel.c ****     /* DataStoreRead: '<S5>/Data Store Read' */
 2859              		.loc 1 1174 35 is_stmt 0 view .LVU1026
 2860 04a0 DFF8CCB3 		ldr	fp, .L463+96
1174:HANcoder_E407_TTA_CombineModel.c ****     /* DataStoreRead: '<S5>/Data Store Read' */
 2861              		.loc 1 1174 15 view .LVU1027
 2862 04a4 9BF80C30 		ldrb	r3, [fp, #12]	@ zero_extendqisi2
 2863 04a8 012B     		cmp	r3, #1
 2864 04aa 00F02282 		beq	.L128
1176:HANcoder_E407_TTA_CombineModel.c **** 
 2865              		.loc 1 1176 5 is_stmt 1 view .LVU1028
1176:HANcoder_E407_TTA_CombineModel.c **** 
 2866              		.loc 1 1176 23 is_stmt 0 view .LVU1029
 2867 04ae D4E92601 		ldrd	r0, [r4, #152]
1176:HANcoder_E407_TTA_CombineModel.c **** 
 2868              		.loc 1 1176 14 view .LVU1030
 2869 04b2 DB4B     		ldr	r3, .L463+16
 2870 04b4 C3E90001 		strd	r0, [r3]
1182:HANcoder_E407_TTA_CombineModel.c **** 
 2871              		.loc 1 1182 5 is_stmt 1 view .LVU1031
1182:HANcoder_E407_TTA_CombineModel.c **** 
 2872              		.loc 1 1182 15 is_stmt 0 view .LVU1032
 2873 04b8 FFF7FEFF 		bl	tan
 2874              	.LVL187:
1182:HANcoder_E407_TTA_CombineModel.c **** 
 2875              		.loc 1 1182 29 view .LVU1033
 2876 04bc D94B     		ldr	r3, .L463+20
 2877 04be D3E90423 		ldrd	r2, [r3, #16]
 2878 04c2 FFF7FEFF 		bl	__aeabi_dmul
 2879              	.LVL188:
1182:HANcoder_E407_TTA_CombineModel.c **** 
 2880              		.loc 1 1182 13 view .LVU1034
 2881 04c6 0022     		movs	r2, #0
 2882 04c8 D74B     		ldr	r3, .L463+24
 2883 04ca FFF7FEFF 		bl	__aeabi_dmul
 2884              	.LVL189:
1185:HANcoder_E407_TTA_CombineModel.c **** 
 2885              		.loc 1 1185 13 view .LVU1035
 2886 04ce D74B     		ldr	r3, .L463+28
1188:HANcoder_E407_TTA_CombineModel.c **** 
 2887              		.loc 1 1188 22 view .LVU1036
 2888 04d0 B4F8DE60 		ldrh	r6, [r4, #222]
1182:HANcoder_E407_TTA_CombineModel.c **** 
 2889              		.loc 1 1182 13 view .LVU1037
 2890 04d4 41EC1B0B 		vmov	d11, r0, r1
 2891              	.LVL190:
1185:HANcoder_E407_TTA_CombineModel.c **** 
 2892              		.loc 1 1185 5 is_stmt 1 view .LVU1038
1185:HANcoder_E407_TTA_CombineModel.c **** 
 2893              		.loc 1 1185 22 is_stmt 0 view .LVU1039
 2894 04d8 B4F8E000 		ldrh	r0, [r4, #224]
 2895              	.LVL191:
1185:HANcoder_E407_TTA_CombineModel.c **** 
 2896              		.loc 1 1185 13 view .LVU1040
 2897 04dc 1880     		strh	r0, [r3]	@ movhi
1188:HANcoder_E407_TTA_CombineModel.c **** 
 2898              		.loc 1 1188 5 is_stmt 1 view .LVU1041
1188:HANcoder_E407_TTA_CombineModel.c **** 
 2899              		.loc 1 1188 13 is_stmt 0 view .LVU1042
 2900 04de D44B     		ldr	r3, .L463+32
1191:HANcoder_E407_TTA_CombineModel.c **** 
 2901              		.loc 1 1191 14 view .LVU1043
 2902 04e0 301A     		subs	r0, r6, r0
1188:HANcoder_E407_TTA_CombineModel.c **** 
 2903              		.loc 1 1188 13 view .LVU1044
 2904 04e2 1E80     		strh	r6, [r3]	@ movhi
1191:HANcoder_E407_TTA_CombineModel.c **** 
 2905              		.loc 1 1191 5 is_stmt 1 view .LVU1045
1191:HANcoder_E407_TTA_CombineModel.c **** 
 2906              		.loc 1 1191 12 is_stmt 0 view .LVU1046
 2907 04e4 D34B     		ldr	r3, .L463+36
1191:HANcoder_E407_TTA_CombineModel.c **** 
 2908              		.loc 1 1191 14 view .LVU1047
 2909 04e6 80B2     		uxth	r0, r0
1191:HANcoder_E407_TTA_CombineModel.c **** 
 2910              		.loc 1 1191 12 view .LVU1048
 2911 04e8 1880     		strh	r0, [r3]	@ movhi
1197:HANcoder_E407_TTA_CombineModel.c **** 
 2912              		.loc 1 1197 5 is_stmt 1 view .LVU1049
1197:HANcoder_E407_TTA_CombineModel.c **** 
 2913              		.loc 1 1197 24 is_stmt 0 view .LVU1050
 2914 04ea FFF7FEFF 		bl	__aeabi_ui2d
 2915              	.LVL192:
 2916 04ee 8046     		mov	r8, r0
 2917 04f0 8946     		mov	r9, r1
 2918 04f2 FFF7FEFF 		bl	sin
 2919              	.LVL193:
 2920 04f6 0246     		mov	r2, r0
 2921 04f8 0B46     		mov	r3, r1
1203:HANcoder_E407_TTA_CombineModel.c **** 
 2922              		.loc 1 1203 26 view .LVU1051
 2923 04fa 4046     		mov	r0, r8
 2924 04fc 4946     		mov	r1, r9
1197:HANcoder_E407_TTA_CombineModel.c **** 
 2925              		.loc 1 1197 24 view .LVU1052
 2926 04fe 43EC1A2B 		vmov	d10, r2, r3
 2927              	.LVL194:
1203:HANcoder_E407_TTA_CombineModel.c **** 
 2928              		.loc 1 1203 5 is_stmt 1 view .LVU1053
1203:HANcoder_E407_TTA_CombineModel.c **** 
 2929              		.loc 1 1203 26 is_stmt 0 view .LVU1054
 2930 0502 FFF7FEFF 		bl	cos
 2931              	.LVL195:
1213:HANcoder_E407_TTA_CombineModel.c **** 
 2932              		.loc 1 1213 30 view .LVU1055
 2933 0506 CC4B     		ldr	r3, .L463+40
1203:HANcoder_E407_TTA_CombineModel.c **** 
 2934              		.loc 1 1203 26 view .LVU1056
 2935 0508 41EC190B 		vmov	d9, r0, r1
 2936              	.LVL196:
1213:HANcoder_E407_TTA_CombineModel.c **** 
 2937              		.loc 1 1213 5 is_stmt 1 view .LVU1057
1213:HANcoder_E407_TTA_CombineModel.c **** 
 2938              		.loc 1 1213 30 is_stmt 0 view .LVU1058
 2939 050c 0022     		movs	r2, #0
 2940 050e 51EC1B0B 		vmov	r0, r1, d11
 2941              	.LVL197:
1213:HANcoder_E407_TTA_CombineModel.c **** 
 2942              		.loc 1 1213 30 view .LVU1059
 2943 0512 FFF7FEFF 		bl	__aeabi_dmul
 2944              	.LVL198:
1213:HANcoder_E407_TTA_CombineModel.c **** 
 2945              		.loc 1 1213 36 view .LVU1060
 2946 0516 53EC1A2B 		vmov	r2, r3, d10
 2947 051a FFF7FEFF 		bl	__aeabi_dmul
 2948              	.LVL199:
1213:HANcoder_E407_TTA_CombineModel.c **** 
 2949              		.loc 1 1213 76 view .LVU1061
 2950 051e C74B     		ldr	r3, .L463+44
1213:HANcoder_E407_TTA_CombineModel.c **** 
 2951              		.loc 1 1213 36 view .LVU1062
 2952 0520 8046     		mov	r8, r0
 2953 0522 8946     		mov	r9, r1
1213:HANcoder_E407_TTA_CombineModel.c **** 
 2954              		.loc 1 1213 76 view .LVU1063
 2955 0524 0022     		movs	r2, #0
 2956 0526 51EC190B 		vmov	r0, r1, d9
 2957 052a FFF7FEFF 		bl	__aeabi_dmul
 2958              	.LVL200:
 2959 052e 0246     		mov	r2, r0
 2960 0530 0B46     		mov	r3, r1
1213:HANcoder_E407_TTA_CombineModel.c **** 
 2961              		.loc 1 1213 20 view .LVU1064
 2962 0532 4046     		mov	r0, r8
 2963 0534 4946     		mov	r1, r9
 2964 0536 FFF7FEFF 		bl	__aeabi_dadd
 2965              	.LVL201:
 2966 053a 0246     		mov	r2, r0
 2967 053c 0B46     		mov	r3, r1
1218:HANcoder_E407_TTA_CombineModel.c **** 
 2968              		.loc 1 1218 20 view .LVU1065
 2969 053e 3046     		mov	r0, r6
1213:HANcoder_E407_TTA_CombineModel.c **** 
 2970              		.loc 1 1213 20 view .LVU1066
 2971 0540 43EC182B 		vmov	d8, r2, r3
 2972              	.LVL202:
1218:HANcoder_E407_TTA_CombineModel.c **** 
 2973              		.loc 1 1218 5 is_stmt 1 view .LVU1067
1218:HANcoder_E407_TTA_CombineModel.c **** 
 2974              		.loc 1 1218 20 is_stmt 0 view .LVU1068
 2975 0544 FFF7FEFF 		bl	__aeabi_ui2d
 2976              	.LVL203:
1218:HANcoder_E407_TTA_CombineModel.c **** 
 2977              		.loc 1 1218 20 view .LVU1069
 2978 0548 0246     		mov	r2, r0
 2979 054a 0B46     		mov	r3, r1
1218:HANcoder_E407_TTA_CombineModel.c **** 
 2980              		.loc 1 1218 18 view .LVU1070
 2981 054c 0020     		movs	r0, #0
 2982 054e 0021     		movs	r1, #0
 2983 0550 FFF7FEFF 		bl	__aeabi_dsub
 2984              	.LVL204:
1218:HANcoder_E407_TTA_CombineModel.c **** 
 2985              		.loc 1 1218 12 view .LVU1071
 2986 0554 BA4B     		ldr	r3, .L463+48
1218:HANcoder_E407_TTA_CombineModel.c **** 
 2987              		.loc 1 1218 18 view .LVU1072
 2988 0556 8046     		mov	r8, r0
 2989 0558 8946     		mov	r9, r1
1218:HANcoder_E407_TTA_CombineModel.c **** 
 2990              		.loc 1 1218 12 view .LVU1073
 2991 055a C3E90089 		strd	r8, [r3]
1229:HANcoder_E407_TTA_CombineModel.c ****                         rtb_Integrator_tmp / 1.0 * 4.0 * rtb_Uk1) *
 2992              		.loc 1 1229 5 is_stmt 1 view .LVU1074
1230:HANcoder_E407_TTA_CombineModel.c ****       (rtConstB.signV2 * rtConstB.signL0b);
 2993              		.loc 1 1230 50 is_stmt 0 view .LVU1075
 2994 055e 51EC190B 		vmov	r0, r1, d9
 2995 0562 B54B     		ldr	r3, .L463+40
 2996 0564 0022     		movs	r2, #0
 2997 0566 FFF7FEFF 		bl	__aeabi_dmul
 2998              	.LVL205:
1230:HANcoder_E407_TTA_CombineModel.c ****       (rtConstB.signV2 * rtConstB.signL0b);
 2999              		.loc 1 1230 56 view .LVU1076
 3000 056a 53EC1B2B 		vmov	r2, r3, d11
 3001 056e FFF7FEFF 		bl	__aeabi_dmul
 3002              	.LVL206:
1229:HANcoder_E407_TTA_CombineModel.c ****                         rtb_Integrator_tmp / 1.0 * 4.0 * rtb_Uk1) *
 3003              		.loc 1 1229 35 view .LVU1077
 3004 0572 B24B     		ldr	r3, .L463+44
1230:HANcoder_E407_TTA_CombineModel.c ****       (rtConstB.signV2 * rtConstB.signL0b);
 3005              		.loc 1 1230 56 view .LVU1078
 3006 0574 0646     		mov	r6, r0
 3007 0576 0F46     		mov	r7, r1
1229:HANcoder_E407_TTA_CombineModel.c ****                         rtb_Integrator_tmp / 1.0 * 4.0 * rtb_Uk1) *
 3008              		.loc 1 1229 35 view .LVU1079
 3009 0578 0022     		movs	r2, #0
 3010 057a 51EC1A0B 		vmov	r0, r1, d10
 3011 057e FFF7FEFF 		bl	__aeabi_dmul
 3012              	.LVL207:
 3013 0582 0246     		mov	r2, r0
 3014 0584 0B46     		mov	r3, r1
1229:HANcoder_E407_TTA_CombineModel.c ****                         rtb_Integrator_tmp / 1.0 * 4.0 * rtb_Uk1) *
 3015              		.loc 1 1229 63 view .LVU1080
 3016 0586 3046     		mov	r0, r6
 3017 0588 3946     		mov	r1, r7
 3018 058a FFF7FEFF 		bl	__aeabi_dsub
 3019              	.LVL208:
1231:HANcoder_E407_TTA_CombineModel.c **** 
 3020              		.loc 1 1231 24 view .LVU1081
 3021 058e A54B     		ldr	r3, .L463+20
1229:HANcoder_E407_TTA_CombineModel.c ****                         rtb_Integrator_tmp / 1.0 * 4.0 * rtb_Uk1) *
 3022              		.loc 1 1229 63 view .LVU1082
 3023 0590 0F46     		mov	r7, r1
1231:HANcoder_E407_TTA_CombineModel.c **** 
 3024              		.loc 1 1231 24 view .LVU1083
 3025 0592 1946     		mov	r1, r3
1229:HANcoder_E407_TTA_CombineModel.c ****                         rtb_Integrator_tmp / 1.0 * 4.0 * rtb_Uk1) *
 3026              		.loc 1 1229 63 view .LVU1084
 3027 0594 0646     		mov	r6, r0
1231:HANcoder_E407_TTA_CombineModel.c **** 
 3028              		.loc 1 1231 24 view .LVU1085
 3029 0596 D3E90223 		ldrd	r2, [r3, #8]
 3030 059a D1E90001 		ldrd	r0, [r1]
 3031 059e FFF7FEFF 		bl	__aeabi_dmul
 3032              	.LVL209:
1229:HANcoder_E407_TTA_CombineModel.c ****                         rtb_Integrator_tmp / 1.0 * 4.0 * rtb_Uk1) *
 3033              		.loc 1 1229 22 view .LVU1086
 3034 05a2 3246     		mov	r2, r6
 3035 05a4 3B46     		mov	r3, r7
 3036 05a6 FFF7FEFF 		bl	__aeabi_dmul
 3037              	.LVL210:
 3038 05aa 0646     		mov	r6, r0
 3039 05ac 0F46     		mov	r7, r1
 3040              	.LVL211:
1237:HANcoder_E407_TTA_CombineModel.c **** 
 3041              		.loc 1 1237 5 is_stmt 1 view .LVU1087
1237:HANcoder_E407_TTA_CombineModel.c **** 
 3042              		.loc 1 1237 15 is_stmt 0 view .LVU1088
 3043 05ae 4046     		mov	r0, r8
 3044 05b0 4946     		mov	r1, r9
 3045 05b2 FFF7FEFF 		bl	sin
 3046              	.LVL212:
 3047 05b6 0246     		mov	r2, r0
 3048 05b8 0B46     		mov	r3, r1
1243:HANcoder_E407_TTA_CombineModel.c **** 
 3049              		.loc 1 1243 26 view .LVU1089
 3050 05ba 4046     		mov	r0, r8
 3051 05bc 4946     		mov	r1, r9
1237:HANcoder_E407_TTA_CombineModel.c **** 
 3052              		.loc 1 1237 15 view .LVU1090
 3053 05be 43EC192B 		vmov	d9, r2, r3
 3054              	.LVL213:
1243:HANcoder_E407_TTA_CombineModel.c **** 
 3055              		.loc 1 1243 5 is_stmt 1 view .LVU1091
1243:HANcoder_E407_TTA_CombineModel.c **** 
 3056              		.loc 1 1243 26 is_stmt 0 view .LVU1092
 3057 05c2 FFF7FEFF 		bl	cos
 3058              	.LVL214:
1246:HANcoder_E407_TTA_CombineModel.c ****       tmp = -1.0;
 3059              		.loc 1 1246 8 view .LVU1093
 3060 05c6 0022     		movs	r2, #0
1243:HANcoder_E407_TTA_CombineModel.c **** 
 3061              		.loc 1 1243 26 view .LVU1094
 3062 05c8 41EC1A0B 		vmov	d10, r0, r1
 3063              	.LVL215:
1246:HANcoder_E407_TTA_CombineModel.c ****       tmp = -1.0;
 3064              		.loc 1 1246 5 is_stmt 1 view .LVU1095
1246:HANcoder_E407_TTA_CombineModel.c ****       tmp = -1.0;
 3065              		.loc 1 1246 8 is_stmt 0 view .LVU1096
 3066 05cc 0023     		movs	r3, #0
 3067 05ce 51EC180B 		vmov	r0, r1, d8
 3068              	.LVL216:
1246:HANcoder_E407_TTA_CombineModel.c ****       tmp = -1.0;
 3069              		.loc 1 1246 8 view .LVU1097
 3070 05d2 FFF7FEFF 		bl	__aeabi_dcmplt
 3071              	.LVL217:
 3072 05d6 0028     		cmp	r0, #0
 3073 05d8 40F0D886 		bne	.L285
1249:HANcoder_E407_TTA_CombineModel.c ****     }
 3074              		.loc 1 1249 7 is_stmt 1 view .LVU1098
1249:HANcoder_E407_TTA_CombineModel.c ****     }
 3075              		.loc 1 1249 11 is_stmt 0 view .LVU1099
 3076 05dc 51EC180B 		vmov	r0, r1, d8
 3077 05e0 0022     		movs	r2, #0
 3078 05e2 0023     		movs	r3, #0
 3079 05e4 FFF7FEFF 		bl	__aeabi_dcmpgt
 3080              	.LVL218:
 3081 05e8 4FF00008 		mov	r8, #0
 3082 05ec 0028     		cmp	r0, #0
 3083 05ee 01F0C681 		beq	.L439
 3084 05f2 DFF88092 		ldr	r9, .L463+100
 3085              	.L111:
 3086              	.LVL219:
1270:HANcoder_E407_TTA_CombineModel.c ****       + rtb_Integrator_tmp / 1.0 * 4.0 * rtb_IntegralGain) * (tmp *
 3087              		.loc 1 1270 5 is_stmt 1 view .LVU1100
1271:HANcoder_E407_TTA_CombineModel.c ****       rtConstB.signL0b_o) * 3.0 / (rtb_IntegralGain * 4.0 * rtb_Uk1 +
 3088              		.loc 1 1271 34 is_stmt 0 view .LVU1101
 3089 05f6 904B     		ldr	r3, .L463+40
 3090 05f8 B0EE4ABA 		vmov.f32	s22, s20
 3091 05fc F0EE6ABA 		vmov.f32	s23, s21
 3092 0600 51EC1A0B 		vmov	r0, r1, d10
 3093 0604 0022     		movs	r2, #0
 3094 0606 FFF7FEFF 		bl	__aeabi_dmul
 3095              	.LVL220:
1271:HANcoder_E407_TTA_CombineModel.c ****       rtConstB.signL0b_o) * 3.0 / (rtb_IntegralGain * 4.0 * rtb_Uk1 +
 3096              		.loc 1 1271 40 view .LVU1102
 3097 060a 3246     		mov	r2, r6
 3098 060c 3B46     		mov	r3, r7
 3099 060e FFF7FEFF 		bl	__aeabi_dmul
 3100              	.LVL221:
 3101 0612 47EC1A6B 		vmov	d10, r6, r7
 3102              	.LVL222:
1270:HANcoder_E407_TTA_CombineModel.c ****       + rtb_Integrator_tmp / 1.0 * 4.0 * rtb_IntegralGain) * (tmp *
 3103              		.loc 1 1270 64 view .LVU1103
 3104 0616 53EC192B 		vmov	r2, r3, d9
1271:HANcoder_E407_TTA_CombineModel.c ****       rtConstB.signL0b_o) * 3.0 / (rtb_IntegralGain * 4.0 * rtb_Uk1 +
 3105              		.loc 1 1271 40 view .LVU1104
 3106 061a 0646     		mov	r6, r0
 3107              	.LVL223:
1271:HANcoder_E407_TTA_CombineModel.c ****       rtConstB.signL0b_o) * 3.0 / (rtb_IntegralGain * 4.0 * rtb_Uk1 +
 3108              		.loc 1 1271 40 view .LVU1105
 3109 061c 0F46     		mov	r7, r1
1270:HANcoder_E407_TTA_CombineModel.c ****       + rtb_Integrator_tmp / 1.0 * 4.0 * rtb_IntegralGain) * (tmp *
 3110              		.loc 1 1270 64 view .LVU1106
 3111 061e 51EC180B 		vmov	r0, r1, d8
 3112 0622 FFF7FEFF 		bl	__aeabi_dmul
 3113              	.LVL224:
 3114 0626 0246     		mov	r2, r0
 3115 0628 0B46     		mov	r3, r1
1271:HANcoder_E407_TTA_CombineModel.c ****       rtConstB.signL0b_o) * 3.0 / (rtb_IntegralGain * 4.0 * rtb_Uk1 +
 3116              		.loc 1 1271 7 view .LVU1107
 3117 062a 3046     		mov	r0, r6
 3118 062c 3946     		mov	r1, r7
 3119 062e FFF7FEFF 		bl	__aeabi_dsub
 3120              	.LVL225:
1271:HANcoder_E407_TTA_CombineModel.c ****       rtConstB.signL0b_o) * 3.0 / (rtb_IntegralGain * 4.0 * rtb_Uk1 +
 3121              		.loc 1 1271 67 view .LVU1108
 3122 0632 7C4B     		ldr	r3, .L463+20
1271:HANcoder_E407_TTA_CombineModel.c ****       rtConstB.signL0b_o) * 3.0 / (rtb_IntegralGain * 4.0 * rtb_Uk1 +
 3123              		.loc 1 1271 7 view .LVU1109
 3124 0634 0646     		mov	r6, r0
1271:HANcoder_E407_TTA_CombineModel.c ****       rtConstB.signL0b_o) * 3.0 / (rtb_IntegralGain * 4.0 * rtb_Uk1 +
 3125              		.loc 1 1271 67 view .LVU1110
 3126 0636 D3E90623 		ldrd	r2, [r3, #24]
1271:HANcoder_E407_TTA_CombineModel.c ****       rtConstB.signL0b_o) * 3.0 / (rtb_IntegralGain * 4.0 * rtb_Uk1 +
 3127              		.loc 1 1271 7 view .LVU1111
 3128 063a 0F46     		mov	r7, r1
1271:HANcoder_E407_TTA_CombineModel.c ****       rtConstB.signL0b_o) * 3.0 / (rtb_IntegralGain * 4.0 * rtb_Uk1 +
 3129              		.loc 1 1271 67 view .LVU1112
 3130 063c 4046     		mov	r0, r8
 3131 063e 4946     		mov	r1, r9
 3132 0640 FFF7FEFF 		bl	__aeabi_dmul
 3133              	.LVL226:
 3134 0644 0246     		mov	r2, r0
 3135 0646 0B46     		mov	r3, r1
1271:HANcoder_E407_TTA_CombineModel.c ****       rtConstB.signL0b_o) * 3.0 / (rtb_IntegralGain * 4.0 * rtb_Uk1 +
 3136              		.loc 1 1271 60 view .LVU1113
 3137 0648 3046     		mov	r0, r6
 3138 064a 3946     		mov	r1, r7
 3139 064c FFF7FEFF 		bl	__aeabi_dmul
 3140              	.LVL227:
1272:HANcoder_E407_TTA_CombineModel.c ****       rtb_Integrator_tmp * rtb_Integrator)));
 3141              		.loc 1 1272 27 view .LVU1114
 3142 0650 7C4B     		ldr	r3, .L463+52
 3143 0652 0022     		movs	r2, #0
 3144 0654 FFF7FEFF 		bl	__aeabi_dmul
 3145              	.LVL228:
1272:HANcoder_E407_TTA_CombineModel.c ****       rtb_Integrator_tmp * rtb_Integrator)));
 3146              		.loc 1 1272 53 view .LVU1115
 3147 0658 774B     		ldr	r3, .L463+40
1272:HANcoder_E407_TTA_CombineModel.c ****       rtb_Integrator_tmp * rtb_Integrator)));
 3148              		.loc 1 1272 27 view .LVU1116
 3149 065a 8046     		mov	r8, r0
 3150              	.LVL229:
1272:HANcoder_E407_TTA_CombineModel.c ****       rtb_Integrator_tmp * rtb_Integrator)));
 3151              		.loc 1 1272 27 view .LVU1117
 3152 065c 8946     		mov	r9, r1
1272:HANcoder_E407_TTA_CombineModel.c ****       rtb_Integrator_tmp * rtb_Integrator)));
 3153              		.loc 1 1272 53 view .LVU1118
 3154 065e 0022     		movs	r2, #0
 3155 0660 51EC1A0B 		vmov	r0, r1, d10
 3156 0664 FFF7FEFF 		bl	__aeabi_dmul
 3157              	.LVL230:
1272:HANcoder_E407_TTA_CombineModel.c ****       rtb_Integrator_tmp * rtb_Integrator)));
 3158              		.loc 1 1272 59 view .LVU1119
 3159 0668 53EC192B 		vmov	r2, r3, d9
 3160 066c FFF7FEFF 		bl	__aeabi_dmul
 3161              	.LVL231:
1273:HANcoder_E407_TTA_CombineModel.c **** 
 3162              		.loc 1 1273 26 view .LVU1120
 3163 0670 53EC1B2B 		vmov	r2, r3, d11
1272:HANcoder_E407_TTA_CombineModel.c ****       rtb_Integrator_tmp * rtb_Integrator)));
 3164              		.loc 1 1272 59 view .LVU1121
 3165 0674 0646     		mov	r6, r0
 3166 0676 0F46     		mov	r7, r1
1273:HANcoder_E407_TTA_CombineModel.c **** 
 3167              		.loc 1 1273 26 view .LVU1122
 3168 0678 51EC180B 		vmov	r0, r1, d8
 3169 067c FFF7FEFF 		bl	__aeabi_dmul
 3170              	.LVL232:
 3171 0680 0246     		mov	r2, r0
 3172 0682 0B46     		mov	r3, r1
1272:HANcoder_E407_TTA_CombineModel.c ****       rtb_Integrator_tmp * rtb_Integrator)));
 3173              		.loc 1 1272 69 view .LVU1123
 3174 0684 3046     		mov	r0, r6
 3175 0686 3946     		mov	r1, r7
 3176 0688 FFF7FEFF 		bl	__aeabi_dadd
 3177              	.LVL233:
 3178 068c 0246     		mov	r2, r0
 3179 068e 0B46     		mov	r3, r1
1272:HANcoder_E407_TTA_CombineModel.c ****       rtb_Integrator_tmp * rtb_Integrator)));
 3180              		.loc 1 1272 33 view .LVU1124
 3181 0690 4046     		mov	r0, r8
 3182 0692 4946     		mov	r1, r9
 3183 0694 FFF7FEFF 		bl	__aeabi_ddiv
 3184              	.LVL234:
1270:HANcoder_E407_TTA_CombineModel.c ****       + rtb_Integrator_tmp / 1.0 * 4.0 * rtb_IntegralGain) * (tmp *
 3185              		.loc 1 1270 31 view .LVU1125
 3186 0698 FFF7FEFF 		bl	__aeabi_d2f
 3187              	.LVL235:
1270:HANcoder_E407_TTA_CombineModel.c ****       + rtb_Integrator_tmp / 1.0 * 4.0 * rtb_IntegralGain) * (tmp *
 3188              		.loc 1 1270 26 view .LVU1126
 3189 069c FFF7FEFF 		bl	__aeabi_f2d
 3190              	.LVL236:
 3191 06a0 FFF7FEFF 		bl	atan
 3192              	.LVL237:
1270:HANcoder_E407_TTA_CombineModel.c ****       + rtb_Integrator_tmp / 1.0 * 4.0 * rtb_IntegralGain) * (tmp *
 3193              		.loc 1 1270 16 view .LVU1127
 3194 06a4 FFF7FEFF 		bl	__aeabi_d2f
 3195              	.LVL238:
1278:HANcoder_E407_TTA_CombineModel.c **** 
 3196              		.loc 1 1278 21 view .LVU1128
 3197 06a8 9FED677A 		vldr.32	s14, .L463+56
1270:HANcoder_E407_TTA_CombineModel.c ****       + rtb_Integrator_tmp / 1.0 * 4.0 * rtb_IntegralGain) * (tmp *
 3198              		.loc 1 1270 14 view .LVU1129
 3199 06ac 674B     		ldr	r3, .L463+60
1270:HANcoder_E407_TTA_CombineModel.c ****       + rtb_Integrator_tmp / 1.0 * 4.0 * rtb_IntegralGain) * (tmp *
 3200              		.loc 1 1270 16 view .LVU1130
 3201 06ae 07EE900A 		vmov	s15, r0
1278:HANcoder_E407_TTA_CombineModel.c **** 
 3202              		.loc 1 1278 21 view .LVU1131
 3203 06b2 67EE877A 		vmul.f32	s15, s15, s14
1270:HANcoder_E407_TTA_CombineModel.c ****       + rtb_Integrator_tmp / 1.0 * 4.0 * rtb_IntegralGain) * (tmp *
 3204              		.loc 1 1270 14 view .LVU1132
 3205 06b6 1860     		str	r0, [r3]	@ float
1278:HANcoder_E407_TTA_CombineModel.c **** 
 3206              		.loc 1 1278 5 is_stmt 1 view .LVU1133
1278:HANcoder_E407_TTA_CombineModel.c **** 
 3207              		.loc 1 1278 21 is_stmt 0 view .LVU1134
 3208 06b8 17EE900A 		vmov	r0, s15
 3209 06bc FFF7FEFF 		bl	__aeabi_f2d
 3210              	.LVL239:
1278:HANcoder_E407_TTA_CombineModel.c **** 
 3211              		.loc 1 1278 14 view .LVU1135
 3212 06c0 634B     		ldr	r3, .L463+64
1278:HANcoder_E407_TTA_CombineModel.c **** 
 3213              		.loc 1 1278 21 view .LVU1136
 3214 06c2 8046     		mov	r8, r0
 3215 06c4 8946     		mov	r9, r1
1278:HANcoder_E407_TTA_CombineModel.c **** 
 3216              		.loc 1 1278 14 view .LVU1137
 3217 06c6 C3E90089 		strd	r8, [r3]
1283:HANcoder_E407_TTA_CombineModel.c ****       rtDWork.encoderPosition;
 3218              		.loc 1 1283 5 is_stmt 1 view .LVU1138
1283:HANcoder_E407_TTA_CombineModel.c ****       rtDWork.encoderPosition;
 3219              		.loc 1 1283 62 is_stmt 0 view .LVU1139
 3220 06ca D4F8BC00 		ldr	r0, [r4, #188]
 3221 06ce FFF7FEFF 		bl	__aeabi_i2d
 3222              	.LVL240:
1283:HANcoder_E407_TTA_CombineModel.c ****       rtDWork.encoderPosition;
 3223              		.loc 1 1283 60 view .LVU1140
 3224 06d2 4FA3     		adr	r3, .L463
 3225 06d4 D3E90023 		ldrd	r2, [r3]
 3226 06d8 FFF7FEFF 		bl	__aeabi_dmul
 3227              	.LVL241:
1283:HANcoder_E407_TTA_CombineModel.c ****       rtDWork.encoderPosition;
 3228              		.loc 1 1283 14 view .LVU1141
 3229 06dc 5D4B     		ldr	r3, .L463+68
1283:HANcoder_E407_TTA_CombineModel.c ****       rtDWork.encoderPosition;
 3230              		.loc 1 1283 60 view .LVU1142
 3231 06de 0646     		mov	r6, r0
 3232 06e0 0F46     		mov	r7, r1
1290:HANcoder_E407_TTA_CombineModel.c **** 
 3233              		.loc 1 1290 15 view .LVU1143
 3234 06e2 4046     		mov	r0, r8
 3235 06e4 4946     		mov	r1, r9
1283:HANcoder_E407_TTA_CombineModel.c ****       rtDWork.encoderPosition;
 3236              		.loc 1 1283 14 view .LVU1144
 3237 06e6 C3E90067 		strd	r6, [r3]
1290:HANcoder_E407_TTA_CombineModel.c **** 
 3238              		.loc 1 1290 5 is_stmt 1 view .LVU1145
1290:HANcoder_E407_TTA_CombineModel.c **** 
 3239              		.loc 1 1290 15 is_stmt 0 view .LVU1146
 3240 06ea FFF7FEFF 		bl	floor
 3241              	.LVL242:
 3242 06ee 0246     		mov	r2, r0
 3243 06f0 0B46     		mov	r3, r1
1290:HANcoder_E407_TTA_CombineModel.c **** 
 3244              		.loc 1 1290 33 view .LVU1147
 3245 06f2 3046     		mov	r0, r6
 3246 06f4 3946     		mov	r1, r7
1290:HANcoder_E407_TTA_CombineModel.c **** 
 3247              		.loc 1 1290 15 view .LVU1148
 3248 06f6 1646     		mov	r6, r2
 3249 06f8 1F46     		mov	r7, r3
1290:HANcoder_E407_TTA_CombineModel.c **** 
 3250              		.loc 1 1290 33 view .LVU1149
 3251 06fa FFF7FEFF 		bl	floor
 3252              	.LVL243:
 3253 06fe 0246     		mov	r2, r0
 3254 0700 0B46     		mov	r3, r1
1290:HANcoder_E407_TTA_CombineModel.c **** 
 3255              		.loc 1 1290 31 view .LVU1150
 3256 0702 3046     		mov	r0, r6
 3257 0704 3946     		mov	r1, r7
 3258 0706 FFF7FEFF 		bl	__aeabi_dsub
 3259              	.LVL244:
1299:HANcoder_E407_TTA_CombineModel.c **** 
 3260              		.loc 1 1299 51 view .LVU1151
 3261 070a 94ED1E7B 		vldr.64	d7, [r4, #120]
1290:HANcoder_E407_TTA_CombineModel.c **** 
 3262              		.loc 1 1290 13 view .LVU1152
 3263 070e 524A     		ldr	r2, .L463+72
1299:HANcoder_E407_TTA_CombineModel.c **** 
 3264              		.loc 1 1299 23 view .LVU1153
 3265 0710 524B     		ldr	r3, .L463+76
1299:HANcoder_E407_TTA_CombineModel.c **** 
 3266              		.loc 1 1299 51 view .LVU1154
 3267 0712 B0EE478A 		vmov.f32	s16, s14
 3268 0716 F0EE678A 		vmov.f32	s17, s15
 3269              	.LVL245:
1290:HANcoder_E407_TTA_CombineModel.c **** 
 3270              		.loc 1 1290 31 view .LVU1155
 3271 071a 8046     		mov	r8, r0
 3272 071c 8946     		mov	r9, r1
1293:HANcoder_E407_TTA_CombineModel.c **** 
 3273              		.loc 1 1293 22 view .LVU1156
 3274 071e 21F00047 		bic	r7, r1, #-2147483648
1290:HANcoder_E407_TTA_CombineModel.c **** 
 3275              		.loc 1 1290 13 view .LVU1157
 3276 0722 C2E90089 		strd	r8, [r2]
1293:HANcoder_E407_TTA_CombineModel.c **** 
 3277              		.loc 1 1293 5 is_stmt 1 view .LVU1158
1299:HANcoder_E407_TTA_CombineModel.c **** 
 3278              		.loc 1 1299 51 is_stmt 0 view .LVU1159
 3279 0726 B0EE47AA 		vmov.f32	s20, s14
 3280 072a F0EE67AA 		vmov.f32	s21, s15
 3281              	.LVL246:
1299:HANcoder_E407_TTA_CombineModel.c **** 
 3282              		.loc 1 1299 23 view .LVU1160
 3283 072e D3E90023 		ldrd	r2, [r3]
 3284 0732 3946     		mov	r1, r7
1293:HANcoder_E407_TTA_CombineModel.c **** 
 3285              		.loc 1 1293 22 view .LVU1161
 3286 0734 0646     		mov	r6, r0
 3287              	.LVL247:
1299:HANcoder_E407_TTA_CombineModel.c **** 
 3288              		.loc 1 1299 5 is_stmt 1 view .LVU1162
1299:HANcoder_E407_TTA_CombineModel.c **** 
 3289              		.loc 1 1299 23 is_stmt 0 view .LVU1163
 3290 0736 FFF7FEFF 		bl	__aeabi_dmul
 3291              	.LVL248:
1299:HANcoder_E407_TTA_CombineModel.c **** 
 3292              		.loc 1 1299 13 view .LVU1164
 3293 073a 53EC182B 		vmov	r2, r3, d8
 3294 073e FFF7FEFF 		bl	__aeabi_dadd
 3295              	.LVL249:
 3296 0742 0246     		mov	r2, r0
 3297 0744 0B46     		mov	r3, r1
 3298 0746 43EC182B 		vmov	d8, r2, r3
1302:HANcoder_E407_TTA_CombineModel.c ****       tmp = 300.0;
 3299              		.loc 1 1302 8 view .LVU1165
 3300 074a 33A3     		adr	r3, .L463+8
 3301 074c D3E90023 		ldrd	r2, [r3]
1299:HANcoder_E407_TTA_CombineModel.c **** 
 3302              		.loc 1 1299 13 view .LVU1166
 3303 0750 B0EE489A 		vmov.f32	s18, s16
 3304 0754 F0EE689A 		vmov.f32	s19, s17
 3305              	.LVL250:
1302:HANcoder_E407_TTA_CombineModel.c ****       tmp = 300.0;
 3306              		.loc 1 1302 5 is_stmt 1 view .LVU1167
1302:HANcoder_E407_TTA_CombineModel.c ****       tmp = 300.0;
 3307              		.loc 1 1302 8 is_stmt 0 view .LVU1168
 3308 0758 FFF7FEFF 		bl	__aeabi_dcmpgt
 3309              	.LVL251:
 3310 075c 0028     		cmp	r0, #0
 3311 075e 41F09380 		bne	.L287
1304:HANcoder_E407_TTA_CombineModel.c ****       tmp = 0.0;
 3312              		.loc 1 1304 12 is_stmt 1 view .LVU1169
1304:HANcoder_E407_TTA_CombineModel.c ****       tmp = 0.0;
 3313              		.loc 1 1304 15 is_stmt 0 view .LVU1170
 3314 0762 51EC180B 		vmov	r0, r1, d8
 3315 0766 0022     		movs	r2, #0
 3316 0768 0023     		movs	r3, #0
 3317 076a FFF7FEFF 		bl	__aeabi_dcmplt
 3318              	.LVL252:
 3319 076e 0028     		cmp	r0, #0
 3320 0770 41F00981 		bne	.L288
1307:HANcoder_E407_TTA_CombineModel.c ****     }
 3321              		.loc 1 1307 7 is_stmt 1 view .LVU1171
 3322              	.LVL253:
1315:HANcoder_E407_TTA_CombineModel.c **** 
 3323              		.loc 1 1315 55 is_stmt 0 view .LVU1172
 3324 0774 51EC180B 		vmov	r0, r1, d8
 3325 0778 FFF7FEFF 		bl	__aeabi_d2uiz
 3326              	.LVL254:
1315:HANcoder_E407_TTA_CombineModel.c **** 
 3327              		.loc 1 1315 15 view .LVU1173
 3328 077c 00F5FA70 		add	r0, r0, #500
 3329 0780 83B2     		uxth	r3, r0
 3330              	.LVL255:
 3331              	.L112:
1315:HANcoder_E407_TTA_CombineModel.c **** 
 3332              		.loc 1 1315 5 is_stmt 1 view .LVU1174
1324:HANcoder_E407_TTA_CombineModel.c **** 
 3333              		.loc 1 1324 37 is_stmt 0 view .LVU1175
 3334 0782 374A     		ldr	r2, .L463+80
1315:HANcoder_E407_TTA_CombineModel.c **** 
 3335              		.loc 1 1315 13 view .LVU1176
 3336 0784 3749     		ldr	r1, .L463+84
1318:HANcoder_E407_TTA_CombineModel.c **** 
 3337              		.loc 1 1318 22 view .LVU1177
 3338 0786 A4F8D030 		strh	r3, [r4, #208]	@ movhi
1315:HANcoder_E407_TTA_CombineModel.c **** 
 3339              		.loc 1 1315 13 view .LVU1178
 3340 078a 0B80     		strh	r3, [r1]	@ movhi
1318:HANcoder_E407_TTA_CombineModel.c **** 
 3341              		.loc 1 1318 5 is_stmt 1 view .LVU1179
1324:HANcoder_E407_TTA_CombineModel.c **** 
 3342              		.loc 1 1324 5 view .LVU1180
1324:HANcoder_E407_TTA_CombineModel.c **** 
 3343              		.loc 1 1324 37 is_stmt 0 view .LVU1181
 3344 078c 92ED008B 		vldr.64	d8, [r2]
 3345              	.LVL256:
1330:HANcoder_E407_TTA_CombineModel.c **** 
 3346              		.loc 1 1330 5 is_stmt 1 view .LVU1182
1330:HANcoder_E407_TTA_CombineModel.c **** 
 3347              		.loc 1 1330 19 is_stmt 0 view .LVU1183
 3348 0790 0023     		movs	r3, #0
 3349 0792 0022     		movs	r2, #0
 3350 0794 4946     		mov	r1, r9
 3351 0796 4046     		mov	r0, r8
 3352 0798 FFF7FEFF 		bl	__aeabi_dcmpgt
 3353              	.LVL257:
1330:HANcoder_E407_TTA_CombineModel.c **** 
 3354              		.loc 1 1330 8 view .LVU1184
 3355 079c 324B     		ldr	r3, .L463+88
1330:HANcoder_E407_TTA_CombineModel.c **** 
 3356              		.loc 1 1330 19 view .LVU1185
 3357 079e 021E     		subs	r2, r0, #0
 3358 07a0 18BF     		it	ne
 3359 07a2 0122     		movne	r2, #1
1330:HANcoder_E407_TTA_CombineModel.c **** 
 3360              		.loc 1 1330 8 view .LVU1186
 3361 07a4 1A70     		strb	r2, [r3]
1335:HANcoder_E407_TTA_CombineModel.c **** 
 3362              		.loc 1 1335 5 is_stmt 1 view .LVU1187
1330:HANcoder_E407_TTA_CombineModel.c **** 
 3363              		.loc 1 1330 19 is_stmt 0 view .LVU1188
 3364 07a6 0792     		str	r2, [sp, #28]
1335:HANcoder_E407_TTA_CombineModel.c **** 
 3365              		.loc 1 1335 36 view .LVU1189
 3366 07a8 51EC180B 		vmov	r0, r1, d8
 3367 07ac 3246     		mov	r2, r6
 3368 07ae 3B46     		mov	r3, r7
 3369 07b0 FFF7FEFF 		bl	__aeabi_dcmplt
 3370              	.LVL258:
 3371 07b4 0028     		cmp	r0, #0
 3372 07b6 01F05280 		beq	.L397
1335:HANcoder_E407_TTA_CombineModel.c **** 
 3373              		.loc 1 1335 36 discriminator 1 view .LVU1190
 3374 07ba 4046     		mov	r0, r8
 3375 07bc 4946     		mov	r1, r9
 3376 07be 0022     		movs	r2, #0
 3377 07c0 0023     		movs	r3, #0
 3378 07c2 FFF7FEFF 		bl	__aeabi_dcmpgt
 3379              	.LVL259:
 3380 07c6 0028     		cmp	r0, #0
 3381 07c8 01F0D080 		beq	.L440
1338:HANcoder_E407_TTA_CombineModel.c **** 
 3382              		.loc 1 1338 9 view .LVU1191
 3383 07cc 274B     		ldr	r3, .L463+92
 3384 07ce 4FF00008 		mov	r8, #0
 3385 07d2 83F80080 		strb	r8, [r3]
1335:HANcoder_E407_TTA_CombineModel.c **** 
 3386              		.loc 1 1335 21 view .LVU1192
 3387 07d6 0123     		movs	r3, #1
 3388 07d8 84F85231 		strb	r3, [r4, #338]
1338:HANcoder_E407_TTA_CombineModel.c **** 
 3389              		.loc 1 1338 5 is_stmt 1 view .LVU1193
1343:HANcoder_E407_TTA_CombineModel.c **** 
 3390              		.loc 1 1343 5 view .LVU1194
 3391              	.L118:
1343:HANcoder_E407_TTA_CombineModel.c **** 
 3392              		.loc 1 1343 22 is_stmt 0 discriminator 6 view .LVU1195
 3393 07dc 84F85381 		strb	r8, [r4, #339]
1346:HANcoder_E407_TTA_CombineModel.c ****       rtb_Uk1 -= 300.0;
 3394              		.loc 1 1346 5 is_stmt 1 discriminator 6 view .LVU1196
1346:HANcoder_E407_TTA_CombineModel.c ****       rtb_Uk1 -= 300.0;
 3395              		.loc 1 1346 8 is_stmt 0 discriminator 6 view .LVU1197
 3396 07e0 59EC198B 		vmov	r8, r9, d9
 3397 07e4 0CA3     		adr	r3, .L463+8
 3398 07e6 D3E90023 		ldrd	r2, [r3]
 3399 07ea 19EE100A 		vmov	r0, s18	@ int
 3400 07ee 4946     		mov	r1, r9
 3401 07f0 FFF7FEFF 		bl	__aeabi_dcmpgt
 3402              	.LVL260:
 3403 07f4 0028     		cmp	r0, #0
 3404 07f6 01F01E80 		beq	.L399
 3405              	.LVL261:
1347:HANcoder_E407_TTA_CombineModel.c ****     } else if (rtb_Uk1 >= 0.0) {
 3406              		.loc 1 1347 7 is_stmt 1 view .LVU1198
1347:HANcoder_E407_TTA_CombineModel.c ****     } else if (rtb_Uk1 >= 0.0) {
 3407              		.loc 1 1347 15 is_stmt 0 view .LVU1199
 3408 07fa 19EE100A 		vmov	r0, s18	@ int
 3409 07fe 06A3     		adr	r3, .L463+8
 3410 0800 D3E90023 		ldrd	r2, [r3]
 3411 0804 4946     		mov	r1, r9
 3412 0806 FFF7FEFF 		bl	__aeabi_dsub
 3413              	.LVL262:
 3414 080a 41EC190B 		vmov	d9, r0, r1
 3415 080e 33E0     		b	.L464
 3416              	.L465:
 3417              		.align	3
 3418              	.L463:
 3419 0810 00008099 		.word	-1719664640
 3420 0814 9999B93F 		.word	1069128089
 3421 0818 00000000 		.word	0
 3422 081c 00C07240 		.word	1081262080
 3423 0820 00000000 		.word	.LANCHOR10
 3424 0824 00000000 		.word	rtConstB
 3425 0828 0000D03F 		.word	1070596096
 3426 082c 00000000 		.word	.LANCHOR11
 3427 0830 00000000 		.word	.LANCHOR12
 3428 0834 00000000 		.word	.LANCHOR13
 3429 0838 00001040 		.word	1074790400
 3430 083c 0000E03F 		.word	1071644672
 3431 0840 00000000 		.word	.LANCHOR14
 3432 0844 00000840 		.word	1074266112
 3433 0848 66663642 		.word	1110861414
 3434 084c 00000000 		.word	.LANCHOR15
 3435 0850 00000000 		.word	.LANCHOR16
 3436 0854 00000000 		.word	.LANCHOR17
 3437 0858 00000000 		.word	.LANCHOR18
 3438 085c 00000000 		.word	.LANCHOR19
 3439 0860 00000000 		.word	.LANCHOR21
 3440 0864 00000000 		.word	.LANCHOR20
 3441 0868 00000000 		.word	.LANCHOR22
 3442 086c 00000000 		.word	.LANCHOR23
 3443 0870 00000000 		.word	.LANCHOR5
 3444 0874 0000F03F 		.word	1072693248
 3445              	.L464:
 3446              	.LVL263:
 3447              	.L122:
1357:HANcoder_E407_TTA_CombineModel.c **** 
 3448              		.loc 1 1357 5 is_stmt 1 view .LVU1200
1357:HANcoder_E407_TTA_CombineModel.c **** 
 3449              		.loc 1 1357 22 is_stmt 0 view .LVU1201
 3450 0878 CF4B     		ldr	r3, .L466
 3451 087a 3046     		mov	r0, r6
 3452 087c D3E90023 		ldrd	r2, [r3]
 3453 0880 3946     		mov	r1, r7
 3454 0882 FFF7FEFF 		bl	__aeabi_dmul
 3455              	.LVL264:
1365:HANcoder_E407_TTA_CombineModel.c ****       rtPrevAction = 1;
 3456              		.loc 1 1365 8 view .LVU1202
 3457 0886 0022     		movs	r2, #0
 3458 0888 0023     		movs	r3, #0
1357:HANcoder_E407_TTA_CombineModel.c **** 
 3459              		.loc 1 1357 22 view .LVU1203
 3460 088a 0646     		mov	r6, r0
 3461              	.LVL265:
1357:HANcoder_E407_TTA_CombineModel.c **** 
 3462              		.loc 1 1357 22 view .LVU1204
 3463 088c 0F46     		mov	r7, r1
 3464              	.LVL266:
1365:HANcoder_E407_TTA_CombineModel.c ****       rtPrevAction = 1;
 3465              		.loc 1 1365 5 is_stmt 1 view .LVU1205
1365:HANcoder_E407_TTA_CombineModel.c ****       rtPrevAction = 1;
 3466              		.loc 1 1365 8 is_stmt 0 view .LVU1206
 3467 088e 51EC190B 		vmov	r0, r1, d9
 3468 0892 FFF7FEFF 		bl	__aeabi_dcmpgt
 3469              	.LVL267:
1377:HANcoder_E407_TTA_CombineModel.c ****       rtAction = 1;
 3470              		.loc 1 1377 8 view .LVU1207
 3471 0896 0022     		movs	r2, #0
 3472 0898 0023     		movs	r3, #0
1365:HANcoder_E407_TTA_CombineModel.c ****       rtPrevAction = 1;
 3473              		.loc 1 1365 8 view .LVU1208
 3474 089a 0028     		cmp	r0, #0
 3475 089c 01F0B480 		beq	.L441
 3476              	.LVL268:
1377:HANcoder_E407_TTA_CombineModel.c ****       rtAction = 1;
 3477              		.loc 1 1377 5 is_stmt 1 view .LVU1209
1377:HANcoder_E407_TTA_CombineModel.c ****       rtAction = 1;
 3478              		.loc 1 1377 8 is_stmt 0 view .LVU1210
 3479 08a0 3046     		mov	r0, r6
 3480 08a2 3946     		mov	r1, r7
 3481 08a4 FFF7FEFF 		bl	__aeabi_dcmpgt
 3482              	.LVL269:
 3483 08a8 0028     		cmp	r0, #0
 3484 08aa 41F0BD80 		bne	.L410
 3485              	.LVL270:
 3486              	.L125:
1399:HANcoder_E407_TTA_CombineModel.c ****     if (rtDWork.Integrator_DSTATE >= 100.0) {
 3487              		.loc 1 1399 5 is_stmt 1 view .LVU1211
1399:HANcoder_E407_TTA_CombineModel.c ****     if (rtDWork.Integrator_DSTATE >= 100.0) {
 3488              		.loc 1 1399 31 is_stmt 0 view .LVU1212
 3489 08ae 3246     		mov	r2, r6
 3490 08b0 3B46     		mov	r3, r7
 3491 08b2 51EC1A0B 		vmov	r0, r1, d10
 3492 08b6 FFF7FEFF 		bl	__aeabi_dadd
 3493              	.LVL271:
1400:HANcoder_E407_TTA_CombineModel.c ****       rtDWork.Integrator_DSTATE = 100.0;
 3494              		.loc 1 1400 8 view .LVU1213
 3495 08ba DFF84C93 		ldr	r9, .L466+80
 3496 08be 4FF00008 		mov	r8, #0
 3497 08c2 4246     		mov	r2, r8
 3498 08c4 4B46     		mov	r3, r9
1399:HANcoder_E407_TTA_CombineModel.c ****     if (rtDWork.Integrator_DSTATE >= 100.0) {
 3499              		.loc 1 1399 31 view .LVU1214
 3500 08c6 0646     		mov	r6, r0
 3501              	.LVL272:
1399:HANcoder_E407_TTA_CombineModel.c ****     if (rtDWork.Integrator_DSTATE >= 100.0) {
 3502              		.loc 1 1399 31 view .LVU1215
 3503 08c8 0F46     		mov	r7, r1
1400:HANcoder_E407_TTA_CombineModel.c ****       rtDWork.Integrator_DSTATE = 100.0;
 3504              		.loc 1 1400 5 is_stmt 1 view .LVU1216
1400:HANcoder_E407_TTA_CombineModel.c ****       rtDWork.Integrator_DSTATE = 100.0;
 3505              		.loc 1 1400 8 is_stmt 0 view .LVU1217
 3506 08ca FFF7FEFF 		bl	__aeabi_dcmpge
 3507              	.LVL273:
 3508 08ce 0028     		cmp	r0, #0
 3509 08d0 40F04C87 		bne	.L420
1402:HANcoder_E407_TTA_CombineModel.c ****       rtDWork.Integrator_DSTATE = 0.0;
 3510              		.loc 1 1402 12 is_stmt 1 view .LVU1218
1402:HANcoder_E407_TTA_CombineModel.c ****       rtDWork.Integrator_DSTATE = 0.0;
 3511              		.loc 1 1402 15 is_stmt 0 view .LVU1219
 3512 08d4 4FF00008 		mov	r8, #0
 3513 08d8 4FF00009 		mov	r9, #0
 3514 08dc 3046     		mov	r0, r6
 3515 08de 3946     		mov	r1, r7
 3516 08e0 4246     		mov	r2, r8
 3517 08e2 4B46     		mov	r3, r9
 3518 08e4 FFF7FEFF 		bl	__aeabi_dcmple
 3519              	.LVL274:
 3520 08e8 0028     		cmp	r0, #0
 3521 08ea 40F03F87 		bne	.L420
1399:HANcoder_E407_TTA_CombineModel.c ****     if (rtDWork.Integrator_DSTATE >= 100.0) {
 3522              		.loc 1 1399 31 view .LVU1220
 3523 08ee C4E91E67 		strd	r6, [r4, #120]
 3524              	.LVL275:
 3525              	.L128:
1409:HANcoder_E407_TTA_CombineModel.c **** 
 3526              		.loc 1 1409 3 is_stmt 1 view .LVU1221
1416:HANcoder_E407_TTA_CombineModel.c ****     IOexecution_ELAPS_T_tmp = rtM->Timing.clockTick0;
 3527              		.loc 1 1416 35 is_stmt 0 view .LVU1222
 3528 08f2 9BF80B30 		ldrb	r3, [fp, #11]	@ zero_extendqisi2
1409:HANcoder_E407_TTA_CombineModel.c **** 
 3529              		.loc 1 1409 46 view .LVU1223
 3530 08f6 0122     		movs	r2, #1
1416:HANcoder_E407_TTA_CombineModel.c ****     IOexecution_ELAPS_T_tmp = rtM->Timing.clockTick0;
 3531              		.loc 1 1416 15 view .LVU1224
 3532 08f8 9342     		cmp	r3, r2
1409:HANcoder_E407_TTA_CombineModel.c **** 
 3533              		.loc 1 1409 46 view .LVU1225
 3534 08fa 8BF80C20 		strb	r2, [fp, #12]
1416:HANcoder_E407_TTA_CombineModel.c ****     IOexecution_ELAPS_T_tmp = rtM->Timing.clockTick0;
 3535              		.loc 1 1416 3 is_stmt 1 view .LVU1226
1416:HANcoder_E407_TTA_CombineModel.c ****     IOexecution_ELAPS_T_tmp = rtM->Timing.clockTick0;
 3536              		.loc 1 1416 15 is_stmt 0 view .LVU1227
 3537 08fe 3FF4D1AB 		beq	.L412
 3538              	.L266:
1417:HANcoder_E407_TTA_CombineModel.c ****     IOexecution_ELAPS_T[0] = IOexecution_ELAPS_T_tmp -
 3539              		.loc 1 1417 5 is_stmt 1 view .LVU1228
1417:HANcoder_E407_TTA_CombineModel.c ****     IOexecution_ELAPS_T[0] = IOexecution_ELAPS_T_tmp -
 3540              		.loc 1 1417 29 is_stmt 0 view .LVU1229
 3541 0902 DFF80883 		ldr	r8, .L466+84
1418:HANcoder_E407_TTA_CombineModel.c ****       rtDWork.IOexecution_PREV_T[0];
 3542              		.loc 1 1418 54 view .LVU1230
 3543 0906 D4F8C030 		ldr	r3, [r4, #192]
1417:HANcoder_E407_TTA_CombineModel.c ****     IOexecution_ELAPS_T[0] = IOexecution_ELAPS_T_tmp -
 3544              		.loc 1 1417 29 view .LVU1231
 3545 090a D8F80020 		ldr	r2, [r8]
 3546              	.LVL276:
1418:HANcoder_E407_TTA_CombineModel.c ****       rtDWork.IOexecution_PREV_T[0];
 3547              		.loc 1 1418 5 is_stmt 1 view .LVU1232
1424:HANcoder_E407_TTA_CombineModel.c **** 
 3548              		.loc 1 1424 9 is_stmt 0 view .LVU1233
 3549 090e AB49     		ldr	r1, .L466+4
1420:HANcoder_E407_TTA_CombineModel.c ****     rtDWork.IOexecution_PREV_T[1] = rtM->Timing.clockTickH0;
 3550              		.loc 1 1420 35 view .LVU1234
 3551 0910 C4F8C020 		str	r2, [r4, #192]
1418:HANcoder_E407_TTA_CombineModel.c ****       rtDWork.IOexecution_PREV_T[0];
 3552              		.loc 1 1418 54 view .LVU1235
 3553 0914 D21A     		subs	r2, r2, r3
 3554              	.LVL277:
1420:HANcoder_E407_TTA_CombineModel.c ****     rtDWork.IOexecution_PREV_T[1] = rtM->Timing.clockTickH0;
 3555              		.loc 1 1420 5 is_stmt 1 view .LVU1236
1421:HANcoder_E407_TTA_CombineModel.c **** 
 3556              		.loc 1 1421 5 view .LVU1237
1424:HANcoder_E407_TTA_CombineModel.c **** 
 3557              		.loc 1 1424 31 is_stmt 0 view .LVU1238
 3558 0916 94F8E430 		ldrb	r3, [r4, #228]	@ zero_extendqisi2
1427:HANcoder_E407_TTA_CombineModel.c **** 
 3559              		.loc 1 1427 9 view .LVU1239
 3560 091a A948     		ldr	r0, .L466+8
1424:HANcoder_E407_TTA_CombineModel.c **** 
 3561              		.loc 1 1424 9 view .LVU1240
 3562 091c 0B70     		strb	r3, [r1]
1421:HANcoder_E407_TTA_CombineModel.c **** 
 3563              		.loc 1 1421 35 view .LVU1241
 3564 091e D8F80410 		ldr	r1, [r8, #4]
1430:HANcoder_E407_TTA_CombineModel.c **** 
 3565              		.loc 1 1430 9 view .LVU1242
 3566 0922 A84E     		ldr	r6, .L466+12
1421:HANcoder_E407_TTA_CombineModel.c **** 
 3567              		.loc 1 1421 35 view .LVU1243
 3568 0924 C4F8C410 		str	r1, [r4, #196]
1424:HANcoder_E407_TTA_CombineModel.c **** 
 3569              		.loc 1 1424 5 is_stmt 1 view .LVU1244
1427:HANcoder_E407_TTA_CombineModel.c **** 
 3570              		.loc 1 1427 5 view .LVU1245
1427:HANcoder_E407_TTA_CombineModel.c **** 
 3571              		.loc 1 1427 32 is_stmt 0 view .LVU1246
 3572 0928 94F8E610 		ldrb	r1, [r4, #230]	@ zero_extendqisi2
1433:HANcoder_E407_TTA_CombineModel.c **** 
 3573              		.loc 1 1433 9 view .LVU1247
 3574 092c A64F     		ldr	r7, .L466+16
1427:HANcoder_E407_TTA_CombineModel.c **** 
 3575              		.loc 1 1427 9 view .LVU1248
 3576 092e 0170     		strb	r1, [r0]
1430:HANcoder_E407_TTA_CombineModel.c **** 
 3577              		.loc 1 1430 5 is_stmt 1 view .LVU1249
1430:HANcoder_E407_TTA_CombineModel.c **** 
 3578              		.loc 1 1430 32 is_stmt 0 view .LVU1250
 3579 0930 94F8EF00 		ldrb	r0, [r4, #239]	@ zero_extendqisi2
1436:HANcoder_E407_TTA_CombineModel.c **** 
 3580              		.loc 1 1436 9 view .LVU1251
 3581 0934 DFF8D8C2 		ldr	ip, .L466+88
1430:HANcoder_E407_TTA_CombineModel.c **** 
 3582              		.loc 1 1430 9 view .LVU1252
 3583 0938 3070     		strb	r0, [r6]
1433:HANcoder_E407_TTA_CombineModel.c **** 
 3584              		.loc 1 1433 5 is_stmt 1 view .LVU1253
1433:HANcoder_E407_TTA_CombineModel.c **** 
 3585              		.loc 1 1433 32 is_stmt 0 view .LVU1254
 3586 093a 94F8FF60 		ldrb	r6, [r4, #255]	@ zero_extendqisi2
1433:HANcoder_E407_TTA_CombineModel.c **** 
 3587              		.loc 1 1433 9 view .LVU1255
 3588 093e 3E70     		strb	r6, [r7]
1436:HANcoder_E407_TTA_CombineModel.c **** 
 3589              		.loc 1 1436 5 is_stmt 1 view .LVU1256
1436:HANcoder_E407_TTA_CombineModel.c **** 
 3590              		.loc 1 1436 32 is_stmt 0 view .LVU1257
 3591 0940 94F81871 		ldrb	r7, [r4, #280]	@ zero_extendqisi2
1436:HANcoder_E407_TTA_CombineModel.c **** 
 3592              		.loc 1 1436 9 view .LVU1258
 3593 0944 8CF80070 		strb	r7, [ip]
1441:HANcoder_E407_TTA_CombineModel.c **** 
 3594              		.loc 1 1441 5 is_stmt 1 view .LVU1259
1441:HANcoder_E407_TTA_CombineModel.c **** 
 3595              		.loc 1 1441 45 is_stmt 0 view .LVU1260
 3596 0948 63B1     		cbz	r3, .L131
1441:HANcoder_E407_TTA_CombineModel.c **** 
 3597              		.loc 1 1441 24 discriminator 1 view .LVU1261
 3598 094a 0029     		cmp	r1, #0
 3599 094c 01F00B80 		beq	.L292
1441:HANcoder_E407_TTA_CombineModel.c **** 
 3600              		.loc 1 1441 31 discriminator 3 view .LVU1262
 3601 0950 0028     		cmp	r0, #0
 3602 0952 01F09680 		beq	.L293
1441:HANcoder_E407_TTA_CombineModel.c **** 
 3603              		.loc 1 1441 38 discriminator 5 view .LVU1263
 3604 0956 002E     		cmp	r6, #0
 3605 0958 01F0B580 		beq	.L294
1441:HANcoder_E407_TTA_CombineModel.c **** 
 3606              		.loc 1 1441 45 discriminator 7 view .LVU1264
 3607 095c 002F     		cmp	r7, #0
 3608 095e 0CBF     		ite	eq
 3609 0960 0023     		moveq	r3, #0
 3610 0962 0423     		movne	r3, #4
 3611              	.L131:
1446:HANcoder_E407_TTA_CombineModel.c ****       << 1) + rtDWork.Memory_PreviousInput_d1];
 3612              		.loc 1 1446 5 is_stmt 1 discriminator 12 view .LVU1265
1446:HANcoder_E407_TTA_CombineModel.c ****       << 1) + rtDWork.Memory_PreviousInput_d1];
 3613              		.loc 1 1446 23 is_stmt 0 discriminator 12 view .LVU1266
 3614 0964 9949     		ldr	r1, .L466+20
1447:HANcoder_E407_TTA_CombineModel.c **** 
 3615              		.loc 1 1447 22 discriminator 12 view .LVU1267
 3616 0966 94F85F01 		ldrb	r0, [r4, #351]	@ zero_extendqisi2
1446:HANcoder_E407_TTA_CombineModel.c ****       << 1) + rtDWork.Memory_PreviousInput_d1];
 3617              		.loc 1 1446 23 discriminator 12 view .LVU1268
 3618 096a 0B44     		add	r3, r3, r1
 3619 096c 1B5C     		ldrb	r3, [r3, r0]	@ zero_extendqisi2
 3620 096e 0D93     		str	r3, [sp, #52]
 3621              	.LVL278:
1454:HANcoder_E407_TTA_CombineModel.c **** 
 3622              		.loc 1 1454 5 is_stmt 1 discriminator 12 view .LVU1269
1457:HANcoder_E407_TTA_CombineModel.c **** 
 3623              		.loc 1 1457 5 discriminator 12 view .LVU1270
1457:HANcoder_E407_TTA_CombineModel.c **** 
 3624              		.loc 1 1457 45 is_stmt 0 discriminator 12 view .LVU1271
 3625 0970 002B     		cmp	r3, #0
 3626 0972 40F0F384 		bne	.L442
 3627 0976 DDF834A0 		ldr	r10, [sp, #52]
 3628              	.L132:
1457:HANcoder_E407_TTA_CombineModel.c **** 
 3629              		.loc 1 1457 24 discriminator 6 view .LVU1272
 3630 097a 954B     		ldr	r3, .L466+24
 3631              	.LVL279:
1463:HANcoder_E407_TTA_CombineModel.c **** 
 3632              		.loc 1 1463 21 discriminator 6 view .LVU1273
 3633 097c B4F8DA60 		ldrh	r6, [r4, #218]
1457:HANcoder_E407_TTA_CombineModel.c **** 
 3634              		.loc 1 1457 24 discriminator 6 view .LVU1274
 3635 0980 83F800A0 		strb	r10, [r3]
1460:HANcoder_E407_TTA_CombineModel.c **** 
 3636              		.loc 1 1460 5 is_stmt 1 discriminator 6 view .LVU1275
1463:HANcoder_E407_TTA_CombineModel.c **** 
 3637              		.loc 1 1463 5 discriminator 6 view .LVU1276
1463:HANcoder_E407_TTA_CombineModel.c **** 
 3638              		.loc 1 1463 12 is_stmt 0 discriminator 6 view .LVU1277
 3639 0984 934B     		ldr	r3, .L466+28
1466:HANcoder_E407_TTA_CombineModel.c **** 
 3640              		.loc 1 1466 22 discriminator 6 view .LVU1278
 3641 0986 B4F8D800 		ldrh	r0, [r4, #216]
1463:HANcoder_E407_TTA_CombineModel.c **** 
 3642              		.loc 1 1463 12 discriminator 6 view .LVU1279
 3643 098a 1E80     		strh	r6, [r3]	@ movhi
1466:HANcoder_E407_TTA_CombineModel.c **** 
 3644              		.loc 1 1466 5 is_stmt 1 discriminator 6 view .LVU1280
1466:HANcoder_E407_TTA_CombineModel.c **** 
 3645              		.loc 1 1466 13 is_stmt 0 discriminator 6 view .LVU1281
 3646 098c 924B     		ldr	r3, .L466+32
1460:HANcoder_E407_TTA_CombineModel.c **** 
 3647              		.loc 1 1460 25 discriminator 6 view .LVU1282
 3648 098e 84F856A1 		strb	r10, [r4, #342]
1466:HANcoder_E407_TTA_CombineModel.c **** 
 3649              		.loc 1 1466 13 discriminator 6 view .LVU1283
 3650 0992 1880     		strh	r0, [r3]	@ movhi
1472:HANcoder_E407_TTA_CombineModel.c **** 
 3651              		.loc 1 1472 5 is_stmt 1 discriminator 6 view .LVU1284
1472:HANcoder_E407_TTA_CombineModel.c **** 
 3652              		.loc 1 1472 35 is_stmt 0 discriminator 6 view .LVU1285
 3653 0994 331A     		subs	r3, r6, r0
1472:HANcoder_E407_TTA_CombineModel.c **** 
 3654              		.loc 1 1472 7 discriminator 6 view .LVU1286
 3655 0996 1BB2     		sxth	r3, r3
 3656              	.LVL280:
1475:HANcoder_E407_TTA_CombineModel.c ****       u = (int16_T)-u;
 3657              		.loc 1 1475 5 is_stmt 1 discriminator 6 view .LVU1287
1475:HANcoder_E407_TTA_CombineModel.c ****       u = (int16_T)-u;
 3658              		.loc 1 1475 8 is_stmt 0 discriminator 6 view .LVU1288
 3659 0998 002B     		cmp	r3, #0
1476:HANcoder_E407_TTA_CombineModel.c ****     }
 3660              		.loc 1 1476 7 is_stmt 1 discriminator 6 view .LVU1289
1476:HANcoder_E407_TTA_CombineModel.c ****     }
 3661              		.loc 1 1476 11 is_stmt 0 discriminator 6 view .LVU1290
 3662 099a BCBF     		itt	lt
 3663 099c 831B     		sublt	r3, r0, r6
 3664              	.LVL281:
1476:HANcoder_E407_TTA_CombineModel.c ****     }
 3665              		.loc 1 1476 9 discriminator 6 view .LVU1291
 3666 099e 1BB2     		sxthlt	r3, r3
 3667              	.LVL282:
1486:HANcoder_E407_TTA_CombineModel.c **** 
 3668              		.loc 1 1486 5 is_stmt 1 discriminator 6 view .LVU1292
1486:HANcoder_E407_TTA_CombineModel.c **** 
 3669              		.loc 1 1486 30 is_stmt 0 discriminator 6 view .LVU1293
 3670 09a0 B3F5FA7F 		cmp	r3, #500
1463:HANcoder_E407_TTA_CombineModel.c **** 
 3671              		.loc 1 1463 21 discriminator 6 view .LVU1294
 3672 09a4 0A96     		str	r6, [sp, #40]
1486:HANcoder_E407_TTA_CombineModel.c **** 
 3673              		.loc 1 1486 30 discriminator 6 view .LVU1295
 3674 09a6 40F31E87 		ble	.L297
1486:HANcoder_E407_TTA_CombineModel.c **** 
 3675              		.loc 1 1486 30 discriminator 1 view .LVU1296
 3676 09aa 94F83B31 		ldrb	r3, [r4, #315]	@ zero_extendqisi2
 3677              	.LVL283:
1486:HANcoder_E407_TTA_CombineModel.c **** 
 3678              		.loc 1 1486 30 discriminator 1 view .LVU1297
 3679 09ae 002B     		cmp	r3, #0
 3680 09b0 0CBF     		ite	eq
 3681 09b2 0023     		moveq	r3, #0
 3682 09b4 0423     		movne	r3, #4
 3683              	.L134:
1491:HANcoder_E407_TTA_CombineModel.c ****       << 1) + rtDWork.Memory_PreviousInput_a];
 3684              		.loc 1 1491 5 is_stmt 1 discriminator 6 view .LVU1298
1491:HANcoder_E407_TTA_CombineModel.c ****       << 1) + rtDWork.Memory_PreviousInput_a];
 3685              		.loc 1 1491 23 is_stmt 0 discriminator 6 view .LVU1299
 3686 09b6 1944     		add	r1, r1, r3
1492:HANcoder_E407_TTA_CombineModel.c **** 
 3687              		.loc 1 1492 22 discriminator 6 view .LVU1300
 3688 09b8 94F86031 		ldrb	r3, [r4, #352]	@ zero_extendqisi2
1491:HANcoder_E407_TTA_CombineModel.c ****       << 1) + rtDWork.Memory_PreviousInput_a];
 3689              		.loc 1 1491 23 discriminator 6 view .LVU1301
 3690 09bc CB5C     		ldrb	r3, [r1, r3]	@ zero_extendqisi2
 3691 09be 0F93     		str	r3, [sp, #60]
 3692              	.LVL284:
1495:HANcoder_E407_TTA_CombineModel.c **** 
 3693              		.loc 1 1495 5 is_stmt 1 discriminator 6 view .LVU1302
1495:HANcoder_E407_TTA_CombineModel.c **** 
 3694              		.loc 1 1495 22 is_stmt 0 discriminator 6 view .LVU1303
 3695 09c0 84F85731 		strb	r3, [r4, #343]
1500:HANcoder_E407_TTA_CombineModel.c **** 
 3696              		.loc 1 1500 5 is_stmt 1 discriminator 6 view .LVU1304
1510:HANcoder_E407_TTA_CombineModel.c ****                  (rtDWork.pwmMotor > ((uint16_T)650U)));
 3697              		.loc 1 1510 54 is_stmt 0 discriminator 6 view .LVU1305
 3698 09c4 D4F8BC30 		ldr	r3, [r4, #188]
 3699              	.LVL285:
1510:HANcoder_E407_TTA_CombineModel.c ****                  (rtDWork.pwmMotor > ((uint16_T)650U)));
 3700              		.loc 1 1510 54 discriminator 6 view .LVU1306
 3701 09c8 0E93     		str	r3, [sp, #56]
 3702 09ca 1846     		mov	r0, r3
 3703              	.LVL286:
1510:HANcoder_E407_TTA_CombineModel.c ****                  (rtDWork.pwmMotor > ((uint16_T)650U)));
 3704              		.loc 1 1510 72 discriminator 6 view .LVU1307
 3705 09cc D4F8A030 		ldr	r3, [r4, #160]
1500:HANcoder_E407_TTA_CombineModel.c **** 
 3706              		.loc 1 1500 22 discriminator 6 view .LVU1308
 3707 09d0 B4F8C810 		ldrh	r1, [r4, #200]
 3708 09d4 A4F8D810 		strh	r1, [r4, #216]	@ movhi
 3709              	.LVL287:
1510:HANcoder_E407_TTA_CombineModel.c ****                  (rtDWork.pwmMotor > ((uint16_T)650U)));
 3710              		.loc 1 1510 5 is_stmt 1 discriminator 6 view .LVU1309
1510:HANcoder_E407_TTA_CombineModel.c ****                  (rtDWork.pwmMotor > ((uint16_T)650U)));
 3711              		.loc 1 1510 72 is_stmt 0 discriminator 6 view .LVU1310
 3712 09d8 8342     		cmp	r3, r0
 3713 09da 00F05987 		beq	.L443
 3714 09de 0023     		movs	r3, #0
 3715 09e0 0793     		str	r3, [sp, #28]
 3716              	.L135:
1518:HANcoder_E407_TTA_CombineModel.c **** 
 3717              		.loc 1 1518 5 is_stmt 1 discriminator 6 view .LVU1311
1518:HANcoder_E407_TTA_CombineModel.c **** 
 3718              		.loc 1 1518 35 is_stmt 0 discriminator 6 view .LVU1312
 3719 09e2 0A98     		ldr	r0, [sp, #40]
1531:HANcoder_E407_TTA_CombineModel.c **** 
 3720              		.loc 1 1531 18 discriminator 6 view .LVU1313
 3721 09e4 B4F8CC30 		ldrh	r3, [r4, #204]
1518:HANcoder_E407_TTA_CombineModel.c **** 
 3722              		.loc 1 1518 35 discriminator 6 view .LVU1314
 3723 09e8 4FF47A71 		mov	r1, #1000
 3724 09ec 00FB01F1 		mul	r1, r0, r1
1518:HANcoder_E407_TTA_CombineModel.c **** 
 3725              		.loc 1 1518 43 discriminator 6 view .LVU1315
 3726 09f0 B1FBF2F2 		udiv	r2, r1, r2
 3727              	.LVL288:
1518:HANcoder_E407_TTA_CombineModel.c **** 
 3728              		.loc 1 1518 15 discriminator 6 view .LVU1316
 3729 09f4 92B2     		uxth	r2, r2
1531:HANcoder_E407_TTA_CombineModel.c **** 
 3730              		.loc 1 1531 18 discriminator 6 view .LVU1317
 3731 09f6 D31A     		subs	r3, r2, r3
 3732 09f8 9BB2     		uxth	r3, r3
 3733 09fa 08EE103A 		vmov	s16, r3	@ int
1518:HANcoder_E407_TTA_CombineModel.c **** 
 3734              		.loc 1 1518 15 discriminator 6 view .LVU1318
 3735 09fe 1092     		str	r2, [sp, #64]
 3736              	.LVL289:
1531:HANcoder_E407_TTA_CombineModel.c **** 
 3737              		.loc 1 1531 5 is_stmt 1 discriminator 6 view .LVU1319
1531:HANcoder_E407_TTA_CombineModel.c **** 
 3738              		.loc 1 1531 16 is_stmt 0 discriminator 6 view .LVU1320
 3739 0a00 764B     		ldr	r3, .L466+36
 3740 0a02 18EE102A 		vmov	r2, s16	@ int
 3741              	.LVL290:
1531:HANcoder_E407_TTA_CombineModel.c **** 
 3742              		.loc 1 1531 16 discriminator 6 view .LVU1321
 3743 0a06 1A80     		strh	r2, [r3]	@ movhi
1534:HANcoder_E407_TTA_CombineModel.c **** 
 3744              		.loc 1 1534 5 is_stmt 1 discriminator 6 view .LVU1322
1537:HANcoder_E407_TTA_CombineModel.c ****       rtDWork.obj.TunablePropsChanged = false;
 3745              		.loc 1 1537 8 is_stmt 0 discriminator 6 view .LVU1323
 3746 0a08 637A     		ldrb	r3, [r4, #9]	@ zero_extendqisi2
1534:HANcoder_E407_TTA_CombineModel.c **** 
 3747              		.loc 1 1534 25 discriminator 6 view .LVU1324
 3748 0a0a 94F85C21 		ldrb	r2, [r4, #348]	@ zero_extendqisi2
 3749 0a0e 1192     		str	r2, [sp, #68]
 3750              	.LVL291:
1537:HANcoder_E407_TTA_CombineModel.c ****       rtDWork.obj.TunablePropsChanged = false;
 3751              		.loc 1 1537 5 is_stmt 1 discriminator 6 view .LVU1325
1537:HANcoder_E407_TTA_CombineModel.c ****       rtDWork.obj.TunablePropsChanged = false;
 3752              		.loc 1 1537 8 is_stmt 0 discriminator 6 view .LVU1326
 3753 0a10 0BB1     		cbz	r3, .L136
1538:HANcoder_E407_TTA_CombineModel.c ****     }
 3754              		.loc 1 1538 7 is_stmt 1 view .LVU1327
1538:HANcoder_E407_TTA_CombineModel.c ****     }
 3755              		.loc 1 1538 39 is_stmt 0 view .LVU1328
 3756 0a12 0023     		movs	r3, #0
 3757 0a14 6372     		strb	r3, [r4, #9]
 3758              	.L136:
1541:HANcoder_E407_TTA_CombineModel.c ****     if (obj->isInitialized != 1) {
 3759              		.loc 1 1541 5 is_stmt 1 view .LVU1329
1541:HANcoder_E407_TTA_CombineModel.c ****     if (obj->isInitialized != 1) {
 3760              		.loc 1 1541 9 is_stmt 0 view .LVU1330
 3761 0a16 D4F82C90 		ldr	r9, [r4, #44]
 3762              	.LVL292:
1542:HANcoder_E407_TTA_CombineModel.c ****       obj->isSetupComplete = false;
 3763              		.loc 1 1542 5 is_stmt 1 view .LVU1331
1542:HANcoder_E407_TTA_CombineModel.c ****       obj->isSetupComplete = false;
 3764              		.loc 1 1542 8 is_stmt 0 view .LVU1332
 3765 0a1a D9F80030 		ldr	r3, [r9]
 3766 0a1e 012B     		cmp	r3, #1
 3767 0a20 00F06E86 		beq	.L137
1543:HANcoder_E407_TTA_CombineModel.c ****       obj->isInitialized = 1;
 3768              		.loc 1 1543 7 is_stmt 1 view .LVU1333
1544:HANcoder_E407_TTA_CombineModel.c ****       obj->pCumSum = 0.0F;
 3769              		.loc 1 1544 7 view .LVU1334
1545:HANcoder_E407_TTA_CombineModel.c ****       for (i = 0; i < 9; i++) {
 3770              		.loc 1 1545 20 is_stmt 0 view .LVU1335
 3771 0a24 0023     		movs	r3, #0
 3772 0a26 C9F80830 		str	r3, [r9, #8]	@ float
 3773              	.LVL293:
1551:HANcoder_E407_TTA_CombineModel.c ****       obj->isSetupComplete = true;
 3774              		.loc 1 1551 25 view .LVU1336
 3775 0a2a C9F83430 		str	r3, [r9, #52]	@ float
1544:HANcoder_E407_TTA_CombineModel.c ****       obj->pCumSum = 0.0F;
 3776              		.loc 1 1544 26 view .LVU1337
 3777 0a2e 0123     		movs	r3, #1
 3778 0a30 C9F80030 		str	r3, [r9]
1545:HANcoder_E407_TTA_CombineModel.c ****       for (i = 0; i < 9; i++) {
 3779              		.loc 1 1545 7 is_stmt 1 view .LVU1338
1546:HANcoder_E407_TTA_CombineModel.c ****         obj->pCumSumRev[i] = 0.0F;
 3780              		.loc 1 1546 7 view .LVU1339
 3781              	.LVL294:
1546:HANcoder_E407_TTA_CombineModel.c ****         obj->pCumSumRev[i] = 0.0F;
 3782              		.loc 1 1546 19 view .LVU1340
1550:HANcoder_E407_TTA_CombineModel.c ****       obj->pModValueRev = 0.0F;
 3783              		.loc 1 1550 7 view .LVU1341
1552:HANcoder_E407_TTA_CombineModel.c ****       obj->pCumSum = 0.0F;
 3784              		.loc 1 1552 28 is_stmt 0 view .LVU1342
 3785 0a34 89F80430 		strb	r3, [r9, #4]
 3786              	.LVL295:
1550:HANcoder_E407_TTA_CombineModel.c ****       obj->pModValueRev = 0.0F;
 3787              		.loc 1 1550 25 view .LVU1343
 3788 0a38 4FF07E52 		mov	r2, #1065353216
1555:HANcoder_E407_TTA_CombineModel.c ****       }
 3789              		.loc 1 1555 28 view .LVU1344
 3790 0a3c 09F10C03 		add	r3, r9, #12
1550:HANcoder_E407_TTA_CombineModel.c ****       obj->pModValueRev = 0.0F;
 3791              		.loc 1 1550 25 view .LVU1345
 3792 0a40 C9F83020 		str	r2, [r9, #48]	@ float
1551:HANcoder_E407_TTA_CombineModel.c ****       obj->isSetupComplete = true;
 3793              		.loc 1 1551 7 is_stmt 1 view .LVU1346
1552:HANcoder_E407_TTA_CombineModel.c ****       obj->pCumSum = 0.0F;
 3794              		.loc 1 1552 7 view .LVU1347
1553:HANcoder_E407_TTA_CombineModel.c ****       for (i = 0; i < 9; i++) {
 3795              		.loc 1 1553 7 view .LVU1348
1554:HANcoder_E407_TTA_CombineModel.c ****         obj->pCumSumRev[i] = 0.0F;
 3796              		.loc 1 1554 7 view .LVU1349
 3797              	.LVL296:
1554:HANcoder_E407_TTA_CombineModel.c ****         obj->pCumSumRev[i] = 0.0F;
 3798              		.loc 1 1554 19 view .LVU1350
1555:HANcoder_E407_TTA_CombineModel.c ****       }
 3799              		.loc 1 1555 28 is_stmt 0 view .LVU1351
 3800 0a44 0021     		movs	r1, #0
 3801 0a46 2422     		movs	r2, #36
 3802 0a48 1846     		mov	r0, r3
 3803 0a4a FFF7FEFF 		bl	memset
 3804              	.LVL297:
1562:HANcoder_E407_TTA_CombineModel.c ****     csum = obj->pCumSum;
 3805              		.loc 1 1562 5 is_stmt 1 view .LVU1352
1563:HANcoder_E407_TTA_CombineModel.c ****     for (i = 0; i < 9; i++) {
 3806              		.loc 1 1563 5 view .LVU1353
1564:HANcoder_E407_TTA_CombineModel.c ****       csumrev[i] = obj->pCumSumRev[i];
 3807              		.loc 1 1564 5 view .LVU1354
1564:HANcoder_E407_TTA_CombineModel.c ****       csumrev[i] = obj->pCumSumRev[i];
 3808              		.loc 1 1564 17 view .LVU1355
1565:HANcoder_E407_TTA_CombineModel.c ****     }
 3809              		.loc 1 1565 18 is_stmt 0 view .LVU1356
 3810 0a4e 0DF14C0C 		add	ip, sp, #76
 3811 0a52 0C90     		str	r0, [sp, #48]
 3812 0a54 0646     		mov	r6, r0
1565:HANcoder_E407_TTA_CombineModel.c ****     }
 3813              		.loc 1 1565 18 view .LVU1357
 3814 0a56 E646     		mov	lr, ip
 3815 0a58 09F12C0A 		add	r10, r9, #44
 3816              	.LVL298:
 3817              	.L138:
1565:HANcoder_E407_TTA_CombineModel.c ****     }
 3818              		.loc 1 1565 18 view .LVU1358
 3819 0a5c 3068     		ldr	r0, [r6]	@ unaligned
 3820 0a5e 7168     		ldr	r1, [r6, #4]	@ unaligned
 3821 0a60 B268     		ldr	r2, [r6, #8]	@ unaligned
 3822 0a62 F368     		ldr	r3, [r6, #12]	@ unaligned
 3823 0a64 7746     		mov	r7, lr
 3824 0a66 0FC7     		stmia	r7!, {r0, r1, r2, r3}
 3825 0a68 1036     		adds	r6, r6, #16
 3826 0a6a 5645     		cmp	r6, r10
 3827 0a6c BE46     		mov	lr, r7
 3828 0a6e F5D1     		bne	.L138
1572:HANcoder_E407_TTA_CombineModel.c **** 
 3829              		.loc 1 1572 20 view .LVU1359
 3830 0a70 DFED5B5A 		vldr.32	s11, .L466+40
 3831 0a74 5B4A     		ldr	r2, .L466+44
1565:HANcoder_E407_TTA_CombineModel.c ****     }
 3832              		.loc 1 1565 18 view .LVU1360
 3833 0a76 3068     		ldr	r0, [r6]	@ unaligned
 3834 0a78 3860     		str	r0, [r7]
 3835              	.LVL299:
1568:HANcoder_E407_TTA_CombineModel.c ****     z = 0.0F;
 3836              		.loc 1 1568 5 is_stmt 1 view .LVU1361
1569:HANcoder_E407_TTA_CombineModel.c **** 
 3837              		.loc 1 1569 5 view .LVU1362
1572:HANcoder_E407_TTA_CombineModel.c **** 
 3838              		.loc 1 1572 5 view .LVU1363
1577:HANcoder_E407_TTA_CombineModel.c ****     if (modValueRev == 0.0F) {
 3839              		.loc 1 1577 13 is_stmt 0 view .LVU1364
 3840 0a7a F8EE487A 		vcvt.f32.u32	s15, s16
1577:HANcoder_E407_TTA_CombineModel.c ****     if (modValueRev == 0.0F) {
 3841              		.loc 1 1577 10 view .LVU1365
 3842 0a7e 0023     		movs	r3, #0
 3843 0a80 37EEA56A 		vadd.f32	s12, s15, s11
 3844 0a84 F0EE656A 		vmov.f32	s13, s11
 3845 0a88 B7EE007A 		vmov.f32	s14, #1.0e+0
1572:HANcoder_E407_TTA_CombineModel.c **** 
 3846              		.loc 1 1572 20 view .LVU1366
 3847 0a8c C2ED005A 		vstr.32	s11, [r2]
1577:HANcoder_E407_TTA_CombineModel.c ****     if (modValueRev == 0.0F) {
 3848              		.loc 1 1577 5 is_stmt 1 view .LVU1367
 3849              	.LVL300:
1578:HANcoder_E407_TTA_CombineModel.c ****       z = csumrev[(int32_T)cumRevIndex - 1] + csum;
 3850              		.loc 1 1578 5 view .LVU1368
1577:HANcoder_E407_TTA_CombineModel.c ****     if (modValueRev == 0.0F) {
 3851              		.loc 1 1577 10 is_stmt 0 view .LVU1369
 3852 0a90 0B93     		str	r3, [sp, #44]
 3853              	.LVL301:
 3854              	.L139:
1579:HANcoder_E407_TTA_CombineModel.c ****     }
 3855              		.loc 1 1579 7 is_stmt 1 view .LVU1370
1579:HANcoder_E407_TTA_CombineModel.c ****     }
 3856              		.loc 1 1579 18 is_stmt 0 view .LVU1371
 3857 0a92 0B99     		ldr	r1, [sp, #44]
 3858 0a94 1CAB     		add	r3, sp, #112
 3859 0a96 03EB8103 		add	r3, r3, r1, lsl #2
1579:HANcoder_E407_TTA_CombineModel.c ****     }
 3860              		.loc 1 1579 9 view .LVU1372
 3861 0a9a 53ED095A 		vldr.32	s11, [r3, #-36]
 3862 0a9e 76EE255A 		vadd.f32	s11, s12, s11
 3863              	.LVL302:
1579:HANcoder_E407_TTA_CombineModel.c ****     }
 3864              		.loc 1 1579 18 view .LVU1373
 3865 0aa2 4FEA810A 		lsl	r10, r1, #2
 3866              	.LVL303:
 3867              	.L141:
1582:HANcoder_E407_TTA_CombineModel.c ****     if (cumRevIndex != 9.0F) {
 3868              		.loc 1 1582 5 is_stmt 1 view .LVU1374
1582:HANcoder_E407_TTA_CombineModel.c ****     if (cumRevIndex != 9.0F) {
 3869              		.loc 1 1582 39 is_stmt 0 view .LVU1375
 3870 0aa6 0AF17003 		add	r3, r10, #112
 3871 0aaa 0DEB030A 		add	r10, sp, r3
 3872 0aae 4AED097A 		vstr.32	s15, [r10, #-36]
1583:HANcoder_E407_TTA_CombineModel.c ****       cumRevIndex++;
 3873              		.loc 1 1583 5 is_stmt 1 view .LVU1376
1583:HANcoder_E407_TTA_CombineModel.c ****       cumRevIndex++;
 3874              		.loc 1 1583 8 is_stmt 0 view .LVU1377
 3875 0ab2 F2EE027A 		vmov.f32	s15, #9.0e+0
 3876 0ab6 B4EE677A 		vcmp.f32	s14, s15
 3877 0aba F1EE10FA 		vmrs	APSR_nzcv, FPSCR
 3878 0abe 00F0A886 		beq	.L142
1584:HANcoder_E407_TTA_CombineModel.c ****     } else {
 3879              		.loc 1 1584 7 is_stmt 1 view .LVU1378
1584:HANcoder_E407_TTA_CombineModel.c ****     } else {
 3880              		.loc 1 1584 18 is_stmt 0 view .LVU1379
 3881 0ac2 F7EE007A 		vmov.f32	s15, #1.0e+0
 3882 0ac6 37EE277A 		vadd.f32	s14, s14, s15
 3883              	.LVL304:
1584:HANcoder_E407_TTA_CombineModel.c ****     } else {
 3884              		.loc 1 1584 18 view .LVU1380
 3885 0aca 1BAF     		add	r7, sp, #108
 3886              	.LVL305:
 3887              	.L143:
1593:HANcoder_E407_TTA_CombineModel.c ****       /* MATLABSystem: '<S79>/Moving Average' */
 3888              		.loc 1 1593 5 is_stmt 1 view .LVU1381
1593:HANcoder_E407_TTA_CombineModel.c ****       /* MATLABSystem: '<S79>/Moving Average' */
 3889              		.loc 1 1593 8 is_stmt 0 view .LVU1382
 3890 0acc F5EE406A 		vcmp.f32	s13, #0
 3891 0ad0 F1EE10FA 		vmrs	APSR_nzcv, FPSCR
 3892 0ad4 05D1     		bne	.L145
1595:HANcoder_E407_TTA_CombineModel.c ****     }
 3893              		.loc 1 1595 7 is_stmt 1 view .LVU1383
1595:HANcoder_E407_TTA_CombineModel.c ****     }
 3894              		.loc 1 1595 26 is_stmt 0 view .LVU1384
 3895 0ad6 B2EE045A 		vmov.f32	s10, #1.0e+1
 3896 0ada C5EE857A 		vdiv.f32	s15, s11, s10
1595:HANcoder_E407_TTA_CombineModel.c ****     }
 3897              		.loc 1 1595 22 view .LVU1385
 3898 0ade C2ED007A 		vstr.32	s15, [r2]
 3899              	.L145:
1598:HANcoder_E407_TTA_CombineModel.c ****     for (i = 0; i < 9; i++) {
 3900              		.loc 1 1598 5 is_stmt 1 view .LVU1386
1600:HANcoder_E407_TTA_CombineModel.c ****     }
 3901              		.loc 1 1600 26 is_stmt 0 view .LVU1387
 3902 0ae2 0C9E     		ldr	r6, [sp, #48]
1598:HANcoder_E407_TTA_CombineModel.c ****     for (i = 0; i < 9; i++) {
 3903              		.loc 1 1598 18 view .LVU1388
 3904 0ae4 89ED026A 		vstr.32	s12, [r9, #8]
1599:HANcoder_E407_TTA_CombineModel.c ****       obj->pCumSumRev[i] = csumrev[i];
 3905              		.loc 1 1599 5 is_stmt 1 view .LVU1389
 3906              	.LVL306:
1599:HANcoder_E407_TTA_CombineModel.c ****       obj->pCumSumRev[i] = csumrev[i];
 3907              		.loc 1 1599 17 view .LVU1390
 3908              	.L146:
1600:HANcoder_E407_TTA_CombineModel.c ****     }
 3909              		.loc 1 1600 26 is_stmt 0 view .LVU1391
 3910 0ae8 E646     		mov	lr, ip
 3911 0aea BEE80F00 		ldmia	lr!, {r0, r1, r2, r3}
 3912 0aee BE45     		cmp	lr, r7
 3913 0af0 06F11006 		add	r6, r6, #16
 3914 0af4 0CF1100C 		add	ip, ip, #16
 3915 0af8 46F8100C 		str	r0, [r6, #-16]	@ unaligned
 3916 0afc 46F80C1C 		str	r1, [r6, #-12]	@ unaligned
 3917 0b00 46F8082C 		str	r2, [r6, #-8]	@ unaligned
 3918 0b04 46F8043C 		str	r3, [r6, #-4]	@ unaligned
 3919 0b08 EED1     		bne	.L146
1604:HANcoder_E407_TTA_CombineModel.c ****       obj->pModValueRev = modValueRev - 1.0F;
 3920              		.loc 1 1604 8 view .LVU1392
 3921 0b0a F5EEC06A 		vcmpe.f32	s13, #0
 3922 0b0e F1EE10FA 		vmrs	APSR_nzcv, FPSCR
1605:HANcoder_E407_TTA_CombineModel.c ****     } else {
 3923              		.loc 1 1605 39 view .LVU1393
 3924 0b12 C6BF     		itte	gt
 3925 0b14 F7EE007A 		vmovgt.f32	s15, #1.0e+0
 3926 0b18 76EEE76A 		vsubgt.f32	s13, s13, s15
1607:HANcoder_E407_TTA_CombineModel.c ****     }
 3927              		.loc 1 1607 25 view .LVU1394
 3928 0b1c DFED306A 		vldrle.32	s13, .L466+40
1600:HANcoder_E407_TTA_CombineModel.c ****     }
 3929              		.loc 1 1600 26 view .LVU1395
 3930 0b20 DCF80000 		ldr	r0, [ip]
 3931 0b24 3060     		str	r0, [r6]	@ unaligned
 3932              	.LVL307:
1603:HANcoder_E407_TTA_CombineModel.c ****     if (modValueRev > 0.0F) {
 3933              		.loc 1 1603 5 is_stmt 1 view .LVU1396
1603:HANcoder_E407_TTA_CombineModel.c ****     if (modValueRev > 0.0F) {
 3934              		.loc 1 1603 23 is_stmt 0 view .LVU1397
 3935 0b26 89ED0C7A 		vstr.32	s14, [r9, #48]
1604:HANcoder_E407_TTA_CombineModel.c ****       obj->pModValueRev = modValueRev - 1.0F;
 3936              		.loc 1 1604 5 is_stmt 1 view .LVU1398
1605:HANcoder_E407_TTA_CombineModel.c ****     } else {
 3937              		.loc 1 1605 7 view .LVU1399
 3938 0b2a C9ED0D6A 		vstr.32	s13, [r9, #52]
1618:HANcoder_E407_TTA_CombineModel.c ****       /* Gain: '<S93>/Gain' incorporates:
 3939              		.loc 1 1618 5 view .LVU1400
1633:HANcoder_E407_TTA_CombineModel.c ****         rtDWork.pot4_1) >> 22);
 3940              		.loc 1 1633 7 view .LVU1401
1650:HANcoder_E407_TTA_CombineModel.c ****       /* Gain: '<S95>/Gain' incorporates:
 3941              		.loc 1 1650 5 view .LVU1402
1655:HANcoder_E407_TTA_CombineModel.c ****         rtDWork.pot4_2) >> 22);
 3942              		.loc 1 1655 7 view .LVU1403
1665:HANcoder_E407_TTA_CombineModel.c ****         rtDWork.pot5_1) >> 22);
 3943              		.loc 1 1665 7 view .LVU1404
1650:HANcoder_E407_TTA_CombineModel.c ****       /* Gain: '<S95>/Gain' incorporates:
 3944              		.loc 1 1650 32 is_stmt 0 view .LVU1405
 3945 0b2e 94F85931 		ldrb	r3, [r4, #345]	@ zero_extendqisi2
 3946 0b32 94F85521 		ldrb	r2, [r4, #341]	@ zero_extendqisi2
1682:HANcoder_E407_TTA_CombineModel.c **** 
 3947              		.loc 1 1682 16 view .LVU1406
 3948 0b36 2C4E     		ldr	r6, .L466+48
1650:HANcoder_E407_TTA_CombineModel.c ****       /* Gain: '<S95>/Gain' incorporates:
 3949              		.loc 1 1650 32 view .LVU1407
 3950 0b38 1343     		orrs	r3, r2, r3
1656:HANcoder_E407_TTA_CombineModel.c ****     } else {
 3951              		.loc 1 1656 16 view .LVU1408
 3952 0b3a 0CBF     		ite	eq
 3953 0b3c B4F8D630 		ldrheq	r3, [r4, #214]
1666:HANcoder_E407_TTA_CombineModel.c **** 
 3954              		.loc 1 1666 16 view .LVU1409
 3955 0b40 B4F8D230 		ldrhne	r3, [r4, #210]
1665:HANcoder_E407_TTA_CombineModel.c ****         rtDWork.pot5_1) >> 22);
 3956              		.loc 1 1665 74 view .LVU1410
 3957 0b44 4FF28A42 		movw	r2, #62602
 3958 0b48 02FB03F3 		mul	r3, r2, r3
1665:HANcoder_E407_TTA_CombineModel.c ****         rtDWork.pot5_1) >> 22);
 3959              		.loc 1 1665 33 view .LVU1411
 3960 0b4c 9B0D     		lsrs	r3, r3, #22
1682:HANcoder_E407_TTA_CombineModel.c **** 
 3961              		.loc 1 1682 18 view .LVU1412
 3962 0b4e 0021     		movs	r1, #0
 3963 0b50 0420     		movs	r0, #4
 3964 0b52 A4F8DE30 		strh	r3, [r4, #222]	@ movhi
1675:HANcoder_E407_TTA_CombineModel.c **** 
 3965              		.loc 1 1675 5 is_stmt 1 view .LVU1413
 3966              	.LVL308:
1678:HANcoder_E407_TTA_CombineModel.c **** 
 3967              		.loc 1 1678 5 view .LVU1414
1682:HANcoder_E407_TTA_CombineModel.c **** 
 3968              		.loc 1 1682 5 view .LVU1415
1682:HANcoder_E407_TTA_CombineModel.c **** 
 3969              		.loc 1 1682 18 is_stmt 0 view .LVU1416
 3970 0b56 FFF7FEFF 		bl	AninGet
 3971              	.LVL309:
1686:HANcoder_E407_TTA_CombineModel.c **** 
 3972              		.loc 1 1686 5 view .LVU1417
 3973 0b5a 07EE900A 		vmov	s15, r0	@ int
 3974 0b5e F8EE677A 		vcvt.f32.u32	s15, s15
 3975 0b62 224A     		ldr	r2, .L466+52
 3976 0b64 2249     		ldr	r1, .L466+56
1682:HANcoder_E407_TTA_CombineModel.c **** 
 3977              		.loc 1 1682 16 view .LVU1418
 3978 0b66 3080     		strh	r0, [r6]	@ movhi
1685:HANcoder_E407_TTA_CombineModel.c ****     MovingAverage(rtb_Cast_m, &rtB.MovingAverage_p, &rtDWork.MovingAverage_p);
 3979              		.loc 1 1685 5 is_stmt 1 view .LVU1419
 3980              	.LVL310:
1686:HANcoder_E407_TTA_CombineModel.c **** 
 3981              		.loc 1 1686 5 view .LVU1420
 3982 0b68 17EE900A 		vmov	r0, s15
 3983              	.LVL311:
1686:HANcoder_E407_TTA_CombineModel.c **** 
 3984              		.loc 1 1686 5 is_stmt 0 view .LVU1421
 3985 0b6c FFF7FEFF 		bl	MovingAverage
 3986              	.LVL312:
1689:HANcoder_E407_TTA_CombineModel.c **** 
 3987              		.loc 1 1689 5 is_stmt 1 view .LVU1422
1689:HANcoder_E407_TTA_CombineModel.c **** 
 3988              		.loc 1 1689 12 is_stmt 0 view .LVU1423
 3989 0b70 D5ED377A 		vldr.32	s15, [r5, #220]
1695:HANcoder_E407_TTA_CombineModel.c **** 
 3990              		.loc 1 1695 31 view .LVU1424
 3991 0b74 3388     		ldrh	r3, [r6]
 3992 0b76 A4F8DA30 		strh	r3, [r4, #218]	@ movhi
1689:HANcoder_E407_TTA_CombineModel.c **** 
 3993              		.loc 1 1689 12 view .LVU1425
 3994 0b7a FCEEE77A 		vcvt.u32.f32	s15, s15
1689:HANcoder_E407_TTA_CombineModel.c **** 
 3995              		.loc 1 1689 10 view .LVU1426
 3996 0b7e 1D4A     		ldr	r2, .L466+60
1689:HANcoder_E407_TTA_CombineModel.c **** 
 3997              		.loc 1 1689 12 view .LVU1427
 3998 0b80 17EE903A 		vmov	r3, s15	@ int
1699:HANcoder_E407_TTA_CombineModel.c **** 
 3999              		.loc 1 1699 18 view .LVU1428
 4000 0b84 0021     		movs	r1, #0
1689:HANcoder_E407_TTA_CombineModel.c **** 
 4001              		.loc 1 1689 12 view .LVU1429
 4002 0b86 9BB2     		uxth	r3, r3
1699:HANcoder_E407_TTA_CombineModel.c **** 
 4003              		.loc 1 1699 18 view .LVU1430
 4004 0b88 0520     		movs	r0, #5
1689:HANcoder_E407_TTA_CombineModel.c **** 
 4005              		.loc 1 1689 10 view .LVU1431
 4006 0b8a 1380     		strh	r3, [r2]	@ movhi
1692:HANcoder_E407_TTA_CombineModel.c **** 
 4007              		.loc 1 1692 5 is_stmt 1 view .LVU1432
1692:HANcoder_E407_TTA_CombineModel.c **** 
 4008              		.loc 1 1692 28 is_stmt 0 view .LVU1433
 4009 0b8c A4F8CE30 		strh	r3, [r4, #206]	@ movhi
1695:HANcoder_E407_TTA_CombineModel.c **** 
 4010              		.loc 1 1695 5 is_stmt 1 view .LVU1434
1699:HANcoder_E407_TTA_CombineModel.c **** 
 4011              		.loc 1 1699 5 view .LVU1435
1699:HANcoder_E407_TTA_CombineModel.c **** 
 4012              		.loc 1 1699 18 is_stmt 0 view .LVU1436
 4013 0b90 FFF7FEFF 		bl	AninGet
 4014              	.LVL313:
1703:HANcoder_E407_TTA_CombineModel.c **** 
 4015              		.loc 1 1703 5 view .LVU1437
 4016 0b94 07EE900A 		vmov	s15, r0	@ int
1699:HANcoder_E407_TTA_CombineModel.c **** 
 4017              		.loc 1 1699 16 view .LVU1438
 4018 0b98 174B     		ldr	r3, .L466+64
1703:HANcoder_E407_TTA_CombineModel.c **** 
 4019              		.loc 1 1703 5 view .LVU1439
 4020 0b9a 1849     		ldr	r1, .L466+68
1699:HANcoder_E407_TTA_CombineModel.c **** 
 4021              		.loc 1 1699 16 view .LVU1440
 4022 0b9c 1880     		strh	r0, [r3]	@ movhi
1702:HANcoder_E407_TTA_CombineModel.c ****     MovingAverage(rtb_Cast3, &rtB.MovingAverage1, &rtDWork.MovingAverage1);
 4023              		.loc 1 1702 5 is_stmt 1 view .LVU1441
 4024              	.LVL314:
1703:HANcoder_E407_TTA_CombineModel.c **** 
 4025              		.loc 1 1703 5 view .LVU1442
 4026 0b9e F8EE677A 		vcvt.f32.u32	s15, s15
 4027 0ba2 174A     		ldr	r2, .L466+72
 4028 0ba4 17EE900A 		vmov	r0, s15
 4029              	.LVL315:
1703:HANcoder_E407_TTA_CombineModel.c **** 
 4030              		.loc 1 1703 5 is_stmt 0 view .LVU1443
 4031 0ba8 FFF7FEFF 		bl	MovingAverage
 4032              	.LVL316:
1706:HANcoder_E407_TTA_CombineModel.c **** 
 4033              		.loc 1 1706 5 is_stmt 1 view .LVU1444
1706:HANcoder_E407_TTA_CombineModel.c **** 
 4034              		.loc 1 1706 12 is_stmt 0 view .LVU1445
 4035 0bac D5ED367A 		vldr.32	s15, [r5, #216]
1706:HANcoder_E407_TTA_CombineModel.c **** 
 4036              		.loc 1 1706 10 view .LVU1446
 4037 0bb0 144A     		ldr	r2, .L466+76
1706:HANcoder_E407_TTA_CombineModel.c **** 
 4038              		.loc 1 1706 12 view .LVU1447
 4039 0bb2 FCEEE77A 		vcvt.u32.f32	s15, s15
 4040 0bb6 2DE0     		b	.L467
 4041              	.L468:
 4042              		.align	2
 4043              	.L466:
 4044 0bb8 00000000 		.word	.LANCHOR24
 4045 0bbc 00000000 		.word	.LANCHOR26
 4046 0bc0 00000000 		.word	.LANCHOR27
 4047 0bc4 00000000 		.word	.LANCHOR28
 4048 0bc8 00000000 		.word	.LANCHOR29
 4049 0bcc 00000000 		.word	rtConstP
 4050 0bd0 00000000 		.word	.LANCHOR31
 4051 0bd4 00000000 		.word	.LANCHOR32
 4052 0bd8 00000000 		.word	.LANCHOR33
 4053 0bdc 00000000 		.word	.LANCHOR34
 4054 0be0 00000000 		.word	0
 4055 0be4 00000000 		.word	.LANCHOR35
 4056 0be8 00000000 		.word	.LANCHOR36
 4057 0bec E0010000 		.word	.LANCHOR2+480
 4058 0bf0 DC000000 		.word	.LANCHOR0+220
 4059 0bf4 00000000 		.word	.LANCHOR37
 4060 0bf8 00000000 		.word	.LANCHOR38
 4061 0bfc D8000000 		.word	.LANCHOR0+216
 4062 0c00 6C010000 		.word	.LANCHOR2+364
 4063 0c04 00000000 		.word	.LANCHOR39
 4064 0c08 00005940 		.word	1079574528
 4065 0c0c 00000000 		.word	.LANCHOR25
 4066 0c10 00000000 		.word	.LANCHOR30
 4067              	.L467:
1713:HANcoder_E407_TTA_CombineModel.c **** 
 4068              		.loc 1 1713 19 view .LVU1448
 4069 0c14 4720     		movs	r0, #71
1706:HANcoder_E407_TTA_CombineModel.c **** 
 4070              		.loc 1 1706 12 view .LVU1449
 4071 0c16 17EE903A 		vmov	r3, s15	@ int
 4072 0c1a 9BB2     		uxth	r3, r3
1706:HANcoder_E407_TTA_CombineModel.c **** 
 4073              		.loc 1 1706 10 view .LVU1450
 4074 0c1c 1380     		strh	r3, [r2]	@ movhi
1709:HANcoder_E407_TTA_CombineModel.c **** 
 4075              		.loc 1 1709 5 is_stmt 1 view .LVU1451
1709:HANcoder_E407_TTA_CombineModel.c **** 
 4076              		.loc 1 1709 28 is_stmt 0 view .LVU1452
 4077 0c1e A4F8DC30 		strh	r3, [r4, #220]	@ movhi
1713:HANcoder_E407_TTA_CombineModel.c **** 
 4078              		.loc 1 1713 5 is_stmt 1 view .LVU1453
1713:HANcoder_E407_TTA_CombineModel.c **** 
 4079              		.loc 1 1713 19 is_stmt 0 view .LVU1454
 4080 0c22 FFF7FEFF 		bl	DiginGet
 4081              	.LVL317:
1718:HANcoder_E407_TTA_CombineModel.c **** 
 4082              		.loc 1 1718 5 is_stmt 1 view .LVU1455
1721:HANcoder_E407_TTA_CombineModel.c **** 
 4083              		.loc 1 1721 27 is_stmt 0 view .LVU1456
 4084 0c26 BE4B     		ldr	r3, .L469+8
1718:HANcoder_E407_TTA_CombineModel.c **** 
 4085              		.loc 1 1718 25 view .LVU1457
 4086 0c28 84F84A01 		strb	r0, [r4, #330]
1721:HANcoder_E407_TTA_CombineModel.c **** 
 4087              		.loc 1 1721 5 is_stmt 1 view .LVU1458
1721:HANcoder_E407_TTA_CombineModel.c **** 
 4088              		.loc 1 1721 27 is_stmt 0 view .LVU1459
 4089 0c2c 1B78     		ldrb	r3, [r3]	@ zero_extendqisi2
 4090 0c2e 84F85C31 		strb	r3, [r4, #348]
1727:HANcoder_E407_TTA_CombineModel.c **** 
 4091              		.loc 1 1727 5 is_stmt 1 view .LVU1460
1727:HANcoder_E407_TTA_CombineModel.c **** 
 4092              		.loc 1 1727 51 is_stmt 0 view .LVU1461
 4093 0c32 BC4B     		ldr	r3, .L469+12
 4094 0c34 D3E90001 		ldrd	r0, [r3]
 4095              	.LVL318:
1727:HANcoder_E407_TTA_CombineModel.c **** 
 4096              		.loc 1 1727 51 view .LVU1462
 4097 0c38 B7A3     		adr	r3, .L469
 4098 0c3a D3E90023 		ldrd	r2, [r3]
 4099 0c3e FFF7FEFF 		bl	__aeabi_dmul
 4100              	.LVL319:
1731:HANcoder_E407_TTA_CombineModel.c ****       QuadEncResetCounter(QUADENC_TIM3_PA6_PB5);
 4101              		.loc 1 1731 8 view .LVU1463
 4102 0c42 95F82A30 		ldrb	r3, [r5, #42]	@ zero_extendqisi2
1727:HANcoder_E407_TTA_CombineModel.c **** 
 4103              		.loc 1 1727 28 view .LVU1464
 4104 0c46 C4E92601 		strd	r0, [r4, #152]
1731:HANcoder_E407_TTA_CombineModel.c ****       QuadEncResetCounter(QUADENC_TIM3_PA6_PB5);
 4105              		.loc 1 1731 5 is_stmt 1 view .LVU1465
1731:HANcoder_E407_TTA_CombineModel.c ****       QuadEncResetCounter(QUADENC_TIM3_PA6_PB5);
 4106              		.loc 1 1731 8 is_stmt 0 view .LVU1466
 4107 0c4a 002B     		cmp	r3, #0
 4108 0c4c 40F07686 		bne	.L444
 4109              	.L151:
1736:HANcoder_E407_TTA_CombineModel.c **** 
 4110              		.loc 1 1736 5 is_stmt 1 view .LVU1467
1736:HANcoder_E407_TTA_CombineModel.c **** 
 4111              		.loc 1 1736 16 is_stmt 0 view .LVU1468
 4112 0c50 0120     		movs	r0, #1
 4113 0c52 FFF7FEFF 		bl	QuadEncGetCounter
 4114              	.LVL320:
1736:HANcoder_E407_TTA_CombineModel.c **** 
 4115              		.loc 1 1736 14 view .LVU1469
 4116 0c56 B44B     		ldr	r3, .L469+16
1739:HANcoder_E407_TTA_CombineModel.c **** 
 4117              		.loc 1 1739 29 view .LVU1470
 4118 0c58 C4F8BC00 		str	r0, [r4, #188]
1736:HANcoder_E407_TTA_CombineModel.c **** 
 4119              		.loc 1 1736 14 view .LVU1471
 4120 0c5c 1860     		str	r0, [r3]
1739:HANcoder_E407_TTA_CombineModel.c **** 
 4121              		.loc 1 1739 5 is_stmt 1 view .LVU1472
1749:HANcoder_E407_TTA_CombineModel.c **** 
 4122              		.loc 1 1749 5 view .LVU1473
1749:HANcoder_E407_TTA_CombineModel.c **** 
 4123              		.loc 1 1749 58 is_stmt 0 view .LVU1474
 4124 0c5e 0022     		movs	r2, #0
 4125 0c60 0023     		movs	r3, #0
 4126 0c62 D4E91C01 		ldrd	r0, [r4, #112]
 4127 0c66 FFF7FEFF 		bl	__aeabi_dcmplt
 4128              	.LVL321:
1755:HANcoder_E407_TTA_CombineModel.c ****       /* Switch: '<S78>/Switch' incorporates:
 4129              		.loc 1 1755 9 view .LVU1475
 4130 0c6a B04E     		ldr	r6, .L469+20
1749:HANcoder_E407_TTA_CombineModel.c **** 
 4131              		.loc 1 1749 58 view .LVU1476
 4132 0c6c 0038     		subs	r0, r0, #0
1755:HANcoder_E407_TTA_CombineModel.c ****       /* Switch: '<S78>/Switch' incorporates:
 4133              		.loc 1 1755 8 view .LVU1477
 4134 0c6e 3378     		ldrb	r3, [r6]	@ zero_extendqisi2
1749:HANcoder_E407_TTA_CombineModel.c **** 
 4135              		.loc 1 1749 58 view .LVU1478
 4136 0c70 18BF     		it	ne
 4137 0c72 0120     		movne	r0, #1
1749:HANcoder_E407_TTA_CombineModel.c **** 
 4138              		.loc 1 1749 28 view .LVU1479
 4139 0c74 85F82A00 		strb	r0, [r5, #42]
1755:HANcoder_E407_TTA_CombineModel.c ****       /* Switch: '<S78>/Switch' incorporates:
 4140              		.loc 1 1755 5 is_stmt 1 view .LVU1480
1755:HANcoder_E407_TTA_CombineModel.c ****       /* Switch: '<S78>/Switch' incorporates:
 4141              		.loc 1 1755 8 is_stmt 0 view .LVU1481
 4142 0c78 002B     		cmp	r3, #0
 4143 0c7a 00F0BD85 		beq	.L153
1759:HANcoder_E407_TTA_CombineModel.c **** 
 4144              		.loc 1 1759 7 is_stmt 1 view .LVU1482
1759:HANcoder_E407_TTA_CombineModel.c **** 
 4145              		.loc 1 1759 18 is_stmt 0 view .LVU1483
 4146 0c7e B4F8D030 		ldrh	r3, [r4, #208]
1764:HANcoder_E407_TTA_CombineModel.c **** 
 4147              		.loc 1 1764 28 view .LVU1484
 4148 0c82 94F85271 		ldrb	r7, [r4, #338]	@ zero_extendqisi2
1759:HANcoder_E407_TTA_CombineModel.c **** 
 4149              		.loc 1 1759 18 view .LVU1485
 4150 0c86 2B80     		strh	r3, [r5]	@ movhi
1764:HANcoder_E407_TTA_CombineModel.c **** 
 4151              		.loc 1 1764 7 is_stmt 1 view .LVU1486
1769:HANcoder_E407_TTA_CombineModel.c ****     } else {
 4152              		.loc 1 1769 19 is_stmt 0 view .LVU1487
 4153 0c88 94F85331 		ldrb	r3, [r4, #339]	@ zero_extendqisi2
1764:HANcoder_E407_TTA_CombineModel.c **** 
 4154              		.loc 1 1764 19 view .LVU1488
 4155 0c8c 85F82B70 		strb	r7, [r5, #43]
1769:HANcoder_E407_TTA_CombineModel.c ****     } else {
 4156              		.loc 1 1769 7 is_stmt 1 view .LVU1489
1769:HANcoder_E407_TTA_CombineModel.c ****     } else {
 4157              		.loc 1 1769 19 is_stmt 0 view .LVU1490
 4158 0c90 85F82C30 		strb	r3, [r5, #44]
 4159              	.L154:
1786:HANcoder_E407_TTA_CombineModel.c **** 
 4160              		.loc 1 1786 5 is_stmt 1 view .LVU1491
1786:HANcoder_E407_TTA_CombineModel.c **** 
 4161              		.loc 1 1786 38 is_stmt 0 view .LVU1492
 4162 0c94 94F84831 		ldrb	r3, [r4, #328]	@ zero_extendqisi2
1794:HANcoder_E407_TTA_CombineModel.c ****     }
 4163              		.loc 1 1794 39 view .LVU1493
 4164 0c98 A549     		ldr	r1, .L469+24
1786:HANcoder_E407_TTA_CombineModel.c **** 
 4165              		.loc 1 1786 38 view .LVU1494
 4166 0c9a 013B     		subs	r3, r3, #1
 4167 0c9c 18BF     		it	ne
 4168 0c9e 0123     		movne	r3, #1
 4169 0ca0 85F82D30 		strb	r3, [r5, #45]
1789:HANcoder_E407_TTA_CombineModel.c ****     rtDWork.Delay_DSTATE[1] = rtb_AND_n;
 4170              		.loc 1 1789 5 is_stmt 1 view .LVU1495
1789:HANcoder_E407_TTA_CombineModel.c ****     rtDWork.Delay_DSTATE[1] = rtb_AND_n;
 4171              		.loc 1 1789 29 is_stmt 0 view .LVU1496
 4172 0ca4 94F8E530 		ldrb	r3, [r4, #229]	@ zero_extendqisi2
 4173 0ca8 84F8E430 		strb	r3, [r4, #228]
1790:HANcoder_E407_TTA_CombineModel.c **** 
 4174              		.loc 1 1790 5 is_stmt 1 view .LVU1497
1794:HANcoder_E407_TTA_CombineModel.c ****     }
 4175              		.loc 1 1794 39 is_stmt 0 view .LVU1498
 4176 0cac 0822     		movs	r2, #8
1790:HANcoder_E407_TTA_CombineModel.c **** 
 4177              		.loc 1 1790 29 view .LVU1499
 4178 0cae 079B     		ldr	r3, [sp, #28]
 4179 0cb0 84F8E530 		strb	r3, [r4, #229]
1793:HANcoder_E407_TTA_CombineModel.c ****       rtDWork.Delay1_DSTATE[idxDelay] = rtDWork.Delay1_DSTATE[idxDelay + 1];
 4180              		.loc 1 1793 5 is_stmt 1 view .LVU1500
 4181              	.LVL322:
1793:HANcoder_E407_TTA_CombineModel.c ****       rtDWork.Delay1_DSTATE[idxDelay] = rtDWork.Delay1_DSTATE[idxDelay + 1];
 4182              		.loc 1 1793 24 view .LVU1501
1794:HANcoder_E407_TTA_CombineModel.c ****     }
 4183              		.loc 1 1794 39 is_stmt 0 view .LVU1502
 4184 0cb4 481E     		subs	r0, r1, #1
 4185 0cb6 FFF7FEFF 		bl	memmove
 4186              	.LVL323:
1797:HANcoder_E407_TTA_CombineModel.c **** 
 4187              		.loc 1 1797 5 is_stmt 1 view .LVU1503
1803:HANcoder_E407_TTA_CombineModel.c ****     }
 4188              		.loc 1 1803 39 is_stmt 0 view .LVU1504
 4189 0cba 9E49     		ldr	r1, .L469+28
1797:HANcoder_E407_TTA_CombineModel.c **** 
 4190              		.loc 1 1797 30 view .LVU1505
 4191 0cbc 079B     		ldr	r3, [sp, #28]
 4192 0cbe 84F8EE30 		strb	r3, [r4, #238]
1802:HANcoder_E407_TTA_CombineModel.c ****       rtDWork.Delay2_DSTATE[idxDelay] = rtDWork.Delay2_DSTATE[idxDelay + 1];
 4193              		.loc 1 1802 5 is_stmt 1 view .LVU1506
 4194              	.LVL324:
1802:HANcoder_E407_TTA_CombineModel.c ****       rtDWork.Delay2_DSTATE[idxDelay] = rtDWork.Delay2_DSTATE[idxDelay + 1];
 4195              		.loc 1 1802 24 view .LVU1507
1803:HANcoder_E407_TTA_CombineModel.c ****     }
 4196              		.loc 1 1803 39 is_stmt 0 view .LVU1508
 4197 0cc2 0F22     		movs	r2, #15
 4198 0cc4 481E     		subs	r0, r1, #1
 4199 0cc6 FFF7FEFF 		bl	memmove
 4200              	.LVL325:
1806:HANcoder_E407_TTA_CombineModel.c **** 
 4201              		.loc 1 1806 5 is_stmt 1 view .LVU1509
1812:HANcoder_E407_TTA_CombineModel.c ****     }
 4202              		.loc 1 1812 39 is_stmt 0 view .LVU1510
 4203 0cca 9B49     		ldr	r1, .L469+32
1806:HANcoder_E407_TTA_CombineModel.c **** 
 4204              		.loc 1 1806 31 view .LVU1511
 4205 0ccc 079B     		ldr	r3, [sp, #28]
 4206 0cce 84F8FE30 		strb	r3, [r4, #254]
1811:HANcoder_E407_TTA_CombineModel.c ****       rtDWork.Delay4_DSTATE[idxDelay] = rtDWork.Delay4_DSTATE[idxDelay + 1];
 4207              		.loc 1 1811 5 is_stmt 1 view .LVU1512
 4208              	.LVL326:
1811:HANcoder_E407_TTA_CombineModel.c ****       rtDWork.Delay4_DSTATE[idxDelay] = rtDWork.Delay4_DSTATE[idxDelay + 1];
 4209              		.loc 1 1811 24 view .LVU1513
1812:HANcoder_E407_TTA_CombineModel.c ****     }
 4210              		.loc 1 1812 39 is_stmt 0 view .LVU1514
 4211 0cd2 1822     		movs	r2, #24
 4212 0cd4 481E     		subs	r0, r1, #1
 4213 0cd6 FFF7FEFF 		bl	memmove
 4214              	.LVL327:
1815:HANcoder_E407_TTA_CombineModel.c **** 
 4215              		.loc 1 1815 5 is_stmt 1 view .LVU1515
1821:HANcoder_E407_TTA_CombineModel.c ****     }
 4216              		.loc 1 1821 39 is_stmt 0 view .LVU1516
 4217 0cda 9849     		ldr	r1, .L469+36
1815:HANcoder_E407_TTA_CombineModel.c **** 
 4218              		.loc 1 1815 31 view .LVU1517
 4219 0cdc 079B     		ldr	r3, [sp, #28]
 4220 0cde 84F81731 		strb	r3, [r4, #279]
1820:HANcoder_E407_TTA_CombineModel.c ****       rtDWork.Delay3_DSTATE[idxDelay] = rtDWork.Delay3_DSTATE[idxDelay + 1];
 4221              		.loc 1 1820 5 is_stmt 1 view .LVU1518
 4222              	.LVL328:
1820:HANcoder_E407_TTA_CombineModel.c ****       rtDWork.Delay3_DSTATE[idxDelay] = rtDWork.Delay3_DSTATE[idxDelay + 1];
 4223              		.loc 1 1820 24 view .LVU1519
1821:HANcoder_E407_TTA_CombineModel.c ****     }
 4224              		.loc 1 1821 39 is_stmt 0 view .LVU1520
 4225 0ce2 2222     		movs	r2, #34
 4226 0ce4 481E     		subs	r0, r1, #1
 4227 0ce6 FFF7FEFF 		bl	memmove
 4228              	.LVL329:
1824:HANcoder_E407_TTA_CombineModel.c **** 
 4229              		.loc 1 1824 5 is_stmt 1 view .LVU1521
1833:HANcoder_E407_TTA_CombineModel.c ****     }
 4230              		.loc 1 1833 39 is_stmt 0 view .LVU1522
 4231 0cea 9549     		ldr	r1, .L469+40
1824:HANcoder_E407_TTA_CombineModel.c **** 
 4232              		.loc 1 1824 31 view .LVU1523
 4233 0cec 079B     		ldr	r3, [sp, #28]
 4234 0cee 84F83A31 		strb	r3, [r4, #314]
1829:HANcoder_E407_TTA_CombineModel.c **** 
 4235              		.loc 1 1829 5 is_stmt 1 view .LVU1524
1833:HANcoder_E407_TTA_CombineModel.c ****     }
 4236              		.loc 1 1833 39 is_stmt 0 view .LVU1525
 4237 0cf2 0922     		movs	r2, #9
1829:HANcoder_E407_TTA_CombineModel.c **** 
 4238              		.loc 1 1829 37 view .LVU1526
 4239 0cf4 0D9B     		ldr	r3, [sp, #52]
 4240 0cf6 84F85F31 		strb	r3, [r4, #351]
1832:HANcoder_E407_TTA_CombineModel.c ****       rtDWork.Delay6_DSTATE[idxDelay] = rtDWork.Delay6_DSTATE[idxDelay + 1];
 4241              		.loc 1 1832 5 is_stmt 1 view .LVU1527
 4242              	.LVL330:
1832:HANcoder_E407_TTA_CombineModel.c ****       rtDWork.Delay6_DSTATE[idxDelay] = rtDWork.Delay6_DSTATE[idxDelay + 1];
 4243              		.loc 1 1832 24 view .LVU1528
1833:HANcoder_E407_TTA_CombineModel.c ****     }
 4244              		.loc 1 1833 39 is_stmt 0 view .LVU1529
 4245 0cfa 481E     		subs	r0, r1, #1
 4246 0cfc FFF7FEFF 		bl	memmove
 4247              	.LVL331:
1836:HANcoder_E407_TTA_CombineModel.c **** 
 4248              		.loc 1 1836 5 is_stmt 1 view .LVU1530
1845:HANcoder_E407_TTA_CombineModel.c ****     }
 4249              		.loc 1 1845 39 is_stmt 0 view .LVU1531
 4250 0d00 9049     		ldr	r1, .L469+44
1836:HANcoder_E407_TTA_CombineModel.c **** 
 4251              		.loc 1 1836 30 view .LVU1532
 4252 0d02 119B     		ldr	r3, [sp, #68]
 4253 0d04 84F84431 		strb	r3, [r4, #324]
1841:HANcoder_E407_TTA_CombineModel.c **** 
 4254              		.loc 1 1841 5 is_stmt 1 view .LVU1533
1845:HANcoder_E407_TTA_CombineModel.c ****     }
 4255              		.loc 1 1845 39 is_stmt 0 view .LVU1534
 4256 0d08 1822     		movs	r2, #24
1841:HANcoder_E407_TTA_CombineModel.c **** 
 4257              		.loc 1 1841 36 view .LVU1535
 4258 0d0a 0F9B     		ldr	r3, [sp, #60]
 4259 0d0c 84F86031 		strb	r3, [r4, #352]
1844:HANcoder_E407_TTA_CombineModel.c ****       rtDWork.Delay5_DSTATE[idxDelay] = rtDWork.Delay5_DSTATE[idxDelay + 1];
 4260              		.loc 1 1844 5 is_stmt 1 view .LVU1536
 4261              	.LVL332:
1844:HANcoder_E407_TTA_CombineModel.c ****       rtDWork.Delay5_DSTATE[idxDelay] = rtDWork.Delay5_DSTATE[idxDelay + 1];
 4262              		.loc 1 1844 24 view .LVU1537
1845:HANcoder_E407_TTA_CombineModel.c ****     }
 4263              		.loc 1 1845 39 is_stmt 0 view .LVU1538
 4264 0d10 081F     		subs	r0, r1, #4
 4265 0d12 FFF7FEFF 		bl	memmove
 4266              	.LVL333:
1848:HANcoder_E407_TTA_CombineModel.c **** 
 4267              		.loc 1 1848 5 is_stmt 1 view .LVU1539
1848:HANcoder_E407_TTA_CombineModel.c **** 
 4268              		.loc 1 1848 30 is_stmt 0 view .LVU1540
 4269 0d16 0E9B     		ldr	r3, [sp, #56]
 4270 0d18 C4F8B830 		str	r3, [r4, #184]
1853:HANcoder_E407_TTA_CombineModel.c ****     rtDWork.Delay7_DSTATE[1] = rtb_DataStoreRead8;
 4271              		.loc 1 1853 5 is_stmt 1 view .LVU1541
1862:HANcoder_E407_TTA_CombineModel.c **** 
 4272              		.loc 1 1862 23 is_stmt 0 view .LVU1542
 4273 0d1c 109B     		ldr	r3, [sp, #64]
 4274 0d1e A4F8CC30 		strh	r3, [r4, #204]	@ movhi
1853:HANcoder_E407_TTA_CombineModel.c ****     rtDWork.Delay7_DSTATE[1] = rtb_DataStoreRead8;
 4275              		.loc 1 1853 30 view .LVU1543
 4276 0d22 B4F8CA30 		ldrh	r3, [r4, #202]
 4277 0d26 A4F8C830 		strh	r3, [r4, #200]	@ movhi
1854:HANcoder_E407_TTA_CombineModel.c **** 
 4278              		.loc 1 1854 5 is_stmt 1 view .LVU1544
1854:HANcoder_E407_TTA_CombineModel.c **** 
 4279              		.loc 1 1854 30 is_stmt 0 view .LVU1545
 4280 0d2a 0A9B     		ldr	r3, [sp, #40]
 4281 0d2c A4F8CA30 		strh	r3, [r4, #202]	@ movhi
1862:HANcoder_E407_TTA_CombineModel.c **** 
 4282              		.loc 1 1862 5 is_stmt 1 view .LVU1546
1870:HANcoder_E407_TTA_CombineModel.c **** 
 4283              		.loc 1 1870 5 view .LVU1547
1870:HANcoder_E407_TTA_CombineModel.c **** 
 4284              		.loc 1 1870 32 is_stmt 0 view .LVU1548
 4285 0d30 0022     		movs	r2, #0
 4286 0d32 0023     		movs	r3, #0
 4287 0d34 C4E91C23 		strd	r2, [r4, #112]
1874:HANcoder_E407_TTA_CombineModel.c ****       DigoutSet(DIGOUT_PORTE_PIN5, DIGOUT_LOW);
 4288              		.loc 1 1874 5 is_stmt 1 view .LVU1549
1874:HANcoder_E407_TTA_CombineModel.c ****       DigoutSet(DIGOUT_PORTE_PIN5, DIGOUT_LOW);
 4289              		.loc 1 1874 8 is_stmt 0 view .LVU1550
 4290 0d38 002F     		cmp	r7, #0
 4291 0d3a 40F05785 		bne	.L155
1875:HANcoder_E407_TTA_CombineModel.c ****     } else {
 4292              		.loc 1 1875 7 is_stmt 1 view .LVU1551
 4293 0d3e 3946     		mov	r1, r7
 4294 0d40 0A20     		movs	r0, #10
 4295 0d42 FFF7FEFF 		bl	DigoutSet
 4296              	.LVL334:
 4297              	.L156:
1882:HANcoder_E407_TTA_CombineModel.c ****       DigoutSet(DIGOUT_PORTE_PIN6, DIGOUT_LOW);
 4298              		.loc 1 1882 5 view .LVU1552
1882:HANcoder_E407_TTA_CombineModel.c ****       DigoutSet(DIGOUT_PORTE_PIN6, DIGOUT_LOW);
 4299              		.loc 1 1882 8 is_stmt 0 view .LVU1553
 4300 0d46 95F82C10 		ldrb	r1, [r5, #44]	@ zero_extendqisi2
 4301 0d4a 01B1     		cbz	r1, .L411
1885:HANcoder_E407_TTA_CombineModel.c ****     }
 4302              		.loc 1 1885 7 is_stmt 1 view .LVU1554
 4303 0d4c 0121     		movs	r1, #1
 4304              	.L411:
 4305 0d4e 0B20     		movs	r0, #11
 4306 0d50 FFF7FEFF 		bl	DigoutSet
 4307              	.LVL335:
1890:HANcoder_E407_TTA_CombineModel.c **** 
 4308              		.loc 1 1890 5 view .LVU1555
 4309 0d54 2988     		ldrh	r1, [r5]
 4310 0d56 1020     		movs	r0, #16
 4311 0d58 FFF7FEFF 		bl	PwmoutSet
 4312              	.LVL336:
1894:HANcoder_E407_TTA_CombineModel.c ****       DigoutSet(DIGOUT_PORTC_PIN13, DIGOUT_LOW);
 4313              		.loc 1 1894 5 view .LVU1556
1894:HANcoder_E407_TTA_CombineModel.c ****       DigoutSet(DIGOUT_PORTC_PIN13, DIGOUT_LOW);
 4314              		.loc 1 1894 8 is_stmt 0 view .LVU1557
 4315 0d5c 95F82D10 		ldrb	r1, [r5, #45]	@ zero_extendqisi2
 4316 0d60 01B1     		cbz	r1, .L413
1897:HANcoder_E407_TTA_CombineModel.c ****     }
 4317              		.loc 1 1897 7 is_stmt 1 view .LVU1558
 4318 0d62 0121     		movs	r1, #1
 4319              	.L413:
 4320 0d64 4720     		movs	r0, #71
 4321 0d66 FFF7FEFF 		bl	DigoutSet
 4322              	.LVL337:
1169:HANcoder_E407_TTA_CombineModel.c **** 
 4323              		.loc 1 1169 11 is_stmt 0 view .LVU1559
 4324 0d6a 0123     		movs	r3, #1
1904:HANcoder_E407_TTA_CombineModel.c **** 
 4325              		.loc 1 1904 3 is_stmt 1 view .LVU1560
1904:HANcoder_E407_TTA_CombineModel.c **** 
 4326              		.loc 1 1904 41 is_stmt 0 view .LVU1561
 4327 0d6c 8BF80B30 		strb	r3, [fp, #11]
1915:HANcoder_E407_TTA_CombineModel.c ****     rtDWork.Messageselector_MODE = true;
 4328              		.loc 1 1915 3 is_stmt 1 view .LVU1562
1915:HANcoder_E407_TTA_CombineModel.c ****     rtDWork.Messageselector_MODE = true;
 4329              		.loc 1 1915 6 is_stmt 0 view .LVU1563
 4330 0d70 3378     		ldrb	r3, [r6]	@ zero_extendqisi2
1929:HANcoder_E407_TTA_CombineModel.c **** 
 4331              		.loc 1 1929 26 view .LVU1564
 4332 0d72 94F848A1 		ldrb	r10, [r4, #328]	@ zero_extendqisi2
1915:HANcoder_E407_TTA_CombineModel.c ****     rtDWork.Messageselector_MODE = true;
 4333              		.loc 1 1915 6 view .LVU1565
 4334 0d76 002B     		cmp	r3, #0
 4335 0d78 7FF49DA9 		bne	.L445
 4336              	.LVL338:
 4337              	.L161:
3238:HANcoder_E407_TTA_CombineModel.c ****     /* Disable for Enabled SubSystem: '<S10>/MMBS1_RX' */
 4338              		.loc 1 3238 10 is_stmt 1 view .LVU1566
3238:HANcoder_E407_TTA_CombineModel.c ****     /* Disable for Enabled SubSystem: '<S10>/MMBS1_RX' */
 4339              		.loc 1 3238 13 is_stmt 0 view .LVU1567
 4340 0d7c 94F86221 		ldrb	r2, [r4, #354]	@ zero_extendqisi2
 4341 0d80 002A     		cmp	r2, #0
 4342 0d82 3FF43EAB 		beq	.L212
3240:HANcoder_E407_TTA_CombineModel.c ****       rtDWork.MMBS1_RX_MODE = false;
 4343              		.loc 1 3240 5 is_stmt 1 view .LVU1568
3240:HANcoder_E407_TTA_CombineModel.c ****       rtDWork.MMBS1_RX_MODE = false;
 4344              		.loc 1 3240 8 is_stmt 0 view .LVU1569
 4345 0d86 94F86A21 		ldrb	r2, [r4, #362]	@ zero_extendqisi2
 4346 0d8a 0AB1     		cbz	r2, .L213
3241:HANcoder_E407_TTA_CombineModel.c ****     }
 4347              		.loc 1 3241 7 is_stmt 1 view .LVU1570
3241:HANcoder_E407_TTA_CombineModel.c ****     }
 4348              		.loc 1 3241 29 is_stmt 0 view .LVU1571
 4349 0d8c 84F86A31 		strb	r3, [r4, #362]
 4350              	.L213:
3249:HANcoder_E407_TTA_CombineModel.c ****       rtDWork.SSTM1_RX_MODE = false;
 4351              		.loc 1 3249 5 is_stmt 1 view .LVU1572
3249:HANcoder_E407_TTA_CombineModel.c ****       rtDWork.SSTM1_RX_MODE = false;
 4352              		.loc 1 3249 8 is_stmt 0 view .LVU1573
 4353 0d90 94F86931 		ldrb	r3, [r4, #361]	@ zero_extendqisi2
 4354 0d94 13B1     		cbz	r3, .L214
3250:HANcoder_E407_TTA_CombineModel.c ****     }
 4355              		.loc 1 3250 7 is_stmt 1 view .LVU1574
3250:HANcoder_E407_TTA_CombineModel.c ****     }
 4356              		.loc 1 3250 29 is_stmt 0 view .LVU1575
 4357 0d96 0023     		movs	r3, #0
 4358 0d98 84F86931 		strb	r3, [r4, #361]
 4359              	.L214:
3258:HANcoder_E407_TTA_CombineModel.c ****       rtDWork.SYNC1_RX_MODE = false;
 4360              		.loc 1 3258 5 is_stmt 1 view .LVU1576
3258:HANcoder_E407_TTA_CombineModel.c ****       rtDWork.SYNC1_RX_MODE = false;
 4361              		.loc 1 3258 8 is_stmt 0 view .LVU1577
 4362 0d9c 94F86831 		ldrb	r3, [r4, #360]	@ zero_extendqisi2
 4363 0da0 13B1     		cbz	r3, .L215
3259:HANcoder_E407_TTA_CombineModel.c ****     }
 4364              		.loc 1 3259 7 is_stmt 1 view .LVU1578
3259:HANcoder_E407_TTA_CombineModel.c ****     }
 4365              		.loc 1 3259 29 is_stmt 0 view .LVU1579
 4366 0da2 0023     		movs	r3, #0
 4367 0da4 84F86831 		strb	r3, [r4, #360]
 4368              	.L215:
3264:HANcoder_E407_TTA_CombineModel.c ****       rtDWork.TRCK1_ID2_RX_MODE = false;
 4369              		.loc 1 3264 5 is_stmt 1 view .LVU1580
3264:HANcoder_E407_TTA_CombineModel.c ****       rtDWork.TRCK1_ID2_RX_MODE = false;
 4370              		.loc 1 3264 8 is_stmt 0 view .LVU1581
 4371 0da8 94F86731 		ldrb	r3, [r4, #359]	@ zero_extendqisi2
 4372 0dac 13B1     		cbz	r3, .L216
3265:HANcoder_E407_TTA_CombineModel.c ****     }
 4373              		.loc 1 3265 7 is_stmt 1 view .LVU1582
3265:HANcoder_E407_TTA_CombineModel.c ****     }
 4374              		.loc 1 3265 33 is_stmt 0 view .LVU1583
 4375 0dae 0023     		movs	r3, #0
 4376 0db0 84F86731 		strb	r3, [r4, #359]
 4377              	.L216:
3275:HANcoder_E407_TTA_CombineModel.c ****       rtDWork.TRCK1_RX_MODE = false;
 4378              		.loc 1 3275 5 is_stmt 1 view .LVU1584
3275:HANcoder_E407_TTA_CombineModel.c ****       rtDWork.TRCK1_RX_MODE = false;
 4379              		.loc 1 3275 8 is_stmt 0 view .LVU1585
 4380 0db4 94F86631 		ldrb	r3, [r4, #358]	@ zero_extendqisi2
 4381 0db8 13B1     		cbz	r3, .L217
3276:HANcoder_E407_TTA_CombineModel.c ****     }
 4382              		.loc 1 3276 7 is_stmt 1 view .LVU1586
3276:HANcoder_E407_TTA_CombineModel.c ****     }
 4383              		.loc 1 3276 29 is_stmt 0 view .LVU1587
 4384 0dba 0023     		movs	r3, #0
 4385 0dbc 84F86631 		strb	r3, [r4, #358]
 4386              	.L217:
3281:HANcoder_E407_TTA_CombineModel.c ****       rtDWork.TRCK_ID3_RX_MODE = false;
 4387              		.loc 1 3281 5 is_stmt 1 view .LVU1588
3281:HANcoder_E407_TTA_CombineModel.c ****       rtDWork.TRCK_ID3_RX_MODE = false;
 4388              		.loc 1 3281 8 is_stmt 0 view .LVU1589
 4389 0dc0 94F86531 		ldrb	r3, [r4, #357]	@ zero_extendqisi2
 4390 0dc4 13B1     		cbz	r3, .L218
3282:HANcoder_E407_TTA_CombineModel.c ****     }
 4391              		.loc 1 3282 7 is_stmt 1 view .LVU1590
3282:HANcoder_E407_TTA_CombineModel.c ****     }
 4392              		.loc 1 3282 32 is_stmt 0 view .LVU1591
 4393 0dc6 0023     		movs	r3, #0
 4394 0dc8 84F86531 		strb	r3, [r4, #357]
 4395              	.L218:
3288:HANcoder_E407_TTA_CombineModel.c ****       rtDWork.TRLS_ID4_RX_MODE = false;
 4396              		.loc 1 3288 5 is_stmt 1 view .LVU1592
3288:HANcoder_E407_TTA_CombineModel.c ****       rtDWork.TRLS_ID4_RX_MODE = false;
 4397              		.loc 1 3288 8 is_stmt 0 view .LVU1593
 4398 0dcc 94F86431 		ldrb	r3, [r4, #356]	@ zero_extendqisi2
 4399 0dd0 13B1     		cbz	r3, .L219
3289:HANcoder_E407_TTA_CombineModel.c ****     }
 4400              		.loc 1 3289 7 is_stmt 1 view .LVU1594
3289:HANcoder_E407_TTA_CombineModel.c ****     }
 4401              		.loc 1 3289 32 is_stmt 0 view .LVU1595
 4402 0dd2 0023     		movs	r3, #0
 4403 0dd4 84F86431 		strb	r3, [r4, #356]
 4404              	.L219:
3294:HANcoder_E407_TTA_CombineModel.c ****       rtDWork.TRLS_ID5_RX_MODE = false;
 4405              		.loc 1 3294 5 is_stmt 1 view .LVU1596
3294:HANcoder_E407_TTA_CombineModel.c ****       rtDWork.TRLS_ID5_RX_MODE = false;
 4406              		.loc 1 3294 8 is_stmt 0 view .LVU1597
 4407 0dd8 94F86331 		ldrb	r3, [r4, #355]	@ zero_extendqisi2
 4408 0ddc 13B1     		cbz	r3, .L220
3295:HANcoder_E407_TTA_CombineModel.c ****     }
 4409              		.loc 1 3295 7 is_stmt 1 view .LVU1598
3295:HANcoder_E407_TTA_CombineModel.c ****     }
 4410              		.loc 1 3295 32 is_stmt 0 view .LVU1599
 4411 0dde 0023     		movs	r3, #0
 4412 0de0 84F86331 		strb	r3, [r4, #355]
 4413              	.L220:
3299:HANcoder_E407_TTA_CombineModel.c ****   }
 4414              		.loc 1 3299 5 is_stmt 1 view .LVU1600
3299:HANcoder_E407_TTA_CombineModel.c ****   }
 4415              		.loc 1 3299 34 is_stmt 0 view .LVU1601
 4416 0de4 0023     		movs	r3, #0
 4417 0de6 84F86231 		strb	r3, [r4, #354]
 4418 0dea FFF70ABB 		b	.L212
 4419              	.L437:
3393:HANcoder_E407_TTA_CombineModel.c ****   }
 4420              		.loc 1 3393 5 is_stmt 1 view .LVU1602
3393:HANcoder_E407_TTA_CombineModel.c ****   }
 4421              		.loc 1 3393 29 is_stmt 0 view .LVU1603
 4422 0dee 0023     		movs	r3, #0
3404:HANcoder_E407_TTA_CombineModel.c ****     rtAction = 0;
 4423              		.loc 1 3404 6 view .LVU1604
 4424 0df0 BAF1030F 		cmp	r10, #3
3393:HANcoder_E407_TTA_CombineModel.c ****   }
 4425              		.loc 1 3393 29 view .LVU1605
 4426 0df4 84F86131 		strb	r3, [r4, #353]
3402:HANcoder_E407_TTA_CombineModel.c ****   rtAction = -1;
 4427              		.loc 1 3402 3 is_stmt 1 view .LVU1606
 4428              	.LVL339:
3403:HANcoder_E407_TTA_CombineModel.c ****   if (rtDWork.Board_ID <= 3) {
 4429              		.loc 1 3403 3 view .LVU1607
3404:HANcoder_E407_TTA_CombineModel.c ****     rtAction = 0;
 4430              		.loc 1 3404 3 view .LVU1608
3404:HANcoder_E407_TTA_CombineModel.c ****     rtAction = 0;
 4431              		.loc 1 3404 6 is_stmt 0 view .LVU1609
 4432 0df8 3FF624AB 		bhi	.L226
 4433              	.L438:
3405:HANcoder_E407_TTA_CombineModel.c ****   }
 4434              		.loc 1 3405 5 is_stmt 1 view .LVU1610
 4435              	.LVL340:
3408:HANcoder_E407_TTA_CombineModel.c ****   if ((rtPrevAction != rtAction) && (rtPrevAction == 0)) {
 4436              		.loc 1 3408 3 view .LVU1611
3440:HANcoder_E407_TTA_CombineModel.c **** 
 4437              		.loc 1 3440 22 is_stmt 0 view .LVU1612
 4438 0dfc 94F84D31 		ldrb	r3, [r4, #333]	@ zero_extendqisi2
 4439 0e00 94F84E11 		ldrb	r1, [r4, #334]	@ zero_extendqisi2
3440:HANcoder_E407_TTA_CombineModel.c **** 
 4440              		.loc 1 3440 20 view .LVU1613
 4441 0e04 504A     		ldr	r2, .L469+48
3440:HANcoder_E407_TTA_CombineModel.c **** 
 4442              		.loc 1 3440 22 view .LVU1614
 4443 0e06 012B     		cmp	r3, #1
 4444 0e08 28BF     		it	cs
 4445 0e0a 0123     		movcs	r3, #1
 4446 0e0c 0129     		cmp	r1, #1
 4447 0e0e 94BF     		ite	ls
 4448 0e10 5B18     		addls	r3, r3, r1
 4449 0e12 0133     		addhi	r3, r3, #1
3444:HANcoder_E407_TTA_CombineModel.c **** 
 4450              		.loc 1 3444 34 view .LVU1615
 4451 0e14 4720     		movs	r0, #71
3408:HANcoder_E407_TTA_CombineModel.c ****   if ((rtPrevAction != rtAction) && (rtPrevAction == 0)) {
 4452              		.loc 1 3408 30 view .LVU1616
 4453 0e16 0021     		movs	r1, #0
 4454 0e18 84F84611 		strb	r1, [r4, #326]
 4455              	.LVL341:
3409:HANcoder_E407_TTA_CombineModel.c ****   }
 4456              		.loc 1 3409 3 is_stmt 1 view .LVU1617
3410:HANcoder_E407_TTA_CombineModel.c **** 
 4457              		.loc 1 3410 3 view .LVU1618
3412:HANcoder_E407_TTA_CombineModel.c ****     /* Outputs for IfAction SubSystem: '<S1>/Triggered Subsystem' incorporates:
 4458              		.loc 1 3412 3 view .LVU1619
3417:HANcoder_E407_TTA_CombineModel.c **** 
 4459              		.loc 1 3417 5 view .LVU1620
3420:HANcoder_E407_TTA_CombineModel.c **** 
 4460              		.loc 1 3420 5 view .LVU1621
3425:HANcoder_E407_TTA_CombineModel.c ****       rtb_Multiply = rtDWork.PositionID4;
 4461              		.loc 1 3425 5 view .LVU1622
3432:HANcoder_E407_TTA_CombineModel.c ****       rtb_Multiply1 = rtDWork.PositionID5;
 4462              		.loc 1 3432 5 view .LVU1623
3440:HANcoder_E407_TTA_CombineModel.c **** 
 4463              		.loc 1 3440 5 view .LVU1624
3440:HANcoder_E407_TTA_CombineModel.c **** 
 4464              		.loc 1 3440 20 is_stmt 0 view .LVU1625
 4465 0e1c 1370     		strb	r3, [r2]
3444:HANcoder_E407_TTA_CombineModel.c **** 
 4466              		.loc 1 3444 5 is_stmt 1 view .LVU1626
3444:HANcoder_E407_TTA_CombineModel.c **** 
 4467              		.loc 1 3444 34 is_stmt 0 view .LVU1627
 4468 0e1e FFF7FEFF 		bl	DiginGet
 4469              	.LVL342:
3449:HANcoder_E407_TTA_CombineModel.c ****       /* CombinatorialLogic: '<S381>/Logic' incorporates:
 4470              		.loc 1 3449 5 is_stmt 1 view .LVU1628
3449:HANcoder_E407_TTA_CombineModel.c ****       /* CombinatorialLogic: '<S381>/Logic' incorporates:
 4471              		.loc 1 3449 8 is_stmt 0 view .LVU1629
 4472 0e22 0028     		cmp	r0, #0
 4473 0e24 00F0A282 		beq	.L446
3457:HANcoder_E407_TTA_CombineModel.c ****         << 1) + (uint32_T)(ResetPosition != 0.0)) << 1) +
 4474              		.loc 1 3457 7 is_stmt 1 view .LVU1630
3458:HANcoder_E407_TTA_CombineModel.c ****         rtDWork.Memory_PreviousInput];
 4475              		.loc 1 3458 9 is_stmt 0 view .LVU1631
 4476 0e28 94F84F21 		ldrb	r2, [r4, #335]	@ zero_extendqisi2
3458:HANcoder_E407_TTA_CombineModel.c ****         rtDWork.Memory_PreviousInput];
 4477              		.loc 1 3458 17 view .LVU1632
 4478 0e2c 474B     		ldr	r3, .L469+52
3458:HANcoder_E407_TTA_CombineModel.c ****         rtDWork.Memory_PreviousInput];
 4479              		.loc 1 3458 9 view .LVU1633
 4480 0e2e 002A     		cmp	r2, #0
3458:HANcoder_E407_TTA_CombineModel.c ****         rtDWork.Memory_PreviousInput];
 4481              		.loc 1 3458 17 view .LVU1634
 4482 0e30 D3E90001 		ldrd	r0, [r3]
 4483              	.LVL343:
3458:HANcoder_E407_TTA_CombineModel.c ****         rtDWork.Memory_PreviousInput];
 4484              		.loc 1 3458 17 view .LVU1635
 4485 0e34 4FF00002 		mov	r2, #0
 4486 0e38 4FF00003 		mov	r3, #0
3458:HANcoder_E407_TTA_CombineModel.c ****         rtDWork.Memory_PreviousInput];
 4487              		.loc 1 3458 9 view .LVU1636
 4488 0e3c 14BF     		ite	ne
 4489 0e3e 0226     		movne	r6, #2
 4490 0e40 0026     		moveq	r6, #0
3458:HANcoder_E407_TTA_CombineModel.c ****         rtDWork.Memory_PreviousInput];
 4491              		.loc 1 3458 17 view .LVU1637
 4492 0e42 FFF7FEFF 		bl	__aeabi_dcmpeq
 4493              	.LVL344:
 4494 0e46 B0FA80F0 		clz	r0, r0
 4495 0e4a 4009     		lsrs	r0, r0, #5
3457:HANcoder_E407_TTA_CombineModel.c ****         << 1) + (uint32_T)(ResetPosition != 0.0)) << 1) +
 4496              		.loc 1 3457 15 view .LVU1638
 4497 0e4c 4049     		ldr	r1, .L469+56
3459:HANcoder_E407_TTA_CombineModel.c **** 
 4498              		.loc 1 3459 16 view .LVU1639
 4499 0e4e 94F85D21 		ldrb	r2, [r4, #349]	@ zero_extendqisi2
3458:HANcoder_E407_TTA_CombineModel.c ****         rtDWork.Memory_PreviousInput];
 4500              		.loc 1 3458 15 view .LVU1640
 4501 0e52 8319     		adds	r3, r0, r6
3457:HANcoder_E407_TTA_CombineModel.c ****         << 1) + (uint32_T)(ResetPosition != 0.0)) << 1) +
 4502              		.loc 1 3457 15 view .LVU1641
 4503 0e54 01EB4303 		add	r3, r1, r3, lsl #1
3458:HANcoder_E407_TTA_CombineModel.c ****         rtDWork.Memory_PreviousInput];
 4504              		.loc 1 3458 17 view .LVU1642
 4505 0e58 0746     		mov	r7, r0
3457:HANcoder_E407_TTA_CombineModel.c ****         << 1) + (uint32_T)(ResetPosition != 0.0)) << 1) +
 4506              		.loc 1 3457 15 view .LVU1643
 4507 0e5a 9E5C     		ldrb	r6, [r3, r2]	@ zero_extendqisi2
 4508              	.LVL345:
3464:HANcoder_E407_TTA_CombineModel.c ****         /* Outputs for IfAction SubSystem: '<S375>/If Action Subsystem' incorporates:
 4509              		.loc 1 3464 7 is_stmt 1 view .LVU1644
3464:HANcoder_E407_TTA_CombineModel.c ****         /* Outputs for IfAction SubSystem: '<S375>/If Action Subsystem' incorporates:
 4510              		.loc 1 3464 10 is_stmt 0 view .LVU1645
 4511 0e5c 94F84E31 		ldrb	r3, [r4, #334]	@ zero_extendqisi2
 4512 0e60 012B     		cmp	r3, #1
 4513 0e62 00F0E585 		beq	.L447
3477:HANcoder_E407_TTA_CombineModel.c **** 
 4514              		.loc 1 3477 9 is_stmt 1 view .LVU1646
3477:HANcoder_E407_TTA_CombineModel.c **** 
 4515              		.loc 1 3477 20 is_stmt 0 view .LVU1647
 4516 0e66 002E     		cmp	r6, #0
 4517 0e68 40F0FF85 		bne	.L308
 4518 0e6c 3246     		mov	r2, r6
 4519 0e6e 3346     		mov	r3, r6
 4520              	.L235:
3477:HANcoder_E407_TTA_CombineModel.c **** 
 4521              		.loc 1 3477 18 discriminator 4 view .LVU1648
 4522 0e70 85F82320 		strb	r2, [r5, #35]
3488:HANcoder_E407_TTA_CombineModel.c **** 
 4523              		.loc 1 3488 30 discriminator 4 view .LVU1649
 4524 0e74 95F82720 		ldrb	r2, [r5, #39]	@ zero_extendqisi2
3488:HANcoder_E407_TTA_CombineModel.c **** 
 4525              		.loc 1 3488 51 discriminator 4 view .LVU1650
 4526 0e78 5200     		lsls	r2, r2, #1
 4527              	.L234:
3488:HANcoder_E407_TTA_CombineModel.c **** 
 4528              		.loc 1 3488 7 is_stmt 1 view .LVU1651
3488:HANcoder_E407_TTA_CombineModel.c **** 
 4529              		.loc 1 3488 57 is_stmt 0 view .LVU1652
 4530 0e7a 1A44     		add	r2, r2, r3
3498:HANcoder_E407_TTA_CombineModel.c ****         rtDWork.Memory_PreviousInput_d];
 4531              		.loc 1 3498 9 view .LVU1653
 4532 0e7c 94F85031 		ldrb	r3, [r4, #336]	@ zero_extendqisi2
3488:HANcoder_E407_TTA_CombineModel.c **** 
 4533              		.loc 1 3488 18 view .LVU1654
 4534 0e80 C2F34702 		ubfx	r2, r2, #1, #8
3488:HANcoder_E407_TTA_CombineModel.c **** 
 4535              		.loc 1 3488 16 view .LVU1655
 4536 0e84 85F82520 		strb	r2, [r5, #37]
3497:HANcoder_E407_TTA_CombineModel.c ****         << 1) + (uint32_T)(ResetPosition != 0.0)) << 1) +
 4537              		.loc 1 3497 7 is_stmt 1 view .LVU1656
3498:HANcoder_E407_TTA_CombineModel.c ****         rtDWork.Memory_PreviousInput_d];
 4538              		.loc 1 3498 9 is_stmt 0 view .LVU1657
 4539 0e88 03B1     		cbz	r3, .L236
3498:HANcoder_E407_TTA_CombineModel.c ****         rtDWork.Memory_PreviousInput_d];
 4540              		.loc 1 3498 15 view .LVU1658
 4541 0e8a 871C     		adds	r7, r0, #2
 4542              	.L236:
3499:HANcoder_E407_TTA_CombineModel.c **** 
 4543              		.loc 1 3499 16 discriminator 4 view .LVU1659
 4544 0e8c 94F85E31 		ldrb	r3, [r4, #350]	@ zero_extendqisi2
3497:HANcoder_E407_TTA_CombineModel.c ****         << 1) + (uint32_T)(ResetPosition != 0.0)) << 1) +
 4545              		.loc 1 3497 15 discriminator 4 view .LVU1660
 4546 0e90 01EB4701 		add	r1, r1, r7, lsl #1
 4547 0e94 C95C     		ldrb	r1, [r1, r3]	@ zero_extendqisi2
 4548              	.LVL346:
3504:HANcoder_E407_TTA_CombineModel.c ****         /* Outputs for IfAction SubSystem: '<S375>/If Action Subsystem2' incorporates:
 4549              		.loc 1 3504 7 is_stmt 1 discriminator 4 view .LVU1661
3504:HANcoder_E407_TTA_CombineModel.c ****         /* Outputs for IfAction SubSystem: '<S375>/If Action Subsystem2' incorporates:
 4550              		.loc 1 3504 10 is_stmt 0 discriminator 4 view .LVU1662
 4551 0e96 94F84D31 		ldrb	r3, [r4, #333]	@ zero_extendqisi2
 4552 0e9a 012B     		cmp	r3, #1
 4553 0e9c 00F0D785 		beq	.L448
3517:HANcoder_E407_TTA_CombineModel.c **** 
 4554              		.loc 1 3517 9 is_stmt 1 view .LVU1663
3517:HANcoder_E407_TTA_CombineModel.c **** 
 4555              		.loc 1 3517 22 is_stmt 0 view .LVU1664
 4556 0ea0 0029     		cmp	r1, #0
 4557 0ea2 40F0E685 		bne	.L310
 4558 0ea6 0B46     		mov	r3, r1
 4559 0ea8 0846     		mov	r0, r1
 4560              	.L240:
3517:HANcoder_E407_TTA_CombineModel.c **** 
 4561              		.loc 1 3517 20 discriminator 4 view .LVU1665
 4562 0eaa 85F82430 		strb	r3, [r5, #36]
3528:HANcoder_E407_TTA_CombineModel.c **** 
 4563              		.loc 1 3528 30 discriminator 4 view .LVU1666
 4564 0eae 95F82830 		ldrb	r3, [r5, #40]	@ zero_extendqisi2
3528:HANcoder_E407_TTA_CombineModel.c **** 
 4565              		.loc 1 3528 51 discriminator 4 view .LVU1667
 4566 0eb2 5B00     		lsls	r3, r3, #1
 4567              	.L239:
3528:HANcoder_E407_TTA_CombineModel.c **** 
 4568              		.loc 1 3528 7 is_stmt 1 view .LVU1668
3528:HANcoder_E407_TTA_CombineModel.c **** 
 4569              		.loc 1 3528 57 is_stmt 0 view .LVU1669
 4570 0eb4 0344     		add	r3, r3, r0
3528:HANcoder_E407_TTA_CombineModel.c **** 
 4571              		.loc 1 3528 18 view .LVU1670
 4572 0eb6 C3F34703 		ubfx	r3, r3, #1, #8
3531:HANcoder_E407_TTA_CombineModel.c **** 
 4573              		.loc 1 3531 36 view .LVU1671
 4574 0eba 84F85D61 		strb	r6, [r4, #349]
3534:HANcoder_E407_TTA_CombineModel.c ****     }
 4575              		.loc 1 3534 38 view .LVU1672
 4576 0ebe 84F85E11 		strb	r1, [r4, #350]
3528:HANcoder_E407_TTA_CombineModel.c **** 
 4577              		.loc 1 3528 16 view .LVU1673
 4578 0ec2 85F82630 		strb	r3, [r5, #38]
3531:HANcoder_E407_TTA_CombineModel.c **** 
 4579              		.loc 1 3531 7 is_stmt 1 view .LVU1674
3534:HANcoder_E407_TTA_CombineModel.c ****     }
 4580              		.loc 1 3534 7 view .LVU1675
 4581 0ec6 55E2     		b	.L228
 4582              	.LVL347:
 4583              	.L422:
1085:HANcoder_E407_TTA_CombineModel.c ****   }
 4584              		.loc 1 1085 5 view .LVU1676
1096:HANcoder_E407_TTA_CombineModel.c ****     rtAction = 0;
 4585              		.loc 1 1096 6 is_stmt 0 view .LVU1677
 4586 0ec8 94F84831 		ldrb	r3, [r4, #328]	@ zero_extendqisi2
1085:HANcoder_E407_TTA_CombineModel.c ****   }
 4587              		.loc 1 1085 42 view .LVU1678
 4588 0ecc 84F86B01 		strb	r0, [r4, #363]
1094:HANcoder_E407_TTA_CombineModel.c ****   rtAction = -1;
 4589              		.loc 1 1094 3 is_stmt 1 view .LVU1679
 4590              	.LVL348:
1095:HANcoder_E407_TTA_CombineModel.c ****   if (rtDWork.Board_ID == 0) {
 4591              		.loc 1 1095 3 view .LVU1680
1096:HANcoder_E407_TTA_CombineModel.c ****     rtAction = 0;
 4592              		.loc 1 1096 3 view .LVU1681
1096:HANcoder_E407_TTA_CombineModel.c ****     rtAction = 0;
 4593              		.loc 1 1096 6 is_stmt 0 view .LVU1682
 4594 0ed0 002B     		cmp	r3, #0
 4595 0ed2 7FF4AEA8 		bne	.L449
 4596              	.L103:
1097:HANcoder_E407_TTA_CombineModel.c ****   }
 4597              		.loc 1 1097 5 is_stmt 1 view .LVU1683
 4598              	.LVL349:
1100:HANcoder_E407_TTA_CombineModel.c ****   if ((rtPrevAction != rtAction) && (rtPrevAction == 0)) {
 4599              		.loc 1 1100 3 view .LVU1684
1110:HANcoder_E407_TTA_CombineModel.c **** 
 4600              		.loc 1 1110 34 is_stmt 0 view .LVU1685
 4601 0ed6 0E20     		movs	r0, #14
1100:HANcoder_E407_TTA_CombineModel.c ****   if ((rtPrevAction != rtAction) && (rtPrevAction == 0)) {
 4602              		.loc 1 1100 31 view .LVU1686
 4603 0ed8 84F84531 		strb	r3, [r4, #325]
 4604              	.LVL350:
1101:HANcoder_E407_TTA_CombineModel.c ****   }
 4605              		.loc 1 1101 3 is_stmt 1 view .LVU1687
1102:HANcoder_E407_TTA_CombineModel.c **** 
 4606              		.loc 1 1102 3 view .LVU1688
1104:HANcoder_E407_TTA_CombineModel.c ****     /* Outputs for IfAction SubSystem: '<S1>/Setting ID' incorporates:
 4607              		.loc 1 1104 3 view .LVU1689
1110:HANcoder_E407_TTA_CombineModel.c **** 
 4608              		.loc 1 1110 5 view .LVU1690
1110:HANcoder_E407_TTA_CombineModel.c **** 
 4609              		.loc 1 1110 34 is_stmt 0 view .LVU1691
 4610 0edc FFF7FEFF 		bl	DiginGet
 4611              	.LVL351:
 4612 0ee0 8246     		mov	r10, r0
 4613              	.LVL352:
1115:HANcoder_E407_TTA_CombineModel.c ****       : 0);
 4614              		.loc 1 1115 5 is_stmt 1 view .LVU1692
1115:HANcoder_E407_TTA_CombineModel.c ****       : 0);
 4615              		.loc 1 1115 20 is_stmt 0 view .LVU1693
 4616 0ee2 BAF1000A 		subs	r10, r10, #0
 4617              	.LVL353:
1120:HANcoder_E407_TTA_CombineModel.c **** 
 4618              		.loc 1 1120 34 view .LVU1694
 4619 0ee6 4FF00F00 		mov	r0, #15
1115:HANcoder_E407_TTA_CombineModel.c ****       : 0);
 4620              		.loc 1 1115 20 view .LVU1695
 4621 0eea 18BF     		it	ne
 4622 0eec 4FF0010A 		movne	r10, #1
 4623              	.LVL354:
1120:HANcoder_E407_TTA_CombineModel.c **** 
 4624              		.loc 1 1120 5 is_stmt 1 view .LVU1696
1120:HANcoder_E407_TTA_CombineModel.c **** 
 4625              		.loc 1 1120 34 is_stmt 0 view .LVU1697
 4626 0ef0 FFF7FEFF 		bl	DiginGet
 4627              	.LVL355:
1125:HANcoder_E407_TTA_CombineModel.c ****       : 0);
 4628              		.loc 1 1125 5 is_stmt 1 view .LVU1698
1125:HANcoder_E407_TTA_CombineModel.c ****       : 0);
 4629              		.loc 1 1125 21 is_stmt 0 view .LVU1699
 4630 0ef4 08B1     		cbz	r0, .L105
1136:HANcoder_E407_TTA_CombineModel.c ****                           (uint32_T)(rtb_Level2MfileSFunction_d ? (int32_T)
 4631              		.loc 1 1136 27 view .LVU1700
 4632 0ef6 0AF1020A 		add	r10, r10, #2
 4633              	.LVL356:
 4634              	.L105:
1130:HANcoder_E407_TTA_CombineModel.c **** 
 4635              		.loc 1 1130 5 is_stmt 1 discriminator 4 view .LVU1701
1130:HANcoder_E407_TTA_CombineModel.c **** 
 4636              		.loc 1 1130 34 is_stmt 0 discriminator 4 view .LVU1702
 4637 0efa 1020     		movs	r0, #16
 4638              	.LVL357:
1130:HANcoder_E407_TTA_CombineModel.c **** 
 4639              		.loc 1 1130 34 discriminator 4 view .LVU1703
 4640 0efc FFF7FEFF 		bl	DiginGet
 4641              	.LVL358:
1136:HANcoder_E407_TTA_CombineModel.c ****                           (uint32_T)(rtb_Level2MfileSFunction_d ? (int32_T)
 4642              		.loc 1 1136 5 is_stmt 1 discriminator 4 view .LVU1704
1136:HANcoder_E407_TTA_CombineModel.c ****                           (uint32_T)(rtb_Level2MfileSFunction_d ? (int32_T)
 4643              		.loc 1 1136 17 is_stmt 0 discriminator 4 view .LVU1705
 4644 0f00 18B1     		cbz	r0, .L106
1136:HANcoder_E407_TTA_CombineModel.c ****                           (uint32_T)(rtb_Level2MfileSFunction_d ? (int32_T)
 4645              		.loc 1 1136 17 view .LVU1706
 4646 0f02 0AF1040A 		add	r10, r10, #4
 4647 0f06 5FFA8AFA 		uxtb	r10, r10
 4648              	.L106:
1136:HANcoder_E407_TTA_CombineModel.c ****                           (uint32_T)(rtb_Level2MfileSFunction_d ? (int32_T)
 4649              		.loc 1 1136 15 discriminator 4 view .LVU1707
 4650 0f0a 124D     		ldr	r5, .L469+60
 4651 0f0c 85F822A0 		strb	r10, [r5, #34]
 4652 0f10 FFF795B8 		b	.L104
 4653              	.L470:
 4654 0f14 AFF30080 		.align	3
 4655              	.L469:
 4656 0f18 00000040 		.word	1073741824
 4657 0f1c 1BB98E3F 		.word	1066318107
 4658 0f20 00000000 		.word	.LANCHOR40
 4659 0f24 00000000 		.word	.LANCHOR41
 4660 0f28 00000000 		.word	.LANCHOR42
 4661 0f2c 00000000 		.word	.LANCHOR1
 4662 0f30 E7000000 		.word	.LANCHOR2+231
 4663 0f34 F0000000 		.word	.LANCHOR2+240
 4664 0f38 00010000 		.word	.LANCHOR2+256
 4665 0f3c 19010000 		.word	.LANCHOR2+281
 4666 0f40 3C010000 		.word	.LANCHOR2+316
 4667 0f44 A4000000 		.word	.LANCHOR2+164
 4668 0f48 00000000 		.word	.LANCHOR71
 4669 0f4c 00000000 		.word	.LANCHOR72
 4670 0f50 00000000 		.word	rtConstP
 4671 0f54 00000000 		.word	.LANCHOR0
 4672              	.LVL359:
 4673              	.L424:
1929:HANcoder_E407_TTA_CombineModel.c **** 
 4674              		.loc 1 1929 44 discriminator 1 view .LVU1708
 4675 0f58 94F85B21 		ldrb	r2, [r4, #347]	@ zero_extendqisi2
 4676 0f5c 002A     		cmp	r2, #0
 4677 0f5e 00F0C082 		beq	.L163
 4678              	.LVL360:
1941:HANcoder_E407_TTA_CombineModel.c **** 
 4679              		.loc 1 1941 5 is_stmt 1 view .LVU1709
1941:HANcoder_E407_TTA_CombineModel.c **** 
 4680              		.loc 1 1941 25 is_stmt 0 view .LVU1710
 4681 0f62 B4EE667A 		vcmp.f32	s14, s13
 4682 0f66 F1EE10FA 		vmrs	APSR_nzcv, FPSCR
 4683 0f6a 40F03E85 		bne	.L450
 4684              	.LVL361:
1946:HANcoder_E407_TTA_CombineModel.c ****       rtDWork.MMBS1_RX_MODE = true;
 4685              		.loc 1 1946 5 is_stmt 1 view .LVU1711
1993:HANcoder_E407_TTA_CombineModel.c ****       rtDWork.MMBS1_RX_MODE = false;
 4686              		.loc 1 1993 12 view .LVU1712
1993:HANcoder_E407_TTA_CombineModel.c ****       rtDWork.MMBS1_RX_MODE = false;
 4687              		.loc 1 1993 15 is_stmt 0 view .LVU1713
 4688 0f6e 94F86A21 		ldrb	r2, [r4, #362]	@ zero_extendqisi2
 4689 0f72 002A     		cmp	r2, #0
 4690 0f74 3FF4C8A8 		beq	.L170
1994:HANcoder_E407_TTA_CombineModel.c ****     }
 4691              		.loc 1 1994 7 is_stmt 1 view .LVU1714
1994:HANcoder_E407_TTA_CombineModel.c ****     }
 4692              		.loc 1 1994 29 is_stmt 0 view .LVU1715
 4693 0f78 0022     		movs	r2, #0
 4694 0f7a 84F86A21 		strb	r2, [r4, #362]
2000:HANcoder_E407_TTA_CombineModel.c **** 
 4695              		.loc 1 2000 5 is_stmt 1 view .LVU1716
 4696 0f7e FFF7C3B8 		b	.L170
 4697              	.LVL362:
 4698              	.L421:
1070:HANcoder_E407_TTA_CombineModel.c **** 
 4699              		.loc 1 1070 5 view .LVU1717
1075:HANcoder_E407_TTA_CombineModel.c **** 
 4700              		.loc 1 1075 24 is_stmt 0 view .LVU1718
 4701 0f82 974F     		ldr	r7, .L471
 4702 0f84 0026     		movs	r6, #0
1070:HANcoder_E407_TTA_CombineModel.c **** 
 4703              		.loc 1 1070 42 view .LVU1719
 4704 0f86 0121     		movs	r1, #1
1082:HANcoder_E407_TTA_CombineModel.c ****       (tTimeoutAction)((uint8_T)3U));
 4705              		.loc 1 1082 5 view .LVU1720
 4706 0f88 0322     		movs	r2, #3
 4707 0f8a 0720     		movs	r0, #7
1075:HANcoder_E407_TTA_CombineModel.c **** 
 4708              		.loc 1 1075 24 view .LVU1721
 4709 0f8c C4E92467 		strd	r6, [r4, #144]
1070:HANcoder_E407_TTA_CombineModel.c **** 
 4710              		.loc 1 1070 42 view .LVU1722
 4711 0f90 84F86B11 		strb	r1, [r4, #363]
1075:HANcoder_E407_TTA_CombineModel.c **** 
 4712              		.loc 1 1075 5 is_stmt 1 view .LVU1723
1082:HANcoder_E407_TTA_CombineModel.c ****       (tTimeoutAction)((uint8_T)3U));
 4713              		.loc 1 1082 5 view .LVU1724
 4714 0f94 FFF7FEFF 		bl	TimeoutScheduleCompareEvent
 4715              	.LVL363:
 4716 0f98 FFF746B8 		b	.L102
 4717              	.LVL364:
 4718              	.L425:
2004:HANcoder_E407_TTA_CombineModel.c **** 
 4719              		.loc 1 2004 5 view .LVU1725
 4720              	.LBB477:
 490:HANcoder_E407_TTA_CombineModel.c **** {
 4721              		.loc 1 490 6 view .LVU1726
 4722              	.LBB422:
 495:HANcoder_E407_TTA_CombineModel.c ****     /* Update for M-S-Function: '<S120>/S-Function' */
 4723              		.loc 1 495 3 view .LVU1727
 506:HANcoder_E407_TTA_CombineModel.c **** 
 4724              		.loc 1 506 3 view .LVU1728
 506:HANcoder_E407_TTA_CombineModel.c **** 
 4725              		.loc 1 506 31 is_stmt 0 view .LVU1729
 4726 0f9c 0026     		movs	r6, #0
 4727 0f9e 8BF80A60 		strb	r6, [fp, #10]
 4728              	.LBE422:
 4729              	.LBE477:
2011:HANcoder_E407_TTA_CombineModel.c **** 
 4730              		.loc 1 2011 5 is_stmt 1 view .LVU1730
 4731              	.LVL365:
2018:HANcoder_E407_TTA_CombineModel.c **** 
 4732              		.loc 1 2018 5 view .LVU1731
 4733              	.L174:
2028:HANcoder_E407_TTA_CombineModel.c ****       rtDWork.SSTM1_RX_MODE = true;
 4734              		.loc 1 2028 5 view .LVU1732
2060:HANcoder_E407_TTA_CombineModel.c ****       rtDWork.SSTM1_RX_MODE = false;
 4735              		.loc 1 2060 12 view .LVU1733
2060:HANcoder_E407_TTA_CombineModel.c ****       rtDWork.SSTM1_RX_MODE = false;
 4736              		.loc 1 2060 15 is_stmt 0 view .LVU1734
 4737 0fa2 94F86921 		ldrb	r2, [r4, #361]	@ zero_extendqisi2
2067:HANcoder_E407_TTA_CombineModel.c **** 
 4738              		.loc 1 2067 25 view .LVU1735
 4739 0fa6 F0EE087A 		vmov.f32	s15, #3.0e+0
2060:HANcoder_E407_TTA_CombineModel.c ****       rtDWork.SSTM1_RX_MODE = false;
 4740              		.loc 1 2060 15 view .LVU1736
 4741 0faa 12B1     		cbz	r2, .L418
2061:HANcoder_E407_TTA_CombineModel.c ****     }
 4742              		.loc 1 2061 7 is_stmt 1 view .LVU1737
2061:HANcoder_E407_TTA_CombineModel.c ****     }
 4743              		.loc 1 2061 29 is_stmt 0 view .LVU1738
 4744 0fac 0022     		movs	r2, #0
 4745 0fae 84F86921 		strb	r2, [r4, #361]
 4746              	.L418:
2067:HANcoder_E407_TTA_CombineModel.c **** 
 4747              		.loc 1 2067 5 is_stmt 1 view .LVU1739
2067:HANcoder_E407_TTA_CombineModel.c **** 
 4748              		.loc 1 2067 25 is_stmt 0 view .LVU1740
 4749 0fb2 B4EE677A 		vcmp.f32	s14, s15
 4750 0fb6 F1EE10FA 		vmrs	APSR_nzcv, FPSCR
 4751 0fba 7FF4E1A8 		bne	.L180
 4752              	.LVL366:
 4753              	.L178:
2071:HANcoder_E407_TTA_CombineModel.c **** 
 4754              		.loc 1 2071 5 is_stmt 1 view .LVU1741
 4755              	.LBB478:
 490:HANcoder_E407_TTA_CombineModel.c **** {
 4756              		.loc 1 490 6 view .LVU1742
 4757              	.LBB439:
 495:HANcoder_E407_TTA_CombineModel.c ****     /* Update for M-S-Function: '<S120>/S-Function' */
 4758              		.loc 1 495 3 view .LVU1743
 495:HANcoder_E407_TTA_CombineModel.c ****     /* Update for M-S-Function: '<S120>/S-Function' */
 4759              		.loc 1 495 31 is_stmt 0 view .LVU1744
 4760 0fbe 9BF80920 		ldrb	r2, [fp, #9]	@ zero_extendqisi2
 495:HANcoder_E407_TTA_CombineModel.c ****     /* Update for M-S-Function: '<S120>/S-Function' */
 4761              		.loc 1 495 19 view .LVU1745
 4762 0fc2 012A     		cmp	r2, #1
 4763 0fc4 3FF4DDA8 		beq	.L260
 499:HANcoder_E407_TTA_CombineModel.c **** 
 4764              		.loc 1 499 7 is_stmt 1 view .LVU1746
 499:HANcoder_E407_TTA_CombineModel.c **** 
 4765              		.loc 1 499 33 is_stmt 0 view .LVU1747
 4766 0fc8 864B     		ldr	r3, .L471+4
 4767              	.LBE439:
 4768              	.LBE478:
2071:HANcoder_E407_TTA_CombineModel.c **** 
 4769              		.loc 1 2071 5 view .LVU1748
 4770 0fca 874A     		ldr	r2, .L471+8
 4771              	.LBB479:
 4772              	.LBB440:
 499:HANcoder_E407_TTA_CombineModel.c **** 
 4773              		.loc 1 499 33 view .LVU1749
 4774 0fcc 0020     		movs	r0, #0
 502:HANcoder_E407_TTA_CombineModel.c ****     }
 4775              		.loc 1 502 7 view .LVU1750
 4776 0fce 1168     		ldr	r1, [r2]
 499:HANcoder_E407_TTA_CombineModel.c **** 
 4777              		.loc 1 499 33 view .LVU1751
 4778 0fd0 1870     		strb	r0, [r3]
 502:HANcoder_E407_TTA_CombineModel.c ****     }
 4779              		.loc 1 502 7 is_stmt 1 view .LVU1752
 4780 0fd2 0122     		movs	r2, #1
 4781 0fd4 FFF7FEFF 		bl	CanTransmit
 4782              	.LVL367:
 502:HANcoder_E407_TTA_CombineModel.c ****     }
 4783              		.loc 1 502 7 is_stmt 0 view .LVU1753
 4784              	.LBE440:
 4785              	.LBE479:
2085:HANcoder_E407_TTA_CombineModel.c **** 
 4786              		.loc 1 2085 26 view .LVU1754
 4787 0fd8 94F848A1 		ldrb	r10, [r4, #328]	@ zero_extendqisi2
2078:HANcoder_E407_TTA_CombineModel.c **** 
 4788              		.loc 1 2078 29 view .LVU1755
 4789 0fdc 834B     		ldr	r3, .L471+12
2067:HANcoder_E407_TTA_CombineModel.c **** 
 4790              		.loc 1 2067 14 view .LVU1756
 4791 0fde 0122     		movs	r2, #1
 4792              	.LVL368:
 4793              	.LBB480:
 4794              	.LBB441:
 506:HANcoder_E407_TTA_CombineModel.c **** 
 4795              		.loc 1 506 3 is_stmt 1 view .LVU1757
 4796              	.LBE441:
 4797              	.LBE480:
2085:HANcoder_E407_TTA_CombineModel.c **** 
 4798              		.loc 1 2085 54 is_stmt 0 view .LVU1758
 4799 0fe0 BAF1010F 		cmp	r10, #1
2078:HANcoder_E407_TTA_CombineModel.c **** 
 4800              		.loc 1 2078 29 view .LVU1759
 4801 0fe4 1B78     		ldrb	r3, [r3]	@ zero_extendqisi2
 4802              	.LBB481:
 4803              	.LBB442:
 506:HANcoder_E407_TTA_CombineModel.c **** 
 4804              		.loc 1 506 31 view .LVU1760
 4805 0fe6 8BF80920 		strb	r2, [fp, #9]
 4806              	.LBE442:
 4807              	.LBE481:
2078:HANcoder_E407_TTA_CombineModel.c **** 
 4808              		.loc 1 2078 5 is_stmt 1 view .LVU1761
 4809              	.LVL369:
2085:HANcoder_E407_TTA_CombineModel.c **** 
 4810              		.loc 1 2085 5 view .LVU1762
2085:HANcoder_E407_TTA_CombineModel.c **** 
 4811              		.loc 1 2085 54 is_stmt 0 view .LVU1763
 4812 0fea 7FF4D0A8 		bne	.L451
 4813              	.LVL370:
 4814              	.L182:
2095:HANcoder_E407_TTA_CombineModel.c ****       rtDWork.SYNC1_RX_MODE = true;
 4815              		.loc 1 2095 5 is_stmt 1 view .LVU1764
2155:HANcoder_E407_TTA_CombineModel.c ****       rtDWork.SYNC1_RX_MODE = false;
 4816              		.loc 1 2155 12 view .LVU1765
2155:HANcoder_E407_TTA_CombineModel.c ****       rtDWork.SYNC1_RX_MODE = false;
 4817              		.loc 1 2155 15 is_stmt 0 view .LVU1766
 4818 0fee 94F86821 		ldrb	r2, [r4, #360]	@ zero_extendqisi2
 4819 0ff2 12B1     		cbz	r2, .L415
2156:HANcoder_E407_TTA_CombineModel.c ****     }
 4820              		.loc 1 2156 7 is_stmt 1 view .LVU1767
2156:HANcoder_E407_TTA_CombineModel.c ****     }
 4821              		.loc 1 2156 29 is_stmt 0 view .LVU1768
 4822 0ff4 0022     		movs	r2, #0
 4823 0ff6 84F86821 		strb	r2, [r4, #360]
 4824              	.L415:
2162:HANcoder_E407_TTA_CombineModel.c **** 
 4825              		.loc 1 2162 5 is_stmt 1 view .LVU1769
2162:HANcoder_E407_TTA_CombineModel.c **** 
 4826              		.loc 1 2162 24 is_stmt 0 view .LVU1770
 4827 0ffa 012B     		cmp	r3, #1
 4828 0ffc 7FF4CFA8 		bne	.L188
 4829              	.L186:
2167:HANcoder_E407_TTA_CombineModel.c ****       /* DataStoreRead: '<S107>/Data Store Read1' */
 4830              		.loc 1 2167 37 view .LVU1771
 4831 1000 9BF80720 		ldrb	r2, [fp, #7]	@ zero_extendqisi2
2162:HANcoder_E407_TTA_CombineModel.c **** 
 4832              		.loc 1 2162 13 view .LVU1772
 4833 1004 7A4E     		ldr	r6, .L471+16
 4834 1006 0121     		movs	r1, #1
2167:HANcoder_E407_TTA_CombineModel.c ****       /* DataStoreRead: '<S107>/Data Store Read1' */
 4835              		.loc 1 2167 17 view .LVU1773
 4836 1008 8A42     		cmp	r2, r1
2162:HANcoder_E407_TTA_CombineModel.c **** 
 4837              		.loc 1 2162 13 view .LVU1774
 4838 100a 3170     		strb	r1, [r6]
2167:HANcoder_E407_TTA_CombineModel.c ****       /* DataStoreRead: '<S107>/Data Store Read1' */
 4839              		.loc 1 2167 5 is_stmt 1 view .LVU1775
2167:HANcoder_E407_TTA_CombineModel.c ****       /* DataStoreRead: '<S107>/Data Store Read1' */
 4840              		.loc 1 2167 17 is_stmt 0 view .LVU1776
 4841 100c 3FF4CAA8 		beq	.L257
2169:HANcoder_E407_TTA_CombineModel.c **** 
 4842              		.loc 1 2169 7 is_stmt 1 view .LVU1777
2169:HANcoder_E407_TTA_CombineModel.c **** 
 4843              		.loc 1 2169 28 is_stmt 0 view .LVU1778
 4844 1010 B4F8E220 		ldrh	r2, [r4, #226]
2169:HANcoder_E407_TTA_CombineModel.c **** 
 4845              		.loc 1 2169 19 view .LVU1779
 4846 1014 774F     		ldr	r7, .L471+20
2192:HANcoder_E407_TTA_CombineModel.c ****         canTxData.uint8_T_info[1] = ((uint8_T)1U);
 4847              		.loc 1 2192 35 view .LVU1780
 4848 1016 734B     		ldr	r3, .L471+4
2169:HANcoder_E407_TTA_CombineModel.c **** 
 4849              		.loc 1 2169 19 view .LVU1781
 4850 1018 3A80     		strh	r2, [r7]	@ movhi
2175:HANcoder_E407_TTA_CombineModel.c **** 
 4851              		.loc 1 2175 7 is_stmt 1 view .LVU1782
2175:HANcoder_E407_TTA_CombineModel.c **** 
 4852              		.loc 1 2175 27 is_stmt 0 view .LVU1783
 4853 101a 0132     		adds	r2, r2, #1
2193:HANcoder_E407_TTA_CombineModel.c ****         canTxData.uint8_T_info[2] = ((uint8_T)0U);
 4854              		.loc 1 2193 35 view .LVU1784
 4855 101c 5970     		strb	r1, [r3, #1]
2175:HANcoder_E407_TTA_CombineModel.c **** 
 4856              		.loc 1 2175 25 view .LVU1785
 4857 101e A4F8E220 		strh	r2, [r4, #226]	@ movhi
2178:HANcoder_E407_TTA_CombineModel.c **** 
 4858              		.loc 1 2178 7 is_stmt 1 view .LVU1786
2202:HANcoder_E407_TTA_CombineModel.c ****       }
 4859              		.loc 1 2202 9 is_stmt 0 view .LVU1787
 4860 1022 7549     		ldr	r1, .L471+24
2178:HANcoder_E407_TTA_CombineModel.c **** 
 4861              		.loc 1 2178 34 view .LVU1788
 4862 1024 94F84C21 		ldrb	r2, [r4, #332]	@ zero_extendqisi2
2192:HANcoder_E407_TTA_CombineModel.c ****         canTxData.uint8_T_info[1] = ((uint8_T)1U);
 4863              		.loc 1 2192 35 view .LVU1789
 4864 1028 1A70     		strb	r2, [r3]
2194:HANcoder_E407_TTA_CombineModel.c ****         canTxData.uint8_T_info[3] = ((uint8_T)0U);
 4865              		.loc 1 2194 35 view .LVU1790
 4866 102a 0020     		movs	r0, #0
2178:HANcoder_E407_TTA_CombineModel.c **** 
 4867              		.loc 1 2178 25 view .LVU1791
 4868 102c 85F82120 		strb	r2, [r5, #33]
2192:HANcoder_E407_TTA_CombineModel.c ****         canTxData.uint8_T_info[1] = ((uint8_T)1U);
 4869              		.loc 1 2192 9 is_stmt 1 view .LVU1792
2193:HANcoder_E407_TTA_CombineModel.c ****         canTxData.uint8_T_info[2] = ((uint8_T)0U);
 4870              		.loc 1 2193 9 view .LVU1793
2194:HANcoder_E407_TTA_CombineModel.c ****         canTxData.uint8_T_info[3] = ((uint8_T)0U);
 4871              		.loc 1 2194 9 view .LVU1794
2195:HANcoder_E407_TTA_CombineModel.c ****         canTxData.uint8_T_info[4] = ((uint8_T)0U);
 4872              		.loc 1 2195 9 view .LVU1795
2196:HANcoder_E407_TTA_CombineModel.c ****         canTxData.uint8_T_info[5] = ((uint8_T)0U);
 4873              		.loc 1 2196 9 view .LVU1796
2197:HANcoder_E407_TTA_CombineModel.c ****         canTxData.uint8_T_info[6] = ((uint8_T)0U);
 4874              		.loc 1 2197 9 view .LVU1797
2198:HANcoder_E407_TTA_CombineModel.c ****         canTxData.uint8_T_info[7] = ((uint8_T)1U);
 4875              		.loc 1 2198 9 view .LVU1798
2199:HANcoder_E407_TTA_CombineModel.c **** 
 4876              		.loc 1 2199 9 view .LVU1799
2196:HANcoder_E407_TTA_CombineModel.c ****         canTxData.uint8_T_info[5] = ((uint8_T)0U);
 4877              		.loc 1 2196 35 is_stmt 0 view .LVU1800
 4878 1030 4FF08072 		mov	r2, #16777216
 4879 1034 5A60     		str	r2, [r3, #4]
2202:HANcoder_E407_TTA_CombineModel.c ****       }
 4880              		.loc 1 2202 9 is_stmt 1 view .LVU1801
2194:HANcoder_E407_TTA_CombineModel.c ****         canTxData.uint8_T_info[3] = ((uint8_T)0U);
 4881              		.loc 1 2194 35 is_stmt 0 view .LVU1802
 4882 1036 5880     		strh	r0, [r3, #2]	@ movhi
2202:HANcoder_E407_TTA_CombineModel.c ****       }
 4883              		.loc 1 2202 9 view .LVU1803
 4884 1038 0822     		movs	r2, #8
 4885 103a 0968     		ldr	r1, [r1]
 4886 103c FFF7FEFF 		bl	CanTransmit
 4887              	.LVL371:
2213:HANcoder_E407_TTA_CombineModel.c **** 
 4888              		.loc 1 2213 31 view .LVU1804
 4889 1040 6A4B     		ldr	r3, .L471+12
2206:HANcoder_E407_TTA_CombineModel.c **** 
 4890              		.loc 1 2206 40 view .LVU1805
 4891 1042 3278     		ldrb	r2, [r6]	@ zero_extendqisi2
2213:HANcoder_E407_TTA_CombineModel.c **** 
 4892              		.loc 1 2213 31 view .LVU1806
 4893 1044 1B78     		ldrb	r3, [r3]	@ zero_extendqisi2
2219:HANcoder_E407_TTA_CombineModel.c **** 
 4894              		.loc 1 2219 23 view .LVU1807
 4895 1046 94F848A1 		ldrb	r10, [r4, #328]	@ zero_extendqisi2
 4896 104a FFF7ABB8 		b	.L257
 4897              	.LVL372:
 4898              	.L430:
2224:HANcoder_E407_TTA_CombineModel.c **** 
 4899              		.loc 1 2224 27 discriminator 1 view .LVU1808
 4900 104e F0EE007A 		vmov.f32	s15, #2.0e+0
 4901 1052 F4EE676A 		vcmp.f32	s13, s15
 4902 1056 F1EE10FA 		vmrs	APSR_nzcv, FPSCR
 4903 105a 00F03882 		beq	.L452
 4904              	.LVL373:
2229:HANcoder_E407_TTA_CombineModel.c ****       rtDWork.TRCK1_ID2_RX_MODE = true;
 4905              		.loc 1 2229 5 is_stmt 1 view .LVU1809
2230:HANcoder_E407_TTA_CombineModel.c **** 
 4906              		.loc 1 2230 7 view .LVU1810
2237:HANcoder_E407_TTA_CombineModel.c ****         &canRxData_0_TRCK1_ID2.uint8_T_info[0], NULL);
 4907              		.loc 1 2237 28 is_stmt 0 view .LVU1811
 4908 105e 0022     		movs	r2, #0
 4909 1060 664F     		ldr	r7, .L471+28
 4910 1062 674E     		ldr	r6, .L471+32
 4911 1064 0092     		str	r2, [sp]
2230:HANcoder_E407_TTA_CombineModel.c **** 
 4912              		.loc 1 2230 33 view .LVU1812
 4913 1066 0123     		movs	r3, #1
 4914              	.LVL374:
2230:HANcoder_E407_TTA_CombineModel.c **** 
 4915              		.loc 1 2230 33 view .LVU1813
 4916 1068 84F86731 		strb	r3, [r4, #359]
2237:HANcoder_E407_TTA_CombineModel.c ****         &canRxData_0_TRCK1_ID2.uint8_T_info[0], NULL);
 4917              		.loc 1 2237 7 is_stmt 1 view .LVU1814
2237:HANcoder_E407_TTA_CombineModel.c ****         &canRxData_0_TRCK1_ID2.uint8_T_info[0], NULL);
 4918              		.loc 1 2237 28 is_stmt 0 view .LVU1815
 4919 106c 3168     		ldr	r1, [r6]
 4920 106e 3B46     		mov	r3, r7
 4921 1070 1046     		mov	r0, r2
 4922 1072 FFF7FEFF 		bl	CanIoGetMessage
 4923              	.LVL375:
2241:HANcoder_E407_TTA_CombineModel.c ****         /* read the data */
 4924              		.loc 1 2241 7 is_stmt 1 view .LVU1816
2241:HANcoder_E407_TTA_CombineModel.c ****         /* read the data */
 4925              		.loc 1 2241 10 is_stmt 0 view .LVU1817
 4926 1076 0028     		cmp	r0, #0
 4927 1078 40F38984 		ble	.L453
2243:HANcoder_E407_TTA_CombineModel.c ****         rtb_SFunction_o3_l = canRxData_0_TRCK1_ID2.uint8_T_info[1];
 4928              		.loc 1 2243 9 is_stmt 1 view .LVU1818
2243:HANcoder_E407_TTA_CombineModel.c ****         rtb_SFunction_o3_l = canRxData_0_TRCK1_ID2.uint8_T_info[1];
 4929              		.loc 1 2243 28 is_stmt 0 view .LVU1819
 4930 107c 3B78     		ldrb	r3, [r7]	@ zero_extendqisi2
 4931              	.LVL376:
2244:HANcoder_E407_TTA_CombineModel.c ****         rtb_SFunction_o4_m = canRxData_0_TRCK1_ID2.uint8_T_info[2];
 4932              		.loc 1 2244 9 is_stmt 1 view .LVU1820
2244:HANcoder_E407_TTA_CombineModel.c ****         rtb_SFunction_o4_m = canRxData_0_TRCK1_ID2.uint8_T_info[2];
 4933              		.loc 1 2244 28 is_stmt 0 view .LVU1821
 4934 107e 7878     		ldrb	r0, [r7, #1]	@ zero_extendqisi2
 4935              	.LVL377:
2245:HANcoder_E407_TTA_CombineModel.c ****         rtb_SFunction_o5_i = canRxData_0_TRCK1_ID2.uint8_T_info[3];
 4936              		.loc 1 2245 9 is_stmt 1 view .LVU1822
2245:HANcoder_E407_TTA_CombineModel.c ****         rtb_SFunction_o5_i = canRxData_0_TRCK1_ID2.uint8_T_info[3];
 4937              		.loc 1 2245 28 is_stmt 0 view .LVU1823
 4938 1080 BA78     		ldrb	r2, [r7, #2]	@ zero_extendqisi2
 4939              	.LVL378:
2246:HANcoder_E407_TTA_CombineModel.c ****         rtb_SFunction_o6_o = canRxData_0_TRCK1_ID2.uint8_T_info[4];
 4940              		.loc 1 2246 9 is_stmt 1 view .LVU1824
2246:HANcoder_E407_TTA_CombineModel.c ****         rtb_SFunction_o6_o = canRxData_0_TRCK1_ID2.uint8_T_info[4];
 4941              		.loc 1 2246 28 is_stmt 0 view .LVU1825
 4942 1082 F978     		ldrb	r1, [r7, #3]	@ zero_extendqisi2
 4943              	.LVL379:
2247:HANcoder_E407_TTA_CombineModel.c ****         rtb_SFunction_o7_j = canRxData_0_TRCK1_ID2.uint8_T_info[5];
 4944              		.loc 1 2247 9 is_stmt 1 view .LVU1826
2248:HANcoder_E407_TTA_CombineModel.c ****         rtb_SFunction_o8_d = canRxData_0_TRCK1_ID2.uint8_T_info[6];
 4945              		.loc 1 2248 9 view .LVU1827
2249:HANcoder_E407_TTA_CombineModel.c ****         rtb_SFunction_o9_lv = canRxData_0_TRCK1_ID2.uint8_T_info[7];
 4946              		.loc 1 2249 9 view .LVU1828
2249:HANcoder_E407_TTA_CombineModel.c ****         rtb_SFunction_o9_lv = canRxData_0_TRCK1_ID2.uint8_T_info[7];
 4947              		.loc 1 2249 28 is_stmt 0 view .LVU1829
 4948 1084 BF79     		ldrb	r7, [r7, #6]	@ zero_extendqisi2
 4949              	.LVL380:
2250:HANcoder_E407_TTA_CombineModel.c ****       }
 4950              		.loc 1 2250 9 is_stmt 1 view .LVU1830
2254:HANcoder_E407_TTA_CombineModel.c ****                        rtb_SFunction_o3_l, rtb_SFunction_o4_m,
 4951              		.loc 1 2254 7 view .LVU1831
 4952              	.LBB482:
 4953              	.LBI482:
 444:HANcoder_E407_TTA_CombineModel.c ****                       uint8_T rtu_In3, uint8_T rtu_In4, uint8_T rtu_In5, uint8_T
 4954              		.loc 1 444 6 view .LVU1832
 4955              	.LBB483:
 449:HANcoder_E407_TTA_CombineModel.c ****   uint8_T rtb_In6;
 4956              		.loc 1 449 3 view .LVU1833
 450:HANcoder_E407_TTA_CombineModel.c ****   uint8_T rtb_In8_m;
 4957              		.loc 1 450 3 view .LVU1834
 451:HANcoder_E407_TTA_CombineModel.c **** 
 4958              		.loc 1 451 3 view .LVU1835
 456:HANcoder_E407_TTA_CombineModel.c ****     /* SignalConversion generated from: '<S119>/In1' */
 4959              		.loc 1 456 3 view .LVU1836
 458:HANcoder_E407_TTA_CombineModel.c **** 
 4960              		.loc 1 458 5 view .LVU1837
 461:HANcoder_E407_TTA_CombineModel.c **** 
 4961              		.loc 1 461 5 view .LVU1838
 464:HANcoder_E407_TTA_CombineModel.c **** 
 4962              		.loc 1 464 5 view .LVU1839
 467:HANcoder_E407_TTA_CombineModel.c **** 
 4963              		.loc 1 467 5 view .LVU1840
 458:HANcoder_E407_TTA_CombineModel.c **** 
 4964              		.loc 1 458 17 is_stmt 0 view .LVU1841
 4965 1086 85F8BE30 		strb	r3, [r5, #190]
 461:HANcoder_E407_TTA_CombineModel.c **** 
 4966              		.loc 1 461 17 view .LVU1842
 4967 108a 85F8BF00 		strb	r0, [r5, #191]
 464:HANcoder_E407_TTA_CombineModel.c **** 
 4968              		.loc 1 464 17 view .LVU1843
 4969 108e 85F8C020 		strb	r2, [r5, #192]
 467:HANcoder_E407_TTA_CombineModel.c **** 
 4970              		.loc 1 467 17 view .LVU1844
 4971 1092 85F8C110 		strb	r1, [r5, #193]
 470:HANcoder_E407_TTA_CombineModel.c **** 
 4972              		.loc 1 470 5 is_stmt 1 view .LVU1845
 473:HANcoder_E407_TTA_CombineModel.c **** 
 4973              		.loc 1 473 5 view .LVU1846
 476:HANcoder_E407_TTA_CombineModel.c **** 
 4974              		.loc 1 476 5 view .LVU1847
 476:HANcoder_E407_TTA_CombineModel.c **** 
 4975              		.loc 1 476 17 is_stmt 0 view .LVU1848
 4976 1096 85F8C270 		strb	r7, [r5, #194]
 479:HANcoder_E407_TTA_CombineModel.c ****   }
 4977              		.loc 1 479 5 is_stmt 1 view .LVU1849
 4978              	.LVL381:
 4979              	.L255:
 479:HANcoder_E407_TTA_CombineModel.c ****   }
 4980              		.loc 1 479 5 is_stmt 0 view .LVU1850
 4981              	.LBE483:
 4982              	.LBE482:
2263:HANcoder_E407_TTA_CombineModel.c **** 
 4983              		.loc 1 2263 7 is_stmt 1 view .LVU1851
2266:HANcoder_E407_TTA_CombineModel.c **** 
 4984              		.loc 1 2266 7 view .LVU1852
 4985              	.LBB484:
 4986              	.LBI484:
 524:HANcoder_E407_TTA_CombineModel.c **** {
 4987              		.loc 1 524 6 view .LVU1853
 4988              	.LBB485:
 529:HANcoder_E407_TTA_CombineModel.c **** }
 4989              		.loc 1 529 3 view .LVU1854
 529:HANcoder_E407_TTA_CombineModel.c **** }
 4990              		.loc 1 529 15 is_stmt 0 view .LVU1855
 4991 109a 1B02     		lsls	r3, r3, #8
 4992              	.LVL382:
 529:HANcoder_E407_TTA_CombineModel.c **** }
 4993              		.loc 1 529 15 view .LVU1856
 4994              	.LBE485:
 4995              	.LBE484:
2273:HANcoder_E407_TTA_CombineModel.c ****                          rtB.EnabledSubsystem_b.In2);
 4996              		.loc 1 2273 15 view .LVU1857
 4997 109c 1844     		add	r0, r0, r3
 4998              	.LBB487:
 4999              	.LBB486:
 529:HANcoder_E407_TTA_CombineModel.c **** }
 5000              		.loc 1 529 13 view .LVU1858
 5001 109e A5F8C430 		strh	r3, [r5, #196]	@ movhi
 5002              	.LVL383:
 529:HANcoder_E407_TTA_CombineModel.c **** }
 5003              		.loc 1 529 13 view .LVU1859
 5004              	.LBE486:
 5005              	.LBE487:
2273:HANcoder_E407_TTA_CombineModel.c ****                          rtB.EnabledSubsystem_b.In2);
 5006              		.loc 1 2273 7 is_stmt 1 view .LVU1860
2273:HANcoder_E407_TTA_CombineModel.c ****                          rtB.EnabledSubsystem_b.In2);
 5007              		.loc 1 2273 13 is_stmt 0 view .LVU1861
 5008 10a2 584B     		ldr	r3, .L471+36
 5009              	.LBB488:
 5010              	.LBB489:
 529:HANcoder_E407_TTA_CombineModel.c **** }
 5011              		.loc 1 529 15 view .LVU1862
 5012 10a4 1202     		lsls	r2, r2, #8
 5013              	.LBE489:
 5014              	.LBE488:
2273:HANcoder_E407_TTA_CombineModel.c ****                          rtB.EnabledSubsystem_b.In2);
 5015              		.loc 1 2273 13 view .LVU1863
 5016 10a6 1880     		strh	r0, [r3]	@ movhi
2277:HANcoder_E407_TTA_CombineModel.c **** 
 5017              		.loc 1 2277 7 is_stmt 1 view .LVU1864
 5018              	.LVL384:
2280:HANcoder_E407_TTA_CombineModel.c **** 
 5019              		.loc 1 2280 7 view .LVU1865
 5020              	.LBB492:
 5021              	.LBI488:
 524:HANcoder_E407_TTA_CombineModel.c **** {
 5022              		.loc 1 524 6 view .LVU1866
 5023              	.LBB490:
 529:HANcoder_E407_TTA_CombineModel.c **** }
 5024              		.loc 1 529 3 view .LVU1867
 529:HANcoder_E407_TTA_CombineModel.c **** }
 5025              		.loc 1 529 3 is_stmt 0 view .LVU1868
 5026              	.LBE490:
 5027              	.LBE492:
2287:HANcoder_E407_TTA_CombineModel.c ****                          rtB.EnabledSubsystem_b.In4);
 5028              		.loc 1 2287 7 is_stmt 1 view .LVU1869
2287:HANcoder_E407_TTA_CombineModel.c ****                          rtB.EnabledSubsystem_b.In4);
 5029              		.loc 1 2287 13 is_stmt 0 view .LVU1870
 5030 10a8 574B     		ldr	r3, .L471+40
 5031              	.LBB493:
 5032              	.LBB491:
 529:HANcoder_E407_TTA_CombineModel.c **** }
 5033              		.loc 1 529 13 view .LVU1871
 5034 10aa A5F8C620 		strh	r2, [r5, #198]	@ movhi
 5035              	.LBE491:
 5036              	.LBE493:
2287:HANcoder_E407_TTA_CombineModel.c ****                          rtB.EnabledSubsystem_b.In4);
 5037              		.loc 1 2287 15 view .LVU1872
 5038 10ae 1144     		add	r1, r1, r2
2287:HANcoder_E407_TTA_CombineModel.c ****                          rtB.EnabledSubsystem_b.In4);
 5039              		.loc 1 2287 13 view .LVU1873
 5040 10b0 1980     		strh	r1, [r3]	@ movhi
2291:HANcoder_E407_TTA_CombineModel.c **** 
 5041              		.loc 1 2291 7 is_stmt 1 view .LVU1874
 5042              	.LVL385:
 5043              	.LBB494:
 5044              	.LBI494:
 545:HANcoder_E407_TTA_CombineModel.c **** {
 5045              		.loc 1 545 6 view .LVU1875
 5046              	.LBB495:
 550:HANcoder_E407_TTA_CombineModel.c **** }
 5047              		.loc 1 550 3 view .LVU1876
 550:HANcoder_E407_TTA_CombineModel.c **** }
 5048              		.loc 1 550 15 is_stmt 0 view .LVU1877
 5049 10b2 7B08     		lsrs	r3, r7, #1
 550:HANcoder_E407_TTA_CombineModel.c **** }
 5050              		.loc 1 550 13 view .LVU1878
 5051 10b4 85F8BD30 		strb	r3, [r5, #189]
 5052              	.LVL386:
 550:HANcoder_E407_TTA_CombineModel.c **** }
 5053              		.loc 1 550 13 view .LVU1879
 5054              	.LBE495:
 5055              	.LBE494:
2296:HANcoder_E407_TTA_CombineModel.c **** 
 5056              		.loc 1 2296 7 is_stmt 1 view .LVU1880
 5057              	.LBB496:
 5058              	.LBI496:
 561:HANcoder_E407_TTA_CombineModel.c **** {
 5059              		.loc 1 561 6 view .LVU1881
 5060              	.LBB497:
 566:HANcoder_E407_TTA_CombineModel.c **** }
 5061              		.loc 1 566 3 view .LVU1882
 5062              	.LBE497:
 5063              	.LBE496:
 5064              	.LBB499:
 5065              	.LBB500:
 550:HANcoder_E407_TTA_CombineModel.c **** }
 5066              		.loc 1 550 13 is_stmt 0 view .LVU1883
 5067 10b8 85F8B630 		strb	r3, [r5, #182]
 5068              	.LBE500:
 5069              	.LBE499:
 5070              	.LBB503:
 5071              	.LBB498:
 566:HANcoder_E407_TTA_CombineModel.c **** }
 5072              		.loc 1 566 15 view .LVU1884
 5073 10bc BB08     		lsrs	r3, r7, #2
 566:HANcoder_E407_TTA_CombineModel.c **** }
 5074              		.loc 1 566 13 view .LVU1885
 5075 10be 85F8BC30 		strb	r3, [r5, #188]
 5076              	.LVL387:
 566:HANcoder_E407_TTA_CombineModel.c **** }
 5077              		.loc 1 566 13 view .LVU1886
 5078              	.LBE498:
 5079              	.LBE503:
2301:HANcoder_E407_TTA_CombineModel.c **** 
 5080              		.loc 1 2301 7 is_stmt 1 view .LVU1887
 5081              	.LBB504:
 5082              	.LBI504:
 577:HANcoder_E407_TTA_CombineModel.c **** {
 5083              		.loc 1 577 6 view .LVU1888
 5084              	.LBB505:
 582:HANcoder_E407_TTA_CombineModel.c **** }
 5085              		.loc 1 582 3 view .LVU1889
 582:HANcoder_E407_TTA_CombineModel.c **** }
 5086              		.loc 1 582 15 is_stmt 0 view .LVU1890
 5087 10c2 FB08     		lsrs	r3, r7, #3
 582:HANcoder_E407_TTA_CombineModel.c **** }
 5088              		.loc 1 582 13 view .LVU1891
 5089 10c4 85F8BB30 		strb	r3, [r5, #187]
 5090              	.LVL388:
 582:HANcoder_E407_TTA_CombineModel.c **** }
 5091              		.loc 1 582 13 view .LVU1892
 5092              	.LBE505:
 5093              	.LBE504:
2306:HANcoder_E407_TTA_CombineModel.c **** 
 5094              		.loc 1 2306 7 is_stmt 1 view .LVU1893
 5095              	.LBB506:
 5096              	.LBI506:
 593:HANcoder_E407_TTA_CombineModel.c **** {
 5097              		.loc 1 593 6 view .LVU1894
 5098              	.LBB507:
 598:HANcoder_E407_TTA_CombineModel.c **** }
 5099              		.loc 1 598 3 view .LVU1895
 598:HANcoder_E407_TTA_CombineModel.c **** }
 5100              		.loc 1 598 15 is_stmt 0 view .LVU1896
 5101 10c8 3B09     		lsrs	r3, r7, #4
 598:HANcoder_E407_TTA_CombineModel.c **** }
 5102              		.loc 1 598 13 view .LVU1897
 5103 10ca 85F8BA30 		strb	r3, [r5, #186]
 5104              	.LVL389:
 598:HANcoder_E407_TTA_CombineModel.c **** }
 5105              		.loc 1 598 13 view .LVU1898
 5106              	.LBE507:
 5107              	.LBE506:
2311:HANcoder_E407_TTA_CombineModel.c **** 
 5108              		.loc 1 2311 7 is_stmt 1 view .LVU1899
 5109              	.LBB508:
 5110              	.LBI508:
 609:HANcoder_E407_TTA_CombineModel.c **** {
 5111              		.loc 1 609 6 view .LVU1900
 5112              	.LBB509:
 614:HANcoder_E407_TTA_CombineModel.c **** }
 5113              		.loc 1 614 3 view .LVU1901
 614:HANcoder_E407_TTA_CombineModel.c **** }
 5114              		.loc 1 614 15 is_stmt 0 view .LVU1902
 5115 10ce 7B09     		lsrs	r3, r7, #5
 614:HANcoder_E407_TTA_CombineModel.c **** }
 5116              		.loc 1 614 13 view .LVU1903
 5117 10d0 85F8B930 		strb	r3, [r5, #185]
 5118              	.LVL390:
 614:HANcoder_E407_TTA_CombineModel.c **** }
 5119              		.loc 1 614 13 view .LVU1904
 5120              	.LBE509:
 5121              	.LBE508:
2316:HANcoder_E407_TTA_CombineModel.c **** 
 5122              		.loc 1 2316 7 is_stmt 1 view .LVU1905
 5123              	.LBB510:
 5124              	.LBI510:
 625:HANcoder_E407_TTA_CombineModel.c **** {
 5125              		.loc 1 625 6 view .LVU1906
 5126              	.LBB511:
 630:HANcoder_E407_TTA_CombineModel.c **** }
 5127              		.loc 1 630 3 view .LVU1907
 630:HANcoder_E407_TTA_CombineModel.c **** }
 5128              		.loc 1 630 15 is_stmt 0 view .LVU1908
 5129 10d4 BB09     		lsrs	r3, r7, #6
 5130              	.LBE511:
 5131              	.LBE510:
 5132              	.LBB513:
 5133              	.LBB514:
 646:HANcoder_E407_TTA_CombineModel.c **** }
 5134              		.loc 1 646 15 view .LVU1909
 5135 10d6 FF09     		lsrs	r7, r7, #7
 5136              	.LBE514:
 5137              	.LBE513:
 5138              	.LBB516:
 5139              	.LBB512:
 630:HANcoder_E407_TTA_CombineModel.c **** }
 5140              		.loc 1 630 13 view .LVU1910
 5141 10d8 85F8B830 		strb	r3, [r5, #184]
 5142              	.LVL391:
 630:HANcoder_E407_TTA_CombineModel.c **** }
 5143              		.loc 1 630 13 view .LVU1911
 5144              	.LBE512:
 5145              	.LBE516:
2321:HANcoder_E407_TTA_CombineModel.c **** 
 5146              		.loc 1 2321 7 is_stmt 1 view .LVU1912
 5147              	.LBB517:
 5148              	.LBI513:
 641:HANcoder_E407_TTA_CombineModel.c **** {
 5149              		.loc 1 641 6 view .LVU1913
 5150              	.LBB515:
 646:HANcoder_E407_TTA_CombineModel.c **** }
 5151              		.loc 1 646 3 view .LVU1914
 646:HANcoder_E407_TTA_CombineModel.c **** }
 5152              		.loc 1 646 13 is_stmt 0 view .LVU1915
 5153 10dc 85F8B770 		strb	r7, [r5, #183]
 5154              	.LVL392:
 646:HANcoder_E407_TTA_CombineModel.c **** }
 5155              		.loc 1 646 13 view .LVU1916
 5156              	.LBE515:
 5157              	.LBE517:
2326:HANcoder_E407_TTA_CombineModel.c **** 
 5158              		.loc 1 2326 7 is_stmt 1 view .LVU1917
 5159              	.LBB518:
 5160              	.LBI499:
 545:HANcoder_E407_TTA_CombineModel.c **** {
 5161              		.loc 1 545 6 view .LVU1918
 5162              	.LBB501:
 550:HANcoder_E407_TTA_CombineModel.c **** }
 5163              		.loc 1 550 3 view .LVU1919
 550:HANcoder_E407_TTA_CombineModel.c **** }
 5164              		.loc 1 550 3 is_stmt 0 view .LVU1920
 5165              	.LBE501:
 5166              	.LBE518:
2336:HANcoder_E407_TTA_CombineModel.c **** 
 5167              		.loc 1 2336 5 is_stmt 1 view .LVU1921
 5168              	.LBB519:
 5169              	.LBB502:
 550:HANcoder_E407_TTA_CombineModel.c **** }
 5170              		.loc 1 550 13 is_stmt 0 view .LVU1922
 5171 10e0 0020     		movs	r0, #0
 5172 10e2 FFF778B8 		b	.L194
 5173              	.LVL393:
 5174              	.L196:
 550:HANcoder_E407_TTA_CombineModel.c **** }
 5175              		.loc 1 550 13 view .LVU1923
 5176              	.LBE502:
 5177              	.LBE519:
2391:HANcoder_E407_TTA_CombineModel.c ****       rtDWork.TRCK1_RX_MODE = true;
 5178              		.loc 1 2391 5 is_stmt 1 view .LVU1924
2491:HANcoder_E407_TTA_CombineModel.c ****       rtDWork.TRCK1_RX_MODE = false;
 5179              		.loc 1 2491 12 view .LVU1925
2491:HANcoder_E407_TTA_CombineModel.c ****       rtDWork.TRCK1_RX_MODE = false;
 5180              		.loc 1 2491 15 is_stmt 0 view .LVU1926
 5181 10e6 94F86631 		ldrb	r3, [r4, #358]	@ zero_extendqisi2
 5182 10ea 002B     		cmp	r3, #0
 5183 10ec 3FF413A9 		beq	.L199
2492:HANcoder_E407_TTA_CombineModel.c ****     }
 5184              		.loc 1 2492 7 is_stmt 1 view .LVU1927
2492:HANcoder_E407_TTA_CombineModel.c ****     }
 5185              		.loc 1 2492 29 is_stmt 0 view .LVU1928
 5186 10f0 0023     		movs	r3, #0
 5187 10f2 84F86631 		strb	r3, [r4, #358]
2498:HANcoder_E407_TTA_CombineModel.c **** 
 5188              		.loc 1 2498 5 is_stmt 1 view .LVU1929
 5189 10f6 FFF70EB9 		b	.L199
 5190              	.LVL394:
 5191              	.L435:
3001:HANcoder_E407_TTA_CombineModel.c **** 
 5192              		.loc 1 3001 30 is_stmt 0 discriminator 1 view .LVU1930
 5193 10fa F1EE047A 		vmov.f32	s15, #5.0e+0
 5194 10fe B4EE677A 		vcmp.f32	s14, s15
 5195 1102 F1EE10FA 		vmrs	APSR_nzcv, FPSCR
 5196 1106 40F09D81 		bne	.L209
 5197              	.LVL395:
3006:HANcoder_E407_TTA_CombineModel.c ****       rtDWork.TRLS_ID5_RX_MODE = true;
 5198              		.loc 1 3006 5 is_stmt 1 view .LVU1931
3121:HANcoder_E407_TTA_CombineModel.c ****       rtDWork.TRLS_ID5_RX_MODE = false;
 5199              		.loc 1 3121 12 view .LVU1932
3121:HANcoder_E407_TTA_CombineModel.c ****       rtDWork.TRLS_ID5_RX_MODE = false;
 5200              		.loc 1 3121 15 is_stmt 0 view .LVU1933
 5201 110a 94F86331 		ldrb	r3, [r4, #355]	@ zero_extendqisi2
 5202 110e 13B1     		cbz	r3, .L272
3122:HANcoder_E407_TTA_CombineModel.c ****     }
 5203              		.loc 1 3122 7 is_stmt 1 view .LVU1934
3122:HANcoder_E407_TTA_CombineModel.c ****     }
 5204              		.loc 1 3122 32 is_stmt 0 view .LVU1935
 5205 1110 0023     		movs	r3, #0
 5206 1112 84F86331 		strb	r3, [r4, #355]
3128:HANcoder_E407_TTA_CombineModel.c **** 
 5207              		.loc 1 3128 5 is_stmt 1 view .LVU1936
 5208              	.L272:
 5209              	.LVL396:
3133:HANcoder_E407_TTA_CombineModel.c ****       /* DataStoreRead: '<S117>/Data Store Read3' */
 5210              		.loc 1 3133 5 view .LVU1937
3133:HANcoder_E407_TTA_CombineModel.c ****       /* DataStoreRead: '<S117>/Data Store Read3' */
 5211              		.loc 1 3133 37 is_stmt 0 view .LVU1938
 5212 1116 9BF80230 		ldrb	r3, [fp, #2]	@ zero_extendqisi2
3133:HANcoder_E407_TTA_CombineModel.c ****       /* DataStoreRead: '<S117>/Data Store Read3' */
 5213              		.loc 1 3133 17 view .LVU1939
 5214 111a 012B     		cmp	r3, #1
 5215 111c 3FF46FA9 		beq	.L242
3135:HANcoder_E407_TTA_CombineModel.c **** 
 5216              		.loc 1 3135 7 is_stmt 1 view .LVU1940
3151:HANcoder_E407_TTA_CombineModel.c **** 
 5217              		.loc 1 3151 7 is_stmt 0 view .LVU1941
 5218 1120 3A49     		ldr	r1, .L471+44
 5219              	.LBB520:
 5220              	.LBB521:
 678:HANcoder_E407_TTA_CombineModel.c **** }
 5221              		.loc 1 678 15 view .LVU1942
 5222 1122 94F85701 		ldrb	r0, [r4, #343]	@ zero_extendqisi2
 5223              	.LBE521:
 5224              	.LBE520:
 5225              	.LBB525:
 5226              	.LBB526:
 662:HANcoder_E407_TTA_CombineModel.c **** }
 5227              		.loc 1 662 15 view .LVU1943
 5228 1126 91F82230 		ldrb	r3, [r1, #34]	@ zero_extendqisi2
 5229              	.LBE526:
 5230              	.LBE525:
 5231              	.LBB530:
 5232              	.LBB531:
 694:HANcoder_E407_TTA_CombineModel.c **** }
 5233              		.loc 1 694 15 view .LVU1944
 5234 112a 91F82320 		ldrb	r2, [r1, #35]	@ zero_extendqisi2
 5235              	.LBE531:
 5236              	.LBE530:
3182:HANcoder_E407_TTA_CombineModel.c ****         ((uint32_T)rtConstB.Cast7 + rtB.BitShift1_n4.y) + rtB.BitShift_a0.y) +
 5237              		.loc 1 3182 49 view .LVU1945
 5238 112e 91F82860 		ldrb	r6, [r1, #40]	@ zero_extendqisi2
 5239              	.LBB536:
 5240              	.LBB522:
 678:HANcoder_E407_TTA_CombineModel.c **** }
 5241              		.loc 1 678 15 view .LVU1946
 5242 1132 4000     		lsls	r0, r0, #1
 5243              	.LBE522:
 5244              	.LBE536:
 5245              	.LBB537:
 5246              	.LBB527:
 662:HANcoder_E407_TTA_CombineModel.c **** }
 5247              		.loc 1 662 15 view .LVU1947
 5248 1134 9B00     		lsls	r3, r3, #2
 5249 1136 DBB2     		uxtb	r3, r3
 5250              	.LBE527:
 5251              	.LBE537:
 5252              	.LBB538:
 5253              	.LBB523:
 678:HANcoder_E407_TTA_CombineModel.c **** }
 5254              		.loc 1 678 15 view .LVU1948
 5255 1138 C0B2     		uxtb	r0, r0
 678:HANcoder_E407_TTA_CombineModel.c **** }
 5256              		.loc 1 678 13 view .LVU1949
 5257 113a 85F83D00 		strb	r0, [r5, #61]
 5258              	.LBE523:
 5259              	.LBE538:
 5260              	.LBB539:
 5261              	.LBB528:
 662:HANcoder_E407_TTA_CombineModel.c **** }
 5262              		.loc 1 662 13 view .LVU1950
 5263 113e 85F83E30 		strb	r3, [r5, #62]
 5264              	.LBE528:
 5265              	.LBE539:
3182:HANcoder_E407_TTA_CombineModel.c ****         ((uint32_T)rtConstB.Cast7 + rtB.BitShift1_n4.y) + rtB.BitShift_a0.y) +
 5266              		.loc 1 3182 49 view .LVU1951
 5267 1142 1844     		add	r0, r0, r3
 5268              	.LBB540:
 5269              	.LBB541:
 710:HANcoder_E407_TTA_CombineModel.c **** }
 5270              		.loc 1 710 15 view .LVU1952
 5271 1144 91F82430 		ldrb	r3, [r1, #36]	@ zero_extendqisi2
 5272              	.LBE541:
 5273              	.LBE540:
 5274              	.LBB546:
 5275              	.LBB532:
 694:HANcoder_E407_TTA_CombineModel.c **** }
 5276              		.loc 1 694 15 view .LVU1953
 5277 1148 D200     		lsls	r2, r2, #3
 5278              	.LBE532:
 5279              	.LBE546:
3182:HANcoder_E407_TTA_CombineModel.c ****         ((uint32_T)rtConstB.Cast7 + rtB.BitShift1_n4.y) + rtB.BitShift_a0.y) +
 5280              		.loc 1 3182 49 view .LVU1954
 5281 114a 3044     		add	r0, r0, r6
 5282              	.LBB547:
 5283              	.LBB533:
 694:HANcoder_E407_TTA_CombineModel.c **** }
 5284              		.loc 1 694 15 view .LVU1955
 5285 114c D2B2     		uxtb	r2, r2
 5286              	.LBE533:
 5287              	.LBE547:
 5288              	.LBB548:
 5289              	.LBB542:
 710:HANcoder_E407_TTA_CombineModel.c **** }
 5290              		.loc 1 710 15 view .LVU1956
 5291 114e 1B01     		lsls	r3, r3, #4
 5292              	.LBE542:
 5293              	.LBE548:
 5294              	.LBB549:
 5295              	.LBB534:
 694:HANcoder_E407_TTA_CombineModel.c **** }
 5296              		.loc 1 694 13 view .LVU1957
 5297 1150 85F83C20 		strb	r2, [r5, #60]
 5298              	.LBE534:
 5299              	.LBE549:
 5300              	.LBB550:
 5301              	.LBB543:
 710:HANcoder_E407_TTA_CombineModel.c **** }
 5302              		.loc 1 710 15 view .LVU1958
 5303 1154 DBB2     		uxtb	r3, r3
 5304              	.LBE543:
 5305              	.LBE550:
3182:HANcoder_E407_TTA_CombineModel.c ****         ((uint32_T)rtConstB.Cast7 + rtB.BitShift1_n4.y) + rtB.BitShift_a0.y) +
 5306              		.loc 1 3182 29 view .LVU1959
 5307 1156 0244     		add	r2, r2, r0
 5308              	.LBB551:
 5309              	.LBB544:
 710:HANcoder_E407_TTA_CombineModel.c **** }
 5310              		.loc 1 710 13 view .LVU1960
 5311 1158 85F83B30 		strb	r3, [r5, #59]
 5312              	.LBE544:
 5313              	.LBE551:
3182:HANcoder_E407_TTA_CombineModel.c ****         ((uint32_T)rtConstB.Cast7 + rtB.BitShift1_n4.y) + rtB.BitShift_a0.y) +
 5314              		.loc 1 3182 9 view .LVU1961
 5315 115c 1344     		add	r3, r3, r2
 5316              	.LBB552:
 5317              	.LBB553:
 726:HANcoder_E407_TTA_CombineModel.c **** }
 5318              		.loc 1 726 15 view .LVU1962
 5319 115e 91F82520 		ldrb	r2, [r1, #37]	@ zero_extendqisi2
 5320 1162 B4F8CE00 		ldrh	r0, [r4, #206]
 5321              	.LBE553:
 5322              	.LBE552:
3231:HANcoder_E407_TTA_CombineModel.c ****       }
 5323              		.loc 1 3231 9 view .LVU1963
 5324 1166 2A4E     		ldr	r6, .L471+48
 5325              	.LBB557:
 5326              	.LBB554:
 726:HANcoder_E407_TTA_CombineModel.c **** }
 5327              		.loc 1 726 15 view .LVU1964
 5328 1168 5201     		lsls	r2, r2, #5
 5329 116a D2B2     		uxtb	r2, r2
 5330              	.LBE554:
 5331              	.LBE557:
3181:HANcoder_E407_TTA_CombineModel.c ****         (uint8_T)((uint32_T)(uint8_T)((uint32_T)(uint8_T)((uint32_T)(uint8_T)
 5332              		.loc 1 3181 57 view .LVU1965
 5333 116c 1344     		add	r3, r3, r2
 5334              	.LBB558:
 5335              	.LBB555:
 726:HANcoder_E407_TTA_CombineModel.c **** }
 5336              		.loc 1 726 13 view .LVU1966
 5337 116e 85F83A20 		strb	r2, [r5, #58]
 5338              	.LBE555:
 5339              	.LBE558:
 5340              	.LBB559:
 5341              	.LBB560:
 742:HANcoder_E407_TTA_CombineModel.c **** }
 5342              		.loc 1 742 15 view .LVU1967
 5343 1172 91F82620 		ldrb	r2, [r1, #38]	@ zero_extendqisi2
 5344              	.LBE560:
 5345              	.LBE559:
 5346              	.LBB564:
 5347              	.LBB565:
 758:HANcoder_E407_TTA_CombineModel.c **** }
 5348              		.loc 1 758 15 view .LVU1968
 5349 1176 91F82710 		ldrb	r1, [r1, #39]	@ zero_extendqisi2
 5350              	.LBE565:
 5351              	.LBE564:
 5352              	.LBB569:
 5353              	.LBB561:
 742:HANcoder_E407_TTA_CombineModel.c **** }
 5354              		.loc 1 742 15 view .LVU1969
 5355 117a 9201     		lsls	r2, r2, #6
 5356 117c D2B2     		uxtb	r2, r2
 5357              	.LBE561:
 5358              	.LBE569:
 5359              	.LBB570:
 5360              	.LBB566:
 758:HANcoder_E407_TTA_CombineModel.c **** }
 5361              		.loc 1 758 15 view .LVU1970
 5362 117e C901     		lsls	r1, r1, #7
 5363 1180 C9B2     		uxtb	r1, r1
 5364              	.LBE566:
 5365              	.LBE570:
3181:HANcoder_E407_TTA_CombineModel.c ****         (uint8_T)((uint32_T)(uint8_T)((uint32_T)(uint8_T)((uint32_T)(uint8_T)
 5366              		.loc 1 3181 37 view .LVU1971
 5367 1182 1344     		add	r3, r3, r2
 5368              	.LBB571:
 5369              	.LBB562:
 742:HANcoder_E407_TTA_CombineModel.c **** }
 5370              		.loc 1 742 13 view .LVU1972
 5371 1184 85F83920 		strb	r2, [r5, #57]
 5372              	.LBE562:
 5373              	.LBE571:
3181:HANcoder_E407_TTA_CombineModel.c ****         (uint8_T)((uint32_T)(uint8_T)((uint32_T)(uint8_T)((uint32_T)(uint8_T)
 5374              		.loc 1 3181 17 view .LVU1973
 5375 1188 CA18     		adds	r2, r1, r3
3189:HANcoder_E407_TTA_CombineModel.c **** 
 5376              		.loc 1 3189 7 view .LVU1974
 5377 118a B4F8DC30 		ldrh	r3, [r4, #220]
3199:HANcoder_E407_TTA_CombineModel.c **** 
 5378              		.loc 1 3199 19 view .LVU1975
 5379 118e 2B72     		strb	r3, [r5, #8]
 5380              	.LBB572:
 5381              	.LBB573:
 779:HANcoder_E407_TTA_CombineModel.c **** }
 5382              		.loc 1 779 15 view .LVU1976
 5383 1190 1B0A     		lsrs	r3, r3, #8
 779:HANcoder_E407_TTA_CombineModel.c **** }
 5384              		.loc 1 779 13 view .LVU1977
 5385 1192 EB86     		strh	r3, [r5, #54]	@ movhi
 5386              	.LBE573:
 5387              	.LBE572:
3194:HANcoder_E407_TTA_CombineModel.c **** 
 5388              		.loc 1 3194 18 view .LVU1978
 5389 1194 EB71     		strb	r3, [r5, #7]
3203:HANcoder_E407_TTA_CombineModel.c **** 
 5390              		.loc 1 3203 7 view .LVU1979
 5391 1196 B4F8CE30 		ldrh	r3, [r4, #206]
 5392              	.LBB575:
 5393              	.LBB567:
 758:HANcoder_E407_TTA_CombineModel.c **** }
 5394              		.loc 1 758 13 view .LVU1980
 5395 119a 85F83810 		strb	r1, [r5, #56]
 5396              	.LBE567:
 5397              	.LBE575:
3213:HANcoder_E407_TTA_CombineModel.c **** 
 5398              		.loc 1 3213 21 view .LVU1981
 5399 119e AB72     		strb	r3, [r5, #10]
 5400 11a0 B4F8DC10 		ldrh	r1, [r4, #220]
 5401              	.LBB576:
 5402              	.LBB577:
 779:HANcoder_E407_TTA_CombineModel.c **** }
 5403              		.loc 1 779 15 view .LVU1982
 5404 11a4 1B0A     		lsrs	r3, r3, #8
 779:HANcoder_E407_TTA_CombineModel.c **** }
 5405              		.loc 1 779 13 view .LVU1983
 5406 11a6 AB86     		strh	r3, [r5, #52]	@ movhi
 5407              	.LBE577:
 5408              	.LBE576:
3208:HANcoder_E407_TTA_CombineModel.c **** 
 5409              		.loc 1 3208 20 view .LVU1984
 5410 11a8 6B72     		strb	r3, [r5, #9]
3221:HANcoder_E407_TTA_CombineModel.c ****         canTxData.uint8_T_info[1] = rtB.Cast1_m;
 5411              		.loc 1 3221 35 view .LVU1985
 5412 11aa 0E4B     		ldr	r3, .L471+4
 5413 11ac 49BA     		rev16	r1, r1
 5414 11ae 40BA     		rev16	r0, r0
 5415 11b0 1880     		strh	r0, [r3]	@ movhi
3223:HANcoder_E407_TTA_CombineModel.c ****         canTxData.uint8_T_info[3] = rtB.Cast1;
 5416              		.loc 1 3223 35 view .LVU1986
 5417 11b2 5980     		strh	r1, [r3, #2]	@ movhi
3135:HANcoder_E407_TTA_CombineModel.c **** 
 5418              		.loc 1 3135 35 view .LVU1987
 5419 11b4 94F84901 		ldrb	r0, [r4, #329]	@ zero_extendqisi2
3138:HANcoder_E407_TTA_CombineModel.c **** 
 5420              		.loc 1 3138 35 view .LVU1988
 5421 11b8 94F84A11 		ldrb	r1, [r4, #330]	@ zero_extendqisi2
3138:HANcoder_E407_TTA_CombineModel.c **** 
 5422              		.loc 1 3138 26 view .LVU1989
 5423 11bc 6971     		strb	r1, [r5, #5]
3181:HANcoder_E407_TTA_CombineModel.c ****         (uint8_T)((uint32_T)(uint8_T)((uint32_T)(uint8_T)((uint32_T)(uint8_T)
 5424              		.loc 1 3181 17 view .LVU1990
 5425 11be D2B2     		uxtb	r2, r2
3181:HANcoder_E407_TTA_CombineModel.c ****         (uint8_T)((uint32_T)(uint8_T)((uint32_T)(uint8_T)((uint32_T)(uint8_T)
 5426              		.loc 1 3181 15 view .LVU1991
 5427 11c0 AA71     		strb	r2, [r5, #6]
3135:HANcoder_E407_TTA_CombineModel.c **** 
 5428              		.loc 1 3135 26 view .LVU1992
 5429 11c2 2871     		strb	r0, [r5, #4]
3138:HANcoder_E407_TTA_CombineModel.c **** 
 5430              		.loc 1 3138 7 is_stmt 1 view .LVU1993
3143:HANcoder_E407_TTA_CombineModel.c **** 
 5431              		.loc 1 3143 7 view .LVU1994
 5432              	.LVL397:
3146:HANcoder_E407_TTA_CombineModel.c **** 
 5433              		.loc 1 3146 7 view .LVU1995
 5434              	.LBB579:
 5435              	.LBI520:
 673:HANcoder_E407_TTA_CombineModel.c **** {
 5436              		.loc 1 673 6 view .LVU1996
 5437              	.LBB524:
 678:HANcoder_E407_TTA_CombineModel.c **** }
 5438              		.loc 1 678 3 view .LVU1997
 678:HANcoder_E407_TTA_CombineModel.c **** }
 5439              		.loc 1 678 3 is_stmt 0 view .LVU1998
 5440              	.LBE524:
 5441              	.LBE579:
3151:HANcoder_E407_TTA_CombineModel.c **** 
 5442              		.loc 1 3151 7 is_stmt 1 view .LVU1999
 5443              	.LBB580:
 5444              	.LBI525:
 657:HANcoder_E407_TTA_CombineModel.c **** {
 5445              		.loc 1 657 6 view .LVU2000
 5446              	.LBB529:
 662:HANcoder_E407_TTA_CombineModel.c **** }
 5447              		.loc 1 662 3 view .LVU2001
 662:HANcoder_E407_TTA_CombineModel.c **** }
 5448              		.loc 1 662 3 is_stmt 0 view .LVU2002
 5449              	.LBE529:
 5450              	.LBE580:
3156:HANcoder_E407_TTA_CombineModel.c **** 
 5451              		.loc 1 3156 7 is_stmt 1 view .LVU2003
 5452              	.LBB581:
 5453              	.LBI530:
 689:HANcoder_E407_TTA_CombineModel.c **** {
 5454              		.loc 1 689 6 view .LVU2004
 5455              	.LBB535:
 694:HANcoder_E407_TTA_CombineModel.c **** }
 5456              		.loc 1 694 3 view .LVU2005
 694:HANcoder_E407_TTA_CombineModel.c **** }
 5457              		.loc 1 694 3 is_stmt 0 view .LVU2006
 5458              	.LBE535:
 5459              	.LBE581:
3161:HANcoder_E407_TTA_CombineModel.c **** 
 5460              		.loc 1 3161 7 is_stmt 1 view .LVU2007
 5461              	.LBB582:
 5462              	.LBI540:
 705:HANcoder_E407_TTA_CombineModel.c **** {
 5463              		.loc 1 705 6 view .LVU2008
 5464              	.LBB545:
 710:HANcoder_E407_TTA_CombineModel.c **** }
 5465              		.loc 1 710 3 view .LVU2009
 710:HANcoder_E407_TTA_CombineModel.c **** }
 5466              		.loc 1 710 3 is_stmt 0 view .LVU2010
 5467              	.LBE545:
 5468              	.LBE582:
3166:HANcoder_E407_TTA_CombineModel.c **** 
 5469              		.loc 1 3166 7 is_stmt 1 view .LVU2011
 5470              	.LBB583:
 5471              	.LBI552:
 721:HANcoder_E407_TTA_CombineModel.c **** {
 5472              		.loc 1 721 6 view .LVU2012
 5473              	.LBB556:
 726:HANcoder_E407_TTA_CombineModel.c **** }
 5474              		.loc 1 726 3 view .LVU2013
 726:HANcoder_E407_TTA_CombineModel.c **** }
 5475              		.loc 1 726 3 is_stmt 0 view .LVU2014
 5476              	.LBE556:
 5477              	.LBE583:
3171:HANcoder_E407_TTA_CombineModel.c **** 
 5478              		.loc 1 3171 7 is_stmt 1 view .LVU2015
 5479              	.LBB584:
 5480              	.LBI559:
 737:HANcoder_E407_TTA_CombineModel.c **** {
 5481              		.loc 1 737 6 view .LVU2016
 5482              	.LBB563:
 742:HANcoder_E407_TTA_CombineModel.c **** }
 5483              		.loc 1 742 3 view .LVU2017
 742:HANcoder_E407_TTA_CombineModel.c **** }
 5484              		.loc 1 742 3 is_stmt 0 view .LVU2018
 5485              	.LBE563:
 5486              	.LBE584:
3176:HANcoder_E407_TTA_CombineModel.c **** 
 5487              		.loc 1 3176 7 is_stmt 1 view .LVU2019
 5488              	.LBB585:
 5489              	.LBI564:
 753:HANcoder_E407_TTA_CombineModel.c **** {
 5490              		.loc 1 753 6 view .LVU2020
 5491              	.LBB568:
 758:HANcoder_E407_TTA_CombineModel.c **** }
 5492              		.loc 1 758 3 view .LVU2021
 758:HANcoder_E407_TTA_CombineModel.c **** }
 5493              		.loc 1 758 3 is_stmt 0 view .LVU2022
 5494              	.LBE568:
 5495              	.LBE585:
3181:HANcoder_E407_TTA_CombineModel.c ****         (uint8_T)((uint32_T)(uint8_T)((uint32_T)(uint8_T)((uint32_T)(uint8_T)
 5496              		.loc 1 3181 7 is_stmt 1 view .LVU2023
3189:HANcoder_E407_TTA_CombineModel.c **** 
 5497              		.loc 1 3189 7 view .LVU2024
 5498              	.LBB586:
 5499              	.LBI572:
 774:HANcoder_E407_TTA_CombineModel.c **** {
 5500              		.loc 1 774 6 view .LVU2025
 5501              	.LBB574:
 779:HANcoder_E407_TTA_CombineModel.c **** }
 5502              		.loc 1 779 3 view .LVU2026
 779:HANcoder_E407_TTA_CombineModel.c **** }
 5503              		.loc 1 779 3 is_stmt 0 view .LVU2027
 5504              	.LBE574:
 5505              	.LBE586:
3194:HANcoder_E407_TTA_CombineModel.c **** 
 5506              		.loc 1 3194 7 is_stmt 1 view .LVU2028
3199:HANcoder_E407_TTA_CombineModel.c **** 
 5507              		.loc 1 3199 7 view .LVU2029
3203:HANcoder_E407_TTA_CombineModel.c **** 
 5508              		.loc 1 3203 7 view .LVU2030
 5509              	.LBB587:
 5510              	.LBI576:
 774:HANcoder_E407_TTA_CombineModel.c **** {
 5511              		.loc 1 774 6 view .LVU2031
 5512              	.LBB578:
 779:HANcoder_E407_TTA_CombineModel.c **** }
 5513              		.loc 1 779 3 view .LVU2032
 779:HANcoder_E407_TTA_CombineModel.c **** }
 5514              		.loc 1 779 3 is_stmt 0 view .LVU2033
 5515              	.LBE578:
 5516              	.LBE587:
3208:HANcoder_E407_TTA_CombineModel.c **** 
 5517              		.loc 1 3208 7 is_stmt 1 view .LVU2034
3213:HANcoder_E407_TTA_CombineModel.c **** 
 5518              		.loc 1 3213 7 view .LVU2035
3221:HANcoder_E407_TTA_CombineModel.c ****         canTxData.uint8_T_info[1] = rtB.Cast1_m;
 5519              		.loc 1 3221 9 view .LVU2036
3222:HANcoder_E407_TTA_CombineModel.c ****         canTxData.uint8_T_info[2] = rtB.Cast;
 5520              		.loc 1 3222 9 view .LVU2037
3223:HANcoder_E407_TTA_CombineModel.c ****         canTxData.uint8_T_info[3] = rtB.Cast1;
 5521              		.loc 1 3223 9 view .LVU2038
3224:HANcoder_E407_TTA_CombineModel.c ****         canTxData.uint8_T_info[4] = rtB.DataStoreRead3;
 5522              		.loc 1 3224 9 view .LVU2039
3225:HANcoder_E407_TTA_CombineModel.c ****         canTxData.uint8_T_info[5] = rtB.DataStoreRead4;
 5523              		.loc 1 3225 9 view .LVU2040
3225:HANcoder_E407_TTA_CombineModel.c ****         canTxData.uint8_T_info[5] = rtB.DataStoreRead4;
 5524              		.loc 1 3225 35 is_stmt 0 view .LVU2041
 5525 11c4 1871     		strb	r0, [r3, #4]
3226:HANcoder_E407_TTA_CombineModel.c ****         canTxData.uint8_T_info[6] = rtB.Add;
 5526              		.loc 1 3226 9 is_stmt 1 view .LVU2042
3228:HANcoder_E407_TTA_CombineModel.c **** 
 5527              		.loc 1 3228 35 is_stmt 0 view .LVU2043
 5528 11c6 0020     		movs	r0, #0
3226:HANcoder_E407_TTA_CombineModel.c ****         canTxData.uint8_T_info[6] = rtB.Add;
 5529              		.loc 1 3226 35 view .LVU2044
 5530 11c8 5971     		strb	r1, [r3, #5]
3227:HANcoder_E407_TTA_CombineModel.c ****         canTxData.uint8_T_info[7] = ((uint8_T)0U);
 5531              		.loc 1 3227 9 is_stmt 1 view .LVU2045
3227:HANcoder_E407_TTA_CombineModel.c ****         canTxData.uint8_T_info[7] = ((uint8_T)0U);
 5532              		.loc 1 3227 35 is_stmt 0 view .LVU2046
 5533 11ca 9A71     		strb	r2, [r3, #6]
3228:HANcoder_E407_TTA_CombineModel.c **** 
 5534              		.loc 1 3228 9 is_stmt 1 view .LVU2047
3228:HANcoder_E407_TTA_CombineModel.c **** 
 5535              		.loc 1 3228 35 is_stmt 0 view .LVU2048
 5536 11cc D871     		strb	r0, [r3, #7]
3231:HANcoder_E407_TTA_CombineModel.c ****       }
 5537              		.loc 1 3231 9 is_stmt 1 view .LVU2049
 5538 11ce 3168     		ldr	r1, [r6]
 5539 11d0 0822     		movs	r2, #8
 5540 11d2 FFF7FEFF 		bl	CanTransmit
 5541              	.LVL398:
3333:HANcoder_E407_TTA_CombineModel.c ****     rtDWork.Subsystem2_MODE = true;
 5542              		.loc 1 3333 15 is_stmt 0 view .LVU2050
 5543 11d6 94F848A1 		ldrb	r10, [r4, #328]	@ zero_extendqisi2
3128:HANcoder_E407_TTA_CombineModel.c **** 
 5544              		.loc 1 3128 13 view .LVU2051
 5545 11da 0123     		movs	r3, #1
 5546 11dc FFF70FB9 		b	.L242
 5547              	.L472:
 5548              		.align	2
 5549              	.L471:
 5550 11e0 0000F03F 		.word	1072693248
 5551 11e4 00000000 		.word	.LANCHOR8
 5552 11e8 00000000 		.word	.LANCHOR46
 5553 11ec 00000000 		.word	.LANCHOR7
 5554 11f0 00000000 		.word	.LANCHOR50
 5555 11f4 00000000 		.word	.LANCHOR48
 5556 11f8 00000000 		.word	.LANCHOR49
 5557 11fc 00000000 		.word	.LANCHOR51
 5558 1200 00000000 		.word	.LANCHOR54
 5559 1204 00000000 		.word	.LANCHOR52
 5560 1208 00000000 		.word	.LANCHOR53
 5561 120c 00000000 		.word	rtConstB
 5562 1210 00000000 		.word	.LANCHOR69
 5563              	.LVL399:
 5564              	.L434:
2740:HANcoder_E407_TTA_CombineModel.c **** 
 5565              		.loc 1 2740 30 discriminator 1 view .LVU2052
 5566 1214 F1EE006A 		vmov.f32	s13, #4.0e+0
 5567 1218 B4EE667A 		vcmp.f32	s14, s13
 5568 121c F1EE10FA 		vmrs	APSR_nzcv, FPSCR
 5569 1220 40F0BA80 		bne	.L205
 5570              	.LVL400:
2745:HANcoder_E407_TTA_CombineModel.c ****       rtDWork.TRLS_ID4_RX_MODE = true;
 5571              		.loc 1 2745 5 is_stmt 1 view .LVU2053
2869:HANcoder_E407_TTA_CombineModel.c ****       rtDWork.TRLS_ID4_RX_MODE = false;
 5572              		.loc 1 2869 12 view .LVU2054
2869:HANcoder_E407_TTA_CombineModel.c ****       rtDWork.TRLS_ID4_RX_MODE = false;
 5573              		.loc 1 2869 15 is_stmt 0 view .LVU2055
 5574 1224 94F86431 		ldrb	r3, [r4, #356]	@ zero_extendqisi2
 5575 1228 13B1     		cbz	r3, .L275
2870:HANcoder_E407_TTA_CombineModel.c ****     }
 5576              		.loc 1 2870 7 is_stmt 1 view .LVU2056
2870:HANcoder_E407_TTA_CombineModel.c ****     }
 5577              		.loc 1 2870 32 is_stmt 0 view .LVU2057
 5578 122a 0023     		movs	r3, #0
 5579 122c 84F86431 		strb	r3, [r4, #356]
2876:HANcoder_E407_TTA_CombineModel.c **** 
 5580              		.loc 1 2876 5 is_stmt 1 view .LVU2058
 5581              	.L275:
 5582              	.LVL401:
2881:HANcoder_E407_TTA_CombineModel.c ****       /* DataStoreRead: '<S115>/Data Store Read2' */
 5583              		.loc 1 2881 5 view .LVU2059
2881:HANcoder_E407_TTA_CombineModel.c ****       /* DataStoreRead: '<S115>/Data Store Read2' */
 5584              		.loc 1 2881 37 is_stmt 0 view .LVU2060
 5585 1230 9BF80330 		ldrb	r3, [fp, #3]	@ zero_extendqisi2
2881:HANcoder_E407_TTA_CombineModel.c ****       /* DataStoreRead: '<S115>/Data Store Read2' */
 5586              		.loc 1 2881 17 view .LVU2061
 5587 1234 012B     		cmp	r3, #1
 5588 1236 3FF4D2A8 		beq	.L247
2883:HANcoder_E407_TTA_CombineModel.c **** 
 5589              		.loc 1 2883 7 is_stmt 1 view .LVU2062
2899:HANcoder_E407_TTA_CombineModel.c **** 
 5590              		.loc 1 2899 7 is_stmt 0 view .LVU2063
 5591 123a B749     		ldr	r1, .L473
 5592              	.LBB588:
 5593              	.LBB589:
 678:HANcoder_E407_TTA_CombineModel.c **** }
 5594              		.loc 1 678 15 view .LVU2064
 5595 123c 94F85721 		ldrb	r2, [r4, #343]	@ zero_extendqisi2
 5596              	.LBE589:
 5597              	.LBE588:
 5598              	.LBB594:
 5599              	.LBB595:
 662:HANcoder_E407_TTA_CombineModel.c **** }
 5600              		.loc 1 662 15 view .LVU2065
 5601 1240 91F82930 		ldrb	r3, [r1, #41]	@ zero_extendqisi2
 5602              	.LBE595:
 5603              	.LBE594:
2930:HANcoder_E407_TTA_CombineModel.c ****         ((uint32_T)rtConstB.Cast7_e + rtB.BitShift1_c.y) + rtB.BitShift_eg.y) +
 5604              		.loc 1 2930 49 view .LVU2066
 5605 1244 91F82F60 		ldrb	r6, [r1, #47]	@ zero_extendqisi2
 5606              	.LBB600:
 5607              	.LBB590:
 678:HANcoder_E407_TTA_CombineModel.c **** }
 5608              		.loc 1 678 15 view .LVU2067
 5609 1248 5200     		lsls	r2, r2, #1
 5610              	.LBE590:
 5611              	.LBE600:
 5612              	.LBB601:
 5613              	.LBB596:
 662:HANcoder_E407_TTA_CombineModel.c **** }
 5614              		.loc 1 662 15 view .LVU2068
 5615 124a 9B00     		lsls	r3, r3, #2
 5616              	.LBE596:
 5617              	.LBE601:
 5618              	.LBB602:
 5619              	.LBB591:
 678:HANcoder_E407_TTA_CombineModel.c **** }
 5620              		.loc 1 678 15 view .LVU2069
 5621 124c D2B2     		uxtb	r2, r2
 5622              	.LBE591:
 5623              	.LBE602:
 5624              	.LBB603:
 5625              	.LBB597:
 662:HANcoder_E407_TTA_CombineModel.c **** }
 5626              		.loc 1 662 15 view .LVU2070
 5627 124e DBB2     		uxtb	r3, r3
 5628              	.LBE597:
 5629              	.LBE603:
2930:HANcoder_E407_TTA_CombineModel.c ****         ((uint32_T)rtConstB.Cast7_e + rtB.BitShift1_c.y) + rtB.BitShift_eg.y) +
 5630              		.loc 1 2930 49 view .LVU2071
 5631 1250 9818     		adds	r0, r3, r2
 5632              	.LBB604:
 5633              	.LBB592:
 678:HANcoder_E407_TTA_CombineModel.c **** }
 5634              		.loc 1 678 13 view .LVU2072
 5635 1252 85F85520 		strb	r2, [r5, #85]
 5636              	.LBE592:
 5637              	.LBE604:
 5638              	.LBB605:
 5639              	.LBB606:
 694:HANcoder_E407_TTA_CombineModel.c **** }
 5640              		.loc 1 694 15 view .LVU2073
 5641 1256 91F82A20 		ldrb	r2, [r1, #42]	@ zero_extendqisi2
 5642              	.LBE606:
 5643              	.LBE605:
 5644              	.LBB610:
 5645              	.LBB598:
 662:HANcoder_E407_TTA_CombineModel.c **** }
 5646              		.loc 1 662 13 view .LVU2074
 5647 125a 85F85630 		strb	r3, [r5, #86]
 5648              	.LBE598:
 5649              	.LBE610:
 5650              	.LBB611:
 5651              	.LBB612:
 710:HANcoder_E407_TTA_CombineModel.c **** }
 5652              		.loc 1 710 15 view .LVU2075
 5653 125e 91F82B30 		ldrb	r3, [r1, #43]	@ zero_extendqisi2
 5654              	.LBE612:
 5655              	.LBE611:
 5656              	.LBB617:
 5657              	.LBB607:
 694:HANcoder_E407_TTA_CombineModel.c **** }
 5658              		.loc 1 694 15 view .LVU2076
 5659 1262 D200     		lsls	r2, r2, #3
 5660 1264 D2B2     		uxtb	r2, r2
 5661              	.LBE607:
 5662              	.LBE617:
2930:HANcoder_E407_TTA_CombineModel.c ****         ((uint32_T)rtConstB.Cast7_e + rtB.BitShift1_c.y) + rtB.BitShift_eg.y) +
 5663              		.loc 1 2930 49 view .LVU2077
 5664 1266 3044     		add	r0, r0, r6
 5665              	.LBB618:
 5666              	.LBB613:
 710:HANcoder_E407_TTA_CombineModel.c **** }
 5667              		.loc 1 710 15 view .LVU2078
 5668 1268 1B01     		lsls	r3, r3, #4
 5669              	.LBE613:
 5670              	.LBE618:
 5671              	.LBB619:
 5672              	.LBB608:
 694:HANcoder_E407_TTA_CombineModel.c **** }
 5673              		.loc 1 694 13 view .LVU2079
 5674 126a 85F85420 		strb	r2, [r5, #84]
 5675              	.LBE608:
 5676              	.LBE619:
 5677              	.LBB620:
 5678              	.LBB614:
 710:HANcoder_E407_TTA_CombineModel.c **** }
 5679              		.loc 1 710 15 view .LVU2080
 5680 126e DBB2     		uxtb	r3, r3
 5681              	.LBE614:
 5682              	.LBE620:
2930:HANcoder_E407_TTA_CombineModel.c ****         ((uint32_T)rtConstB.Cast7_e + rtB.BitShift1_c.y) + rtB.BitShift_eg.y) +
 5683              		.loc 1 2930 29 view .LVU2081
 5684 1270 0244     		add	r2, r2, r0
 5685              	.LBB621:
 5686              	.LBB615:
 710:HANcoder_E407_TTA_CombineModel.c **** }
 5687              		.loc 1 710 13 view .LVU2082
 5688 1272 85F85330 		strb	r3, [r5, #83]
 5689              	.LBE615:
 5690              	.LBE621:
2930:HANcoder_E407_TTA_CombineModel.c ****         ((uint32_T)rtConstB.Cast7_e + rtB.BitShift1_c.y) + rtB.BitShift_eg.y) +
 5691              		.loc 1 2930 9 view .LVU2083
 5692 1276 1344     		add	r3, r3, r2
 5693              	.LBB622:
 5694              	.LBB623:
 726:HANcoder_E407_TTA_CombineModel.c **** }
 5695              		.loc 1 726 15 view .LVU2084
 5696 1278 91F82C20 		ldrb	r2, [r1, #44]	@ zero_extendqisi2
 5697 127c B4F8DC00 		ldrh	r0, [r4, #220]
 5698 1280 5201     		lsls	r2, r2, #5
 5699 1282 D2B2     		uxtb	r2, r2
 5700              	.LBE623:
 5701              	.LBE622:
2929:HANcoder_E407_TTA_CombineModel.c ****         (uint8_T)((uint32_T)(uint8_T)((uint32_T)(uint8_T)((uint32_T)(uint8_T)
 5702              		.loc 1 2929 59 view .LVU2085
 5703 1284 1344     		add	r3, r3, r2
 5704              	.LBB626:
 5705              	.LBB624:
 726:HANcoder_E407_TTA_CombineModel.c **** }
 5706              		.loc 1 726 13 view .LVU2086
 5707 1286 85F85220 		strb	r2, [r5, #82]
 5708              	.LBE624:
 5709              	.LBE626:
 5710              	.LBB627:
 5711              	.LBB628:
 742:HANcoder_E407_TTA_CombineModel.c **** }
 5712              		.loc 1 742 15 view .LVU2087
 5713 128a 91F82D20 		ldrb	r2, [r1, #45]	@ zero_extendqisi2
 5714              	.LBE628:
 5715              	.LBE627:
 5716              	.LBB632:
 5717              	.LBB633:
 758:HANcoder_E407_TTA_CombineModel.c **** }
 5718              		.loc 1 758 15 view .LVU2088
 5719 128e 91F82E10 		ldrb	r1, [r1, #46]	@ zero_extendqisi2
 5720              	.LBE633:
 5721              	.LBE632:
 5722              	.LBB637:
 5723              	.LBB629:
 742:HANcoder_E407_TTA_CombineModel.c **** }
 5724              		.loc 1 742 15 view .LVU2089
 5725 1292 9201     		lsls	r2, r2, #6
 5726 1294 D2B2     		uxtb	r2, r2
 5727              	.LBE629:
 5728              	.LBE637:
 5729              	.LBB638:
 5730              	.LBB634:
 758:HANcoder_E407_TTA_CombineModel.c **** }
 5731              		.loc 1 758 15 view .LVU2090
 5732 1296 C901     		lsls	r1, r1, #7
 5733 1298 C9B2     		uxtb	r1, r1
 5734              	.LBE634:
 5735              	.LBE638:
2929:HANcoder_E407_TTA_CombineModel.c ****         (uint8_T)((uint32_T)(uint8_T)((uint32_T)(uint8_T)((uint32_T)(uint8_T)
 5736              		.loc 1 2929 39 view .LVU2091
 5737 129a 1344     		add	r3, r3, r2
 5738              	.LBB639:
 5739              	.LBB630:
 742:HANcoder_E407_TTA_CombineModel.c **** }
 5740              		.loc 1 742 13 view .LVU2092
 5741 129c 85F85120 		strb	r2, [r5, #81]
 5742              	.LBE630:
 5743              	.LBE639:
2929:HANcoder_E407_TTA_CombineModel.c ****         (uint8_T)((uint32_T)(uint8_T)((uint32_T)(uint8_T)((uint32_T)(uint8_T)
 5744              		.loc 1 2929 19 view .LVU2093
 5745 12a0 CA18     		adds	r2, r1, r3
 5746              	.LBB640:
 5747              	.LBB641:
 779:HANcoder_E407_TTA_CombineModel.c **** }
 5748              		.loc 1 779 15 view .LVU2094
 5749 12a2 B4F8DC30 		ldrh	r3, [r4, #220]
 5750              	.LBE641:
 5751              	.LBE640:
 5752              	.LBB644:
 5753              	.LBB635:
 758:HANcoder_E407_TTA_CombineModel.c **** }
 5754              		.loc 1 758 13 view .LVU2095
 5755 12a6 85F85010 		strb	r1, [r5, #80]
 5756              	.LBE635:
 5757              	.LBE644:
 5758              	.LBB645:
 5759              	.LBB642:
 779:HANcoder_E407_TTA_CombineModel.c **** }
 5760              		.loc 1 779 15 view .LVU2096
 5761 12aa 1B0A     		lsrs	r3, r3, #8
 779:HANcoder_E407_TTA_CombineModel.c **** }
 5762              		.loc 1 779 13 view .LVU2097
 5763 12ac A5F84E30 		strh	r3, [r5, #78]	@ movhi
 5764              	.LBE642:
 5765              	.LBE645:
 5766              	.LBB646:
 5767              	.LBB647:
 779:HANcoder_E407_TTA_CombineModel.c **** }
 5768              		.loc 1 779 15 view .LVU2098
 5769 12b0 B4F8CE30 		ldrh	r3, [r4, #206]
 5770 12b4 B4F8CE10 		ldrh	r1, [r4, #206]
 5771 12b8 1B0A     		lsrs	r3, r3, #8
 779:HANcoder_E407_TTA_CombineModel.c **** }
 5772              		.loc 1 779 13 view .LVU2099
 5773 12ba A5F84C30 		strh	r3, [r5, #76]	@ movhi
 5774              	.LBE647:
 5775              	.LBE646:
2969:HANcoder_E407_TTA_CombineModel.c ****         canTxData.uint8_T_info[1] = rtB.Cast1_i;
 5776              		.loc 1 2969 35 view .LVU2100
 5777 12be 974B     		ldr	r3, .L473+4
 5778 12c0 40BA     		rev16	r0, r0
 5779 12c2 49BA     		rev16	r1, r1
 5780 12c4 1980     		strh	r1, [r3]	@ movhi
2971:HANcoder_E407_TTA_CombineModel.c ****         canTxData.uint8_T_info[3] = rtB.Cast1_c;
 5781              		.loc 1 2971 35 view .LVU2101
 5782 12c6 5880     		strh	r0, [r3, #2]	@ movhi
2942:HANcoder_E407_TTA_CombineModel.c **** 
 5783              		.loc 1 2942 18 view .LVU2102
 5784 12c8 6882     		strh	r0, [r5, #18]	@ movhi
2956:HANcoder_E407_TTA_CombineModel.c **** 
 5785              		.loc 1 2956 18 view .LVU2103
 5786 12ca A982     		strh	r1, [r5, #20]	@ movhi
2979:HANcoder_E407_TTA_CombineModel.c ****       }
 5787              		.loc 1 2979 9 view .LVU2104
 5788 12cc 9448     		ldr	r0, .L473+8
2883:HANcoder_E407_TTA_CombineModel.c **** 
 5789              		.loc 1 2883 35 view .LVU2105
 5790 12ce 94F84911 		ldrb	r1, [r4, #329]	@ zero_extendqisi2
2973:HANcoder_E407_TTA_CombineModel.c ****         canTxData.uint8_T_info[5] = rtB.DataStoreRead3_c;
 5791              		.loc 1 2973 35 view .LVU2106
 5792 12d2 1971     		strb	r1, [r3, #4]
2929:HANcoder_E407_TTA_CombineModel.c ****         (uint8_T)((uint32_T)(uint8_T)((uint32_T)(uint8_T)((uint32_T)(uint8_T)
 5793              		.loc 1 2929 19 view .LVU2107
 5794 12d4 D2B2     		uxtb	r2, r2
2883:HANcoder_E407_TTA_CombineModel.c **** 
 5795              		.loc 1 2883 26 view .LVU2108
 5796 12d6 E973     		strb	r1, [r5, #15]
2886:HANcoder_E407_TTA_CombineModel.c **** 
 5797              		.loc 1 2886 7 is_stmt 1 view .LVU2109
2886:HANcoder_E407_TTA_CombineModel.c **** 
 5798              		.loc 1 2886 37 is_stmt 0 view .LVU2110
 5799 12d8 94F84A11 		ldrb	r1, [r4, #330]	@ zero_extendqisi2
2974:HANcoder_E407_TTA_CombineModel.c ****         canTxData.uint8_T_info[6] = rtB.Add_f;
 5800              		.loc 1 2974 35 view .LVU2111
 5801 12dc 5971     		strb	r1, [r3, #5]
2929:HANcoder_E407_TTA_CombineModel.c ****         (uint8_T)((uint32_T)(uint8_T)((uint32_T)(uint8_T)((uint32_T)(uint8_T)
 5802              		.loc 1 2929 17 view .LVU2112
 5803 12de 6A74     		strb	r2, [r5, #17]
2886:HANcoder_E407_TTA_CombineModel.c **** 
 5804              		.loc 1 2886 28 view .LVU2113
 5805 12e0 2974     		strb	r1, [r5, #16]
2891:HANcoder_E407_TTA_CombineModel.c **** 
 5806              		.loc 1 2891 7 is_stmt 1 view .LVU2114
 5807              	.LVL402:
2894:HANcoder_E407_TTA_CombineModel.c **** 
 5808              		.loc 1 2894 7 view .LVU2115
 5809              	.LBB649:
 5810              	.LBI588:
 673:HANcoder_E407_TTA_CombineModel.c **** {
 5811              		.loc 1 673 6 view .LVU2116
 5812              	.LBB593:
 678:HANcoder_E407_TTA_CombineModel.c **** }
 5813              		.loc 1 678 3 view .LVU2117
 678:HANcoder_E407_TTA_CombineModel.c **** }
 5814              		.loc 1 678 3 is_stmt 0 view .LVU2118
 5815              	.LBE593:
 5816              	.LBE649:
2899:HANcoder_E407_TTA_CombineModel.c **** 
 5817              		.loc 1 2899 7 is_stmt 1 view .LVU2119
 5818              	.LBB650:
 5819              	.LBI594:
 657:HANcoder_E407_TTA_CombineModel.c **** {
 5820              		.loc 1 657 6 view .LVU2120
 5821              	.LBB599:
 662:HANcoder_E407_TTA_CombineModel.c **** }
 5822              		.loc 1 662 3 view .LVU2121
 662:HANcoder_E407_TTA_CombineModel.c **** }
 5823              		.loc 1 662 3 is_stmt 0 view .LVU2122
 5824              	.LBE599:
 5825              	.LBE650:
2904:HANcoder_E407_TTA_CombineModel.c **** 
 5826              		.loc 1 2904 7 is_stmt 1 view .LVU2123
 5827              	.LBB651:
 5828              	.LBI605:
 689:HANcoder_E407_TTA_CombineModel.c **** {
 5829              		.loc 1 689 6 view .LVU2124
 5830              	.LBB609:
 694:HANcoder_E407_TTA_CombineModel.c **** }
 5831              		.loc 1 694 3 view .LVU2125
 694:HANcoder_E407_TTA_CombineModel.c **** }
 5832              		.loc 1 694 3 is_stmt 0 view .LVU2126
 5833              	.LBE609:
 5834              	.LBE651:
2909:HANcoder_E407_TTA_CombineModel.c **** 
 5835              		.loc 1 2909 7 is_stmt 1 view .LVU2127
 5836              	.LBB652:
 5837              	.LBI611:
 705:HANcoder_E407_TTA_CombineModel.c **** {
 5838              		.loc 1 705 6 view .LVU2128
 5839              	.LBB616:
 710:HANcoder_E407_TTA_CombineModel.c **** }
 5840              		.loc 1 710 3 view .LVU2129
 710:HANcoder_E407_TTA_CombineModel.c **** }
 5841              		.loc 1 710 3 is_stmt 0 view .LVU2130
 5842              	.LBE616:
 5843              	.LBE652:
2914:HANcoder_E407_TTA_CombineModel.c **** 
 5844              		.loc 1 2914 7 is_stmt 1 view .LVU2131
 5845              	.LBB653:
 5846              	.LBI622:
 721:HANcoder_E407_TTA_CombineModel.c **** {
 5847              		.loc 1 721 6 view .LVU2132
 5848              	.LBB625:
 726:HANcoder_E407_TTA_CombineModel.c **** }
 5849              		.loc 1 726 3 view .LVU2133
 726:HANcoder_E407_TTA_CombineModel.c **** }
 5850              		.loc 1 726 3 is_stmt 0 view .LVU2134
 5851              	.LBE625:
 5852              	.LBE653:
2919:HANcoder_E407_TTA_CombineModel.c **** 
 5853              		.loc 1 2919 7 is_stmt 1 view .LVU2135
 5854              	.LBB654:
 5855              	.LBI627:
 737:HANcoder_E407_TTA_CombineModel.c **** {
 5856              		.loc 1 737 6 view .LVU2136
 5857              	.LBB631:
 742:HANcoder_E407_TTA_CombineModel.c **** }
 5858              		.loc 1 742 3 view .LVU2137
 742:HANcoder_E407_TTA_CombineModel.c **** }
 5859              		.loc 1 742 3 is_stmt 0 view .LVU2138
 5860              	.LBE631:
 5861              	.LBE654:
2924:HANcoder_E407_TTA_CombineModel.c **** 
 5862              		.loc 1 2924 7 is_stmt 1 view .LVU2139
 5863              	.LBB655:
 5864              	.LBI632:
 753:HANcoder_E407_TTA_CombineModel.c **** {
 5865              		.loc 1 753 6 view .LVU2140
 5866              	.LBB636:
 758:HANcoder_E407_TTA_CombineModel.c **** }
 5867              		.loc 1 758 3 view .LVU2141
 758:HANcoder_E407_TTA_CombineModel.c **** }
 5868              		.loc 1 758 3 is_stmt 0 view .LVU2142
 5869              	.LBE636:
 5870              	.LBE655:
2929:HANcoder_E407_TTA_CombineModel.c ****         (uint8_T)((uint32_T)(uint8_T)((uint32_T)(uint8_T)((uint32_T)(uint8_T)
 5871              		.loc 1 2929 7 is_stmt 1 view .LVU2143
2937:HANcoder_E407_TTA_CombineModel.c **** 
 5872              		.loc 1 2937 7 view .LVU2144
 5873              	.LBB656:
 5874              	.LBI640:
 774:HANcoder_E407_TTA_CombineModel.c **** {
 5875              		.loc 1 774 6 view .LVU2145
 5876              	.LBB643:
 779:HANcoder_E407_TTA_CombineModel.c **** }
 5877              		.loc 1 779 3 view .LVU2146
 779:HANcoder_E407_TTA_CombineModel.c **** }
 5878              		.loc 1 779 3 is_stmt 0 view .LVU2147
 5879              	.LBE643:
 5880              	.LBE656:
2942:HANcoder_E407_TTA_CombineModel.c **** 
 5881              		.loc 1 2942 7 is_stmt 1 view .LVU2148
2947:HANcoder_E407_TTA_CombineModel.c **** 
 5882              		.loc 1 2947 7 view .LVU2149
2951:HANcoder_E407_TTA_CombineModel.c **** 
 5883              		.loc 1 2951 7 view .LVU2150
 5884              	.LBB657:
 5885              	.LBI646:
 774:HANcoder_E407_TTA_CombineModel.c **** {
 5886              		.loc 1 774 6 view .LVU2151
 5887              	.LBB648:
 779:HANcoder_E407_TTA_CombineModel.c **** }
 5888              		.loc 1 779 3 view .LVU2152
 779:HANcoder_E407_TTA_CombineModel.c **** }
 5889              		.loc 1 779 3 is_stmt 0 view .LVU2153
 5890              	.LBE648:
 5891              	.LBE657:
2956:HANcoder_E407_TTA_CombineModel.c **** 
 5892              		.loc 1 2956 7 is_stmt 1 view .LVU2154
2961:HANcoder_E407_TTA_CombineModel.c **** 
 5893              		.loc 1 2961 7 view .LVU2155
2969:HANcoder_E407_TTA_CombineModel.c ****         canTxData.uint8_T_info[1] = rtB.Cast1_i;
 5894              		.loc 1 2969 9 view .LVU2156
2970:HANcoder_E407_TTA_CombineModel.c ****         canTxData.uint8_T_info[2] = rtB.Cast_d;
 5895              		.loc 1 2970 9 view .LVU2157
2971:HANcoder_E407_TTA_CombineModel.c ****         canTxData.uint8_T_info[3] = rtB.Cast1_c;
 5896              		.loc 1 2971 9 view .LVU2158
2972:HANcoder_E407_TTA_CombineModel.c ****         canTxData.uint8_T_info[4] = rtB.DataStoreRead2;
 5897              		.loc 1 2972 9 view .LVU2159
2973:HANcoder_E407_TTA_CombineModel.c ****         canTxData.uint8_T_info[5] = rtB.DataStoreRead3_c;
 5898              		.loc 1 2973 9 view .LVU2160
2974:HANcoder_E407_TTA_CombineModel.c ****         canTxData.uint8_T_info[6] = rtB.Add_f;
 5899              		.loc 1 2974 9 view .LVU2161
2975:HANcoder_E407_TTA_CombineModel.c ****         canTxData.uint8_T_info[7] = ((uint8_T)0U);
 5900              		.loc 1 2975 9 view .LVU2162
2975:HANcoder_E407_TTA_CombineModel.c ****         canTxData.uint8_T_info[7] = ((uint8_T)0U);
 5901              		.loc 1 2975 35 is_stmt 0 view .LVU2163
 5902 12e2 9A71     		strb	r2, [r3, #6]
2976:HANcoder_E407_TTA_CombineModel.c **** 
 5903              		.loc 1 2976 9 is_stmt 1 view .LVU2164
2979:HANcoder_E407_TTA_CombineModel.c ****       }
 5904              		.loc 1 2979 9 is_stmt 0 view .LVU2165
 5905 12e4 0168     		ldr	r1, [r0]
2976:HANcoder_E407_TTA_CombineModel.c **** 
 5906              		.loc 1 2976 35 view .LVU2166
 5907 12e6 0020     		movs	r0, #0
 5908 12e8 D871     		strb	r0, [r3, #7]
2979:HANcoder_E407_TTA_CombineModel.c ****       }
 5909              		.loc 1 2979 9 is_stmt 1 view .LVU2167
 5910 12ea 0822     		movs	r2, #8
 5911 12ec FFF7FEFF 		bl	CanTransmit
 5912              	.LVL403:
2990:HANcoder_E407_TTA_CombineModel.c **** 
 5913              		.loc 1 2990 33 is_stmt 0 view .LVU2168
 5914 12f0 8C4B     		ldr	r3, .L473+12
2996:HANcoder_E407_TTA_CombineModel.c **** 
 5915              		.loc 1 2996 25 view .LVU2169
 5916 12f2 94F848A1 		ldrb	r10, [r4, #328]	@ zero_extendqisi2
 5917              	.LVL404:
2990:HANcoder_E407_TTA_CombineModel.c **** 
 5918              		.loc 1 2990 33 view .LVU2170
 5919 12f6 1B78     		ldrb	r3, [r3]	@ zero_extendqisi2
2996:HANcoder_E407_TTA_CombineModel.c **** 
 5920              		.loc 1 2996 35 view .LVU2171
 5921 12f8 07EE10AA 		vmov	s14, r10	@ int
2990:HANcoder_E407_TTA_CombineModel.c **** 
 5922              		.loc 1 2990 33 view .LVU2172
 5923 12fc 07EE903A 		vmov	s15, r3	@ int
2996:HANcoder_E407_TTA_CombineModel.c **** 
 5924              		.loc 1 2996 35 view .LVU2173
 5925 1300 B8EEC77A 		vcvt.f32.s32	s14, s14
2990:HANcoder_E407_TTA_CombineModel.c **** 
 5926              		.loc 1 2990 33 view .LVU2174
 5927 1304 F8EEE77A 		vcvt.f32.s32	s15, s15
2876:HANcoder_E407_TTA_CombineModel.c **** 
 5928              		.loc 1 2876 13 view .LVU2175
 5929 1308 0123     		movs	r3, #1
 5930 130a FFF768B8 		b	.L247
 5931              	.LVL405:
 5932              	.L305:
2876:HANcoder_E407_TTA_CombineModel.c **** 
 5933              		.loc 1 2876 13 view .LVU2176
 5934 130e 0020     		movs	r0, #0
 5935 1310 FEF794BF 		b	.L195
 5936              	.LVL406:
 5937              	.L436:
3334:HANcoder_E407_TTA_CombineModel.c **** 
 5938              		.loc 1 3334 5 is_stmt 1 view .LVU2177
3341:HANcoder_E407_TTA_CombineModel.c ****       &canRxData_0_SYNC1_ID.uint8_T_info[0], NULL);
 5939              		.loc 1 3341 24 is_stmt 0 view .LVU2178
 5940 1314 844E     		ldr	r6, .L473+16
 5941 1316 8549     		ldr	r1, .L473+20
 5942 1318 0092     		str	r2, [sp]
3334:HANcoder_E407_TTA_CombineModel.c **** 
 5943              		.loc 1 3334 29 view .LVU2179
 5944 131a 0123     		movs	r3, #1
 5945 131c 84F86131 		strb	r3, [r4, #353]
3341:HANcoder_E407_TTA_CombineModel.c ****       &canRxData_0_SYNC1_ID.uint8_T_info[0], NULL);
 5946              		.loc 1 3341 5 is_stmt 1 view .LVU2180
3341:HANcoder_E407_TTA_CombineModel.c ****       &canRxData_0_SYNC1_ID.uint8_T_info[0], NULL);
 5947              		.loc 1 3341 24 is_stmt 0 view .LVU2181
 5948 1320 1046     		mov	r0, r2
 5949 1322 0968     		ldr	r1, [r1]
 5950 1324 3346     		mov	r3, r6
 5951 1326 FFF7FEFF 		bl	CanIoGetMessage
 5952              	.LVL407:
3345:HANcoder_E407_TTA_CombineModel.c ****       /* read the data */
 5953              		.loc 1 3345 5 is_stmt 1 view .LVU2182
3345:HANcoder_E407_TTA_CombineModel.c ****       /* read the data */
 5954              		.loc 1 3345 8 is_stmt 0 view .LVU2183
 5955 132a 021E     		subs	r2, r0, #0
 5956 132c 06DD     		ble	.L223
3347:HANcoder_E407_TTA_CombineModel.c ****       rtb_SFunction_o3 = canRxData_0_SYNC1_ID.uint8_T_info[1];
 5957              		.loc 1 3347 7 is_stmt 1 view .LVU2184
 5958              	.LVL408:
3348:HANcoder_E407_TTA_CombineModel.c ****       rtb_SFunction_o4 = canRxData_0_SYNC1_ID.uint8_T_info[2];
 5959              		.loc 1 3348 7 view .LVU2185
3349:HANcoder_E407_TTA_CombineModel.c ****       rtb_SFunction_o5 = canRxData_0_SYNC1_ID.uint8_T_info[3];
 5960              		.loc 1 3349 7 view .LVU2186
3350:HANcoder_E407_TTA_CombineModel.c ****       rtb_SFunction_o6 = canRxData_0_SYNC1_ID.uint8_T_info[4];
 5961              		.loc 1 3350 7 view .LVU2187
3349:HANcoder_E407_TTA_CombineModel.c ****       rtb_SFunction_o5 = canRxData_0_SYNC1_ID.uint8_T_info[3];
 5962              		.loc 1 3349 24 is_stmt 0 view .LVU2188
 5963 132e 7388     		ldrh	r3, [r6, #2]
 5964              	.LVL409:
3351:HANcoder_E407_TTA_CombineModel.c ****       rtb_SFunction_o7 = canRxData_0_SYNC1_ID.uint8_T_info[5];
 5965              		.loc 1 3351 7 is_stmt 1 view .LVU2189
3352:HANcoder_E407_TTA_CombineModel.c ****       rtb_SFunction_o8 = canRxData_0_SYNC1_ID.uint8_T_info[6];
 5966              		.loc 1 3352 7 view .LVU2190
3353:HANcoder_E407_TTA_CombineModel.c ****       rtb_SFunction_o9 = canRxData_0_SYNC1_ID.uint8_T_info[7];
 5967              		.loc 1 3353 7 view .LVU2191
 5968              	.LBB658:
 5969              	.LBB659:
 464:HANcoder_E407_TTA_CombineModel.c **** 
 5970              		.loc 1 464 17 is_stmt 0 view .LVU2192
 5971 1330 2B86     		strh	r3, [r5, #48]	@ movhi
 5972              	.LBE659:
 5973              	.LBE658:
3353:HANcoder_E407_TTA_CombineModel.c ****       rtb_SFunction_o9 = canRxData_0_SYNC1_ID.uint8_T_info[7];
 5974              		.loc 1 3353 24 view .LVU2193
 5975 1332 B379     		ldrb	r3, [r6, #6]	@ zero_extendqisi2
 5976              	.LVL410:
3354:HANcoder_E407_TTA_CombineModel.c ****     }
 5977              		.loc 1 3354 7 is_stmt 1 view .LVU2194
3358:HANcoder_E407_TTA_CombineModel.c ****                      rtb_SFunction_o4, rtb_SFunction_o5, rtb_SFunction_o6,
 5978              		.loc 1 3358 5 view .LVU2195
 5979              	.LBB661:
 5980              	.LBI658:
 444:HANcoder_E407_TTA_CombineModel.c ****                       uint8_T rtu_In3, uint8_T rtu_In4, uint8_T rtu_In5, uint8_T
 5981              		.loc 1 444 6 view .LVU2196
 5982              	.LBB660:
 449:HANcoder_E407_TTA_CombineModel.c ****   uint8_T rtb_In6;
 5983              		.loc 1 449 3 view .LVU2197
 450:HANcoder_E407_TTA_CombineModel.c ****   uint8_T rtb_In8_m;
 5984              		.loc 1 450 3 view .LVU2198
 451:HANcoder_E407_TTA_CombineModel.c **** 
 5985              		.loc 1 451 3 view .LVU2199
 456:HANcoder_E407_TTA_CombineModel.c ****     /* SignalConversion generated from: '<S119>/In1' */
 5986              		.loc 1 456 3 view .LVU2200
 458:HANcoder_E407_TTA_CombineModel.c **** 
 5987              		.loc 1 458 5 view .LVU2201
 461:HANcoder_E407_TTA_CombineModel.c **** 
 5988              		.loc 1 461 5 view .LVU2202
 464:HANcoder_E407_TTA_CombineModel.c **** 
 5989              		.loc 1 464 5 view .LVU2203
 467:HANcoder_E407_TTA_CombineModel.c **** 
 5990              		.loc 1 467 5 view .LVU2204
 470:HANcoder_E407_TTA_CombineModel.c **** 
 5991              		.loc 1 470 5 view .LVU2205
 473:HANcoder_E407_TTA_CombineModel.c **** 
 5992              		.loc 1 473 5 view .LVU2206
 476:HANcoder_E407_TTA_CombineModel.c **** 
 5993              		.loc 1 476 5 view .LVU2207
 476:HANcoder_E407_TTA_CombineModel.c **** 
 5994              		.loc 1 476 17 is_stmt 0 view .LVU2208
 5995 1334 85F83230 		strb	r3, [r5, #50]
 479:HANcoder_E407_TTA_CombineModel.c ****   }
 5996              		.loc 1 479 5 is_stmt 1 view .LVU2209
 458:HANcoder_E407_TTA_CombineModel.c **** 
 5997              		.loc 1 458 17 is_stmt 0 view .LVU2210
 5998 1338 3388     		ldrh	r3, [r6]
 5999              	.LVL411:
 458:HANcoder_E407_TTA_CombineModel.c **** 
 6000              		.loc 1 458 17 view .LVU2211
 6001 133a EB85     		strh	r3, [r5, #46]	@ movhi
 6002              	.LVL412:
 6003              	.L223:
 458:HANcoder_E407_TTA_CombineModel.c **** 
 6004              		.loc 1 458 17 view .LVU2212
 6005              	.LBE660:
 6006              	.LBE661:
3368:HANcoder_E407_TTA_CombineModel.c ****                           &rtPrevZCSigState.Subsystem1_Trig_ZCE,
 6007              		.loc 1 3368 5 is_stmt 1 view .LVU2213
3368:HANcoder_E407_TTA_CombineModel.c ****                           &rtPrevZCSigState.Subsystem1_Trig_ZCE,
 6008              		.loc 1 3368 15 is_stmt 0 view .LVU2214
 6009 133c 7C49     		ldr	r1, .L473+24
 6010 133e 0120     		movs	r0, #1
 6011              	.LVL413:
3368:HANcoder_E407_TTA_CombineModel.c ****                           &rtPrevZCSigState.Subsystem1_Trig_ZCE,
 6012              		.loc 1 3368 15 view .LVU2215
 6013 1340 FFF7FEFF 		bl	rt_I32ZCFcn
 6014              	.LVL414:
3371:HANcoder_E407_TTA_CombineModel.c ****       /* DataStoreWrite: '<S366>/Data Store Write' */
 6015              		.loc 1 3371 5 is_stmt 1 view .LVU2216
3371:HANcoder_E407_TTA_CombineModel.c ****       /* DataStoreWrite: '<S366>/Data Store Write' */
 6016              		.loc 1 3371 8 is_stmt 0 view .LVU2217
 6017 1344 0028     		cmp	r0, #0
 6018 1346 40F0FE82 		bne	.L224
3404:HANcoder_E407_TTA_CombineModel.c ****     rtAction = 0;
 6019              		.loc 1 3404 14 view .LVU2218
 6020 134a 94F848A1 		ldrb	r10, [r4, #328]	@ zero_extendqisi2
 6021 134e FFF775B8 		b	.L225
 6022              	.LVL415:
 6023              	.L423:
1154:HANcoder_E407_TTA_CombineModel.c **** 
 6024              		.loc 1 1154 31 view .LVU2219
 6025 1352 CDE908AA 		strd	r10, r10, [sp, #32]
 6026 1356 5346     		mov	r3, r10
 6027 1358 FEF787BE 		b	.L269
 6028              	.LVL416:
 6029              	.L442:
1154:HANcoder_E407_TTA_CombineModel.c **** 
 6030              		.loc 1 1154 31 view .LVU2220
 6031 135c AAF1010A 		sub	r10, r10, #1
 6032 1360 BAFA8AFA 		clz	r10, r10
 6033 1364 4FEA5A1A 		lsr	r10, r10, #5
 6034 1368 FFF707BB 		b	.L132
 6035              	.LVL417:
 6036              	.L446:
3542:HANcoder_E407_TTA_CombineModel.c **** 
 6037              		.loc 1 3542 42 view .LVU2221
 6038 136c 95F82520 		ldrb	r2, [r5, #37]	@ zero_extendqisi2
3550:HANcoder_E407_TTA_CombineModel.c **** 
 6039              		.loc 1 3550 42 view .LVU2222
 6040 1370 95F82630 		ldrb	r3, [r5, #38]	@ zero_extendqisi2
 6041              	.LVL418:
 6042              	.L228:
3542:HANcoder_E407_TTA_CombineModel.c **** 
 6043              		.loc 1 3542 5 is_stmt 1 view .LVU2223
3542:HANcoder_E407_TTA_CombineModel.c **** 
 6044              		.loc 1 3542 17 is_stmt 0 view .LVU2224
 6045 1374 6F49     		ldr	r1, .L473+28
3542:HANcoder_E407_TTA_CombineModel.c **** 
 6046              		.loc 1 3542 19 view .LVU2225
 6047 1376 9209     		lsrs	r2, r2, #6
3542:HANcoder_E407_TTA_CombineModel.c **** 
 6048              		.loc 1 3542 17 view .LVU2226
 6049 1378 0A70     		strb	r2, [r1]
3545:HANcoder_E407_TTA_CombineModel.c **** 
 6050              		.loc 1 3545 5 is_stmt 1 view .LVU2227
3550:HANcoder_E407_TTA_CombineModel.c **** 
 6051              		.loc 1 3550 17 is_stmt 0 view .LVU2228
 6052 137a 6F49     		ldr	r1, .L473+32
3545:HANcoder_E407_TTA_CombineModel.c **** 
 6053              		.loc 1 3545 25 view .LVU2229
 6054 137c 84F84D21 		strb	r2, [r4, #333]
3550:HANcoder_E407_TTA_CombineModel.c **** 
 6055              		.loc 1 3550 5 is_stmt 1 view .LVU2230
3550:HANcoder_E407_TTA_CombineModel.c **** 
 6056              		.loc 1 3550 19 is_stmt 0 view .LVU2231
 6057 1380 9B09     		lsrs	r3, r3, #6
3550:HANcoder_E407_TTA_CombineModel.c **** 
 6058              		.loc 1 3550 17 view .LVU2232
 6059 1382 0B70     		strb	r3, [r1]
3553:HANcoder_E407_TTA_CombineModel.c **** 
 6060              		.loc 1 3553 5 is_stmt 1 view .LVU2233
3553:HANcoder_E407_TTA_CombineModel.c **** 
 6061              		.loc 1 3553 25 is_stmt 0 view .LVU2234
 6062 1384 84F84E31 		strb	r3, [r4, #334]
 6063 1388 FFF75FB8 		b	.L229
 6064              	.LVL419:
 6065              	.L285:
1247:HANcoder_E407_TTA_CombineModel.c ****     } else {
 6066              		.loc 1 1247 11 view .LVU2235
 6067 138c DFF8C491 		ldr	r9, .L473+60
 6068 1390 4FF00008 		mov	r8, #0
 6069 1394 FFF72FB9 		b	.L111
 6070              	.LVL420:
 6071              	.L205:
2745:HANcoder_E407_TTA_CombineModel.c ****       rtDWork.TRLS_ID4_RX_MODE = true;
 6072              		.loc 1 2745 5 is_stmt 1 view .LVU2236
2746:HANcoder_E407_TTA_CombineModel.c **** 
 6073              		.loc 1 2746 7 view .LVU2237
2753:HANcoder_E407_TTA_CombineModel.c ****         &canRxData_0_TRLS1_ID4.uint8_T_info[0], NULL);
 6074              		.loc 1 2753 28 is_stmt 0 view .LVU2238
 6075 1398 614B     		ldr	r3, .L473+8
 6076 139a 684E     		ldr	r6, .L473+36
 6077 139c 1968     		ldr	r1, [r3]
 6078 139e 0022     		movs	r2, #0
2746:HANcoder_E407_TTA_CombineModel.c **** 
 6079              		.loc 1 2746 32 view .LVU2239
 6080 13a0 0123     		movs	r3, #1
 6081 13a2 84F86431 		strb	r3, [r4, #356]
2753:HANcoder_E407_TTA_CombineModel.c ****         &canRxData_0_TRLS1_ID4.uint8_T_info[0], NULL);
 6082              		.loc 1 2753 7 is_stmt 1 view .LVU2240
2753:HANcoder_E407_TTA_CombineModel.c ****         &canRxData_0_TRLS1_ID4.uint8_T_info[0], NULL);
 6083              		.loc 1 2753 28 is_stmt 0 view .LVU2241
 6084 13a6 0092     		str	r2, [sp]
 6085 13a8 3346     		mov	r3, r6
 6086 13aa 1046     		mov	r0, r2
 6087 13ac FFF7FEFF 		bl	CanIoGetMessage
 6088              	.LVL421:
2757:HANcoder_E407_TTA_CombineModel.c ****         /* read the data */
 6089              		.loc 1 2757 7 is_stmt 1 view .LVU2242
2757:HANcoder_E407_TTA_CombineModel.c ****         /* read the data */
 6090              		.loc 1 2757 10 is_stmt 0 view .LVU2243
 6091 13b0 0028     		cmp	r0, #0
 6092 13b2 40F31183 		ble	.L454
2759:HANcoder_E407_TTA_CombineModel.c ****         rtb_SFunction_o3_p = canRxData_0_TRLS1_ID4.uint8_T_info[1];
 6093              		.loc 1 2759 9 is_stmt 1 view .LVU2244
2786:HANcoder_E407_TTA_CombineModel.c **** 
 6094              		.loc 1 2786 22 is_stmt 0 view .LVU2245
 6095 13b6 624A     		ldr	r2, .L473+40
2764:HANcoder_E407_TTA_CombineModel.c ****         rtb_SFunction_o8_f = canRxData_0_TRLS1_ID4.uint8_T_info[6];
 6096              		.loc 1 2764 28 view .LVU2246
 6097 13b8 96F805C0 		ldrb	ip, [r6, #5]	@ zero_extendqisi2
2759:HANcoder_E407_TTA_CombineModel.c ****         rtb_SFunction_o3_p = canRxData_0_TRLS1_ID4.uint8_T_info[1];
 6098              		.loc 1 2759 28 view .LVU2247
 6099 13bc 3378     		ldrb	r3, [r6]	@ zero_extendqisi2
 6100              	.LVL422:
2760:HANcoder_E407_TTA_CombineModel.c ****         rtb_SFunction_o4_c = canRxData_0_TRLS1_ID4.uint8_T_info[2];
 6101              		.loc 1 2760 9 is_stmt 1 view .LVU2248
2760:HANcoder_E407_TTA_CombineModel.c ****         rtb_SFunction_o4_c = canRxData_0_TRLS1_ID4.uint8_T_info[2];
 6102              		.loc 1 2760 28 is_stmt 0 view .LVU2249
 6103 13be 7778     		ldrb	r7, [r6, #1]	@ zero_extendqisi2
 6104              	.LVL423:
2761:HANcoder_E407_TTA_CombineModel.c ****         rtb_SFunction_o5_c = canRxData_0_TRLS1_ID4.uint8_T_info[3];
 6105              		.loc 1 2761 9 is_stmt 1 view .LVU2250
2761:HANcoder_E407_TTA_CombineModel.c ****         rtb_SFunction_o5_c = canRxData_0_TRLS1_ID4.uint8_T_info[3];
 6106              		.loc 1 2761 28 is_stmt 0 view .LVU2251
 6107 13c0 B178     		ldrb	r1, [r6, #2]	@ zero_extendqisi2
 6108              	.LVL424:
2762:HANcoder_E407_TTA_CombineModel.c ****         rtb_SFunction_o6_e = canRxData_0_TRLS1_ID4.uint8_T_info[4];
 6109              		.loc 1 2762 9 is_stmt 1 view .LVU2252
2762:HANcoder_E407_TTA_CombineModel.c ****         rtb_SFunction_o6_e = canRxData_0_TRLS1_ID4.uint8_T_info[4];
 6110              		.loc 1 2762 28 is_stmt 0 view .LVU2253
 6111 13c2 F078     		ldrb	r0, [r6, #3]	@ zero_extendqisi2
 6112              	.LVL425:
2763:HANcoder_E407_TTA_CombineModel.c ****         rtb_SFunction_o7_l = canRxData_0_TRLS1_ID4.uint8_T_info[5];
 6113              		.loc 1 2763 9 is_stmt 1 view .LVU2254
2764:HANcoder_E407_TTA_CombineModel.c ****         rtb_SFunction_o8_f = canRxData_0_TRLS1_ID4.uint8_T_info[6];
 6114              		.loc 1 2764 9 view .LVU2255
2765:HANcoder_E407_TTA_CombineModel.c ****         rtb_SFunction_o9_h = canRxData_0_TRLS1_ID4.uint8_T_info[7];
 6115              		.loc 1 2765 9 view .LVU2256
2786:HANcoder_E407_TTA_CombineModel.c **** 
 6116              		.loc 1 2786 22 is_stmt 0 view .LVU2257
 6117 13c4 82F800C0 		strb	ip, [r2]
2765:HANcoder_E407_TTA_CombineModel.c ****         rtb_SFunction_o9_h = canRxData_0_TRLS1_ID4.uint8_T_info[7];
 6118              		.loc 1 2765 28 view .LVU2258
 6119 13c8 B279     		ldrb	r2, [r6, #6]	@ zero_extendqisi2
 6120              	.LVL426:
2766:HANcoder_E407_TTA_CombineModel.c ****       }
 6121              		.loc 1 2766 9 is_stmt 1 view .LVU2259
2772:HANcoder_E407_TTA_CombineModel.c ****         /* SignalConversion generated from: '<S277>/In1' */
 6122              		.loc 1 2772 7 view .LVU2260
2774:HANcoder_E407_TTA_CombineModel.c **** 
 6123              		.loc 1 2774 9 view .LVU2261
2777:HANcoder_E407_TTA_CombineModel.c **** 
 6124              		.loc 1 2777 9 view .LVU2262
2780:HANcoder_E407_TTA_CombineModel.c **** 
 6125              		.loc 1 2780 9 view .LVU2263
2783:HANcoder_E407_TTA_CombineModel.c **** 
 6126              		.loc 1 2783 9 view .LVU2264
2786:HANcoder_E407_TTA_CombineModel.c **** 
 6127              		.loc 1 2786 9 view .LVU2265
2789:HANcoder_E407_TTA_CombineModel.c ****       }
 6128              		.loc 1 2789 9 view .LVU2266
2774:HANcoder_E407_TTA_CombineModel.c **** 
 6129              		.loc 1 2774 19 is_stmt 0 view .LVU2267
 6130 13ca AB75     		strb	r3, [r5, #22]
2777:HANcoder_E407_TTA_CombineModel.c **** 
 6131              		.loc 1 2777 19 view .LVU2268
 6132 13cc EF75     		strb	r7, [r5, #23]
2780:HANcoder_E407_TTA_CombineModel.c **** 
 6133              		.loc 1 2780 19 view .LVU2269
 6134 13ce 2976     		strb	r1, [r5, #24]
2783:HANcoder_E407_TTA_CombineModel.c **** 
 6135              		.loc 1 2783 19 view .LVU2270
 6136 13d0 6876     		strb	r0, [r5, #25]
2789:HANcoder_E407_TTA_CombineModel.c ****       }
 6137              		.loc 1 2789 19 view .LVU2271
 6138 13d2 AA76     		strb	r2, [r5, #26]
 6139              	.LVL427:
 6140              	.L249:
2795:HANcoder_E407_TTA_CombineModel.c **** 
 6141              		.loc 1 2795 7 is_stmt 1 view .LVU2272
 6142              	.LBB662:
 6143              	.LBB663:
 529:HANcoder_E407_TTA_CombineModel.c **** }
 6144              		.loc 1 529 15 is_stmt 0 view .LVU2273
 6145 13d4 1B02     		lsls	r3, r3, #8
 6146              	.LBE663:
 6147              	.LBE662:
2809:HANcoder_E407_TTA_CombineModel.c **** 
 6148              		.loc 1 2809 24 view .LVU2274
 6149 13d6 1F44     		add	r7, r7, r3
 6150              	.LBB666:
 6151              	.LBB664:
 529:HANcoder_E407_TTA_CombineModel.c **** }
 6152              		.loc 1 529 13 view .LVU2275
 6153 13d8 A5F86030 		strh	r3, [r5, #96]	@ movhi
 6154              	.LBE664:
 6155              	.LBE666:
 6156              	.LBB667:
 6157              	.LBB668:
 550:HANcoder_E407_TTA_CombineModel.c **** }
 6158              		.loc 1 550 15 view .LVU2276
 6159 13dc 5308     		lsrs	r3, r2, #1
 550:HANcoder_E407_TTA_CombineModel.c **** }
 6160              		.loc 1 550 13 view .LVU2277
 6161 13de 85F85E30 		strb	r3, [r5, #94]
 6162              	.LBE668:
 6163              	.LBE667:
 6164              	.LBB670:
 6165              	.LBB671:
 6166 13e2 85F85730 		strb	r3, [r5, #87]
 6167              	.LBE671:
 6168              	.LBE670:
2833:HANcoder_E407_TTA_CombineModel.c **** 
 6169              		.loc 1 2833 52 view .LVU2278
 6170 13e6 003B     		subs	r3, r3, #0
 6171 13e8 18BF     		it	ne
 6172 13ea 0123     		movne	r3, #1
2990:HANcoder_E407_TTA_CombineModel.c **** 
 6173              		.loc 1 2990 33 view .LVU2279
 6174 13ec 4D4E     		ldr	r6, .L473+12
2833:HANcoder_E407_TTA_CombineModel.c **** 
 6175              		.loc 1 2833 52 view .LVU2280
 6176 13ee 84F85831 		strb	r3, [r4, #344]
 6177              	.LBB673:
 6178              	.LBB674:
 566:HANcoder_E407_TTA_CombineModel.c **** }
 6179              		.loc 1 566 15 view .LVU2281
 6180 13f2 9308     		lsrs	r3, r2, #2
 6181              	.LBE674:
 6182              	.LBE673:
2990:HANcoder_E407_TTA_CombineModel.c **** 
 6183              		.loc 1 2990 33 view .LVU2282
 6184 13f4 3678     		ldrb	r6, [r6]	@ zero_extendqisi2
2996:HANcoder_E407_TTA_CombineModel.c **** 
 6185              		.loc 1 2996 25 view .LVU2283
 6186 13f6 94F848A1 		ldrb	r10, [r4, #328]	@ zero_extendqisi2
 6187              	.LVL428:
 6188              	.LBB677:
 6189              	.LBB675:
 566:HANcoder_E407_TTA_CombineModel.c **** }
 6190              		.loc 1 566 13 view .LVU2284
 6191 13fa 85F85D30 		strb	r3, [r5, #93]
 6192              	.LBE675:
 6193              	.LBE677:
 6194              	.LBB678:
 6195              	.LBB679:
 582:HANcoder_E407_TTA_CombineModel.c **** }
 6196              		.loc 1 582 15 view .LVU2285
 6197 13fe D308     		lsrs	r3, r2, #3
 582:HANcoder_E407_TTA_CombineModel.c **** }
 6198              		.loc 1 582 13 view .LVU2286
 6199 1400 85F85C30 		strb	r3, [r5, #92]
 6200              	.LBE679:
 6201              	.LBE678:
 6202              	.LBB681:
 6203              	.LBB682:
 598:HANcoder_E407_TTA_CombineModel.c **** }
 6204              		.loc 1 598 15 view .LVU2287
 6205 1404 1309     		lsrs	r3, r2, #4
 6206              	.LBE682:
 6207              	.LBE681:
 6208              	.LBB685:
 6209              	.LBB686:
 529:HANcoder_E407_TTA_CombineModel.c **** }
 6210              		.loc 1 529 15 view .LVU2288
 6211 1406 0902     		lsls	r1, r1, #8
 6212              	.LBE686:
 6213              	.LBE685:
2990:HANcoder_E407_TTA_CombineModel.c **** 
 6214              		.loc 1 2990 33 view .LVU2289
 6215 1408 07EE906A 		vmov	s15, r6	@ int
2996:HANcoder_E407_TTA_CombineModel.c **** 
 6216              		.loc 1 2996 35 view .LVU2290
 6217 140c 07EE10AA 		vmov	s14, r10	@ int
 6218              	.LBB688:
 6219              	.LBB683:
 598:HANcoder_E407_TTA_CombineModel.c **** }
 6220              		.loc 1 598 13 view .LVU2291
 6221 1410 85F85B30 		strb	r3, [r5, #91]
 6222              	.LBE683:
 6223              	.LBE688:
 6224              	.LBB689:
 6225              	.LBB690:
 614:HANcoder_E407_TTA_CombineModel.c **** }
 6226              		.loc 1 614 15 view .LVU2292
 6227 1414 5309     		lsrs	r3, r2, #5
 6228              	.LBE690:
 6229              	.LBE689:
2823:HANcoder_E407_TTA_CombineModel.c **** 
 6230              		.loc 1 2823 24 view .LVU2293
 6231 1416 0844     		add	r0, r0, r1
 6232              	.LBB693:
 6233              	.LBB691:
 614:HANcoder_E407_TTA_CombineModel.c **** }
 6234              		.loc 1 614 13 view .LVU2294
 6235 1418 85F85A30 		strb	r3, [r5, #90]
 6236              	.LBE691:
 6237              	.LBE693:
 6238              	.LBB694:
 6239              	.LBB695:
 630:HANcoder_E407_TTA_CombineModel.c **** }
 6240              		.loc 1 630 15 view .LVU2295
 6241 141c 9309     		lsrs	r3, r2, #6
 6242              	.LBE695:
 6243              	.LBE694:
 6244              	.LBB697:
 6245              	.LBB698:
 646:HANcoder_E407_TTA_CombineModel.c **** }
 6246              		.loc 1 646 15 view .LVU2296
 6247 141e D209     		lsrs	r2, r2, #7
 6248              	.LBE698:
 6249              	.LBE697:
2990:HANcoder_E407_TTA_CombineModel.c **** 
 6250              		.loc 1 2990 33 view .LVU2297
 6251 1420 F8EEE77A 		vcvt.f32.s32	s15, s15
2996:HANcoder_E407_TTA_CombineModel.c **** 
 6252              		.loc 1 2996 35 view .LVU2298
 6253 1424 B8EEC77A 		vcvt.f32.s32	s14, s14
2795:HANcoder_E407_TTA_CombineModel.c **** 
 6254              		.loc 1 2795 35 view .LVU2299
 6255 1428 84F850C1 		strb	ip, [r4, #336]
2798:HANcoder_E407_TTA_CombineModel.c **** 
 6256              		.loc 1 2798 7 is_stmt 1 view .LVU2300
2801:HANcoder_E407_TTA_CombineModel.c **** 
 6257              		.loc 1 2801 7 view .LVU2301
 6258              	.LVL429:
 6259              	.LBB700:
 6260              	.LBI662:
 524:HANcoder_E407_TTA_CombineModel.c **** {
 6261              		.loc 1 524 6 view .LVU2302
 6262              	.LBB665:
 529:HANcoder_E407_TTA_CombineModel.c **** }
 6263              		.loc 1 529 3 view .LVU2303
 529:HANcoder_E407_TTA_CombineModel.c **** }
 6264              		.loc 1 529 3 is_stmt 0 view .LVU2304
 6265              	.LBE665:
 6266              	.LBE700:
2809:HANcoder_E407_TTA_CombineModel.c **** 
 6267              		.loc 1 2809 7 is_stmt 1 view .LVU2305
2809:HANcoder_E407_TTA_CombineModel.c **** 
 6268              		.loc 1 2809 22 is_stmt 0 view .LVU2306
 6269 142c A4F8D470 		strh	r7, [r4, #212]	@ movhi
2812:HANcoder_E407_TTA_CombineModel.c **** 
 6270              		.loc 1 2812 7 is_stmt 1 view .LVU2307
 6271              	.LVL430:
2815:HANcoder_E407_TTA_CombineModel.c **** 
 6272              		.loc 1 2815 7 view .LVU2308
 6273              	.LBB701:
 6274              	.LBI685:
 524:HANcoder_E407_TTA_CombineModel.c **** {
 6275              		.loc 1 524 6 view .LVU2309
 6276              	.LBB687:
 529:HANcoder_E407_TTA_CombineModel.c **** }
 6277              		.loc 1 529 3 view .LVU2310
 529:HANcoder_E407_TTA_CombineModel.c **** }
 6278              		.loc 1 529 13 is_stmt 0 view .LVU2311
 6279 1430 A5F86210 		strh	r1, [r5, #98]	@ movhi
 6280              	.LVL431:
 529:HANcoder_E407_TTA_CombineModel.c **** }
 6281              		.loc 1 529 13 view .LVU2312
 6282              	.LBE687:
 6283              	.LBE701:
2823:HANcoder_E407_TTA_CombineModel.c **** 
 6284              		.loc 1 2823 7 is_stmt 1 view .LVU2313
2823:HANcoder_E407_TTA_CombineModel.c **** 
 6285              		.loc 1 2823 22 is_stmt 0 view .LVU2314
 6286 1434 A4F8D600 		strh	r0, [r4, #214]	@ movhi
2826:HANcoder_E407_TTA_CombineModel.c **** 
 6287              		.loc 1 2826 7 is_stmt 1 view .LVU2315
 6288              	.LVL432:
 6289              	.LBB702:
 6290              	.LBI667:
 545:HANcoder_E407_TTA_CombineModel.c **** {
 6291              		.loc 1 545 6 view .LVU2316
 6292              	.LBB669:
 550:HANcoder_E407_TTA_CombineModel.c **** }
 6293              		.loc 1 550 3 view .LVU2317
 550:HANcoder_E407_TTA_CombineModel.c **** }
 6294              		.loc 1 550 3 is_stmt 0 view .LVU2318
 6295              	.LBE669:
 6296              	.LBE702:
2833:HANcoder_E407_TTA_CombineModel.c **** 
 6297              		.loc 1 2833 7 is_stmt 1 view .LVU2319
2836:HANcoder_E407_TTA_CombineModel.c **** 
 6298              		.loc 1 2836 7 view .LVU2320
 6299              	.LBB703:
 6300              	.LBI673:
 561:HANcoder_E407_TTA_CombineModel.c **** {
 6301              		.loc 1 561 6 view .LVU2321
 6302              	.LBB676:
 566:HANcoder_E407_TTA_CombineModel.c **** }
 6303              		.loc 1 566 3 view .LVU2322
 566:HANcoder_E407_TTA_CombineModel.c **** }
 6304              		.loc 1 566 3 is_stmt 0 view .LVU2323
 6305              	.LBE676:
 6306              	.LBE703:
2841:HANcoder_E407_TTA_CombineModel.c **** 
 6307              		.loc 1 2841 7 is_stmt 1 view .LVU2324
 6308              	.LBB704:
 6309              	.LBI678:
 577:HANcoder_E407_TTA_CombineModel.c **** {
 6310              		.loc 1 577 6 view .LVU2325
 6311              	.LBB680:
 582:HANcoder_E407_TTA_CombineModel.c **** }
 6312              		.loc 1 582 3 view .LVU2326
 582:HANcoder_E407_TTA_CombineModel.c **** }
 6313              		.loc 1 582 3 is_stmt 0 view .LVU2327
 6314              	.LBE680:
 6315              	.LBE704:
2846:HANcoder_E407_TTA_CombineModel.c **** 
 6316              		.loc 1 2846 7 is_stmt 1 view .LVU2328
 6317              	.LBB705:
 6318              	.LBI681:
 593:HANcoder_E407_TTA_CombineModel.c **** {
 6319              		.loc 1 593 6 view .LVU2329
 6320              	.LBB684:
 598:HANcoder_E407_TTA_CombineModel.c **** }
 6321              		.loc 1 598 3 view .LVU2330
 598:HANcoder_E407_TTA_CombineModel.c **** }
 6322              		.loc 1 598 3 is_stmt 0 view .LVU2331
 6323              	.LBE684:
 6324              	.LBE705:
2851:HANcoder_E407_TTA_CombineModel.c **** 
 6325              		.loc 1 2851 7 is_stmt 1 view .LVU2332
 6326              	.LBB706:
 6327              	.LBI689:
 609:HANcoder_E407_TTA_CombineModel.c **** {
 6328              		.loc 1 609 6 view .LVU2333
 6329              	.LBB692:
 614:HANcoder_E407_TTA_CombineModel.c **** }
 6330              		.loc 1 614 3 view .LVU2334
 614:HANcoder_E407_TTA_CombineModel.c **** }
 6331              		.loc 1 614 3 is_stmt 0 view .LVU2335
 6332              	.LBE692:
 6333              	.LBE706:
2856:HANcoder_E407_TTA_CombineModel.c **** 
 6334              		.loc 1 2856 7 is_stmt 1 view .LVU2336
 6335              	.LBB707:
 6336              	.LBI694:
 625:HANcoder_E407_TTA_CombineModel.c **** {
 6337              		.loc 1 625 6 view .LVU2337
 6338              	.LBB696:
 630:HANcoder_E407_TTA_CombineModel.c **** }
 6339              		.loc 1 630 3 view .LVU2338
 630:HANcoder_E407_TTA_CombineModel.c **** }
 6340              		.loc 1 630 13 is_stmt 0 view .LVU2339
 6341 1438 85F85930 		strb	r3, [r5, #89]
 6342              	.LVL433:
 630:HANcoder_E407_TTA_CombineModel.c **** }
 6343              		.loc 1 630 13 view .LVU2340
 6344              	.LBE696:
 6345              	.LBE707:
2861:HANcoder_E407_TTA_CombineModel.c **** 
 6346              		.loc 1 2861 7 is_stmt 1 view .LVU2341
 6347              	.LBB708:
 6348              	.LBI697:
 641:HANcoder_E407_TTA_CombineModel.c **** {
 6349              		.loc 1 641 6 view .LVU2342
 6350              	.LBB699:
 646:HANcoder_E407_TTA_CombineModel.c **** }
 6351              		.loc 1 646 3 view .LVU2343
 646:HANcoder_E407_TTA_CombineModel.c **** }
 6352              		.loc 1 646 13 is_stmt 0 view .LVU2344
 6353 143c 85F85820 		strb	r2, [r5, #88]
 6354              	.LVL434:
 646:HANcoder_E407_TTA_CombineModel.c **** }
 6355              		.loc 1 646 13 view .LVU2345
 6356              	.LBE699:
 6357              	.LBE708:
2866:HANcoder_E407_TTA_CombineModel.c **** 
 6358              		.loc 1 2866 7 is_stmt 1 view .LVU2346
 6359              	.LBB709:
 6360              	.LBI670:
 545:HANcoder_E407_TTA_CombineModel.c **** {
 6361              		.loc 1 545 6 view .LVU2347
 6362              	.LBB672:
 550:HANcoder_E407_TTA_CombineModel.c **** }
 6363              		.loc 1 550 3 view .LVU2348
 550:HANcoder_E407_TTA_CombineModel.c **** }
 6364              		.loc 1 550 3 is_stmt 0 view .LVU2349
 6365              	.LBE672:
 6366              	.LBE709:
2876:HANcoder_E407_TTA_CombineModel.c **** 
 6367              		.loc 1 2876 5 is_stmt 1 view .LVU2350
 6368 1440 FEF7CCBF 		b	.L207
 6369              	.LVL435:
 6370              	.L209:
3006:HANcoder_E407_TTA_CombineModel.c ****       rtDWork.TRLS_ID5_RX_MODE = true;
 6371              		.loc 1 3006 5 view .LVU2351
3007:HANcoder_E407_TTA_CombineModel.c **** 
 6372              		.loc 1 3007 7 view .LVU2352
3014:HANcoder_E407_TTA_CombineModel.c ****         &canRxData_0_TRLS1_ID5.uint8_T_info[0], NULL);
 6373              		.loc 1 3014 28 is_stmt 0 view .LVU2353
 6374 1444 3F4B     		ldr	r3, .L473+44
 6375 1446 404E     		ldr	r6, .L473+48
 6376 1448 1968     		ldr	r1, [r3]
 6377 144a 0022     		movs	r2, #0
3007:HANcoder_E407_TTA_CombineModel.c **** 
 6378              		.loc 1 3007 32 view .LVU2354
 6379 144c 0123     		movs	r3, #1
 6380 144e 84F86331 		strb	r3, [r4, #355]
3014:HANcoder_E407_TTA_CombineModel.c ****         &canRxData_0_TRLS1_ID5.uint8_T_info[0], NULL);
 6381              		.loc 1 3014 7 is_stmt 1 view .LVU2355
3014:HANcoder_E407_TTA_CombineModel.c ****         &canRxData_0_TRLS1_ID5.uint8_T_info[0], NULL);
 6382              		.loc 1 3014 28 is_stmt 0 view .LVU2356
 6383 1452 0092     		str	r2, [sp]
 6384 1454 3346     		mov	r3, r6
 6385 1456 1046     		mov	r0, r2
 6386 1458 FFF7FEFF 		bl	CanIoGetMessage
 6387              	.LVL436:
3018:HANcoder_E407_TTA_CombineModel.c ****         /* read the data */
 6388              		.loc 1 3018 7 is_stmt 1 view .LVU2357
3018:HANcoder_E407_TTA_CombineModel.c ****         /* read the data */
 6389              		.loc 1 3018 10 is_stmt 0 view .LVU2358
 6390 145c 0028     		cmp	r0, #0
 6391 145e 40F3A282 		ble	.L455
3020:HANcoder_E407_TTA_CombineModel.c ****         rtb_SFunction_o3_m = canRxData_0_TRLS1_ID5.uint8_T_info[1];
 6392              		.loc 1 3020 9 is_stmt 1 view .LVU2359
3044:HANcoder_E407_TTA_CombineModel.c **** 
 6393              		.loc 1 3044 22 is_stmt 0 view .LVU2360
 6394 1462 3A49     		ldr	r1, .L473+52
3025:HANcoder_E407_TTA_CombineModel.c ****         rtb_SFunction_o8_p = canRxData_0_TRLS1_ID5.uint8_T_info[6];
 6395              		.loc 1 3025 28 view .LVU2361
 6396 1464 7379     		ldrb	r3, [r6, #5]	@ zero_extendqisi2
3020:HANcoder_E407_TTA_CombineModel.c ****         rtb_SFunction_o3_m = canRxData_0_TRLS1_ID5.uint8_T_info[1];
 6397              		.loc 1 3020 28 view .LVU2362
 6398 1466 3278     		ldrb	r2, [r6]	@ zero_extendqisi2
 6399              	.LVL437:
3021:HANcoder_E407_TTA_CombineModel.c ****         rtb_SFunction_o4_b = canRxData_0_TRLS1_ID5.uint8_T_info[2];
 6400              		.loc 1 3021 9 is_stmt 1 view .LVU2363
3021:HANcoder_E407_TTA_CombineModel.c ****         rtb_SFunction_o4_b = canRxData_0_TRLS1_ID5.uint8_T_info[2];
 6401              		.loc 1 3021 28 is_stmt 0 view .LVU2364
 6402 1468 7778     		ldrb	r7, [r6, #1]	@ zero_extendqisi2
 6403              	.LVL438:
3022:HANcoder_E407_TTA_CombineModel.c ****         rtb_SFunction_o5_o = canRxData_0_TRLS1_ID5.uint8_T_info[3];
 6404              		.loc 1 3022 9 is_stmt 1 view .LVU2365
3022:HANcoder_E407_TTA_CombineModel.c ****         rtb_SFunction_o5_o = canRxData_0_TRLS1_ID5.uint8_T_info[3];
 6405              		.loc 1 3022 28 is_stmt 0 view .LVU2366
 6406 146a B078     		ldrb	r0, [r6, #2]	@ zero_extendqisi2
 6407              	.LVL439:
3023:HANcoder_E407_TTA_CombineModel.c ****         rtb_SFunction_o6_i = canRxData_0_TRLS1_ID5.uint8_T_info[4];
 6408              		.loc 1 3023 9 is_stmt 1 view .LVU2367
3024:HANcoder_E407_TTA_CombineModel.c ****         rtb_SFunction_o7_f = canRxData_0_TRLS1_ID5.uint8_T_info[5];
 6409              		.loc 1 3024 9 view .LVU2368
3025:HANcoder_E407_TTA_CombineModel.c ****         rtb_SFunction_o8_p = canRxData_0_TRLS1_ID5.uint8_T_info[6];
 6410              		.loc 1 3025 9 view .LVU2369
3026:HANcoder_E407_TTA_CombineModel.c ****         rtb_SFunction_o9_l = canRxData_0_TRLS1_ID5.uint8_T_info[7];
 6411              		.loc 1 3026 9 view .LVU2370
3044:HANcoder_E407_TTA_CombineModel.c **** 
 6412              		.loc 1 3044 22 is_stmt 0 view .LVU2371
 6413 146c 0B70     		strb	r3, [r1]
3026:HANcoder_E407_TTA_CombineModel.c ****         rtb_SFunction_o9_l = canRxData_0_TRLS1_ID5.uint8_T_info[7];
 6414              		.loc 1 3026 28 view .LVU2372
 6415 146e B179     		ldrb	r1, [r6, #6]	@ zero_extendqisi2
 6416              	.LVL440:
3027:HANcoder_E407_TTA_CombineModel.c ****       }
 6417              		.loc 1 3027 9 is_stmt 1 view .LVU2373
3033:HANcoder_E407_TTA_CombineModel.c ****         /* SignalConversion generated from: '<S324>/In1' */
 6418              		.loc 1 3033 7 view .LVU2374
3035:HANcoder_E407_TTA_CombineModel.c **** 
 6419              		.loc 1 3035 9 view .LVU2375
3038:HANcoder_E407_TTA_CombineModel.c **** 
 6420              		.loc 1 3038 9 view .LVU2376
3041:HANcoder_E407_TTA_CombineModel.c **** 
 6421              		.loc 1 3041 9 view .LVU2377
3044:HANcoder_E407_TTA_CombineModel.c **** 
 6422              		.loc 1 3044 9 view .LVU2378
3047:HANcoder_E407_TTA_CombineModel.c ****       }
 6423              		.loc 1 3047 9 view .LVU2379
3035:HANcoder_E407_TTA_CombineModel.c **** 
 6424              		.loc 1 3035 17 is_stmt 0 view .LVU2380
 6425 1470 EA72     		strb	r2, [r5, #11]
3038:HANcoder_E407_TTA_CombineModel.c **** 
 6426              		.loc 1 3038 17 view .LVU2381
 6427 1472 2F73     		strb	r7, [r5, #12]
3041:HANcoder_E407_TTA_CombineModel.c **** 
 6428              		.loc 1 3041 17 view .LVU2382
 6429 1474 6873     		strb	r0, [r5, #13]
3047:HANcoder_E407_TTA_CombineModel.c ****       }
 6430              		.loc 1 3047 17 view .LVU2383
 6431 1476 A973     		strb	r1, [r5, #14]
 6432              	.LVL441:
 6433              	.L245:
3053:HANcoder_E407_TTA_CombineModel.c **** 
 6434              		.loc 1 3053 7 is_stmt 1 view .LVU2384
3053:HANcoder_E407_TTA_CombineModel.c **** 
 6435              		.loc 1 3053 35 is_stmt 0 view .LVU2385
 6436 1478 84F84F31 		strb	r3, [r4, #335]
3056:HANcoder_E407_TTA_CombineModel.c **** 
 6437              		.loc 1 3056 7 is_stmt 1 view .LVU2386
 6438              	.LVL442:
3059:HANcoder_E407_TTA_CombineModel.c **** 
 6439              		.loc 1 3059 7 view .LVU2387
 6440              	.LBB710:
 6441              	.LBI710:
 524:HANcoder_E407_TTA_CombineModel.c **** {
 6442              		.loc 1 524 6 view .LVU2388
 6443              	.LBB711:
 529:HANcoder_E407_TTA_CombineModel.c **** }
 6444              		.loc 1 529 3 view .LVU2389
 529:HANcoder_E407_TTA_CombineModel.c **** }
 6445              		.loc 1 529 15 is_stmt 0 view .LVU2390
 6446 147c 1302     		lsls	r3, r2, #8
 6447              	.LBE711:
 6448              	.LBE710:
3067:HANcoder_E407_TTA_CombineModel.c **** 
 6449              		.loc 1 3067 24 view .LVU2391
 6450 147e 1F44     		add	r7, r7, r3
 6451              	.LBB713:
 6452              	.LBB712:
 529:HANcoder_E407_TTA_CombineModel.c **** }
 6453              		.loc 1 529 13 view .LVU2392
 6454 1480 A5F84830 		strh	r3, [r5, #72]	@ movhi
 6455              	.LVL443:
 529:HANcoder_E407_TTA_CombineModel.c **** }
 6456              		.loc 1 529 13 view .LVU2393
 6457              	.LBE712:
 6458              	.LBE713:
3067:HANcoder_E407_TTA_CombineModel.c **** 
 6459              		.loc 1 3067 7 is_stmt 1 view .LVU2394
 6460              	.LBB714:
 6461              	.LBB715:
 550:HANcoder_E407_TTA_CombineModel.c **** }
 6462              		.loc 1 550 15 is_stmt 0 view .LVU2395
 6463 1484 4B08     		lsrs	r3, r1, #1
 550:HANcoder_E407_TTA_CombineModel.c **** }
 6464              		.loc 1 550 13 view .LVU2396
 6465 1486 85F84630 		strb	r3, [r5, #70]
 6466              	.LBE715:
 6467              	.LBE714:
 6468              	.LBB717:
 6469              	.LBB718:
 6470 148a 85F83F30 		strb	r3, [r5, #63]
 6471              	.LBE718:
 6472              	.LBE717:
3085:HANcoder_E407_TTA_CombineModel.c **** 
 6473              		.loc 1 3085 53 view .LVU2397
 6474 148e 003B     		subs	r3, r3, #0
 6475 1490 18BF     		it	ne
 6476 1492 0123     		movne	r3, #1
 6477 1494 84F85931 		strb	r3, [r4, #345]
 6478              	.LBB720:
 6479              	.LBB721:
 566:HANcoder_E407_TTA_CombineModel.c **** }
 6480              		.loc 1 566 15 view .LVU2398
 6481 1498 8B08     		lsrs	r3, r1, #2
 566:HANcoder_E407_TTA_CombineModel.c **** }
 6482              		.loc 1 566 13 view .LVU2399
 6483 149a 85F84530 		strb	r3, [r5, #69]
 6484              	.LBE721:
 6485              	.LBE720:
 6486              	.LBB723:
 6487              	.LBB724:
 582:HANcoder_E407_TTA_CombineModel.c **** }
 6488              		.loc 1 582 15 view .LVU2400
 6489 149e CB08     		lsrs	r3, r1, #3
 582:HANcoder_E407_TTA_CombineModel.c **** }
 6490              		.loc 1 582 13 view .LVU2401
 6491 14a0 85F84430 		strb	r3, [r5, #68]
 6492              	.LBE724:
 6493              	.LBE723:
 6494              	.LBB726:
 6495              	.LBB727:
 598:HANcoder_E407_TTA_CombineModel.c **** }
 6496              		.loc 1 598 15 view .LVU2402
 6497 14a4 0B09     		lsrs	r3, r1, #4
 598:HANcoder_E407_TTA_CombineModel.c **** }
 6498              		.loc 1 598 13 view .LVU2403
 6499 14a6 85F84330 		strb	r3, [r5, #67]
 6500              	.LBE727:
 6501              	.LBE726:
 6502              	.LBB729:
 6503              	.LBB730:
 614:HANcoder_E407_TTA_CombineModel.c **** }
 6504              		.loc 1 614 15 view .LVU2404
 6505 14aa 4B09     		lsrs	r3, r1, #5
 6506              	.LBE730:
 6507              	.LBE729:
 6508              	.LBB733:
 6509              	.LBB734:
 529:HANcoder_E407_TTA_CombineModel.c **** }
 6510              		.loc 1 529 15 view .LVU2405
 6511 14ac 0002     		lsls	r0, r0, #8
 6512              	.LBE734:
 6513              	.LBE733:
 6514              	.LBB736:
 6515              	.LBB731:
 614:HANcoder_E407_TTA_CombineModel.c **** }
 6516              		.loc 1 614 13 view .LVU2406
 6517 14ae 85F84230 		strb	r3, [r5, #66]
 6518              	.LBE731:
 6519              	.LBE736:
 6520              	.LBB737:
 6521              	.LBB738:
 630:HANcoder_E407_TTA_CombineModel.c **** }
 6522              		.loc 1 630 15 view .LVU2407
 6523 14b2 8B09     		lsrs	r3, r1, #6
 6524              	.LBE738:
 6525              	.LBE737:
 6526              	.LBB740:
 6527              	.LBB741:
 646:HANcoder_E407_TTA_CombineModel.c **** }
 6528              		.loc 1 646 15 view .LVU2408
 6529 14b4 C909     		lsrs	r1, r1, #7
 6530              	.LBE741:
 6531              	.LBE740:
3333:HANcoder_E407_TTA_CombineModel.c ****     rtDWork.Subsystem2_MODE = true;
 6532              		.loc 1 3333 15 view .LVU2409
 6533 14b6 94F848A1 		ldrb	r10, [r4, #328]	@ zero_extendqisi2
3067:HANcoder_E407_TTA_CombineModel.c **** 
 6534              		.loc 1 3067 22 view .LVU2410
 6535 14ba A4F8D270 		strh	r7, [r4, #210]	@ movhi
3070:HANcoder_E407_TTA_CombineModel.c **** 
 6536              		.loc 1 3070 7 is_stmt 1 view .LVU2411
3073:HANcoder_E407_TTA_CombineModel.c **** 
 6537              		.loc 1 3073 7 view .LVU2412
 6538              	.LVL444:
 6539              	.LBB743:
 6540              	.LBI733:
 524:HANcoder_E407_TTA_CombineModel.c **** {
 6541              		.loc 1 524 6 view .LVU2413
 6542              	.LBB735:
 529:HANcoder_E407_TTA_CombineModel.c **** }
 6543              		.loc 1 529 3 view .LVU2414
 529:HANcoder_E407_TTA_CombineModel.c **** }
 6544              		.loc 1 529 13 is_stmt 0 view .LVU2415
 6545 14be A5F84A00 		strh	r0, [r5, #74]	@ movhi
 6546              	.LVL445:
 529:HANcoder_E407_TTA_CombineModel.c **** }
 6547              		.loc 1 529 13 view .LVU2416
 6548              	.LBE735:
 6549              	.LBE743:
3078:HANcoder_E407_TTA_CombineModel.c **** 
 6550              		.loc 1 3078 7 is_stmt 1 view .LVU2417
 6551              	.LBB744:
 6552              	.LBI714:
 545:HANcoder_E407_TTA_CombineModel.c **** {
 6553              		.loc 1 545 6 view .LVU2418
 6554              	.LBB716:
 550:HANcoder_E407_TTA_CombineModel.c **** }
 6555              		.loc 1 550 3 view .LVU2419
 550:HANcoder_E407_TTA_CombineModel.c **** }
 6556              		.loc 1 550 3 is_stmt 0 view .LVU2420
 6557              	.LBE716:
 6558              	.LBE744:
3085:HANcoder_E407_TTA_CombineModel.c **** 
 6559              		.loc 1 3085 7 is_stmt 1 view .LVU2421
3088:HANcoder_E407_TTA_CombineModel.c **** 
 6560              		.loc 1 3088 7 view .LVU2422
 6561              	.LBB745:
 6562              	.LBI720:
 561:HANcoder_E407_TTA_CombineModel.c **** {
 6563              		.loc 1 561 6 view .LVU2423
 6564              	.LBB722:
 566:HANcoder_E407_TTA_CombineModel.c **** }
 6565              		.loc 1 566 3 view .LVU2424
 566:HANcoder_E407_TTA_CombineModel.c **** }
 6566              		.loc 1 566 3 is_stmt 0 view .LVU2425
 6567              	.LBE722:
 6568              	.LBE745:
3093:HANcoder_E407_TTA_CombineModel.c **** 
 6569              		.loc 1 3093 7 is_stmt 1 view .LVU2426
 6570              	.LBB746:
 6571              	.LBI723:
 577:HANcoder_E407_TTA_CombineModel.c **** {
 6572              		.loc 1 577 6 view .LVU2427
 6573              	.LBB725:
 582:HANcoder_E407_TTA_CombineModel.c **** }
 6574              		.loc 1 582 3 view .LVU2428
 582:HANcoder_E407_TTA_CombineModel.c **** }
 6575              		.loc 1 582 3 is_stmt 0 view .LVU2429
 6576              	.LBE725:
 6577              	.LBE746:
3098:HANcoder_E407_TTA_CombineModel.c **** 
 6578              		.loc 1 3098 7 is_stmt 1 view .LVU2430
 6579              	.LBB747:
 6580              	.LBI726:
 593:HANcoder_E407_TTA_CombineModel.c **** {
 6581              		.loc 1 593 6 view .LVU2431
 6582              	.LBB728:
 598:HANcoder_E407_TTA_CombineModel.c **** }
 6583              		.loc 1 598 3 view .LVU2432
 598:HANcoder_E407_TTA_CombineModel.c **** }
 6584              		.loc 1 598 3 is_stmt 0 view .LVU2433
 6585              	.LBE728:
 6586              	.LBE747:
3103:HANcoder_E407_TTA_CombineModel.c **** 
 6587              		.loc 1 3103 7 is_stmt 1 view .LVU2434
 6588              	.LBB748:
 6589              	.LBI729:
 609:HANcoder_E407_TTA_CombineModel.c **** {
 6590              		.loc 1 609 6 view .LVU2435
 6591              	.LBB732:
 614:HANcoder_E407_TTA_CombineModel.c **** }
 6592              		.loc 1 614 3 view .LVU2436
 614:HANcoder_E407_TTA_CombineModel.c **** }
 6593              		.loc 1 614 3 is_stmt 0 view .LVU2437
 6594              	.LBE732:
 6595              	.LBE748:
3108:HANcoder_E407_TTA_CombineModel.c **** 
 6596              		.loc 1 3108 7 is_stmt 1 view .LVU2438
 6597              	.LBB749:
 6598              	.LBI737:
 625:HANcoder_E407_TTA_CombineModel.c **** {
 6599              		.loc 1 625 6 view .LVU2439
 6600              	.LBB739:
 630:HANcoder_E407_TTA_CombineModel.c **** }
 6601              		.loc 1 630 3 view .LVU2440
 630:HANcoder_E407_TTA_CombineModel.c **** }
 6602              		.loc 1 630 13 is_stmt 0 view .LVU2441
 6603 14c2 85F84130 		strb	r3, [r5, #65]
 6604              	.LVL446:
 630:HANcoder_E407_TTA_CombineModel.c **** }
 6605              		.loc 1 630 13 view .LVU2442
 6606              	.LBE739:
 6607              	.LBE749:
3113:HANcoder_E407_TTA_CombineModel.c **** 
 6608              		.loc 1 3113 7 is_stmt 1 view .LVU2443
 6609              	.LBB750:
 6610              	.LBI740:
 641:HANcoder_E407_TTA_CombineModel.c **** {
 6611              		.loc 1 641 6 view .LVU2444
 6612              	.LBB742:
 646:HANcoder_E407_TTA_CombineModel.c **** }
 6613              		.loc 1 646 3 view .LVU2445
 646:HANcoder_E407_TTA_CombineModel.c **** }
 6614              		.loc 1 646 13 is_stmt 0 view .LVU2446
 6615 14c6 85F84010 		strb	r1, [r5, #64]
 6616              	.LVL447:
 646:HANcoder_E407_TTA_CombineModel.c **** }
 6617              		.loc 1 646 13 view .LVU2447
 6618              	.LBE742:
 6619              	.LBE750:
3118:HANcoder_E407_TTA_CombineModel.c **** 
 6620              		.loc 1 3118 7 is_stmt 1 view .LVU2448
 6621              	.LBB751:
 6622              	.LBI717:
 545:HANcoder_E407_TTA_CombineModel.c **** {
 6623              		.loc 1 545 6 view .LVU2449
 6624              	.LBB719:
 550:HANcoder_E407_TTA_CombineModel.c **** }
 6625              		.loc 1 550 3 view .LVU2450
 550:HANcoder_E407_TTA_CombineModel.c **** }
 6626              		.loc 1 550 3 is_stmt 0 view .LVU2451
 6627              	.LBE719:
 6628              	.LBE751:
3128:HANcoder_E407_TTA_CombineModel.c **** 
 6629              		.loc 1 3128 5 is_stmt 1 view .LVU2452
 6630 14ca FEF797BF 		b	.L211
 6631              	.LVL448:
 6632              	.L452:
2229:HANcoder_E407_TTA_CombineModel.c ****       rtDWork.TRCK1_ID2_RX_MODE = true;
 6633              		.loc 1 2229 5 view .LVU2453
2329:HANcoder_E407_TTA_CombineModel.c ****       rtDWork.TRCK1_ID2_RX_MODE = false;
 6634              		.loc 1 2329 12 view .LVU2454
2329:HANcoder_E407_TTA_CombineModel.c ****       rtDWork.TRCK1_ID2_RX_MODE = false;
 6635              		.loc 1 2329 15 is_stmt 0 view .LVU2455
 6636 14ce 94F86731 		ldrb	r3, [r4, #359]	@ zero_extendqisi2
 6637              	.LVL449:
2329:HANcoder_E407_TTA_CombineModel.c ****       rtDWork.TRCK1_ID2_RX_MODE = false;
 6638              		.loc 1 2329 15 view .LVU2456
 6639 14d2 13B1     		cbz	r3, .L283
2330:HANcoder_E407_TTA_CombineModel.c ****     }
 6640              		.loc 1 2330 7 is_stmt 1 view .LVU2457
2330:HANcoder_E407_TTA_CombineModel.c ****     }
 6641              		.loc 1 2330 33 is_stmt 0 view .LVU2458
 6642 14d4 0023     		movs	r3, #0
 6643 14d6 84F86731 		strb	r3, [r4, #359]
2336:HANcoder_E407_TTA_CombineModel.c **** 
 6644              		.loc 1 2336 5 is_stmt 1 view .LVU2459
 6645              	.L283:
 6646 14da 1D4E     		ldr	r6, .L473+56
2162:HANcoder_E407_TTA_CombineModel.c **** 
 6647              		.loc 1 2162 13 is_stmt 0 view .LVU2460
 6648 14dc 0120     		movs	r0, #1
 6649 14de FEF77ABE 		b	.L194
 6650              	.LVL450:
 6651              	.L163:
1941:HANcoder_E407_TTA_CombineModel.c **** 
 6652              		.loc 1 1941 5 is_stmt 1 view .LVU2461
1941:HANcoder_E407_TTA_CombineModel.c **** 
 6653              		.loc 1 1941 25 is_stmt 0 view .LVU2462
 6654 14e2 F0EE006A 		vmov.f32	s13, #2.0e+0
 6655 14e6 B4EE667A 		vcmp.f32	s14, s13
 6656 14ea F1EE10FA 		vmrs	APSR_nzcv, FPSCR
 6657 14ee 00F04981 		beq	.L167
 6658              	.LVL451:
1946:HANcoder_E407_TTA_CombineModel.c ****       rtDWork.MMBS1_RX_MODE = true;
 6659              		.loc 1 1946 5 is_stmt 1 view .LVU2463
1993:HANcoder_E407_TTA_CombineModel.c ****       rtDWork.MMBS1_RX_MODE = false;
 6660              		.loc 1 1993 12 view .LVU2464
1993:HANcoder_E407_TTA_CombineModel.c ****       rtDWork.MMBS1_RX_MODE = false;
 6661              		.loc 1 1993 23 is_stmt 0 view .LVU2465
 6662 14f2 94F86A61 		ldrb	r6, [r4, #362]	@ zero_extendqisi2
1993:HANcoder_E407_TTA_CombineModel.c ****       rtDWork.MMBS1_RX_MODE = false;
 6663              		.loc 1 1993 15 view .LVU2466
 6664 14f6 16B1     		cbz	r6, .L173
1994:HANcoder_E407_TTA_CombineModel.c ****     }
 6665              		.loc 1 1994 7 is_stmt 1 view .LVU2467
1994:HANcoder_E407_TTA_CombineModel.c ****     }
 6666              		.loc 1 1994 29 is_stmt 0 view .LVU2468
 6667 14f8 0026     		movs	r6, #0
 6668 14fa 84F86A61 		strb	r6, [r4, #362]
2000:HANcoder_E407_TTA_CombineModel.c **** 
 6669              		.loc 1 2000 5 is_stmt 1 view .LVU2469
 6670              	.LVL452:
 6671              	.L173:
2004:HANcoder_E407_TTA_CombineModel.c **** 
 6672              		.loc 1 2004 5 view .LVU2470
 6673              	.LBB752:
 490:HANcoder_E407_TTA_CombineModel.c **** {
 6674              		.loc 1 490 6 view .LVU2471
 6675              	.LBB423:
 495:HANcoder_E407_TTA_CombineModel.c ****     /* Update for M-S-Function: '<S120>/S-Function' */
 6676              		.loc 1 495 3 view .LVU2472
 6677              	.LBE423:
 6678              	.LBE752:
2000:HANcoder_E407_TTA_CombineModel.c **** 
 6679              		.loc 1 2000 14 is_stmt 0 view .LVU2473
 6680 14fe 0022     		movs	r2, #0
 6681 1500 FEF707BE 		b	.L264
 6682              	.LVL453:
 6683              	.L175:
2028:HANcoder_E407_TTA_CombineModel.c ****       rtDWork.SSTM1_RX_MODE = true;
 6684              		.loc 1 2028 5 is_stmt 1 discriminator 4 view .LVU2474
2060:HANcoder_E407_TTA_CombineModel.c ****       rtDWork.SSTM1_RX_MODE = false;
 6685              		.loc 1 2060 12 discriminator 4 view .LVU2475
2060:HANcoder_E407_TTA_CombineModel.c ****       rtDWork.SSTM1_RX_MODE = false;
 6686              		.loc 1 2060 15 is_stmt 0 discriminator 4 view .LVU2476
 6687 1504 94F86921 		ldrb	r2, [r4, #361]	@ zero_extendqisi2
 6688 1508 002A     		cmp	r2, #0
 6689 150a 3EF439AE 		beq	.L180
2061:HANcoder_E407_TTA_CombineModel.c ****     }
 6690              		.loc 1 2061 7 is_stmt 1 view .LVU2477
2061:HANcoder_E407_TTA_CombineModel.c ****     }
 6691              		.loc 1 2061 29 is_stmt 0 view .LVU2478
 6692 150e 0022     		movs	r2, #0
 6693 1510 84F86921 		strb	r2, [r4, #361]
2067:HANcoder_E407_TTA_CombineModel.c **** 
 6694              		.loc 1 2067 5 is_stmt 1 view .LVU2479
 6695 1514 FEF734BE 		b	.L180
 6696              	.L474:
 6697              		.align	2
 6698              	.L473:
 6699 1518 00000000 		.word	rtConstB
 6700 151c 00000000 		.word	.LANCHOR8
 6701 1520 00000000 		.word	.LANCHOR66
 6702 1524 00000000 		.word	.LANCHOR7
 6703 1528 00000000 		.word	.LANCHOR47
 6704 152c 00000000 		.word	.LANCHOR49
 6705 1530 00000000 		.word	.LANCHOR5
 6706 1534 00000000 		.word	.LANCHOR73
 6707 1538 00000000 		.word	.LANCHOR74
 6708 153c 00000000 		.word	.LANCHOR64
 6709 1540 00000000 		.word	.LANCHOR65
 6710 1544 00000000 		.word	.LANCHOR69
 6711 1548 00000000 		.word	.LANCHOR67
 6712 154c 00000000 		.word	.LANCHOR68
 6713 1550 00000000 		.word	.LANCHOR54
 6714 1554 0000F0BF 		.word	-1074790400
 6715              	.LVL454:
 6716              	.L431:
2391:HANcoder_E407_TTA_CombineModel.c ****       rtDWork.TRCK1_RX_MODE = true;
 6717              		.loc 1 2391 5 view .LVU2480
2491:HANcoder_E407_TTA_CombineModel.c ****       rtDWork.TRCK1_RX_MODE = false;
 6718              		.loc 1 2491 12 view .LVU2481
2491:HANcoder_E407_TTA_CombineModel.c ****       rtDWork.TRCK1_RX_MODE = false;
 6719              		.loc 1 2491 15 is_stmt 0 view .LVU2482
 6720 1558 94F86631 		ldrb	r3, [r4, #358]	@ zero_extendqisi2
 6721 155c 002B     		cmp	r3, #0
 6722 155e 40F08C82 		bne	.L276
 6723              	.L277:
 6724              	.LVL455:
2503:HANcoder_E407_TTA_CombineModel.c ****     {
 6725              		.loc 1 2503 5 is_stmt 1 view .LVU2483
2503:HANcoder_E407_TTA_CombineModel.c ****     {
 6726              		.loc 1 2503 49 is_stmt 0 view .LVU2484
 6727 1562 9BF80430 		ldrb	r3, [fp, #4]	@ zero_extendqisi2
2503:HANcoder_E407_TTA_CombineModel.c ****     {
 6728              		.loc 1 2503 29 view .LVU2485
 6729 1566 012B     		cmp	r3, #1
 6730 1568 3EF408AF 		beq	.L251
2506:HANcoder_E407_TTA_CombineModel.c **** 
 6731              		.loc 1 2506 7 is_stmt 1 view .LVU2486
2520:HANcoder_E407_TTA_CombineModel.c **** 
 6732              		.loc 1 2520 7 is_stmt 0 view .LVU2487
 6733 156c CE4A     		ldr	r2, .L475
2509:HANcoder_E407_TTA_CombineModel.c **** 
 6734              		.loc 1 2509 33 view .LVU2488
 6735 156e 94F85711 		ldrb	r1, [r4, #343]	@ zero_extendqisi2
 6736              	.LBB753:
 6737              	.LBB754:
 662:HANcoder_E407_TTA_CombineModel.c **** }
 6738              		.loc 1 662 15 view .LVU2489
 6739 1572 92F83030 		ldrb	r3, [r2, #48]	@ zero_extendqisi2
 6740              	.LBE754:
 6741              	.LBE753:
 6742              	.LBB758:
 6743              	.LBB759:
 694:HANcoder_E407_TTA_CombineModel.c **** }
 6744              		.loc 1 694 15 view .LVU2490
 6745 1576 92F83170 		ldrb	r7, [r2, #49]	@ zero_extendqisi2
 6746              	.LBE759:
 6747              	.LBE758:
 6748              	.LBB763:
 6749              	.LBB764:
 678:HANcoder_E407_TTA_CombineModel.c **** }
 6750              		.loc 1 678 15 view .LVU2491
 6751 157a 4FEA410C 		lsl	ip, r1, #1
 6752              	.LBE764:
 6753              	.LBE763:
 6754              	.LBB768:
 6755              	.LBB755:
 662:HANcoder_E407_TTA_CombineModel.c **** }
 6756              		.loc 1 662 15 view .LVU2492
 6757 157e 9B00     		lsls	r3, r3, #2
 6758 1580 DBB2     		uxtb	r3, r3
 6759              	.LBE755:
 6760              	.LBE768:
 6761              	.LBB769:
 6762              	.LBB765:
 678:HANcoder_E407_TTA_CombineModel.c **** }
 6763              		.loc 1 678 15 view .LVU2493
 6764 1582 5FFA8CFC 		uxtb	ip, ip
 6765              	.LBE765:
 6766              	.LBE769:
2554:HANcoder_E407_TTA_CombineModel.c ****         ((uint32_T)rtDWork.motorFailed + rtB.BitShift1_n.y) + rtB.BitShift_gk.y)
 6767              		.loc 1 2554 49 view .LVU2494
 6768 1586 03EB0C00 		add	r0, r3, ip
 6769              	.LBB770:
 6770              	.LBB766:
 678:HANcoder_E407_TTA_CombineModel.c **** }
 6771              		.loc 1 678 13 view .LVU2495
 6772 158a 85F87FC0 		strb	ip, [r5, #127]
 6773              	.LBE766:
 6774              	.LBE770:
2554:HANcoder_E407_TTA_CombineModel.c ****         ((uint32_T)rtDWork.motorFailed + rtB.BitShift1_n.y) + rtB.BitShift_gk.y)
 6775              		.loc 1 2554 49 view .LVU2496
 6776 158e 94F856C1 		ldrb	ip, [r4, #342]	@ zero_extendqisi2
 6777              	.LBB771:
 6778              	.LBB756:
 662:HANcoder_E407_TTA_CombineModel.c **** }
 6779              		.loc 1 662 13 view .LVU2497
 6780 1592 85F88030 		strb	r3, [r5, #128]
 6781              	.LBE756:
 6782              	.LBE771:
 6783              	.LBB772:
 6784              	.LBB760:
 694:HANcoder_E407_TTA_CombineModel.c **** }
 6785              		.loc 1 694 15 view .LVU2498
 6786 1596 FF00     		lsls	r7, r7, #3
 6787              	.LBE760:
 6788              	.LBE772:
 6789              	.LBB773:
 6790              	.LBB774:
 710:HANcoder_E407_TTA_CombineModel.c **** }
 6791              		.loc 1 710 15 view .LVU2499
 6792 1598 92F83230 		ldrb	r3, [r2, #50]	@ zero_extendqisi2
 6793              	.LBE774:
 6794              	.LBE773:
2554:HANcoder_E407_TTA_CombineModel.c ****         ((uint32_T)rtDWork.motorFailed + rtB.BitShift1_n.y) + rtB.BitShift_gk.y)
 6795              		.loc 1 2554 49 view .LVU2500
 6796 159c 6044     		add	r0, r0, ip
 6797              	.LBB778:
 6798              	.LBB761:
 694:HANcoder_E407_TTA_CombineModel.c **** }
 6799              		.loc 1 694 15 view .LVU2501
 6800 159e FFB2     		uxtb	r7, r7
 694:HANcoder_E407_TTA_CombineModel.c **** }
 6801              		.loc 1 694 13 view .LVU2502
 6802 15a0 85F87E70 		strb	r7, [r5, #126]
 6803              	.LBE761:
 6804              	.LBE778:
2554:HANcoder_E407_TTA_CombineModel.c ****         ((uint32_T)rtDWork.motorFailed + rtB.BitShift1_n.y) + rtB.BitShift_gk.y)
 6805              		.loc 1 2554 29 view .LVU2503
 6806 15a4 0744     		add	r7, r7, r0
 6807              	.LBB779:
 6808              	.LBB780:
 726:HANcoder_E407_TTA_CombineModel.c **** }
 6809              		.loc 1 726 15 view .LVU2504
 6810 15a6 92F83300 		ldrb	r0, [r2, #51]	@ zero_extendqisi2
 6811              	.LBE780:
 6812              	.LBE779:
 6813              	.LBB784:
 6814              	.LBB775:
 710:HANcoder_E407_TTA_CombineModel.c **** }
 6815              		.loc 1 710 15 view .LVU2505
 6816 15aa 1B01     		lsls	r3, r3, #4
 6817 15ac DBB2     		uxtb	r3, r3
 6818              	.LBE775:
 6819              	.LBE784:
 6820              	.LBB785:
 6821              	.LBB781:
 726:HANcoder_E407_TTA_CombineModel.c **** }
 6822              		.loc 1 726 15 view .LVU2506
 6823 15ae 4001     		lsls	r0, r0, #5
 6824 15b0 C0B2     		uxtb	r0, r0
 6825              	.LBE781:
 6826              	.LBE785:
 6827              	.LBB786:
 6828              	.LBB776:
 710:HANcoder_E407_TTA_CombineModel.c **** }
 6829              		.loc 1 710 13 view .LVU2507
 6830 15b2 85F87D30 		strb	r3, [r5, #125]
 6831              	.LBE776:
 6832              	.LBE786:
2554:HANcoder_E407_TTA_CombineModel.c ****         ((uint32_T)rtDWork.motorFailed + rtB.BitShift1_n.y) + rtB.BitShift_gk.y)
 6833              		.loc 1 2554 9 view .LVU2508
 6834 15b6 3B44     		add	r3, r3, r7
2553:HANcoder_E407_TTA_CombineModel.c ****         (uint8_T)((uint32_T)(uint8_T)((uint32_T)(uint8_T)((uint32_T)(uint8_T)
 6835              		.loc 1 2553 59 view .LVU2509
 6836 15b8 0344     		add	r3, r3, r0
 6837              	.LBB787:
 6838              	.LBB782:
 726:HANcoder_E407_TTA_CombineModel.c **** }
 6839              		.loc 1 726 13 view .LVU2510
 6840 15ba 85F87C00 		strb	r0, [r5, #124]
 6841              	.LBE782:
 6842              	.LBE787:
 6843              	.LBB788:
 6844              	.LBB789:
 742:HANcoder_E407_TTA_CombineModel.c **** }
 6845              		.loc 1 742 15 view .LVU2511
 6846 15be 92F83400 		ldrb	r0, [r2, #52]	@ zero_extendqisi2
 6847              	.LBE789:
 6848              	.LBE788:
 6849              	.LBB793:
 6850              	.LBB794:
 758:HANcoder_E407_TTA_CombineModel.c **** }
 6851              		.loc 1 758 15 view .LVU2512
 6852 15c2 92F83520 		ldrb	r2, [r2, #53]	@ zero_extendqisi2
 6853 15c6 B4F8CE70 		ldrh	r7, [r4, #206]
 6854              	.LBE794:
 6855              	.LBE793:
 6856              	.LBB798:
 6857              	.LBB790:
 742:HANcoder_E407_TTA_CombineModel.c **** }
 6858              		.loc 1 742 15 view .LVU2513
 6859 15ca 8001     		lsls	r0, r0, #6
 6860 15cc C0B2     		uxtb	r0, r0
 6861              	.LBE790:
 6862              	.LBE798:
 6863              	.LBB799:
 6864              	.LBB795:
 758:HANcoder_E407_TTA_CombineModel.c **** }
 6865              		.loc 1 758 15 view .LVU2514
 6866 15ce D201     		lsls	r2, r2, #7
 6867 15d0 D2B2     		uxtb	r2, r2
 6868              	.LBE795:
 6869              	.LBE799:
2553:HANcoder_E407_TTA_CombineModel.c ****         (uint8_T)((uint32_T)(uint8_T)((uint32_T)(uint8_T)((uint32_T)(uint8_T)
 6870              		.loc 1 2553 39 view .LVU2515
 6871 15d2 0344     		add	r3, r3, r0
2553:HANcoder_E407_TTA_CombineModel.c ****         (uint8_T)((uint32_T)(uint8_T)((uint32_T)(uint8_T)((uint32_T)(uint8_T)
 6872              		.loc 1 2553 19 view .LVU2516
 6873 15d4 1344     		add	r3, r3, r2
 6874              	.LBB800:
 6875              	.LBB796:
 758:HANcoder_E407_TTA_CombineModel.c **** }
 6876              		.loc 1 758 13 view .LVU2517
 6877 15d6 85F87A20 		strb	r2, [r5, #122]
 6878              	.LBE796:
 6879              	.LBE800:
2553:HANcoder_E407_TTA_CombineModel.c ****         (uint8_T)((uint32_T)(uint8_T)((uint32_T)(uint8_T)((uint32_T)(uint8_T)
 6880              		.loc 1 2553 19 view .LVU2518
 6881 15da DAB2     		uxtb	r2, r3
2561:HANcoder_E407_TTA_CombineModel.c **** 
 6882              		.loc 1 2561 7 view .LVU2519
 6883 15dc B4F8DC30 		ldrh	r3, [r4, #220]
2571:HANcoder_E407_TTA_CombineModel.c **** 
 6884              		.loc 1 2571 21 view .LVU2520
 6885 15e0 AB77     		strb	r3, [r5, #30]
 6886              	.LBB801:
 6887              	.LBB802:
 779:HANcoder_E407_TTA_CombineModel.c **** }
 6888              		.loc 1 779 15 view .LVU2521
 6889 15e2 1B0A     		lsrs	r3, r3, #8
 779:HANcoder_E407_TTA_CombineModel.c **** }
 6890              		.loc 1 779 13 view .LVU2522
 6891 15e4 A5F87830 		strh	r3, [r5, #120]	@ movhi
 6892              	.LBE802:
 6893              	.LBE801:
2566:HANcoder_E407_TTA_CombineModel.c **** 
 6894              		.loc 1 2566 20 view .LVU2523
 6895 15e8 6B77     		strb	r3, [r5, #29]
2575:HANcoder_E407_TTA_CombineModel.c **** 
 6896              		.loc 1 2575 7 view .LVU2524
 6897 15ea B4F8CE30 		ldrh	r3, [r4, #206]
 6898              	.LBB804:
 6899              	.LBB791:
 742:HANcoder_E407_TTA_CombineModel.c **** }
 6900              		.loc 1 742 13 view .LVU2525
 6901 15ee 85F87B00 		strb	r0, [r5, #123]
 6902              	.LBE791:
 6903              	.LBE804:
2585:HANcoder_E407_TTA_CombineModel.c **** 
 6904              		.loc 1 2585 21 view .LVU2526
 6905 15f2 85F82030 		strb	r3, [r5, #32]
 6906 15f6 B4F8DC00 		ldrh	r0, [r4, #220]
2553:HANcoder_E407_TTA_CombineModel.c ****         (uint8_T)((uint32_T)(uint8_T)((uint32_T)(uint8_T)((uint32_T)(uint8_T)
 6907              		.loc 1 2553 17 view .LVU2527
 6908 15fa 2A77     		strb	r2, [r5, #28]
 6909              	.LBB805:
 6910              	.LBB806:
 779:HANcoder_E407_TTA_CombineModel.c **** }
 6911              		.loc 1 779 15 view .LVU2528
 6912 15fc 1B0A     		lsrs	r3, r3, #8
 779:HANcoder_E407_TTA_CombineModel.c **** }
 6913              		.loc 1 779 13 view .LVU2529
 6914 15fe A5F87630 		strh	r3, [r5, #118]	@ movhi
 6915              	.LBE806:
 6916              	.LBE805:
2580:HANcoder_E407_TTA_CombineModel.c **** 
 6917              		.loc 1 2580 20 view .LVU2530
 6918 1602 EB77     		strb	r3, [r5, #31]
2594:HANcoder_E407_TTA_CombineModel.c ****         canTxData.uint8_T_info[1] = rtB.Cast1_n;
 6919              		.loc 1 2594 35 view .LVU2531
 6920 1604 A94B     		ldr	r3, .L475+4
 6921 1606 40BA     		rev16	r0, r0
2596:HANcoder_E407_TTA_CombineModel.c ****         canTxData.uint8_T_info[3] = rtB.Cast1_b;
 6922              		.loc 1 2596 35 view .LVU2532
 6923 1608 5880     		strh	r0, [r3, #2]	@ movhi
 6924 160a 7FBA     		rev16	r7, r7
2509:HANcoder_E407_TTA_CombineModel.c **** 
 6925              		.loc 1 2509 24 view .LVU2533
 6926 160c A848     		ldr	r0, .L475+8
2594:HANcoder_E407_TTA_CombineModel.c ****         canTxData.uint8_T_info[1] = rtB.Cast1_n;
 6927              		.loc 1 2594 35 view .LVU2534
 6928 160e 1F80     		strh	r7, [r3]	@ movhi
2604:HANcoder_E407_TTA_CombineModel.c ****       }
 6929              		.loc 1 2604 9 view .LVU2535
 6930 1610 A84F     		ldr	r7, .L475+12
2509:HANcoder_E407_TTA_CombineModel.c **** 
 6931              		.loc 1 2509 24 view .LVU2536
 6932 1612 0170     		strb	r1, [r0]
2506:HANcoder_E407_TTA_CombineModel.c **** 
 6933              		.loc 1 2506 37 view .LVU2537
 6934 1614 94F84911 		ldrb	r1, [r4, #329]	@ zero_extendqisi2
2598:HANcoder_E407_TTA_CombineModel.c ****         canTxData.uint8_T_info[5] = ((uint8_T)0U);
 6935              		.loc 1 2598 35 view .LVU2538
 6936 1618 1971     		strb	r1, [r3, #4]
2599:HANcoder_E407_TTA_CombineModel.c ****         canTxData.uint8_T_info[6] = rtB.Add_j;
 6937              		.loc 1 2599 35 view .LVU2539
 6938 161a 0020     		movs	r0, #0
2506:HANcoder_E407_TTA_CombineModel.c **** 
 6939              		.loc 1 2506 28 view .LVU2540
 6940 161c E976     		strb	r1, [r5, #27]
2509:HANcoder_E407_TTA_CombineModel.c **** 
 6941              		.loc 1 2509 7 is_stmt 1 view .LVU2541
2512:HANcoder_E407_TTA_CombineModel.c **** 
 6942              		.loc 1 2512 7 view .LVU2542
 6943              	.LVL456:
2515:HANcoder_E407_TTA_CombineModel.c **** 
 6944              		.loc 1 2515 7 view .LVU2543
 6945              	.LBB808:
 6946              	.LBI763:
 673:HANcoder_E407_TTA_CombineModel.c **** {
 6947              		.loc 1 673 6 view .LVU2544
 6948              	.LBB767:
 678:HANcoder_E407_TTA_CombineModel.c **** }
 6949              		.loc 1 678 3 view .LVU2545
 678:HANcoder_E407_TTA_CombineModel.c **** }
 6950              		.loc 1 678 3 is_stmt 0 view .LVU2546
 6951              	.LBE767:
 6952              	.LBE808:
2520:HANcoder_E407_TTA_CombineModel.c **** 
 6953              		.loc 1 2520 7 is_stmt 1 view .LVU2547
 6954              	.LBB809:
 6955              	.LBI753:
 657:HANcoder_E407_TTA_CombineModel.c **** {
 6956              		.loc 1 657 6 view .LVU2548
 6957              	.LBB757:
 662:HANcoder_E407_TTA_CombineModel.c **** }
 6958              		.loc 1 662 3 view .LVU2549
 662:HANcoder_E407_TTA_CombineModel.c **** }
 6959              		.loc 1 662 3 is_stmt 0 view .LVU2550
 6960              	.LBE757:
 6961              	.LBE809:
2525:HANcoder_E407_TTA_CombineModel.c **** 
 6962              		.loc 1 2525 7 is_stmt 1 view .LVU2551
 6963              	.LBB810:
 6964              	.LBI758:
 689:HANcoder_E407_TTA_CombineModel.c **** {
 6965              		.loc 1 689 6 view .LVU2552
 6966              	.LBB762:
 694:HANcoder_E407_TTA_CombineModel.c **** }
 6967              		.loc 1 694 3 view .LVU2553
 694:HANcoder_E407_TTA_CombineModel.c **** }
 6968              		.loc 1 694 3 is_stmt 0 view .LVU2554
 6969              	.LBE762:
 6970              	.LBE810:
2530:HANcoder_E407_TTA_CombineModel.c **** 
 6971              		.loc 1 2530 7 is_stmt 1 view .LVU2555
 6972              	.LBB811:
 6973              	.LBI773:
 705:HANcoder_E407_TTA_CombineModel.c **** {
 6974              		.loc 1 705 6 view .LVU2556
 6975              	.LBB777:
 710:HANcoder_E407_TTA_CombineModel.c **** }
 6976              		.loc 1 710 3 view .LVU2557
 710:HANcoder_E407_TTA_CombineModel.c **** }
 6977              		.loc 1 710 3 is_stmt 0 view .LVU2558
 6978              	.LBE777:
 6979              	.LBE811:
2535:HANcoder_E407_TTA_CombineModel.c **** 
 6980              		.loc 1 2535 7 is_stmt 1 view .LVU2559
 6981              	.LBB812:
 6982              	.LBI779:
 721:HANcoder_E407_TTA_CombineModel.c **** {
 6983              		.loc 1 721 6 view .LVU2560
 6984              	.LBB783:
 726:HANcoder_E407_TTA_CombineModel.c **** }
 6985              		.loc 1 726 3 view .LVU2561
 726:HANcoder_E407_TTA_CombineModel.c **** }
 6986              		.loc 1 726 3 is_stmt 0 view .LVU2562
 6987              	.LBE783:
 6988              	.LBE812:
2540:HANcoder_E407_TTA_CombineModel.c **** 
 6989              		.loc 1 2540 7 is_stmt 1 view .LVU2563
 6990              	.LBB813:
 6991              	.LBI788:
 737:HANcoder_E407_TTA_CombineModel.c **** {
 6992              		.loc 1 737 6 view .LVU2564
 6993              	.LBB792:
 742:HANcoder_E407_TTA_CombineModel.c **** }
 6994              		.loc 1 742 3 view .LVU2565
 742:HANcoder_E407_TTA_CombineModel.c **** }
 6995              		.loc 1 742 3 is_stmt 0 view .LVU2566
 6996              	.LBE792:
 6997              	.LBE813:
2545:HANcoder_E407_TTA_CombineModel.c **** 
 6998              		.loc 1 2545 7 is_stmt 1 view .LVU2567
 6999              	.LBB814:
 7000              	.LBI793:
 753:HANcoder_E407_TTA_CombineModel.c **** {
 7001              		.loc 1 753 6 view .LVU2568
 7002              	.LBB797:
 758:HANcoder_E407_TTA_CombineModel.c **** }
 7003              		.loc 1 758 3 view .LVU2569
 758:HANcoder_E407_TTA_CombineModel.c **** }
 7004              		.loc 1 758 3 is_stmt 0 view .LVU2570
 7005              	.LBE797:
 7006              	.LBE814:
2553:HANcoder_E407_TTA_CombineModel.c ****         (uint8_T)((uint32_T)(uint8_T)((uint32_T)(uint8_T)((uint32_T)(uint8_T)
 7007              		.loc 1 2553 7 is_stmt 1 view .LVU2571
2561:HANcoder_E407_TTA_CombineModel.c **** 
 7008              		.loc 1 2561 7 view .LVU2572
 7009              	.LBB815:
 7010              	.LBI801:
 774:HANcoder_E407_TTA_CombineModel.c **** {
 7011              		.loc 1 774 6 view .LVU2573
 7012              	.LBB803:
 779:HANcoder_E407_TTA_CombineModel.c **** }
 7013              		.loc 1 779 3 view .LVU2574
 779:HANcoder_E407_TTA_CombineModel.c **** }
 7014              		.loc 1 779 3 is_stmt 0 view .LVU2575
 7015              	.LBE803:
 7016              	.LBE815:
2566:HANcoder_E407_TTA_CombineModel.c **** 
 7017              		.loc 1 2566 7 is_stmt 1 view .LVU2576
2571:HANcoder_E407_TTA_CombineModel.c **** 
 7018              		.loc 1 2571 7 view .LVU2577
2575:HANcoder_E407_TTA_CombineModel.c **** 
 7019              		.loc 1 2575 7 view .LVU2578
 7020              	.LBB816:
 7021              	.LBI805:
 774:HANcoder_E407_TTA_CombineModel.c **** {
 7022              		.loc 1 774 6 view .LVU2579
 7023              	.LBB807:
 779:HANcoder_E407_TTA_CombineModel.c **** }
 7024              		.loc 1 779 3 view .LVU2580
 779:HANcoder_E407_TTA_CombineModel.c **** }
 7025              		.loc 1 779 3 is_stmt 0 view .LVU2581
 7026              	.LBE807:
 7027              	.LBE816:
2580:HANcoder_E407_TTA_CombineModel.c **** 
 7028              		.loc 1 2580 7 is_stmt 1 view .LVU2582
2585:HANcoder_E407_TTA_CombineModel.c **** 
 7029              		.loc 1 2585 7 view .LVU2583
2594:HANcoder_E407_TTA_CombineModel.c ****         canTxData.uint8_T_info[1] = rtB.Cast1_n;
 7030              		.loc 1 2594 9 view .LVU2584
2595:HANcoder_E407_TTA_CombineModel.c ****         canTxData.uint8_T_info[2] = rtB.Cast_p;
 7031              		.loc 1 2595 9 view .LVU2585
2596:HANcoder_E407_TTA_CombineModel.c ****         canTxData.uint8_T_info[3] = rtB.Cast1_b;
 7032              		.loc 1 2596 9 view .LVU2586
2597:HANcoder_E407_TTA_CombineModel.c ****         canTxData.uint8_T_info[4] = rtB.DataStoreRead2_h;
 7033              		.loc 1 2597 9 view .LVU2587
2598:HANcoder_E407_TTA_CombineModel.c ****         canTxData.uint8_T_info[5] = ((uint8_T)0U);
 7034              		.loc 1 2598 9 view .LVU2588
2599:HANcoder_E407_TTA_CombineModel.c ****         canTxData.uint8_T_info[6] = rtB.Add_j;
 7035              		.loc 1 2599 9 view .LVU2589
2599:HANcoder_E407_TTA_CombineModel.c ****         canTxData.uint8_T_info[6] = rtB.Add_j;
 7036              		.loc 1 2599 35 is_stmt 0 view .LVU2590
 7037 161e 5871     		strb	r0, [r3, #5]
2600:HANcoder_E407_TTA_CombineModel.c ****         canTxData.uint8_T_info[7] = ((uint8_T)0U);
 7038              		.loc 1 2600 9 is_stmt 1 view .LVU2591
2600:HANcoder_E407_TTA_CombineModel.c ****         canTxData.uint8_T_info[7] = ((uint8_T)0U);
 7039              		.loc 1 2600 35 is_stmt 0 view .LVU2592
 7040 1620 9A71     		strb	r2, [r3, #6]
2601:HANcoder_E407_TTA_CombineModel.c **** 
 7041              		.loc 1 2601 9 is_stmt 1 view .LVU2593
2601:HANcoder_E407_TTA_CombineModel.c **** 
 7042              		.loc 1 2601 35 is_stmt 0 view .LVU2594
 7043 1622 D871     		strb	r0, [r3, #7]
2604:HANcoder_E407_TTA_CombineModel.c ****       }
 7044              		.loc 1 2604 9 is_stmt 1 view .LVU2595
 7045 1624 3968     		ldr	r1, [r7]
 7046 1626 0822     		movs	r2, #8
 7047 1628 FFF7FEFF 		bl	CanTransmit
 7048              	.LVL457:
2498:HANcoder_E407_TTA_CombineModel.c **** 
 7049              		.loc 1 2498 25 is_stmt 0 view .LVU2596
 7050 162c 0123     		movs	r3, #1
 7051 162e FEF7A5BE 		b	.L251
 7052              	.LVL458:
 7053              	.L426:
 7054              	.LBB817:
 7055              	.LBB424:
 499:HANcoder_E407_TTA_CombineModel.c **** 
 7056              		.loc 1 499 7 is_stmt 1 view .LVU2597
 499:HANcoder_E407_TTA_CombineModel.c **** 
 7057              		.loc 1 499 33 is_stmt 0 view .LVU2598
 7058 1632 9E4B     		ldr	r3, .L475+4
 7059              	.LBE424:
 7060              	.LBE817:
2004:HANcoder_E407_TTA_CombineModel.c **** 
 7061              		.loc 1 2004 5 view .LVU2599
 7062 1634 A04A     		ldr	r2, .L475+16
 7063              	.LBB818:
 7064              	.LBB425:
 499:HANcoder_E407_TTA_CombineModel.c **** 
 7065              		.loc 1 499 33 view .LVU2600
 7066 1636 0020     		movs	r0, #0
 502:HANcoder_E407_TTA_CombineModel.c ****     }
 7067              		.loc 1 502 7 view .LVU2601
 7068 1638 1168     		ldr	r1, [r2]
 499:HANcoder_E407_TTA_CombineModel.c **** 
 7069              		.loc 1 499 33 view .LVU2602
 7070 163a 1870     		strb	r0, [r3]
 502:HANcoder_E407_TTA_CombineModel.c ****     }
 7071              		.loc 1 502 7 is_stmt 1 view .LVU2603
 7072 163c 0122     		movs	r2, #1
 7073 163e FFF7FEFF 		bl	CanTransmit
 7074              	.LVL459:
 502:HANcoder_E407_TTA_CombineModel.c ****     }
 7075              		.loc 1 502 7 is_stmt 0 view .LVU2604
 7076              	.LBE425:
 7077              	.LBE818:
2011:HANcoder_E407_TTA_CombineModel.c **** 
 7078              		.loc 1 2011 29 view .LVU2605
 7079 1642 9E4B     		ldr	r3, .L475+20
2018:HANcoder_E407_TTA_CombineModel.c **** 
 7080              		.loc 1 2018 36 view .LVU2606
 7081 1644 94F848A1 		ldrb	r10, [r4, #328]	@ zero_extendqisi2
2011:HANcoder_E407_TTA_CombineModel.c **** 
 7082              		.loc 1 2011 29 view .LVU2607
 7083 1648 1B78     		ldrb	r3, [r3]	@ zero_extendqisi2
 7084 164a 07EE903A 		vmov	s15, r3	@ int
 7085 164e B8EEE77A 		vcvt.f32.s32	s14, s15
2018:HANcoder_E407_TTA_CombineModel.c **** 
 7086              		.loc 1 2018 46 view .LVU2608
 7087 1652 07EE90AA 		vmov	s15, r10	@ int
2000:HANcoder_E407_TTA_CombineModel.c **** 
 7088              		.loc 1 2000 14 view .LVU2609
 7089 1656 0122     		movs	r2, #1
2018:HANcoder_E407_TTA_CombineModel.c **** 
 7090              		.loc 1 2018 46 view .LVU2610
 7091 1658 F8EEE77A 		vcvt.f32.s32	s15, s15
 7092 165c FEF759BD 		b	.L264
 7093              	.LVL460:
 7094              	.L189:
2156:HANcoder_E407_TTA_CombineModel.c ****     }
 7095              		.loc 1 2156 7 is_stmt 1 view .LVU2611
2156:HANcoder_E407_TTA_CombineModel.c ****     }
 7096              		.loc 1 2156 29 is_stmt 0 view .LVU2612
 7097 1660 0022     		movs	r2, #0
 7098 1662 84F86821 		strb	r2, [r4, #360]
2162:HANcoder_E407_TTA_CombineModel.c **** 
 7099              		.loc 1 2162 5 is_stmt 1 view .LVU2613
 7100 1666 FEF79ABD 		b	.L188
 7101              	.LVL461:
 7102              	.L280:
2330:HANcoder_E407_TTA_CombineModel.c ****     }
 7103              		.loc 1 2330 7 view .LVU2614
2330:HANcoder_E407_TTA_CombineModel.c ****     }
 7104              		.loc 1 2330 33 is_stmt 0 view .LVU2615
 7105 166a 0023     		movs	r3, #0
 7106 166c 84F86731 		strb	r3, [r4, #359]
2336:HANcoder_E407_TTA_CombineModel.c **** 
 7107              		.loc 1 2336 5 is_stmt 1 view .LVU2616
 7108 1670 FEF7AFBD 		b	.L281
 7109              	.LVL462:
 7110              	.L270:
3122:HANcoder_E407_TTA_CombineModel.c ****     }
 7111              		.loc 1 3122 7 view .LVU2617
3122:HANcoder_E407_TTA_CombineModel.c ****     }
 7112              		.loc 1 3122 32 is_stmt 0 view .LVU2618
 7113 1674 0023     		movs	r3, #0
 7114 1676 84F86331 		strb	r3, [r4, #355]
3128:HANcoder_E407_TTA_CombineModel.c **** 
 7115              		.loc 1 3128 5 is_stmt 1 view .LVU2619
 7116 167a FEF7BFBE 		b	.L211
 7117              	.LVL463:
 7118              	.L273:
2870:HANcoder_E407_TTA_CombineModel.c ****     }
 7119              		.loc 1 2870 7 view .LVU2620
2870:HANcoder_E407_TTA_CombineModel.c ****     }
 7120              		.loc 1 2870 32 is_stmt 0 view .LVU2621
 7121 167e 0023     		movs	r3, #0
 7122 1680 84F86431 		strb	r3, [r4, #356]
2876:HANcoder_E407_TTA_CombineModel.c **** 
 7123              		.loc 1 2876 5 is_stmt 1 view .LVU2622
 7124 1684 FEF7AABE 		b	.L207
 7125              	.LVL464:
 7126              	.L433:
2619:HANcoder_E407_TTA_CombineModel.c **** 
 7127              		.loc 1 2619 7 view .LVU2623
2626:HANcoder_E407_TTA_CombineModel.c ****         &canRxData_0_TRCK1_ID3.uint8_T_info[0], NULL);
 7128              		.loc 1 2626 29 is_stmt 0 view .LVU2624
 7129 1688 3168     		ldr	r1, [r6]
 7130 168a 8D4E     		ldr	r6, .L475+24
 7131 168c 0022     		movs	r2, #0
2619:HANcoder_E407_TTA_CombineModel.c **** 
 7132              		.loc 1 2619 32 view .LVU2625
 7133 168e 0123     		movs	r3, #1
 7134 1690 84F86531 		strb	r3, [r4, #357]
2626:HANcoder_E407_TTA_CombineModel.c ****         &canRxData_0_TRCK1_ID3.uint8_T_info[0], NULL);
 7135              		.loc 1 2626 7 is_stmt 1 view .LVU2626
2626:HANcoder_E407_TTA_CombineModel.c ****         &canRxData_0_TRCK1_ID3.uint8_T_info[0], NULL);
 7136              		.loc 1 2626 29 is_stmt 0 view .LVU2627
 7137 1694 0092     		str	r2, [sp]
 7138 1696 3346     		mov	r3, r6
 7139 1698 1046     		mov	r0, r2
 7140 169a FFF7FEFF 		bl	CanIoGetMessage
 7141              	.LVL465:
2630:HANcoder_E407_TTA_CombineModel.c ****         /* read the data */
 7142              		.loc 1 2630 7 is_stmt 1 view .LVU2628
2630:HANcoder_E407_TTA_CombineModel.c ****         /* read the data */
 7143              		.loc 1 2630 10 is_stmt 0 view .LVU2629
 7144 169e 0028     		cmp	r0, #0
 7145 16a0 40F3F281 		ble	.L456
2632:HANcoder_E407_TTA_CombineModel.c ****         rtb_SFunction_o3_a = canRxData_0_TRCK1_ID3.uint8_T_info[1];
 7146              		.loc 1 2632 9 is_stmt 1 view .LVU2630
 7147              	.LBB819:
 7148              	.LBB820:
 458:HANcoder_E407_TTA_CombineModel.c **** 
 7149              		.loc 1 458 17 is_stmt 0 view .LVU2631
 7150 16a4 3368     		ldr	r3, [r6]
 7151              	.LBE820:
 7152              	.LBE819:
2638:HANcoder_E407_TTA_CombineModel.c ****         rtb_SFunction_o9_b = canRxData_0_TRCK1_ID3.uint8_T_info[7];
 7153              		.loc 1 2638 28 view .LVU2632
 7154 16a6 B279     		ldrb	r2, [r6, #6]	@ zero_extendqisi2
2632:HANcoder_E407_TTA_CombineModel.c ****         rtb_SFunction_o3_a = canRxData_0_TRCK1_ID3.uint8_T_info[1];
 7155              		.loc 1 2632 28 view .LVU2633
 7156 16a8 3178     		ldrb	r1, [r6]	@ zero_extendqisi2
 7157              	.LVL466:
2633:HANcoder_E407_TTA_CombineModel.c ****         rtb_SFunction_o4_i = canRxData_0_TRCK1_ID3.uint8_T_info[2];
 7158              		.loc 1 2633 9 is_stmt 1 view .LVU2634
2633:HANcoder_E407_TTA_CombineModel.c ****         rtb_SFunction_o4_i = canRxData_0_TRCK1_ID3.uint8_T_info[2];
 7159              		.loc 1 2633 28 is_stmt 0 view .LVU2635
 7160 16aa 7078     		ldrb	r0, [r6, #1]	@ zero_extendqisi2
 7161              	.LVL467:
2634:HANcoder_E407_TTA_CombineModel.c ****         rtb_SFunction_o5_k = canRxData_0_TRCK1_ID3.uint8_T_info[3];
 7162              		.loc 1 2634 9 is_stmt 1 view .LVU2636
 7163              	.LBB823:
 7164              	.LBB821:
 458:HANcoder_E407_TTA_CombineModel.c **** 
 7165              		.loc 1 458 17 is_stmt 0 view .LVU2637
 7166 16ac EB66     		str	r3, [r5, #108]
 7167              	.LBE821:
 7168              	.LBE823:
2634:HANcoder_E407_TTA_CombineModel.c ****         rtb_SFunction_o5_k = canRxData_0_TRCK1_ID3.uint8_T_info[3];
 7169              		.loc 1 2634 28 view .LVU2638
 7170 16ae B378     		ldrb	r3, [r6, #2]	@ zero_extendqisi2
 7171              	.LVL468:
2635:HANcoder_E407_TTA_CombineModel.c ****         rtb_SFunction_o6_c = canRxData_0_TRCK1_ID3.uint8_T_info[4];
 7172              		.loc 1 2635 9 is_stmt 1 view .LVU2639
2635:HANcoder_E407_TTA_CombineModel.c ****         rtb_SFunction_o6_c = canRxData_0_TRCK1_ID3.uint8_T_info[4];
 7173              		.loc 1 2635 28 is_stmt 0 view .LVU2640
 7174 16b0 F678     		ldrb	r6, [r6, #3]	@ zero_extendqisi2
 7175              	.LVL469:
2636:HANcoder_E407_TTA_CombineModel.c ****         rtb_SFunction_o7_d = canRxData_0_TRCK1_ID3.uint8_T_info[5];
 7176              		.loc 1 2636 9 is_stmt 1 view .LVU2641
2637:HANcoder_E407_TTA_CombineModel.c ****         rtb_SFunction_o8_h = canRxData_0_TRCK1_ID3.uint8_T_info[6];
 7177              		.loc 1 2637 9 view .LVU2642
2638:HANcoder_E407_TTA_CombineModel.c ****         rtb_SFunction_o9_b = canRxData_0_TRCK1_ID3.uint8_T_info[7];
 7178              		.loc 1 2638 9 view .LVU2643
2639:HANcoder_E407_TTA_CombineModel.c ****       }
 7179              		.loc 1 2639 9 view .LVU2644
2643:HANcoder_E407_TTA_CombineModel.c ****                        rtb_SFunction_o3_a, rtb_SFunction_o4_i,
 7180              		.loc 1 2643 7 view .LVU2645
 7181              	.LBB824:
 7182              	.LBI819:
 444:HANcoder_E407_TTA_CombineModel.c ****                       uint8_T rtu_In3, uint8_T rtu_In4, uint8_T rtu_In5, uint8_T
 7183              		.loc 1 444 6 view .LVU2646
 7184              	.LBB822:
 449:HANcoder_E407_TTA_CombineModel.c ****   uint8_T rtb_In6;
 7185              		.loc 1 449 3 view .LVU2647
 450:HANcoder_E407_TTA_CombineModel.c ****   uint8_T rtb_In8_m;
 7186              		.loc 1 450 3 view .LVU2648
 451:HANcoder_E407_TTA_CombineModel.c **** 
 7187              		.loc 1 451 3 view .LVU2649
 456:HANcoder_E407_TTA_CombineModel.c ****     /* SignalConversion generated from: '<S119>/In1' */
 7188              		.loc 1 456 3 view .LVU2650
 458:HANcoder_E407_TTA_CombineModel.c **** 
 7189              		.loc 1 458 5 view .LVU2651
 461:HANcoder_E407_TTA_CombineModel.c **** 
 7190              		.loc 1 461 5 view .LVU2652
 464:HANcoder_E407_TTA_CombineModel.c **** 
 7191              		.loc 1 464 5 view .LVU2653
 467:HANcoder_E407_TTA_CombineModel.c **** 
 7192              		.loc 1 467 5 view .LVU2654
 470:HANcoder_E407_TTA_CombineModel.c **** 
 7193              		.loc 1 470 5 view .LVU2655
 473:HANcoder_E407_TTA_CombineModel.c **** 
 7194              		.loc 1 473 5 view .LVU2656
 476:HANcoder_E407_TTA_CombineModel.c **** 
 7195              		.loc 1 476 5 view .LVU2657
 479:HANcoder_E407_TTA_CombineModel.c ****   }
 7196              		.loc 1 479 5 view .LVU2658
 476:HANcoder_E407_TTA_CombineModel.c **** 
 7197              		.loc 1 476 17 is_stmt 0 view .LVU2659
 7198 16b2 85F87020 		strb	r2, [r5, #112]
 7199              	.LVL470:
 7200              	.L202:
 476:HANcoder_E407_TTA_CombineModel.c **** 
 7201              		.loc 1 476 17 view .LVU2660
 7202              	.LBE822:
 7203              	.LBE824:
2652:HANcoder_E407_TTA_CombineModel.c **** 
 7204              		.loc 1 2652 7 is_stmt 1 view .LVU2661
2655:HANcoder_E407_TTA_CombineModel.c **** 
 7205              		.loc 1 2655 7 view .LVU2662
 7206              	.LBB825:
 7207              	.LBI825:
 524:HANcoder_E407_TTA_CombineModel.c **** {
 7208              		.loc 1 524 6 view .LVU2663
 7209              	.LBB826:
 529:HANcoder_E407_TTA_CombineModel.c **** }
 7210              		.loc 1 529 3 view .LVU2664
 529:HANcoder_E407_TTA_CombineModel.c **** }
 7211              		.loc 1 529 15 is_stmt 0 view .LVU2665
 7212 16b6 0902     		lsls	r1, r1, #8
 7213              	.LVL471:
 529:HANcoder_E407_TTA_CombineModel.c **** }
 7214              		.loc 1 529 15 view .LVU2666
 7215              	.LBE826:
 7216              	.LBE825:
 7217              	.LBB828:
 7218              	.LBB829:
 7219 16b8 1B02     		lsls	r3, r3, #8
 7220              	.LBE829:
 7221              	.LBE828:
2662:HANcoder_E407_TTA_CombineModel.c ****                          rtB.EnabledSubsystem_bj.In2);
 7222              		.loc 1 2662 15 view .LVU2667
 7223 16ba 0844     		add	r0, r0, r1
 7224              	.LBB832:
 7225              	.LBB827:
 529:HANcoder_E407_TTA_CombineModel.c **** }
 7226              		.loc 1 529 13 view .LVU2668
 7227 16bc A5F87210 		strh	r1, [r5, #114]	@ movhi
 7228              	.LVL472:
 529:HANcoder_E407_TTA_CombineModel.c **** }
 7229              		.loc 1 529 13 view .LVU2669
 7230              	.LBE827:
 7231              	.LBE832:
2662:HANcoder_E407_TTA_CombineModel.c ****                          rtB.EnabledSubsystem_bj.In2);
 7232              		.loc 1 2662 7 is_stmt 1 view .LVU2670
 7233              	.LBB833:
 7234              	.LBB830:
 529:HANcoder_E407_TTA_CombineModel.c **** }
 7235              		.loc 1 529 13 is_stmt 0 view .LVU2671
 7236 16c0 A5F87430 		strh	r3, [r5, #116]	@ movhi
 7237              	.LBE830:
 7238              	.LBE833:
2676:HANcoder_E407_TTA_CombineModel.c ****                          rtB.EnabledSubsystem_bj.In4);
 7239              		.loc 1 2676 15 view .LVU2672
 7240 16c4 9919     		adds	r1, r3, r6
2662:HANcoder_E407_TTA_CombineModel.c ****                          rtB.EnabledSubsystem_bj.In2);
 7241              		.loc 1 2662 13 view .LVU2673
 7242 16c6 7F4B     		ldr	r3, .L475+28
 7243 16c8 1880     		strh	r0, [r3]	@ movhi
2666:HANcoder_E407_TTA_CombineModel.c **** 
 7244              		.loc 1 2666 7 is_stmt 1 view .LVU2674
 7245              	.LVL473:
2669:HANcoder_E407_TTA_CombineModel.c **** 
 7246              		.loc 1 2669 7 view .LVU2675
 7247              	.LBB834:
 7248              	.LBI828:
 524:HANcoder_E407_TTA_CombineModel.c **** {
 7249              		.loc 1 524 6 view .LVU2676
 7250              	.LBB831:
 529:HANcoder_E407_TTA_CombineModel.c **** }
 7251              		.loc 1 529 3 view .LVU2677
 529:HANcoder_E407_TTA_CombineModel.c **** }
 7252              		.loc 1 529 3 is_stmt 0 view .LVU2678
 7253              	.LBE831:
 7254              	.LBE834:
2676:HANcoder_E407_TTA_CombineModel.c ****                          rtB.EnabledSubsystem_bj.In4);
 7255              		.loc 1 2676 7 is_stmt 1 view .LVU2679
2676:HANcoder_E407_TTA_CombineModel.c ****                          rtB.EnabledSubsystem_bj.In4);
 7256              		.loc 1 2676 13 is_stmt 0 view .LVU2680
 7257 16ca 7F4B     		ldr	r3, .L475+32
 7258 16cc 1980     		strh	r1, [r3]	@ movhi
2680:HANcoder_E407_TTA_CombineModel.c **** 
 7259              		.loc 1 2680 7 is_stmt 1 view .LVU2681
 7260              	.LVL474:
 7261              	.LBB835:
 7262              	.LBI835:
 545:HANcoder_E407_TTA_CombineModel.c **** {
 7263              		.loc 1 545 6 view .LVU2682
 7264              	.LBB836:
 550:HANcoder_E407_TTA_CombineModel.c **** }
 7265              		.loc 1 550 3 view .LVU2683
 550:HANcoder_E407_TTA_CombineModel.c **** }
 7266              		.loc 1 550 15 is_stmt 0 view .LVU2684
 7267 16ce 5308     		lsrs	r3, r2, #1
 550:HANcoder_E407_TTA_CombineModel.c **** }
 7268              		.loc 1 550 13 view .LVU2685
 7269 16d0 85F86B30 		strb	r3, [r5, #107]
 7270              	.LVL475:
 550:HANcoder_E407_TTA_CombineModel.c **** }
 7271              		.loc 1 550 13 view .LVU2686
 7272              	.LBE836:
 7273              	.LBE835:
2685:HANcoder_E407_TTA_CombineModel.c **** 
 7274              		.loc 1 2685 7 is_stmt 1 view .LVU2687
 7275              	.LBB837:
 7276              	.LBI837:
 561:HANcoder_E407_TTA_CombineModel.c **** {
 7277              		.loc 1 561 6 view .LVU2688
 7278              	.LBB838:
 566:HANcoder_E407_TTA_CombineModel.c **** }
 7279              		.loc 1 566 3 view .LVU2689
 7280              	.LBE838:
 7281              	.LBE837:
 7282              	.LBB840:
 7283              	.LBB841:
 550:HANcoder_E407_TTA_CombineModel.c **** }
 7284              		.loc 1 550 13 is_stmt 0 view .LVU2690
 7285 16d4 85F86430 		strb	r3, [r5, #100]
 7286              	.LBE841:
 7287              	.LBE840:
 7288              	.LBB843:
 7289              	.LBB839:
 566:HANcoder_E407_TTA_CombineModel.c **** }
 7290              		.loc 1 566 15 view .LVU2691
 7291 16d8 9308     		lsrs	r3, r2, #2
 566:HANcoder_E407_TTA_CombineModel.c **** }
 7292              		.loc 1 566 13 view .LVU2692
 7293 16da 85F86A30 		strb	r3, [r5, #106]
 7294              	.LVL476:
 566:HANcoder_E407_TTA_CombineModel.c **** }
 7295              		.loc 1 566 13 view .LVU2693
 7296              	.LBE839:
 7297              	.LBE843:
2690:HANcoder_E407_TTA_CombineModel.c **** 
 7298              		.loc 1 2690 7 is_stmt 1 view .LVU2694
 7299              	.LBB844:
 7300              	.LBI844:
 577:HANcoder_E407_TTA_CombineModel.c **** {
 7301              		.loc 1 577 6 view .LVU2695
 7302              	.LBB845:
 582:HANcoder_E407_TTA_CombineModel.c **** }
 7303              		.loc 1 582 3 view .LVU2696
 582:HANcoder_E407_TTA_CombineModel.c **** }
 7304              		.loc 1 582 15 is_stmt 0 view .LVU2697
 7305 16de D308     		lsrs	r3, r2, #3
 582:HANcoder_E407_TTA_CombineModel.c **** }
 7306              		.loc 1 582 13 view .LVU2698
 7307 16e0 85F86930 		strb	r3, [r5, #105]
 7308              	.LVL477:
 582:HANcoder_E407_TTA_CombineModel.c **** }
 7309              		.loc 1 582 13 view .LVU2699
 7310              	.LBE845:
 7311              	.LBE844:
2695:HANcoder_E407_TTA_CombineModel.c **** 
 7312              		.loc 1 2695 7 is_stmt 1 view .LVU2700
 7313              	.LBB846:
 7314              	.LBI846:
 593:HANcoder_E407_TTA_CombineModel.c **** {
 7315              		.loc 1 593 6 view .LVU2701
 7316              	.LBB847:
 598:HANcoder_E407_TTA_CombineModel.c **** }
 7317              		.loc 1 598 3 view .LVU2702
 598:HANcoder_E407_TTA_CombineModel.c **** }
 7318              		.loc 1 598 15 is_stmt 0 view .LVU2703
 7319 16e4 1309     		lsrs	r3, r2, #4
 598:HANcoder_E407_TTA_CombineModel.c **** }
 7320              		.loc 1 598 13 view .LVU2704
 7321 16e6 85F86830 		strb	r3, [r5, #104]
 7322              	.LVL478:
 598:HANcoder_E407_TTA_CombineModel.c **** }
 7323              		.loc 1 598 13 view .LVU2705
 7324              	.LBE847:
 7325              	.LBE846:
2700:HANcoder_E407_TTA_CombineModel.c **** 
 7326              		.loc 1 2700 7 is_stmt 1 view .LVU2706
 7327              	.LBB848:
 7328              	.LBI848:
 609:HANcoder_E407_TTA_CombineModel.c **** {
 7329              		.loc 1 609 6 view .LVU2707
 7330              	.LBB849:
 614:HANcoder_E407_TTA_CombineModel.c **** }
 7331              		.loc 1 614 3 view .LVU2708
 614:HANcoder_E407_TTA_CombineModel.c **** }
 7332              		.loc 1 614 15 is_stmt 0 view .LVU2709
 7333 16ea 5309     		lsrs	r3, r2, #5
 614:HANcoder_E407_TTA_CombineModel.c **** }
 7334              		.loc 1 614 13 view .LVU2710
 7335 16ec 85F86730 		strb	r3, [r5, #103]
 7336              	.LVL479:
 614:HANcoder_E407_TTA_CombineModel.c **** }
 7337              		.loc 1 614 13 view .LVU2711
 7338              	.LBE849:
 7339              	.LBE848:
2705:HANcoder_E407_TTA_CombineModel.c **** 
 7340              		.loc 1 2705 7 is_stmt 1 view .LVU2712
 7341              	.LBB850:
 7342              	.LBI850:
 625:HANcoder_E407_TTA_CombineModel.c **** {
 7343              		.loc 1 625 6 view .LVU2713
 7344              	.LBB851:
 630:HANcoder_E407_TTA_CombineModel.c **** }
 7345              		.loc 1 630 3 view .LVU2714
 630:HANcoder_E407_TTA_CombineModel.c **** }
 7346              		.loc 1 630 15 is_stmt 0 view .LVU2715
 7347 16f0 9309     		lsrs	r3, r2, #6
 7348              	.LBE851:
 7349              	.LBE850:
 7350              	.LBB853:
 7351              	.LBB854:
 646:HANcoder_E407_TTA_CombineModel.c **** }
 7352              		.loc 1 646 15 view .LVU2716
 7353 16f2 D209     		lsrs	r2, r2, #7
 7354              	.LBE854:
 7355              	.LBE853:
 7356              	.LBB856:
 7357              	.LBB852:
 630:HANcoder_E407_TTA_CombineModel.c **** }
 7358              		.loc 1 630 13 view .LVU2717
 7359 16f4 85F86630 		strb	r3, [r5, #102]
 7360              	.LVL480:
 630:HANcoder_E407_TTA_CombineModel.c **** }
 7361              		.loc 1 630 13 view .LVU2718
 7362              	.LBE852:
 7363              	.LBE856:
2710:HANcoder_E407_TTA_CombineModel.c **** 
 7364              		.loc 1 2710 7 is_stmt 1 view .LVU2719
 7365              	.LBB857:
 7366              	.LBI853:
 641:HANcoder_E407_TTA_CombineModel.c **** {
 7367              		.loc 1 641 6 view .LVU2720
 7368              	.LBB855:
 646:HANcoder_E407_TTA_CombineModel.c **** }
 7369              		.loc 1 646 3 view .LVU2721
 646:HANcoder_E407_TTA_CombineModel.c **** }
 7370              		.loc 1 646 13 is_stmt 0 view .LVU2722
 7371 16f8 85F86520 		strb	r2, [r5, #101]
 7372              	.LVL481:
 646:HANcoder_E407_TTA_CombineModel.c **** }
 7373              		.loc 1 646 13 view .LVU2723
 7374              	.LBE855:
 7375              	.LBE857:
2715:HANcoder_E407_TTA_CombineModel.c **** 
 7376              		.loc 1 2715 7 is_stmt 1 view .LVU2724
 7377              	.LBB858:
 7378              	.LBI840:
 545:HANcoder_E407_TTA_CombineModel.c **** {
 7379              		.loc 1 545 6 view .LVU2725
 7380              	.LBB842:
 550:HANcoder_E407_TTA_CombineModel.c **** }
 7381              		.loc 1 550 3 view .LVU2726
 551:HANcoder_E407_TTA_CombineModel.c **** 
 7382              		.loc 1 551 1 is_stmt 0 view .LVU2727
 7383 16fc FEF755BE 		b	.L203
 7384              	.LVL482:
 7385              	.L137:
 551:HANcoder_E407_TTA_CombineModel.c **** 
 7386              		.loc 1 551 1 view .LVU2728
 7387              	.LBE842:
 7388              	.LBE858:
1562:HANcoder_E407_TTA_CombineModel.c ****     csum = obj->pCumSum;
 7389              		.loc 1 1562 17 view .LVU2729
 7390 1700 99ED0C7A 		vldr.32	s14, [r9, #48]
1563:HANcoder_E407_TTA_CombineModel.c ****     for (i = 0; i < 9; i++) {
 7391              		.loc 1 1563 10 view .LVU2730
 7392 1704 99ED026A 		vldr.32	s12, [r9, #8]
1568:HANcoder_E407_TTA_CombineModel.c ****     z = 0.0F;
 7393              		.loc 1 1568 17 view .LVU2731
 7394 1708 D9ED0D6A 		vldr.32	s13, [r9, #52]
1579:HANcoder_E407_TTA_CombineModel.c ****     }
 7395              		.loc 1 1579 19 view .LVU2732
 7396 170c FDEEC77A 		vcvt.s32.f32	s15, s14
1565:HANcoder_E407_TTA_CombineModel.c ****     }
 7397              		.loc 1 1565 18 view .LVU2733
 7398 1710 0DF14C0C 		add	ip, sp, #76
1579:HANcoder_E407_TTA_CombineModel.c ****     }
 7399              		.loc 1 1579 19 view .LVU2734
 7400 1714 17EE90AA 		vmov	r10, s15	@ int
1579:HANcoder_E407_TTA_CombineModel.c ****     }
 7401              		.loc 1 1579 40 view .LVU2735
 7402 1718 0AF1FF33 		add	r3, r10, #-1
 7403 171c 0B93     		str	r3, [sp, #44]
1562:HANcoder_E407_TTA_CombineModel.c ****     csum = obj->pCumSum;
 7404              		.loc 1 1562 5 is_stmt 1 view .LVU2736
 7405              	.LVL483:
1563:HANcoder_E407_TTA_CombineModel.c ****     for (i = 0; i < 9; i++) {
 7406              		.loc 1 1563 5 view .LVU2737
1564:HANcoder_E407_TTA_CombineModel.c ****       csumrev[i] = obj->pCumSumRev[i];
 7407              		.loc 1 1564 5 view .LVU2738
1564:HANcoder_E407_TTA_CombineModel.c ****       csumrev[i] = obj->pCumSumRev[i];
 7408              		.loc 1 1564 17 view .LVU2739
 7409 171e 09F10C03 		add	r3, r9, #12
 7410 1722 0C93     		str	r3, [sp, #48]
1565:HANcoder_E407_TTA_CombineModel.c ****     }
 7411              		.loc 1 1565 18 is_stmt 0 view .LVU2740
 7412 1724 1E46     		mov	r6, r3
1565:HANcoder_E407_TTA_CombineModel.c ****     }
 7413              		.loc 1 1565 18 view .LVU2741
 7414 1726 E646     		mov	lr, ip
 7415 1728 09F12C0A 		add	r10, r9, #44
 7416              	.LVL484:
 7417              	.L140:
1565:HANcoder_E407_TTA_CombineModel.c ****     }
 7418              		.loc 1 1565 18 view .LVU2742
 7419 172c 3068     		ldr	r0, [r6]	@ unaligned
 7420 172e 7168     		ldr	r1, [r6, #4]	@ unaligned
 7421 1730 B268     		ldr	r2, [r6, #8]	@ unaligned
 7422 1732 F368     		ldr	r3, [r6, #12]	@ unaligned
 7423 1734 7746     		mov	r7, lr
 7424 1736 0FC7     		stmia	r7!, {r0, r1, r2, r3}
 7425 1738 1036     		adds	r6, r6, #16
 7426 173a 5645     		cmp	r6, r10
 7427 173c BE46     		mov	lr, r7
 7428 173e F5D1     		bne	.L140
1572:HANcoder_E407_TTA_CombineModel.c **** 
 7429              		.loc 1 1572 20 view .LVU2743
 7430 1740 DFED625A 		vldr.32	s11, .L475+36
 7431 1744 624A     		ldr	r2, .L475+40
1565:HANcoder_E407_TTA_CombineModel.c ****     }
 7432              		.loc 1 1565 18 view .LVU2744
 7433 1746 3068     		ldr	r0, [r6]	@ unaligned
 7434 1748 3860     		str	r0, [r7]
 7435              	.LVL485:
1568:HANcoder_E407_TTA_CombineModel.c ****     z = 0.0F;
 7436              		.loc 1 1568 5 is_stmt 1 view .LVU2745
1569:HANcoder_E407_TTA_CombineModel.c **** 
 7437              		.loc 1 1569 5 view .LVU2746
1572:HANcoder_E407_TTA_CombineModel.c **** 
 7438              		.loc 1 1572 5 view .LVU2747
1577:HANcoder_E407_TTA_CombineModel.c ****     if (modValueRev == 0.0F) {
 7439              		.loc 1 1577 13 is_stmt 0 view .LVU2748
 7440 174a F8EE487A 		vcvt.f32.u32	s15, s16
1578:HANcoder_E407_TTA_CombineModel.c ****       z = csumrev[(int32_T)cumRevIndex - 1] + csum;
 7441              		.loc 1 1578 8 view .LVU2749
 7442 174e F4EE656A 		vcmp.f32	s13, s11
 7443 1752 F1EE10FA 		vmrs	APSR_nzcv, FPSCR
1577:HANcoder_E407_TTA_CombineModel.c ****     if (modValueRev == 0.0F) {
 7444              		.loc 1 1577 10 view .LVU2750
 7445 1756 37EE866A 		vadd.f32	s12, s15, s12
 7446              	.LVL486:
1572:HANcoder_E407_TTA_CombineModel.c **** 
 7447              		.loc 1 1572 20 view .LVU2751
 7448 175a C2ED005A 		vstr.32	s11, [r2]
1577:HANcoder_E407_TTA_CombineModel.c ****     if (modValueRev == 0.0F) {
 7449              		.loc 1 1577 5 is_stmt 1 view .LVU2752
 7450              	.LVL487:
1578:HANcoder_E407_TTA_CombineModel.c ****       z = csumrev[(int32_T)cumRevIndex - 1] + csum;
 7451              		.loc 1 1578 5 view .LVU2753
1578:HANcoder_E407_TTA_CombineModel.c ****       z = csumrev[(int32_T)cumRevIndex - 1] + csum;
 7452              		.loc 1 1578 8 is_stmt 0 view .LVU2754
 7453 175e 3FF498A9 		beq	.L139
 7454 1762 0B9B     		ldr	r3, [sp, #44]
 7455 1764 4FEA830A 		lsl	r10, r3, #2
 7456 1768 FFF79DB9 		b	.L141
 7457              	.LVL488:
 7458              	.L420:
1403:HANcoder_E407_TTA_CombineModel.c ****     }
 7459              		.loc 1 1403 7 is_stmt 1 view .LVU2755
1416:HANcoder_E407_TTA_CombineModel.c ****     IOexecution_ELAPS_T_tmp = rtM->Timing.clockTick0;
 7460              		.loc 1 1416 35 is_stmt 0 view .LVU2756
 7461 176c 9BF80B30 		ldrb	r3, [fp, #11]	@ zero_extendqisi2
1409:HANcoder_E407_TTA_CombineModel.c **** 
 7462              		.loc 1 1409 46 view .LVU2757
 7463 1770 0122     		movs	r2, #1
1416:HANcoder_E407_TTA_CombineModel.c ****     IOexecution_ELAPS_T_tmp = rtM->Timing.clockTick0;
 7464              		.loc 1 1416 15 view .LVU2758
 7465 1772 9342     		cmp	r3, r2
1403:HANcoder_E407_TTA_CombineModel.c ****     }
 7466              		.loc 1 1403 33 view .LVU2759
 7467 1774 C4E91E89 		strd	r8, [r4, #120]
1409:HANcoder_E407_TTA_CombineModel.c **** 
 7468              		.loc 1 1409 3 is_stmt 1 view .LVU2760
1409:HANcoder_E407_TTA_CombineModel.c **** 
 7469              		.loc 1 1409 46 is_stmt 0 view .LVU2761
 7470 1778 8BF80C20 		strb	r2, [fp, #12]
1416:HANcoder_E407_TTA_CombineModel.c ****     IOexecution_ELAPS_T_tmp = rtM->Timing.clockTick0;
 7471              		.loc 1 1416 3 is_stmt 1 view .LVU2762
1416:HANcoder_E407_TTA_CombineModel.c ****     IOexecution_ELAPS_T_tmp = rtM->Timing.clockTick0;
 7472              		.loc 1 1416 15 is_stmt 0 view .LVU2763
 7473 177c 7FF4C1A8 		bne	.L266
 7474 1780 FEF790BC 		b	.L412
 7475              	.LVL489:
 7476              	.L167:
1946:HANcoder_E407_TTA_CombineModel.c ****       rtDWork.MMBS1_RX_MODE = true;
 7477              		.loc 1 1946 5 is_stmt 1 view .LVU2764
1947:HANcoder_E407_TTA_CombineModel.c **** 
 7478              		.loc 1 1947 7 view .LVU2765
1954:HANcoder_E407_TTA_CombineModel.c **** 
 7479              		.loc 1 1954 44 is_stmt 0 view .LVU2766
 7480 1784 94F85A31 		ldrb	r3, [r4, #346]	@ zero_extendqisi2
1969:HANcoder_E407_TTA_CombineModel.c ****         &canRxData_0_MMBS1_ID.uint8_T_info[0], NULL);
 7481              		.loc 1 1969 28 view .LVU2767
 7482 1788 4B4A     		ldr	r2, .L475+16
 7483 178a 524F     		ldr	r7, .L475+44
 7484 178c 1168     		ldr	r1, [r2]
1954:HANcoder_E407_TTA_CombineModel.c **** 
 7485              		.loc 1 1954 21 view .LVU2768
 7486 178e 524A     		ldr	r2, .L475+48
1954:HANcoder_E407_TTA_CombineModel.c **** 
 7487              		.loc 1 1954 44 view .LVU2769
 7488 1790 013B     		subs	r3, r3, #1
 7489 1792 18BF     		it	ne
 7490 1794 0123     		movne	r3, #1
1962:HANcoder_E407_TTA_CombineModel.c **** 
 7491              		.loc 1 1962 27 view .LVU2770
 7492 1796 0026     		movs	r6, #0
1957:HANcoder_E407_TTA_CombineModel.c **** 
 7493              		.loc 1 1957 30 view .LVU2771
 7494 1798 84F85B31 		strb	r3, [r4, #347]
1969:HANcoder_E407_TTA_CombineModel.c ****         &canRxData_0_MMBS1_ID.uint8_T_info[0], NULL);
 7495              		.loc 1 1969 28 view .LVU2772
 7496 179c 0096     		str	r6, [sp]
1954:HANcoder_E407_TTA_CombineModel.c **** 
 7497              		.loc 1 1954 21 view .LVU2773
 7498 179e 1370     		strb	r3, [r2]
1947:HANcoder_E407_TTA_CombineModel.c **** 
 7499              		.loc 1 1947 29 view .LVU2774
 7500 17a0 0123     		movs	r3, #1
 7501 17a2 84F86A31 		strb	r3, [r4, #362]
1954:HANcoder_E407_TTA_CombineModel.c **** 
 7502              		.loc 1 1954 7 is_stmt 1 view .LVU2775
1957:HANcoder_E407_TTA_CombineModel.c **** 
 7503              		.loc 1 1957 7 view .LVU2776
1962:HANcoder_E407_TTA_CombineModel.c **** 
 7504              		.loc 1 1962 7 view .LVU2777
1969:HANcoder_E407_TTA_CombineModel.c ****         &canRxData_0_MMBS1_ID.uint8_T_info[0], NULL);
 7505              		.loc 1 1969 7 view .LVU2778
1969:HANcoder_E407_TTA_CombineModel.c ****         &canRxData_0_MMBS1_ID.uint8_T_info[0], NULL);
 7506              		.loc 1 1969 28 is_stmt 0 view .LVU2779
 7507 17a6 3246     		mov	r2, r6
 7508 17a8 3B46     		mov	r3, r7
 7509 17aa 3046     		mov	r0, r6
1962:HANcoder_E407_TTA_CombineModel.c **** 
 7510              		.loc 1 1962 27 view .LVU2780
 7511 17ac 84F85A61 		strb	r6, [r4, #346]
1969:HANcoder_E407_TTA_CombineModel.c ****         &canRxData_0_MMBS1_ID.uint8_T_info[0], NULL);
 7512              		.loc 1 1969 28 view .LVU2781
 7513 17b0 FFF7FEFF 		bl	CanIoGetMessage
 7514              	.LVL490:
1973:HANcoder_E407_TTA_CombineModel.c ****         /* read the data */
 7515              		.loc 1 1973 7 is_stmt 1 view .LVU2782
2011:HANcoder_E407_TTA_CombineModel.c **** 
 7516              		.loc 1 2011 29 is_stmt 0 view .LVU2783
 7517 17b4 414B     		ldr	r3, .L475+20
2018:HANcoder_E407_TTA_CombineModel.c **** 
 7518              		.loc 1 2018 36 view .LVU2784
 7519 17b6 94F848A1 		ldrb	r10, [r4, #328]	@ zero_extendqisi2
2011:HANcoder_E407_TTA_CombineModel.c **** 
 7520              		.loc 1 2011 29 view .LVU2785
 7521 17ba 1B78     		ldrb	r3, [r3]	@ zero_extendqisi2
 7522 17bc 07EE903A 		vmov	s15, r3	@ int
 7523 17c0 B8EEE77A 		vcvt.f32.s32	s14, s15
2018:HANcoder_E407_TTA_CombineModel.c **** 
 7524              		.loc 1 2018 46 view .LVU2786
 7525 17c4 07EE90AA 		vmov	s15, r10	@ int
1973:HANcoder_E407_TTA_CombineModel.c ****         /* read the data */
 7526              		.loc 1 1973 10 view .LVU2787
 7527 17c8 B042     		cmp	r0, r6
2018:HANcoder_E407_TTA_CombineModel.c **** 
 7528              		.loc 1 2018 46 view .LVU2788
 7529 17ca F8EEE77A 		vcvt.f32.s32	s15, s15
1973:HANcoder_E407_TTA_CombineModel.c ****         /* read the data */
 7530              		.loc 1 1973 10 view .LVU2789
 7531 17ce 7FF796AE 		ble	.L173
1975:HANcoder_E407_TTA_CombineModel.c ****         rtb_SFunction_o3_b = canRxData_0_MMBS1_ID.uint8_T_info[1];
 7532              		.loc 1 1975 9 is_stmt 1 view .LVU2790
 7533              	.LVL491:
1976:HANcoder_E407_TTA_CombineModel.c ****         rtb_SFunction_o4_l = canRxData_0_MMBS1_ID.uint8_T_info[2];
 7534              		.loc 1 1976 9 view .LVU2791
1977:HANcoder_E407_TTA_CombineModel.c ****         rtb_SFunction_o5_e = canRxData_0_MMBS1_ID.uint8_T_info[3];
 7535              		.loc 1 1977 9 view .LVU2792
1978:HANcoder_E407_TTA_CombineModel.c ****         rtb_SFunction_o6_k1 = canRxData_0_MMBS1_ID.uint8_T_info[4];
 7536              		.loc 1 1978 9 view .LVU2793
1977:HANcoder_E407_TTA_CombineModel.c ****         rtb_SFunction_o5_e = canRxData_0_MMBS1_ID.uint8_T_info[3];
 7537              		.loc 1 1977 28 is_stmt 0 view .LVU2794
 7538 17d2 7A88     		ldrh	r2, [r7, #2]
 7539              	.LVL492:
1979:HANcoder_E407_TTA_CombineModel.c ****         rtb_SFunction_o7_dj = canRxData_0_MMBS1_ID.uint8_T_info[5];
 7540              		.loc 1 1979 9 is_stmt 1 view .LVU2795
1980:HANcoder_E407_TTA_CombineModel.c ****         rtb_SFunction_o8_n1 = canRxData_0_MMBS1_ID.uint8_T_info[6];
 7541              		.loc 1 1980 9 view .LVU2796
1981:HANcoder_E407_TTA_CombineModel.c ****         rtb_SFunction_o9_ok = canRxData_0_MMBS1_ID.uint8_T_info[7];
 7542              		.loc 1 1981 9 view .LVU2797
 7543              	.LBB859:
 7544              	.LBB860:
 464:HANcoder_E407_TTA_CombineModel.c **** 
 7545              		.loc 1 464 17 is_stmt 0 view .LVU2798
 7546 17d4 A5F8D420 		strh	r2, [r5, #212]	@ movhi
 7547              	.LBE860:
 7548              	.LBE859:
1981:HANcoder_E407_TTA_CombineModel.c ****         rtb_SFunction_o9_ok = canRxData_0_MMBS1_ID.uint8_T_info[7];
 7549              		.loc 1 1981 29 view .LVU2799
 7550 17d8 BA79     		ldrb	r2, [r7, #6]	@ zero_extendqisi2
 7551              	.LVL493:
1982:HANcoder_E407_TTA_CombineModel.c ****       }
 7552              		.loc 1 1982 9 is_stmt 1 view .LVU2800
1986:HANcoder_E407_TTA_CombineModel.c ****                        rtb_SFunction_o3_b, rtb_SFunction_o4_l,
 7553              		.loc 1 1986 7 view .LVU2801
 7554              	.LBB863:
 7555              	.LBI859:
 444:HANcoder_E407_TTA_CombineModel.c ****                       uint8_T rtu_In3, uint8_T rtu_In4, uint8_T rtu_In5, uint8_T
 7556              		.loc 1 444 6 view .LVU2802
 7557              	.LBB861:
 449:HANcoder_E407_TTA_CombineModel.c ****   uint8_T rtb_In6;
 7558              		.loc 1 449 3 view .LVU2803
 450:HANcoder_E407_TTA_CombineModel.c ****   uint8_T rtb_In8_m;
 7559              		.loc 1 450 3 view .LVU2804
 451:HANcoder_E407_TTA_CombineModel.c **** 
 7560              		.loc 1 451 3 view .LVU2805
 456:HANcoder_E407_TTA_CombineModel.c ****     /* SignalConversion generated from: '<S119>/In1' */
 7561              		.loc 1 456 3 view .LVU2806
 458:HANcoder_E407_TTA_CombineModel.c **** 
 7562              		.loc 1 458 5 view .LVU2807
 461:HANcoder_E407_TTA_CombineModel.c **** 
 7563              		.loc 1 461 5 view .LVU2808
 464:HANcoder_E407_TTA_CombineModel.c **** 
 7564              		.loc 1 464 5 view .LVU2809
 467:HANcoder_E407_TTA_CombineModel.c **** 
 7565              		.loc 1 467 5 view .LVU2810
 470:HANcoder_E407_TTA_CombineModel.c **** 
 7566              		.loc 1 470 5 view .LVU2811
 473:HANcoder_E407_TTA_CombineModel.c **** 
 7567              		.loc 1 473 5 view .LVU2812
 476:HANcoder_E407_TTA_CombineModel.c **** 
 7568              		.loc 1 476 5 view .LVU2813
 476:HANcoder_E407_TTA_CombineModel.c **** 
 7569              		.loc 1 476 17 is_stmt 0 view .LVU2814
 7570 17da 85F8D620 		strb	r2, [r5, #214]
 479:HANcoder_E407_TTA_CombineModel.c ****   }
 7571              		.loc 1 479 5 is_stmt 1 view .LVU2815
 7572              	.LVL494:
 479:HANcoder_E407_TTA_CombineModel.c ****   }
 7573              		.loc 1 479 5 is_stmt 0 view .LVU2816
 7574              	.LBE861:
 7575              	.LBE863:
2000:HANcoder_E407_TTA_CombineModel.c **** 
 7576              		.loc 1 2000 5 is_stmt 1 view .LVU2817
 7577              	.LBB864:
 7578              	.LBB862:
 458:HANcoder_E407_TTA_CombineModel.c **** 
 7579              		.loc 1 458 17 is_stmt 0 view .LVU2818
 7580 17de 3A88     		ldrh	r2, [r7]
 7581 17e0 A5F8D220 		strh	r2, [r5, #210]	@ movhi
 7582 17e4 8BE6     		b	.L173
 7583              	.LVL495:
 7584              	.L297:
 458:HANcoder_E407_TTA_CombineModel.c **** 
 7585              		.loc 1 458 17 view .LVU2819
 7586              	.LBE862:
 7587              	.LBE864:
 7588 17e6 0023     		movs	r3, #0
 7589              	.LVL496:
 458:HANcoder_E407_TTA_CombineModel.c **** 
 7590              		.loc 1 458 17 view .LVU2820
 7591 17e8 FFF7E5B8 		b	.L134
 7592              	.LVL497:
 7593              	.L155:
1877:HANcoder_E407_TTA_CombineModel.c ****     }
 7594              		.loc 1 1877 7 is_stmt 1 view .LVU2821
 7595 17ec 0121     		movs	r1, #1
 7596 17ee 0A20     		movs	r0, #10
 7597 17f0 FFF7FEFF 		bl	DigoutSet
 7598              	.LVL498:
 7599 17f4 FFF7A7BA 		b	.L156
 7600              	.L153:
1772:HANcoder_E407_TTA_CombineModel.c **** 
 7601              		.loc 1 1772 7 view .LVU2822
1772:HANcoder_E407_TTA_CombineModel.c **** 
 7602              		.loc 1 1772 28 is_stmt 0 view .LVU2823
 7603 17f8 2B4B     		ldr	r3, .L475
1772:HANcoder_E407_TTA_CombineModel.c **** 
 7604              		.loc 1 1772 18 view .LVU2824
 7605 17fa 1A8C     		ldrh	r2, [r3, #32]
1775:HANcoder_E407_TTA_CombineModel.c **** 
 7606              		.loc 1 1775 29 view .LVU2825
 7607 17fc 93F83670 		ldrb	r7, [r3, #54]	@ zero_extendqisi2
1778:HANcoder_E407_TTA_CombineModel.c ****     }
 7608              		.loc 1 1778 19 view .LVU2826
 7609 1800 93F83730 		ldrb	r3, [r3, #55]	@ zero_extendqisi2
1772:HANcoder_E407_TTA_CombineModel.c **** 
 7610              		.loc 1 1772 18 view .LVU2827
 7611 1804 2A80     		strh	r2, [r5]	@ movhi
1775:HANcoder_E407_TTA_CombineModel.c **** 
 7612              		.loc 1 1775 7 is_stmt 1 view .LVU2828
1778:HANcoder_E407_TTA_CombineModel.c ****     }
 7613              		.loc 1 1778 19 is_stmt 0 view .LVU2829
 7614 1806 85F82C30 		strb	r3, [r5, #44]
1775:HANcoder_E407_TTA_CombineModel.c **** 
 7615              		.loc 1 1775 19 view .LVU2830
 7616 180a 85F82B70 		strb	r7, [r5, #43]
1778:HANcoder_E407_TTA_CombineModel.c ****     }
 7617              		.loc 1 1778 7 is_stmt 1 view .LVU2831
 7618 180e FFF741BA 		b	.L154
 7619              	.LVL499:
 7620              	.L142:
1778:HANcoder_E407_TTA_CombineModel.c ****     }
 7621              		.loc 1 1778 7 is_stmt 0 view .LVU2832
 7622 1812 1BAF     		add	r7, sp, #108
 7623 1814 3B46     		mov	r3, r7
 7624              	.LVL500:
 7625              	.L144:
1589:HANcoder_E407_TTA_CombineModel.c ****       }
 7626              		.loc 1 1589 9 is_stmt 1 discriminator 3 view .LVU2833
1589:HANcoder_E407_TTA_CombineModel.c ****       }
 7627              		.loc 1 1589 20 is_stmt 0 discriminator 3 view .LVU2834
 7628 1816 73ED017A 		vldmdb.32	r3!, {s15}
 7629 181a 93ED017A 		vldr.32	s14, [r3, #4]
 7630 181e 77EE877A 		vadd.f32	s15, s15, s14
1588:HANcoder_E407_TTA_CombineModel.c ****         csumrev[i] += csumrev[i + 1];
 7631              		.loc 1 1588 7 discriminator 3 view .LVU2835
 7632 1822 9C45     		cmp	ip, r3
1589:HANcoder_E407_TTA_CombineModel.c ****       }
 7633              		.loc 1 1589 20 discriminator 3 view .LVU2836
 7634 1824 C3ED007A 		vstr.32	s15, [r3]
1588:HANcoder_E407_TTA_CombineModel.c ****         csumrev[i] += csumrev[i + 1];
 7635              		.loc 1 1588 27 is_stmt 1 discriminator 3 view .LVU2837
1588:HANcoder_E407_TTA_CombineModel.c ****         csumrev[i] += csumrev[i + 1];
 7636              		.loc 1 1588 19 discriminator 3 view .LVU2838
1588:HANcoder_E407_TTA_CombineModel.c ****         csumrev[i] += csumrev[i + 1];
 7637              		.loc 1 1588 7 is_stmt 0 discriminator 3 view .LVU2839
 7638 1828 F5D1     		bne	.L144
1587:HANcoder_E407_TTA_CombineModel.c ****       for (i = 7; i >= 0; i--) {
 7639              		.loc 1 1587 12 view .LVU2840
 7640 182a 9FED286A 		vldr.32	s12, .L475+36
1586:HANcoder_E407_TTA_CombineModel.c ****       csum = 0.0F;
 7641              		.loc 1 1586 19 view .LVU2841
 7642 182e B7EE007A 		vmov.f32	s14, #1.0e+0
 7643 1832 FFF74BB9 		b	.L143
 7644              	.LVL501:
 7645              	.L399:
1348:HANcoder_E407_TTA_CombineModel.c ****       rtb_Uk1 = 0.0;
 7646              		.loc 1 1348 12 is_stmt 1 view .LVU2842
1348:HANcoder_E407_TTA_CombineModel.c ****       rtb_Uk1 = 0.0;
 7647              		.loc 1 1348 15 is_stmt 0 view .LVU2843
 7648 1836 51EC190B 		vmov	r0, r1, d9
 7649 183a 0022     		movs	r2, #0
 7650 183c 0023     		movs	r3, #0
 7651 183e FFF7FEFF 		bl	__aeabi_dcmpge
 7652              	.LVL502:
 7653 1842 0028     		cmp	r0, #0
 7654 1844 3FF418A8 		beq	.L122
 7655              	.LVL503:
1357:HANcoder_E407_TTA_CombineModel.c **** 
 7656              		.loc 1 1357 5 is_stmt 1 view .LVU2844
1357:HANcoder_E407_TTA_CombineModel.c **** 
 7657              		.loc 1 1357 22 is_stmt 0 view .LVU2845
 7658 1848 244B     		ldr	r3, .L475+52
 7659 184a 3046     		mov	r0, r6
 7660 184c 3946     		mov	r1, r7
 7661 184e D3E90023 		ldrd	r2, [r3]
 7662 1852 FFF7FEFF 		bl	__aeabi_dmul
 7663              	.LVL504:
 7664 1856 0646     		mov	r6, r0
 7665              	.LVL505:
1357:HANcoder_E407_TTA_CombineModel.c **** 
 7666              		.loc 1 1357 22 view .LVU2846
 7667 1858 0F46     		mov	r7, r1
 7668              	.LVL506:
1365:HANcoder_E407_TTA_CombineModel.c ****       rtPrevAction = 1;
 7669              		.loc 1 1365 5 is_stmt 1 view .LVU2847
1377:HANcoder_E407_TTA_CombineModel.c ****       rtAction = 1;
 7670              		.loc 1 1377 5 view .LVU2848
 7671 185a FFF728B8 		b	.L125
 7672              	.LVL507:
 7673              	.L397:
1377:HANcoder_E407_TTA_CombineModel.c ****       rtAction = 1;
 7674              		.loc 1 1377 5 is_stmt 0 view .LVU2849
 7675 185e 079B     		ldr	r3, [sp, #28]
 7676 1860 83F00108 		eor	r8, r3, #1
1338:HANcoder_E407_TTA_CombineModel.c **** 
 7677              		.loc 1 1338 9 discriminator 6 view .LVU2850
 7678 1864 1E4B     		ldr	r3, .L475+56
 7679 1866 83F80080 		strb	r8, [r3]
1335:HANcoder_E407_TTA_CombineModel.c **** 
 7680              		.loc 1 1335 21 discriminator 6 view .LVU2851
 7681 186a 0023     		movs	r3, #0
 7682 186c 84F85231 		strb	r3, [r4, #338]
1338:HANcoder_E407_TTA_CombineModel.c **** 
 7683              		.loc 1 1338 5 is_stmt 1 discriminator 6 view .LVU2852
1343:HANcoder_E407_TTA_CombineModel.c **** 
 7684              		.loc 1 1343 5 discriminator 6 view .LVU2853
1343:HANcoder_E407_TTA_CombineModel.c **** 
 7685              		.loc 1 1343 37 is_stmt 0 discriminator 6 view .LVU2854
 7686 1870 51EC180B 		vmov	r0, r1, d8
 7687 1874 3246     		mov	r2, r6
 7688 1876 3B46     		mov	r3, r7
 7689 1878 FFF7FEFF 		bl	__aeabi_dcmplt
 7690              	.LVL508:
 7691 187c 0028     		cmp	r0, #0
 7692 187e 08BF     		it	eq
 7693 1880 4FF00008 		moveq	r8, #0
 7694 1884 FEF7AABF 		b	.L118
 7695              	.LVL509:
 7696              	.L287:
1343:HANcoder_E407_TTA_CombineModel.c **** 
 7697              		.loc 1 1343 37 discriminator 6 view .LVU2855
 7698 1888 4FF44873 		mov	r3, #800
 7699 188c FEF779BF 		b	.L112
 7700              	.LVL510:
 7701              	.L443:
1510:HANcoder_E407_TTA_CombineModel.c ****                  (rtDWork.pwmMotor > ((uint16_T)650U)));
 7702              		.loc 1 1510 72 discriminator 1 view .LVU2856
 7703 1890 B4F8D010 		ldrh	r1, [r4, #208]
 7704 1894 40F28A23 		movw	r3, #650
 7705 1898 9942     		cmp	r1, r3
 7706 189a 94BF     		ite	ls
 7707 189c 0023     		movls	r3, #0
 7708 189e 0123     		movhi	r3, #1
 7709 18a0 0793     		str	r3, [sp, #28]
 7710 18a2 FFF79EB8 		b	.L135
 7711              	.L476:
 7712 18a6 00BF     		.align	2
 7713              	.L475:
 7714 18a8 00000000 		.word	rtConstB
 7715 18ac 00000000 		.word	.LANCHOR8
 7716 18b0 00000000 		.word	.LANCHOR59
 7717 18b4 00000000 		.word	.LANCHOR60
 7718 18b8 00000000 		.word	.LANCHOR44
 7719 18bc 00000000 		.word	.LANCHOR7
 7720 18c0 00000000 		.word	.LANCHOR61
 7721 18c4 00000000 		.word	.LANCHOR62
 7722 18c8 00000000 		.word	.LANCHOR63
 7723 18cc 00000000 		.word	0
 7724 18d0 00000000 		.word	.LANCHOR35
 7725 18d4 00000000 		.word	.LANCHOR43
 7726 18d8 00000000 		.word	.LANCHOR78
 7727 18dc 00000000 		.word	.LANCHOR24
 7728 18e0 00000000 		.word	.LANCHOR23
 7729              	.LVL511:
 7730              	.L429:
2090:HANcoder_E407_TTA_CombineModel.c **** 
 7731              		.loc 1 2090 27 discriminator 1 view .LVU2857
 7732 18e4 002E     		cmp	r6, #0
 7733 18e6 40F0E480 		bne	.L457
 7734              	.LVL512:
2095:HANcoder_E407_TTA_CombineModel.c ****       rtDWork.SYNC1_RX_MODE = true;
 7735              		.loc 1 2095 5 is_stmt 1 view .LVU2858
2096:HANcoder_E407_TTA_CombineModel.c **** 
 7736              		.loc 1 2096 7 view .LVU2859
2096:HANcoder_E407_TTA_CombineModel.c **** 
 7737              		.loc 1 2096 29 is_stmt 0 view .LVU2860
 7738 18ea 84F86831 		strb	r3, [r4, #360]
2103:HANcoder_E407_TTA_CombineModel.c ****         &canRxData_0_SYNC1_ID.uint8_T_info[0], NULL);
 7739              		.loc 1 2103 7 is_stmt 1 view .LVU2861
2103:HANcoder_E407_TTA_CombineModel.c ****         &canRxData_0_SYNC1_ID.uint8_T_info[0], NULL);
 7740              		.loc 1 2103 28 is_stmt 0 view .LVU2862
 7741 18ee 774F     		ldr	r7, .L477
 7742 18f0 774B     		ldr	r3, .L477+4
 7743 18f2 0096     		str	r6, [sp]
 7744 18f4 1968     		ldr	r1, [r3]
 7745 18f6 3246     		mov	r2, r6
 7746 18f8 3B46     		mov	r3, r7
 7747 18fa 3046     		mov	r0, r6
 7748 18fc FFF7FEFF 		bl	CanIoGetMessage
 7749              	.LVL513:
2107:HANcoder_E407_TTA_CombineModel.c ****         /* read the data */
 7750              		.loc 1 2107 7 is_stmt 1 view .LVU2863
2107:HANcoder_E407_TTA_CombineModel.c ****         /* read the data */
 7751              		.loc 1 2107 10 is_stmt 0 view .LVU2864
 7752 1900 021E     		subs	r2, r0, #0
 7753 1902 05DD     		ble	.L259
2109:HANcoder_E407_TTA_CombineModel.c ****         rtb_SFunction_o3_g = canRxData_0_SYNC1_ID.uint8_T_info[1];
 7754              		.loc 1 2109 9 is_stmt 1 view .LVU2865
 7755              	.LVL514:
2110:HANcoder_E407_TTA_CombineModel.c ****         rtb_SFunction_o4_j = canRxData_0_SYNC1_ID.uint8_T_info[2];
 7756              		.loc 1 2110 9 view .LVU2866
2111:HANcoder_E407_TTA_CombineModel.c ****         rtb_SFunction_o5_f = canRxData_0_SYNC1_ID.uint8_T_info[3];
 7757              		.loc 1 2111 9 view .LVU2867
2112:HANcoder_E407_TTA_CombineModel.c ****         rtb_SFunction_o6_gy = canRxData_0_SYNC1_ID.uint8_T_info[4];
 7758              		.loc 1 2112 9 view .LVU2868
2113:HANcoder_E407_TTA_CombineModel.c ****         rtb_SFunction_o7_k = canRxData_0_SYNC1_ID.uint8_T_info[5];
 7759              		.loc 1 2113 9 view .LVU2869
2114:HANcoder_E407_TTA_CombineModel.c ****         rtb_SFunction_o8_n = canRxData_0_SYNC1_ID.uint8_T_info[6];
 7760              		.loc 1 2114 9 view .LVU2870
2115:HANcoder_E407_TTA_CombineModel.c ****         rtb_SFunction_o9_b1 = canRxData_0_SYNC1_ID.uint8_T_info[7];
 7761              		.loc 1 2115 9 view .LVU2871
2115:HANcoder_E407_TTA_CombineModel.c ****         rtb_SFunction_o9_b1 = canRxData_0_SYNC1_ID.uint8_T_info[7];
 7762              		.loc 1 2115 28 is_stmt 0 view .LVU2872
 7763 1904 BB79     		ldrb	r3, [r7, #6]	@ zero_extendqisi2
 7764              	.LVL515:
2116:HANcoder_E407_TTA_CombineModel.c ****       }
 7765              		.loc 1 2116 9 is_stmt 1 view .LVU2873
2120:HANcoder_E407_TTA_CombineModel.c ****                        rtb_SFunction_o3_g, rtb_SFunction_o4_j,
 7766              		.loc 1 2120 7 view .LVU2874
 7767              	.LBB865:
 7768              	.LBI865:
 444:HANcoder_E407_TTA_CombineModel.c ****                       uint8_T rtu_In3, uint8_T rtu_In4, uint8_T rtu_In5, uint8_T
 7769              		.loc 1 444 6 view .LVU2875
 7770              	.LBB866:
 449:HANcoder_E407_TTA_CombineModel.c ****   uint8_T rtb_In6;
 7771              		.loc 1 449 3 view .LVU2876
 450:HANcoder_E407_TTA_CombineModel.c ****   uint8_T rtb_In8_m;
 7772              		.loc 1 450 3 view .LVU2877
 451:HANcoder_E407_TTA_CombineModel.c **** 
 7773              		.loc 1 451 3 view .LVU2878
 456:HANcoder_E407_TTA_CombineModel.c ****     /* SignalConversion generated from: '<S119>/In1' */
 7774              		.loc 1 456 3 view .LVU2879
 458:HANcoder_E407_TTA_CombineModel.c **** 
 7775              		.loc 1 458 5 view .LVU2880
 461:HANcoder_E407_TTA_CombineModel.c **** 
 7776              		.loc 1 461 5 view .LVU2881
 464:HANcoder_E407_TTA_CombineModel.c **** 
 7777              		.loc 1 464 5 view .LVU2882
 467:HANcoder_E407_TTA_CombineModel.c **** 
 7778              		.loc 1 467 5 view .LVU2883
 476:HANcoder_E407_TTA_CombineModel.c **** 
 7779              		.loc 1 476 17 is_stmt 0 view .LVU2884
 7780 1906 85F8CC30 		strb	r3, [r5, #204]
 458:HANcoder_E407_TTA_CombineModel.c **** 
 7781              		.loc 1 458 17 view .LVU2885
 7782 190a 3B68     		ldr	r3, [r7]
 7783              	.LVL516:
 458:HANcoder_E407_TTA_CombineModel.c **** 
 7784              		.loc 1 458 17 view .LVU2886
 7785 190c C5F8C830 		str	r3, [r5, #200]
 470:HANcoder_E407_TTA_CombineModel.c **** 
 7786              		.loc 1 470 5 is_stmt 1 view .LVU2887
 473:HANcoder_E407_TTA_CombineModel.c **** 
 7787              		.loc 1 473 5 view .LVU2888
 476:HANcoder_E407_TTA_CombineModel.c **** 
 7788              		.loc 1 476 5 view .LVU2889
 479:HANcoder_E407_TTA_CombineModel.c ****   }
 7789              		.loc 1 479 5 view .LVU2890
 7790              	.LVL517:
 7791              	.L259:
 479:HANcoder_E407_TTA_CombineModel.c ****   }
 7792              		.loc 1 479 5 is_stmt 0 view .LVU2891
 7793              	.LBE866:
 7794              	.LBE865:
2131:HANcoder_E407_TTA_CombineModel.c ****                             &rtPrevZCSigState.Subsystem_Trig_ZCE_h,
 7795              		.loc 1 2131 7 is_stmt 1 view .LVU2892
2131:HANcoder_E407_TTA_CombineModel.c ****                             &rtPrevZCSigState.Subsystem_Trig_ZCE_h,
 7796              		.loc 1 2131 17 is_stmt 0 view .LVU2893
 7797 1910 7049     		ldr	r1, .L477+8
 7798 1912 0120     		movs	r0, #1
 7799              	.LVL518:
2131:HANcoder_E407_TTA_CombineModel.c ****                             &rtPrevZCSigState.Subsystem_Trig_ZCE_h,
 7800              		.loc 1 2131 17 view .LVU2894
 7801 1914 FFF7FEFF 		bl	rt_I32ZCFcn
 7802              	.LVL519:
2134:HANcoder_E407_TTA_CombineModel.c ****         /* DataStoreWrite: '<S125>/Data Store Write' */
 7803              		.loc 1 2134 7 is_stmt 1 view .LVU2895
2134:HANcoder_E407_TTA_CombineModel.c ****         /* DataStoreWrite: '<S125>/Data Store Write' */
 7804              		.loc 1 2134 10 is_stmt 0 view .LVU2896
 7805 1918 50B1     		cbz	r0, .L416
2136:HANcoder_E407_TTA_CombineModel.c **** 
 7806              		.loc 1 2136 9 is_stmt 1 view .LVU2897
2141:HANcoder_E407_TTA_CombineModel.c **** 
 7807              		.loc 1 2141 29 is_stmt 0 view .LVU2898
 7808 191a 0123     		movs	r3, #1
 7809 191c 84F84931 		strb	r3, [r4, #329]
2146:HANcoder_E407_TTA_CombineModel.c **** 
 7810              		.loc 1 2146 22 view .LVU2899
 7811 1920 84F84B31 		strb	r3, [r4, #331]
2151:HANcoder_E407_TTA_CombineModel.c ****       }
 7812              		.loc 1 2151 29 view .LVU2900
 7813 1924 84F85A31 		strb	r3, [r4, #346]
2136:HANcoder_E407_TTA_CombineModel.c **** 
 7814              		.loc 1 2136 26 view .LVU2901
 7815 1928 95F8C830 		ldrb	r3, [r5, #200]	@ zero_extendqisi2
 7816 192c 84F84C31 		strb	r3, [r4, #332]
 7817              	.L416:
2141:HANcoder_E407_TTA_CombineModel.c **** 
 7818              		.loc 1 2141 9 is_stmt 1 view .LVU2902
2146:HANcoder_E407_TTA_CombineModel.c **** 
 7819              		.loc 1 2146 9 view .LVU2903
2151:HANcoder_E407_TTA_CombineModel.c ****       }
 7820              		.loc 1 2151 9 view .LVU2904
2162:HANcoder_E407_TTA_CombineModel.c **** 
 7821              		.loc 1 2162 5 view .LVU2905
2213:HANcoder_E407_TTA_CombineModel.c **** 
 7822              		.loc 1 2213 31 is_stmt 0 view .LVU2906
 7823 1930 694B     		ldr	r3, .L477+12
2219:HANcoder_E407_TTA_CombineModel.c **** 
 7824              		.loc 1 2219 23 view .LVU2907
 7825 1932 94F848A1 		ldrb	r10, [r4, #328]	@ zero_extendqisi2
2213:HANcoder_E407_TTA_CombineModel.c **** 
 7826              		.loc 1 2213 31 view .LVU2908
 7827 1936 1B78     		ldrb	r3, [r3]	@ zero_extendqisi2
 7828 1938 FEF731BC 		b	.L188
 7829              	.LVL520:
 7830              	.L444:
1732:HANcoder_E407_TTA_CombineModel.c ****     }
 7831              		.loc 1 1732 7 is_stmt 1 view .LVU2909
 7832 193c 0120     		movs	r0, #1
 7833 193e FFF7FEFF 		bl	QuadEncResetCounter
 7834              	.LVL521:
 7835 1942 FFF785B9 		b	.L151
 7836              	.LVL522:
 7837              	.L224:
3373:HANcoder_E407_TTA_CombineModel.c **** 
 7838              		.loc 1 3373 7 view .LVU2910
3373:HANcoder_E407_TTA_CombineModel.c **** 
 7839              		.loc 1 3373 24 is_stmt 0 view .LVU2911
 7840 1946 95F82E20 		ldrb	r2, [r5, #46]	@ zero_extendqisi2
 7841 194a 84F84C21 		strb	r2, [r4, #332]
3378:HANcoder_E407_TTA_CombineModel.c **** 
 7842              		.loc 1 3378 7 is_stmt 1 view .LVU2912
3383:HANcoder_E407_TTA_CombineModel.c **** 
 7843              		.loc 1 3383 28 is_stmt 0 view .LVU2913
 7844 194e 0123     		movs	r3, #1
3378:HANcoder_E407_TTA_CombineModel.c **** 
 7845              		.loc 1 3378 27 view .LVU2914
 7846 1950 0022     		movs	r2, #0
3404:HANcoder_E407_TTA_CombineModel.c ****     rtAction = 0;
 7847              		.loc 1 3404 14 view .LVU2915
 7848 1952 94F848A1 		ldrb	r10, [r4, #328]	@ zero_extendqisi2
3378:HANcoder_E407_TTA_CombineModel.c **** 
 7849              		.loc 1 3378 27 view .LVU2916
 7850 1956 84F84921 		strb	r2, [r4, #329]
3383:HANcoder_E407_TTA_CombineModel.c **** 
 7851              		.loc 1 3383 7 is_stmt 1 view .LVU2917
3383:HANcoder_E407_TTA_CombineModel.c **** 
 7852              		.loc 1 3383 28 is_stmt 0 view .LVU2918
 7853 195a 84F85131 		strb	r3, [r4, #337]
3388:HANcoder_E407_TTA_CombineModel.c ****     }
 7854              		.loc 1 3388 7 is_stmt 1 view .LVU2919
3388:HANcoder_E407_TTA_CombineModel.c ****     }
 7855              		.loc 1 3388 20 is_stmt 0 view .LVU2920
 7856 195e 84F84B31 		strb	r3, [r4, #331]
 7857 1962 FEF76BBD 		b	.L225
 7858              	.LVL523:
 7859              	.L292:
3388:HANcoder_E407_TTA_CombineModel.c ****     }
 7860              		.loc 1 3388 20 view .LVU2921
 7861 1966 0B46     		mov	r3, r1
 7862 1968 FEF7FCBF 		b	.L131
 7863              	.LVL524:
 7864              	.L440:
1338:HANcoder_E407_TTA_CombineModel.c **** 
 7865              		.loc 1 1338 9 view .LVU2922
 7866 196c 5B4B     		ldr	r3, .L477+16
1335:HANcoder_E407_TTA_CombineModel.c **** 
 7867              		.loc 1 1335 21 view .LVU2923
 7868 196e 84F85201 		strb	r0, [r4, #338]
1338:HANcoder_E407_TTA_CombineModel.c **** 
 7869              		.loc 1 1338 5 is_stmt 1 view .LVU2924
1338:HANcoder_E407_TTA_CombineModel.c **** 
 7870              		.loc 1 1338 9 is_stmt 0 view .LVU2925
 7871 1972 4FF00108 		mov	r8, #1
 7872 1976 83F80080 		strb	r8, [r3]
1343:HANcoder_E407_TTA_CombineModel.c **** 
 7873              		.loc 1 1343 5 is_stmt 1 view .LVU2926
 7874 197a FEF72FBF 		b	.L118
 7875              	.LVL525:
 7876              	.L439:
1249:HANcoder_E407_TTA_CombineModel.c ****     }
 7877              		.loc 1 1249 11 is_stmt 0 view .LVU2927
 7878 197e 4FF00009 		mov	r9, #0
 7879 1982 FEF738BE 		b	.L111
 7880              	.LVL526:
 7881              	.L288:
1249:HANcoder_E407_TTA_CombineModel.c ****     }
 7882              		.loc 1 1249 11 view .LVU2928
 7883 1986 4FF4FA73 		mov	r3, #500
 7884 198a FEF7FABE 		b	.L112
 7885              	.LVL527:
 7886              	.L453:
2263:HANcoder_E407_TTA_CombineModel.c **** 
 7887              		.loc 1 2263 42 view .LVU2929
 7888 198e 95F8BE30 		ldrb	r3, [r5, #190]	@ zero_extendqisi2
2274:HANcoder_E407_TTA_CombineModel.c **** 
 7889              		.loc 1 2274 48 view .LVU2930
 7890 1992 95F8BF00 		ldrb	r0, [r5, #191]	@ zero_extendqisi2
 7891              	.LVL528:
2277:HANcoder_E407_TTA_CombineModel.c **** 
 7892              		.loc 1 2277 42 view .LVU2931
 7893 1996 95F8C020 		ldrb	r2, [r5, #192]	@ zero_extendqisi2
2288:HANcoder_E407_TTA_CombineModel.c **** 
 7894              		.loc 1 2288 48 view .LVU2932
 7895 199a 95F8C110 		ldrb	r1, [r5, #193]	@ zero_extendqisi2
2291:HANcoder_E407_TTA_CombineModel.c **** 
 7896              		.loc 1 2291 7 view .LVU2933
 7897 199e 95F8C270 		ldrb	r7, [r5, #194]	@ zero_extendqisi2
 7898 19a2 FFF77ABB 		b	.L255
 7899              	.LVL529:
 7900              	.L455:
3053:HANcoder_E407_TTA_CombineModel.c **** 
 7901              		.loc 1 3053 35 view .LVU2934
 7902 19a6 4E4B     		ldr	r3, .L477+20
3056:HANcoder_E407_TTA_CombineModel.c **** 
 7903              		.loc 1 3056 23 view .LVU2935
 7904 19a8 EA7A     		ldrb	r2, [r5, #11]	@ zero_extendqisi2
3053:HANcoder_E407_TTA_CombineModel.c **** 
 7905              		.loc 1 3053 35 view .LVU2936
 7906 19aa 1B78     		ldrb	r3, [r3]	@ zero_extendqisi2
3067:HANcoder_E407_TTA_CombineModel.c **** 
 7907              		.loc 1 3067 68 view .LVU2937
 7908 19ac 2F7B     		ldrb	r7, [r5, #12]	@ zero_extendqisi2
3070:HANcoder_E407_TTA_CombineModel.c **** 
 7909              		.loc 1 3070 24 view .LVU2938
 7910 19ae 687B     		ldrb	r0, [r5, #13]	@ zero_extendqisi2
 7911              	.LVL530:
3078:HANcoder_E407_TTA_CombineModel.c **** 
 7912              		.loc 1 3078 7 view .LVU2939
 7913 19b0 A97B     		ldrb	r1, [r5, #14]	@ zero_extendqisi2
 7914 19b2 61E5     		b	.L245
 7915              	.LVL531:
 7916              	.L432:
2425:HANcoder_E407_TTA_CombineModel.c **** 
 7917              		.loc 1 2425 43 view .LVU2940
 7918 19b4 95F88930 		ldrb	r3, [r5, #137]	@ zero_extendqisi2
2436:HANcoder_E407_TTA_CombineModel.c **** 
 7919              		.loc 1 2436 49 view .LVU2941
 7920 19b8 95F88A00 		ldrb	r0, [r5, #138]	@ zero_extendqisi2
 7921              	.LVL532:
2439:HANcoder_E407_TTA_CombineModel.c **** 
 7922              		.loc 1 2439 44 view .LVU2942
 7923 19bc 95F88B20 		ldrb	r2, [r5, #139]	@ zero_extendqisi2
2450:HANcoder_E407_TTA_CombineModel.c **** 
 7924              		.loc 1 2450 49 view .LVU2943
 7925 19c0 95F88C10 		ldrb	r1, [r5, #140]	@ zero_extendqisi2
2453:HANcoder_E407_TTA_CombineModel.c **** 
 7926              		.loc 1 2453 7 view .LVU2944
 7927 19c4 95F88D70 		ldrb	r7, [r5, #141]	@ zero_extendqisi2
 7928 19c8 FEF782BC 		b	.L253
 7929              	.LVL533:
 7930              	.L428:
2078:HANcoder_E407_TTA_CombineModel.c **** 
 7931              		.loc 1 2078 29 view .LVU2945
 7932 19cc 424B     		ldr	r3, .L477+12
2085:HANcoder_E407_TTA_CombineModel.c **** 
 7933              		.loc 1 2085 26 view .LVU2946
 7934 19ce 94F848A1 		ldrb	r10, [r4, #328]	@ zero_extendqisi2
2078:HANcoder_E407_TTA_CombineModel.c **** 
 7935              		.loc 1 2078 29 view .LVU2947
 7936 19d2 1B78     		ldrb	r3, [r3]	@ zero_extendqisi2
 7937 19d4 FEF7D4BB 		b	.L180
 7938              	.LVL534:
 7939              	.L454:
2795:HANcoder_E407_TTA_CombineModel.c **** 
 7940              		.loc 1 2795 35 view .LVU2948
 7941 19d8 424B     		ldr	r3, .L477+24
2809:HANcoder_E407_TTA_CombineModel.c **** 
 7942              		.loc 1 2809 67 view .LVU2949
 7943 19da EF7D     		ldrb	r7, [r5, #23]	@ zero_extendqisi2
2795:HANcoder_E407_TTA_CombineModel.c **** 
 7944              		.loc 1 2795 35 view .LVU2950
 7945 19dc 93F800C0 		ldrb	ip, [r3]	@ zero_extendqisi2
2812:HANcoder_E407_TTA_CombineModel.c **** 
 7946              		.loc 1 2812 24 view .LVU2951
 7947 19e0 297E     		ldrb	r1, [r5, #24]	@ zero_extendqisi2
2798:HANcoder_E407_TTA_CombineModel.c **** 
 7948              		.loc 1 2798 24 view .LVU2952
 7949 19e2 AB7D     		ldrb	r3, [r5, #22]	@ zero_extendqisi2
2823:HANcoder_E407_TTA_CombineModel.c **** 
 7950              		.loc 1 2823 68 view .LVU2953
 7951 19e4 687E     		ldrb	r0, [r5, #25]	@ zero_extendqisi2
 7952              	.LVL535:
2826:HANcoder_E407_TTA_CombineModel.c **** 
 7953              		.loc 1 2826 7 view .LVU2954
 7954 19e6 AA7E     		ldrb	r2, [r5, #26]	@ zero_extendqisi2
 7955 19e8 F4E4     		b	.L249
 7956              	.LVL536:
 7957              	.L450:
1946:HANcoder_E407_TTA_CombineModel.c ****       rtDWork.MMBS1_RX_MODE = true;
 7958              		.loc 1 1946 5 is_stmt 1 view .LVU2955
1993:HANcoder_E407_TTA_CombineModel.c ****       rtDWork.MMBS1_RX_MODE = false;
 7959              		.loc 1 1993 12 view .LVU2956
1993:HANcoder_E407_TTA_CombineModel.c ****       rtDWork.MMBS1_RX_MODE = false;
 7960              		.loc 1 1993 15 is_stmt 0 view .LVU2957
 7961 19ea 94F86A21 		ldrb	r2, [r4, #362]	@ zero_extendqisi2
 7962 19ee 002A     		cmp	r2, #0
 7963 19f0 3FF485AD 		beq	.L173
1994:HANcoder_E407_TTA_CombineModel.c ****     }
 7964              		.loc 1 1994 7 is_stmt 1 view .LVU2958
2000:HANcoder_E407_TTA_CombineModel.c **** 
 7965              		.loc 1 2000 25 is_stmt 0 view .LVU2959
 7966 19f4 B4EE667A 		vcmp.f32	s14, s13
1994:HANcoder_E407_TTA_CombineModel.c ****     }
 7967              		.loc 1 1994 29 view .LVU2960
 7968 19f8 0022     		movs	r2, #0
2000:HANcoder_E407_TTA_CombineModel.c **** 
 7969              		.loc 1 2000 25 view .LVU2961
 7970 19fa F1EE10FA 		vmrs	APSR_nzcv, FPSCR
1994:HANcoder_E407_TTA_CombineModel.c ****     }
 7971              		.loc 1 1994 29 view .LVU2962
 7972 19fe 84F86A21 		strb	r2, [r4, #362]
2000:HANcoder_E407_TTA_CombineModel.c **** 
 7973              		.loc 1 2000 5 is_stmt 1 view .LVU2963
2000:HANcoder_E407_TTA_CombineModel.c **** 
 7974              		.loc 1 2000 25 is_stmt 0 view .LVU2964
 7975 1a02 3EF481AB 		beq	.L170
 7976 1a06 7AE5     		b	.L173
 7977              	.LVL537:
 7978              	.L441:
1368:HANcoder_E407_TTA_CombineModel.c ****     }
 7979              		.loc 1 1368 7 is_stmt 1 view .LVU2965
1377:HANcoder_E407_TTA_CombineModel.c ****       rtAction = 1;
 7980              		.loc 1 1377 5 view .LVU2966
1377:HANcoder_E407_TTA_CombineModel.c ****       rtAction = 1;
 7981              		.loc 1 1377 8 is_stmt 0 view .LVU2967
 7982 1a08 3046     		mov	r0, r6
 7983 1a0a 3946     		mov	r1, r7
 7984 1a0c FFF7FEFF 		bl	__aeabi_dcmpgt
 7985              	.LVL538:
 7986 1a10 0028     		cmp	r0, #0
 7987 1a12 7EF44CAF 		bne	.L125
1380:HANcoder_E407_TTA_CombineModel.c ****     }
 7988              		.loc 1 1380 7 is_stmt 1 view .LVU2968
 7989              	.LVL539:
1392:HANcoder_E407_TTA_CombineModel.c ****       rtb_IntegralGain = 0.0;
 7990              		.loc 1 1392 5 view .LVU2969
1392:HANcoder_E407_TTA_CombineModel.c ****       rtb_IntegralGain = 0.0;
 7991              		.loc 1 1392 8 is_stmt 0 view .LVU2970
 7992 1a16 51EC190B 		vmov	r0, r1, d9
 7993 1a1a 0022     		movs	r2, #0
 7994 1a1c 0023     		movs	r3, #0
 7995 1a1e FFF7FEFF 		bl	__aeabi_dcmpeq
 7996              	.LVL540:
 7997 1a22 0028     		cmp	r0, #0
 7998 1a24 7EF443AF 		bne	.L125
 7999              	.LVL541:
 8000              	.L410:
1393:HANcoder_E407_TTA_CombineModel.c ****     }
 8001              		.loc 1 1393 24 view .LVU2971
 8002 1a28 0026     		movs	r6, #0
 8003              	.LVL542:
1393:HANcoder_E407_TTA_CombineModel.c ****     }
 8004              		.loc 1 1393 24 view .LVU2972
 8005 1a2a 0027     		movs	r7, #0
 8006 1a2c FEF73FBF 		b	.L125
 8007              	.LVL543:
 8008              	.L447:
3469:HANcoder_E407_TTA_CombineModel.c **** 
 8009              		.loc 1 3469 9 is_stmt 1 view .LVU2973
3469:HANcoder_E407_TTA_CombineModel.c **** 
 8010              		.loc 1 3469 22 is_stmt 0 view .LVU2974
 8011 1a30 002E     		cmp	r6, #0
 8012 1a32 0CBF     		ite	eq
 8013 1a34 3346     		moveq	r3, r6
 8014 1a36 8023     		movne	r3, #128
3469:HANcoder_E407_TTA_CombineModel.c **** 
 8015              		.loc 1 3469 20 view .LVU2975
 8016 1a38 85F82730 		strb	r3, [r5, #39]
3469:HANcoder_E407_TTA_CombineModel.c **** 
 8017              		.loc 1 3469 22 view .LVU2976
 8018 1a3c 08BF     		it	eq
 8019 1a3e 3246     		moveq	r2, r6
3488:HANcoder_E407_TTA_CombineModel.c **** 
 8020              		.loc 1 3488 62 view .LVU2977
 8021 1a40 95F82330 		ldrb	r3, [r5, #35]	@ zero_extendqisi2
3469:HANcoder_E407_TTA_CombineModel.c **** 
 8022              		.loc 1 3469 22 view .LVU2978
 8023 1a44 18BF     		it	ne
 8024 1a46 4FF48072 		movne	r2, #256
 8025 1a4a FFF716BA 		b	.L234
 8026              	.LVL544:
 8027              	.L448:
3509:HANcoder_E407_TTA_CombineModel.c **** 
 8028              		.loc 1 3509 9 is_stmt 1 view .LVU2979
3509:HANcoder_E407_TTA_CombineModel.c **** 
 8029              		.loc 1 3509 22 is_stmt 0 view .LVU2980
 8030 1a4e 0029     		cmp	r1, #0
 8031 1a50 0CBF     		ite	eq
 8032 1a52 0B46     		moveq	r3, r1
 8033 1a54 8023     		movne	r3, #128
3509:HANcoder_E407_TTA_CombineModel.c **** 
 8034              		.loc 1 3509 20 view .LVU2981
 8035 1a56 85F82830 		strb	r3, [r5, #40]
3528:HANcoder_E407_TTA_CombineModel.c **** 
 8036              		.loc 1 3528 62 view .LVU2982
 8037 1a5a 95F82400 		ldrb	r0, [r5, #36]	@ zero_extendqisi2
3509:HANcoder_E407_TTA_CombineModel.c **** 
 8038              		.loc 1 3509 22 view .LVU2983
 8039 1a5e 0CBF     		ite	eq
 8040 1a60 0B46     		moveq	r3, r1
 8041 1a62 4FF48073 		movne	r3, #256
 8042 1a66 FFF725BA 		b	.L239
 8043              	.LVL545:
 8044              	.L308:
3509:HANcoder_E407_TTA_CombineModel.c **** 
 8045              		.loc 1 3509 22 view .LVU2984
 8046 1a6a 8023     		movs	r3, #128
3477:HANcoder_E407_TTA_CombineModel.c **** 
 8047              		.loc 1 3477 20 view .LVU2985
 8048 1a6c 1A46     		mov	r2, r3
 8049 1a6e FFF7FFB9 		b	.L235
 8050              	.LVL546:
 8051              	.L310:
3477:HANcoder_E407_TTA_CombineModel.c **** 
 8052              		.loc 1 3477 20 view .LVU2986
 8053 1a72 8020     		movs	r0, #128
3517:HANcoder_E407_TTA_CombineModel.c **** 
 8054              		.loc 1 3517 22 view .LVU2987
 8055 1a74 0346     		mov	r3, r0
 8056 1a76 FFF718BA 		b	.L240
 8057              	.LVL547:
 8058              	.L276:
2492:HANcoder_E407_TTA_CombineModel.c ****     }
 8059              		.loc 1 2492 7 is_stmt 1 view .LVU2988
2492:HANcoder_E407_TTA_CombineModel.c ****     }
 8060              		.loc 1 2492 29 is_stmt 0 view .LVU2989
 8061 1a7a 0023     		movs	r3, #0
 8062 1a7c 84F86631 		strb	r3, [r4, #358]
2498:HANcoder_E407_TTA_CombineModel.c **** 
 8063              		.loc 1 2498 5 is_stmt 1 view .LVU2990
 8064 1a80 6FE5     		b	.L277
 8065              	.LVL548:
 8066              	.L293:
2498:HANcoder_E407_TTA_CombineModel.c **** 
 8067              		.loc 1 2498 5 is_stmt 0 view .LVU2991
 8068 1a82 0346     		mov	r3, r0
 8069 1a84 FEF76EBF 		b	.L131
 8070              	.LVL549:
 8071              	.L456:
2652:HANcoder_E407_TTA_CombineModel.c **** 
 8072              		.loc 1 2652 44 view .LVU2992
 8073 1a88 95F86C10 		ldrb	r1, [r5, #108]	@ zero_extendqisi2
2663:HANcoder_E407_TTA_CombineModel.c **** 
 8074              		.loc 1 2663 49 view .LVU2993
 8075 1a8c 95F86D00 		ldrb	r0, [r5, #109]	@ zero_extendqisi2
 8076              	.LVL550:
2666:HANcoder_E407_TTA_CombineModel.c **** 
 8077              		.loc 1 2666 43 view .LVU2994
 8078 1a90 95F86E30 		ldrb	r3, [r5, #110]	@ zero_extendqisi2
2677:HANcoder_E407_TTA_CombineModel.c **** 
 8079              		.loc 1 2677 49 view .LVU2995
 8080 1a94 95F86F60 		ldrb	r6, [r5, #111]	@ zero_extendqisi2
2680:HANcoder_E407_TTA_CombineModel.c **** 
 8081              		.loc 1 2680 7 view .LVU2996
 8082 1a98 95F87020 		ldrb	r2, [r5, #112]	@ zero_extendqisi2
 8083 1a9c 0BE6     		b	.L202
 8084              	.LVL551:
 8085              	.L427:
2028:HANcoder_E407_TTA_CombineModel.c ****       rtDWork.SSTM1_RX_MODE = true;
 8086              		.loc 1 2028 5 is_stmt 1 view .LVU2997
2060:HANcoder_E407_TTA_CombineModel.c ****       rtDWork.SSTM1_RX_MODE = false;
 8087              		.loc 1 2060 12 view .LVU2998
2060:HANcoder_E407_TTA_CombineModel.c ****       rtDWork.SSTM1_RX_MODE = false;
 8088              		.loc 1 2060 15 is_stmt 0 view .LVU2999
 8089 1a9e 94F86921 		ldrb	r2, [r4, #361]	@ zero_extendqisi2
 8090 1aa2 002A     		cmp	r2, #0
 8091 1aa4 3FF48BAA 		beq	.L178
2061:HANcoder_E407_TTA_CombineModel.c ****     }
 8092              		.loc 1 2061 7 is_stmt 1 view .LVU3000
2061:HANcoder_E407_TTA_CombineModel.c ****     }
 8093              		.loc 1 2061 29 is_stmt 0 view .LVU3001
 8094 1aa8 0022     		movs	r2, #0
 8095 1aaa 84F86921 		strb	r2, [r4, #361]
2067:HANcoder_E407_TTA_CombineModel.c **** 
 8096              		.loc 1 2067 5 is_stmt 1 view .LVU3002
 8097 1aae FFF786BA 		b	.L178
 8098              	.LVL552:
 8099              	.L457:
2095:HANcoder_E407_TTA_CombineModel.c ****       rtDWork.SYNC1_RX_MODE = true;
 8100              		.loc 1 2095 5 view .LVU3003
2155:HANcoder_E407_TTA_CombineModel.c ****       rtDWork.SYNC1_RX_MODE = false;
 8101              		.loc 1 2155 12 view .LVU3004
2155:HANcoder_E407_TTA_CombineModel.c ****       rtDWork.SYNC1_RX_MODE = false;
 8102              		.loc 1 2155 15 is_stmt 0 view .LVU3005
 8103 1ab2 94F86821 		ldrb	r2, [r4, #360]	@ zero_extendqisi2
 8104 1ab6 002A     		cmp	r2, #0
 8105 1ab8 3FF4A2AA 		beq	.L186
2156:HANcoder_E407_TTA_CombineModel.c ****     }
 8106              		.loc 1 2156 7 is_stmt 1 view .LVU3006
2156:HANcoder_E407_TTA_CombineModel.c ****     }
 8107              		.loc 1 2156 29 is_stmt 0 view .LVU3007
 8108 1abc 0022     		movs	r2, #0
 8109 1abe 84F86821 		strb	r2, [r4, #360]
2162:HANcoder_E407_TTA_CombineModel.c **** 
 8110              		.loc 1 2162 5 is_stmt 1 view .LVU3008
 8111 1ac2 FFF79DBA 		b	.L186
 8112              	.LVL553:
 8113              	.L294:
2162:HANcoder_E407_TTA_CombineModel.c **** 
 8114              		.loc 1 2162 5 is_stmt 0 view .LVU3009
 8115 1ac6 3346     		mov	r3, r6
 8116 1ac8 FEF74CBF 		b	.L131
 8117              	.L478:
 8118              		.align	2
 8119              	.L477:
 8120 1acc 00000000 		.word	.LANCHOR47
 8121 1ad0 00000000 		.word	.LANCHOR49
 8122 1ad4 08000000 		.word	.LANCHOR5+8
 8123 1ad8 00000000 		.word	.LANCHOR7
 8124 1adc 00000000 		.word	.LANCHOR23
 8125 1ae0 00000000 		.word	.LANCHOR68
 8126 1ae4 00000000 		.word	.LANCHOR65
 8127              		.cfi_endproc
 8128              	.LFE140:
 8130              		.section	.rodata.HANcoder_E407_TTA_CombineModel_initialize.str1.4,"aMS",%progbits,1
 8131              		.align	2
 8132              	.LC1:
 8133 0000 48414E63 		.ascii	"HANcoder_E407_TTA_CombineModel.c\000"
 8133      6F646572 
 8133      5F453430 
 8133      375F5454 
 8133      415F436F 
 8134              		.section	.text.HANcoder_E407_TTA_CombineModel_initialize,"ax",%progbits
 8135              		.align	1
 8136              		.p2align 2,,3
 8137              		.global	HANcoder_E407_TTA_CombineModel_initialize
 8138              		.syntax unified
 8139              		.thumb
 8140              		.thumb_func
 8142              	HANcoder_E407_TTA_CombineModel_initialize:
 8143              	.LFB141:
3585:HANcoder_E407_TTA_CombineModel.c **** 
3586:HANcoder_E407_TTA_CombineModel.c **** /* Model initialize function */
3587:HANcoder_E407_TTA_CombineModel.c **** void HANcoder_E407_TTA_CombineModel_initialize(void)
3588:HANcoder_E407_TTA_CombineModel.c **** {
 8144              		.loc 1 3588 1 is_stmt 1 view -0
 8145              		.cfi_startproc
 8146              		@ args = 0, pretend = 0, frame = 16
 8147              		@ frame_needed = 0, uses_anonymous_args = 0
 8148              	.LBB883:
3589:HANcoder_E407_TTA_CombineModel.c ****   {
3590:HANcoder_E407_TTA_CombineModel.c ****     g_dsp_internal_SlidingWindowAve *obj;
 8149              		.loc 1 3590 5 view .LVU3011
3591:HANcoder_E407_TTA_CombineModel.c ****     int32_T i;
 8150              		.loc 1 3591 5 view .LVU3012
 8151              	.LBB884:
3592:HANcoder_E407_TTA_CombineModel.c **** 
3593:HANcoder_E407_TTA_CombineModel.c ****     {
3594:HANcoder_E407_TTA_CombineModel.c ****       /* user code (Start function Header) */
3595:HANcoder_E407_TTA_CombineModel.c ****       uint8_t canResult1;
 8152              		.loc 1 3595 7 view .LVU3013
3596:HANcoder_E407_TTA_CombineModel.c ****       tCanFilter canFilter1;
 8153              		.loc 1 3596 7 view .LVU3014
3597:HANcoder_E407_TTA_CombineModel.c **** 
3598:HANcoder_E407_TTA_CombineModel.c ****       /* user code (Start function Body) */
3599:HANcoder_E407_TTA_CombineModel.c **** 
3600:HANcoder_E407_TTA_CombineModel.c ****       /* initialize the CAN driver. */
3601:HANcoder_E407_TTA_CombineModel.c ****       CanInit(64, 8);
 8154              		.loc 1 3601 7 view .LVU3015
 8155              	.LBE884:
 8156              	.LBE883:
3588:HANcoder_E407_TTA_CombineModel.c ****   {
 8157              		.loc 1 3588 1 is_stmt 0 view .LVU3016
 8158 0000 F0B5     		push	{r4, r5, r6, r7, lr}
 8159              		.cfi_def_cfa_offset 20
 8160              		.cfi_offset 4, -20
 8161              		.cfi_offset 5, -16
 8162              		.cfi_offset 6, -12
 8163              		.cfi_offset 7, -8
 8164              		.cfi_offset 14, -4
 8165              	.LBB925:
 8166              	.LBB919:
 8167              		.loc 1 3601 7 view .LVU3017
 8168 0002 0821     		movs	r1, #8
 8169              	.LBE919:
 8170              	.LBE925:
3588:HANcoder_E407_TTA_CombineModel.c ****   {
 8171              		.loc 1 3588 1 view .LVU3018
 8172 0004 85B0     		sub	sp, sp, #20
 8173              		.cfi_def_cfa_offset 40
 8174              	.LBB926:
 8175              	.LBB920:
 8176              		.loc 1 3601 7 view .LVU3019
 8177 0006 4020     		movs	r0, #64
 8178 0008 FFF7FEFF 		bl	CanInit
 8179              	.LVL554:
3602:HANcoder_E407_TTA_CombineModel.c **** 
3603:HANcoder_E407_TTA_CombineModel.c ****       /* initialize the CAN I/O module for channel 1 */
3604:HANcoder_E407_TTA_CombineModel.c ****       CanIoInit(0);
 8180              		.loc 1 3604 7 is_stmt 1 view .LVU3020
 8181 000c 0020     		movs	r0, #0
3605:HANcoder_E407_TTA_CombineModel.c **** 
3606:HANcoder_E407_TTA_CombineModel.c ****       /* initialize the timer module for output compare. */
3607:HANcoder_E407_TTA_CombineModel.c ****       TimeoutInitModule(TIMEOUT_MODULE_TIM4, 1000000);
3608:HANcoder_E407_TTA_CombineModel.c **** 
3609:HANcoder_E407_TTA_CombineModel.c ****       /* Start for If: '<S1>/If1' */
3610:HANcoder_E407_TTA_CombineModel.c ****       rtDWork.If1_ActiveSubsystem = -1;
 8182              		.loc 1 3610 35 is_stmt 0 view .LVU3021
 8183 000e 854C     		ldr	r4, .L488
3604:HANcoder_E407_TTA_CombineModel.c **** 
 8184              		.loc 1 3604 7 view .LVU3022
 8185 0010 FFF7FEFF 		bl	CanIoInit
 8186              	.LVL555:
3607:HANcoder_E407_TTA_CombineModel.c **** 
 8187              		.loc 1 3607 7 is_stmt 1 view .LVU3023
 8188 0014 8449     		ldr	r1, .L488+4
 8189 0016 0320     		movs	r0, #3
 8190 0018 FFF7FEFF 		bl	TimeoutInitModule
 8191              	.LVL556:
 8192              		.loc 1 3610 7 view .LVU3024
 8193              		.loc 1 3610 35 is_stmt 0 view .LVU3025
 8194 001c FF27     		movs	r7, #255
3611:HANcoder_E407_TTA_CombineModel.c **** 
3612:HANcoder_E407_TTA_CombineModel.c ****       /* Start for IfAction SubSystem: '<S1>/Setting ID' */
3613:HANcoder_E407_TTA_CombineModel.c ****       /* Start for M-S-Function: '<S368>/Level-2 M-file S-Function' */
3614:HANcoder_E407_TTA_CombineModel.c **** 
3615:HANcoder_E407_TTA_CombineModel.c ****       /* configure the digital input */
3616:HANcoder_E407_TTA_CombineModel.c ****       DiginConfigure(DIGIN_PORTG_PIN12, DIGIN_CFG_PULLDOWN);
 8195              		.loc 1 3616 7 view .LVU3026
 8196 001e 0221     		movs	r1, #2
 8197 0020 0E20     		movs	r0, #14
3610:HANcoder_E407_TTA_CombineModel.c **** 
 8198              		.loc 1 3610 35 view .LVU3027
 8199 0022 84F84571 		strb	r7, [r4, #325]
 8200              		.loc 1 3616 7 is_stmt 1 view .LVU3028
 8201 0026 FFF7FEFF 		bl	DiginConfigure
 8202              	.LVL557:
3617:HANcoder_E407_TTA_CombineModel.c **** 
3618:HANcoder_E407_TTA_CombineModel.c ****       /* Start for M-S-Function: '<S369>/Level-2 M-file S-Function' */
3619:HANcoder_E407_TTA_CombineModel.c **** 
3620:HANcoder_E407_TTA_CombineModel.c ****       /* configure the digital input */
3621:HANcoder_E407_TTA_CombineModel.c ****       DiginConfigure(DIGIN_PORTG_PIN15, DIGIN_CFG_PULLDOWN);
 8203              		.loc 1 3621 7 view .LVU3029
 8204 002a 0221     		movs	r1, #2
 8205 002c 0F20     		movs	r0, #15
 8206 002e FFF7FEFF 		bl	DiginConfigure
 8207              	.LVL558:
3622:HANcoder_E407_TTA_CombineModel.c **** 
3623:HANcoder_E407_TTA_CombineModel.c ****       /* Start for M-S-Function: '<S370>/Level-2 M-file S-Function' */
3624:HANcoder_E407_TTA_CombineModel.c **** 
3625:HANcoder_E407_TTA_CombineModel.c ****       /* configure the digital input */
3626:HANcoder_E407_TTA_CombineModel.c ****       DiginConfigure(DIGIN_PORTA_PIN4, DIGIN_CFG_PULLDOWN);
 8208              		.loc 1 3626 7 view .LVU3030
 8209 0032 0221     		movs	r1, #2
 8210 0034 1020     		movs	r0, #16
 8211 0036 FFF7FEFF 		bl	DiginConfigure
 8212              	.LVL559:
3627:HANcoder_E407_TTA_CombineModel.c **** 
3628:HANcoder_E407_TTA_CombineModel.c ****       /* End of Start for SubSystem: '<S1>/Setting ID' */
3629:HANcoder_E407_TTA_CombineModel.c **** 
3630:HANcoder_E407_TTA_CombineModel.c ****       /* register the callback handler */
3631:HANcoder_E407_TTA_CombineModel.c ****       TimeoutRegisterCompareEventCallback(TIMEOUT_TIM4_PIN_PD12,
 8213              		.loc 1 3631 7 view .LVU3031
 8214 003a 7C49     		ldr	r1, .L488+8
 8215 003c 0720     		movs	r0, #7
 8216 003e FFF7FEFF 		bl	TimeoutRegisterCompareEventCallback
 8217              	.LVL560:
3632:HANcoder_E407_TTA_CombineModel.c ****         TimeoutEventIRQ_TIMEOUT_TIM4_PIN_PD12);
3633:HANcoder_E407_TTA_CombineModel.c **** 
3634:HANcoder_E407_TTA_CombineModel.c ****       /* End of Start for S-Function (sfcn_timeout_event_irq): '<S4>/S-Function' */
3635:HANcoder_E407_TTA_CombineModel.c **** 
3636:HANcoder_E407_TTA_CombineModel.c ****       /* Start for Triggered SubSystem: '<S1>/IO execution' */
3637:HANcoder_E407_TTA_CombineModel.c ****       /* Start for MATLABSystem: '<S79>/Moving Average' */
3638:HANcoder_E407_TTA_CombineModel.c ****       rtDWork.obj.isInitialized = 0;
 8218              		.loc 1 3638 7 view .LVU3032
3639:HANcoder_E407_TTA_CombineModel.c ****       rtDWork.obj.NumChannels = -1;
 8219              		.loc 1 3639 7 view .LVU3033
3640:HANcoder_E407_TTA_CombineModel.c ****       rtDWork.obj.FrameLength = -1;
 8220              		.loc 1 3640 7 view .LVU3034
3641:HANcoder_E407_TTA_CombineModel.c ****       rtDWork.obj.matlabCodegenIsDeleted = false;
 8221              		.loc 1 3641 7 view .LVU3035
 8222              	.LBB885:
 8223              	.LBB886:
 912:HANcoder_E407_TTA_CombineModel.c ****   obj->_pobj0.isInitialized = 0;
 8224              		.loc 1 912 29 is_stmt 0 view .LVU3036
 8225 0042 2346     		mov	r3, r4
 8226              	.LBE886:
 8227              	.LBE885:
 8228              		.loc 1 3641 42 view .LVU3037
 8229 0044 0025     		movs	r5, #0
 8230              	.LBB890:
 8231              	.LBB887:
 912:HANcoder_E407_TTA_CombineModel.c ****   obj->_pobj0.isInitialized = 0;
 8232              		.loc 1 912 29 view .LVU3038
 8233 0046 43F8385F 		str	r5, [r3, #56]!
 910:HANcoder_E407_TTA_CombineModel.c ****   obj->FrameLength = 1;
 8234              		.loc 1 910 20 view .LVU3039
 8235 004a 0126     		movs	r6, #1
 911:HANcoder_E407_TTA_CombineModel.c ****   obj->_pobj0.isInitialized = 0;
 8236              		.loc 1 911 20 view .LVU3040
 8237 004c C4E90C66 		strd	r6, r6, [r4, #48]
 914:HANcoder_E407_TTA_CombineModel.c ****   obj->isSetupComplete = true;
 8238              		.loc 1 914 19 view .LVU3041
 8239 0050 E362     		str	r3, [r4, #44]
 8240              	.LBE887:
 8241              	.LBE890:
3642:HANcoder_E407_TTA_CombineModel.c ****       SystemCore_setup_l(&rtDWork.obj);
3643:HANcoder_E407_TTA_CombineModel.c **** 
3644:HANcoder_E407_TTA_CombineModel.c ****       /* Start for M-S-Function: '<S82>/Level-2 M-file S-Function' */
3645:HANcoder_E407_TTA_CombineModel.c **** 
3646:HANcoder_E407_TTA_CombineModel.c ****       /* configure the analog input for filtered inputs */
3647:HANcoder_E407_TTA_CombineModel.c ****       AninConfigure(ANIN_PORTF_PIN7,0);
 8242              		.loc 1 3647 7 view .LVU3042
 8243 0052 2946     		mov	r1, r5
 8244              	.LBB891:
 8245              	.LBB888:
 909:HANcoder_E407_TTA_CombineModel.c ****   obj->NumChannels = 1;
 8246              		.loc 1 909 22 view .LVU3043
 8247 0054 6660     		str	r6, [r4, #4]
 915:HANcoder_E407_TTA_CombineModel.c ****   obj->TunablePropsChanged = false;
 8248              		.loc 1 915 24 view .LVU3044
 8249 0056 2681     		strh	r6, [r4, #8]	@ movhi
 8250              	.LBE888:
 8251              	.LBE891:
 8252              		.loc 1 3647 7 view .LVU3045
 8253 0058 0420     		movs	r0, #4
3641:HANcoder_E407_TTA_CombineModel.c ****       SystemCore_setup_l(&rtDWork.obj);
 8254              		.loc 1 3641 42 view .LVU3046
 8255 005a 2570     		strb	r5, [r4]
3642:HANcoder_E407_TTA_CombineModel.c **** 
 8256              		.loc 1 3642 7 is_stmt 1 view .LVU3047
 8257              	.LVL561:
 8258              	.LBB892:
 8259              	.LBI885:
 906:HANcoder_E407_TTA_CombineModel.c **** {
 8260              		.loc 1 906 13 view .LVU3048
 8261              	.LBB889:
 908:HANcoder_E407_TTA_CombineModel.c ****   obj->isInitialized = 1;
 8262              		.loc 1 908 3 view .LVU3049
 909:HANcoder_E407_TTA_CombineModel.c ****   obj->NumChannels = 1;
 8263              		.loc 1 909 3 view .LVU3050
 910:HANcoder_E407_TTA_CombineModel.c ****   obj->FrameLength = 1;
 8264              		.loc 1 910 3 view .LVU3051
 912:HANcoder_E407_TTA_CombineModel.c ****   obj->_pobj0.isInitialized = 0;
 8265              		.loc 1 912 3 view .LVU3052
 913:HANcoder_E407_TTA_CombineModel.c ****   obj->pStatistic = &obj->_pobj0;
 8266              		.loc 1 913 3 view .LVU3053
 914:HANcoder_E407_TTA_CombineModel.c ****   obj->isSetupComplete = true;
 8267              		.loc 1 914 3 view .LVU3054
 915:HANcoder_E407_TTA_CombineModel.c ****   obj->TunablePropsChanged = false;
 8268              		.loc 1 915 3 view .LVU3055
 916:HANcoder_E407_TTA_CombineModel.c **** }
 8269              		.loc 1 916 3 view .LVU3056
 916:HANcoder_E407_TTA_CombineModel.c **** }
 8270              		.loc 1 916 3 is_stmt 0 view .LVU3057
 8271              	.LBE889:
 8272              	.LBE892:
 8273              		.loc 1 3647 7 is_stmt 1 view .LVU3058
 8274 005c FFF7FEFF 		bl	AninConfigure
 8275              	.LVL562:
3648:HANcoder_E407_TTA_CombineModel.c ****       MovingAverage_Start(&rtDWork.MovingAverage_p);
 8276              		.loc 1 3648 7 view .LVU3059
 8277              	.LBB893:
 8278              	.LBI893:
 338:HANcoder_E407_TTA_CombineModel.c **** {
 8279              		.loc 1 338 6 view .LVU3060
 8280              	.LBB894:
 341:HANcoder_E407_TTA_CombineModel.c ****   localDW->obj.NumChannels = -1;
 8281              		.loc 1 341 3 view .LVU3061
 342:HANcoder_E407_TTA_CombineModel.c ****   localDW->obj.FrameLength = -1;
 8282              		.loc 1 342 3 view .LVU3062
 343:HANcoder_E407_TTA_CombineModel.c ****   localDW->obj.matlabCodegenIsDeleted = false;
 8283              		.loc 1 343 3 view .LVU3063
 344:HANcoder_E407_TTA_CombineModel.c ****   localDW->objisempty = true;
 8284              		.loc 1 344 3 view .LVU3064
 8285              	.LBB895:
 8286              	.LBB896:
 311:HANcoder_E407_TTA_CombineModel.c ****   obj->isSetupComplete = true;
 8287              		.loc 1 311 19 is_stmt 0 view .LVU3065
 8288 0060 04F50673 		add	r3, r4, #536
 308:HANcoder_E407_TTA_CombineModel.c ****   obj->_pobj0.isInitialized = 0;
 8289              		.loc 1 308 20 view .LVU3066
 8290 0064 C4E98466 		strd	r6, r6, [r4, #528]
 8291              	.LBE896:
 8292              	.LBE895:
 345:HANcoder_E407_TTA_CombineModel.c ****   SystemCore_setup(&localDW->obj);
 8293              		.loc 1 345 23 view .LVU3067
 8294 0068 84F85062 		strb	r6, [r4, #592]
 8295              	.LBB900:
 8296              	.LBB897:
 311:HANcoder_E407_TTA_CombineModel.c ****   obj->isSetupComplete = true;
 8297              		.loc 1 311 19 view .LVU3068
 8298 006c C4F80C32 		str	r3, [r4, #524]
 8299              	.LBE897:
 8300              	.LBE900:
 8301              	.LBE894:
 8302              	.LBE893:
3649:HANcoder_E407_TTA_CombineModel.c **** 
3650:HANcoder_E407_TTA_CombineModel.c ****       /* Start for M-S-Function: '<S83>/Level-2 M-file S-Function' */
3651:HANcoder_E407_TTA_CombineModel.c **** 
3652:HANcoder_E407_TTA_CombineModel.c ****       /* configure the analog input for filtered inputs */
3653:HANcoder_E407_TTA_CombineModel.c ****       AninConfigure(ANIN_PORTF_PIN8,0);
 8303              		.loc 1 3653 7 view .LVU3069
 8304 0070 2946     		mov	r1, r5
 8305              	.LBB905:
 8306              	.LBB903:
 8307              	.LBB901:
 8308              	.LBB898:
 306:HANcoder_E407_TTA_CombineModel.c ****   obj->NumChannels = 1;
 8309              		.loc 1 306 22 view .LVU3070
 8310 0072 C4F8E461 		str	r6, [r4, #484]
 312:HANcoder_E407_TTA_CombineModel.c ****   obj->TunablePropsChanged = false;
 8311              		.loc 1 312 24 view .LVU3071
 8312 0076 A4F8E861 		strh	r6, [r4, #488]	@ movhi
 8313              	.LBE898:
 8314              	.LBE901:
 8315              	.LBE903:
 8316              	.LBE905:
 8317              		.loc 1 3653 7 view .LVU3072
 8318 007a 0520     		movs	r0, #5
 8319              	.LBB906:
 8320              	.LBB904:
 344:HANcoder_E407_TTA_CombineModel.c ****   localDW->objisempty = true;
 8321              		.loc 1 344 39 view .LVU3073
 8322 007c 84F8E051 		strb	r5, [r4, #480]
 345:HANcoder_E407_TTA_CombineModel.c ****   SystemCore_setup(&localDW->obj);
 8323              		.loc 1 345 3 is_stmt 1 view .LVU3074
 346:HANcoder_E407_TTA_CombineModel.c **** }
 8324              		.loc 1 346 3 view .LVU3075
 8325              	.LVL563:
 8326              	.LBB902:
 8327              	.LBI895:
 303:HANcoder_E407_TTA_CombineModel.c **** {
 8328              		.loc 1 303 13 view .LVU3076
 8329              	.LBB899:
 305:HANcoder_E407_TTA_CombineModel.c ****   obj->isInitialized = 1;
 8330              		.loc 1 305 3 view .LVU3077
 306:HANcoder_E407_TTA_CombineModel.c ****   obj->NumChannels = 1;
 8331              		.loc 1 306 3 view .LVU3078
 307:HANcoder_E407_TTA_CombineModel.c ****   obj->FrameLength = 1;
 8332              		.loc 1 307 3 view .LVU3079
 309:HANcoder_E407_TTA_CombineModel.c ****   obj->_pobj0.isInitialized = 0;
 8333              		.loc 1 309 3 view .LVU3080
 309:HANcoder_E407_TTA_CombineModel.c ****   obj->_pobj0.isInitialized = 0;
 8334              		.loc 1 309 29 is_stmt 0 view .LVU3081
 8335 0080 C4F81852 		str	r5, [r4, #536]
 310:HANcoder_E407_TTA_CombineModel.c ****   obj->pStatistic = &obj->_pobj0;
 8336              		.loc 1 310 3 is_stmt 1 view .LVU3082
 311:HANcoder_E407_TTA_CombineModel.c ****   obj->isSetupComplete = true;
 8337              		.loc 1 311 3 view .LVU3083
 312:HANcoder_E407_TTA_CombineModel.c ****   obj->TunablePropsChanged = false;
 8338              		.loc 1 312 3 view .LVU3084
 313:HANcoder_E407_TTA_CombineModel.c **** }
 8339              		.loc 1 313 3 view .LVU3085
 8340              	.LVL564:
 313:HANcoder_E407_TTA_CombineModel.c **** }
 8341              		.loc 1 313 3 is_stmt 0 view .LVU3086
 8342              	.LBE899:
 8343              	.LBE902:
 8344              	.LBE904:
 8345              	.LBE906:
 8346              		.loc 1 3653 7 is_stmt 1 view .LVU3087
 8347 0084 FFF7FEFF 		bl	AninConfigure
 8348              	.LVL565:
3654:HANcoder_E407_TTA_CombineModel.c ****       MovingAverage_Start(&rtDWork.MovingAverage1);
 8349              		.loc 1 3654 7 view .LVU3088
 8350              	.LBB907:
 8351              	.LBI907:
 338:HANcoder_E407_TTA_CombineModel.c **** {
 8352              		.loc 1 338 6 view .LVU3089
 8353              	.LBB908:
 341:HANcoder_E407_TTA_CombineModel.c ****   localDW->obj.NumChannels = -1;
 8354              		.loc 1 341 3 view .LVU3090
 342:HANcoder_E407_TTA_CombineModel.c ****   localDW->obj.FrameLength = -1;
 8355              		.loc 1 342 3 view .LVU3091
 343:HANcoder_E407_TTA_CombineModel.c ****   localDW->obj.matlabCodegenIsDeleted = false;
 8356              		.loc 1 343 3 view .LVU3092
 344:HANcoder_E407_TTA_CombineModel.c ****   localDW->objisempty = true;
 8357              		.loc 1 344 3 view .LVU3093
 8358              	.LBB909:
 8359              	.LBB910:
 311:HANcoder_E407_TTA_CombineModel.c ****   obj->isSetupComplete = true;
 8360              		.loc 1 311 19 is_stmt 0 view .LVU3094
 8361 0088 04F5D273 		add	r3, r4, #420
 8362 008c C4F89831 		str	r3, [r4, #408]
 308:HANcoder_E407_TTA_CombineModel.c ****   obj->_pobj0.isInitialized = 0;
 8363              		.loc 1 308 20 view .LVU3095
 8364 0090 C4E96766 		strd	r6, r6, [r4, #412]
 8365              	.LBE910:
 8366              	.LBE909:
 345:HANcoder_E407_TTA_CombineModel.c ****   SystemCore_setup(&localDW->obj);
 8367              		.loc 1 345 23 view .LVU3096
 8368 0094 84F8DC61 		strb	r6, [r4, #476]
 8369              	.LBE908:
 8370              	.LBE907:
3655:HANcoder_E407_TTA_CombineModel.c **** 
3656:HANcoder_E407_TTA_CombineModel.c ****       /* Start for M-S-Function: '<S80>/Level-2 M-file S-Function' */
3657:HANcoder_E407_TTA_CombineModel.c **** 
3658:HANcoder_E407_TTA_CombineModel.c ****       /* configure the digital input */
3659:HANcoder_E407_TTA_CombineModel.c ****       DiginConfigure(DIGIN_PORTA_PIN0, DIGIN_CFG_PULLDOWN);
 8371              		.loc 1 3659 7 view .LVU3097
 8372 0098 0221     		movs	r1, #2
 8373              	.LBB917:
 8374              	.LBB915:
 8375              	.LBB913:
 8376              	.LBB911:
 306:HANcoder_E407_TTA_CombineModel.c ****   obj->NumChannels = 1;
 8377              		.loc 1 306 22 view .LVU3098
 8378 009a C4F87061 		str	r6, [r4, #368]
 312:HANcoder_E407_TTA_CombineModel.c ****   obj->TunablePropsChanged = false;
 8379              		.loc 1 312 24 view .LVU3099
 8380 009e A4F87461 		strh	r6, [r4, #372]	@ movhi
 8381              	.LBE911:
 8382              	.LBE913:
 8383              	.LBE915:
 8384              	.LBE917:
 8385              		.loc 1 3659 7 view .LVU3100
 8386 00a2 4720     		movs	r0, #71
 8387              	.LBB918:
 8388              	.LBB916:
 344:HANcoder_E407_TTA_CombineModel.c ****   localDW->objisempty = true;
 8389              		.loc 1 344 39 view .LVU3101
 8390 00a4 84F86C51 		strb	r5, [r4, #364]
 345:HANcoder_E407_TTA_CombineModel.c ****   SystemCore_setup(&localDW->obj);
 8391              		.loc 1 345 3 is_stmt 1 view .LVU3102
 346:HANcoder_E407_TTA_CombineModel.c **** }
 8392              		.loc 1 346 3 view .LVU3103
 8393              	.LVL566:
 8394              	.LBB914:
 8395              	.LBI909:
 303:HANcoder_E407_TTA_CombineModel.c **** {
 8396              		.loc 1 303 13 view .LVU3104
 8397              	.LBB912:
 305:HANcoder_E407_TTA_CombineModel.c ****   obj->isInitialized = 1;
 8398              		.loc 1 305 3 view .LVU3105
 306:HANcoder_E407_TTA_CombineModel.c ****   obj->NumChannels = 1;
 8399              		.loc 1 306 3 view .LVU3106
 307:HANcoder_E407_TTA_CombineModel.c ****   obj->FrameLength = 1;
 8400              		.loc 1 307 3 view .LVU3107
 309:HANcoder_E407_TTA_CombineModel.c ****   obj->_pobj0.isInitialized = 0;
 8401              		.loc 1 309 3 view .LVU3108
 309:HANcoder_E407_TTA_CombineModel.c ****   obj->_pobj0.isInitialized = 0;
 8402              		.loc 1 309 29 is_stmt 0 view .LVU3109
 8403 00a8 C4F8A451 		str	r5, [r4, #420]
 310:HANcoder_E407_TTA_CombineModel.c ****   obj->pStatistic = &obj->_pobj0;
 8404              		.loc 1 310 3 is_stmt 1 view .LVU3110
 311:HANcoder_E407_TTA_CombineModel.c ****   obj->isSetupComplete = true;
 8405              		.loc 1 311 3 view .LVU3111
 312:HANcoder_E407_TTA_CombineModel.c ****   obj->TunablePropsChanged = false;
 8406              		.loc 1 312 3 view .LVU3112
 313:HANcoder_E407_TTA_CombineModel.c **** }
 8407              		.loc 1 313 3 view .LVU3113
 8408              	.LVL567:
 313:HANcoder_E407_TTA_CombineModel.c **** }
 8409              		.loc 1 313 3 is_stmt 0 view .LVU3114
 8410              	.LBE912:
 8411              	.LBE914:
 8412              	.LBE916:
 8413              	.LBE918:
 8414              		.loc 1 3659 7 is_stmt 1 view .LVU3115
 8415 00ac FFF7FEFF 		bl	DiginConfigure
 8416              	.LVL568:
3660:HANcoder_E407_TTA_CombineModel.c **** 
3661:HANcoder_E407_TTA_CombineModel.c ****       /* Start for M-S-Function: '<S81>/Level-2 M-file S-Function' */
3662:HANcoder_E407_TTA_CombineModel.c **** 
3663:HANcoder_E407_TTA_CombineModel.c ****       /* configure the quadrature encoder module */
3664:HANcoder_E407_TTA_CombineModel.c ****       QuadEncConfigure(QUADENC_TIM3_PA6_PB5, QUADENC_CFG_FLOATING);
 8417              		.loc 1 3664 7 view .LVU3116
 8418 00b0 3046     		mov	r0, r6
 8419 00b2 2946     		mov	r1, r5
 8420 00b4 FFF7FEFF 		bl	QuadEncConfigure
 8421              	.LVL569:
3665:HANcoder_E407_TTA_CombineModel.c **** 
3666:HANcoder_E407_TTA_CombineModel.c ****       /* Start for M-S-Function: '<S85>/Level-2 M-file S-Function' */
3667:HANcoder_E407_TTA_CombineModel.c **** 
3668:HANcoder_E407_TTA_CombineModel.c ****       /* configure the digital output */
3669:HANcoder_E407_TTA_CombineModel.c ****       DigoutConfigure(DIGOUT_PORTE_PIN5, DIGOUT_CFG_PUSHPULL);
 8422              		.loc 1 3669 7 view .LVU3117
 8423 00b8 3146     		mov	r1, r6
 8424 00ba 0A20     		movs	r0, #10
 8425 00bc FFF7FEFF 		bl	DigoutConfigure
 8426              	.LVL570:
3670:HANcoder_E407_TTA_CombineModel.c **** 
3671:HANcoder_E407_TTA_CombineModel.c ****       /* Start for M-S-Function: '<S86>/Level-2 M-file S-Function' */
3672:HANcoder_E407_TTA_CombineModel.c **** 
3673:HANcoder_E407_TTA_CombineModel.c ****       /* configure the digital output */
3674:HANcoder_E407_TTA_CombineModel.c ****       DigoutConfigure(DIGOUT_PORTE_PIN6, DIGOUT_CFG_PUSHPULL);
 8427              		.loc 1 3674 7 view .LVU3118
 8428 00c0 3146     		mov	r1, r6
 8429 00c2 0B20     		movs	r0, #11
 8430 00c4 FFF7FEFF 		bl	DigoutConfigure
 8431              	.LVL571:
3675:HANcoder_E407_TTA_CombineModel.c **** 
3676:HANcoder_E407_TTA_CombineModel.c ****       /* Start for M-S-Function: '<S87>/Level-2 M-file S-Function' */
3677:HANcoder_E407_TTA_CombineModel.c **** 
3678:HANcoder_E407_TTA_CombineModel.c ****       /* configure the digital output */
3679:HANcoder_E407_TTA_CombineModel.c ****       DigoutConfigure(DIGOUT_PORTC_PIN13, DIGOUT_CFG_PUSHPULL);
 8432              		.loc 1 3679 7 view .LVU3119
 8433 00c8 3146     		mov	r1, r6
 8434 00ca 4720     		movs	r0, #71
 8435 00cc FFF7FEFF 		bl	DigoutConfigure
 8436              	.LVL572:
3680:HANcoder_E407_TTA_CombineModel.c **** 
3681:HANcoder_E407_TTA_CombineModel.c ****       /* Start for S-Function (sfcn_pwmout_init): '<S89>/S-Function' */
3682:HANcoder_E407_TTA_CombineModel.c **** 
3683:HANcoder_E407_TTA_CombineModel.c ****       /* initialize the PWM module and register the callback handler */
3684:HANcoder_E407_TTA_CombineModel.c ****       PwmoutInit(PWMOUT_MODULE_TIM14, 10253, PWMOUT_EDGE_ALIGNMENT);
 8437              		.loc 1 3684 7 view .LVU3120
 8438 00d0 2A46     		mov	r2, r5
 8439 00d2 42F60D01 		movw	r1, #10253
 8440 00d6 0920     		movs	r0, #9
 8441 00d8 FFF7FEFF 		bl	PwmoutInit
 8442              	.LVL573:
3685:HANcoder_E407_TTA_CombineModel.c ****       PwmoutRegisterPeriodCompleteCallback(PWMOUT_MODULE_TIM14,
 8443              		.loc 1 3685 7 view .LVU3121
 8444 00dc 5449     		ldr	r1, .L488+12
3686:HANcoder_E407_TTA_CombineModel.c ****         PwmoutIRQ_PWMOUT_MODULE_TIM14);
3687:HANcoder_E407_TTA_CombineModel.c **** 
3688:HANcoder_E407_TTA_CombineModel.c ****       /* configures channel 1 */
3689:HANcoder_E407_TTA_CombineModel.c ****       PwmoutConfigure(PWMOUT_TIM14_PIN_PF9, PWMOUT_ACTIVE_HIGH,
3690:HANcoder_E407_TTA_CombineModel.c ****                       PWMOUT_INVERTED_OUTPUT_OFF);
3691:HANcoder_E407_TTA_CombineModel.c **** 
3692:HANcoder_E407_TTA_CombineModel.c ****       /* End of Start for SubSystem: '<S1>/IO execution' */
3693:HANcoder_E407_TTA_CombineModel.c **** 
3694:HANcoder_E407_TTA_CombineModel.c ****       /* Start for Enabled SubSystem: '<S1>/Message selector'
3695:HANcoder_E407_TTA_CombineModel.c ****        *
3696:HANcoder_E407_TTA_CombineModel.c ****        * Block description for '<S1>/Message selector':
3697:HANcoder_E407_TTA_CombineModel.c ****        *  Truck 1
3698:HANcoder_E407_TTA_CombineModel.c ****        */
3699:HANcoder_E407_TTA_CombineModel.c ****       /* Start for Enabled SubSystem: '<S10>/MMBS1_RX' */
3700:HANcoder_E407_TTA_CombineModel.c ****       /* Start for M-S-Function: '<S118>/S-Function' incorporates:
3701:HANcoder_E407_TTA_CombineModel.c ****        *  Constant: '<S10>/Constant12'
3702:HANcoder_E407_TTA_CombineModel.c ****        */
3703:HANcoder_E407_TTA_CombineModel.c **** 
3704:HANcoder_E407_TTA_CombineModel.c ****       /* register a CAN storage buffer for the message with this ID */
3705:HANcoder_E407_TTA_CombineModel.c ****       CanIoCreateMessageReceivedStorage(0, MMBS1_ID);
3706:HANcoder_E407_TTA_CombineModel.c **** 
3707:HANcoder_E407_TTA_CombineModel.c ****       /* End of Start for SubSystem: '<S10>/MMBS1_RX' */
3708:HANcoder_E407_TTA_CombineModel.c **** 
3709:HANcoder_E407_TTA_CombineModel.c ****       /* Start for Enabled SubSystem: '<S10>/SSTM1_RX' */
3710:HANcoder_E407_TTA_CombineModel.c ****       /* Start for M-S-Function: '<S121>/S-Function' incorporates:
3711:HANcoder_E407_TTA_CombineModel.c ****        *  Constant: '<S10>/Constant14'
3712:HANcoder_E407_TTA_CombineModel.c ****        */
3713:HANcoder_E407_TTA_CombineModel.c **** 
3714:HANcoder_E407_TTA_CombineModel.c ****       /* register a CAN storage buffer for the message with this ID */
3715:HANcoder_E407_TTA_CombineModel.c ****       CanIoCreateMessageReceivedStorage(0, SSTM1_ID);
3716:HANcoder_E407_TTA_CombineModel.c **** 
3717:HANcoder_E407_TTA_CombineModel.c ****       /* End of Start for SubSystem: '<S10>/SSTM1_RX' */
3718:HANcoder_E407_TTA_CombineModel.c **** 
3719:HANcoder_E407_TTA_CombineModel.c ****       /* Start for Enabled SubSystem: '<S10>/SYNC1_RX' */
3720:HANcoder_E407_TTA_CombineModel.c ****       /* Start for M-S-Function: '<S124>/S-Function' incorporates:
3721:HANcoder_E407_TTA_CombineModel.c ****        *  Constant: '<S10>/Constant10'
3722:HANcoder_E407_TTA_CombineModel.c ****        */
3723:HANcoder_E407_TTA_CombineModel.c **** 
3724:HANcoder_E407_TTA_CombineModel.c ****       /* register a CAN storage buffer for the message with this ID */
3725:HANcoder_E407_TTA_CombineModel.c ****       CanIoCreateMessageReceivedStorage(0, SYNC1_ID);
 8445              		.loc 1 3725 7 is_stmt 0 view .LVU3122
 8446 00de 554E     		ldr	r6, .L488+16
3685:HANcoder_E407_TTA_CombineModel.c ****       PwmoutRegisterPeriodCompleteCallback(PWMOUT_MODULE_TIM14,
 8447              		.loc 1 3685 7 view .LVU3123
 8448 00e0 0920     		movs	r0, #9
 8449 00e2 FFF7FEFF 		bl	PwmoutRegisterPeriodCompleteCallback
 8450              	.LVL574:
3689:HANcoder_E407_TTA_CombineModel.c ****                       PWMOUT_INVERTED_OUTPUT_OFF);
 8451              		.loc 1 3689 7 is_stmt 1 view .LVU3124
 8452 00e6 2A46     		mov	r2, r5
 8453 00e8 2946     		mov	r1, r5
 8454 00ea 1020     		movs	r0, #16
 8455 00ec FFF7FEFF 		bl	PwmoutConfigure
 8456              	.LVL575:
3705:HANcoder_E407_TTA_CombineModel.c **** 
 8457              		.loc 1 3705 7 view .LVU3125
 8458 00f0 514B     		ldr	r3, .L488+20
 8459 00f2 2846     		mov	r0, r5
 8460 00f4 1968     		ldr	r1, [r3]
 8461 00f6 FFF7FEFF 		bl	CanIoCreateMessageReceivedStorage
 8462              	.LVL576:
3715:HANcoder_E407_TTA_CombineModel.c **** 
 8463              		.loc 1 3715 7 view .LVU3126
 8464 00fa 504B     		ldr	r3, .L488+24
 8465 00fc 2846     		mov	r0, r5
 8466 00fe 1968     		ldr	r1, [r3]
 8467 0100 FFF7FEFF 		bl	CanIoCreateMessageReceivedStorage
 8468              	.LVL577:
 8469              		.loc 1 3725 7 view .LVU3127
 8470 0104 3168     		ldr	r1, [r6]
 8471 0106 2846     		mov	r0, r5
 8472 0108 FFF7FEFF 		bl	CanIoCreateMessageReceivedStorage
 8473              	.LVL578:
3726:HANcoder_E407_TTA_CombineModel.c **** 
3727:HANcoder_E407_TTA_CombineModel.c ****       /* End of Start for SubSystem: '<S10>/SYNC1_RX' */
3728:HANcoder_E407_TTA_CombineModel.c **** 
3729:HANcoder_E407_TTA_CombineModel.c ****       /* Start for Enabled SubSystem: '<S10>/TRCK1_ID2_RX' */
3730:HANcoder_E407_TTA_CombineModel.c ****       /* Start for M-S-Function: '<S130>/S-Function' incorporates:
3731:HANcoder_E407_TTA_CombineModel.c ****        *  Constant: '<S10>/Constant5'
3732:HANcoder_E407_TTA_CombineModel.c ****        */
3733:HANcoder_E407_TTA_CombineModel.c **** 
3734:HANcoder_E407_TTA_CombineModel.c ****       /* register a CAN storage buffer for the message with this ID */
3735:HANcoder_E407_TTA_CombineModel.c ****       CanIoCreateMessageReceivedStorage(0, TRCK1_ID2);
 8474              		.loc 1 3735 7 view .LVU3128
 8475 010c 4C4B     		ldr	r3, .L488+28
 8476 010e 2846     		mov	r0, r5
 8477 0110 1968     		ldr	r1, [r3]
 8478 0112 FFF7FEFF 		bl	CanIoCreateMessageReceivedStorage
 8479              	.LVL579:
3736:HANcoder_E407_TTA_CombineModel.c **** 
3737:HANcoder_E407_TTA_CombineModel.c ****       /* End of Start for SubSystem: '<S10>/TRCK1_ID2_RX' */
3738:HANcoder_E407_TTA_CombineModel.c **** 
3739:HANcoder_E407_TTA_CombineModel.c ****       /* Start for Enabled SubSystem: '<S10>/TRCK1_RX' */
3740:HANcoder_E407_TTA_CombineModel.c ****       /* Start for M-S-Function: '<S199>/S-Function' incorporates:
3741:HANcoder_E407_TTA_CombineModel.c ****        *  Constant: '<S10>/Constant3'
3742:HANcoder_E407_TTA_CombineModel.c ****        */
3743:HANcoder_E407_TTA_CombineModel.c **** 
3744:HANcoder_E407_TTA_CombineModel.c ****       /* register a CAN storage buffer for the message with this ID */
3745:HANcoder_E407_TTA_CombineModel.c ****       CanIoCreateMessageReceivedStorage(0, TRCK1_ID1);
 8480              		.loc 1 3745 7 view .LVU3129
 8481 0116 4B4B     		ldr	r3, .L488+32
 8482 0118 2846     		mov	r0, r5
 8483 011a 1968     		ldr	r1, [r3]
 8484 011c FFF7FEFF 		bl	CanIoCreateMessageReceivedStorage
 8485              	.LVL580:
3746:HANcoder_E407_TTA_CombineModel.c **** 
3747:HANcoder_E407_TTA_CombineModel.c ****       /* End of Start for SubSystem: '<S10>/TRCK1_RX' */
3748:HANcoder_E407_TTA_CombineModel.c **** 
3749:HANcoder_E407_TTA_CombineModel.c ****       /* Start for Enabled SubSystem: '<S10>/TRCK_ID3_RX' */
3750:HANcoder_E407_TTA_CombineModel.c ****       /* Start for M-S-Function: '<S246>/S-Function' incorporates:
3751:HANcoder_E407_TTA_CombineModel.c ****        *  Constant: '<S10>/Constant26'
3752:HANcoder_E407_TTA_CombineModel.c ****        */
3753:HANcoder_E407_TTA_CombineModel.c **** 
3754:HANcoder_E407_TTA_CombineModel.c ****       /* register a CAN storage buffer for the message with this ID */
3755:HANcoder_E407_TTA_CombineModel.c ****       CanIoCreateMessageReceivedStorage(0, TRCK1_ID3);
 8486              		.loc 1 3755 7 view .LVU3130
 8487 0120 494B     		ldr	r3, .L488+36
 8488 0122 2846     		mov	r0, r5
 8489 0124 1968     		ldr	r1, [r3]
 8490 0126 FFF7FEFF 		bl	CanIoCreateMessageReceivedStorage
 8491              	.LVL581:
3756:HANcoder_E407_TTA_CombineModel.c **** 
3757:HANcoder_E407_TTA_CombineModel.c ****       /* End of Start for SubSystem: '<S10>/TRCK_ID3_RX' */
3758:HANcoder_E407_TTA_CombineModel.c **** 
3759:HANcoder_E407_TTA_CombineModel.c ****       /* Start for Enabled SubSystem: '<S10>/TRLS_ID4_RX' */
3760:HANcoder_E407_TTA_CombineModel.c ****       /* Start for M-S-Function: '<S271>/S-Function' incorporates:
3761:HANcoder_E407_TTA_CombineModel.c ****        *  Constant: '<S10>/Constant8'
3762:HANcoder_E407_TTA_CombineModel.c ****        */
3763:HANcoder_E407_TTA_CombineModel.c **** 
3764:HANcoder_E407_TTA_CombineModel.c ****       /* register a CAN storage buffer for the message with this ID */
3765:HANcoder_E407_TTA_CombineModel.c ****       CanIoCreateMessageReceivedStorage(0, TRLS1_ID4);
 8492              		.loc 1 3765 7 view .LVU3131
 8493 012a 484B     		ldr	r3, .L488+40
 8494 012c 2846     		mov	r0, r5
 8495 012e 1968     		ldr	r1, [r3]
 8496 0130 FFF7FEFF 		bl	CanIoCreateMessageReceivedStorage
 8497              	.LVL582:
3766:HANcoder_E407_TTA_CombineModel.c **** 
3767:HANcoder_E407_TTA_CombineModel.c ****       /* End of Start for SubSystem: '<S10>/TRLS_ID4_RX' */
3768:HANcoder_E407_TTA_CombineModel.c **** 
3769:HANcoder_E407_TTA_CombineModel.c ****       /* Start for Enabled SubSystem: '<S10>/TRLS_ID5_RX' */
3770:HANcoder_E407_TTA_CombineModel.c ****       /* Start for M-S-Function: '<S318>/S-Function' incorporates:
3771:HANcoder_E407_TTA_CombineModel.c ****        *  Constant: '<S10>/Constant18'
3772:HANcoder_E407_TTA_CombineModel.c ****        */
3773:HANcoder_E407_TTA_CombineModel.c **** 
3774:HANcoder_E407_TTA_CombineModel.c ****       /* register a CAN storage buffer for the message with this ID */
3775:HANcoder_E407_TTA_CombineModel.c ****       CanIoCreateMessageReceivedStorage(0, TRLS1_ID5);
 8498              		.loc 1 3775 7 view .LVU3132
 8499 0134 464B     		ldr	r3, .L488+44
 8500 0136 2846     		mov	r0, r5
 8501 0138 1968     		ldr	r1, [r3]
 8502 013a FFF7FEFF 		bl	CanIoCreateMessageReceivedStorage
 8503              	.LVL583:
3776:HANcoder_E407_TTA_CombineModel.c **** 
3777:HANcoder_E407_TTA_CombineModel.c ****       /* End of Start for SubSystem: '<S10>/TRLS_ID5_RX' */
3778:HANcoder_E407_TTA_CombineModel.c ****       /* End of Start for SubSystem: '<S1>/Message selector' */
3779:HANcoder_E407_TTA_CombineModel.c **** 
3780:HANcoder_E407_TTA_CombineModel.c ****       /* Start for Enabled SubSystem: '<S12>/Subsystem2' */
3781:HANcoder_E407_TTA_CombineModel.c ****       /* Start for M-S-Function: '<S365>/S-Function' incorporates:
3782:HANcoder_E407_TTA_CombineModel.c ****        *  Constant: '<S364>/Constant10'
3783:HANcoder_E407_TTA_CombineModel.c ****        */
3784:HANcoder_E407_TTA_CombineModel.c **** 
3785:HANcoder_E407_TTA_CombineModel.c ****       /* register a CAN storage buffer for the message with this ID */
3786:HANcoder_E407_TTA_CombineModel.c ****       CanIoCreateMessageReceivedStorage(0, SYNC1_ID);
 8504              		.loc 1 3786 7 view .LVU3133
 8505 013e 3168     		ldr	r1, [r6]
 8506 0140 2846     		mov	r0, r5
 8507 0142 FFF7FEFF 		bl	CanIoCreateMessageReceivedStorage
 8508              	.LVL584:
3787:HANcoder_E407_TTA_CombineModel.c **** 
3788:HANcoder_E407_TTA_CombineModel.c ****       /* End of Start for SubSystem: '<S12>/Subsystem2' */
3789:HANcoder_E407_TTA_CombineModel.c **** 
3790:HANcoder_E407_TTA_CombineModel.c ****       /* Start for If: '<S1>/If' */
3791:HANcoder_E407_TTA_CombineModel.c ****       rtDWork.If_ActiveSubsystem = -1;
 8509              		.loc 1 3791 7 view .LVU3134
3792:HANcoder_E407_TTA_CombineModel.c **** 
3793:HANcoder_E407_TTA_CombineModel.c ****       /* Start for IfAction SubSystem: '<S1>/Triggered Subsystem' */
3794:HANcoder_E407_TTA_CombineModel.c ****       /* Start for M-S-Function: '<S374>/Level-2 M-file S-Function' */
3795:HANcoder_E407_TTA_CombineModel.c **** 
3796:HANcoder_E407_TTA_CombineModel.c ****       /* configure the digital input */
3797:HANcoder_E407_TTA_CombineModel.c ****       DiginConfigure(DIGIN_PORTA_PIN0, DIGIN_CFG_PULLDOWN);
 8510              		.loc 1 3797 7 is_stmt 0 view .LVU3135
 8511 0146 0221     		movs	r1, #2
 8512 0148 4720     		movs	r0, #71
3791:HANcoder_E407_TTA_CombineModel.c **** 
 8513              		.loc 1 3791 34 view .LVU3136
 8514 014a 84F84671 		strb	r7, [r4, #326]
 8515              		.loc 1 3797 7 is_stmt 1 view .LVU3137
 8516 014e FFF7FEFF 		bl	DiginConfigure
 8517              	.LVL585:
3798:HANcoder_E407_TTA_CombineModel.c **** 
3799:HANcoder_E407_TTA_CombineModel.c ****       /* End of Start for SubSystem: '<S1>/Triggered Subsystem' */
3800:HANcoder_E407_TTA_CombineModel.c **** 
3801:HANcoder_E407_TTA_CombineModel.c ****       /* Start for M-S-Function: '<S2>/Level-2 M-file S-Function' */
3802:HANcoder_E407_TTA_CombineModel.c **** 
3803:HANcoder_E407_TTA_CombineModel.c ****       /* configure the stack size for the task that executes the model */
3804:HANcoder_E407_TTA_CombineModel.c ****       AppCtrlTaskSetStackSize((configMINIMAL_STACK_SIZE*sizeof(portBASE_TYPE)) +
 8518              		.loc 1 3804 7 view .LVU3138
 8519 0152 4FF41970 		mov	r0, #612
 8520 0156 FFF7FEFF 		bl	AppCtrlTaskSetStackSize
 8521              	.LVL586:
3805:HANcoder_E407_TTA_CombineModel.c ****         100);
3806:HANcoder_E407_TTA_CombineModel.c **** 
3807:HANcoder_E407_TTA_CombineModel.c ****       /* configure the sample time of the model in microseconds */
3808:HANcoder_E407_TTA_CombineModel.c ****       AppCtrlTaskSetPeriod(1000);
 8522              		.loc 1 3808 7 view .LVU3139
 8523 015a 4FF47A70 		mov	r0, #1000
 8524 015e FFF7FEFF 		bl	AppCtrlTaskSetPeriod
 8525              	.LVL587:
3809:HANcoder_E407_TTA_CombineModel.c **** 
3810:HANcoder_E407_TTA_CombineModel.c ****       /* Run the ADC conversions ten times faster than the Simulink model */
3811:HANcoder_E407_TTA_CombineModel.c ****       ADCconversionTaskSetPeriod(1000/10);
 8526              		.loc 1 3811 7 view .LVU3140
 8527 0162 6420     		movs	r0, #100
 8528 0164 FFF7FEFF 		bl	ADCconversionTaskSetPeriod
 8529              	.LVL588:
3812:HANcoder_E407_TTA_CombineModel.c **** 
3813:HANcoder_E407_TTA_CombineModel.c ****       /* Start for M-S-Function: '<S3>/Level-2 M-file S-Function' */
3814:HANcoder_E407_TTA_CombineModel.c **** 
3815:HANcoder_E407_TTA_CombineModel.c ****       /* store the CAN controller's filter configuration */
3816:HANcoder_E407_TTA_CombineModel.c ****       canFilter1.mask = 0x00000000;
 8530              		.loc 1 3816 7 view .LVU3141
3817:HANcoder_E407_TTA_CombineModel.c ****       canFilter1.code = 0x00000000;
3818:HANcoder_E407_TTA_CombineModel.c ****       canFilter1.mode = CAN_FILTER_MODE_STDID_ONLY;
3819:HANcoder_E407_TTA_CombineModel.c **** 
3820:HANcoder_E407_TTA_CombineModel.c ****       /* connect and synchronize the CAN bus */
3821:HANcoder_E407_TTA_CombineModel.c ****       canResult1 = CanConnect(0, 1000000, &canFilter1);
 8531              		.loc 1 3821 20 is_stmt 0 view .LVU3142
 8532 0168 2F49     		ldr	r1, .L488+4
3818:HANcoder_E407_TTA_CombineModel.c **** 
 8533              		.loc 1 3818 23 view .LVU3143
 8534 016a 8DF80C50 		strb	r5, [sp, #12]
 8535              		.loc 1 3821 20 view .LVU3144
 8536 016e 01AA     		add	r2, sp, #4
 8537 0170 2846     		mov	r0, r5
3817:HANcoder_E407_TTA_CombineModel.c ****       canFilter1.code = 0x00000000;
 8538              		.loc 1 3817 23 view .LVU3145
 8539 0172 CDE90155 		strd	r5, r5, [sp, #4]
3818:HANcoder_E407_TTA_CombineModel.c **** 
 8540              		.loc 1 3818 7 is_stmt 1 view .LVU3146
 8541              		.loc 1 3821 7 view .LVU3147
 8542              		.loc 1 3821 20 is_stmt 0 view .LVU3148
 8543 0176 FFF7FEFF 		bl	CanConnect
 8544              	.LVL589:
3822:HANcoder_E407_TTA_CombineModel.c ****       configASSERT(canResult1 == TRUE);
 8545              		.loc 1 3822 7 is_stmt 1 view .LVU3149
 8546 017a 0128     		cmp	r0, #1
 8547 017c 04D0     		beq	.L480
 8548              		.loc 1 3822 7 discriminator 2 view .LVU3150
 8549 017e 3548     		ldr	r0, .L488+48
 8550              	.LVL590:
 8551              		.loc 1 3822 7 is_stmt 0 discriminator 2 view .LVU3151
 8552 0180 40F6EE61 		movw	r1, #3822
 8553 0184 FFF7FEFF 		bl	AssertFailure
 8554              	.LVL591:
 8555              	.L480:
3823:HANcoder_E407_TTA_CombineModel.c **** 
3824:HANcoder_E407_TTA_CombineModel.c ****       /* Start for S-Function (sfcn_timeout_init): '<S11>/S-Function' */
3825:HANcoder_E407_TTA_CombineModel.c **** 
3826:HANcoder_E407_TTA_CombineModel.c ****       /* register the free running counter overflow callback handler */
3827:HANcoder_E407_TTA_CombineModel.c ****       TimeoutRegisterOverflowCallback(TIMEOUT_MODULE_TIM4,
 8556              		.loc 1 3827 7 is_stmt 1 view .LVU3152
 8557 0188 3349     		ldr	r1, .L488+52
 8558 018a 0320     		movs	r0, #3
 8559 018c FFF7FEFF 		bl	TimeoutRegisterOverflowCallback
 8560              	.LVL592:
3828:HANcoder_E407_TTA_CombineModel.c ****         TimeoutOverflowIRQ_TIMEOUT_MODULE_TIM4);
3829:HANcoder_E407_TTA_CombineModel.c **** 
3830:HANcoder_E407_TTA_CombineModel.c ****       /* Start for M-S-Function: '<S17>/Level-2 M-file S-Function' */
3831:HANcoder_E407_TTA_CombineModel.c **** 
3832:HANcoder_E407_TTA_CombineModel.c ****       /* initialize the measurement and calibration interface */
3833:HANcoder_E407_TTA_CombineModel.c ****       MacUsbComInit();
 8561              		.loc 1 3833 7 view .LVU3153
 8562 0190 FFF7FEFF 		bl	MacUsbComInit
 8563              	.LVL593:
3834:HANcoder_E407_TTA_CombineModel.c ****       MacInit();
 8564              		.loc 1 3834 7 view .LVU3154
 8565 0194 FFF7FEFF 		bl	MacInit
 8566              	.LVL594:
 8567              	.LBE920:
3835:HANcoder_E407_TTA_CombineModel.c ****     }
3836:HANcoder_E407_TTA_CombineModel.c **** 
3837:HANcoder_E407_TTA_CombineModel.c ****     rtPrevZCSigState.EnabledSubsystem_Trig_ZCE = POS_ZCSIG;
 8568              		.loc 1 3837 5 view .LVU3155
3838:HANcoder_E407_TTA_CombineModel.c ****     rtPrevZCSigState.Controlexecution_Trig_ZCE = POS_ZCSIG;
 8569              		.loc 1 3838 5 view .LVU3156
3839:HANcoder_E407_TTA_CombineModel.c ****     rtPrevZCSigState.IOexecution_Trig_ZCE = POS_ZCSIG;
 8570              		.loc 1 3839 5 view .LVU3157
3840:HANcoder_E407_TTA_CombineModel.c ****     rtPrevZCSigState.Subsystem_Trig_ZCE_h = UNINITIALIZED_ZCSIG;
 8571              		.loc 1 3840 5 view .LVU3158
3841:HANcoder_E407_TTA_CombineModel.c ****     rtPrevZCSigState.SYNC1_TX_Trig_ZCE = POS_ZCSIG;
 8572              		.loc 1 3841 5 view .LVU3159
3842:HANcoder_E407_TTA_CombineModel.c ****     rtPrevZCSigState.TRCK1_TX_Trig_ZCE = POS_ZCSIG;
 8573              		.loc 1 3842 5 view .LVU3160
3843:HANcoder_E407_TTA_CombineModel.c ****     rtPrevZCSigState.TRLS_ID4_TX_Trig_ZCE = POS_ZCSIG;
 8574              		.loc 1 3843 5 view .LVU3161
3844:HANcoder_E407_TTA_CombineModel.c ****     rtPrevZCSigState.TRLS_ID5_TX_Trig_ZCE = POS_ZCSIG;
 8575              		.loc 1 3844 5 view .LVU3162
3845:HANcoder_E407_TTA_CombineModel.c ****     rtPrevZCSigState.Subsystem_Trig_ZCE = POS_ZCSIG;
 8576              		.loc 1 3845 5 view .LVU3163
3846:HANcoder_E407_TTA_CombineModel.c ****     rtPrevZCSigState.Subsystem1_Trig_ZCE = UNINITIALIZED_ZCSIG;
 8577              		.loc 1 3846 5 view .LVU3164
3847:HANcoder_E407_TTA_CombineModel.c ****     rtPrevZCSigState.TRCK1_ID3_TX.TRCK1_ID2_TX_Trig_ZCE = POS_ZCSIG;
 8578              		.loc 1 3847 5 view .LVU3165
3848:HANcoder_E407_TTA_CombineModel.c ****     rtPrevZCSigState.TRCK1_ID2_TX_f.TRCK1_ID2_TX_Trig_ZCE = POS_ZCSIG;
 8579              		.loc 1 3848 5 view .LVU3166
3849:HANcoder_E407_TTA_CombineModel.c ****     rtPrevZCSigState.SSTM1_TX.MMBS1_TX_Trig_ZCE = POS_ZCSIG;
 8580              		.loc 1 3849 5 view .LVU3167
3850:HANcoder_E407_TTA_CombineModel.c ****     rtPrevZCSigState.MMBS1_TX_a.MMBS1_TX_Trig_ZCE = POS_ZCSIG;
 8581              		.loc 1 3850 5 view .LVU3168
3846:HANcoder_E407_TTA_CombineModel.c ****     rtPrevZCSigState.TRCK1_ID3_TX.TRCK1_ID2_TX_Trig_ZCE = POS_ZCSIG;
 8582              		.loc 1 3846 42 is_stmt 0 view .LVU3169
 8583 0198 304B     		ldr	r3, .L488+56
3842:HANcoder_E407_TTA_CombineModel.c ****     rtPrevZCSigState.TRLS_ID4_TX_Trig_ZCE = POS_ZCSIG;
 8584              		.loc 1 3842 40 view .LVU3170
 8585 019a 314A     		ldr	r2, .L488+60
3851:HANcoder_E407_TTA_CombineModel.c **** 
3852:HANcoder_E407_TTA_CombineModel.c ****     /* ConstCode for Triggered SubSystem: '<S1>/IO execution' */
3853:HANcoder_E407_TTA_CombineModel.c ****     /* ConstCode for Constant: '<S77>/Constant' */
3854:HANcoder_E407_TTA_CombineModel.c ****     ioInit = true;
 8586              		.loc 1 3854 12 view .LVU3171
 8587 019c 3149     		ldr	r1, .L488+64
3840:HANcoder_E407_TTA_CombineModel.c ****     rtPrevZCSigState.SYNC1_TX_Trig_ZCE = POS_ZCSIG;
 8588              		.loc 1 3840 43 view .LVU3172
 8589 019e 9A60     		str	r2, [r3, #8]
3842:HANcoder_E407_TTA_CombineModel.c ****     rtPrevZCSigState.TRLS_ID4_TX_Trig_ZCE = POS_ZCSIG;
 8590              		.loc 1 3842 40 view .LVU3173
 8591 01a0 4FF00130 		mov	r0, #16843009
 8592 01a4 C3E90020 		strd	r2, r0, [r3]
3838:HANcoder_E407_TTA_CombineModel.c ****     rtPrevZCSigState.IOexecution_Trig_ZCE = POS_ZCSIG;
 8593              		.loc 1 3838 48 view .LVU3174
 8594 01a8 40F20110 		movw	r0, #257
 8595 01ac 9881     		strh	r0, [r3, #12]	@ movhi
 8596              		.loc 1 3854 5 is_stmt 1 view .LVU3175
 8597              		.loc 1 3854 12 is_stmt 0 view .LVU3176
 8598 01ae 0122     		movs	r2, #1
3855:HANcoder_E407_TTA_CombineModel.c **** 
3856:HANcoder_E407_TTA_CombineModel.c ****     /* End of ConstCode for SubSystem: '<S1>/IO execution' */
3857:HANcoder_E407_TTA_CombineModel.c **** 
3858:HANcoder_E407_TTA_CombineModel.c ****     /* SystemInitialize for Triggered SubSystem: '<S1>/IO execution' */
3859:HANcoder_E407_TTA_CombineModel.c ****     rtDWork.IOexecution_PREV_T[0] = rtM->Timing.clockTick0;
3860:HANcoder_E407_TTA_CombineModel.c ****     rtDWork.IOexecution_PREV_T[1] = rtM->Timing.clockTickH0;
3861:HANcoder_E407_TTA_CombineModel.c **** 
3862:HANcoder_E407_TTA_CombineModel.c ****     /* InitializeConditions for MATLABSystem: '<S79>/Moving Average' */
3863:HANcoder_E407_TTA_CombineModel.c ****     obj = rtDWork.obj.pStatistic;
 8599              		.loc 1 3863 9 view .LVU3177
 8600 01b0 E56A     		ldr	r5, [r4, #44]
3859:HANcoder_E407_TTA_CombineModel.c ****     rtDWork.IOexecution_PREV_T[1] = rtM->Timing.clockTickH0;
 8601              		.loc 1 3859 48 view .LVU3178
 8602 01b2 2D4B     		ldr	r3, .L488+68
3854:HANcoder_E407_TTA_CombineModel.c **** 
 8603              		.loc 1 3854 12 view .LVU3179
 8604 01b4 0A70     		strb	r2, [r1]
3859:HANcoder_E407_TTA_CombineModel.c ****     rtDWork.IOexecution_PREV_T[1] = rtM->Timing.clockTickH0;
 8605              		.loc 1 3859 5 is_stmt 1 view .LVU3180
3864:HANcoder_E407_TTA_CombineModel.c ****     if (obj->isInitialized == 1) {
 8606              		.loc 1 3864 8 is_stmt 0 view .LVU3181
 8607 01b6 2A68     		ldr	r2, [r5]
3860:HANcoder_E407_TTA_CombineModel.c **** 
 8608              		.loc 1 3860 35 view .LVU3182
 8609 01b8 D3E90013 		ldrd	r1, r3, [r3]
 8610              		.loc 1 3864 8 view .LVU3183
 8611 01bc 012A     		cmp	r2, #1
3860:HANcoder_E407_TTA_CombineModel.c **** 
 8612              		.loc 1 3860 35 view .LVU3184
 8613 01be C4E93013 		strd	r1, r3, [r4, #192]
3863:HANcoder_E407_TTA_CombineModel.c ****     if (obj->isInitialized == 1) {
 8614              		.loc 1 3863 5 is_stmt 1 view .LVU3185
 8615              	.LVL595:
 8616              		.loc 1 3864 5 view .LVU3186
 8617              		.loc 1 3864 8 is_stmt 0 view .LVU3187
 8618 01c2 0BD1     		bne	.L481
3865:HANcoder_E407_TTA_CombineModel.c ****       obj->pCumSum = 0.0F;
 8619              		.loc 1 3865 7 is_stmt 1 view .LVU3188
 8620              		.loc 1 3865 20 is_stmt 0 view .LVU3189
 8621 01c4 0026     		movs	r6, #0
3866:HANcoder_E407_TTA_CombineModel.c ****       for (i = 0; i < 9; i++) {
3867:HANcoder_E407_TTA_CombineModel.c ****         obj->pCumSumRev[i] = 0.0F;
 8622              		.loc 1 3867 28 view .LVU3190
 8623 01c6 2422     		movs	r2, #36
3865:HANcoder_E407_TTA_CombineModel.c ****       obj->pCumSum = 0.0F;
 8624              		.loc 1 3865 20 view .LVU3191
 8625 01c8 AE60     		str	r6, [r5, #8]	@ float
3866:HANcoder_E407_TTA_CombineModel.c ****       for (i = 0; i < 9; i++) {
 8626              		.loc 1 3866 7 is_stmt 1 view .LVU3192
 8627              	.LVL596:
3866:HANcoder_E407_TTA_CombineModel.c ****       for (i = 0; i < 9; i++) {
 8628              		.loc 1 3866 19 view .LVU3193
 8629              		.loc 1 3867 28 is_stmt 0 view .LVU3194
 8630 01ca 0021     		movs	r1, #0
 8631 01cc 05F10C00 		add	r0, r5, #12
 8632 01d0 FFF7FEFF 		bl	memset
 8633              	.LVL597:
3868:HANcoder_E407_TTA_CombineModel.c ****       }
3869:HANcoder_E407_TTA_CombineModel.c **** 
3870:HANcoder_E407_TTA_CombineModel.c ****       obj->pCumRevIndex = 1.0F;
 8634              		.loc 1 3870 7 is_stmt 1 view .LVU3195
 8635              		.loc 1 3870 25 is_stmt 0 view .LVU3196
 8636 01d4 4FF07E53 		mov	r3, #1065353216
 8637 01d8 2B63     		str	r3, [r5, #48]	@ float
3871:HANcoder_E407_TTA_CombineModel.c ****       obj->pModValueRev = 0.0F;
 8638              		.loc 1 3871 7 is_stmt 1 view .LVU3197
 8639              		.loc 1 3871 25 is_stmt 0 view .LVU3198
 8640 01da 6E63     		str	r6, [r5, #52]	@ float
 8641              	.L481:
3872:HANcoder_E407_TTA_CombineModel.c ****     }
3873:HANcoder_E407_TTA_CombineModel.c **** 
3874:HANcoder_E407_TTA_CombineModel.c ****     /* End of InitializeConditions for MATLABSystem: '<S79>/Moving Average' */
3875:HANcoder_E407_TTA_CombineModel.c ****     MovingAverage_Init(&rtDWork.MovingAverage_p);
 8642              		.loc 1 3875 5 is_stmt 1 view .LVU3199
 8643              	.LVL598:
 8644              	.LBB921:
 8645              	.LBI921:
 317:HANcoder_E407_TTA_CombineModel.c **** {
 8646              		.loc 1 317 6 view .LVU3200
 8647              	.LBB922:
 319:HANcoder_E407_TTA_CombineModel.c ****   int32_T i;
 8648              		.loc 1 319 3 view .LVU3201
 320:HANcoder_E407_TTA_CombineModel.c **** 
 8649              		.loc 1 320 3 view .LVU3202
 323:HANcoder_E407_TTA_CombineModel.c ****   if (obj->isInitialized == 1) {
 8650              		.loc 1 323 3 view .LVU3203
 323:HANcoder_E407_TTA_CombineModel.c ****   if (obj->isInitialized == 1) {
 8651              		.loc 1 323 7 is_stmt 0 view .LVU3204
 8652 01dc D4F80C52 		ldr	r5, [r4, #524]
 8653              	.LVL599:
 324:HANcoder_E407_TTA_CombineModel.c ****     obj->pCumSum = 0.0F;
 8654              		.loc 1 324 3 is_stmt 1 view .LVU3205
 324:HANcoder_E407_TTA_CombineModel.c ****     obj->pCumSum = 0.0F;
 8655              		.loc 1 324 6 is_stmt 0 view .LVU3206
 8656 01e0 2B68     		ldr	r3, [r5]
 8657 01e2 012B     		cmp	r3, #1
 8658 01e4 0BD1     		bne	.L482
 325:HANcoder_E407_TTA_CombineModel.c ****     for (i = 0; i < 9; i++) {
 8659              		.loc 1 325 5 is_stmt 1 view .LVU3207
 325:HANcoder_E407_TTA_CombineModel.c ****     for (i = 0; i < 9; i++) {
 8660              		.loc 1 325 18 is_stmt 0 view .LVU3208
 8661 01e6 0026     		movs	r6, #0
 327:HANcoder_E407_TTA_CombineModel.c ****     }
 8662              		.loc 1 327 26 view .LVU3209
 8663 01e8 2422     		movs	r2, #36
 325:HANcoder_E407_TTA_CombineModel.c ****     for (i = 0; i < 9; i++) {
 8664              		.loc 1 325 18 view .LVU3210
 8665 01ea AE60     		str	r6, [r5, #8]	@ float
 326:HANcoder_E407_TTA_CombineModel.c ****       obj->pCumSumRev[i] = 0.0F;
 8666              		.loc 1 326 5 is_stmt 1 view .LVU3211
 8667              	.LVL600:
 326:HANcoder_E407_TTA_CombineModel.c ****       obj->pCumSumRev[i] = 0.0F;
 8668              		.loc 1 326 17 view .LVU3212
 327:HANcoder_E407_TTA_CombineModel.c ****     }
 8669              		.loc 1 327 26 is_stmt 0 view .LVU3213
 8670 01ec 0021     		movs	r1, #0
 8671 01ee 05F10C00 		add	r0, r5, #12
 8672 01f2 FFF7FEFF 		bl	memset
 8673              	.LVL601:
 330:HANcoder_E407_TTA_CombineModel.c ****     obj->pModValueRev = 0.0F;
 8674              		.loc 1 330 5 is_stmt 1 view .LVU3214
 330:HANcoder_E407_TTA_CombineModel.c ****     obj->pModValueRev = 0.0F;
 8675              		.loc 1 330 23 is_stmt 0 view .LVU3215
 8676 01f6 4FF07E53 		mov	r3, #1065353216
 8677 01fa 2B63     		str	r3, [r5, #48]	@ float
 331:HANcoder_E407_TTA_CombineModel.c ****   }
 8678              		.loc 1 331 5 is_stmt 1 view .LVU3216
 331:HANcoder_E407_TTA_CombineModel.c ****   }
 8679              		.loc 1 331 23 is_stmt 0 view .LVU3217
 8680 01fc 6E63     		str	r6, [r5, #52]	@ float
 8681              	.L482:
 8682              	.LVL602:
 331:HANcoder_E407_TTA_CombineModel.c ****   }
 8683              		.loc 1 331 23 view .LVU3218
 8684              	.LBE922:
 8685              	.LBE921:
3876:HANcoder_E407_TTA_CombineModel.c ****     MovingAverage_Init(&rtDWork.MovingAverage1);
 8686              		.loc 1 3876 5 is_stmt 1 view .LVU3219
 8687              	.LBB923:
 8688              	.LBI923:
 317:HANcoder_E407_TTA_CombineModel.c **** {
 8689              		.loc 1 317 6 view .LVU3220
 8690              	.LBB924:
 319:HANcoder_E407_TTA_CombineModel.c ****   int32_T i;
 8691              		.loc 1 319 3 view .LVU3221
 320:HANcoder_E407_TTA_CombineModel.c **** 
 8692              		.loc 1 320 3 view .LVU3222
 323:HANcoder_E407_TTA_CombineModel.c ****   if (obj->isInitialized == 1) {
 8693              		.loc 1 323 3 view .LVU3223
 323:HANcoder_E407_TTA_CombineModel.c ****   if (obj->isInitialized == 1) {
 8694              		.loc 1 323 7 is_stmt 0 view .LVU3224
 8695 01fe D4F89841 		ldr	r4, [r4, #408]
 8696              	.LVL603:
 324:HANcoder_E407_TTA_CombineModel.c ****     obj->pCumSum = 0.0F;
 8697              		.loc 1 324 3 is_stmt 1 view .LVU3225
 324:HANcoder_E407_TTA_CombineModel.c ****     obj->pCumSum = 0.0F;
 8698              		.loc 1 324 6 is_stmt 0 view .LVU3226
 8699 0202 2368     		ldr	r3, [r4]
 8700 0204 012B     		cmp	r3, #1
 8701 0206 0BD1     		bne	.L479
 325:HANcoder_E407_TTA_CombineModel.c ****     for (i = 0; i < 9; i++) {
 8702              		.loc 1 325 5 is_stmt 1 view .LVU3227
 325:HANcoder_E407_TTA_CombineModel.c ****     for (i = 0; i < 9; i++) {
 8703              		.loc 1 325 18 is_stmt 0 view .LVU3228
 8704 0208 0025     		movs	r5, #0
 327:HANcoder_E407_TTA_CombineModel.c ****     }
 8705              		.loc 1 327 26 view .LVU3229
 8706 020a 2422     		movs	r2, #36
 325:HANcoder_E407_TTA_CombineModel.c ****     for (i = 0; i < 9; i++) {
 8707              		.loc 1 325 18 view .LVU3230
 8708 020c A560     		str	r5, [r4, #8]	@ float
 326:HANcoder_E407_TTA_CombineModel.c ****       obj->pCumSumRev[i] = 0.0F;
 8709              		.loc 1 326 5 is_stmt 1 view .LVU3231
 8710              	.LVL604:
 326:HANcoder_E407_TTA_CombineModel.c ****       obj->pCumSumRev[i] = 0.0F;
 8711              		.loc 1 326 17 view .LVU3232
 327:HANcoder_E407_TTA_CombineModel.c ****     }
 8712              		.loc 1 327 26 is_stmt 0 view .LVU3233
 8713 020e 0021     		movs	r1, #0
 8714 0210 04F10C00 		add	r0, r4, #12
 8715 0214 FFF7FEFF 		bl	memset
 8716              	.LVL605:
 330:HANcoder_E407_TTA_CombineModel.c ****     obj->pModValueRev = 0.0F;
 8717              		.loc 1 330 5 is_stmt 1 view .LVU3234
 330:HANcoder_E407_TTA_CombineModel.c ****     obj->pModValueRev = 0.0F;
 8718              		.loc 1 330 23 is_stmt 0 view .LVU3235
 8719 0218 4FF07E53 		mov	r3, #1065353216
 8720 021c 2363     		str	r3, [r4, #48]	@ float
 331:HANcoder_E407_TTA_CombineModel.c ****   }
 8721              		.loc 1 331 5 is_stmt 1 view .LVU3236
 331:HANcoder_E407_TTA_CombineModel.c ****   }
 8722              		.loc 1 331 23 is_stmt 0 view .LVU3237
 8723 021e 6563     		str	r5, [r4, #52]	@ float
 8724              	.LVL606:
 8725              	.L479:
 331:HANcoder_E407_TTA_CombineModel.c ****   }
 8726              		.loc 1 331 23 view .LVU3238
 8727              	.LBE924:
 8728              	.LBE923:
 8729              	.LBE926:
3877:HANcoder_E407_TTA_CombineModel.c **** 
3878:HANcoder_E407_TTA_CombineModel.c ****     /* End of SystemInitialize for SubSystem: '<S1>/IO execution' */
3879:HANcoder_E407_TTA_CombineModel.c ****   }
3880:HANcoder_E407_TTA_CombineModel.c **** }
 8730              		.loc 1 3880 1 view .LVU3239
 8731 0220 05B0     		add	sp, sp, #20
 8732              		.cfi_def_cfa_offset 20
 8733              		@ sp needed
 8734 0222 F0BD     		pop	{r4, r5, r6, r7, pc}
 8735              	.L489:
 8736              		.align	2
 8737              	.L488:
 8738 0224 00000000 		.word	.LANCHOR2
 8739 0228 40420F00 		.word	1000000
 8740 022c 00000000 		.word	TimeoutEventIRQ_TIMEOUT_TIM4_PIN_PD12
 8741 0230 00000000 		.word	PwmoutIRQ_PWMOUT_MODULE_TIM14
 8742 0234 00000000 		.word	.LANCHOR49
 8743 0238 00000000 		.word	.LANCHOR44
 8744 023c 00000000 		.word	.LANCHOR46
 8745 0240 00000000 		.word	.LANCHOR54
 8746 0244 00000000 		.word	.LANCHOR60
 8747 0248 00000000 		.word	.LANCHOR55
 8748 024c 00000000 		.word	.LANCHOR66
 8749 0250 00000000 		.word	.LANCHOR69
 8750 0254 00000000 		.word	.LC1
 8751 0258 00000000 		.word	TimeoutOverflowIRQ_TIMEOUT_MODULE_TIM4
 8752 025c 00000000 		.word	.LANCHOR5
 8753 0260 03010101 		.word	16843011
 8754 0264 00000000 		.word	.LANCHOR40
 8755 0268 00000000 		.word	.LANCHOR25
 8756              		.cfi_endproc
 8757              	.LFE141:
 8759              		.global	rtM
 8760              		.global	rtPrevZCSigState
 8761              		.global	rtDWork
 8762              		.global	rtB
 8763              		.global	slotTime
 8764              		.global	TRLS1_ID5
 8765              		.global	TRLS1_ID4
 8766              		.global	TRCK1_ID3
 8767              		.global	TRCK1_ID2
 8768              		.global	TRCK1_ID1
 8769              		.global	SYNC1_ID
 8770              		.global	SSTM1_ID
 8771              		.global	MMBS1_ID
 8772              		.global	propVal
 8773              		.global	matrixRows
 8774              		.global	intVal
 8775              		.global	desiredAngle
 8776              		.global	controlWidth
 8777              		.global	ResetPosition
 8778              		.global	ClockOn
 8779              		.global	canActive
 8780              		.global	ccw
 8781              		.global	cw
 8782              		.global	ioInit
 8783              		.global	motorFaultDetected
 8784              		.global	mf5
 8785              		.global	mf4
 8786              		.global	mf3
 8787              		.global	mf2
 8788              		.global	mf1
 8789              		.global	masterCanFail
 8790              		.global	potFaultDetected
 8791              		.global	boolCan
 8792              		.global	slotSelected
 8793              		.global	setSlotTime
 8794              		.global	local_ticks_interrupt
 8795              		.global	positionID4
 8796              		.global	positionID5
 8797              		.global	amounttrailers
 8798              		.global	buttonpress1
 8799              		.global	buttonpress2
 8800              		.global	SI_CPUload
 8801              		.global	mospeed
 8802              		.global	Gamma2
 8803              		.global	t1Angle
 8804              		.global	t2Angle
 8805              		.global	pot2
 8806              		.global	analogPot2
 8807              		.global	pot1
 8808              		.global	analogPot1
 8809              		.global	derivative
 8810              		.global	lastPot
 8811              		.global	potRaw
 8812              		.global	testCounter
 8813              		.global	pot22
 8814              		.global	pot21
 8815              		.global	pot12
 8816              		.global	pot11
 8817              		.global	pot32
 8818              		.global	pot31
 8819              		.global	motorPos
 8820              		.global	delta12K
 8821              		.global	derivativeMean
 8822              		.global	SI_FreeStack
 8823              		.global	SI_FreeHeap
 8824              		.global	control
 8825              		.global	position
 8826              		.global	steering
 8827              		.global	Gamma1
 8828              		.global	reqAngle
 8829              		.section	.bss.Gamma1,"aw",%nobits
 8830              		.align	3
 8831              		.set	.LANCHOR14,. + 0
 8834              	Gamma1:
 8835 0000 00000000 		.space	8
 8835      00000000 
 8836              		.section	.bss.Gamma2,"aw",%nobits
 8837              		.align	1
 8838              		.set	.LANCHOR13,. + 0
 8841              	Gamma2:
 8842 0000 0000     		.space	2
 8843              		.section	.bss.SI_CPUload,"aw",%nobits
 8844              		.set	.LANCHOR75,. + 0
 8847              	SI_CPUload:
 8848 0000 00       		.space	1
 8849              		.section	.bss.SI_FreeHeap,"aw",%nobits
 8850              		.align	2
 8851              		.set	.LANCHOR76,. + 0
 8854              	SI_FreeHeap:
 8855 0000 00000000 		.space	4
 8856              		.section	.bss.SI_FreeStack,"aw",%nobits
 8857              		.align	2
 8858              		.set	.LANCHOR77,. + 0
 8861              	SI_FreeStack:
 8862 0000 00000000 		.space	4
 8863              		.section	.bss.amounttrailers,"aw",%nobits
 8864              		.set	.LANCHOR71,. + 0
 8867              	amounttrailers:
 8868 0000 00       		.space	1
 8869              		.section	.bss.analogPot1,"aw",%nobits
 8870              		.align	1
 8871              		.set	.LANCHOR36,. + 0
 8874              	analogPot1:
 8875 0000 0000     		.space	2
 8876              		.section	.bss.analogPot2,"aw",%nobits
 8877              		.align	1
 8878              		.set	.LANCHOR38,. + 0
 8881              	analogPot2:
 8882 0000 0000     		.space	2
 8883              		.section	.bss.boolCan,"aw",%nobits
 8884              		.set	.LANCHOR50,. + 0
 8887              	boolCan:
 8888 0000 00       		.space	1
 8889              		.section	.bss.buttonpress1,"aw",%nobits
 8890              		.set	.LANCHOR65,. + 0
 8893              	buttonpress1:
 8894 0000 00       		.space	1
 8895              		.section	.bss.buttonpress2,"aw",%nobits
 8896              		.set	.LANCHOR68,. + 0
 8899              	buttonpress2:
 8900 0000 00       		.space	1
 8901              		.section	.bss.canActive,"aw",%nobits
 8902              		.set	.LANCHOR1,. + 0
 8905              	canActive:
 8906 0000 00       		.space	1
 8907              		.section	.bss.canRxData_0_MMBS1_ID,"aw",%nobits
 8908              		.align	2
 8909              		.set	.LANCHOR43,. + 0
 8912              	canRxData_0_MMBS1_ID:
 8913 0000 00000000 		.space	8
 8913      00000000 
 8914              		.section	.bss.canRxData_0_SSTM1_ID,"aw",%nobits
 8915              		.align	2
 8916              		.set	.LANCHOR45,. + 0
 8919              	canRxData_0_SSTM1_ID:
 8920 0000 00000000 		.space	8
 8920      00000000 
 8921              		.section	.bss.canRxData_0_SYNC1_ID,"aw",%nobits
 8922              		.align	2
 8923              		.set	.LANCHOR47,. + 0
 8926              	canRxData_0_SYNC1_ID:
 8927 0000 00000000 		.space	8
 8927      00000000 
 8928              		.section	.bss.canRxData_0_TRCK1_ID1,"aw",%nobits
 8929              		.align	2
 8930              		.set	.LANCHOR56,. + 0
 8933              	canRxData_0_TRCK1_ID1:
 8934 0000 00000000 		.space	8
 8934      00000000 
 8935              		.section	.bss.canRxData_0_TRCK1_ID2,"aw",%nobits
 8936              		.align	2
 8937              		.set	.LANCHOR51,. + 0
 8940              	canRxData_0_TRCK1_ID2:
 8941 0000 00000000 		.space	8
 8941      00000000 
 8942              		.section	.bss.canRxData_0_TRCK1_ID3,"aw",%nobits
 8943              		.align	2
 8944              		.set	.LANCHOR61,. + 0
 8947              	canRxData_0_TRCK1_ID3:
 8948 0000 00000000 		.space	8
 8948      00000000 
 8949              		.section	.bss.canRxData_0_TRLS1_ID4,"aw",%nobits
 8950              		.align	2
 8951              		.set	.LANCHOR64,. + 0
 8954              	canRxData_0_TRLS1_ID4:
 8955 0000 00000000 		.space	8
 8955      00000000 
 8956              		.section	.bss.canRxData_0_TRLS1_ID5,"aw",%nobits
 8957              		.align	2
 8958              		.set	.LANCHOR67,. + 0
 8961              	canRxData_0_TRLS1_ID5:
 8962 0000 00000000 		.space	8
 8962      00000000 
 8963              		.section	.bss.canTxData,"aw",%nobits
 8964              		.align	2
 8965              		.set	.LANCHOR8,. + 0
 8968              	canTxData:
 8969 0000 00000000 		.space	8
 8969      00000000 
 8970              		.section	.bss.ccw,"aw",%nobits
 8971              		.set	.LANCHOR23,. + 0
 8974              	ccw:
 8975 0000 00       		.space	1
 8976              		.section	.bss.control,"aw",%nobits
 8977              		.align	3
 8978              		.set	.LANCHOR18,. + 0
 8981              	control:
 8982 0000 00000000 		.space	8
 8982      00000000 
 8983              		.section	.bss.cw,"aw",%nobits
 8984              		.set	.LANCHOR22,. + 0
 8987              	cw:
 8988 0000 00       		.space	1
 8989              		.section	.bss.delta12K,"aw",%nobits
 8990              		.align	2
 8991              		.set	.LANCHOR15,. + 0
 8994              	delta12K:
 8995 0000 00000000 		.space	4
 8996              		.section	.bss.derivative,"aw",%nobits
 8997              		.align	1
 8998              		.set	.LANCHOR34,. + 0
 9001              	derivative:
 9002 0000 0000     		.space	2
 9003              		.section	.bss.derivativeMean,"aw",%nobits
 9004              		.align	2
 9005              		.set	.LANCHOR35,. + 0
 9008              	derivativeMean:
 9009 0000 00000000 		.space	4
 9010              		.section	.bss.ioInit,"aw",%nobits
 9011              		.set	.LANCHOR40,. + 0
 9014              	ioInit:
 9015 0000 00       		.space	1
 9016              		.section	.bss.lastPot,"aw",%nobits
 9017              		.align	1
 9018              		.set	.LANCHOR33,. + 0
 9021              	lastPot:
 9022 0000 0000     		.space	2
 9023              		.section	.bss.local_ticks_interrupt,"aw",%nobits
 9024              		.set	.LANCHOR3,. + 0
 9027              	local_ticks_interrupt:
 9028 0000 00       		.space	1
 9029              		.section	.bss.masterCanFail,"aw",%nobits
 9030              		.set	.LANCHOR78,. + 0
 9033              	masterCanFail:
 9034 0000 00       		.space	1
 9035              		.section	.bss.mf1,"aw",%nobits
 9036              		.set	.LANCHOR26,. + 0
 9039              	mf1:
 9040 0000 00       		.space	1
 9041              		.section	.bss.mf2,"aw",%nobits
 9042              		.set	.LANCHOR27,. + 0
 9045              	mf2:
 9046 0000 00       		.space	1
 9047              		.section	.bss.mf3,"aw",%nobits
 9048              		.set	.LANCHOR28,. + 0
 9051              	mf3:
 9052 0000 00       		.space	1
 9053              		.section	.bss.mf4,"aw",%nobits
 9054              		.set	.LANCHOR29,. + 0
 9057              	mf4:
 9058 0000 00       		.space	1
 9059              		.section	.bss.mf5,"aw",%nobits
 9060              		.set	.LANCHOR30,. + 0
 9063              	mf5:
 9064 0000 00       		.space	1
 9065              		.section	.bss.mospeed,"aw",%nobits
 9066              		.align	1
 9067              		.set	.LANCHOR20,. + 0
 9070              	mospeed:
 9071 0000 0000     		.space	2
 9072              		.section	.bss.motorFaultDetected,"aw",%nobits
 9073              		.set	.LANCHOR31,. + 0
 9076              	motorFaultDetected:
 9077 0000 00       		.space	1
 9078              		.section	.bss.motorPos,"aw",%nobits
 9079              		.align	2
 9080              		.set	.LANCHOR42,. + 0
 9083              	motorPos:
 9084 0000 00000000 		.space	4
 9085              		.section	.bss.position,"aw",%nobits
 9086              		.align	3
 9087              		.set	.LANCHOR17,. + 0
 9090              	position:
 9091 0000 00000000 		.space	8
 9091      00000000 
 9092              		.section	.bss.positionID4,"aw",%nobits
 9093              		.set	.LANCHOR74,. + 0
 9096              	positionID4:
 9097 0000 00       		.space	1
 9098              		.section	.bss.positionID5,"aw",%nobits
 9099              		.set	.LANCHOR73,. + 0
 9102              	positionID5:
 9103 0000 00       		.space	1
 9104              		.section	.bss.pot1,"aw",%nobits
 9105              		.align	1
 9106              		.set	.LANCHOR37,. + 0
 9109              	pot1:
 9110 0000 0000     		.space	2
 9111              		.section	.bss.pot11,"aw",%nobits
 9112              		.align	1
 9113              		.set	.LANCHOR57,. + 0
 9116              	pot11:
 9117 0000 0000     		.space	2
 9118              		.section	.bss.pot12,"aw",%nobits
 9119              		.align	1
 9120              		.set	.LANCHOR58,. + 0
 9123              	pot12:
 9124 0000 0000     		.space	2
 9125              		.section	.bss.pot2,"aw",%nobits
 9126              		.align	1
 9127              		.set	.LANCHOR39,. + 0
 9130              	pot2:
 9131 0000 0000     		.space	2
 9132              		.section	.bss.pot21,"aw",%nobits
 9133              		.align	1
 9134              		.set	.LANCHOR52,. + 0
 9137              	pot21:
 9138 0000 0000     		.space	2
 9139              		.section	.bss.pot22,"aw",%nobits
 9140              		.align	1
 9141              		.set	.LANCHOR53,. + 0
 9144              	pot22:
 9145 0000 0000     		.space	2
 9146              		.section	.bss.pot31,"aw",%nobits
 9147              		.align	1
 9148              		.set	.LANCHOR62,. + 0
 9151              	pot31:
 9152 0000 0000     		.space	2
 9153              		.section	.bss.pot32,"aw",%nobits
 9154              		.align	1
 9155              		.set	.LANCHOR63,. + 0
 9158              	pot32:
 9159 0000 0000     		.space	2
 9160              		.section	.bss.potFaultDetected,"aw",%nobits
 9161              		.set	.LANCHOR59,. + 0
 9164              	potFaultDetected:
 9165 0000 00       		.space	1
 9166              		.section	.bss.potRaw,"aw",%nobits
 9167              		.align	1
 9168              		.set	.LANCHOR32,. + 0
 9171              	potRaw:
 9172 0000 0000     		.space	2
 9173              		.section	.bss.reqAngle,"aw",%nobits
 9174              		.align	3
 9175              		.set	.LANCHOR10,. + 0
 9178              	reqAngle:
 9179 0000 00000000 		.space	8
 9179      00000000 
 9180              		.section	.bss.rtB,"aw",%nobits
 9181              		.align	2
 9182              		.set	.LANCHOR0,. + 0
 9185              	rtB:
 9186 0000 00000000 		.space	224
 9186      00000000 
 9186      00000000 
 9186      00000000 
 9186      00000000 
 9187              		.section	.bss.rtDWork,"aw",%nobits
 9188              		.align	3
 9189              		.set	.LANCHOR2,. + 0
 9192              	rtDWork:
 9193 0000 00000000 		.space	600
 9193      00000000 
 9193      00000000 
 9193      00000000 
 9193      00000000 
 9194              		.section	.bss.rtM_,"aw",%nobits
 9195              		.align	2
 9196              		.set	.LANCHOR25,. + 0
 9199              	rtM_:
 9200 0000 00000000 		.space	8
 9200      00000000 
 9201              		.section	.bss.rtPrevZCSigState,"aw",%nobits
 9202              		.align	2
 9203              		.set	.LANCHOR5,. + 0
 9206              	rtPrevZCSigState:
 9207 0000 00000000 		.space	14
 9207      00000000 
 9207      00000000 
 9207      0000
 9208              		.section	.bss.setSlotTime,"aw",%nobits
 9209              		.set	.LANCHOR4,. + 0
 9212              	setSlotTime:
 9213 0000 00       		.space	1
 9214              		.section	.bss.slotSelected,"aw",%nobits
 9215              		.set	.LANCHOR7,. + 0
 9218              	slotSelected:
 9219 0000 00       		.space	1
 9220              		.section	.bss.steering,"aw",%nobits
 9221              		.align	3
 9222              		.set	.LANCHOR16,. + 0
 9225              	steering:
 9226 0000 00000000 		.space	8
 9226      00000000 
 9227              		.section	.bss.t1Angle,"aw",%nobits
 9228              		.align	1
 9229              		.set	.LANCHOR12,. + 0
 9232              	t1Angle:
 9233 0000 0000     		.space	2
 9234              		.section	.bss.t2Angle,"aw",%nobits
 9235              		.align	1
 9236              		.set	.LANCHOR11,. + 0
 9239              	t2Angle:
 9240 0000 0000     		.space	2
 9241              		.section	.bss.testCounter,"aw",%nobits
 9242              		.align	1
 9243              		.set	.LANCHOR48,. + 0
 9246              	testCounter:
 9247 0000 0000     		.space	2
 9248              		.section	.data.ClockOn,"aw"
 9249              		.align	3
 9250              		.set	.LANCHOR9,. + 0
 9253              	ClockOn:
 9254 0000 00000000 		.space	8
 9254      00000000 
 9255              		.section	.data.MMBS1_ID,"aw"
 9256              		.align	2
 9257              		.set	.LANCHOR44,. + 0
 9260              	MMBS1_ID:
 9261 0000 0C000000 		.word	12
 9262              		.section	.data.ResetPosition,"aw"
 9263              		.align	3
 9264              		.set	.LANCHOR72,. + 0
 9267              	ResetPosition:
 9268 0000 00000000 		.space	8
 9268      00000000 
 9269              		.section	.data.SSTM1_ID,"aw"
 9270              		.align	2
 9271              		.set	.LANCHOR46,. + 0
 9274              	SSTM1_ID:
 9275 0000 0D000000 		.word	13
 9276              		.section	.data.SYNC1_ID,"aw"
 9277              		.align	2
 9278              		.set	.LANCHOR49,. + 0
 9281              	SYNC1_ID:
 9282 0000 0B000000 		.word	11
 9283              		.section	.data.TRCK1_ID1,"aw"
 9284              		.align	2
 9285              		.set	.LANCHOR60,. + 0
 9288              	TRCK1_ID1:
 9289 0000 0E000000 		.word	14
 9290              		.section	.data.TRCK1_ID2,"aw"
 9291              		.align	2
 9292              		.set	.LANCHOR54,. + 0
 9295              	TRCK1_ID2:
 9296 0000 1A000000 		.word	26
 9297              		.section	.data.TRCK1_ID3,"aw"
 9298              		.align	2
 9299              		.set	.LANCHOR55,. + 0
 9302              	TRCK1_ID3:
 9303 0000 25000000 		.word	37
 9304              		.section	.data.TRLS1_ID4,"aw"
 9305              		.align	2
 9306              		.set	.LANCHOR66,. + 0
 9309              	TRLS1_ID4:
 9310 0000 30000000 		.word	48
 9311              		.section	.data.TRLS1_ID5,"aw"
 9312              		.align	2
 9313              		.set	.LANCHOR69,. + 0
 9316              	TRLS1_ID5:
 9317 0000 3B000000 		.word	59
 9318              		.section	.data.controlWidth,"aw"
 9319              		.align	3
 9320              		.set	.LANCHOR21,. + 0
 9323              	controlWidth:
 9324 0000 00000000 		.word	0
 9325 0004 00000840 		.word	1074266112
 9326              		.section	.data.desiredAngle,"aw"
 9327              		.align	3
 9328              		.set	.LANCHOR41,. + 0
 9331              	desiredAngle:
 9332 0000 00000000 		.space	8
 9332      00000000 
 9333              		.section	.data.intVal,"aw"
 9334              		.align	3
 9335              		.set	.LANCHOR24,. + 0
 9338              	intVal:
 9339 0000 00000040 		.word	1073741824
 9340 0004 3333C33F 		.word	1069757235
 9341              		.section	.data.matrixRows,"aw"
 9342              		.align	3
 9343              		.set	.LANCHOR6,. + 0
 9346              	matrixRows:
 9347 0000 00000000 		.word	0
 9348 0004 00002440 		.word	1076101120
 9349              		.section	.data.propVal,"aw"
 9350              		.align	3
 9351              		.set	.LANCHOR19,. + 0
 9354              	propVal:
 9355 0000 00000000 		.word	0
 9356 0004 0000F03F 		.word	1072693248
 9357              		.section	.data.slotTime,"aw"
 9358              		.set	.LANCHOR70,. + 0
 9361              	slotTime:
 9362 0000 32       		.byte	50
 9363              		.section	.rodata.rtM,"a"
 9364              		.align	2
 9367              	rtM:
 9368 0000 00000000 		.word	rtM_
 9369              		.text
 9370              	.Letext0:
 9371              		.file 2 "rtwtypes.h"
 9372              		.file 3 "c:\\program files (x86)\\gnu arm embedded toolchain\\10 2021.10\\arm-none-eabi\\include\\
 9373              		.file 4 "c:\\program files (x86)\\gnu arm embedded toolchain\\10 2021.10\\arm-none-eabi\\include\\
 9374              		.file 5 "../blockset/rtw/STM32/inc/STM32_E407/timeout.h"
 9375              		.file 6 "../blockset/rtw/STM32/inc/STM32_E407/digin.h"
 9376              		.file 7 "../blockset/rtw/STM32/inc/STM32_E407/quadencoder.h"
 9377              		.file 8 "../blockset/rtw/STM32/inc/STM32_E407/digout.h"
 9378              		.file 9 "../blockset/rtw/STM32/inc/STM32_E407/pwmout.h"
 9379              		.file 10 "../blockset/rtw/STM32/inc/STM32_E407/can.h"
 9380              		.file 11 "c:\\program files (x86)\\gnu arm embedded toolchain\\10 2021.10\\lib\\gcc\\arm-none-eabi
 9381              		.file 12 "HANcoder_E407_TTA_CombineModel_types.h"
 9382              		.file 13 "HANcoder_E407_TTA_CombineModel.h"
 9383              		.file 14 "zero_crossing_types.h"
 9384              		.file 15 "../blockset/rtw/STM32/inc/STM32_E407/canio.h"
 9385              		.file 16 "../blockset/rtw/STM32/inc/STM32_E407/anin.h"
 9386              		.file 17 "../blockset/rtw/STM32/inc/app.h"
 9387              		.file 18 "../blockset/rtw/STM32/inc/STM32_E407/FreeRTOSConfig.h"
 9388              		.file 19 "../blockset/rtw/STM32/inc/STM32_E407/mac.h"
 9389              		.file 20 "../blockset/rtw/STM32/inc/os.h"
 9390              		.file 21 "c:\\program files (x86)\\gnu arm embedded toolchain\\10 2021.10\\arm-none-eabi\\include\
 9391              		.file 22 "<built-in>"
 9392              		.file 23 "rt_i32zcfcn.h"
DEFINED SYMBOLS
                            *ABS*:00000000 HANcoder_E407_TTA_CombineModel.c
C:\Users\ADMIN~1.CVA\AppData\Local\Temp\ccpmJwVm.s:19     .text.PwmoutIRQ_PWMOUT_MODULE_TIM14:00000000 $t
C:\Users\ADMIN~1.CVA\AppData\Local\Temp\ccpmJwVm.s:26     .text.PwmoutIRQ_PWMOUT_MODULE_TIM14:00000000 PwmoutIRQ_PWMOUT_MODULE_TIM14
C:\Users\ADMIN~1.CVA\AppData\Local\Temp\ccpmJwVm.s:41     .text.TimeoutEventIRQ_TIMEOUT_TIM4_PIN_PD12:00000000 $t
C:\Users\ADMIN~1.CVA\AppData\Local\Temp\ccpmJwVm.s:48     .text.TimeoutEventIRQ_TIMEOUT_TIM4_PIN_PD12:00000000 TimeoutEventIRQ_TIMEOUT_TIM4_PIN_PD12
C:\Users\ADMIN~1.CVA\AppData\Local\Temp\ccpmJwVm.s:195    .text.TimeoutEventIRQ_TIMEOUT_TIM4_PIN_PD12:00000090 $d
C:\Users\ADMIN~1.CVA\AppData\Local\Temp\ccpmJwVm.s:208    .text.TimeoutOverflowIRQ_TIMEOUT_MODULE_TIM4:00000000 $t
C:\Users\ADMIN~1.CVA\AppData\Local\Temp\ccpmJwVm.s:215    .text.TimeoutOverflowIRQ_TIMEOUT_MODULE_TIM4:00000000 TimeoutOverflowIRQ_TIMEOUT_MODULE_TIM4
C:\Users\ADMIN~1.CVA\AppData\Local\Temp\ccpmJwVm.s:226    .text.ByteSwap_x:00000000 $t
C:\Users\ADMIN~1.CVA\AppData\Local\Temp\ccpmJwVm.s:233    .text.ByteSwap_x:00000000 ByteSwap_x
C:\Users\ADMIN~1.CVA\AppData\Local\Temp\ccpmJwVm.s:311    .text.MovingAverage_Init:00000000 $t
C:\Users\ADMIN~1.CVA\AppData\Local\Temp\ccpmJwVm.s:318    .text.MovingAverage_Init:00000000 MovingAverage_Init
C:\Users\ADMIN~1.CVA\AppData\Local\Temp\ccpmJwVm.s:378    .text.MovingAverage_Start:00000000 $t
C:\Users\ADMIN~1.CVA\AppData\Local\Temp\ccpmJwVm.s:385    .text.MovingAverage_Start:00000000 MovingAverage_Start
C:\Users\ADMIN~1.CVA\AppData\Local\Temp\ccpmJwVm.s:450    .text.MovingAverage:00000000 $t
C:\Users\ADMIN~1.CVA\AppData\Local\Temp\ccpmJwVm.s:457    .text.MovingAverage:00000000 MovingAverage
C:\Users\ADMIN~1.CVA\AppData\Local\Temp\ccpmJwVm.s:790    .text.MovingAverage:000001b8 $d
C:\Users\ADMIN~1.CVA\AppData\Local\Temp\ccpmJwVm.s:795    .text.EnabledSubsystem:00000000 $t
C:\Users\ADMIN~1.CVA\AppData\Local\Temp\ccpmJwVm.s:802    .text.EnabledSubsystem:00000000 EnabledSubsystem
C:\Users\ADMIN~1.CVA\AppData\Local\Temp\ccpmJwVm.s:854    .text.MMBS1_TX:00000000 $t
C:\Users\ADMIN~1.CVA\AppData\Local\Temp\ccpmJwVm.s:861    .text.MMBS1_TX:00000000 MMBS1_TX
C:\Users\ADMIN~1.CVA\AppData\Local\Temp\ccpmJwVm.s:915    .text.MMBS1_TX:00000024 $d
C:\Users\ADMIN~1.CVA\AppData\Local\Temp\ccpmJwVm.s:920    .text.BitShift:00000000 $t
C:\Users\ADMIN~1.CVA\AppData\Local\Temp\ccpmJwVm.s:927    .text.BitShift:00000000 BitShift
C:\Users\ADMIN~1.CVA\AppData\Local\Temp\ccpmJwVm.s:947    .text.BitShift_g:00000000 $t
C:\Users\ADMIN~1.CVA\AppData\Local\Temp\ccpmJwVm.s:954    .text.BitShift_g:00000000 BitShift_g
C:\Users\ADMIN~1.CVA\AppData\Local\Temp\ccpmJwVm.s:974    .text.BitShift1:00000000 $t
C:\Users\ADMIN~1.CVA\AppData\Local\Temp\ccpmJwVm.s:981    .text.BitShift1:00000000 BitShift1
C:\Users\ADMIN~1.CVA\AppData\Local\Temp\ccpmJwVm.s:1001   .text.BitShift2:00000000 $t
C:\Users\ADMIN~1.CVA\AppData\Local\Temp\ccpmJwVm.s:1008   .text.BitShift2:00000000 BitShift2
C:\Users\ADMIN~1.CVA\AppData\Local\Temp\ccpmJwVm.s:1028   .text.BitShift3:00000000 $t
C:\Users\ADMIN~1.CVA\AppData\Local\Temp\ccpmJwVm.s:1035   .text.BitShift3:00000000 BitShift3
C:\Users\ADMIN~1.CVA\AppData\Local\Temp\ccpmJwVm.s:1055   .text.BitShift4:00000000 $t
C:\Users\ADMIN~1.CVA\AppData\Local\Temp\ccpmJwVm.s:1062   .text.BitShift4:00000000 BitShift4
C:\Users\ADMIN~1.CVA\AppData\Local\Temp\ccpmJwVm.s:1082   .text.BitShift5:00000000 $t
C:\Users\ADMIN~1.CVA\AppData\Local\Temp\ccpmJwVm.s:1089   .text.BitShift5:00000000 BitShift5
C:\Users\ADMIN~1.CVA\AppData\Local\Temp\ccpmJwVm.s:1109   .text.BitShift6:00000000 $t
C:\Users\ADMIN~1.CVA\AppData\Local\Temp\ccpmJwVm.s:1116   .text.BitShift6:00000000 BitShift6
C:\Users\ADMIN~1.CVA\AppData\Local\Temp\ccpmJwVm.s:1136   .text.BitShift_gy:00000000 $t
C:\Users\ADMIN~1.CVA\AppData\Local\Temp\ccpmJwVm.s:1143   .text.BitShift_gy:00000000 BitShift_gy
C:\Users\ADMIN~1.CVA\AppData\Local\Temp\ccpmJwVm.s:1163   .text.BitShift1_b:00000000 $t
C:\Users\ADMIN~1.CVA\AppData\Local\Temp\ccpmJwVm.s:1170   .text.BitShift1_b:00000000 BitShift1_b
C:\Users\ADMIN~1.CVA\AppData\Local\Temp\ccpmJwVm.s:1190   .text.BitShift2_p:00000000 $t
C:\Users\ADMIN~1.CVA\AppData\Local\Temp\ccpmJwVm.s:1197   .text.BitShift2_p:00000000 BitShift2_p
C:\Users\ADMIN~1.CVA\AppData\Local\Temp\ccpmJwVm.s:1217   .text.BitShift3_l:00000000 $t
C:\Users\ADMIN~1.CVA\AppData\Local\Temp\ccpmJwVm.s:1224   .text.BitShift3_l:00000000 BitShift3_l
C:\Users\ADMIN~1.CVA\AppData\Local\Temp\ccpmJwVm.s:1244   .text.BitShift4_g:00000000 $t
C:\Users\ADMIN~1.CVA\AppData\Local\Temp\ccpmJwVm.s:1251   .text.BitShift4_g:00000000 BitShift4_g
C:\Users\ADMIN~1.CVA\AppData\Local\Temp\ccpmJwVm.s:1271   .text.BitShift5_n:00000000 $t
C:\Users\ADMIN~1.CVA\AppData\Local\Temp\ccpmJwVm.s:1278   .text.BitShift5_n:00000000 BitShift5_n
C:\Users\ADMIN~1.CVA\AppData\Local\Temp\ccpmJwVm.s:1298   .text.BitShift6_d:00000000 $t
C:\Users\ADMIN~1.CVA\AppData\Local\Temp\ccpmJwVm.s:1305   .text.BitShift6_d:00000000 BitShift6_d
C:\Users\ADMIN~1.CVA\AppData\Local\Temp\ccpmJwVm.s:1325   .text.BitShift_o:00000000 $t
C:\Users\ADMIN~1.CVA\AppData\Local\Temp\ccpmJwVm.s:1332   .text.BitShift_o:00000000 BitShift_o
C:\Users\ADMIN~1.CVA\AppData\Local\Temp\ccpmJwVm.s:1352   .text.TRCK1_ID2_TX:00000000 $t
C:\Users\ADMIN~1.CVA\AppData\Local\Temp\ccpmJwVm.s:1359   .text.TRCK1_ID2_TX:00000000 TRCK1_ID2_TX
C:\Users\ADMIN~1.CVA\AppData\Local\Temp\ccpmJwVm.s:1666   .text.TRCK1_ID2_TX:000000ec $d
C:\Users\ADMIN~1.CVA\AppData\Local\Temp\ccpmJwVm.s:1684   .rodata.HANcoder_E407_TTA_CombineModel_step.str1.4:00000000 $d
C:\Users\ADMIN~1.CVA\AppData\Local\Temp\ccpmJwVm.s:1688   .text.HANcoder_E407_TTA_CombineModel_step:00000000 $t
C:\Users\ADMIN~1.CVA\AppData\Local\Temp\ccpmJwVm.s:1695   .text.HANcoder_E407_TTA_CombineModel_step:00000000 HANcoder_E407_TTA_CombineModel_step
C:\Users\ADMIN~1.CVA\AppData\Local\Temp\ccpmJwVm.s:2612   .text.HANcoder_E407_TTA_CombineModel_step:0000031c $d
C:\Users\ADMIN~1.CVA\AppData\Local\Temp\ccpmJwVm.s:2641   .text.HANcoder_E407_TTA_CombineModel_step:0000037c $t
C:\Users\ADMIN~1.CVA\AppData\Local\Temp\ccpmJwVm.s:2849   .text.HANcoder_E407_TTA_CombineModel_step:00000488 $d
C:\Users\ADMIN~1.CVA\AppData\Local\Temp\ccpmJwVm.s:2860   .text.HANcoder_E407_TTA_CombineModel_step:000004a0 $t
C:\Users\ADMIN~1.CVA\AppData\Local\Temp\ccpmJwVm.s:3419   .text.HANcoder_E407_TTA_CombineModel_step:00000810 $d
C:\Users\ADMIN~1.CVA\AppData\Local\Temp\ccpmJwVm.s:3450   .text.HANcoder_E407_TTA_CombineModel_step:00000878 $t
C:\Users\ADMIN~1.CVA\AppData\Local\Temp\ccpmJwVm.s:4044   .text.HANcoder_E407_TTA_CombineModel_step:00000bb8 $d
C:\Users\ADMIN~1.CVA\AppData\Local\Temp\ccpmJwVm.s:4069   .text.HANcoder_E407_TTA_CombineModel_step:00000c14 $t
C:\Users\ADMIN~1.CVA\AppData\Local\Temp\ccpmJwVm.s:4656   .text.HANcoder_E407_TTA_CombineModel_step:00000f18 $d
C:\Users\ADMIN~1.CVA\AppData\Local\Temp\ccpmJwVm.s:4675   .text.HANcoder_E407_TTA_CombineModel_step:00000f58 $t
C:\Users\ADMIN~1.CVA\AppData\Local\Temp\ccpmJwVm.s:5550   .text.HANcoder_E407_TTA_CombineModel_step:000011e0 $d
C:\Users\ADMIN~1.CVA\AppData\Local\Temp\ccpmJwVm.s:5566   .text.HANcoder_E407_TTA_CombineModel_step:00001214 $t
C:\Users\ADMIN~1.CVA\AppData\Local\Temp\ccpmJwVm.s:6699   .text.HANcoder_E407_TTA_CombineModel_step:00001518 $d
C:\Users\ADMIN~1.CVA\AppData\Local\Temp\ccpmJwVm.s:6720   .text.HANcoder_E407_TTA_CombineModel_step:00001558 $t
C:\Users\ADMIN~1.CVA\AppData\Local\Temp\ccpmJwVm.s:7714   .text.HANcoder_E407_TTA_CombineModel_step:000018a8 $d
C:\Users\ADMIN~1.CVA\AppData\Local\Temp\ccpmJwVm.s:7732   .text.HANcoder_E407_TTA_CombineModel_step:000018e4 $t
C:\Users\ADMIN~1.CVA\AppData\Local\Temp\ccpmJwVm.s:8120   .text.HANcoder_E407_TTA_CombineModel_step:00001acc $d
C:\Users\ADMIN~1.CVA\AppData\Local\Temp\ccpmJwVm.s:8131   .rodata.HANcoder_E407_TTA_CombineModel_initialize.str1.4:00000000 $d
C:\Users\ADMIN~1.CVA\AppData\Local\Temp\ccpmJwVm.s:8135   .text.HANcoder_E407_TTA_CombineModel_initialize:00000000 $t
C:\Users\ADMIN~1.CVA\AppData\Local\Temp\ccpmJwVm.s:8142   .text.HANcoder_E407_TTA_CombineModel_initialize:00000000 HANcoder_E407_TTA_CombineModel_initialize
C:\Users\ADMIN~1.CVA\AppData\Local\Temp\ccpmJwVm.s:8738   .text.HANcoder_E407_TTA_CombineModel_initialize:00000224 $d
C:\Users\ADMIN~1.CVA\AppData\Local\Temp\ccpmJwVm.s:9367   .rodata.rtM:00000000 rtM
C:\Users\ADMIN~1.CVA\AppData\Local\Temp\ccpmJwVm.s:9206   .bss.rtPrevZCSigState:00000000 rtPrevZCSigState
C:\Users\ADMIN~1.CVA\AppData\Local\Temp\ccpmJwVm.s:9192   .bss.rtDWork:00000000 rtDWork
C:\Users\ADMIN~1.CVA\AppData\Local\Temp\ccpmJwVm.s:9185   .bss.rtB:00000000 rtB
C:\Users\ADMIN~1.CVA\AppData\Local\Temp\ccpmJwVm.s:9361   .data.slotTime:00000000 slotTime
C:\Users\ADMIN~1.CVA\AppData\Local\Temp\ccpmJwVm.s:9316   .data.TRLS1_ID5:00000000 TRLS1_ID5
C:\Users\ADMIN~1.CVA\AppData\Local\Temp\ccpmJwVm.s:9309   .data.TRLS1_ID4:00000000 TRLS1_ID4
C:\Users\ADMIN~1.CVA\AppData\Local\Temp\ccpmJwVm.s:9302   .data.TRCK1_ID3:00000000 TRCK1_ID3
C:\Users\ADMIN~1.CVA\AppData\Local\Temp\ccpmJwVm.s:9295   .data.TRCK1_ID2:00000000 TRCK1_ID2
C:\Users\ADMIN~1.CVA\AppData\Local\Temp\ccpmJwVm.s:9288   .data.TRCK1_ID1:00000000 TRCK1_ID1
C:\Users\ADMIN~1.CVA\AppData\Local\Temp\ccpmJwVm.s:9281   .data.SYNC1_ID:00000000 SYNC1_ID
C:\Users\ADMIN~1.CVA\AppData\Local\Temp\ccpmJwVm.s:9274   .data.SSTM1_ID:00000000 SSTM1_ID
C:\Users\ADMIN~1.CVA\AppData\Local\Temp\ccpmJwVm.s:9260   .data.MMBS1_ID:00000000 MMBS1_ID
C:\Users\ADMIN~1.CVA\AppData\Local\Temp\ccpmJwVm.s:9354   .data.propVal:00000000 propVal
C:\Users\ADMIN~1.CVA\AppData\Local\Temp\ccpmJwVm.s:9346   .data.matrixRows:00000000 matrixRows
C:\Users\ADMIN~1.CVA\AppData\Local\Temp\ccpmJwVm.s:9338   .data.intVal:00000000 intVal
C:\Users\ADMIN~1.CVA\AppData\Local\Temp\ccpmJwVm.s:9331   .data.desiredAngle:00000000 desiredAngle
C:\Users\ADMIN~1.CVA\AppData\Local\Temp\ccpmJwVm.s:9323   .data.controlWidth:00000000 controlWidth
C:\Users\ADMIN~1.CVA\AppData\Local\Temp\ccpmJwVm.s:9267   .data.ResetPosition:00000000 ResetPosition
C:\Users\ADMIN~1.CVA\AppData\Local\Temp\ccpmJwVm.s:9253   .data.ClockOn:00000000 ClockOn
C:\Users\ADMIN~1.CVA\AppData\Local\Temp\ccpmJwVm.s:8905   .bss.canActive:00000000 canActive
C:\Users\ADMIN~1.CVA\AppData\Local\Temp\ccpmJwVm.s:8974   .bss.ccw:00000000 ccw
C:\Users\ADMIN~1.CVA\AppData\Local\Temp\ccpmJwVm.s:8987   .bss.cw:00000000 cw
C:\Users\ADMIN~1.CVA\AppData\Local\Temp\ccpmJwVm.s:9014   .bss.ioInit:00000000 ioInit
C:\Users\ADMIN~1.CVA\AppData\Local\Temp\ccpmJwVm.s:9076   .bss.motorFaultDetected:00000000 motorFaultDetected
C:\Users\ADMIN~1.CVA\AppData\Local\Temp\ccpmJwVm.s:9063   .bss.mf5:00000000 mf5
C:\Users\ADMIN~1.CVA\AppData\Local\Temp\ccpmJwVm.s:9057   .bss.mf4:00000000 mf4
C:\Users\ADMIN~1.CVA\AppData\Local\Temp\ccpmJwVm.s:9051   .bss.mf3:00000000 mf3
C:\Users\ADMIN~1.CVA\AppData\Local\Temp\ccpmJwVm.s:9045   .bss.mf2:00000000 mf2
C:\Users\ADMIN~1.CVA\AppData\Local\Temp\ccpmJwVm.s:9039   .bss.mf1:00000000 mf1
C:\Users\ADMIN~1.CVA\AppData\Local\Temp\ccpmJwVm.s:9033   .bss.masterCanFail:00000000 masterCanFail
C:\Users\ADMIN~1.CVA\AppData\Local\Temp\ccpmJwVm.s:9164   .bss.potFaultDetected:00000000 potFaultDetected
C:\Users\ADMIN~1.CVA\AppData\Local\Temp\ccpmJwVm.s:8887   .bss.boolCan:00000000 boolCan
C:\Users\ADMIN~1.CVA\AppData\Local\Temp\ccpmJwVm.s:9218   .bss.slotSelected:00000000 slotSelected
C:\Users\ADMIN~1.CVA\AppData\Local\Temp\ccpmJwVm.s:9212   .bss.setSlotTime:00000000 setSlotTime
C:\Users\ADMIN~1.CVA\AppData\Local\Temp\ccpmJwVm.s:9027   .bss.local_ticks_interrupt:00000000 local_ticks_interrupt
C:\Users\ADMIN~1.CVA\AppData\Local\Temp\ccpmJwVm.s:9096   .bss.positionID4:00000000 positionID4
C:\Users\ADMIN~1.CVA\AppData\Local\Temp\ccpmJwVm.s:9102   .bss.positionID5:00000000 positionID5
C:\Users\ADMIN~1.CVA\AppData\Local\Temp\ccpmJwVm.s:8867   .bss.amounttrailers:00000000 amounttrailers
C:\Users\ADMIN~1.CVA\AppData\Local\Temp\ccpmJwVm.s:8893   .bss.buttonpress1:00000000 buttonpress1
C:\Users\ADMIN~1.CVA\AppData\Local\Temp\ccpmJwVm.s:8899   .bss.buttonpress2:00000000 buttonpress2
C:\Users\ADMIN~1.CVA\AppData\Local\Temp\ccpmJwVm.s:8847   .bss.SI_CPUload:00000000 SI_CPUload
C:\Users\ADMIN~1.CVA\AppData\Local\Temp\ccpmJwVm.s:9070   .bss.mospeed:00000000 mospeed
C:\Users\ADMIN~1.CVA\AppData\Local\Temp\ccpmJwVm.s:8841   .bss.Gamma2:00000000 Gamma2
C:\Users\ADMIN~1.CVA\AppData\Local\Temp\ccpmJwVm.s:9232   .bss.t1Angle:00000000 t1Angle
C:\Users\ADMIN~1.CVA\AppData\Local\Temp\ccpmJwVm.s:9239   .bss.t2Angle:00000000 t2Angle
C:\Users\ADMIN~1.CVA\AppData\Local\Temp\ccpmJwVm.s:9130   .bss.pot2:00000000 pot2
C:\Users\ADMIN~1.CVA\AppData\Local\Temp\ccpmJwVm.s:8881   .bss.analogPot2:00000000 analogPot2
C:\Users\ADMIN~1.CVA\AppData\Local\Temp\ccpmJwVm.s:9109   .bss.pot1:00000000 pot1
C:\Users\ADMIN~1.CVA\AppData\Local\Temp\ccpmJwVm.s:8874   .bss.analogPot1:00000000 analogPot1
C:\Users\ADMIN~1.CVA\AppData\Local\Temp\ccpmJwVm.s:9001   .bss.derivative:00000000 derivative
C:\Users\ADMIN~1.CVA\AppData\Local\Temp\ccpmJwVm.s:9021   .bss.lastPot:00000000 lastPot
C:\Users\ADMIN~1.CVA\AppData\Local\Temp\ccpmJwVm.s:9171   .bss.potRaw:00000000 potRaw
C:\Users\ADMIN~1.CVA\AppData\Local\Temp\ccpmJwVm.s:9246   .bss.testCounter:00000000 testCounter
C:\Users\ADMIN~1.CVA\AppData\Local\Temp\ccpmJwVm.s:9144   .bss.pot22:00000000 pot22
C:\Users\ADMIN~1.CVA\AppData\Local\Temp\ccpmJwVm.s:9137   .bss.pot21:00000000 pot21
C:\Users\ADMIN~1.CVA\AppData\Local\Temp\ccpmJwVm.s:9123   .bss.pot12:00000000 pot12
C:\Users\ADMIN~1.CVA\AppData\Local\Temp\ccpmJwVm.s:9116   .bss.pot11:00000000 pot11
C:\Users\ADMIN~1.CVA\AppData\Local\Temp\ccpmJwVm.s:9158   .bss.pot32:00000000 pot32
C:\Users\ADMIN~1.CVA\AppData\Local\Temp\ccpmJwVm.s:9151   .bss.pot31:00000000 pot31
C:\Users\ADMIN~1.CVA\AppData\Local\Temp\ccpmJwVm.s:9083   .bss.motorPos:00000000 motorPos
C:\Users\ADMIN~1.CVA\AppData\Local\Temp\ccpmJwVm.s:8994   .bss.delta12K:00000000 delta12K
C:\Users\ADMIN~1.CVA\AppData\Local\Temp\ccpmJwVm.s:9008   .bss.derivativeMean:00000000 derivativeMean
C:\Users\ADMIN~1.CVA\AppData\Local\Temp\ccpmJwVm.s:8861   .bss.SI_FreeStack:00000000 SI_FreeStack
C:\Users\ADMIN~1.CVA\AppData\Local\Temp\ccpmJwVm.s:8854   .bss.SI_FreeHeap:00000000 SI_FreeHeap
C:\Users\ADMIN~1.CVA\AppData\Local\Temp\ccpmJwVm.s:8981   .bss.control:00000000 control
C:\Users\ADMIN~1.CVA\AppData\Local\Temp\ccpmJwVm.s:9090   .bss.position:00000000 position
C:\Users\ADMIN~1.CVA\AppData\Local\Temp\ccpmJwVm.s:9225   .bss.steering:00000000 steering
C:\Users\ADMIN~1.CVA\AppData\Local\Temp\ccpmJwVm.s:8834   .bss.Gamma1:00000000 Gamma1
C:\Users\ADMIN~1.CVA\AppData\Local\Temp\ccpmJwVm.s:9178   .bss.reqAngle:00000000 reqAngle
C:\Users\ADMIN~1.CVA\AppData\Local\Temp\ccpmJwVm.s:8830   .bss.Gamma1:00000000 $d
C:\Users\ADMIN~1.CVA\AppData\Local\Temp\ccpmJwVm.s:8837   .bss.Gamma2:00000000 $d
C:\Users\ADMIN~1.CVA\AppData\Local\Temp\ccpmJwVm.s:8848   .bss.SI_CPUload:00000000 $d
C:\Users\ADMIN~1.CVA\AppData\Local\Temp\ccpmJwVm.s:8850   .bss.SI_FreeHeap:00000000 $d
C:\Users\ADMIN~1.CVA\AppData\Local\Temp\ccpmJwVm.s:8857   .bss.SI_FreeStack:00000000 $d
C:\Users\ADMIN~1.CVA\AppData\Local\Temp\ccpmJwVm.s:8868   .bss.amounttrailers:00000000 $d
C:\Users\ADMIN~1.CVA\AppData\Local\Temp\ccpmJwVm.s:8870   .bss.analogPot1:00000000 $d
C:\Users\ADMIN~1.CVA\AppData\Local\Temp\ccpmJwVm.s:8877   .bss.analogPot2:00000000 $d
C:\Users\ADMIN~1.CVA\AppData\Local\Temp\ccpmJwVm.s:8888   .bss.boolCan:00000000 $d
C:\Users\ADMIN~1.CVA\AppData\Local\Temp\ccpmJwVm.s:8894   .bss.buttonpress1:00000000 $d
C:\Users\ADMIN~1.CVA\AppData\Local\Temp\ccpmJwVm.s:8900   .bss.buttonpress2:00000000 $d
C:\Users\ADMIN~1.CVA\AppData\Local\Temp\ccpmJwVm.s:8906   .bss.canActive:00000000 $d
C:\Users\ADMIN~1.CVA\AppData\Local\Temp\ccpmJwVm.s:8908   .bss.canRxData_0_MMBS1_ID:00000000 $d
C:\Users\ADMIN~1.CVA\AppData\Local\Temp\ccpmJwVm.s:8912   .bss.canRxData_0_MMBS1_ID:00000000 canRxData_0_MMBS1_ID
C:\Users\ADMIN~1.CVA\AppData\Local\Temp\ccpmJwVm.s:8915   .bss.canRxData_0_SSTM1_ID:00000000 $d
C:\Users\ADMIN~1.CVA\AppData\Local\Temp\ccpmJwVm.s:8919   .bss.canRxData_0_SSTM1_ID:00000000 canRxData_0_SSTM1_ID
C:\Users\ADMIN~1.CVA\AppData\Local\Temp\ccpmJwVm.s:8922   .bss.canRxData_0_SYNC1_ID:00000000 $d
C:\Users\ADMIN~1.CVA\AppData\Local\Temp\ccpmJwVm.s:8926   .bss.canRxData_0_SYNC1_ID:00000000 canRxData_0_SYNC1_ID
C:\Users\ADMIN~1.CVA\AppData\Local\Temp\ccpmJwVm.s:8929   .bss.canRxData_0_TRCK1_ID1:00000000 $d
C:\Users\ADMIN~1.CVA\AppData\Local\Temp\ccpmJwVm.s:8933   .bss.canRxData_0_TRCK1_ID1:00000000 canRxData_0_TRCK1_ID1
C:\Users\ADMIN~1.CVA\AppData\Local\Temp\ccpmJwVm.s:8936   .bss.canRxData_0_TRCK1_ID2:00000000 $d
C:\Users\ADMIN~1.CVA\AppData\Local\Temp\ccpmJwVm.s:8940   .bss.canRxData_0_TRCK1_ID2:00000000 canRxData_0_TRCK1_ID2
C:\Users\ADMIN~1.CVA\AppData\Local\Temp\ccpmJwVm.s:8943   .bss.canRxData_0_TRCK1_ID3:00000000 $d
C:\Users\ADMIN~1.CVA\AppData\Local\Temp\ccpmJwVm.s:8947   .bss.canRxData_0_TRCK1_ID3:00000000 canRxData_0_TRCK1_ID3
C:\Users\ADMIN~1.CVA\AppData\Local\Temp\ccpmJwVm.s:8950   .bss.canRxData_0_TRLS1_ID4:00000000 $d
C:\Users\ADMIN~1.CVA\AppData\Local\Temp\ccpmJwVm.s:8954   .bss.canRxData_0_TRLS1_ID4:00000000 canRxData_0_TRLS1_ID4
C:\Users\ADMIN~1.CVA\AppData\Local\Temp\ccpmJwVm.s:8957   .bss.canRxData_0_TRLS1_ID5:00000000 $d
C:\Users\ADMIN~1.CVA\AppData\Local\Temp\ccpmJwVm.s:8961   .bss.canRxData_0_TRLS1_ID5:00000000 canRxData_0_TRLS1_ID5
C:\Users\ADMIN~1.CVA\AppData\Local\Temp\ccpmJwVm.s:8964   .bss.canTxData:00000000 $d
C:\Users\ADMIN~1.CVA\AppData\Local\Temp\ccpmJwVm.s:8968   .bss.canTxData:00000000 canTxData
C:\Users\ADMIN~1.CVA\AppData\Local\Temp\ccpmJwVm.s:8975   .bss.ccw:00000000 $d
C:\Users\ADMIN~1.CVA\AppData\Local\Temp\ccpmJwVm.s:8977   .bss.control:00000000 $d
C:\Users\ADMIN~1.CVA\AppData\Local\Temp\ccpmJwVm.s:8988   .bss.cw:00000000 $d
C:\Users\ADMIN~1.CVA\AppData\Local\Temp\ccpmJwVm.s:8990   .bss.delta12K:00000000 $d
C:\Users\ADMIN~1.CVA\AppData\Local\Temp\ccpmJwVm.s:8997   .bss.derivative:00000000 $d
C:\Users\ADMIN~1.CVA\AppData\Local\Temp\ccpmJwVm.s:9004   .bss.derivativeMean:00000000 $d
C:\Users\ADMIN~1.CVA\AppData\Local\Temp\ccpmJwVm.s:9015   .bss.ioInit:00000000 $d
C:\Users\ADMIN~1.CVA\AppData\Local\Temp\ccpmJwVm.s:9017   .bss.lastPot:00000000 $d
C:\Users\ADMIN~1.CVA\AppData\Local\Temp\ccpmJwVm.s:9028   .bss.local_ticks_interrupt:00000000 $d
C:\Users\ADMIN~1.CVA\AppData\Local\Temp\ccpmJwVm.s:9034   .bss.masterCanFail:00000000 $d
C:\Users\ADMIN~1.CVA\AppData\Local\Temp\ccpmJwVm.s:9040   .bss.mf1:00000000 $d
C:\Users\ADMIN~1.CVA\AppData\Local\Temp\ccpmJwVm.s:9046   .bss.mf2:00000000 $d
C:\Users\ADMIN~1.CVA\AppData\Local\Temp\ccpmJwVm.s:9052   .bss.mf3:00000000 $d
C:\Users\ADMIN~1.CVA\AppData\Local\Temp\ccpmJwVm.s:9058   .bss.mf4:00000000 $d
C:\Users\ADMIN~1.CVA\AppData\Local\Temp\ccpmJwVm.s:9064   .bss.mf5:00000000 $d
C:\Users\ADMIN~1.CVA\AppData\Local\Temp\ccpmJwVm.s:9066   .bss.mospeed:00000000 $d
C:\Users\ADMIN~1.CVA\AppData\Local\Temp\ccpmJwVm.s:9077   .bss.motorFaultDetected:00000000 $d
C:\Users\ADMIN~1.CVA\AppData\Local\Temp\ccpmJwVm.s:9079   .bss.motorPos:00000000 $d
C:\Users\ADMIN~1.CVA\AppData\Local\Temp\ccpmJwVm.s:9086   .bss.position:00000000 $d
C:\Users\ADMIN~1.CVA\AppData\Local\Temp\ccpmJwVm.s:9097   .bss.positionID4:00000000 $d
C:\Users\ADMIN~1.CVA\AppData\Local\Temp\ccpmJwVm.s:9103   .bss.positionID5:00000000 $d
C:\Users\ADMIN~1.CVA\AppData\Local\Temp\ccpmJwVm.s:9105   .bss.pot1:00000000 $d
C:\Users\ADMIN~1.CVA\AppData\Local\Temp\ccpmJwVm.s:9112   .bss.pot11:00000000 $d
C:\Users\ADMIN~1.CVA\AppData\Local\Temp\ccpmJwVm.s:9119   .bss.pot12:00000000 $d
C:\Users\ADMIN~1.CVA\AppData\Local\Temp\ccpmJwVm.s:9126   .bss.pot2:00000000 $d
C:\Users\ADMIN~1.CVA\AppData\Local\Temp\ccpmJwVm.s:9133   .bss.pot21:00000000 $d
C:\Users\ADMIN~1.CVA\AppData\Local\Temp\ccpmJwVm.s:9140   .bss.pot22:00000000 $d
C:\Users\ADMIN~1.CVA\AppData\Local\Temp\ccpmJwVm.s:9147   .bss.pot31:00000000 $d
C:\Users\ADMIN~1.CVA\AppData\Local\Temp\ccpmJwVm.s:9154   .bss.pot32:00000000 $d
C:\Users\ADMIN~1.CVA\AppData\Local\Temp\ccpmJwVm.s:9165   .bss.potFaultDetected:00000000 $d
C:\Users\ADMIN~1.CVA\AppData\Local\Temp\ccpmJwVm.s:9167   .bss.potRaw:00000000 $d
C:\Users\ADMIN~1.CVA\AppData\Local\Temp\ccpmJwVm.s:9174   .bss.reqAngle:00000000 $d
C:\Users\ADMIN~1.CVA\AppData\Local\Temp\ccpmJwVm.s:9181   .bss.rtB:00000000 $d
C:\Users\ADMIN~1.CVA\AppData\Local\Temp\ccpmJwVm.s:9188   .bss.rtDWork:00000000 $d
C:\Users\ADMIN~1.CVA\AppData\Local\Temp\ccpmJwVm.s:9195   .bss.rtM_:00000000 $d
C:\Users\ADMIN~1.CVA\AppData\Local\Temp\ccpmJwVm.s:9199   .bss.rtM_:00000000 rtM_
C:\Users\ADMIN~1.CVA\AppData\Local\Temp\ccpmJwVm.s:9202   .bss.rtPrevZCSigState:00000000 $d
C:\Users\ADMIN~1.CVA\AppData\Local\Temp\ccpmJwVm.s:9213   .bss.setSlotTime:00000000 $d
C:\Users\ADMIN~1.CVA\AppData\Local\Temp\ccpmJwVm.s:9219   .bss.slotSelected:00000000 $d
C:\Users\ADMIN~1.CVA\AppData\Local\Temp\ccpmJwVm.s:9221   .bss.steering:00000000 $d
C:\Users\ADMIN~1.CVA\AppData\Local\Temp\ccpmJwVm.s:9228   .bss.t1Angle:00000000 $d
C:\Users\ADMIN~1.CVA\AppData\Local\Temp\ccpmJwVm.s:9235   .bss.t2Angle:00000000 $d
C:\Users\ADMIN~1.CVA\AppData\Local\Temp\ccpmJwVm.s:9242   .bss.testCounter:00000000 $d
C:\Users\ADMIN~1.CVA\AppData\Local\Temp\ccpmJwVm.s:9249   .data.ClockOn:00000000 $d
C:\Users\ADMIN~1.CVA\AppData\Local\Temp\ccpmJwVm.s:9256   .data.MMBS1_ID:00000000 $d
C:\Users\ADMIN~1.CVA\AppData\Local\Temp\ccpmJwVm.s:9263   .data.ResetPosition:00000000 $d
C:\Users\ADMIN~1.CVA\AppData\Local\Temp\ccpmJwVm.s:9270   .data.SSTM1_ID:00000000 $d
C:\Users\ADMIN~1.CVA\AppData\Local\Temp\ccpmJwVm.s:9277   .data.SYNC1_ID:00000000 $d
C:\Users\ADMIN~1.CVA\AppData\Local\Temp\ccpmJwVm.s:9284   .data.TRCK1_ID1:00000000 $d
C:\Users\ADMIN~1.CVA\AppData\Local\Temp\ccpmJwVm.s:9291   .data.TRCK1_ID2:00000000 $d
C:\Users\ADMIN~1.CVA\AppData\Local\Temp\ccpmJwVm.s:9298   .data.TRCK1_ID3:00000000 $d
C:\Users\ADMIN~1.CVA\AppData\Local\Temp\ccpmJwVm.s:9305   .data.TRLS1_ID4:00000000 $d
C:\Users\ADMIN~1.CVA\AppData\Local\Temp\ccpmJwVm.s:9312   .data.TRLS1_ID5:00000000 $d
C:\Users\ADMIN~1.CVA\AppData\Local\Temp\ccpmJwVm.s:9319   .data.controlWidth:00000000 $d
C:\Users\ADMIN~1.CVA\AppData\Local\Temp\ccpmJwVm.s:9327   .data.desiredAngle:00000000 $d
C:\Users\ADMIN~1.CVA\AppData\Local\Temp\ccpmJwVm.s:9334   .data.intVal:00000000 $d
C:\Users\ADMIN~1.CVA\AppData\Local\Temp\ccpmJwVm.s:9342   .data.matrixRows:00000000 $d
C:\Users\ADMIN~1.CVA\AppData\Local\Temp\ccpmJwVm.s:9350   .data.propVal:00000000 $d
C:\Users\ADMIN~1.CVA\AppData\Local\Temp\ccpmJwVm.s:9364   .rodata.rtM:00000000 $d

UNDEFINED SYMBOLS
__aeabi_d2uiz
TimeoutGetLastEventCounter
TimeoutScheduleCompareEvent
memset
CanTransmit
__aeabi_dcmpeq
__aeabi_dmul
__aeabi_ui2d
__aeabi_dadd
__aeabi_dsub
__aeabi_dcmplt
__aeabi_dcmpgt
__aeabi_ddiv
__aeabi_d2f
__aeabi_f2d
__aeabi_i2d
__aeabi_dcmpge
__aeabi_dcmple
CanIoGetMessage
rtConstB
OsGetCpuLoad
OsGetFreeHeapSize
OsGetTaskFreeStackSize
tan
sin
cos
atan
floor
AninGet
rtConstP
DiginGet
QuadEncGetCounter
memmove
DigoutSet
PwmoutSet
rt_I32ZCFcn
QuadEncResetCounter
CanInit
CanIoInit
TimeoutInitModule
DiginConfigure
TimeoutRegisterCompareEventCallback
AninConfigure
QuadEncConfigure
DigoutConfigure
PwmoutInit
PwmoutRegisterPeriodCompleteCallback
PwmoutConfigure
CanIoCreateMessageReceivedStorage
AppCtrlTaskSetStackSize
AppCtrlTaskSetPeriod
ADCconversionTaskSetPeriod
CanConnect
AssertFailure
TimeoutRegisterOverflowCallback
MacUsbComInit
MacInit
