   1              		.cpu cortex-m4
   2              		.arch armv7e-m
   3              		.fpu fpv4-sp-d16
   4              		.eabi_attribute 27, 1
   5              		.eabi_attribute 20, 1
   6              		.eabi_attribute 21, 1
   7              		.eabi_attribute 23, 3
   8              		.eabi_attribute 24, 1
   9              		.eabi_attribute 25, 1
  10              		.eabi_attribute 26, 1
  11              		.eabi_attribute 30, 2
  12              		.eabi_attribute 34, 1
  13              		.eabi_attribute 18, 4
  14              		.file	"HANcoder_E407_TTA_CombineModel.c"
  15              		.text
  16              	.Ltext0:
  17              		.cfi_sections	.debug_frame
  18              		.section	.text.PwmoutIRQ_PWMOUT_MODULE_TIM14,"ax",%progbits
  19              		.align	1
  20              		.p2align 2,,3
  21              		.global	PwmoutIRQ_PWMOUT_MODULE_TIM14
  22              		.syntax unified
  23              		.thumb
  24              		.thumb_func
  26              	PwmoutIRQ_PWMOUT_MODULE_TIM14:
  27              	.LFB114:
  28              		.file 1 "HANcoder_E407_TTA_CombineModel.c"
   1:HANcoder_E407_TTA_CombineModel.c **** /*
   2:HANcoder_E407_TTA_CombineModel.c ****  * Academic License - for use in teaching, academic research, and meeting
   3:HANcoder_E407_TTA_CombineModel.c ****  * course requirements at degree granting institutions only.  Not for
   4:HANcoder_E407_TTA_CombineModel.c ****  * government, commercial, or other organizational use.
   5:HANcoder_E407_TTA_CombineModel.c ****  *
   6:HANcoder_E407_TTA_CombineModel.c ****  * File: HANcoder_E407_TTA_CombineModel.c
   7:HANcoder_E407_TTA_CombineModel.c ****  *
   8:HANcoder_E407_TTA_CombineModel.c ****  * Code generated for Simulink model 'HANcoder_E407_TTA_CombineModel'.
   9:HANcoder_E407_TTA_CombineModel.c ****  *
  10:HANcoder_E407_TTA_CombineModel.c ****  * Model version                  : 17.17
  11:HANcoder_E407_TTA_CombineModel.c ****  * Simulink Coder version         : 9.8 (R2022b) 13-May-2022
  12:HANcoder_E407_TTA_CombineModel.c ****  * C/C++ source code generated on : Fri Jun  2 15:45:18 2023
  13:HANcoder_E407_TTA_CombineModel.c ****  *
  14:HANcoder_E407_TTA_CombineModel.c ****  * Target selection: ert.tlc
  15:HANcoder_E407_TTA_CombineModel.c ****  * Embedded hardware selection: ARM Compatible->ARM Cortex
  16:HANcoder_E407_TTA_CombineModel.c ****  * Code generation objectives: Unspecified
  17:HANcoder_E407_TTA_CombineModel.c ****  * Validation result: Not run
  18:HANcoder_E407_TTA_CombineModel.c ****  */
  19:HANcoder_E407_TTA_CombineModel.c **** 
  20:HANcoder_E407_TTA_CombineModel.c **** #include "HANcoder_E407_TTA_CombineModel.h"
  21:HANcoder_E407_TTA_CombineModel.c **** #include "rtwtypes.h"
  22:HANcoder_E407_TTA_CombineModel.c **** #include "HANcoder_E407_TTA_CombineModel_types.h"
  23:HANcoder_E407_TTA_CombineModel.c **** #include "HANcoder_E407_TTA_CombineModel_private.h"
  24:HANcoder_E407_TTA_CombineModel.c **** #include <math.h>
  25:HANcoder_E407_TTA_CombineModel.c **** #include "zero_crossing_types.h"
  26:HANcoder_E407_TTA_CombineModel.c **** 
  27:HANcoder_E407_TTA_CombineModel.c **** /* map ByteSwap function */
  28:HANcoder_E407_TTA_CombineModel.c **** #define ByteSwap(x)                    (ByteSwap_x((uint8_t *) &x, sizeof(x)))
  29:HANcoder_E407_TTA_CombineModel.c **** 
  30:HANcoder_E407_TTA_CombineModel.c **** void PwmoutIRQ_PWMOUT_MODULE_TIM14(void);
  31:HANcoder_E407_TTA_CombineModel.c **** void TimeoutEventIRQ_TIMEOUT_TIM4_PIN_PD12(void);
  32:HANcoder_E407_TTA_CombineModel.c **** void TimeoutOverflowIRQ_TIMEOUT_MODULE_TIM4(void);
  33:HANcoder_E407_TTA_CombineModel.c **** 
  34:HANcoder_E407_TTA_CombineModel.c **** /* Exported block signals */
  35:HANcoder_E407_TTA_CombineModel.c **** real_T reqAngle;                       /* '<S27>/Data Store Read' */
  36:HANcoder_E407_TTA_CombineModel.c **** real_T Gamma1;                         /* '<S59>/Sum1' */
  37:HANcoder_E407_TTA_CombineModel.c **** real_T steering;                       /* '<S58>/Gain2' */
  38:HANcoder_E407_TTA_CombineModel.c **** real_T position;                       /* '<S58>/Gain1' */
  39:HANcoder_E407_TTA_CombineModel.c **** real_T control;                        /* '<S58>/Sum' */
  40:HANcoder_E407_TTA_CombineModel.c **** uint32_T SI_FreeHeap;                  /* '<S150>/Level-2 M-file S-Function' */
  41:HANcoder_E407_TTA_CombineModel.c **** uint32_T SI_FreeStack;                 /* '<S151>/Level-2 M-file S-Function' */
  42:HANcoder_E407_TTA_CombineModel.c **** real32_T delta12K;                     /* '<S114>/tan 1' */
  43:HANcoder_E407_TTA_CombineModel.c **** uint16_T t2Angle;                      /* '<S27>/Data Store Read2' */
  44:HANcoder_E407_TTA_CombineModel.c **** uint16_T t1Angle;                      /* '<S27>/Data Store Read1' */
  45:HANcoder_E407_TTA_CombineModel.c **** uint16_T Gamma2;                       /* '<S59>/Sum2' */
  46:HANcoder_E407_TTA_CombineModel.c **** uint16_T mospeed;                      /* '<S58>/Add' */
  47:HANcoder_E407_TTA_CombineModel.c **** uint16_T analogPot2;                   /* '<S53>/Level-2 M-file S-Function' */
  48:HANcoder_E407_TTA_CombineModel.c **** uint16_T analogPot1;                   /* '<S52>/Level-2 M-file S-Function' */
  49:HANcoder_E407_TTA_CombineModel.c **** uint16_T testCounter;                  /* '<S25>/Data Store Read1' */
  50:HANcoder_E407_TTA_CombineModel.c **** uint16_T local_ticks_interrupt;        /* '<S10>/Switch' */
  51:HANcoder_E407_TTA_CombineModel.c **** uint8_T SI_CPUload;                    /* '<S149>/Level-2 M-file S-Function' */
  52:HANcoder_E407_TTA_CombineModel.c **** uint8_T setSlotTime;                   /* '<S10>/Data Store Read3' */
  53:HANcoder_E407_TTA_CombineModel.c **** uint8_T slotSelected;                  /* '<S17>/Switch' */
  54:HANcoder_E407_TTA_CombineModel.c **** boolean_T boolCan;                     /* '<S11>/AND' */
  55:HANcoder_E407_TTA_CombineModel.c **** boolean_T cw;                          /* '<S58>/Cast1' */
  56:HANcoder_E407_TTA_CombineModel.c **** boolean_T ccw;                         /* '<S58>/NOT' */
  57:HANcoder_E407_TTA_CombineModel.c **** boolean_T canActive;                   /* '<S10>/Clock_State' */
  58:HANcoder_E407_TTA_CombineModel.c **** 
  59:HANcoder_E407_TTA_CombineModel.c **** /* Exported block parameters */
  60:HANcoder_E407_TTA_CombineModel.c **** real_T ClockOn = 0.0;                  /* Variable: ClockOn
  61:HANcoder_E407_TTA_CombineModel.c ****                                         * Referenced by: '<S13>/Constant'
  62:HANcoder_E407_TTA_CombineModel.c ****                                         */
  63:HANcoder_E407_TTA_CombineModel.c **** real_T desiredAngle = 0.0;             /* Variable: desiredAngle
  64:HANcoder_E407_TTA_CombineModel.c ****                                         * Referenced by: '<S48>/Constant2'
  65:HANcoder_E407_TTA_CombineModel.c ****                                         */
  66:HANcoder_E407_TTA_CombineModel.c **** real_T intVal = 0.0;                   /* Variable: intVal
  67:HANcoder_E407_TTA_CombineModel.c ****                                         * Referenced by: '<S90>/Integral Gain'
  68:HANcoder_E407_TTA_CombineModel.c ****                                         */
  69:HANcoder_E407_TTA_CombineModel.c **** real_T matrixRows = 10.0;              /* Variable: matrixRows
  70:HANcoder_E407_TTA_CombineModel.c ****                                         * Referenced by: '<S17>/Constant1'
  71:HANcoder_E407_TTA_CombineModel.c ****                                         */
  72:HANcoder_E407_TTA_CombineModel.c **** real_T propVal = 0.0;                  /* Variable: propVal
  73:HANcoder_E407_TTA_CombineModel.c ****                                         * Referenced by: '<S98>/Proportional Gain'
  74:HANcoder_E407_TTA_CombineModel.c ****                                         */
  75:HANcoder_E407_TTA_CombineModel.c **** uint32_T MMBS1_ID = 12U;               /* Variable: MMBS1_ID
  76:HANcoder_E407_TTA_CombineModel.c ****                                         * Referenced by: '<S11>/Constant12'
  77:HANcoder_E407_TTA_CombineModel.c ****                                         */
  78:HANcoder_E407_TTA_CombineModel.c **** uint32_T SSTM1_ID = 13U;               /* Variable: SSTM1_ID
  79:HANcoder_E407_TTA_CombineModel.c ****                                         * Referenced by: '<S11>/Constant14'
  80:HANcoder_E407_TTA_CombineModel.c ****                                         */
  81:HANcoder_E407_TTA_CombineModel.c **** uint32_T SYNC1_ID = 11U;               /* Variable: SYNC1_ID
  82:HANcoder_E407_TTA_CombineModel.c ****                                         * Referenced by:
  83:HANcoder_E407_TTA_CombineModel.c ****                                         *   '<S11>/Constant10'
  84:HANcoder_E407_TTA_CombineModel.c ****                                         *   '<S145>/Constant10'
  85:HANcoder_E407_TTA_CombineModel.c ****                                         */
  86:HANcoder_E407_TTA_CombineModel.c **** uint32_T TRCK1_ID1 = 14U;              /* Variable: TRCK1_ID1
  87:HANcoder_E407_TTA_CombineModel.c ****                                         * Referenced by: '<S11>/Constant3'
  88:HANcoder_E407_TTA_CombineModel.c ****                                         */
  89:HANcoder_E407_TTA_CombineModel.c **** uint32_T TRCK1_ID2 = 26U;              /* Variable: TRCK1_ID2
  90:HANcoder_E407_TTA_CombineModel.c ****                                         * Referenced by: '<S11>/Constant5'
  91:HANcoder_E407_TTA_CombineModel.c ****                                         */
  92:HANcoder_E407_TTA_CombineModel.c **** uint32_T TRCK1_ID3 = 37U;              /* Variable: TRCK1_ID3
  93:HANcoder_E407_TTA_CombineModel.c ****                                         * Referenced by: '<S11>/Constant26'
  94:HANcoder_E407_TTA_CombineModel.c ****                                         */
  95:HANcoder_E407_TTA_CombineModel.c **** uint32_T TRLS1_ID4 = 48U;              /* Variable: TRLS1_ID4
  96:HANcoder_E407_TTA_CombineModel.c ****                                         * Referenced by: '<S11>/Constant8'
  97:HANcoder_E407_TTA_CombineModel.c ****                                         */
  98:HANcoder_E407_TTA_CombineModel.c **** uint32_T TRLS1_ID5 = 59U;              /* Variable: TRLS1_ID5
  99:HANcoder_E407_TTA_CombineModel.c ****                                         * Referenced by: '<S11>/Constant18'
 100:HANcoder_E407_TTA_CombineModel.c ****                                         */
 101:HANcoder_E407_TTA_CombineModel.c **** uint8_T slotTime = 50U;                /* Variable: slotTime
 102:HANcoder_E407_TTA_CombineModel.c ****                                         * Referenced by: '<S144>/Constant3'
 103:HANcoder_E407_TTA_CombineModel.c ****                                         */
 104:HANcoder_E407_TTA_CombineModel.c **** 
 105:HANcoder_E407_TTA_CombineModel.c **** /* Block signals (default storage) */
 106:HANcoder_E407_TTA_CombineModel.c **** BlockIO rtB;
 107:HANcoder_E407_TTA_CombineModel.c **** 
 108:HANcoder_E407_TTA_CombineModel.c **** /* Block states (default storage) */
 109:HANcoder_E407_TTA_CombineModel.c **** D_Work rtDWork;
 110:HANcoder_E407_TTA_CombineModel.c **** 
 111:HANcoder_E407_TTA_CombineModel.c **** /* Previous zero-crossings (trigger) states */
 112:HANcoder_E407_TTA_CombineModel.c **** PrevZCSigStates rtPrevZCSigState;
 113:HANcoder_E407_TTA_CombineModel.c **** 
 114:HANcoder_E407_TTA_CombineModel.c **** /* Real-time model */
 115:HANcoder_E407_TTA_CombineModel.c **** static RT_MODEL rtM_;
 116:HANcoder_E407_TTA_CombineModel.c **** RT_MODEL *const rtM = &rtM_;
 117:HANcoder_E407_TTA_CombineModel.c **** 
 118:HANcoder_E407_TTA_CombineModel.c **** /* Forward declaration for local functions */
 119:HANcoder_E407_TTA_CombineModel.c **** static void SystemCore_setup(dsp_simulink_MovingAverage *obj);
 120:HANcoder_E407_TTA_CombineModel.c **** static tCanDataTypes canRxData_0_rtu_In1;
 121:HANcoder_E407_TTA_CombineModel.c **** static tCanDataTypes canTxData;
 122:HANcoder_E407_TTA_CombineModel.c **** static tCanDataTypes canRxData_0_SYNC1_ID;
 123:HANcoder_E407_TTA_CombineModel.c **** static tCanDataTypes canRxData_0_TRCK1_ID3;
 124:HANcoder_E407_TTA_CombineModel.c **** static tCanDataTypes canRxData_0_TRLS1_ID4;
 125:HANcoder_E407_TTA_CombineModel.c **** static tCanDataTypes canRxData_0_TRLS1_ID5;
 126:HANcoder_E407_TTA_CombineModel.c **** static tCanDataTypes canRxData_0_SYNC1_ID;
 127:HANcoder_E407_TTA_CombineModel.c **** 
 128:HANcoder_E407_TTA_CombineModel.c **** /*
 129:HANcoder_E407_TTA_CombineModel.c ****  * Swaps the values of two bytes.
 130:HANcoder_E407_TTA_CombineModel.c ****  * a, b pointers to data values that need swapping
 131:HANcoder_E407_TTA_CombineModel.c ****  */
 132:HANcoder_E407_TTA_CombineModel.c **** static void swap(unsigned char *a, unsigned char *b)
 133:HANcoder_E407_TTA_CombineModel.c **** {
 134:HANcoder_E407_TTA_CombineModel.c ****   register char i = *a;
 135:HANcoder_E407_TTA_CombineModel.c ****   *a = *b;
 136:HANcoder_E407_TTA_CombineModel.c ****   *b = i;
 137:HANcoder_E407_TTA_CombineModel.c **** }                                      /*** end of swap ***/
 138:HANcoder_E407_TTA_CombineModel.c **** 
 139:HANcoder_E407_TTA_CombineModel.c **** /*
 140:HANcoder_E407_TTA_CombineModel.c ****  * Swaps all bytes in b. Typically used to fix endianes.
 141:HANcoder_E407_TTA_CombineModel.c ****  * b pointer to data with bytes to swap
 142:HANcoder_E407_TTA_CombineModel.c ****  * n number of bytes to swap
 143:HANcoder_E407_TTA_CombineModel.c ****  */
 144:HANcoder_E407_TTA_CombineModel.c **** void ByteSwap_x(uint8_t *b, size_t n)
 145:HANcoder_E407_TTA_CombineModel.c **** {
 146:HANcoder_E407_TTA_CombineModel.c ****   int i = 0;
 147:HANcoder_E407_TTA_CombineModel.c ****   int j = n-1;
 148:HANcoder_E407_TTA_CombineModel.c ****   while (i<j) {
 149:HANcoder_E407_TTA_CombineModel.c ****     swap(&b[i], &b[j]);
 150:HANcoder_E407_TTA_CombineModel.c ****     i++, j--;
 151:HANcoder_E407_TTA_CombineModel.c ****   }
 152:HANcoder_E407_TTA_CombineModel.c **** }
 153:HANcoder_E407_TTA_CombineModel.c **** 
 154:HANcoder_E407_TTA_CombineModel.c **** void TimeoutEventIRQ_TIMEOUT_TIM4_PIN_PD12(void)
 155:HANcoder_E407_TTA_CombineModel.c **** {
 156:HANcoder_E407_TTA_CombineModel.c ****   /* Output and update for function-call system: '<S1>/Local Time generation' */
 157:HANcoder_E407_TTA_CombineModel.c ****   {
 158:HANcoder_E407_TTA_CombineModel.c ****     /* local block i/o variables */
 159:HANcoder_E407_TTA_CombineModel.c ****     uint16_T rtb_Level2MfileSFunction;
 160:HANcoder_E407_TTA_CombineModel.c ****     boolean_T rtb_Equal;
 161:HANcoder_E407_TTA_CombineModel.c **** 
 162:HANcoder_E407_TTA_CombineModel.c ****     /* SignalConversion generated from: '<S10>/Clock_State' */
 163:HANcoder_E407_TTA_CombineModel.c ****     canActive = rtB.OR;
 164:HANcoder_E407_TTA_CombineModel.c **** 
 165:HANcoder_E407_TTA_CombineModel.c ****     /* Switch: '<S10>/Switch' */
 166:HANcoder_E407_TTA_CombineModel.c ****     if (canActive) {
 167:HANcoder_E407_TTA_CombineModel.c ****       /* Switch: '<S10>/Switch' incorporates:
 168:HANcoder_E407_TTA_CombineModel.c ****        *  Constant: '<S10>/Constant2'
 169:HANcoder_E407_TTA_CombineModel.c ****        *  DataStoreRead: '<S10>/Data Store Read'
 170:HANcoder_E407_TTA_CombineModel.c ****        *  Sum: '<S10>/Sum1'
 171:HANcoder_E407_TTA_CombineModel.c ****        */
 172:HANcoder_E407_TTA_CombineModel.c ****       local_ticks_interrupt = (uint16_T)((uint32_T)rtDWork.Local_Ticks +
 173:HANcoder_E407_TTA_CombineModel.c ****         ((uint16_T)1U));
 174:HANcoder_E407_TTA_CombineModel.c ****     } else {
 175:HANcoder_E407_TTA_CombineModel.c ****       /* Switch: '<S10>/Switch' incorporates:
 176:HANcoder_E407_TTA_CombineModel.c ****        *  DataStoreRead: '<S10>/Data Store Read1'
 177:HANcoder_E407_TTA_CombineModel.c ****        */
 178:HANcoder_E407_TTA_CombineModel.c ****       local_ticks_interrupt = rtDWork.Local_Ticks;
 179:HANcoder_E407_TTA_CombineModel.c ****     }
 180:HANcoder_E407_TTA_CombineModel.c **** 
 181:HANcoder_E407_TTA_CombineModel.c ****     /* End of Switch: '<S10>/Switch' */
 182:HANcoder_E407_TTA_CombineModel.c **** 
 183:HANcoder_E407_TTA_CombineModel.c ****     /* DataStoreWrite: '<S10>/Data Store Write' */
 184:HANcoder_E407_TTA_CombineModel.c ****     rtDWork.Local_Ticks = local_ticks_interrupt;
 185:HANcoder_E407_TTA_CombineModel.c **** 
 186:HANcoder_E407_TTA_CombineModel.c ****     /* DataStoreRead: '<S10>/Data Store Read3' */
 187:HANcoder_E407_TTA_CombineModel.c ****     setSlotTime = rtDWork.SlotTime;
 188:HANcoder_E407_TTA_CombineModel.c **** 
 189:HANcoder_E407_TTA_CombineModel.c ****     /* RelationalOperator: '<S10>/Equal' incorporates:
 190:HANcoder_E407_TTA_CombineModel.c ****      *  DataStoreRead: '<S10>/Data Store Read2'
 191:HANcoder_E407_TTA_CombineModel.c ****      *  Gain: '<S10>/Gain'
 192:HANcoder_E407_TTA_CombineModel.c ****      */
 193:HANcoder_E407_TTA_CombineModel.c ****     rtb_Equal = (rtDWork.Local_Ticks >= (int32_T)(((uint32_T)((uint8_T)160U) *
 194:HANcoder_E407_TTA_CombineModel.c ****       setSlotTime) >> 4));
 195:HANcoder_E407_TTA_CombineModel.c **** 
 196:HANcoder_E407_TTA_CombineModel.c ****     /* Outputs for Triggered SubSystem: '<S10>/Enabled Subsystem' incorporates:
 197:HANcoder_E407_TTA_CombineModel.c ****      *  TriggerPort: '<S17>/Trigger'
 198:HANcoder_E407_TTA_CombineModel.c ****      */
 199:HANcoder_E407_TTA_CombineModel.c ****     if (rtb_Equal && (rtPrevZCSigState.EnabledSubsystem_Trig_ZCE != POS_ZCSIG))
 200:HANcoder_E407_TTA_CombineModel.c ****     {
 201:HANcoder_E407_TTA_CombineModel.c ****       /* Switch: '<S17>/Switch' incorporates:
 202:HANcoder_E407_TTA_CombineModel.c ****        *  Constant: '<S17>/Constant1'
 203:HANcoder_E407_TTA_CombineModel.c ****        *  DataStoreRead: '<S17>/Data Store Read1'
 204:HANcoder_E407_TTA_CombineModel.c ****        *  DataTypeConversion: '<S17>/Cast'
 205:HANcoder_E407_TTA_CombineModel.c ****        *  RelationalOperator: '<S17>/Equal'
 206:HANcoder_E407_TTA_CombineModel.c ****        */
 207:HANcoder_E407_TTA_CombineModel.c ****       if (rtDWork.slot < (uint8_T)matrixRows) {
 208:HANcoder_E407_TTA_CombineModel.c ****         /* Switch: '<S17>/Switch' incorporates:
 209:HANcoder_E407_TTA_CombineModel.c ****          *  Constant: '<S17>/Constant'
 210:HANcoder_E407_TTA_CombineModel.c ****          *  DataStoreRead: '<S17>/Data Store Read'
 211:HANcoder_E407_TTA_CombineModel.c ****          *  Sum: '<S17>/Plus'
 212:HANcoder_E407_TTA_CombineModel.c ****          */
 213:HANcoder_E407_TTA_CombineModel.c ****         slotSelected = (uint8_T)((uint32_T)rtDWork.slot + ((uint8_T)1U));
 214:HANcoder_E407_TTA_CombineModel.c ****       } else {
 215:HANcoder_E407_TTA_CombineModel.c ****         /* Switch: '<S17>/Switch' incorporates:
 216:HANcoder_E407_TTA_CombineModel.c ****          *  Constant: '<S17>/Constant2'
 217:HANcoder_E407_TTA_CombineModel.c ****          */
 218:HANcoder_E407_TTA_CombineModel.c ****         slotSelected = (uint8_T)1.0;
 219:HANcoder_E407_TTA_CombineModel.c ****       }
 220:HANcoder_E407_TTA_CombineModel.c **** 
 221:HANcoder_E407_TTA_CombineModel.c ****       /* End of Switch: '<S17>/Switch' */
 222:HANcoder_E407_TTA_CombineModel.c **** 
 223:HANcoder_E407_TTA_CombineModel.c ****       /* DataStoreWrite: '<S17>/Data Store Write' */
 224:HANcoder_E407_TTA_CombineModel.c ****       rtDWork.slot = slotSelected;
 225:HANcoder_E407_TTA_CombineModel.c **** 
 226:HANcoder_E407_TTA_CombineModel.c ****       /* DataStoreWrite: '<S17>/Data Store Write1' incorporates:
 227:HANcoder_E407_TTA_CombineModel.c ****        *  Constant: '<S17>/Constant3'
 228:HANcoder_E407_TTA_CombineModel.c ****        */
 229:HANcoder_E407_TTA_CombineModel.c ****       rtDWork.Local_Ticks = ((uint16_T)0U);
 230:HANcoder_E407_TTA_CombineModel.c ****     }
 231:HANcoder_E407_TTA_CombineModel.c **** 
 232:HANcoder_E407_TTA_CombineModel.c ****     rtPrevZCSigState.EnabledSubsystem_Trig_ZCE = rtb_Equal;
 233:HANcoder_E407_TTA_CombineModel.c **** 
 234:HANcoder_E407_TTA_CombineModel.c ****     /* End of Outputs for SubSystem: '<S10>/Enabled Subsystem' */
 235:HANcoder_E407_TTA_CombineModel.c ****     /* M-S-Function: '<S18>/Level-2 M-file S-Function' */
 236:HANcoder_E407_TTA_CombineModel.c ****     /* read 16-bit free running counter timestamp of the last output compare event */
 237:HANcoder_E407_TTA_CombineModel.c ****     rtb_Level2MfileSFunction = TimeoutGetLastEventCounter(TIMEOUT_TIM4_PIN_PD12);
 238:HANcoder_E407_TTA_CombineModel.c **** 
 239:HANcoder_E407_TTA_CombineModel.c ****     /* Sum: '<S10>/Sum' incorporates:
 240:HANcoder_E407_TTA_CombineModel.c ****      *  Constant: '<S10>/Constant'
 241:HANcoder_E407_TTA_CombineModel.c ****      */
 242:HANcoder_E407_TTA_CombineModel.c ****     rtB.Sum = (uint16_T)((uint32_T)rtb_Level2MfileSFunction + ((uint16_T)1000U));
 243:HANcoder_E407_TTA_CombineModel.c **** 
 244:HANcoder_E407_TTA_CombineModel.c ****     /* Update for M-S-Function: '<S19>/Level-2 M-file S-Function' incorporates:
 245:HANcoder_E407_TTA_CombineModel.c ****      *  Constant: '<S10>/Constant1'
 246:HANcoder_E407_TTA_CombineModel.c ****      */
 247:HANcoder_E407_TTA_CombineModel.c ****     /* schedule the next output compare event */
 248:HANcoder_E407_TTA_CombineModel.c ****     TimeoutScheduleCompareEvent(TIMEOUT_TIM4_PIN_PD12, rtB.Sum, (tTimeoutAction)
 249:HANcoder_E407_TTA_CombineModel.c ****       ((uint8_T)3U));
 250:HANcoder_E407_TTA_CombineModel.c ****   }
 251:HANcoder_E407_TTA_CombineModel.c **** }
 252:HANcoder_E407_TTA_CombineModel.c **** 
 253:HANcoder_E407_TTA_CombineModel.c **** void PwmoutIRQ_PWMOUT_MODULE_TIM14(void)
 254:HANcoder_E407_TTA_CombineModel.c **** {
  29              		.loc 1 254 1 view -0
  30              		.cfi_startproc
  31              		@ args = 0, pretend = 0, frame = 0
  32              		@ frame_needed = 0, uses_anonymous_args = 0
  33              		@ link register save eliminated.
 255:HANcoder_E407_TTA_CombineModel.c **** }
  34              		.loc 1 255 1 view .LVU1
  35 0000 7047     		bx	lr
  36              		.cfi_endproc
  37              	.LFE114:
  39              		.global	__aeabi_d2uiz
  40 0002 00BF     		.section	.text.TimeoutEventIRQ_TIMEOUT_TIM4_PIN_PD12,"ax",%progbits
  41              		.align	1
  42              		.p2align 2,,3
  43              		.global	TimeoutEventIRQ_TIMEOUT_TIM4_PIN_PD12
  44              		.syntax unified
  45              		.thumb
  46              		.thumb_func
  48              	TimeoutEventIRQ_TIMEOUT_TIM4_PIN_PD12:
  49              	.LFB113:
 155:HANcoder_E407_TTA_CombineModel.c ****   /* Output and update for function-call system: '<S1>/Local Time generation' */
  50              		.loc 1 155 1 view -0
  51              		.cfi_startproc
  52              		@ args = 0, pretend = 0, frame = 0
  53              		@ frame_needed = 0, uses_anonymous_args = 0
  54              	.LBB50:
 159:HANcoder_E407_TTA_CombineModel.c ****     boolean_T rtb_Equal;
  55              		.loc 1 159 5 view .LVU3
 160:HANcoder_E407_TTA_CombineModel.c **** 
  56              		.loc 1 160 5 view .LVU4
 163:HANcoder_E407_TTA_CombineModel.c **** 
  57              		.loc 1 163 5 view .LVU5
  58              	.LBE50:
 155:HANcoder_E407_TTA_CombineModel.c ****   /* Output and update for function-call system: '<S1>/Local Time generation' */
  59              		.loc 1 155 1 is_stmt 0 view .LVU6
  60 0000 2DE9F041 		push	{r4, r5, r6, r7, r8, lr}
  61              		.cfi_def_cfa_offset 24
  62              		.cfi_offset 4, -24
  63              		.cfi_offset 5, -20
  64              		.cfi_offset 6, -16
  65              		.cfi_offset 7, -12
  66              		.cfi_offset 8, -8
  67              		.cfi_offset 14, -4
  68              	.LBB51:
 163:HANcoder_E407_TTA_CombineModel.c **** 
  69              		.loc 1 163 20 view .LVU7
  70 0004 214C     		ldr	r4, .L15
 163:HANcoder_E407_TTA_CombineModel.c **** 
  71              		.loc 1 163 15 view .LVU8
  72 0006 224A     		ldr	r2, .L15+4
 163:HANcoder_E407_TTA_CombineModel.c **** 
  73              		.loc 1 163 20 view .LVU9
  74 0008 637A     		ldrb	r3, [r4, #9]	@ zero_extendqisi2
 172:HANcoder_E407_TTA_CombineModel.c ****         ((uint16_T)1U));
  75              		.loc 1 172 59 view .LVU10
  76 000a 224D     		ldr	r5, .L15+8
 163:HANcoder_E407_TTA_CombineModel.c **** 
  77              		.loc 1 163 15 view .LVU11
  78 000c 1370     		strb	r3, [r2]
 166:HANcoder_E407_TTA_CombineModel.c ****       /* Switch: '<S10>/Switch' incorporates:
  79              		.loc 1 166 5 is_stmt 1 view .LVU12
 172:HANcoder_E407_TTA_CombineModel.c ****         ((uint16_T)1U));
  80              		.loc 1 172 31 is_stmt 0 view .LVU13
  81 000e B5F8C020 		ldrh	r2, [r5, #192]
 166:HANcoder_E407_TTA_CombineModel.c ****       /* Switch: '<S10>/Switch' incorporates:
  82              		.loc 1 166 8 view .LVU14
  83 0012 0BB1     		cbz	r3, .L5
 172:HANcoder_E407_TTA_CombineModel.c ****         ((uint16_T)1U));
  84              		.loc 1 172 7 is_stmt 1 view .LVU15
 172:HANcoder_E407_TTA_CombineModel.c ****         ((uint16_T)1U));
  85              		.loc 1 172 31 is_stmt 0 view .LVU16
  86 0014 0132     		adds	r2, r2, #1
  87 0016 92B2     		uxth	r2, r2
  88              	.L5:
  89 0018 1F49     		ldr	r1, .L15+12
 187:HANcoder_E407_TTA_CombineModel.c **** 
  90              		.loc 1 187 26 view .LVU17
  91 001a 95F8CD30 		ldrb	r3, [r5, #205]	@ zero_extendqisi2
  92 001e 0A80     		strh	r2, [r1]	@ movhi
 184:HANcoder_E407_TTA_CombineModel.c **** 
  93              		.loc 1 184 5 is_stmt 1 view .LVU18
 187:HANcoder_E407_TTA_CombineModel.c **** 
  94              		.loc 1 187 5 view .LVU19
 187:HANcoder_E407_TTA_CombineModel.c **** 
  95              		.loc 1 187 17 is_stmt 0 view .LVU20
  96 0020 1E49     		ldr	r1, .L15+16
 199:HANcoder_E407_TTA_CombineModel.c ****     {
  97              		.loc 1 199 39 view .LVU21
  98 0022 1F4E     		ldr	r6, .L15+20
 187:HANcoder_E407_TTA_CombineModel.c **** 
  99              		.loc 1 187 17 view .LVU22
 100 0024 0B70     		strb	r3, [r1]
 193:HANcoder_E407_TTA_CombineModel.c ****       setSlotTime) >> 4));
 101              		.loc 1 193 5 is_stmt 1 view .LVU23
 193:HANcoder_E407_TTA_CombineModel.c ****       setSlotTime) >> 4));
 102              		.loc 1 193 78 is_stmt 0 view .LVU24
 103 0026 03EB8303 		add	r3, r3, r3, lsl #2
 193:HANcoder_E407_TTA_CombineModel.c ****       setSlotTime) >> 4));
 104              		.loc 1 193 38 view .LVU25
 105 002a B2EB430F 		cmp	r2, r3, lsl #1
 184:HANcoder_E407_TTA_CombineModel.c **** 
 106              		.loc 1 184 25 view .LVU26
 107 002e A5F8C020 		strh	r2, [r5, #192]	@ movhi
 193:HANcoder_E407_TTA_CombineModel.c ****       setSlotTime) >> 4));
 108              		.loc 1 193 15 view .LVU27
 109 0032 ACBF     		ite	ge
 110 0034 4FF00108 		movge	r8, #1
 111 0038 4FF00008 		movlt	r8, #0
 112              	.LVL0:
 199:HANcoder_E407_TTA_CombineModel.c ****     {
 113              		.loc 1 199 5 is_stmt 1 view .LVU28
 199:HANcoder_E407_TTA_CombineModel.c ****     {
 114              		.loc 1 199 8 is_stmt 0 view .LVU29
 115 003c 17DB     		blt	.L6
 199:HANcoder_E407_TTA_CombineModel.c ****     {
 116              		.loc 1 199 19 discriminator 1 view .LVU30
 117 003e 737B     		ldrb	r3, [r6, #13]	@ zero_extendqisi2
 118 0040 012B     		cmp	r3, #1
 119 0042 14D0     		beq	.L6
 207:HANcoder_E407_TTA_CombineModel.c ****         /* Switch: '<S17>/Switch' incorporates:
 120              		.loc 1 207 7 is_stmt 1 view .LVU31
 207:HANcoder_E407_TTA_CombineModel.c ****         /* Switch: '<S17>/Switch' incorporates:
 121              		.loc 1 207 26 is_stmt 0 view .LVU32
 122 0044 174B     		ldr	r3, .L15+24
 207:HANcoder_E407_TTA_CombineModel.c ****         /* Switch: '<S17>/Switch' incorporates:
 123              		.loc 1 207 18 view .LVU33
 124 0046 95F8CC70 		ldrb	r7, [r5, #204]	@ zero_extendqisi2
 207:HANcoder_E407_TTA_CombineModel.c ****         /* Switch: '<S17>/Switch' incorporates:
 125              		.loc 1 207 26 view .LVU34
 126 004a D3E90001 		ldrd	r0, [r3]
 127 004e FFF7FEFF 		bl	__aeabi_d2uiz
 128              	.LVL1:
 207:HANcoder_E407_TTA_CombineModel.c ****         /* Switch: '<S17>/Switch' incorporates:
 129              		.loc 1 207 10 view .LVU35
 130 0052 C0B2     		uxtb	r0, r0
 131 0054 B842     		cmp	r0, r7
 213:HANcoder_E407_TTA_CombineModel.c ****       } else {
 132              		.loc 1 213 9 is_stmt 1 view .LVU36
 213:HANcoder_E407_TTA_CombineModel.c ****       } else {
 133              		.loc 1 213 24 is_stmt 0 view .LVU37
 134 0056 88BF     		it	hi
 135 0058 7B1C     		addhi	r3, r7, #1
 136 005a 134A     		ldr	r2, .L15+28
 137 005c 8CBF     		ite	hi
 138 005e DBB2     		uxtbhi	r3, r3
 218:HANcoder_E407_TTA_CombineModel.c ****       }
 139              		.loc 1 218 22 view .LVU38
 140 0060 0123     		movls	r3, #1
 224:HANcoder_E407_TTA_CombineModel.c **** 
 141              		.loc 1 224 20 view .LVU39
 142 0062 85F8CC30 		strb	r3, [r5, #204]
 143 0066 1370     		strb	r3, [r2]
 224:HANcoder_E407_TTA_CombineModel.c **** 
 144              		.loc 1 224 7 is_stmt 1 view .LVU40
 229:HANcoder_E407_TTA_CombineModel.c ****     }
 145              		.loc 1 229 7 view .LVU41
 229:HANcoder_E407_TTA_CombineModel.c ****     }
 146              		.loc 1 229 27 is_stmt 0 view .LVU42
 147 0068 0023     		movs	r3, #0
 148 006a A5F8C030 		strh	r3, [r5, #192]	@ movhi
 149              	.L6:
 232:HANcoder_E407_TTA_CombineModel.c **** 
 150              		.loc 1 232 5 is_stmt 1 view .LVU43
 237:HANcoder_E407_TTA_CombineModel.c **** 
 151              		.loc 1 237 32 is_stmt 0 view .LVU44
 152 006e 0720     		movs	r0, #7
 232:HANcoder_E407_TTA_CombineModel.c **** 
 153              		.loc 1 232 48 view .LVU45
 154 0070 86F80D80 		strb	r8, [r6, #13]
 237:HANcoder_E407_TTA_CombineModel.c **** 
 155              		.loc 1 237 5 is_stmt 1 view .LVU46
 237:HANcoder_E407_TTA_CombineModel.c **** 
 156              		.loc 1 237 32 is_stmt 0 view .LVU47
 157 0074 FFF7FEFF 		bl	TimeoutGetLastEventCounter
 158              	.LVL2:
 242:HANcoder_E407_TTA_CombineModel.c **** 
 159              		.loc 1 242 5 is_stmt 1 view .LVU48
 242:HANcoder_E407_TTA_CombineModel.c **** 
 160              		.loc 1 242 15 is_stmt 0 view .LVU49
 161 0078 00F57A70 		add	r0, r0, #1000
 162              	.LVL3:
 242:HANcoder_E407_TTA_CombineModel.c **** 
 163              		.loc 1 242 15 view .LVU50
 164 007c 81B2     		uxth	r1, r0
 242:HANcoder_E407_TTA_CombineModel.c **** 
 165              		.loc 1 242 13 view .LVU51
 166 007e 6180     		strh	r1, [r4, #2]	@ movhi
 248:HANcoder_E407_TTA_CombineModel.c ****       ((uint8_T)3U));
 167              		.loc 1 248 5 is_stmt 1 view .LVU52
 168 0080 0322     		movs	r2, #3
 169              	.LBE51:
 251:HANcoder_E407_TTA_CombineModel.c **** 
 170              		.loc 1 251 1 is_stmt 0 view .LVU53
 171 0082 BDE8F041 		pop	{r4, r5, r6, r7, r8, lr}
 172              		.cfi_restore 14
 173              		.cfi_restore 8
 174              		.cfi_restore 7
 175              		.cfi_restore 6
 176              		.cfi_restore 5
 177              		.cfi_restore 4
 178              		.cfi_def_cfa_offset 0
 179              	.LVL4:
 180              	.LBB52:
 248:HANcoder_E407_TTA_CombineModel.c ****       ((uint8_T)3U));
 181              		.loc 1 248 5 view .LVU54
 182 0086 0720     		movs	r0, #7
 183 0088 FFF7FEBF 		b	TimeoutScheduleCompareEvent
 184              	.LVL5:
 185              	.L16:
 186              		.align	2
 187              	.L15:
 188 008c 00000000 		.word	.LANCHOR0
 189 0090 00000000 		.word	.LANCHOR1
 190 0094 00000000 		.word	.LANCHOR2
 191 0098 00000000 		.word	.LANCHOR3
 192 009c 00000000 		.word	.LANCHOR4
 193 00a0 00000000 		.word	.LANCHOR5
 194 00a4 00000000 		.word	.LANCHOR6
 195 00a8 00000000 		.word	.LANCHOR7
 196              	.LBE52:
 197              		.cfi_endproc
 198              	.LFE113:
 200              		.section	.text.TimeoutOverflowIRQ_TIMEOUT_MODULE_TIM4,"ax",%progbits
 201              		.align	1
 202              		.p2align 2,,3
 203              		.global	TimeoutOverflowIRQ_TIMEOUT_MODULE_TIM4
 204              		.syntax unified
 205              		.thumb
 206              		.thumb_func
 208              	TimeoutOverflowIRQ_TIMEOUT_MODULE_TIM4:
 209              	.LFB128:
 210              		.cfi_startproc
 211              		@ args = 0, pretend = 0, frame = 0
 212              		@ frame_needed = 0, uses_anonymous_args = 0
 213              		@ link register save eliminated.
 214 0000 7047     		bx	lr
 215              		.cfi_endproc
 216              	.LFE128:
 218 0002 00BF     		.section	.text.ByteSwap_x,"ax",%progbits
 219              		.align	1
 220              		.p2align 2,,3
 221              		.global	ByteSwap_x
 222              		.syntax unified
 223              		.thumb
 224              		.thumb_func
 226              	ByteSwap_x:
 227              	.LVL6:
 228              	.LFB112:
 145:HANcoder_E407_TTA_CombineModel.c ****   int i = 0;
 229              		.loc 1 145 1 is_stmt 1 view -0
 230              		.cfi_startproc
 231              		@ args = 0, pretend = 0, frame = 0
 232              		@ frame_needed = 0, uses_anonymous_args = 0
 146:HANcoder_E407_TTA_CombineModel.c ****   int j = n-1;
 233              		.loc 1 146 3 view .LVU56
 147:HANcoder_E407_TTA_CombineModel.c ****   while (i<j) {
 234              		.loc 1 147 3 view .LVU57
 145:HANcoder_E407_TTA_CombineModel.c ****   int i = 0;
 235              		.loc 1 145 1 is_stmt 0 view .LVU58
 236 0000 70B5     		push	{r4, r5, r6, lr}
 237              		.cfi_def_cfa_offset 16
 238              		.cfi_offset 4, -16
 239              		.cfi_offset 5, -12
 240              		.cfi_offset 6, -8
 241              		.cfi_offset 14, -4
 147:HANcoder_E407_TTA_CombineModel.c ****   while (i<j) {
 242              		.loc 1 147 12 view .LVU59
 243 0002 01F1FF3E 		add	lr, r1, #-1
 244              	.LVL7:
 148:HANcoder_E407_TTA_CombineModel.c ****     swap(&b[i], &b[j]);
 245              		.loc 1 148 3 is_stmt 1 view .LVU60
 148:HANcoder_E407_TTA_CombineModel.c ****     swap(&b[i], &b[j]);
 246              		.loc 1 148 9 view .LVU61
 247 0006 BEF1000F 		cmp	lr, #0
 248 000a 15DD     		ble	.L18
 249 000c 00F1FF3C 		add	ip, r0, #-1
 250 0010 8644     		add	lr, lr, r0
 251              	.LVL8:
 148:HANcoder_E407_TTA_CombineModel.c ****     swap(&b[i], &b[j]);
 252              		.loc 1 148 9 is_stmt 0 view .LVU62
 253 0012 6FF00106 		mvn	r6, #1
 254              	.LVL9:
 255              	.L20:
 149:HANcoder_E407_TTA_CombineModel.c ****     i++, j--;
 256              		.loc 1 149 5 is_stmt 1 view .LVU63
 257              	.LBB53:
 258              	.LBI53:
 132:HANcoder_E407_TTA_CombineModel.c **** {
 259              		.loc 1 132 13 view .LVU64
 260              	.LBB54:
 134:HANcoder_E407_TTA_CombineModel.c ****   *a = *b;
 261              		.loc 1 134 3 view .LVU65
 262 0016 6246     		mov	r2, ip
 134:HANcoder_E407_TTA_CombineModel.c ****   *a = *b;
 263              		.loc 1 134 17 is_stmt 0 view .LVU66
 264 0018 1CF8014F 		ldrb	r4, [ip, #1]!	@ zero_extendqisi2
 265              	.LVL10:
 135:HANcoder_E407_TTA_CombineModel.c ****   *b = i;
 266              		.loc 1 135 3 is_stmt 1 view .LVU67
 135:HANcoder_E407_TTA_CombineModel.c ****   *b = i;
 267              		.loc 1 135 8 is_stmt 0 view .LVU68
 268 001c 9EF80050 		ldrb	r5, [lr]	@ zero_extendqisi2
 135:HANcoder_E407_TTA_CombineModel.c ****   *b = i;
 269              		.loc 1 135 6 view .LVU69
 270 0020 8CF80050 		strb	r5, [ip]
 136:HANcoder_E407_TTA_CombineModel.c **** }                                      /*** end of swap ***/
 271              		.loc 1 136 3 is_stmt 1 view .LVU70
 272              	.LBE54:
 273              	.LBE53:
 148:HANcoder_E407_TTA_CombineModel.c ****     swap(&b[i], &b[j]);
 274              		.loc 1 148 9 is_stmt 0 view .LVU71
 275 0024 A6EB0C03 		sub	r3, r6, ip
 276 0028 0232     		adds	r2, r2, #2
 277              	.LVL11:
 148:HANcoder_E407_TTA_CombineModel.c ****     swap(&b[i], &b[j]);
 278              		.loc 1 148 9 view .LVU72
 279 002a 0344     		add	r3, r3, r0
 280 002c 121A     		subs	r2, r2, r0
 281              	.LVL12:
 148:HANcoder_E407_TTA_CombineModel.c ****     swap(&b[i], &b[j]);
 282              		.loc 1 148 9 view .LVU73
 283 002e 0B44     		add	r3, r3, r1
 284 0030 9A42     		cmp	r2, r3
 285              	.LBB56:
 286              	.LBB55:
 136:HANcoder_E407_TTA_CombineModel.c **** }                                      /*** end of swap ***/
 287              		.loc 1 136 6 view .LVU74
 288 0032 0EF80149 		strb	r4, [lr], #-1
 289              	.LVL13:
 136:HANcoder_E407_TTA_CombineModel.c **** }                                      /*** end of swap ***/
 290              		.loc 1 136 6 view .LVU75
 291              	.LBE55:
 292              	.LBE56:
 150:HANcoder_E407_TTA_CombineModel.c ****   }
 293              		.loc 1 150 5 is_stmt 1 view .LVU76
 148:HANcoder_E407_TTA_CombineModel.c ****     swap(&b[i], &b[j]);
 294              		.loc 1 148 9 view .LVU77
 295 0036 EEDB     		blt	.L20
 296              	.LVL14:
 297              	.L18:
 152:HANcoder_E407_TTA_CombineModel.c **** 
 298              		.loc 1 152 1 is_stmt 0 view .LVU78
 299 0038 70BD     		pop	{r4, r5, r6, pc}
 300              		.cfi_endproc
 301              	.LFE112:
 303 003a 00BF     		.section	.text.EnabledSubsystem,"ax",%progbits
 304              		.align	1
 305              		.p2align 2,,3
 306              		.global	EnabledSubsystem
 307              		.syntax unified
 308              		.thumb
 309              		.thumb_func
 311              	EnabledSubsystem:
 312              	.LVL15:
 313              	.LFB116:
 256:HANcoder_E407_TTA_CombineModel.c **** 
 257:HANcoder_E407_TTA_CombineModel.c **** void TimeoutOverflowIRQ_TIMEOUT_MODULE_TIM4(void)
 258:HANcoder_E407_TTA_CombineModel.c **** {
 259:HANcoder_E407_TTA_CombineModel.c **** }
 260:HANcoder_E407_TTA_CombineModel.c **** 
 261:HANcoder_E407_TTA_CombineModel.c **** /*
 262:HANcoder_E407_TTA_CombineModel.c ****  * Output and update for enable system:
 263:HANcoder_E407_TTA_CombineModel.c ****  *    '<S38>/Enabled Subsystem'
 264:HANcoder_E407_TTA_CombineModel.c ****  *    '<S41>/Enabled Subsystem'
 265:HANcoder_E407_TTA_CombineModel.c ****  *    '<S44>/Enabled Subsystem'
 266:HANcoder_E407_TTA_CombineModel.c ****  *    '<S117>/Enabled Subsystem'
 267:HANcoder_E407_TTA_CombineModel.c ****  *    '<S121>/Enabled Subsystem'
 268:HANcoder_E407_TTA_CombineModel.c ****  *    '<S124>/Enabled Subsystem'
 269:HANcoder_E407_TTA_CombineModel.c ****  *    '<S127>/Enabled Subsystem'
 270:HANcoder_E407_TTA_CombineModel.c ****  *    '<S136>/Enabled Subsystem'
 271:HANcoder_E407_TTA_CombineModel.c ****  *    '<S146>/Enabled Subsystem'
 272:HANcoder_E407_TTA_CombineModel.c ****  */
 273:HANcoder_E407_TTA_CombineModel.c **** void EnabledSubsystem(int8_T rtu_Enable, uint8_T rtu_In1, uint8_T rtu_In2,
 274:HANcoder_E407_TTA_CombineModel.c ****                       uint8_T rtu_In3, uint8_T rtu_In4, uint8_T rtu_In5, uint8_T
 275:HANcoder_E407_TTA_CombineModel.c ****                       rtu_In6, uint8_T rtu_In7, uint8_T rtu_In8,
 276:HANcoder_E407_TTA_CombineModel.c ****                       rtB_EnabledSubsystem *localB)
 277:HANcoder_E407_TTA_CombineModel.c **** {
 314              		.loc 1 277 1 is_stmt 1 view -0
 315              		.cfi_startproc
 316              		@ args = 24, pretend = 0, frame = 0
 317              		@ frame_needed = 0, uses_anonymous_args = 0
 318              		@ link register save eliminated.
 278:HANcoder_E407_TTA_CombineModel.c ****   uint8_T rtb_In3;
 319              		.loc 1 278 3 view .LVU80
 279:HANcoder_E407_TTA_CombineModel.c ****   uint8_T rtb_In4;
 320              		.loc 1 279 3 view .LVU81
 280:HANcoder_E407_TTA_CombineModel.c ****   uint8_T rtb_In5;
 321              		.loc 1 280 3 view .LVU82
 281:HANcoder_E407_TTA_CombineModel.c ****   uint8_T rtb_In6;
 322              		.loc 1 281 3 view .LVU83
 282:HANcoder_E407_TTA_CombineModel.c ****   uint8_T rtb_In7;
 323              		.loc 1 282 3 view .LVU84
 283:HANcoder_E407_TTA_CombineModel.c ****   uint8_T rtb_In8;
 324              		.loc 1 283 3 view .LVU85
 284:HANcoder_E407_TTA_CombineModel.c **** 
 285:HANcoder_E407_TTA_CombineModel.c ****   /* Outputs for Enabled SubSystem: '<S38>/Enabled Subsystem' incorporates:
 286:HANcoder_E407_TTA_CombineModel.c ****    *  EnablePort: '<S39>/Enable'
 287:HANcoder_E407_TTA_CombineModel.c ****    */
 288:HANcoder_E407_TTA_CombineModel.c ****   if (rtu_Enable > 0) {
 325              		.loc 1 288 3 view .LVU86
 277:HANcoder_E407_TTA_CombineModel.c ****   uint8_T rtb_In3;
 326              		.loc 1 277 1 is_stmt 0 view .LVU87
 327 0000 059B     		ldr	r3, [sp, #20]
 328              	.LVL16:
 329              		.loc 1 288 6 view .LVU88
 330 0002 0028     		cmp	r0, #0
 289:HANcoder_E407_TTA_CombineModel.c ****     /* SignalConversion generated from: '<S39>/In1' */
 290:HANcoder_E407_TTA_CombineModel.c ****     localB->In1 = rtu_In1;
 331              		.loc 1 290 5 is_stmt 1 view .LVU89
 332              		.loc 1 290 17 is_stmt 0 view .LVU90
 333 0004 C4BF     		itt	gt
 334 0006 1970     		strbgt	r1, [r3]
 291:HANcoder_E407_TTA_CombineModel.c **** 
 292:HANcoder_E407_TTA_CombineModel.c ****     /* SignalConversion generated from: '<S39>/In2' */
 293:HANcoder_E407_TTA_CombineModel.c ****     localB->In2 = rtu_In2;
 335              		.loc 1 293 5 is_stmt 1 view .LVU91
 336              		.loc 1 293 17 is_stmt 0 view .LVU92
 337 0008 5A70     		strbgt	r2, [r3, #1]
 294:HANcoder_E407_TTA_CombineModel.c **** 
 295:HANcoder_E407_TTA_CombineModel.c ****     /* SignalConversion generated from: '<S39>/In3' */
 296:HANcoder_E407_TTA_CombineModel.c ****     rtb_In3 = rtu_In3;
 338              		.loc 1 296 5 is_stmt 1 view .LVU93
 339              	.LVL17:
 297:HANcoder_E407_TTA_CombineModel.c **** 
 298:HANcoder_E407_TTA_CombineModel.c ****     /* SignalConversion generated from: '<S39>/In4' */
 299:HANcoder_E407_TTA_CombineModel.c ****     rtb_In4 = rtu_In4;
 340              		.loc 1 299 5 view .LVU94
 300:HANcoder_E407_TTA_CombineModel.c **** 
 301:HANcoder_E407_TTA_CombineModel.c ****     /* SignalConversion generated from: '<S39>/In5' */
 302:HANcoder_E407_TTA_CombineModel.c ****     rtb_In5 = rtu_In5;
 341              		.loc 1 302 5 view .LVU95
 303:HANcoder_E407_TTA_CombineModel.c **** 
 304:HANcoder_E407_TTA_CombineModel.c ****     /* SignalConversion generated from: '<S39>/In6' */
 305:HANcoder_E407_TTA_CombineModel.c ****     rtb_In6 = rtu_In6;
 342              		.loc 1 305 5 view .LVU96
 306:HANcoder_E407_TTA_CombineModel.c **** 
 307:HANcoder_E407_TTA_CombineModel.c ****     /* SignalConversion generated from: '<S39>/In7' */
 308:HANcoder_E407_TTA_CombineModel.c ****     rtb_In7 = rtu_In7;
 343              		.loc 1 308 5 view .LVU97
 309:HANcoder_E407_TTA_CombineModel.c **** 
 310:HANcoder_E407_TTA_CombineModel.c ****     /* SignalConversion generated from: '<S39>/In8' */
 311:HANcoder_E407_TTA_CombineModel.c ****     rtb_In8 = rtu_In8;
 344              		.loc 1 311 5 view .LVU98
 312:HANcoder_E407_TTA_CombineModel.c ****   }
 313:HANcoder_E407_TTA_CombineModel.c **** 
 314:HANcoder_E407_TTA_CombineModel.c ****   /* End of Outputs for SubSystem: '<S38>/Enabled Subsystem' */
 315:HANcoder_E407_TTA_CombineModel.c **** }
 345              		.loc 1 315 1 is_stmt 0 view .LVU99
 346 000a 7047     		bx	lr
 347              		.cfi_endproc
 348              	.LFE116:
 350              		.section	.text.MMBS1_RX_Disable,"ax",%progbits
 351              		.align	1
 352              		.p2align 2,,3
 353              		.global	MMBS1_RX_Disable
 354              		.syntax unified
 355              		.thumb
 356              		.thumb_func
 358              	MMBS1_RX_Disable:
 359              	.LVL18:
 360              	.LFB117:
 316:HANcoder_E407_TTA_CombineModel.c **** 
 317:HANcoder_E407_TTA_CombineModel.c **** /*
 318:HANcoder_E407_TTA_CombineModel.c ****  * Disable for enable system:
 319:HANcoder_E407_TTA_CombineModel.c ****  *    '<S11>/MMBS1_RX'
 320:HANcoder_E407_TTA_CombineModel.c ****  *    '<S11>/SSTM1_RX'
 321:HANcoder_E407_TTA_CombineModel.c ****  *    '<S11>/TRCK1_ID2_RX'
 322:HANcoder_E407_TTA_CombineModel.c ****  *    '<S11>/TRCK1_RX'
 323:HANcoder_E407_TTA_CombineModel.c ****  */
 324:HANcoder_E407_TTA_CombineModel.c **** void MMBS1_RX_Disable(rtDW_MMBS1_RX *localDW)
 325:HANcoder_E407_TTA_CombineModel.c **** {
 361              		.loc 1 325 1 is_stmt 1 view -0
 362              		.cfi_startproc
 363              		@ args = 0, pretend = 0, frame = 0
 364              		@ frame_needed = 0, uses_anonymous_args = 0
 365              		@ link register save eliminated.
 326:HANcoder_E407_TTA_CombineModel.c ****   localDW->MMBS1_RX_MODE = false;
 366              		.loc 1 326 3 view .LVU101
 367              		.loc 1 326 26 is_stmt 0 view .LVU102
 368 0000 0023     		movs	r3, #0
 369 0002 0370     		strb	r3, [r0]
 327:HANcoder_E407_TTA_CombineModel.c **** }
 370              		.loc 1 327 1 view .LVU103
 371 0004 7047     		bx	lr
 372              		.cfi_endproc
 373              	.LFE117:
 375 0006 00BF     		.section	.text.MMBS1_RX_Start,"ax",%progbits
 376              		.align	1
 377              		.p2align 2,,3
 378              		.global	MMBS1_RX_Start
 379              		.syntax unified
 380              		.thumb
 381              		.thumb_func
 383              	MMBS1_RX_Start:
 384              	.LVL19:
 385              	.LFB118:
 328:HANcoder_E407_TTA_CombineModel.c **** 
 329:HANcoder_E407_TTA_CombineModel.c **** /*
 330:HANcoder_E407_TTA_CombineModel.c ****  * Start for enable system:
 331:HANcoder_E407_TTA_CombineModel.c ****  *    '<S11>/MMBS1_RX'
 332:HANcoder_E407_TTA_CombineModel.c ****  *    '<S11>/SSTM1_RX'
 333:HANcoder_E407_TTA_CombineModel.c ****  *    '<S11>/TRCK1_ID2_RX'
 334:HANcoder_E407_TTA_CombineModel.c ****  *    '<S11>/TRCK1_RX'
 335:HANcoder_E407_TTA_CombineModel.c ****  */
 336:HANcoder_E407_TTA_CombineModel.c **** void MMBS1_RX_Start(uint32_T rtu_In1)
 337:HANcoder_E407_TTA_CombineModel.c **** {
 386              		.loc 1 337 1 is_stmt 1 view -0
 387              		.cfi_startproc
 388              		@ args = 0, pretend = 0, frame = 0
 389              		@ frame_needed = 0, uses_anonymous_args = 0
 390              		@ link register save eliminated.
 338:HANcoder_E407_TTA_CombineModel.c ****   /* Start for M-S-Function: '<S38>/S-Function' */
 339:HANcoder_E407_TTA_CombineModel.c **** 
 340:HANcoder_E407_TTA_CombineModel.c ****   /* register a CAN storage buffer for the message with this ID */
 341:HANcoder_E407_TTA_CombineModel.c ****   CanIoCreateMessageReceivedStorage(0, rtu_In1);
 391              		.loc 1 341 3 view .LVU105
 337:HANcoder_E407_TTA_CombineModel.c ****   /* Start for M-S-Function: '<S38>/S-Function' */
 392              		.loc 1 337 1 is_stmt 0 view .LVU106
 393 0000 0146     		mov	r1, r0
 394              		.loc 1 341 3 view .LVU107
 395 0002 0020     		movs	r0, #0
 396              	.LVL20:
 397              		.loc 1 341 3 view .LVU108
 398 0004 FFF7FEBF 		b	CanIoCreateMessageReceivedStorage
 399              	.LVL21:
 400              		.loc 1 341 3 view .LVU109
 401              		.cfi_endproc
 402              	.LFE118:
 404              		.section	.text.MMBS1_RX,"ax",%progbits
 405              		.align	1
 406              		.p2align 2,,3
 407              		.global	MMBS1_RX
 408              		.syntax unified
 409              		.thumb
 410              		.thumb_func
 412              	MMBS1_RX:
 413              	.LVL22:
 414              	.LFB119:
 342:HANcoder_E407_TTA_CombineModel.c **** }
 343:HANcoder_E407_TTA_CombineModel.c **** 
 344:HANcoder_E407_TTA_CombineModel.c **** /*
 345:HANcoder_E407_TTA_CombineModel.c ****  * Outputs for enable system:
 346:HANcoder_E407_TTA_CombineModel.c ****  *    '<S11>/MMBS1_RX'
 347:HANcoder_E407_TTA_CombineModel.c ****  *    '<S11>/SSTM1_RX'
 348:HANcoder_E407_TTA_CombineModel.c ****  *    '<S11>/TRCK1_ID2_RX'
 349:HANcoder_E407_TTA_CombineModel.c ****  *    '<S11>/TRCK1_RX'
 350:HANcoder_E407_TTA_CombineModel.c ****  */
 351:HANcoder_E407_TTA_CombineModel.c **** void MMBS1_RX(boolean_T rtu_Enable, uint32_T rtu_In1, rtB_MMBS1_RX *localB,
 352:HANcoder_E407_TTA_CombineModel.c ****               rtDW_MMBS1_RX *localDW)
 353:HANcoder_E407_TTA_CombineModel.c **** {
 415              		.loc 1 353 1 is_stmt 1 view -0
 416              		.cfi_startproc
 417              		@ args = 0, pretend = 0, frame = 0
 418              		@ frame_needed = 0, uses_anonymous_args = 0
 354:HANcoder_E407_TTA_CombineModel.c ****   /* local block i/o variables */
 355:HANcoder_E407_TTA_CombineModel.c ****   uint8_T rtb_SFunction_o2_n;
 419              		.loc 1 355 3 view .LVU111
 356:HANcoder_E407_TTA_CombineModel.c ****   uint8_T rtb_SFunction_o3_b;
 420              		.loc 1 356 3 view .LVU112
 357:HANcoder_E407_TTA_CombineModel.c ****   uint8_T rtb_SFunction_o4_l;
 421              		.loc 1 357 3 view .LVU113
 358:HANcoder_E407_TTA_CombineModel.c ****   uint8_T rtb_SFunction_o5_e;
 422              		.loc 1 358 3 view .LVU114
 359:HANcoder_E407_TTA_CombineModel.c ****   uint8_T rtb_SFunction_o6_k;
 423              		.loc 1 359 3 view .LVU115
 360:HANcoder_E407_TTA_CombineModel.c ****   uint8_T rtb_SFunction_o7_dj;
 424              		.loc 1 360 3 view .LVU116
 361:HANcoder_E407_TTA_CombineModel.c ****   uint8_T rtb_SFunction_o8_n1;
 425              		.loc 1 361 3 view .LVU117
 362:HANcoder_E407_TTA_CombineModel.c ****   uint8_T rtb_SFunction_o9_o;
 426              		.loc 1 362 3 view .LVU118
 363:HANcoder_E407_TTA_CombineModel.c ****   int8_T rtb_SFunction_o1_g;
 427              		.loc 1 363 3 view .LVU119
 364:HANcoder_E407_TTA_CombineModel.c **** 
 365:HANcoder_E407_TTA_CombineModel.c ****   /* Outputs for Enabled SubSystem: '<S11>/MMBS1_RX' incorporates:
 366:HANcoder_E407_TTA_CombineModel.c ****    *  EnablePort: '<S20>/Enable'
 367:HANcoder_E407_TTA_CombineModel.c ****    */
 368:HANcoder_E407_TTA_CombineModel.c ****   if (rtu_Enable) {
 428              		.loc 1 368 3 view .LVU120
 429              		.loc 1 368 6 is_stmt 0 view .LVU121
 430 0000 20B9     		cbnz	r0, .L39
 431              	.LVL23:
 432              	.LBB65:
 433              	.LBI65:
 351:HANcoder_E407_TTA_CombineModel.c ****               rtDW_MMBS1_RX *localDW)
 434              		.loc 1 351 6 is_stmt 1 view .LVU122
 435              	.LBB66:
 369:HANcoder_E407_TTA_CombineModel.c ****     localDW->MMBS1_RX_MODE = true;
 370:HANcoder_E407_TTA_CombineModel.c **** 
 371:HANcoder_E407_TTA_CombineModel.c ****     /* M-S-Function: '<S38>/S-Function' */
 372:HANcoder_E407_TTA_CombineModel.c **** 
 373:HANcoder_E407_TTA_CombineModel.c ****     /* read the message data and store the new parameter */
 374:HANcoder_E407_TTA_CombineModel.c ****     rtb_SFunction_o1_g = CanIoGetMessage(0, rtu_In1, NULL,
 375:HANcoder_E407_TTA_CombineModel.c ****       &canRxData_0_rtu_In1.uint8_T_info[0], NULL);
 376:HANcoder_E407_TTA_CombineModel.c **** 
 377:HANcoder_E407_TTA_CombineModel.c ****     /* process the message data */
 378:HANcoder_E407_TTA_CombineModel.c ****     if (rtb_SFunction_o1_g > 0) {
 379:HANcoder_E407_TTA_CombineModel.c ****       /* read the data */
 380:HANcoder_E407_TTA_CombineModel.c ****       rtb_SFunction_o2_n = canRxData_0_rtu_In1.uint8_T_info[0];
 381:HANcoder_E407_TTA_CombineModel.c ****       rtb_SFunction_o3_b = canRxData_0_rtu_In1.uint8_T_info[1];
 382:HANcoder_E407_TTA_CombineModel.c ****       rtb_SFunction_o4_l = canRxData_0_rtu_In1.uint8_T_info[2];
 383:HANcoder_E407_TTA_CombineModel.c ****       rtb_SFunction_o5_e = canRxData_0_rtu_In1.uint8_T_info[3];
 384:HANcoder_E407_TTA_CombineModel.c ****       rtb_SFunction_o6_k = canRxData_0_rtu_In1.uint8_T_info[4];
 385:HANcoder_E407_TTA_CombineModel.c ****       rtb_SFunction_o7_dj = canRxData_0_rtu_In1.uint8_T_info[5];
 386:HANcoder_E407_TTA_CombineModel.c ****       rtb_SFunction_o8_n1 = canRxData_0_rtu_In1.uint8_T_info[6];
 387:HANcoder_E407_TTA_CombineModel.c ****       rtb_SFunction_o9_o = canRxData_0_rtu_In1.uint8_T_info[7];
 388:HANcoder_E407_TTA_CombineModel.c ****     }
 389:HANcoder_E407_TTA_CombineModel.c **** 
 390:HANcoder_E407_TTA_CombineModel.c ****     /* Outputs for Enabled SubSystem: '<S38>/Enabled Subsystem' */
 391:HANcoder_E407_TTA_CombineModel.c ****     EnabledSubsystem(rtb_SFunction_o1_g, rtb_SFunction_o2_n, rtb_SFunction_o3_b,
 392:HANcoder_E407_TTA_CombineModel.c ****                      rtb_SFunction_o4_l, rtb_SFunction_o5_e, rtb_SFunction_o6_k,
 393:HANcoder_E407_TTA_CombineModel.c ****                      rtb_SFunction_o7_dj, rtb_SFunction_o8_n1,
 394:HANcoder_E407_TTA_CombineModel.c ****                      rtb_SFunction_o9_o, &localB->EnabledSubsystem_k);
 395:HANcoder_E407_TTA_CombineModel.c **** 
 396:HANcoder_E407_TTA_CombineModel.c ****     /* End of Outputs for SubSystem: '<S38>/Enabled Subsystem' */
 397:HANcoder_E407_TTA_CombineModel.c ****   } else if (localDW->MMBS1_RX_MODE) {
 436              		.loc 1 397 10 view .LVU123
 437              		.loc 1 397 13 is_stmt 0 view .LVU124
 438 0002 1A78     		ldrb	r2, [r3]	@ zero_extendqisi2
 439              	.LVL24:
 440              		.loc 1 397 13 view .LVU125
 441 0004 0AB1     		cbz	r2, .L36
 398:HANcoder_E407_TTA_CombineModel.c ****     MMBS1_RX_Disable(localDW);
 442              		.loc 1 398 5 is_stmt 1 view .LVU126
 443              	.LVL25:
 444              	.LBB67:
 445              	.LBI67:
 324:HANcoder_E407_TTA_CombineModel.c **** {
 446              		.loc 1 324 6 view .LVU127
 447              	.LBB68:
 326:HANcoder_E407_TTA_CombineModel.c **** }
 448              		.loc 1 326 3 view .LVU128
 326:HANcoder_E407_TTA_CombineModel.c **** }
 449              		.loc 1 326 26 is_stmt 0 view .LVU129
 450 0006 1870     		strb	r0, [r3]
 451              	.LVL26:
 326:HANcoder_E407_TTA_CombineModel.c **** }
 452              		.loc 1 326 26 view .LVU130
 453              	.LBE68:
 454              	.LBE67:
 455              	.LBE66:
 456              	.LBE65:
 399:HANcoder_E407_TTA_CombineModel.c ****   }
 400:HANcoder_E407_TTA_CombineModel.c **** 
 401:HANcoder_E407_TTA_CombineModel.c ****   /* End of Outputs for SubSystem: '<S11>/MMBS1_RX' */
 402:HANcoder_E407_TTA_CombineModel.c **** }
 457              		.loc 1 402 1 view .LVU131
 458 0008 7047     		bx	lr
 459              	.LVL27:
 460              	.L36:
 461              		.loc 1 402 1 view .LVU132
 462 000a 7047     		bx	lr
 463              	.LVL28:
 464              	.L39:
 369:HANcoder_E407_TTA_CombineModel.c **** 
 465              		.loc 1 369 5 is_stmt 1 view .LVU133
 353:HANcoder_E407_TTA_CombineModel.c ****   /* local block i/o variables */
 466              		.loc 1 353 1 is_stmt 0 view .LVU134
 467 000c 30B5     		push	{r4, r5, lr}
 468              		.cfi_def_cfa_offset 12
 469              		.cfi_offset 4, -12
 470              		.cfi_offset 5, -8
 471              		.cfi_offset 14, -4
 374:HANcoder_E407_TTA_CombineModel.c ****       &canRxData_0_rtu_In1.uint8_T_info[0], NULL);
 472              		.loc 1 374 26 view .LVU135
 473 000e 094D     		ldr	r5, .L40
 353:HANcoder_E407_TTA_CombineModel.c ****   /* local block i/o variables */
 474              		.loc 1 353 1 view .LVU136
 475 0010 83B0     		sub	sp, sp, #12
 476              		.cfi_def_cfa_offset 24
 369:HANcoder_E407_TTA_CombineModel.c **** 
 477              		.loc 1 369 28 view .LVU137
 478 0012 0120     		movs	r0, #1
 479              	.LVL29:
 369:HANcoder_E407_TTA_CombineModel.c **** 
 480              		.loc 1 369 28 view .LVU138
 481 0014 1446     		mov	r4, r2
 374:HANcoder_E407_TTA_CombineModel.c ****       &canRxData_0_rtu_In1.uint8_T_info[0], NULL);
 482              		.loc 1 374 26 view .LVU139
 483 0016 0022     		movs	r2, #0
 484              	.LVL30:
 369:HANcoder_E407_TTA_CombineModel.c **** 
 485              		.loc 1 369 28 view .LVU140
 486 0018 1870     		strb	r0, [r3]
 374:HANcoder_E407_TTA_CombineModel.c ****       &canRxData_0_rtu_In1.uint8_T_info[0], NULL);
 487              		.loc 1 374 5 is_stmt 1 view .LVU141
 374:HANcoder_E407_TTA_CombineModel.c ****       &canRxData_0_rtu_In1.uint8_T_info[0], NULL);
 488              		.loc 1 374 26 is_stmt 0 view .LVU142
 489 001a 0092     		str	r2, [sp]
 490 001c 2B46     		mov	r3, r5
 491              	.LVL31:
 374:HANcoder_E407_TTA_CombineModel.c ****       &canRxData_0_rtu_In1.uint8_T_info[0], NULL);
 492              		.loc 1 374 26 view .LVU143
 493 001e 1046     		mov	r0, r2
 494 0020 FFF7FEFF 		bl	CanIoGetMessage
 495              	.LVL32:
 378:HANcoder_E407_TTA_CombineModel.c ****       /* read the data */
 496              		.loc 1 378 5 is_stmt 1 view .LVU144
 378:HANcoder_E407_TTA_CombineModel.c ****       /* read the data */
 497              		.loc 1 378 8 is_stmt 0 view .LVU145
 498 0024 0028     		cmp	r0, #0
 499 0026 03DD     		ble	.L27
 380:HANcoder_E407_TTA_CombineModel.c ****       rtb_SFunction_o3_b = canRxData_0_rtu_In1.uint8_T_info[1];
 500              		.loc 1 380 7 is_stmt 1 view .LVU146
 501              	.LVL33:
 381:HANcoder_E407_TTA_CombineModel.c ****       rtb_SFunction_o4_l = canRxData_0_rtu_In1.uint8_T_info[2];
 502              		.loc 1 381 7 view .LVU147
 381:HANcoder_E407_TTA_CombineModel.c ****       rtb_SFunction_o4_l = canRxData_0_rtu_In1.uint8_T_info[2];
 503              		.loc 1 381 26 is_stmt 0 view .LVU148
 504 0028 6B78     		ldrb	r3, [r5, #1]	@ zero_extendqisi2
 505              	.LVL34:
 382:HANcoder_E407_TTA_CombineModel.c ****       rtb_SFunction_o5_e = canRxData_0_rtu_In1.uint8_T_info[3];
 506              		.loc 1 382 7 is_stmt 1 view .LVU149
 383:HANcoder_E407_TTA_CombineModel.c ****       rtb_SFunction_o6_k = canRxData_0_rtu_In1.uint8_T_info[4];
 507              		.loc 1 383 7 view .LVU150
 384:HANcoder_E407_TTA_CombineModel.c ****       rtb_SFunction_o7_dj = canRxData_0_rtu_In1.uint8_T_info[5];
 508              		.loc 1 384 7 view .LVU151
 385:HANcoder_E407_TTA_CombineModel.c ****       rtb_SFunction_o8_n1 = canRxData_0_rtu_In1.uint8_T_info[6];
 509              		.loc 1 385 7 view .LVU152
 386:HANcoder_E407_TTA_CombineModel.c ****       rtb_SFunction_o9_o = canRxData_0_rtu_In1.uint8_T_info[7];
 510              		.loc 1 386 7 view .LVU153
 387:HANcoder_E407_TTA_CombineModel.c ****     }
 511              		.loc 1 387 7 view .LVU154
 391:HANcoder_E407_TTA_CombineModel.c ****                      rtb_SFunction_o4_l, rtb_SFunction_o5_e, rtb_SFunction_o6_k,
 512              		.loc 1 391 5 view .LVU155
 513              	.LBB69:
 514              	.LBI69:
 273:HANcoder_E407_TTA_CombineModel.c ****                       uint8_T rtu_In3, uint8_T rtu_In4, uint8_T rtu_In5, uint8_T
 515              		.loc 1 273 6 view .LVU156
 516              	.LBB70:
 278:HANcoder_E407_TTA_CombineModel.c ****   uint8_T rtb_In4;
 517              		.loc 1 278 3 view .LVU157
 279:HANcoder_E407_TTA_CombineModel.c ****   uint8_T rtb_In5;
 518              		.loc 1 279 3 view .LVU158
 280:HANcoder_E407_TTA_CombineModel.c ****   uint8_T rtb_In6;
 519              		.loc 1 280 3 view .LVU159
 281:HANcoder_E407_TTA_CombineModel.c ****   uint8_T rtb_In7;
 520              		.loc 1 281 3 view .LVU160
 282:HANcoder_E407_TTA_CombineModel.c ****   uint8_T rtb_In8;
 521              		.loc 1 282 3 view .LVU161
 283:HANcoder_E407_TTA_CombineModel.c **** 
 522              		.loc 1 283 3 view .LVU162
 288:HANcoder_E407_TTA_CombineModel.c ****     /* SignalConversion generated from: '<S39>/In1' */
 523              		.loc 1 288 3 view .LVU163
 290:HANcoder_E407_TTA_CombineModel.c **** 
 524              		.loc 1 290 5 view .LVU164
 290:HANcoder_E407_TTA_CombineModel.c **** 
 525              		.loc 1 290 17 is_stmt 0 view .LVU165
 526 002a 2A78     		ldrb	r2, [r5]	@ zero_extendqisi2
 527 002c 2270     		strb	r2, [r4]
 528              	.LVL35:
 293:HANcoder_E407_TTA_CombineModel.c **** 
 529              		.loc 1 293 5 is_stmt 1 view .LVU166
 293:HANcoder_E407_TTA_CombineModel.c **** 
 530              		.loc 1 293 17 is_stmt 0 view .LVU167
 531 002e 6370     		strb	r3, [r4, #1]
 296:HANcoder_E407_TTA_CombineModel.c **** 
 532              		.loc 1 296 5 is_stmt 1 view .LVU168
 299:HANcoder_E407_TTA_CombineModel.c **** 
 533              		.loc 1 299 5 view .LVU169
 302:HANcoder_E407_TTA_CombineModel.c **** 
 534              		.loc 1 302 5 view .LVU170
 305:HANcoder_E407_TTA_CombineModel.c **** 
 535              		.loc 1 305 5 view .LVU171
 308:HANcoder_E407_TTA_CombineModel.c **** 
 536              		.loc 1 308 5 view .LVU172
 311:HANcoder_E407_TTA_CombineModel.c ****   }
 537              		.loc 1 311 5 view .LVU173
 538              	.LVL36:
 539              	.L27:
 311:HANcoder_E407_TTA_CombineModel.c ****   }
 540              		.loc 1 311 5 is_stmt 0 view .LVU174
 541              	.LBE70:
 542              	.LBE69:
 543              		.loc 1 402 1 view .LVU175
 544 0030 03B0     		add	sp, sp, #12
 545              		.cfi_def_cfa_offset 12
 546              		@ sp needed
 547 0032 30BD     		pop	{r4, r5, pc}
 548              	.LVL37:
 549              	.L41:
 550              		.loc 1 402 1 view .LVU176
 551              		.align	2
 552              	.L40:
 553 0034 00000000 		.word	.LANCHOR8
 554              		.cfi_endproc
 555              	.LFE119:
 557              		.section	.text.MMBS1_TX,"ax",%progbits
 558              		.align	1
 559              		.p2align 2,,3
 560              		.global	MMBS1_TX
 561              		.syntax unified
 562              		.thumb
 563              		.thumb_func
 565              	MMBS1_TX:
 566              	.LVL38:
 567              	.LFB120:
 403:HANcoder_E407_TTA_CombineModel.c **** 
 404:HANcoder_E407_TTA_CombineModel.c **** /*
 405:HANcoder_E407_TTA_CombineModel.c ****  * Output and update for trigger system:
 406:HANcoder_E407_TTA_CombineModel.c ****  *    '<S11>/MMBS1_TX'
 407:HANcoder_E407_TTA_CombineModel.c ****  *    '<S11>/SSTM1_TX'
 408:HANcoder_E407_TTA_CombineModel.c ****  *    '<S11>/TRCK1_ID2_TX'
 409:HANcoder_E407_TTA_CombineModel.c ****  *    '<S11>/TRCK1_ID3_TX'
 410:HANcoder_E407_TTA_CombineModel.c ****  *    '<S11>/TRCK1_TX'
 411:HANcoder_E407_TTA_CombineModel.c ****  */
 412:HANcoder_E407_TTA_CombineModel.c **** void MMBS1_TX(boolean_T rtu_Trigger, uint32_T rtu_In1, rtZCE_MMBS1_TX *localZCE)
 413:HANcoder_E407_TTA_CombineModel.c **** {
 568              		.loc 1 413 1 is_stmt 1 view -0
 569              		.cfi_startproc
 570              		@ args = 0, pretend = 0, frame = 0
 571              		@ frame_needed = 0, uses_anonymous_args = 0
 414:HANcoder_E407_TTA_CombineModel.c ****   /* Outputs for Triggered SubSystem: '<S11>/MMBS1_TX' incorporates:
 415:HANcoder_E407_TTA_CombineModel.c ****    *  TriggerPort: '<S21>/Trigger'
 416:HANcoder_E407_TTA_CombineModel.c ****    */
 417:HANcoder_E407_TTA_CombineModel.c ****   if (rtu_Trigger && (localZCE->MMBS1_TX_Trig_ZCE != POS_ZCSIG)) {
 572              		.loc 1 417 3 view .LVU178
 413:HANcoder_E407_TTA_CombineModel.c ****   /* Outputs for Triggered SubSystem: '<S11>/MMBS1_TX' incorporates:
 573              		.loc 1 413 1 is_stmt 0 view .LVU179
 574 0000 38B5     		push	{r3, r4, r5, lr}
 575              		.cfi_def_cfa_offset 16
 576              		.cfi_offset 3, -16
 577              		.cfi_offset 4, -12
 578              		.cfi_offset 5, -8
 579              		.cfi_offset 14, -4
 413:HANcoder_E407_TTA_CombineModel.c ****   /* Outputs for Triggered SubSystem: '<S11>/MMBS1_TX' incorporates:
 580              		.loc 1 413 1 view .LVU180
 581 0002 1546     		mov	r5, r2
 582              		.loc 1 417 6 view .LVU181
 583 0004 0446     		mov	r4, r0
 584 0006 10B1     		cbz	r0, .L43
 585              		.loc 1 417 19 discriminator 1 view .LVU182
 586 0008 1378     		ldrb	r3, [r2]	@ zero_extendqisi2
 587 000a 012B     		cmp	r3, #1
 588 000c 01D1     		bne	.L51
 589              	.L43:
 418:HANcoder_E407_TTA_CombineModel.c ****     /* Update for M-S-Function: '<S40>/S-Function' */
 419:HANcoder_E407_TTA_CombineModel.c ****     {
 420:HANcoder_E407_TTA_CombineModel.c ****       /* prepare the data */
 421:HANcoder_E407_TTA_CombineModel.c ****       canTxData.uint8_T_info[0] = 0U;
 422:HANcoder_E407_TTA_CombineModel.c **** 
 423:HANcoder_E407_TTA_CombineModel.c ****       /* send the data */
 424:HANcoder_E407_TTA_CombineModel.c ****       CanTransmit(0, rtu_In1, 1, &canTxData.uint8_T_info[0]);
 425:HANcoder_E407_TTA_CombineModel.c ****     }
 426:HANcoder_E407_TTA_CombineModel.c ****   }
 427:HANcoder_E407_TTA_CombineModel.c **** 
 428:HANcoder_E407_TTA_CombineModel.c ****   localZCE->MMBS1_TX_Trig_ZCE = rtu_Trigger;
 590              		.loc 1 428 3 is_stmt 1 view .LVU183
 591              		.loc 1 428 31 is_stmt 0 view .LVU184
 592 000e 2C70     		strb	r4, [r5]
 429:HANcoder_E407_TTA_CombineModel.c **** 
 430:HANcoder_E407_TTA_CombineModel.c ****   /* End of Outputs for SubSystem: '<S11>/MMBS1_TX' */
 431:HANcoder_E407_TTA_CombineModel.c **** }
 593              		.loc 1 431 1 view .LVU185
 594 0010 38BD     		pop	{r3, r4, r5, pc}
 595              	.L51:
 421:HANcoder_E407_TTA_CombineModel.c **** 
 596              		.loc 1 421 7 is_stmt 1 view .LVU186
 421:HANcoder_E407_TTA_CombineModel.c **** 
 597              		.loc 1 421 33 is_stmt 0 view .LVU187
 598 0012 044B     		ldr	r3, .L52
 599 0014 0020     		movs	r0, #0
 600              	.LVL39:
 421:HANcoder_E407_TTA_CombineModel.c **** 
 601              		.loc 1 421 33 view .LVU188
 602 0016 1870     		strb	r0, [r3]
 424:HANcoder_E407_TTA_CombineModel.c ****     }
 603              		.loc 1 424 7 is_stmt 1 view .LVU189
 604 0018 0122     		movs	r2, #1
 605              	.LVL40:
 424:HANcoder_E407_TTA_CombineModel.c ****     }
 606              		.loc 1 424 7 is_stmt 0 view .LVU190
 607 001a FFF7FEFF 		bl	CanTransmit
 608              	.LVL41:
 428:HANcoder_E407_TTA_CombineModel.c **** 
 609              		.loc 1 428 3 is_stmt 1 view .LVU191
 428:HANcoder_E407_TTA_CombineModel.c **** 
 610              		.loc 1 428 31 is_stmt 0 view .LVU192
 611 001e 2C70     		strb	r4, [r5]
 612              		.loc 1 431 1 view .LVU193
 613 0020 38BD     		pop	{r3, r4, r5, pc}
 614              	.LVL42:
 615              	.L53:
 616              		.loc 1 431 1 view .LVU194
 617 0022 00BF     		.align	2
 618              	.L52:
 619 0024 00000000 		.word	.LANCHOR9
 620              		.cfi_endproc
 621              	.LFE120:
 623              		.section	.text.BitShift,"ax",%progbits
 624              		.align	1
 625              		.p2align 2,,3
 626              		.global	BitShift
 627              		.syntax unified
 628              		.thumb
 629              		.thumb_func
 631              	BitShift:
 632              	.LVL43:
 633              	.LFB121:
 432:HANcoder_E407_TTA_CombineModel.c **** 
 433:HANcoder_E407_TTA_CombineModel.c **** /*
 434:HANcoder_E407_TTA_CombineModel.c ****  * Output and update for atomic system:
 435:HANcoder_E407_TTA_CombineModel.c ****  *    '<S126>/Bit Shift'
 436:HANcoder_E407_TTA_CombineModel.c ****  *    '<S135>/Bit Shift'
 437:HANcoder_E407_TTA_CombineModel.c ****  */
 438:HANcoder_E407_TTA_CombineModel.c **** void BitShift(uint16_T rtu_u, rtB_BitShift *localB)
 439:HANcoder_E407_TTA_CombineModel.c **** {
 634              		.loc 1 439 1 is_stmt 1 view -0
 635              		.cfi_startproc
 636              		@ args = 0, pretend = 0, frame = 0
 637              		@ frame_needed = 0, uses_anonymous_args = 0
 638              		@ link register save eliminated.
 440:HANcoder_E407_TTA_CombineModel.c ****   /* MATLAB Function: '<S128>/bit_shift' */
 441:HANcoder_E407_TTA_CombineModel.c ****   /* MATLAB Function 'Logic and Bit Operations/Bit Shift/bit_shift': '<S129>:1' */
 442:HANcoder_E407_TTA_CombineModel.c ****   /* '<S129>:1:6' */
 443:HANcoder_E407_TTA_CombineModel.c ****   localB->y = (uint16_T)(rtu_u << 8);
 639              		.loc 1 443 3 view .LVU196
 640              		.loc 1 443 15 is_stmt 0 view .LVU197
 641 0000 0002     		lsls	r0, r0, #8
 642              	.LVL44:
 643              		.loc 1 443 13 view .LVU198
 644 0002 0880     		strh	r0, [r1]	@ movhi
 444:HANcoder_E407_TTA_CombineModel.c **** }
 645              		.loc 1 444 1 view .LVU199
 646 0004 7047     		bx	lr
 647              		.cfi_endproc
 648              	.LFE121:
 650 0006 00BF     		.section	.text.BitShift_d,"ax",%progbits
 651              		.align	1
 652              		.p2align 2,,3
 653              		.global	BitShift_d
 654              		.syntax unified
 655              		.thumb
 656              		.thumb_func
 658              	BitShift_d:
 659              	.LVL45:
 660              	.LFB122:
 445:HANcoder_E407_TTA_CombineModel.c **** 
 446:HANcoder_E407_TTA_CombineModel.c **** /*
 447:HANcoder_E407_TTA_CombineModel.c ****  * Output and update for atomic system:
 448:HANcoder_E407_TTA_CombineModel.c ****  *    '<S132>/Bit Shift'
 449:HANcoder_E407_TTA_CombineModel.c ****  *    '<S141>/Bit Shift'
 450:HANcoder_E407_TTA_CombineModel.c ****  */
 451:HANcoder_E407_TTA_CombineModel.c **** void BitShift_d(uint16_T rtu_u, rtB_BitShift_l *localB)
 452:HANcoder_E407_TTA_CombineModel.c **** {
 661              		.loc 1 452 1 is_stmt 1 view -0
 662              		.cfi_startproc
 663              		@ args = 0, pretend = 0, frame = 0
 664              		@ frame_needed = 0, uses_anonymous_args = 0
 665              		@ link register save eliminated.
 453:HANcoder_E407_TTA_CombineModel.c ****   /* MATLAB Function: '<S133>/bit_shift' */
 454:HANcoder_E407_TTA_CombineModel.c ****   /* MATLAB Function 'Logic and Bit Operations/Bit Shift/bit_shift': '<S134>:1' */
 455:HANcoder_E407_TTA_CombineModel.c ****   /* '<S134>:1:8' */
 456:HANcoder_E407_TTA_CombineModel.c ****   localB->y = (uint16_T)((uint32_T)rtu_u >> 8);
 666              		.loc 1 456 3 view .LVU201
 667              		.loc 1 456 15 is_stmt 0 view .LVU202
 668 0000 000A     		lsrs	r0, r0, #8
 669              	.LVL46:
 670              		.loc 1 456 13 view .LVU203
 671 0002 0880     		strh	r0, [r1]	@ movhi
 457:HANcoder_E407_TTA_CombineModel.c **** }
 672              		.loc 1 457 1 view .LVU204
 673 0004 7047     		bx	lr
 674              		.cfi_endproc
 675              	.LFE122:
 677              		.global	__aeabi_dcmpeq
 678              		.global	__aeabi_dmul
 679              		.global	__aeabi_ui2d
 680              		.global	__aeabi_dadd
 681              		.global	__aeabi_dsub
 682              		.global	__aeabi_dcmplt
 683              		.global	__aeabi_dcmpgt
 684              		.global	__aeabi_ddiv
 685              		.global	__aeabi_d2f
 686              		.global	__aeabi_f2d
 687              		.global	__aeabi_d2iz
 688              		.global	__aeabi_i2d
 689 0006 00BF     		.section	.rodata.HANcoder_E407_TTA_CombineModel_step.str1.4,"aMS",%progbits,1
 690              		.align	2
 691              	.LC0:
 692 0000 41707043 		.ascii	"AppCtrlTask\000"
 692      74726C54 
 692      61736B00 
 693              		.section	.text.HANcoder_E407_TTA_CombineModel_step,"ax",%progbits
 694              		.align	1
 695              		.p2align 2,,3
 696              		.global	HANcoder_E407_TTA_CombineModel_step
 697              		.syntax unified
 698              		.thumb
 699              		.thumb_func
 701              	HANcoder_E407_TTA_CombineModel_step:
 702              	.LFB124:
 458:HANcoder_E407_TTA_CombineModel.c **** 
 459:HANcoder_E407_TTA_CombineModel.c **** static void SystemCore_setup(dsp_simulink_MovingAverage *obj)
 460:HANcoder_E407_TTA_CombineModel.c **** {
 461:HANcoder_E407_TTA_CombineModel.c ****   obj->isSetupComplete = false;
 462:HANcoder_E407_TTA_CombineModel.c ****   obj->isInitialized = 1;
 463:HANcoder_E407_TTA_CombineModel.c ****   obj->NumChannels = 1;
 464:HANcoder_E407_TTA_CombineModel.c ****   obj->FrameLength = 1;
 465:HANcoder_E407_TTA_CombineModel.c ****   obj->_pobj0.isInitialized = 0;
 466:HANcoder_E407_TTA_CombineModel.c ****   obj->_pobj0.isInitialized = 0;
 467:HANcoder_E407_TTA_CombineModel.c ****   obj->pStatistic = &obj->_pobj0;
 468:HANcoder_E407_TTA_CombineModel.c ****   obj->isSetupComplete = true;
 469:HANcoder_E407_TTA_CombineModel.c ****   obj->TunablePropsChanged = false;
 470:HANcoder_E407_TTA_CombineModel.c **** }
 471:HANcoder_E407_TTA_CombineModel.c **** 
 472:HANcoder_E407_TTA_CombineModel.c **** /* Model step function */
 473:HANcoder_E407_TTA_CombineModel.c **** void HANcoder_E407_TTA_CombineModel_step(void)
 474:HANcoder_E407_TTA_CombineModel.c **** {
 703              		.loc 1 474 1 is_stmt 1 view -0
 704              		.cfi_startproc
 705              		@ args = 0, pretend = 0, frame = 88
 706              		@ frame_needed = 0, uses_anonymous_args = 0
 475:HANcoder_E407_TTA_CombineModel.c ****   /* local block i/o variables */
 476:HANcoder_E407_TTA_CombineModel.c ****   int32_T rtb_Level2MfileSFunction_k;
 707              		.loc 1 476 3 view .LVU206
 477:HANcoder_E407_TTA_CombineModel.c ****   uint8_T rtb_SFunction_o2;
 708              		.loc 1 477 3 view .LVU207
 478:HANcoder_E407_TTA_CombineModel.c ****   uint8_T rtb_SFunction_o3;
 709              		.loc 1 478 3 view .LVU208
 479:HANcoder_E407_TTA_CombineModel.c ****   uint8_T rtb_SFunction_o4;
 710              		.loc 1 479 3 view .LVU209
 480:HANcoder_E407_TTA_CombineModel.c ****   uint8_T rtb_SFunction_o5;
 711              		.loc 1 480 3 view .LVU210
 481:HANcoder_E407_TTA_CombineModel.c ****   uint8_T rtb_SFunction_o6;
 712              		.loc 1 481 3 view .LVU211
 482:HANcoder_E407_TTA_CombineModel.c ****   uint8_T rtb_SFunction_o7;
 713              		.loc 1 482 3 view .LVU212
 483:HANcoder_E407_TTA_CombineModel.c ****   uint8_T rtb_SFunction_o8;
 714              		.loc 1 483 3 view .LVU213
 484:HANcoder_E407_TTA_CombineModel.c ****   uint8_T rtb_SFunction_o9;
 715              		.loc 1 484 3 view .LVU214
 485:HANcoder_E407_TTA_CombineModel.c ****   uint8_T rtb_SFunction_o2_l;
 716              		.loc 1 485 3 view .LVU215
 486:HANcoder_E407_TTA_CombineModel.c ****   uint8_T rtb_SFunction_o3_m;
 717              		.loc 1 486 3 view .LVU216
 487:HANcoder_E407_TTA_CombineModel.c ****   uint8_T rtb_SFunction_o4_b;
 718              		.loc 1 487 3 view .LVU217
 488:HANcoder_E407_TTA_CombineModel.c ****   uint8_T rtb_SFunction_o5_o;
 719              		.loc 1 488 3 view .LVU218
 489:HANcoder_E407_TTA_CombineModel.c ****   uint8_T rtb_SFunction_o6_i;
 720              		.loc 1 489 3 view .LVU219
 490:HANcoder_E407_TTA_CombineModel.c ****   uint8_T rtb_SFunction_o7_f;
 721              		.loc 1 490 3 view .LVU220
 491:HANcoder_E407_TTA_CombineModel.c ****   uint8_T rtb_SFunction_o8_p;
 722              		.loc 1 491 3 view .LVU221
 492:HANcoder_E407_TTA_CombineModel.c ****   uint8_T rtb_SFunction_o9_l;
 723              		.loc 1 492 3 view .LVU222
 493:HANcoder_E407_TTA_CombineModel.c ****   uint8_T rtb_SFunction_o2_e;
 724              		.loc 1 493 3 view .LVU223
 494:HANcoder_E407_TTA_CombineModel.c ****   uint8_T rtb_SFunction_o3_p;
 725              		.loc 1 494 3 view .LVU224
 495:HANcoder_E407_TTA_CombineModel.c ****   uint8_T rtb_SFunction_o4_c;
 726              		.loc 1 495 3 view .LVU225
 496:HANcoder_E407_TTA_CombineModel.c ****   uint8_T rtb_SFunction_o5_c;
 727              		.loc 1 496 3 view .LVU226
 497:HANcoder_E407_TTA_CombineModel.c ****   uint8_T rtb_SFunction_o6_e;
 728              		.loc 1 497 3 view .LVU227
 498:HANcoder_E407_TTA_CombineModel.c ****   uint8_T rtb_SFunction_o7_l;
 729              		.loc 1 498 3 view .LVU228
 499:HANcoder_E407_TTA_CombineModel.c ****   uint8_T rtb_SFunction_o8_f;
 730              		.loc 1 499 3 view .LVU229
 500:HANcoder_E407_TTA_CombineModel.c ****   uint8_T rtb_SFunction_o9_h;
 731              		.loc 1 500 3 view .LVU230
 501:HANcoder_E407_TTA_CombineModel.c ****   uint8_T rtb_SFunction_o2_j;
 732              		.loc 1 501 3 view .LVU231
 502:HANcoder_E407_TTA_CombineModel.c ****   uint8_T rtb_SFunction_o3_a;
 733              		.loc 1 502 3 view .LVU232
 503:HANcoder_E407_TTA_CombineModel.c ****   uint8_T rtb_SFunction_o4_i;
 734              		.loc 1 503 3 view .LVU233
 504:HANcoder_E407_TTA_CombineModel.c ****   uint8_T rtb_SFunction_o5_k;
 735              		.loc 1 504 3 view .LVU234
 505:HANcoder_E407_TTA_CombineModel.c ****   uint8_T rtb_SFunction_o6_c;
 736              		.loc 1 505 3 view .LVU235
 506:HANcoder_E407_TTA_CombineModel.c ****   uint8_T rtb_SFunction_o7_d;
 737              		.loc 1 506 3 view .LVU236
 507:HANcoder_E407_TTA_CombineModel.c ****   uint8_T rtb_SFunction_o8_h;
 738              		.loc 1 507 3 view .LVU237
 508:HANcoder_E407_TTA_CombineModel.c ****   uint8_T rtb_SFunction_o9_b;
 739              		.loc 1 508 3 view .LVU238
 509:HANcoder_E407_TTA_CombineModel.c ****   uint8_T rtb_SFunction_o2_i;
 740              		.loc 1 509 3 view .LVU239
 510:HANcoder_E407_TTA_CombineModel.c ****   uint8_T rtb_SFunction_o3_g;
 741              		.loc 1 510 3 view .LVU240
 511:HANcoder_E407_TTA_CombineModel.c ****   uint8_T rtb_SFunction_o4_j;
 742              		.loc 1 511 3 view .LVU241
 512:HANcoder_E407_TTA_CombineModel.c ****   uint8_T rtb_SFunction_o5_f;
 743              		.loc 1 512 3 view .LVU242
 513:HANcoder_E407_TTA_CombineModel.c ****   uint8_T rtb_SFunction_o6_g;
 744              		.loc 1 513 3 view .LVU243
 514:HANcoder_E407_TTA_CombineModel.c ****   uint8_T rtb_SFunction_o7_k;
 745              		.loc 1 514 3 view .LVU244
 515:HANcoder_E407_TTA_CombineModel.c ****   uint8_T rtb_SFunction_o8_n;
 746              		.loc 1 515 3 view .LVU245
 516:HANcoder_E407_TTA_CombineModel.c ****   uint8_T rtb_SFunction_o9_b1;
 747              		.loc 1 516 3 view .LVU246
 517:HANcoder_E407_TTA_CombineModel.c ****   int8_T rtb_SFunction_o1;
 748              		.loc 1 517 3 view .LVU247
 518:HANcoder_E407_TTA_CombineModel.c ****   int8_T rtb_SFunction_o1_n;
 749              		.loc 1 518 3 view .LVU248
 519:HANcoder_E407_TTA_CombineModel.c ****   int8_T rtb_SFunction_o1_k;
 750              		.loc 1 519 3 view .LVU249
 520:HANcoder_E407_TTA_CombineModel.c ****   int8_T rtb_SFunction_o1_k1;
 751              		.loc 1 520 3 view .LVU250
 521:HANcoder_E407_TTA_CombineModel.c ****   int8_T rtb_SFunction_o1_h;
 752              		.loc 1 521 3 view .LVU251
 522:HANcoder_E407_TTA_CombineModel.c ****   boolean_T rtb_Level2MfileSFunction_j;
 753              		.loc 1 522 3 view .LVU252
 523:HANcoder_E407_TTA_CombineModel.c ****   g_dsp_internal_SlidingWindowAve *obj;
 754              		.loc 1 523 3 view .LVU253
 524:HANcoder_E407_TTA_CombineModel.c ****   real_T csumrev[3];
 755              		.loc 1 524 3 view .LVU254
 525:HANcoder_E407_TTA_CombineModel.c ****   real_T modValueRev;
 756              		.loc 1 525 3 view .LVU255
 526:HANcoder_E407_TTA_CombineModel.c ****   real_T rtb_Integrator;
 757              		.loc 1 526 3 view .LVU256
 527:HANcoder_E407_TTA_CombineModel.c ****   real_T rtb_MovingAverage_0;
 758              		.loc 1 527 3 view .LVU257
 528:HANcoder_E407_TTA_CombineModel.c ****   real_T rtb_Sum;
 759              		.loc 1 528 3 view .LVU258
 529:HANcoder_E407_TTA_CombineModel.c ****   real_T z;
 760              		.loc 1 529 3 view .LVU259
 530:HANcoder_E407_TTA_CombineModel.c ****   uint32_T Subsystem_ELAPS_T[2];
 761              		.loc 1 530 3 view .LVU260
 531:HANcoder_E407_TTA_CombineModel.c ****   uint32_T Subsystem_ELAPS_T_tmp;
 762              		.loc 1 531 3 view .LVU261
 532:HANcoder_E407_TTA_CombineModel.c ****   uint16_T rtb_Cast_b;
 763              		.loc 1 532 3 view .LVU262
 533:HANcoder_E407_TTA_CombineModel.c ****   uint16_T rtb_Cast_le;
 764              		.loc 1 533 3 view .LVU263
 534:HANcoder_E407_TTA_CombineModel.c ****   uint8_T rtb_Multiply;
 765              		.loc 1 534 3 view .LVU264
 535:HANcoder_E407_TTA_CombineModel.c ****   uint8_T rtb_Multiply1;
 766              		.loc 1 535 3 view .LVU265
 536:HANcoder_E407_TTA_CombineModel.c ****   boolean_T AND3;
 767              		.loc 1 536 3 view .LVU266
 537:HANcoder_E407_TTA_CombineModel.c ****   boolean_T AND5;
 768              		.loc 1 537 3 view .LVU267
 538:HANcoder_E407_TTA_CombineModel.c ****   boolean_T AND7;
 769              		.loc 1 538 3 view .LVU268
 539:HANcoder_E407_TTA_CombineModel.c ****   boolean_T AND9;
 770              		.loc 1 539 3 view .LVU269
 540:HANcoder_E407_TTA_CombineModel.c ****   boolean_T rtb_AND;
 771              		.loc 1 540 3 view .LVU270
 541:HANcoder_E407_TTA_CombineModel.c ****   boolean_T rtb_AND10;
 772              		.loc 1 541 3 view .LVU271
 542:HANcoder_E407_TTA_CombineModel.c ****   boolean_T rtb_AND13;
 773              		.loc 1 542 3 view .LVU272
 543:HANcoder_E407_TTA_CombineModel.c ****   boolean_T rtb_AND15;
 774              		.loc 1 543 3 view .LVU273
 544:HANcoder_E407_TTA_CombineModel.c ****   boolean_T rtb_AND1_k;
 775              		.loc 1 544 3 view .LVU274
 545:HANcoder_E407_TTA_CombineModel.c ****   boolean_T rtb_AND2;
 776              		.loc 1 545 3 view .LVU275
 546:HANcoder_E407_TTA_CombineModel.c ****   boolean_T rtb_AND4;
 777              		.loc 1 546 3 view .LVU276
 547:HANcoder_E407_TTA_CombineModel.c ****   boolean_T rtb_AND6;
 778              		.loc 1 547 3 view .LVU277
 548:HANcoder_E407_TTA_CombineModel.c ****   boolean_T rtb_AND8;
 779              		.loc 1 548 3 view .LVU278
 549:HANcoder_E407_TTA_CombineModel.c ****   boolean_T rtb_Equal14;
 780              		.loc 1 549 3 view .LVU279
 550:HANcoder_E407_TTA_CombineModel.c ****   boolean_T rtb_Equal16;
 781              		.loc 1 550 3 view .LVU280
 551:HANcoder_E407_TTA_CombineModel.c ****   boolean_T rtb_Equal17;
 782              		.loc 1 551 3 view .LVU281
 552:HANcoder_E407_TTA_CombineModel.c ****   ZCEventType zcEvent;
 783              		.loc 1 552 3 view .LVU282
 553:HANcoder_E407_TTA_CombineModel.c **** 
 554:HANcoder_E407_TTA_CombineModel.c ****   /* Outputs for Enabled SubSystem: '<S1>/Initialize Clock Schedule' incorporates:
 555:HANcoder_E407_TTA_CombineModel.c ****    *  EnablePort: '<S9>/Enable'
 556:HANcoder_E407_TTA_CombineModel.c ****    */
 557:HANcoder_E407_TTA_CombineModel.c ****   /* Logic: '<S1>/NOT' incorporates:
 558:HANcoder_E407_TTA_CombineModel.c ****    *  DataStoreRead: '<S1>/If 1 -> Clock initialized '
 559:HANcoder_E407_TTA_CombineModel.c ****    */
 560:HANcoder_E407_TTA_CombineModel.c ****   if (rtDWork.init_clock == 0.0) {
 784              		.loc 1 560 3 view .LVU283
 474:HANcoder_E407_TTA_CombineModel.c ****   /* local block i/o variables */
 785              		.loc 1 474 1 is_stmt 0 view .LVU284
 786 0000 2DE9F04F 		push	{r4, r5, r6, r7, r8, r9, r10, fp, lr}
 787              		.cfi_def_cfa_offset 36
 788              		.cfi_offset 4, -36
 789              		.cfi_offset 5, -32
 790              		.cfi_offset 6, -28
 791              		.cfi_offset 7, -24
 792              		.cfi_offset 8, -20
 793              		.cfi_offset 9, -16
 794              		.cfi_offset 10, -12
 795              		.cfi_offset 11, -8
 796              		.cfi_offset 14, -4
 797 0004 2DED0E8B 		vpush.64	{d8, d9, d10, d11, d12, d13, d14}
 798              		.cfi_def_cfa_offset 92
 799              		.cfi_offset 80, -92
 800              		.cfi_offset 81, -88
 801              		.cfi_offset 82, -84
 802              		.cfi_offset 83, -80
 803              		.cfi_offset 84, -76
 804              		.cfi_offset 85, -72
 805              		.cfi_offset 86, -68
 806              		.cfi_offset 87, -64
 807              		.cfi_offset 88, -60
 808              		.cfi_offset 89, -56
 809              		.cfi_offset 90, -52
 810              		.cfi_offset 91, -48
 811              		.cfi_offset 92, -44
 812              		.cfi_offset 93, -40
 813              		.loc 1 560 14 view .LVU285
 814 0008 BE4C     		ldr	r4, .L291
 474:HANcoder_E407_TTA_CombineModel.c ****   /* local block i/o variables */
 815              		.loc 1 474 1 view .LVU286
 816 000a 99B0     		sub	sp, sp, #100
 817              		.cfi_def_cfa_offset 192
 818              		.loc 1 560 6 view .LVU287
 819 000c D4E92A01 		ldrd	r0, [r4, #168]
 820 0010 0022     		movs	r2, #0
 821 0012 0023     		movs	r3, #0
 822 0014 FFF7FEFF 		bl	__aeabi_dcmpeq
 823              	.LVL47:
 824 0018 0028     		cmp	r0, #0
 825 001a 40F07082 		bne	.L266
 561:HANcoder_E407_TTA_CombineModel.c ****     rtDWork.InitializeClockSchedule_MODE = true;
 562:HANcoder_E407_TTA_CombineModel.c **** 
 563:HANcoder_E407_TTA_CombineModel.c ****     /* DataStoreWrite: '<S9>/Data Store Write' incorporates:
 564:HANcoder_E407_TTA_CombineModel.c ****      *  Constant: '<S9>/Constant2'
 565:HANcoder_E407_TTA_CombineModel.c ****      */
 566:HANcoder_E407_TTA_CombineModel.c ****     rtDWork.init_clock = 1.0;
 567:HANcoder_E407_TTA_CombineModel.c **** 
 568:HANcoder_E407_TTA_CombineModel.c ****     /* Update for M-S-Function: '<S16>/Level-2 M-file S-Function' incorporates:
 569:HANcoder_E407_TTA_CombineModel.c ****      *  Constant: '<S9>/Constant'
 570:HANcoder_E407_TTA_CombineModel.c ****      *  Constant: '<S9>/Constant1'
 571:HANcoder_E407_TTA_CombineModel.c ****      */
 572:HANcoder_E407_TTA_CombineModel.c ****     /* schedule the next output compare event */
 573:HANcoder_E407_TTA_CombineModel.c ****     TimeoutScheduleCompareEvent(TIMEOUT_TIM4_PIN_PD12, ((uint16_T)1U),
 574:HANcoder_E407_TTA_CombineModel.c ****       (tTimeoutAction)((uint8_T)3U));
 575:HANcoder_E407_TTA_CombineModel.c ****   } else if (rtDWork.InitializeClockSchedule_MODE) {
 826              		.loc 1 575 10 is_stmt 1 view .LVU288
 827              		.loc 1 575 13 is_stmt 0 view .LVU289
 828 001e 94F8D730 		ldrb	r3, [r4, #215]	@ zero_extendqisi2
 829 0022 002B     		cmp	r3, #0
 830 0024 40F04081 		bne	.L267
 831              	.L59:
 576:HANcoder_E407_TTA_CombineModel.c ****     rtDWork.InitializeClockSchedule_MODE = false;
 577:HANcoder_E407_TTA_CombineModel.c ****   }
 578:HANcoder_E407_TTA_CombineModel.c **** 
 579:HANcoder_E407_TTA_CombineModel.c ****   /* End of Logic: '<S1>/NOT' */
 580:HANcoder_E407_TTA_CombineModel.c ****   /* End of Outputs for SubSystem: '<S1>/Initialize Clock Schedule' */
 581:HANcoder_E407_TTA_CombineModel.c **** 
 582:HANcoder_E407_TTA_CombineModel.c ****   /* Logic: '<S13>/AND' incorporates:
 583:HANcoder_E407_TTA_CombineModel.c ****    *  Constant: '<S13>/Constant'
 584:HANcoder_E407_TTA_CombineModel.c ****    *  Constant: '<S13>/Constant4'
 585:HANcoder_E407_TTA_CombineModel.c ****    *  DataStoreRead: '<S13>/Data Store Read1'
 586:HANcoder_E407_TTA_CombineModel.c ****    *  RelationalOperator: '<S13>/Less Than'
 587:HANcoder_E407_TTA_CombineModel.c ****    */
 588:HANcoder_E407_TTA_CombineModel.c ****   rtb_AND = ((ClockOn != 0.0) && (rtDWork.nodeRole < ((uint8_T)4U)));
 832              		.loc 1 588 3 is_stmt 1 view .LVU290
 833              		.loc 1 588 23 is_stmt 0 view .LVU291
 834 0028 B749     		ldr	r1, .L291+4
 835              		.loc 1 588 31 view .LVU292
 836 002a 0023     		movs	r3, #0
 837 002c D1E90001 		ldrd	r0, [r1]
 838 0030 0022     		movs	r2, #0
 839 0032 FFF7FEFF 		bl	__aeabi_dcmpeq
 840              	.LVL48:
 841              		.loc 1 588 42 view .LVU293
 842 0036 94F8CB30 		ldrb	r3, [r4, #203]	@ zero_extendqisi2
 843              		.loc 1 588 31 view .LVU294
 844 003a 10B9     		cbnz	r0, .L62
 845              		.loc 1 588 31 discriminator 1 view .LVU295
 846 003c 032B     		cmp	r3, #3
 847 003e 40F24681 		bls	.L268
 848              	.L62:
 849              	.LVL49:
 589:HANcoder_E407_TTA_CombineModel.c **** 
 590:HANcoder_E407_TTA_CombineModel.c ****   /* Logic: '<S13>/OR' incorporates:
 591:HANcoder_E407_TTA_CombineModel.c ****    *  DataStoreRead: '<S13>/Data Store Read2'
 592:HANcoder_E407_TTA_CombineModel.c ****    */
 593:HANcoder_E407_TTA_CombineModel.c ****   rtB.OR = (rtb_AND || rtDWork.slaveClockOn);
 850              		.loc 1 593 3 is_stmt 1 view .LVU296
 851              		.loc 1 593 21 is_stmt 0 view .LVU297
 852 0042 94F8CE20 		ldrb	r2, [r4, #206]	@ zero_extendqisi2
 588:HANcoder_E407_TTA_CombineModel.c **** 
 853              		.loc 1 588 11 view .LVU298
 854 0046 0021     		movs	r1, #0
 855              		.loc 1 593 10 view .LVU299
 856 0048 521A     		subs	r2, r2, r1
 588:HANcoder_E407_TTA_CombineModel.c **** 
 857              		.loc 1 588 11 view .LVU300
 858 004a 0491     		str	r1, [sp, #16]
 859              		.loc 1 593 10 view .LVU301
 860 004c 18BF     		it	ne
 861 004e 0122     		movne	r2, #1
 588:HANcoder_E407_TTA_CombineModel.c **** 
 862              		.loc 1 588 31 view .LVU302
 863 0050 0391     		str	r1, [sp, #12]
 864              	.LVL50:
 865              	.L154:
 594:HANcoder_E407_TTA_CombineModel.c **** 
 595:HANcoder_E407_TTA_CombineModel.c ****   /* End of Outputs for S-Function (sfcn_timeout_event_irq): '<S4>/S-Function' */
 596:HANcoder_E407_TTA_CombineModel.c **** 
 597:HANcoder_E407_TTA_CombineModel.c ****   /* Outputs for Enabled SubSystem: '<S1>/Message selector' incorporates:
 598:HANcoder_E407_TTA_CombineModel.c ****    *  EnablePort: '<S11>/Enable'
 599:HANcoder_E407_TTA_CombineModel.c ****    *
 600:HANcoder_E407_TTA_CombineModel.c ****    * Block description for '<S1>/Message selector':
 601:HANcoder_E407_TTA_CombineModel.c ****    *  Truck 1
 602:HANcoder_E407_TTA_CombineModel.c ****    */
 603:HANcoder_E407_TTA_CombineModel.c ****   if (canActive) {
 866              		.loc 1 603 7 discriminator 6 view .LVU303
 867 0052 AE49     		ldr	r1, .L291+8
 593:HANcoder_E407_TTA_CombineModel.c **** 
 868              		.loc 1 593 10 discriminator 6 view .LVU304
 869 0054 DFF8FCA2 		ldr	r10, .L291+80
 870              		.loc 1 603 6 discriminator 6 view .LVU305
 871 0058 0978     		ldrb	r1, [r1]	@ zero_extendqisi2
 593:HANcoder_E407_TTA_CombineModel.c **** 
 872              		.loc 1 593 10 discriminator 6 view .LVU306
 873 005a 8AF80920 		strb	r2, [r10, #9]
 874              		.loc 1 603 3 is_stmt 1 discriminator 6 view .LVU307
 875              		.loc 1 603 6 is_stmt 0 discriminator 6 view .LVU308
 876 005e 0029     		cmp	r1, #0
 877 0060 00F0CD81 		beq	.L63
 604:HANcoder_E407_TTA_CombineModel.c ****     rtDWork.Messageselector_MODE = true;
 878              		.loc 1 604 5 is_stmt 1 view .LVU309
 605:HANcoder_E407_TTA_CombineModel.c **** 
 606:HANcoder_E407_TTA_CombineModel.c ****     /* M-S-Function: '<S8>/Level-2 M-file S-Function' incorporates:
 607:HANcoder_E407_TTA_CombineModel.c ****      *  Constant: '<S11>/Constant1'
 608:HANcoder_E407_TTA_CombineModel.c ****      *  RelationalOperator: '<S11>/Equal1'
 609:HANcoder_E407_TTA_CombineModel.c ****      */
 610:HANcoder_E407_TTA_CombineModel.c ****     rtb_Level2MfileSFunction_j = (slotSelected == 2.0);
 879              		.loc 1 610 48 is_stmt 0 view .LVU310
 880 0064 DFF8F0B2 		ldr	fp, .L291+84
 611:HANcoder_E407_TTA_CombineModel.c **** 
 612:HANcoder_E407_TTA_CombineModel.c ****     /* RelationalOperator: '<S11>/Equal11' incorporates:
 613:HANcoder_E407_TTA_CombineModel.c ****      *  Constant: '<S11>/Constant13'
 614:HANcoder_E407_TTA_CombineModel.c ****      *  DataStoreRead: '<S1>/Data Store Read'
 615:HANcoder_E407_TTA_CombineModel.c ****      */
 616:HANcoder_E407_TTA_CombineModel.c ****     rtb_Equal14 = (rtDWork.nodeRole == 1.0);
 881              		.loc 1 616 37 view .LVU311
 882 0068 07EE903A 		vmov	s15, r3	@ int
 610:HANcoder_E407_TTA_CombineModel.c **** 
 883              		.loc 1 610 48 view .LVU312
 884 006c 9BF80030 		ldrb	r3, [fp]	@ zero_extendqisi2
 885              		.loc 1 616 37 view .LVU313
 886 0070 F8EEE76A 		vcvt.f32.s32	s13, s15
 610:HANcoder_E407_TTA_CombineModel.c **** 
 887              		.loc 1 610 48 view .LVU314
 888 0074 07EE903A 		vmov	s15, r3	@ int
 889 0078 F8EEE77A 		vcvt.f32.s32	s15, s15
 617:HANcoder_E407_TTA_CombineModel.c **** 
 618:HANcoder_E407_TTA_CombineModel.c ****     /* Logic: '<S11>/AND3' incorporates:
 619:HANcoder_E407_TTA_CombineModel.c ****      *  Logic: '<S11>/NOT1'
 620:HANcoder_E407_TTA_CombineModel.c ****      */
 621:HANcoder_E407_TTA_CombineModel.c ****     AND3 = (rtb_Level2MfileSFunction_j && (!rtb_Equal14));
 890              		.loc 1 621 40 view .LVU315
 891 007c B0EE007A 		vmov.f32	s14, #2.0e+0
 892 0080 F4EE477A 		vcmp.f32	s15, s14
 604:HANcoder_E407_TTA_CombineModel.c **** 
 893              		.loc 1 604 34 view .LVU316
 894 0084 0126     		movs	r6, #1
 895              		.loc 1 621 40 view .LVU317
 896 0086 F1EE10FA 		vmrs	APSR_nzcv, FPSCR
 604:HANcoder_E407_TTA_CombineModel.c **** 
 897              		.loc 1 604 34 view .LVU318
 898 008a 84F8D260 		strb	r6, [r4, #210]
 610:HANcoder_E407_TTA_CombineModel.c **** 
 899              		.loc 1 610 5 is_stmt 1 view .LVU319
 900              	.LVL51:
 616:HANcoder_E407_TTA_CombineModel.c **** 
 901              		.loc 1 616 5 view .LVU320
 902              		.loc 1 621 5 view .LVU321
 903              		.loc 1 621 40 is_stmt 0 view .LVU322
 904 008e 00F00E81 		beq	.L269
 905              	.LVL52:
 622:HANcoder_E407_TTA_CombineModel.c **** 
 623:HANcoder_E407_TTA_CombineModel.c ****     /* Outputs for Enabled SubSystem: '<S11>/MMBS1_RX' */
 624:HANcoder_E407_TTA_CombineModel.c ****     /* Constant: '<S11>/Constant12' */
 625:HANcoder_E407_TTA_CombineModel.c ****     MMBS1_RX(AND3, MMBS1_ID, &rtB.MMBS1_RX_j, &rtDWork.MMBS1_RX_j);
 906              		.loc 1 625 5 is_stmt 1 view .LVU323
 907 0092 9F4B     		ldr	r3, .L291+12
 908 0094 0AF12602 		add	r2, r10, #38
 909 0098 1968     		ldr	r1, [r3]
 910 009a 9E4B     		ldr	r3, .L291+16
 911 009c 0020     		movs	r0, #0
 912 009e FFF7FEFF 		bl	MMBS1_RX
 913              	.LVL53:
 626:HANcoder_E407_TTA_CombineModel.c **** 
 627:HANcoder_E407_TTA_CombineModel.c ****     /* End of Outputs for SubSystem: '<S11>/MMBS1_RX' */
 628:HANcoder_E407_TTA_CombineModel.c **** 
 629:HANcoder_E407_TTA_CombineModel.c ****     /* Logic: '<S11>/AND2' */
 630:HANcoder_E407_TTA_CombineModel.c ****     rtb_AND2 = (rtb_Level2MfileSFunction_j && rtb_Equal14);
 914              		.loc 1 630 5 view .LVU324
 915              	.L168:
 631:HANcoder_E407_TTA_CombineModel.c **** 
 632:HANcoder_E407_TTA_CombineModel.c ****     /* Outputs for Triggered SubSystem: '<S11>/MMBS1_TX' */
 633:HANcoder_E407_TTA_CombineModel.c ****     /* Constant: '<S11>/Constant12' */
 634:HANcoder_E407_TTA_CombineModel.c ****     MMBS1_TX(rtb_AND2, MMBS1_ID, &rtPrevZCSigState.MMBS1_TX_a);
 916              		.loc 1 634 5 view .LVU325
 917              	.LBB107:
 918              	.LBI107:
 412:HANcoder_E407_TTA_CombineModel.c **** {
 919              		.loc 1 412 6 view .LVU326
 920              	.LBB108:
 417:HANcoder_E407_TTA_CombineModel.c ****     /* Update for M-S-Function: '<S40>/S-Function' */
 921              		.loc 1 417 3 view .LVU327
 922 00a2 9D4D     		ldr	r5, .L291+20
 923              	.LBE108:
 924              	.LBE107:
 630:HANcoder_E407_TTA_CombineModel.c **** 
 925              		.loc 1 630 14 is_stmt 0 view .LVU328
 926 00a4 0023     		movs	r3, #0
 927              	.LVL54:
 928              	.L153:
 929              	.LBB112:
 930              	.LBB109:
 428:HANcoder_E407_TTA_CombineModel.c **** 
 931              		.loc 1 428 3 is_stmt 1 view .LVU329
 428:HANcoder_E407_TTA_CombineModel.c **** 
 932              		.loc 1 428 31 is_stmt 0 view .LVU330
 933 00a6 2B73     		strb	r3, [r5, #12]
 934              	.LBE109:
 935              	.LBE112:
 635:HANcoder_E407_TTA_CombineModel.c **** 
 636:HANcoder_E407_TTA_CombineModel.c ****     /* End of Outputs for SubSystem: '<S11>/MMBS1_TX' */
 637:HANcoder_E407_TTA_CombineModel.c **** 
 638:HANcoder_E407_TTA_CombineModel.c ****     /* RelationalOperator: '<S11>/Equal2' incorporates:
 639:HANcoder_E407_TTA_CombineModel.c ****      *  Constant: '<S11>/Constant2'
 640:HANcoder_E407_TTA_CombineModel.c ****      */
 641:HANcoder_E407_TTA_CombineModel.c ****     rtb_Equal14 = (slotSelected == 3.0);
 936              		.loc 1 641 5 is_stmt 1 view .LVU331
 937              	.LVL55:
 642:HANcoder_E407_TTA_CombineModel.c **** 
 643:HANcoder_E407_TTA_CombineModel.c ****     /* M-S-Function: '<S8>/Level-2 M-file S-Function' incorporates:
 644:HANcoder_E407_TTA_CombineModel.c ****      *  Constant: '<S11>/Constant15'
 645:HANcoder_E407_TTA_CombineModel.c ****      *  DataStoreRead: '<S1>/Data Store Read'
 646:HANcoder_E407_TTA_CombineModel.c ****      *  RelationalOperator: '<S11>/Equal12'
 647:HANcoder_E407_TTA_CombineModel.c ****      */
 648:HANcoder_E407_TTA_CombineModel.c ****     rtb_Level2MfileSFunction_j = (rtDWork.nodeRole == 1.0);
 938              		.loc 1 648 5 view .LVU332
 641:HANcoder_E407_TTA_CombineModel.c **** 
 939              		.loc 1 641 33 is_stmt 0 view .LVU333
 940 00a8 9BF80030 		ldrb	r3, [fp]	@ zero_extendqisi2
 941 00ac 07EE903A 		vmov	s15, r3	@ int
 942              		.loc 1 648 42 view .LVU334
 943 00b0 94F8CB30 		ldrb	r3, [r4, #203]	@ zero_extendqisi2
 641:HANcoder_E407_TTA_CombineModel.c **** 
 944              		.loc 1 641 33 view .LVU335
 945 00b4 F8EEE77A 		vcvt.f32.s32	s15, s15
 649:HANcoder_E407_TTA_CombineModel.c **** 
 650:HANcoder_E407_TTA_CombineModel.c ****     /* Logic: '<S11>/AND5' incorporates:
 651:HANcoder_E407_TTA_CombineModel.c ****      *  Logic: '<S11>/NOT2'
 652:HANcoder_E407_TTA_CombineModel.c ****      */
 653:HANcoder_E407_TTA_CombineModel.c ****     AND5 = (rtb_Equal14 && (!rtb_Level2MfileSFunction_j));
 946              		.loc 1 653 25 view .LVU336
 947 00b8 F0EE086A 		vmov.f32	s13, #3.0e+0
 648:HANcoder_E407_TTA_CombineModel.c **** 
 948              		.loc 1 648 52 view .LVU337
 949 00bc 07EE103A 		vmov	s14, r3	@ int
 950              		.loc 1 653 25 view .LVU338
 951 00c0 F4EE667A 		vcmp.f32	s15, s13
 952 00c4 F1EE10FA 		vmrs	APSR_nzcv, FPSCR
 648:HANcoder_E407_TTA_CombineModel.c **** 
 953              		.loc 1 648 52 view .LVU339
 954 00c8 B8EEC77A 		vcvt.f32.s32	s14, s14
 955              	.LVL56:
 956              		.loc 1 653 5 is_stmt 1 view .LVU340
 957              		.loc 1 653 25 is_stmt 0 view .LVU341
 958 00cc 40F04185 		bne	.L67
 959              		.loc 1 653 25 discriminator 1 view .LVU342
 960 00d0 F7EE007A 		vmov.f32	s15, #1.0e+0
 961 00d4 B4EE677A 		vcmp.f32	s14, s15
 962 00d8 F1EE10FA 		vmrs	APSR_nzcv, FPSCR
 963 00dc 00F03E81 		beq	.L270
 964              	.LVL57:
 654:HANcoder_E407_TTA_CombineModel.c **** 
 655:HANcoder_E407_TTA_CombineModel.c ****     /* Outputs for Enabled SubSystem: '<S11>/SSTM1_RX' */
 656:HANcoder_E407_TTA_CombineModel.c ****     /* Constant: '<S11>/Constant14' */
 657:HANcoder_E407_TTA_CombineModel.c ****     MMBS1_RX(AND5, SSTM1_ID, &rtB.SSTM1_RX, &rtDWork.SSTM1_RX);
 965              		.loc 1 657 5 is_stmt 1 view .LVU343
 966 00e0 8E4B     		ldr	r3, .L291+24
 967 00e2 8F4A     		ldr	r2, .L291+28
 968 00e4 1968     		ldr	r1, [r3]
 969 00e6 8F4B     		ldr	r3, .L291+32
 970 00e8 0120     		movs	r0, #1
 971 00ea FFF7FEFF 		bl	MMBS1_RX
 972              	.LVL58:
 658:HANcoder_E407_TTA_CombineModel.c **** 
 659:HANcoder_E407_TTA_CombineModel.c ****     /* End of Outputs for SubSystem: '<S11>/SSTM1_RX' */
 660:HANcoder_E407_TTA_CombineModel.c **** 
 661:HANcoder_E407_TTA_CombineModel.c ****     /* Logic: '<S11>/AND4' */
 662:HANcoder_E407_TTA_CombineModel.c ****     rtb_AND4 = (rtb_Equal14 && rtb_Level2MfileSFunction_j);
 973              		.loc 1 662 5 view .LVU344
 663:HANcoder_E407_TTA_CombineModel.c **** 
 664:HANcoder_E407_TTA_CombineModel.c ****     /* Outputs for Triggered SubSystem: '<S11>/SSTM1_TX' */
 665:HANcoder_E407_TTA_CombineModel.c ****     /* Constant: '<S11>/Constant14' */
 666:HANcoder_E407_TTA_CombineModel.c ****     MMBS1_TX(rtb_AND4, SSTM1_ID, &rtPrevZCSigState.SSTM1_TX);
 974              		.loc 1 666 5 view .LVU345
 975              	.LBB113:
 976              	.LBI113:
 412:HANcoder_E407_TTA_CombineModel.c **** {
 977              		.loc 1 412 6 view .LVU346
 978              	.LBB114:
 417:HANcoder_E407_TTA_CombineModel.c ****     /* Update for M-S-Function: '<S40>/S-Function' */
 979              		.loc 1 417 3 view .LVU347
 980              	.LBE114:
 981              	.LBE113:
 662:HANcoder_E407_TTA_CombineModel.c **** 
 982              		.loc 1 662 14 is_stmt 0 view .LVU348
 983 00ee 0023     		movs	r3, #0
 984              	.LVL59:
 985              	.L152:
 986              	.LBB119:
 987              	.LBB115:
 428:HANcoder_E407_TTA_CombineModel.c **** 
 988              		.loc 1 428 3 is_stmt 1 view .LVU349
 428:HANcoder_E407_TTA_CombineModel.c **** 
 989              		.loc 1 428 31 is_stmt 0 view .LVU350
 990 00f0 EB72     		strb	r3, [r5, #11]
 991              	.LBE115:
 992              	.LBE119:
 667:HANcoder_E407_TTA_CombineModel.c **** 
 668:HANcoder_E407_TTA_CombineModel.c ****     /* End of Outputs for SubSystem: '<S11>/SSTM1_TX' */
 669:HANcoder_E407_TTA_CombineModel.c **** 
 670:HANcoder_E407_TTA_CombineModel.c ****     /* RelationalOperator: '<S11>/Equal' incorporates:
 671:HANcoder_E407_TTA_CombineModel.c ****      *  Constant: '<S11>/Constant'
 672:HANcoder_E407_TTA_CombineModel.c ****      */
 673:HANcoder_E407_TTA_CombineModel.c ****     rtb_Equal14 = (slotSelected == ((uint8_T)1U));
 993              		.loc 1 673 5 is_stmt 1 view .LVU351
 994              		.loc 1 673 33 is_stmt 0 view .LVU352
 995 00f2 9BF80030 		ldrb	r3, [fp]	@ zero_extendqisi2
 996              	.LVL60:
 674:HANcoder_E407_TTA_CombineModel.c **** 
 675:HANcoder_E407_TTA_CombineModel.c ****     /* M-S-Function: '<S8>/Level-2 M-file S-Function' incorporates:
 676:HANcoder_E407_TTA_CombineModel.c ****      *  Constant: '<S11>/Constant11'
 677:HANcoder_E407_TTA_CombineModel.c ****      *  DataStoreRead: '<S1>/Data Store Read'
 678:HANcoder_E407_TTA_CombineModel.c ****      *  RelationalOperator: '<S11>/Equal10'
 679:HANcoder_E407_TTA_CombineModel.c ****      */
 680:HANcoder_E407_TTA_CombineModel.c ****     rtb_Level2MfileSFunction_j = (rtDWork.nodeRole == ((uint8_T)1U));
 997              		.loc 1 680 5 is_stmt 1 view .LVU353
 998              		.loc 1 680 42 is_stmt 0 view .LVU354
 999 00f6 94F8CB20 		ldrb	r2, [r4, #203]	@ zero_extendqisi2
 1000              	.LVL61:
 681:HANcoder_E407_TTA_CombineModel.c **** 
 682:HANcoder_E407_TTA_CombineModel.c ****     /* Logic: '<S11>/AND1' incorporates:
 683:HANcoder_E407_TTA_CombineModel.c ****      *  Logic: '<S11>/NOT'
 684:HANcoder_E407_TTA_CombineModel.c ****      */
 685:HANcoder_E407_TTA_CombineModel.c ****     rtb_AND1_k = (rtb_Equal14 && (!rtb_Level2MfileSFunction_j));
 1001              		.loc 1 685 5 is_stmt 1 view .LVU355
 1002              		.loc 1 685 31 is_stmt 0 view .LVU356
 1003 00fa 012B     		cmp	r3, #1
 1004 00fc 00F04981 		beq	.L271
 1005              	.LVL62:
 1006              	.L70:
 686:HANcoder_E407_TTA_CombineModel.c **** 
 687:HANcoder_E407_TTA_CombineModel.c ****     /* Outputs for Enabled SubSystem: '<S11>/SYNC1_RX' incorporates:
 688:HANcoder_E407_TTA_CombineModel.c ****      *  EnablePort: '<S24>/Enable'
 689:HANcoder_E407_TTA_CombineModel.c ****      */
 690:HANcoder_E407_TTA_CombineModel.c ****     if (rtb_AND1_k) {
 1007              		.loc 1 690 5 is_stmt 1 view .LVU357
 691:HANcoder_E407_TTA_CombineModel.c ****       rtDWork.SYNC1_RX_MODE = true;
 692:HANcoder_E407_TTA_CombineModel.c **** 
 693:HANcoder_E407_TTA_CombineModel.c ****       /* M-S-Function: '<S44>/S-Function' incorporates:
 694:HANcoder_E407_TTA_CombineModel.c ****        *  Constant: '<S11>/Constant10'
 695:HANcoder_E407_TTA_CombineModel.c ****        */
 696:HANcoder_E407_TTA_CombineModel.c **** 
 697:HANcoder_E407_TTA_CombineModel.c ****       /* read the message data and store the new parameter */
 698:HANcoder_E407_TTA_CombineModel.c ****       rtb_SFunction_o1_h = CanIoGetMessage(0, SYNC1_ID, NULL,
 699:HANcoder_E407_TTA_CombineModel.c ****         &canRxData_0_SYNC1_ID.uint8_T_info[0], NULL);
 700:HANcoder_E407_TTA_CombineModel.c **** 
 701:HANcoder_E407_TTA_CombineModel.c ****       /* process the message data */
 702:HANcoder_E407_TTA_CombineModel.c ****       if (rtb_SFunction_o1_h > 0) {
 703:HANcoder_E407_TTA_CombineModel.c ****         /* read the data */
 704:HANcoder_E407_TTA_CombineModel.c ****         rtb_SFunction_o2_i = canRxData_0_SYNC1_ID.uint8_T_info[0];
 705:HANcoder_E407_TTA_CombineModel.c ****         rtb_SFunction_o3_g = canRxData_0_SYNC1_ID.uint8_T_info[1];
 706:HANcoder_E407_TTA_CombineModel.c ****         rtb_SFunction_o4_j = canRxData_0_SYNC1_ID.uint8_T_info[2];
 707:HANcoder_E407_TTA_CombineModel.c ****         rtb_SFunction_o5_f = canRxData_0_SYNC1_ID.uint8_T_info[3];
 708:HANcoder_E407_TTA_CombineModel.c ****         rtb_SFunction_o6_g = canRxData_0_SYNC1_ID.uint8_T_info[4];
 709:HANcoder_E407_TTA_CombineModel.c ****         rtb_SFunction_o7_k = canRxData_0_SYNC1_ID.uint8_T_info[5];
 710:HANcoder_E407_TTA_CombineModel.c ****         rtb_SFunction_o8_n = canRxData_0_SYNC1_ID.uint8_T_info[6];
 711:HANcoder_E407_TTA_CombineModel.c ****         rtb_SFunction_o9_b1 = canRxData_0_SYNC1_ID.uint8_T_info[7];
 712:HANcoder_E407_TTA_CombineModel.c ****       }
 713:HANcoder_E407_TTA_CombineModel.c **** 
 714:HANcoder_E407_TTA_CombineModel.c ****       /* Outputs for Enabled SubSystem: '<S44>/Enabled Subsystem' */
 715:HANcoder_E407_TTA_CombineModel.c ****       EnabledSubsystem(rtb_SFunction_o1_h, rtb_SFunction_o2_i,
 716:HANcoder_E407_TTA_CombineModel.c ****                        rtb_SFunction_o3_g, rtb_SFunction_o4_j,
 717:HANcoder_E407_TTA_CombineModel.c ****                        rtb_SFunction_o5_f, rtb_SFunction_o6_g,
 718:HANcoder_E407_TTA_CombineModel.c ****                        rtb_SFunction_o7_k, rtb_SFunction_o8_n,
 719:HANcoder_E407_TTA_CombineModel.c ****                        rtb_SFunction_o9_b1, &rtB.EnabledSubsystem_c);
 720:HANcoder_E407_TTA_CombineModel.c **** 
 721:HANcoder_E407_TTA_CombineModel.c ****       /* End of Outputs for SubSystem: '<S44>/Enabled Subsystem' */
 722:HANcoder_E407_TTA_CombineModel.c **** 
 723:HANcoder_E407_TTA_CombineModel.c ****       /* Outputs for Triggered SubSystem: '<S24>/Subsystem' incorporates:
 724:HANcoder_E407_TTA_CombineModel.c ****        *  TriggerPort: '<S45>/Trigger'
 725:HANcoder_E407_TTA_CombineModel.c ****        */
 726:HANcoder_E407_TTA_CombineModel.c ****       zcEvent = rt_I32ZCFcn(RISING_ZERO_CROSSING,
 727:HANcoder_E407_TTA_CombineModel.c ****                             &rtPrevZCSigState.Subsystem_Trig_ZCE_h,
 728:HANcoder_E407_TTA_CombineModel.c ****                             (rtb_SFunction_o1_h));
 729:HANcoder_E407_TTA_CombineModel.c ****       if (zcEvent != NO_ZCEVENT) {
 730:HANcoder_E407_TTA_CombineModel.c ****         /* DataStoreWrite: '<S45>/Data Store Write' */
 731:HANcoder_E407_TTA_CombineModel.c ****         rtDWork.SlotTime = rtB.EnabledSubsystem_c.In1;
 732:HANcoder_E407_TTA_CombineModel.c **** 
 733:HANcoder_E407_TTA_CombineModel.c ****         /* DataStoreWrite: '<S45>/Data Store Write1' incorporates:
 734:HANcoder_E407_TTA_CombineModel.c ****          *  Constant: '<S45>/Constant'
 735:HANcoder_E407_TTA_CombineModel.c ****          */
 736:HANcoder_E407_TTA_CombineModel.c ****         rtDWork.Local_Ticks = ((uint16_T)0U);
 737:HANcoder_E407_TTA_CombineModel.c ****       }
 738:HANcoder_E407_TTA_CombineModel.c **** 
 739:HANcoder_E407_TTA_CombineModel.c ****       /* End of Outputs for SubSystem: '<S24>/Subsystem' */
 740:HANcoder_E407_TTA_CombineModel.c ****     } else if (rtDWork.SYNC1_RX_MODE) {
 1008              		.loc 1 740 12 view .LVU358
 1009              		.loc 1 740 15 is_stmt 0 view .LVU359
 1010 0100 94F8D620 		ldrb	r2, [r4, #214]	@ zero_extendqisi2
 1011 0104 002A     		cmp	r2, #0
 1012 0106 40F02E85 		bne	.L164
 1013              	.LVL63:
 1014              	.L163:
 741:HANcoder_E407_TTA_CombineModel.c ****       rtDWork.SYNC1_RX_MODE = false;
 742:HANcoder_E407_TTA_CombineModel.c ****     }
 743:HANcoder_E407_TTA_CombineModel.c **** 
 744:HANcoder_E407_TTA_CombineModel.c ****     /* End of Outputs for SubSystem: '<S11>/SYNC1_RX' */
 745:HANcoder_E407_TTA_CombineModel.c **** 
 746:HANcoder_E407_TTA_CombineModel.c ****     /* Logic: '<S11>/AND' */
 747:HANcoder_E407_TTA_CombineModel.c ****     boolCan = (rtb_Equal14 && rtb_Level2MfileSFunction_j);
 1015              		.loc 1 747 13 view .LVU360
 1016 010a 8749     		ldr	r1, .L291+36
 1017 010c 0022     		movs	r2, #0
 1018 010e 0A70     		strb	r2, [r1]
 748:HANcoder_E407_TTA_CombineModel.c **** 
 749:HANcoder_E407_TTA_CombineModel.c ****     /* Outputs for Triggered SubSystem: '<S11>/SYNC1_TX' incorporates:
 750:HANcoder_E407_TTA_CombineModel.c ****      *  TriggerPort: '<S25>/Trigger'
 751:HANcoder_E407_TTA_CombineModel.c ****      */
 752:HANcoder_E407_TTA_CombineModel.c ****     if (boolCan && (rtPrevZCSigState.SYNC1_TX_Trig_ZCE != POS_ZCSIG)) {
 1019              		.loc 1 752 5 is_stmt 1 view .LVU361
 1020              	.L147:
 753:HANcoder_E407_TTA_CombineModel.c ****       /* DataStoreRead: '<S25>/Data Store Read1' */
 754:HANcoder_E407_TTA_CombineModel.c ****       testCounter = rtDWork.testCount;
 755:HANcoder_E407_TTA_CombineModel.c **** 
 756:HANcoder_E407_TTA_CombineModel.c ****       /* Sum: '<S25>/Add' incorporates:
 757:HANcoder_E407_TTA_CombineModel.c ****        *  Constant: '<S25>/Constant7'
 758:HANcoder_E407_TTA_CombineModel.c ****        *  DataStoreWrite: '<S25>/Data Store Write'
 759:HANcoder_E407_TTA_CombineModel.c ****        */
 760:HANcoder_E407_TTA_CombineModel.c ****       rtDWork.testCount = (uint16_T)((uint32_T)testCounter + ((uint16_T)1U));
 761:HANcoder_E407_TTA_CombineModel.c **** 
 762:HANcoder_E407_TTA_CombineModel.c ****       /* DataStoreRead: '<S25>/Data Store Read' */
 763:HANcoder_E407_TTA_CombineModel.c ****       rtB.DataStoreRead_n = rtDWork.SlotTime;
 764:HANcoder_E407_TTA_CombineModel.c **** 
 765:HANcoder_E407_TTA_CombineModel.c ****       /* Update for M-S-Function: '<S47>/S-Function' incorporates:
 766:HANcoder_E407_TTA_CombineModel.c ****        *  Constant: '<S11>/Constant10'
 767:HANcoder_E407_TTA_CombineModel.c ****        *  Constant: '<S25>/Constant'
 768:HANcoder_E407_TTA_CombineModel.c ****        *  Constant: '<S25>/Constant1'
 769:HANcoder_E407_TTA_CombineModel.c ****        *  Constant: '<S25>/Constant2'
 770:HANcoder_E407_TTA_CombineModel.c ****        *  Constant: '<S25>/Constant3'
 771:HANcoder_E407_TTA_CombineModel.c ****        *  Constant: '<S25>/Constant4'
 772:HANcoder_E407_TTA_CombineModel.c ****        *  Constant: '<S25>/Constant5'
 773:HANcoder_E407_TTA_CombineModel.c ****        *  Constant: '<S25>/Constant6'
 774:HANcoder_E407_TTA_CombineModel.c ****        */
 775:HANcoder_E407_TTA_CombineModel.c ****       {
 776:HANcoder_E407_TTA_CombineModel.c ****         /* prepare the data */
 777:HANcoder_E407_TTA_CombineModel.c ****         canTxData.uint8_T_info[0] = rtB.DataStoreRead_n;
 778:HANcoder_E407_TTA_CombineModel.c ****         canTxData.uint8_T_info[1] = ((uint8_T)1U);
 779:HANcoder_E407_TTA_CombineModel.c ****         canTxData.uint8_T_info[2] = ((uint8_T)0U);
 780:HANcoder_E407_TTA_CombineModel.c ****         canTxData.uint8_T_info[3] = ((uint8_T)0U);
 781:HANcoder_E407_TTA_CombineModel.c ****         canTxData.uint8_T_info[4] = ((uint8_T)0U);
 782:HANcoder_E407_TTA_CombineModel.c ****         canTxData.uint8_T_info[5] = ((uint8_T)0U);
 783:HANcoder_E407_TTA_CombineModel.c ****         canTxData.uint8_T_info[6] = ((uint8_T)0U);
 784:HANcoder_E407_TTA_CombineModel.c ****         canTxData.uint8_T_info[7] = ((uint8_T)1U);
 785:HANcoder_E407_TTA_CombineModel.c **** 
 786:HANcoder_E407_TTA_CombineModel.c ****         /* send the data */
 787:HANcoder_E407_TTA_CombineModel.c ****         CanTransmit(0, SYNC1_ID, 8, &canTxData.uint8_T_info[0]);
 788:HANcoder_E407_TTA_CombineModel.c ****       }
 789:HANcoder_E407_TTA_CombineModel.c ****     }
 790:HANcoder_E407_TTA_CombineModel.c **** 
 791:HANcoder_E407_TTA_CombineModel.c ****     rtPrevZCSigState.SYNC1_TX_Trig_ZCE = boolCan;
 1021              		.loc 1 791 5 view .LVU362
 792:HANcoder_E407_TTA_CombineModel.c **** 
 793:HANcoder_E407_TTA_CombineModel.c ****     /* End of Outputs for SubSystem: '<S11>/SYNC1_TX' */
 794:HANcoder_E407_TTA_CombineModel.c **** 
 795:HANcoder_E407_TTA_CombineModel.c ****     /* RelationalOperator: '<S11>/Equal4' incorporates:
 796:HANcoder_E407_TTA_CombineModel.c ****      *  Constant: '<S11>/Constant4'
 797:HANcoder_E407_TTA_CombineModel.c ****      */
 798:HANcoder_E407_TTA_CombineModel.c ****     rtb_Equal14 = (slotSelected == 5.0);
 1022              		.loc 1 798 33 is_stmt 0 view .LVU363
 1023 0110 07EE903A 		vmov	s15, r3	@ int
 1024 0114 F8EEE77A 		vcvt.f32.s32	s15, s15
 1025 0118 B1EE047A 		vmov.f32	s14, #5.0e+0
 1026 011c F4EE477A 		vcmp.f32	s15, s14
 1027 0120 F1EE10FA 		vmrs	APSR_nzcv, FPSCR
 791:HANcoder_E407_TTA_CombineModel.c **** 
 1028              		.loc 1 791 40 view .LVU364
 1029 0124 6A72     		strb	r2, [r5, #9]
 1030              		.loc 1 798 5 is_stmt 1 view .LVU365
 1031              		.loc 1 798 17 is_stmt 0 view .LVU366
 1032 0126 0CBF     		ite	eq
 1033 0128 0126     		moveq	r6, #1
 1034 012a 0026     		movne	r6, #0
 1035              	.LVL64:
 799:HANcoder_E407_TTA_CombineModel.c **** 
 800:HANcoder_E407_TTA_CombineModel.c ****     /* Outputs for Triggered SubSystem: '<S11>/Slot 5 execution' incorporates:
 801:HANcoder_E407_TTA_CombineModel.c ****      *  TriggerPort: '<S26>/Trigger'
 802:HANcoder_E407_TTA_CombineModel.c ****      */
 803:HANcoder_E407_TTA_CombineModel.c ****     if (rtb_Equal14 && (rtPrevZCSigState.Slot5execution_Trig_ZCE != POS_ZCSIG))
 1036              		.loc 1 803 5 is_stmt 1 view .LVU367
 1037              		.loc 1 803 8 is_stmt 0 view .LVU368
 1038 012c 03D1     		bne	.L75
 1039              		.loc 1 803 21 discriminator 1 view .LVU369
 1040 012e 2B7A     		ldrb	r3, [r5, #8]	@ zero_extendqisi2
 1041 0130 012B     		cmp	r3, #1
 1042 0132 40F08385 		bne	.L272
 1043              	.LVL65:
 1044              	.L75:
 804:HANcoder_E407_TTA_CombineModel.c ****     {
 805:HANcoder_E407_TTA_CombineModel.c ****       /* Gain: '<S48>/Gain' incorporates:
 806:HANcoder_E407_TTA_CombineModel.c ****        *  Constant: '<S48>/Constant2'
 807:HANcoder_E407_TTA_CombineModel.c ****        *  DataStoreWrite: '<S48>/Data Store Write2'
 808:HANcoder_E407_TTA_CombineModel.c ****        */
 809:HANcoder_E407_TTA_CombineModel.c ****       rtDWork.requestedAngle = 0.015001500150015003 * desiredAngle;
 810:HANcoder_E407_TTA_CombineModel.c **** 
 811:HANcoder_E407_TTA_CombineModel.c ****       /* M-S-Function: '<S53>/Level-2 M-file S-Function' */
 812:HANcoder_E407_TTA_CombineModel.c ****       /* read from analog input for filtered inputs*/
 813:HANcoder_E407_TTA_CombineModel.c ****       analogPot2 = AninGet(ANIN_PORTF_PIN8,0);
 814:HANcoder_E407_TTA_CombineModel.c **** 
 815:HANcoder_E407_TTA_CombineModel.c ****       /* Outputs for Enabled SubSystem: '<S48>/Subsystem' incorporates:
 816:HANcoder_E407_TTA_CombineModel.c ****        *  EnablePort: '<S50>/Enable'
 817:HANcoder_E407_TTA_CombineModel.c ****        */
 818:HANcoder_E407_TTA_CombineModel.c ****       /* RelationalOperator: '<S48>/Equal1' incorporates:
 819:HANcoder_E407_TTA_CombineModel.c ****        *  Constant: '<S48>/Constant1'
 820:HANcoder_E407_TTA_CombineModel.c ****        *  DataStoreRead: '<S26>/Data Store Read2'
 821:HANcoder_E407_TTA_CombineModel.c ****        */
 822:HANcoder_E407_TTA_CombineModel.c ****       if (rtDWork.nodeRole == ((uint8_T)5U)) {
 823:HANcoder_E407_TTA_CombineModel.c ****         /* Gain: '<S50>/Gain2' incorporates:
 824:HANcoder_E407_TTA_CombineModel.c ****          *  DataStoreWrite: '<S50>/Data Store Write'
 825:HANcoder_E407_TTA_CombineModel.c ****          */
 826:HANcoder_E407_TTA_CombineModel.c ****         rtDWork.trailerTwoAngle = (uint16_T)(((uint32_T)((uint16_T)62921U) *
 827:HANcoder_E407_TTA_CombineModel.c ****           analogPot2) >> 22);
 828:HANcoder_E407_TTA_CombineModel.c ****       }
 829:HANcoder_E407_TTA_CombineModel.c **** 
 830:HANcoder_E407_TTA_CombineModel.c ****       /* End of RelationalOperator: '<S48>/Equal1' */
 831:HANcoder_E407_TTA_CombineModel.c ****       /* End of Outputs for SubSystem: '<S48>/Subsystem' */
 832:HANcoder_E407_TTA_CombineModel.c **** 
 833:HANcoder_E407_TTA_CombineModel.c ****       /* M-S-Function: '<S52>/Level-2 M-file S-Function' */
 834:HANcoder_E407_TTA_CombineModel.c ****       /* read from analog input for filtered inputs*/
 835:HANcoder_E407_TTA_CombineModel.c ****       analogPot1 = AninGet(ANIN_PORTF_PIN7,0);
 836:HANcoder_E407_TTA_CombineModel.c **** 
 837:HANcoder_E407_TTA_CombineModel.c ****       /* Outputs for Enabled SubSystem: '<S48>/Subsystem1' incorporates:
 838:HANcoder_E407_TTA_CombineModel.c ****        *  EnablePort: '<S51>/Enable'
 839:HANcoder_E407_TTA_CombineModel.c ****        */
 840:HANcoder_E407_TTA_CombineModel.c ****       /* RelationalOperator: '<S48>/Equal' incorporates:
 841:HANcoder_E407_TTA_CombineModel.c ****        *  Constant: '<S48>/Constant'
 842:HANcoder_E407_TTA_CombineModel.c ****        *  DataStoreRead: '<S26>/Data Store Read2'
 843:HANcoder_E407_TTA_CombineModel.c ****        */
 844:HANcoder_E407_TTA_CombineModel.c ****       if (rtDWork.nodeRole == ((uint8_T)4U)) {
 845:HANcoder_E407_TTA_CombineModel.c ****         /* Gain: '<S51>/Gain2' incorporates:
 846:HANcoder_E407_TTA_CombineModel.c ****          *  DataStoreWrite: '<S51>/Data Store Write'
 847:HANcoder_E407_TTA_CombineModel.c ****          */
 848:HANcoder_E407_TTA_CombineModel.c ****         rtDWork.trailerOneAngle = (uint16_T)(((uint32_T)((uint16_T)62921U) *
 849:HANcoder_E407_TTA_CombineModel.c ****           analogPot1) >> 22);
 850:HANcoder_E407_TTA_CombineModel.c ****       }
 851:HANcoder_E407_TTA_CombineModel.c **** 
 852:HANcoder_E407_TTA_CombineModel.c ****       /* End of RelationalOperator: '<S48>/Equal' */
 853:HANcoder_E407_TTA_CombineModel.c ****       /* End of Outputs for SubSystem: '<S48>/Subsystem1' */
 854:HANcoder_E407_TTA_CombineModel.c ****       /* DataStoreRead: '<S26>/Data Store Read' */
 855:HANcoder_E407_TTA_CombineModel.c ****       rtB.DataStoreRead = rtDWork.pwmMotor;
 856:HANcoder_E407_TTA_CombineModel.c **** 
 857:HANcoder_E407_TTA_CombineModel.c ****       /* DataStoreRead: '<S26>/Data Store Read1' */
 858:HANcoder_E407_TTA_CombineModel.c ****       rtB.DataStoreRead1 = rtDWork.cwMotor;
 859:HANcoder_E407_TTA_CombineModel.c **** 
 860:HANcoder_E407_TTA_CombineModel.c ****       /* DataStoreRead: '<S26>/Data Store Read3' */
 861:HANcoder_E407_TTA_CombineModel.c ****       rtB.DataStoreRead3 = rtDWork.ccwMotor;
 862:HANcoder_E407_TTA_CombineModel.c **** 
 863:HANcoder_E407_TTA_CombineModel.c ****       /* Update for M-S-Function: '<S56>/Level-2 M-file S-Function' */
 864:HANcoder_E407_TTA_CombineModel.c ****       /* set the new duty cycle */
 865:HANcoder_E407_TTA_CombineModel.c ****       PwmoutSet(PWMOUT_TIM14_PIN_PF9, rtB.DataStoreRead);
 866:HANcoder_E407_TTA_CombineModel.c **** 
 867:HANcoder_E407_TTA_CombineModel.c ****       /* Update for M-S-Function: '<S54>/Level-2 M-file S-Function' */
 868:HANcoder_E407_TTA_CombineModel.c ****       /* update digital output */
 869:HANcoder_E407_TTA_CombineModel.c ****       if (rtB.DataStoreRead1 == 0) {
 870:HANcoder_E407_TTA_CombineModel.c ****         DigoutSet(DIGOUT_PORTE_PIN5, DIGOUT_LOW);
 871:HANcoder_E407_TTA_CombineModel.c ****       } else {
 872:HANcoder_E407_TTA_CombineModel.c ****         DigoutSet(DIGOUT_PORTE_PIN5, DIGOUT_HIGH);
 873:HANcoder_E407_TTA_CombineModel.c ****       }
 874:HANcoder_E407_TTA_CombineModel.c **** 
 875:HANcoder_E407_TTA_CombineModel.c ****       /* Update for M-S-Function: '<S55>/Level-2 M-file S-Function' */
 876:HANcoder_E407_TTA_CombineModel.c ****       /* update digital output */
 877:HANcoder_E407_TTA_CombineModel.c ****       if (rtB.DataStoreRead3 == 0) {
 878:HANcoder_E407_TTA_CombineModel.c ****         DigoutSet(DIGOUT_PORTE_PIN6, DIGOUT_LOW);
 879:HANcoder_E407_TTA_CombineModel.c ****       } else {
 880:HANcoder_E407_TTA_CombineModel.c ****         DigoutSet(DIGOUT_PORTE_PIN6, DIGOUT_HIGH);
 881:HANcoder_E407_TTA_CombineModel.c ****       }
 882:HANcoder_E407_TTA_CombineModel.c ****     }
 883:HANcoder_E407_TTA_CombineModel.c **** 
 884:HANcoder_E407_TTA_CombineModel.c ****     rtPrevZCSigState.Slot5execution_Trig_ZCE = rtb_Equal14;
 1045              		.loc 1 884 5 is_stmt 1 view .LVU370
 885:HANcoder_E407_TTA_CombineModel.c **** 
 886:HANcoder_E407_TTA_CombineModel.c ****     /* End of Outputs for SubSystem: '<S11>/Slot 5 execution' */
 887:HANcoder_E407_TTA_CombineModel.c **** 
 888:HANcoder_E407_TTA_CombineModel.c ****     /* RelationalOperator: '<S11>/Equal9' incorporates:
 889:HANcoder_E407_TTA_CombineModel.c ****      *  Constant: '<S11>/Constant9'
 890:HANcoder_E407_TTA_CombineModel.c ****      */
 891:HANcoder_E407_TTA_CombineModel.c ****     rtb_Equal14 = (slotSelected == 10.0);
 1046              		.loc 1 891 33 is_stmt 0 view .LVU371
 1047 0136 B2EE047A 		vmov.f32	s14, #1.0e+1
 1048 013a F4EE477A 		vcmp.f32	s15, s14
 1049 013e F1EE10FA 		vmrs	APSR_nzcv, FPSCR
 1050              		.loc 1 891 17 view .LVU372
 1051 0142 0CBF     		ite	eq
 1052 0144 0123     		moveq	r3, #1
 1053 0146 0023     		movne	r3, #0
 884:HANcoder_E407_TTA_CombineModel.c **** 
 1054              		.loc 1 884 46 view .LVU373
 1055 0148 2E72     		strb	r6, [r5, #8]
 1056              		.loc 1 891 5 is_stmt 1 view .LVU374
 1057              		.loc 1 891 17 is_stmt 0 view .LVU375
 1058 014a 0593     		str	r3, [sp, #20]
 1059              	.LVL66:
 892:HANcoder_E407_TTA_CombineModel.c **** 
 893:HANcoder_E407_TTA_CombineModel.c ****     /* Outputs for Triggered SubSystem: '<S11>/Subsystem' incorporates:
 894:HANcoder_E407_TTA_CombineModel.c ****      *  TriggerPort: '<S27>/Trigger'
 895:HANcoder_E407_TTA_CombineModel.c ****      */
 896:HANcoder_E407_TTA_CombineModel.c ****     if (rtb_Equal14 && (rtPrevZCSigState.Subsystem_Trig_ZCE_g != POS_ZCSIG)) {
 1060              		.loc 1 896 5 is_stmt 1 view .LVU376
 1061              		.loc 1 896 8 is_stmt 0 view .LVU377
 1062 014c 00F08E82 		beq	.L251
 1063 0150 764F     		ldr	r7, .L291+40
 1064              	.L81:
 897:HANcoder_E407_TTA_CombineModel.c ****       Subsystem_ELAPS_T_tmp = rtM->Timing.clockTick0;
 898:HANcoder_E407_TTA_CombineModel.c ****       Subsystem_ELAPS_T[0] = Subsystem_ELAPS_T_tmp - rtDWork.Subsystem_PREV_T[0];
 899:HANcoder_E407_TTA_CombineModel.c ****       rtDWork.Subsystem_PREV_T[0] = Subsystem_ELAPS_T_tmp;
 900:HANcoder_E407_TTA_CombineModel.c ****       rtDWork.Subsystem_PREV_T[1] = rtM->Timing.clockTickH0;
 901:HANcoder_E407_TTA_CombineModel.c **** 
 902:HANcoder_E407_TTA_CombineModel.c ****       /* DataStoreRead: '<S27>/Data Store Read' */
 903:HANcoder_E407_TTA_CombineModel.c ****       reqAngle = rtDWork.requestedAngle;
 904:HANcoder_E407_TTA_CombineModel.c **** 
 905:HANcoder_E407_TTA_CombineModel.c ****       /* Product: '<S113>/Product' incorporates:
 906:HANcoder_E407_TTA_CombineModel.c ****        *  Constant: '<S59>/TrailUnitWheelbase'
 907:HANcoder_E407_TTA_CombineModel.c ****        *  Trigonometry: '<S113>/tan '
 908:HANcoder_E407_TTA_CombineModel.c ****        */
 909:HANcoder_E407_TTA_CombineModel.c ****       rtb_Sum = tan(reqAngle) * rtConstB.Abs / 4.0;
 910:HANcoder_E407_TTA_CombineModel.c **** 
 911:HANcoder_E407_TTA_CombineModel.c ****       /* DataStoreRead: '<S27>/Data Store Read2' */
 912:HANcoder_E407_TTA_CombineModel.c ****       t2Angle = rtDWork.trailerTwoAngle;
 913:HANcoder_E407_TTA_CombineModel.c **** 
 914:HANcoder_E407_TTA_CombineModel.c ****       /* DataStoreRead: '<S27>/Data Store Read1' */
 915:HANcoder_E407_TTA_CombineModel.c ****       t1Angle = rtDWork.trailerOneAngle;
 916:HANcoder_E407_TTA_CombineModel.c **** 
 917:HANcoder_E407_TTA_CombineModel.c ****       /* Sum: '<S59>/Sum2' */
 918:HANcoder_E407_TTA_CombineModel.c ****       Gamma2 = (uint16_T)(t1Angle - t2Angle);
 919:HANcoder_E407_TTA_CombineModel.c **** 
 920:HANcoder_E407_TTA_CombineModel.c ****       /* Trigonometry: '<S111>/tan 1' incorporates:
 921:HANcoder_E407_TTA_CombineModel.c ****        *  DataTypeConversion: '<S111>/Cast'
 922:HANcoder_E407_TTA_CombineModel.c ****        *  Trigonometry: '<S112>/tan '
 923:HANcoder_E407_TTA_CombineModel.c ****        */
 924:HANcoder_E407_TTA_CombineModel.c ****       modValueRev = sin(Gamma2);
 925:HANcoder_E407_TTA_CombineModel.c **** 
 926:HANcoder_E407_TTA_CombineModel.c ****       /* Trigonometry: '<S111>/tan 2' incorporates:
 927:HANcoder_E407_TTA_CombineModel.c ****        *  DataTypeConversion: '<S111>/Cast'
 928:HANcoder_E407_TTA_CombineModel.c ****        *  Trigonometry: '<S112>/tan 1'
 929:HANcoder_E407_TTA_CombineModel.c ****        */
 930:HANcoder_E407_TTA_CombineModel.c ****       z = cos(Gamma2);
 931:HANcoder_E407_TTA_CombineModel.c **** 
 932:HANcoder_E407_TTA_CombineModel.c ****       /* Sum: '<S111>/Add' incorporates:
 933:HANcoder_E407_TTA_CombineModel.c ****        *  Constant: '<S27>/Constant'
 934:HANcoder_E407_TTA_CombineModel.c ****        *  Constant: '<S59>/TrailUnitWheelbase'
 935:HANcoder_E407_TTA_CombineModel.c ****        *  Product: '<S111>/Product1'
 936:HANcoder_E407_TTA_CombineModel.c ****        *  Product: '<S111>/Product2'
 937:HANcoder_E407_TTA_CombineModel.c ****        *  Trigonometry: '<S111>/tan 1'
 938:HANcoder_E407_TTA_CombineModel.c ****        *  Trigonometry: '<S111>/tan 2'
 939:HANcoder_E407_TTA_CombineModel.c ****        */
 940:HANcoder_E407_TTA_CombineModel.c ****       rtb_Integrator = rtb_Sum * 4.0 * modValueRev + z * 1.3;
 941:HANcoder_E407_TTA_CombineModel.c **** 
 942:HANcoder_E407_TTA_CombineModel.c ****       /* Sum: '<S59>/Sum1' incorporates:
 943:HANcoder_E407_TTA_CombineModel.c ****        *  Constant: '<S27>/Constant1'
 944:HANcoder_E407_TTA_CombineModel.c ****        */
 945:HANcoder_E407_TTA_CombineModel.c ****       Gamma1 = 0.0 - (real_T)t1Angle;
 946:HANcoder_E407_TTA_CombineModel.c **** 
 947:HANcoder_E407_TTA_CombineModel.c ****       /* Product: '<S112>/Product' incorporates:
 948:HANcoder_E407_TTA_CombineModel.c ****        *  Constant: '<S27>/Constant'
 949:HANcoder_E407_TTA_CombineModel.c ****        *  Constant: '<S59>/RearAxleToHitch'
 950:HANcoder_E407_TTA_CombineModel.c ****        *  Constant: '<S59>/TrailUnitWheelbase'
 951:HANcoder_E407_TTA_CombineModel.c ****        *  Gain: '<S112>/Gain'
 952:HANcoder_E407_TTA_CombineModel.c ****        *  Product: '<S112>/Product1'
 953:HANcoder_E407_TTA_CombineModel.c ****        *  Product: '<S112>/Product3'
 954:HANcoder_E407_TTA_CombineModel.c ****        *  Sum: '<S112>/Add'
 955:HANcoder_E407_TTA_CombineModel.c ****        */
 956:HANcoder_E407_TTA_CombineModel.c ****       rtb_Sum = (1.3 / 1.0 * modValueRev * (-1.0) + z / 1.0 * 4.0 * rtb_Sum) *
 957:HANcoder_E407_TTA_CombineModel.c ****         (rtConstB.signV2 * rtConstB.signL0b);
 958:HANcoder_E407_TTA_CombineModel.c **** 
 959:HANcoder_E407_TTA_CombineModel.c ****       /* Trigonometry: '<S116>/tan ' incorporates:
 960:HANcoder_E407_TTA_CombineModel.c ****        *  DataTypeConversion: '<S116>/Cast'
 961:HANcoder_E407_TTA_CombineModel.c ****        *  Trigonometry: '<S115>/tan 1'
 962:HANcoder_E407_TTA_CombineModel.c ****        */
 963:HANcoder_E407_TTA_CombineModel.c ****       modValueRev = sin(Gamma1);
 964:HANcoder_E407_TTA_CombineModel.c **** 
 965:HANcoder_E407_TTA_CombineModel.c ****       /* Trigonometry: '<S116>/tan 1' incorporates:
 966:HANcoder_E407_TTA_CombineModel.c ****        *  DataTypeConversion: '<S116>/Cast'
 967:HANcoder_E407_TTA_CombineModel.c ****        *  Trigonometry: '<S115>/tan 2'
 968:HANcoder_E407_TTA_CombineModel.c ****        */
 969:HANcoder_E407_TTA_CombineModel.c ****       z = cos(Gamma1);
 970:HANcoder_E407_TTA_CombineModel.c **** 
 971:HANcoder_E407_TTA_CombineModel.c ****       /* Signum: '<S116>/Sign' */
 972:HANcoder_E407_TTA_CombineModel.c ****       if (rtb_Integrator < 0.0) {
 973:HANcoder_E407_TTA_CombineModel.c ****         rtb_MovingAverage_0 = -1.0;
 974:HANcoder_E407_TTA_CombineModel.c ****       } else {
 975:HANcoder_E407_TTA_CombineModel.c ****         rtb_MovingAverage_0 = (rtb_Integrator > 0.0);
 976:HANcoder_E407_TTA_CombineModel.c ****       }
 977:HANcoder_E407_TTA_CombineModel.c **** 
 978:HANcoder_E407_TTA_CombineModel.c ****       /* Trigonometry: '<S114>/tan 1' incorporates:
 979:HANcoder_E407_TTA_CombineModel.c ****        *  Constant: '<S59>/RearAxleToHitch'
 980:HANcoder_E407_TTA_CombineModel.c ****        *  Constant: '<S59>/TractorWheelbase'
 981:HANcoder_E407_TTA_CombineModel.c ****        *  Constant: '<S59>/TrailUnitWheelbase'
 982:HANcoder_E407_TTA_CombineModel.c ****        *  DataTypeConversion: '<S114>/Cast'
 983:HANcoder_E407_TTA_CombineModel.c ****        *  Gain: '<S116>/Gain'
 984:HANcoder_E407_TTA_CombineModel.c ****        *  Product: '<S114>/Product1'
 985:HANcoder_E407_TTA_CombineModel.c ****        *  Product: '<S115>/Product1'
 986:HANcoder_E407_TTA_CombineModel.c ****        *  Product: '<S115>/Product2'
 987:HANcoder_E407_TTA_CombineModel.c ****        *  Product: '<S116>/Product'
 988:HANcoder_E407_TTA_CombineModel.c ****        *  Product: '<S116>/Product1'
 989:HANcoder_E407_TTA_CombineModel.c ****        *  Product: '<S116>/Product3'
 990:HANcoder_E407_TTA_CombineModel.c ****        *  Signum: '<S116>/Sign'
 991:HANcoder_E407_TTA_CombineModel.c ****        *  Sum: '<S115>/Add'
 992:HANcoder_E407_TTA_CombineModel.c ****        *  Sum: '<S116>/Add'
 993:HANcoder_E407_TTA_CombineModel.c ****        *  Trigonometry: '<S116>/tan '
 994:HANcoder_E407_TTA_CombineModel.c ****        *  Trigonometry: '<S116>/tan 1'
 995:HANcoder_E407_TTA_CombineModel.c ****        */
 996:HANcoder_E407_TTA_CombineModel.c ****       delta12K = (real32_T)atan((real32_T)((rtb_Integrator / 1.0 * modValueRev *
 997:HANcoder_E407_TTA_CombineModel.c ****         (-1.0) + z / 1.0 * 4.0 * rtb_Sum) * (rtb_MovingAverage_0 *
 998:HANcoder_E407_TTA_CombineModel.c ****         rtConstB.signL0b_o) * 3.0 / (rtb_Sum * 4.0 * modValueRev + z *
 999:HANcoder_E407_TTA_CombineModel.c ****         rtb_Integrator)));
1000:HANcoder_E407_TTA_CombineModel.c **** 
1001:HANcoder_E407_TTA_CombineModel.c ****       /* Gain: '<S58>/Gain2' incorporates:
1002:HANcoder_E407_TTA_CombineModel.c ****        *  DataTypeConversion: '<S58>/Cast3'
1003:HANcoder_E407_TTA_CombineModel.c ****        */
1004:HANcoder_E407_TTA_CombineModel.c ****       steering = 45.6 * delta12K;
1005:HANcoder_E407_TTA_CombineModel.c **** 
1006:HANcoder_E407_TTA_CombineModel.c ****       /* M-S-Function: '<S61>/Level-2 M-file S-Function' */
1007:HANcoder_E407_TTA_CombineModel.c ****       /* determine if the counter needs a reset  */
1008:HANcoder_E407_TTA_CombineModel.c ****       if (rtB.DataTypeConversion > 0) {
1009:HANcoder_E407_TTA_CombineModel.c ****         QuadEncResetCounter(QUADENC_TIM3_PA6_PB5);
1010:HANcoder_E407_TTA_CombineModel.c ****       }
1011:HANcoder_E407_TTA_CombineModel.c **** 
1012:HANcoder_E407_TTA_CombineModel.c ****       /* read counter from the quadrature encoder module */
1013:HANcoder_E407_TTA_CombineModel.c ****       rtb_Level2MfileSFunction_k = QuadEncGetCounter(QUADENC_TIM3_PA6_PB5);
1014:HANcoder_E407_TTA_CombineModel.c **** 
1015:HANcoder_E407_TTA_CombineModel.c ****       /* MATLABSystem: '<S58>/Moving Average' incorporates:
1016:HANcoder_E407_TTA_CombineModel.c ****        *  DataTypeConversion: '<S58>/Cast2'
1017:HANcoder_E407_TTA_CombineModel.c ****        */
1018:HANcoder_E407_TTA_CombineModel.c ****       if (rtDWork.obj.TunablePropsChanged) {
1019:HANcoder_E407_TTA_CombineModel.c ****         rtDWork.obj.TunablePropsChanged = false;
1020:HANcoder_E407_TTA_CombineModel.c ****       }
1021:HANcoder_E407_TTA_CombineModel.c **** 
1022:HANcoder_E407_TTA_CombineModel.c ****       obj = rtDWork.obj.pStatistic;
1023:HANcoder_E407_TTA_CombineModel.c ****       if (obj->isInitialized != 1) {
1024:HANcoder_E407_TTA_CombineModel.c ****         obj->isSetupComplete = false;
1025:HANcoder_E407_TTA_CombineModel.c ****         obj->isInitialized = 1;
1026:HANcoder_E407_TTA_CombineModel.c ****         obj->pCumSum = 0.0;
1027:HANcoder_E407_TTA_CombineModel.c ****         obj->pCumSumRev[0] = 0.0;
1028:HANcoder_E407_TTA_CombineModel.c ****         obj->pCumSumRev[1] = 0.0;
1029:HANcoder_E407_TTA_CombineModel.c ****         obj->pCumSumRev[2] = 0.0;
1030:HANcoder_E407_TTA_CombineModel.c ****         obj->pCumRevIndex = 1.0;
1031:HANcoder_E407_TTA_CombineModel.c ****         obj->pModValueRev = 0.0;
1032:HANcoder_E407_TTA_CombineModel.c ****         obj->isSetupComplete = true;
1033:HANcoder_E407_TTA_CombineModel.c ****         obj->pCumSum = 0.0;
1034:HANcoder_E407_TTA_CombineModel.c ****         obj->pCumSumRev[0] = 0.0;
1035:HANcoder_E407_TTA_CombineModel.c ****         obj->pCumSumRev[1] = 0.0;
1036:HANcoder_E407_TTA_CombineModel.c ****         obj->pCumSumRev[2] = 0.0;
1037:HANcoder_E407_TTA_CombineModel.c ****         obj->pCumRevIndex = 1.0;
1038:HANcoder_E407_TTA_CombineModel.c ****         obj->pModValueRev = 0.0;
1039:HANcoder_E407_TTA_CombineModel.c ****       }
1040:HANcoder_E407_TTA_CombineModel.c **** 
1041:HANcoder_E407_TTA_CombineModel.c ****       rtb_Integrator = obj->pCumRevIndex;
1042:HANcoder_E407_TTA_CombineModel.c ****       rtb_Sum = obj->pCumSum;
1043:HANcoder_E407_TTA_CombineModel.c ****       csumrev[0] = obj->pCumSumRev[0];
1044:HANcoder_E407_TTA_CombineModel.c ****       csumrev[1] = obj->pCumSumRev[1];
1045:HANcoder_E407_TTA_CombineModel.c ****       csumrev[2] = obj->pCumSumRev[2];
1046:HANcoder_E407_TTA_CombineModel.c ****       modValueRev = obj->pModValueRev;
1047:HANcoder_E407_TTA_CombineModel.c ****       z = 0.0;
1048:HANcoder_E407_TTA_CombineModel.c ****       rtb_MovingAverage_0 = 0.0;
1049:HANcoder_E407_TTA_CombineModel.c ****       rtb_Sum += (real_T)rtb_Level2MfileSFunction_k;
1050:HANcoder_E407_TTA_CombineModel.c ****       if (modValueRev == 0.0) {
1051:HANcoder_E407_TTA_CombineModel.c ****         z = csumrev[(int32_T)rtb_Integrator - 1] + rtb_Sum;
1052:HANcoder_E407_TTA_CombineModel.c ****       }
1053:HANcoder_E407_TTA_CombineModel.c **** 
1054:HANcoder_E407_TTA_CombineModel.c ****       csumrev[(int32_T)rtb_Integrator - 1] = rtb_Level2MfileSFunction_k;
1055:HANcoder_E407_TTA_CombineModel.c ****       if (rtb_Integrator != 3.0) {
1056:HANcoder_E407_TTA_CombineModel.c ****         rtb_Integrator++;
1057:HANcoder_E407_TTA_CombineModel.c ****       } else {
1058:HANcoder_E407_TTA_CombineModel.c ****         rtb_Integrator = 1.0;
1059:HANcoder_E407_TTA_CombineModel.c ****         rtb_Sum = 0.0;
1060:HANcoder_E407_TTA_CombineModel.c ****         csumrev[1] += csumrev[2];
1061:HANcoder_E407_TTA_CombineModel.c ****         csumrev[0] += csumrev[1];
1062:HANcoder_E407_TTA_CombineModel.c ****       }
1063:HANcoder_E407_TTA_CombineModel.c **** 
1064:HANcoder_E407_TTA_CombineModel.c ****       if (modValueRev == 0.0) {
1065:HANcoder_E407_TTA_CombineModel.c ****         rtb_MovingAverage_0 = z / 4.0;
1066:HANcoder_E407_TTA_CombineModel.c ****       }
1067:HANcoder_E407_TTA_CombineModel.c **** 
1068:HANcoder_E407_TTA_CombineModel.c ****       obj->pCumSum = rtb_Sum;
1069:HANcoder_E407_TTA_CombineModel.c ****       obj->pCumSumRev[0] = csumrev[0];
1070:HANcoder_E407_TTA_CombineModel.c ****       obj->pCumSumRev[1] = csumrev[1];
1071:HANcoder_E407_TTA_CombineModel.c ****       obj->pCumSumRev[2] = csumrev[2];
1072:HANcoder_E407_TTA_CombineModel.c ****       obj->pCumRevIndex = rtb_Integrator;
1073:HANcoder_E407_TTA_CombineModel.c ****       if (modValueRev > 0.0) {
1074:HANcoder_E407_TTA_CombineModel.c ****         obj->pModValueRev = modValueRev - 1.0;
1075:HANcoder_E407_TTA_CombineModel.c ****       } else {
1076:HANcoder_E407_TTA_CombineModel.c ****         obj->pModValueRev = 0.0;
1077:HANcoder_E407_TTA_CombineModel.c ****       }
1078:HANcoder_E407_TTA_CombineModel.c **** 
1079:HANcoder_E407_TTA_CombineModel.c ****       /* Gain: '<S58>/Gain1' incorporates:
1080:HANcoder_E407_TTA_CombineModel.c ****        *  MATLABSystem: '<S58>/Moving Average'
1081:HANcoder_E407_TTA_CombineModel.c ****        */
1082:HANcoder_E407_TTA_CombineModel.c ****       position = 0.021459227467811159 * rtb_MovingAverage_0;
1083:HANcoder_E407_TTA_CombineModel.c **** 
1084:HANcoder_E407_TTA_CombineModel.c ****       /* Sum: '<S58>/Sum' incorporates:
1085:HANcoder_E407_TTA_CombineModel.c ****        *  Rounding: '<S58>/Round'
1086:HANcoder_E407_TTA_CombineModel.c ****        *  Rounding: '<S58>/Round1'
1087:HANcoder_E407_TTA_CombineModel.c ****        */
1088:HANcoder_E407_TTA_CombineModel.c ****       control = floor(steering) - floor(position);
1089:HANcoder_E407_TTA_CombineModel.c **** 
1090:HANcoder_E407_TTA_CombineModel.c ****       /* Abs: '<S58>/Abs' */
1091:HANcoder_E407_TTA_CombineModel.c ****       rtb_Sum = fabs(control);
1092:HANcoder_E407_TTA_CombineModel.c **** 
1093:HANcoder_E407_TTA_CombineModel.c ****       /* Sum: '<S58>/Add' incorporates:
1094:HANcoder_E407_TTA_CombineModel.c ****        *  Constant: '<S58>/Motor dead zone'
1095:HANcoder_E407_TTA_CombineModel.c ****        *  DataTypeConversion: '<S58>/Cast'
1096:HANcoder_E407_TTA_CombineModel.c ****        *  DiscreteIntegrator: '<S93>/Integrator'
1097:HANcoder_E407_TTA_CombineModel.c ****        *  Gain: '<S98>/Proportional Gain'
1098:HANcoder_E407_TTA_CombineModel.c ****        *  Sum: '<S102>/Sum'
1099:HANcoder_E407_TTA_CombineModel.c ****        */
1100:HANcoder_E407_TTA_CombineModel.c ****       mospeed = (uint16_T)((uint32_T)(uint16_T)(propVal * rtb_Sum +
1101:HANcoder_E407_TTA_CombineModel.c ****         rtDWork.Integrator_DSTATE) + ((uint16_T)300U));
1102:HANcoder_E407_TTA_CombineModel.c **** 
1103:HANcoder_E407_TTA_CombineModel.c ****       /* DataStoreWrite: '<S27>/Data Store Write' */
1104:HANcoder_E407_TTA_CombineModel.c ****       rtDWork.pwmMotor = mospeed;
1105:HANcoder_E407_TTA_CombineModel.c **** 
1106:HANcoder_E407_TTA_CombineModel.c ****       /* DataTypeConversion: '<S58>/Cast1' incorporates:
1107:HANcoder_E407_TTA_CombineModel.c ****        *  Constant: '<S58>/Constant1'
1108:HANcoder_E407_TTA_CombineModel.c ****        *  RelationalOperator: '<S58>/GreaterThan'
1109:HANcoder_E407_TTA_CombineModel.c ****        */
1110:HANcoder_E407_TTA_CombineModel.c ****       cw = (control > 0.0);
1111:HANcoder_E407_TTA_CombineModel.c **** 
1112:HANcoder_E407_TTA_CombineModel.c ****       /* DataStoreWrite: '<S27>/Data Store Write1' */
1113:HANcoder_E407_TTA_CombineModel.c ****       rtDWork.cwMotor = cw;
1114:HANcoder_E407_TTA_CombineModel.c **** 
1115:HANcoder_E407_TTA_CombineModel.c ****       /* Logic: '<S58>/NOT' */
1116:HANcoder_E407_TTA_CombineModel.c ****       ccw = !cw;
1117:HANcoder_E407_TTA_CombineModel.c **** 
1118:HANcoder_E407_TTA_CombineModel.c ****       /* DataStoreWrite: '<S27>/Data Store Write8' */
1119:HANcoder_E407_TTA_CombineModel.c ****       rtDWork.ccwMotor = ccw;
1120:HANcoder_E407_TTA_CombineModel.c **** 
1121:HANcoder_E407_TTA_CombineModel.c ****       /* DataTypeConversion: '<S61>/Data Type Conversion' incorporates:
1122:HANcoder_E407_TTA_CombineModel.c ****        *  RelationalOperator: '<S110>/FixPt Relational Operator'
1123:HANcoder_E407_TTA_CombineModel.c ****        *  UnitDelay: '<S110>/Delay Input1'
1124:HANcoder_E407_TTA_CombineModel.c ****        *
1125:HANcoder_E407_TTA_CombineModel.c ****        * Block description for '<S110>/Delay Input1':
1126:HANcoder_E407_TTA_CombineModel.c ****        *
1127:HANcoder_E407_TTA_CombineModel.c ****        *  Store in Global RAM
1128:HANcoder_E407_TTA_CombineModel.c ****        */
1129:HANcoder_E407_TTA_CombineModel.c ****       rtB.DataTypeConversion = (rtDWork.DelayInput1_DSTATE < 0.0);
1130:HANcoder_E407_TTA_CombineModel.c **** 
1131:HANcoder_E407_TTA_CombineModel.c ****       /* Update for DiscreteIntegrator: '<S93>/Integrator' incorporates:
1132:HANcoder_E407_TTA_CombineModel.c ****        *  Gain: '<S90>/Integral Gain'
1133:HANcoder_E407_TTA_CombineModel.c ****        */
1134:HANcoder_E407_TTA_CombineModel.c ****       rtDWork.Integrator_DSTATE += 0.001 * (real_T)Subsystem_ELAPS_T[0] *
1135:HANcoder_E407_TTA_CombineModel.c ****         (intVal * rtb_Sum);
1136:HANcoder_E407_TTA_CombineModel.c **** 
1137:HANcoder_E407_TTA_CombineModel.c ****       /* Update for UnitDelay: '<S110>/Delay Input1'
1138:HANcoder_E407_TTA_CombineModel.c ****        *
1139:HANcoder_E407_TTA_CombineModel.c ****        * Block description for '<S110>/Delay Input1':
1140:HANcoder_E407_TTA_CombineModel.c ****        *
1141:HANcoder_E407_TTA_CombineModel.c ****        *  Store in Global RAM
1142:HANcoder_E407_TTA_CombineModel.c ****        */
1143:HANcoder_E407_TTA_CombineModel.c ****       rtDWork.DelayInput1_DSTATE = 0.0;
1144:HANcoder_E407_TTA_CombineModel.c ****     }
1145:HANcoder_E407_TTA_CombineModel.c **** 
1146:HANcoder_E407_TTA_CombineModel.c ****     rtPrevZCSigState.Subsystem_Trig_ZCE_g = rtb_Equal14;
 1065              		.loc 1 1146 5 is_stmt 1 view .LVU378
 1066              		.loc 1 1146 43 is_stmt 0 view .LVU379
 1067 0152 059B     		ldr	r3, [sp, #20]
 1068 0154 EB71     		strb	r3, [r5, #7]
1147:HANcoder_E407_TTA_CombineModel.c **** 
1148:HANcoder_E407_TTA_CombineModel.c ****     /* End of Outputs for SubSystem: '<S11>/Subsystem' */
1149:HANcoder_E407_TTA_CombineModel.c **** 
1150:HANcoder_E407_TTA_CombineModel.c ****     /* RelationalOperator: '<S11>/Equal6' incorporates:
1151:HANcoder_E407_TTA_CombineModel.c ****      *  Constant: '<S11>/Constant7'
1152:HANcoder_E407_TTA_CombineModel.c ****      */
1153:HANcoder_E407_TTA_CombineModel.c ****     rtb_Equal14 = (slotSelected == 6.0);
 1069              		.loc 1 1153 5 is_stmt 1 view .LVU380
 1070              	.LVL67:
1154:HANcoder_E407_TTA_CombineModel.c **** 
1155:HANcoder_E407_TTA_CombineModel.c ****     /* M-S-Function: '<S8>/Level-2 M-file S-Function' incorporates:
1156:HANcoder_E407_TTA_CombineModel.c ****      *  Constant: '<S11>/Constant6'
1157:HANcoder_E407_TTA_CombineModel.c ****      *  DataStoreRead: '<S1>/Data Store Read'
1158:HANcoder_E407_TTA_CombineModel.c ****      *  RelationalOperator: '<S11>/Equal5'
1159:HANcoder_E407_TTA_CombineModel.c ****      */
1160:HANcoder_E407_TTA_CombineModel.c ****     rtb_Level2MfileSFunction_j = (rtDWork.nodeRole == 2.0);
 1071              		.loc 1 1160 5 view .LVU381
 1072              		.loc 1 1160 42 is_stmt 0 view .LVU382
 1073 0156 94F8CB30 		ldrb	r3, [r4, #203]	@ zero_extendqisi2
1161:HANcoder_E407_TTA_CombineModel.c **** 
1162:HANcoder_E407_TTA_CombineModel.c ****     /* Logic: '<S11>/AND9' incorporates:
1163:HANcoder_E407_TTA_CombineModel.c ****      *  Logic: '<S11>/NOT4'
1164:HANcoder_E407_TTA_CombineModel.c ****      */
1165:HANcoder_E407_TTA_CombineModel.c ****     AND9 = (rtb_Equal14 && (!rtb_Level2MfileSFunction_j));
 1074              		.loc 1 1165 25 view .LVU383
 1075 015a F1EE086A 		vmov.f32	s13, #6.0e+0
1160:HANcoder_E407_TTA_CombineModel.c **** 
 1076              		.loc 1 1160 52 view .LVU384
 1077 015e 07EE103A 		vmov	s14, r3	@ int
 1078              		.loc 1 1165 25 view .LVU385
 1079 0162 F4EE667A 		vcmp.f32	s15, s13
 1080 0166 F1EE10FA 		vmrs	APSR_nzcv, FPSCR
1160:HANcoder_E407_TTA_CombineModel.c **** 
 1081              		.loc 1 1160 52 view .LVU386
 1082 016a B8EEC77A 		vcvt.f32.s32	s14, s14
 1083              	.LVL68:
 1084              		.loc 1 1165 5 is_stmt 1 view .LVU387
 1085              		.loc 1 1165 25 is_stmt 0 view .LVU388
 1086 016e 40F00382 		bne	.L97
 1087              		.loc 1 1165 25 discriminator 1 view .LVU389
 1088 0172 F0EE007A 		vmov.f32	s15, #2.0e+0
 1089 0176 B4EE677A 		vcmp.f32	s14, s15
 1090 017a F1EE10FA 		vmrs	APSR_nzcv, FPSCR
 1091 017e 00F02A81 		beq	.L273
 1092              	.LVL69:
1166:HANcoder_E407_TTA_CombineModel.c **** 
1167:HANcoder_E407_TTA_CombineModel.c ****     /* Outputs for Enabled SubSystem: '<S11>/TRCK1_ID2_RX' */
1168:HANcoder_E407_TTA_CombineModel.c ****     /* Constant: '<S11>/Constant5' */
1169:HANcoder_E407_TTA_CombineModel.c ****     MMBS1_RX(AND9, TRCK1_ID2, &rtB.TRCK1_ID2_RX, &rtDWork.TRCK1_ID2_RX);
 1093              		.loc 1 1169 5 is_stmt 1 view .LVU390
 1094 0182 6B4B     		ldr	r3, .L291+44
 1095 0184 6B4A     		ldr	r2, .L291+48
 1096 0186 1968     		ldr	r1, [r3]
 1097 0188 6B4B     		ldr	r3, .L291+52
 1098 018a 0120     		movs	r0, #1
 1099 018c FFF7FEFF 		bl	MMBS1_RX
 1100              	.LVL70:
1170:HANcoder_E407_TTA_CombineModel.c **** 
1171:HANcoder_E407_TTA_CombineModel.c ****     /* End of Outputs for SubSystem: '<S11>/TRCK1_ID2_RX' */
1172:HANcoder_E407_TTA_CombineModel.c **** 
1173:HANcoder_E407_TTA_CombineModel.c ****     /* Logic: '<S11>/AND8' */
1174:HANcoder_E407_TTA_CombineModel.c ****     rtb_AND8 = (rtb_Equal14 && rtb_Level2MfileSFunction_j);
 1101              		.loc 1 1174 5 view .LVU391
1175:HANcoder_E407_TTA_CombineModel.c **** 
1176:HANcoder_E407_TTA_CombineModel.c ****     /* Outputs for Triggered SubSystem: '<S11>/TRCK1_ID2_TX' */
1177:HANcoder_E407_TTA_CombineModel.c ****     /* Constant: '<S11>/Constant5' */
1178:HANcoder_E407_TTA_CombineModel.c ****     MMBS1_TX(rtb_AND8, TRCK1_ID2, &rtPrevZCSigState.TRCK1_ID2_TX);
 1102              		.loc 1 1178 5 view .LVU392
 1103              	.LBB120:
 1104              	.LBI120:
 412:HANcoder_E407_TTA_CombineModel.c **** {
 1105              		.loc 1 412 6 view .LVU393
 1106              	.LBB121:
 417:HANcoder_E407_TTA_CombineModel.c ****     /* Update for M-S-Function: '<S40>/S-Function' */
 1107              		.loc 1 417 3 view .LVU394
 1108              	.LBE121:
 1109              	.LBE120:
1174:HANcoder_E407_TTA_CombineModel.c **** 
 1110              		.loc 1 1174 14 is_stmt 0 view .LVU395
 1111 0190 0023     		movs	r3, #0
 1112              	.LVL71:
 1113              	.L146:
 1114              	.LBB125:
 1115              	.LBB122:
 428:HANcoder_E407_TTA_CombineModel.c **** 
 1116              		.loc 1 428 3 is_stmt 1 view .LVU396
 428:HANcoder_E407_TTA_CombineModel.c **** 
 1117              		.loc 1 428 31 is_stmt 0 view .LVU397
 1118 0192 AB71     		strb	r3, [r5, #6]
 1119              	.LBE122:
 1120              	.LBE125:
1179:HANcoder_E407_TTA_CombineModel.c **** 
1180:HANcoder_E407_TTA_CombineModel.c ****     /* End of Outputs for SubSystem: '<S11>/TRCK1_ID2_TX' */
1181:HANcoder_E407_TTA_CombineModel.c **** 
1182:HANcoder_E407_TTA_CombineModel.c ****     /* RelationalOperator: '<S11>/Equal14' incorporates:
1183:HANcoder_E407_TTA_CombineModel.c ****      *  Constant: '<S11>/Constant20'
1184:HANcoder_E407_TTA_CombineModel.c ****      */
1185:HANcoder_E407_TTA_CombineModel.c ****     rtb_Equal14 = (slotSelected == 7.0);
 1121              		.loc 1 1185 5 is_stmt 1 view .LVU398
 1122              		.loc 1 1185 33 is_stmt 0 view .LVU399
 1123 0194 9BF80030 		ldrb	r3, [fp]	@ zero_extendqisi2
 1124 0198 08EE103A 		vmov	s16, r3	@ int
1186:HANcoder_E407_TTA_CombineModel.c **** 
1187:HANcoder_E407_TTA_CombineModel.c ****     /* M-S-Function: '<S8>/Level-2 M-file S-Function' incorporates:
1188:HANcoder_E407_TTA_CombineModel.c ****      *  Constant: '<S11>/Constant19'
1189:HANcoder_E407_TTA_CombineModel.c ****      *  DataStoreRead: '<S1>/Data Store Read'
1190:HANcoder_E407_TTA_CombineModel.c ****      *  RelationalOperator: '<S11>/Equal7'
1191:HANcoder_E407_TTA_CombineModel.c ****      */
1192:HANcoder_E407_TTA_CombineModel.c ****     rtb_Level2MfileSFunction_j = (rtDWork.nodeRole == 3.0);
 1125              		.loc 1 1192 42 view .LVU400
 1126 019c 94F8CB30 		ldrb	r3, [r4, #203]	@ zero_extendqisi2
1185:HANcoder_E407_TTA_CombineModel.c **** 
 1127              		.loc 1 1185 33 view .LVU401
 1128 01a0 B8EEC88A 		vcvt.f32.s32	s16, s16
 1129              	.LVL72:
 1130              		.loc 1 1192 5 is_stmt 1 view .LVU402
1193:HANcoder_E407_TTA_CombineModel.c **** 
1194:HANcoder_E407_TTA_CombineModel.c ****     /* Logic: '<S11>/AND10' */
1195:HANcoder_E407_TTA_CombineModel.c ****     rtb_AND10 = (rtb_Equal14 && rtb_Level2MfileSFunction_j);
 1131              		.loc 1 1195 30 is_stmt 0 view .LVU403
 1132 01a4 F1EE0C7A 		vmov.f32	s15, #7.0e+0
1192:HANcoder_E407_TTA_CombineModel.c **** 
 1133              		.loc 1 1192 42 view .LVU404
 1134 01a8 08EE903A 		vmov	s17, r3	@ int
 1135              		.loc 1 1195 30 view .LVU405
 1136 01ac B4EE678A 		vcmp.f32	s16, s15
 1137 01b0 F1EE10FA 		vmrs	APSR_nzcv, FPSCR
1192:HANcoder_E407_TTA_CombineModel.c **** 
 1138              		.loc 1 1192 52 view .LVU406
 1139 01b4 F8EEE88A 		vcvt.f32.s32	s17, s17
 1140              	.LVL73:
 1141              		.loc 1 1195 5 is_stmt 1 view .LVU407
 1142              		.loc 1 1195 30 is_stmt 0 view .LVU408
 1143 01b8 40F0AD81 		bne	.L178
 1144              		.loc 1 1195 30 discriminator 1 view .LVU409
 1145 01bc F0EE087A 		vmov.f32	s15, #3.0e+0
 1146 01c0 F4EE678A 		vcmp.f32	s17, s15
 1147 01c4 F1EE10FA 		vmrs	APSR_nzcv, FPSCR
 1148 01c8 40F0FF84 		bne	.L274
 1149              	.LVL74:
1196:HANcoder_E407_TTA_CombineModel.c **** 
1197:HANcoder_E407_TTA_CombineModel.c ****     /* Outputs for Triggered SubSystem: '<S11>/TRCK1_ID3_TX' */
1198:HANcoder_E407_TTA_CombineModel.c ****     /* Constant: '<S11>/Constant26' */
1199:HANcoder_E407_TTA_CombineModel.c ****     MMBS1_TX(rtb_AND10, TRCK1_ID3, &rtPrevZCSigState.TRCK1_ID3_TX);
 1150              		.loc 1 1199 5 is_stmt 1 view .LVU410
 1151              	.LBB126:
 1152              	.LBI126:
 412:HANcoder_E407_TTA_CombineModel.c **** {
 1153              		.loc 1 412 6 view .LVU411
 1154              	.LBB127:
 417:HANcoder_E407_TTA_CombineModel.c ****     /* Update for M-S-Function: '<S40>/S-Function' */
 1155              		.loc 1 417 3 view .LVU412
 417:HANcoder_E407_TTA_CombineModel.c ****     /* Update for M-S-Function: '<S40>/S-Function' */
 1156              		.loc 1 417 31 is_stmt 0 view .LVU413
 1157 01cc 6B79     		ldrb	r3, [r5, #5]	@ zero_extendqisi2
 417:HANcoder_E407_TTA_CombineModel.c ****     /* Update for M-S-Function: '<S40>/S-Function' */
 1158              		.loc 1 417 19 view .LVU414
 1159 01ce 012B     		cmp	r3, #1
 1160 01d0 40F01E85 		bne	.L275
 1161              	.LVL75:
 1162              	.L102:
 428:HANcoder_E407_TTA_CombineModel.c **** 
 1163              		.loc 1 428 3 is_stmt 1 view .LVU415
 428:HANcoder_E407_TTA_CombineModel.c **** 
 1164              		.loc 1 428 31 is_stmt 0 view .LVU416
 1165 01d4 6B71     		strb	r3, [r5, #5]
 1166              	.LBE127:
 1167              	.LBE126:
1200:HANcoder_E407_TTA_CombineModel.c **** 
1201:HANcoder_E407_TTA_CombineModel.c ****     /* End of Outputs for SubSystem: '<S11>/TRCK1_ID3_TX' */
1202:HANcoder_E407_TTA_CombineModel.c **** 
1203:HANcoder_E407_TTA_CombineModel.c ****     /* RelationalOperator: '<S11>/Equal13' incorporates:
1204:HANcoder_E407_TTA_CombineModel.c ****      *  Constant: '<S11>/Constant17'
1205:HANcoder_E407_TTA_CombineModel.c ****      */
1206:HANcoder_E407_TTA_CombineModel.c ****     rtb_Equal16 = (slotSelected == 4.0);
 1168              		.loc 1 1206 5 is_stmt 1 view .LVU417
 1169              	.LVL76:
1207:HANcoder_E407_TTA_CombineModel.c **** 
1208:HANcoder_E407_TTA_CombineModel.c ****     /* RelationalOperator: '<S11>/Equal3' incorporates:
1209:HANcoder_E407_TTA_CombineModel.c ****      *  Constant: '<S11>/Constant16'
1210:HANcoder_E407_TTA_CombineModel.c ****      *  DataStoreRead: '<S1>/Data Store Read'
1211:HANcoder_E407_TTA_CombineModel.c ****      */
1212:HANcoder_E407_TTA_CombineModel.c ****     rtb_Equal17 = (rtDWork.nodeRole == 1.0);
 1170              		.loc 1 1212 5 view .LVU418
1213:HANcoder_E407_TTA_CombineModel.c **** 
1214:HANcoder_E407_TTA_CombineModel.c ****     /* Logic: '<S11>/AND7' incorporates:
1215:HANcoder_E407_TTA_CombineModel.c ****      *  Logic: '<S11>/NOT3'
1216:HANcoder_E407_TTA_CombineModel.c ****      */
1217:HANcoder_E407_TTA_CombineModel.c ****     AND7 = (rtb_Equal16 && (!rtb_Equal17));
 1171              		.loc 1 1217 5 view .LVU419
 1172              	.L103:
1218:HANcoder_E407_TTA_CombineModel.c **** 
1219:HANcoder_E407_TTA_CombineModel.c ****     /* Outputs for Enabled SubSystem: '<S11>/TRCK1_RX' */
1220:HANcoder_E407_TTA_CombineModel.c ****     /* Constant: '<S11>/Constant3' */
1221:HANcoder_E407_TTA_CombineModel.c ****     MMBS1_RX(AND7, TRCK1_ID1, &rtB.TRCK1_RX, &rtDWork.TRCK1_RX);
 1173              		.loc 1 1221 5 view .LVU420
 1174 01d6 594B     		ldr	r3, .L291+56
 1175 01d8 594A     		ldr	r2, .L291+60
 1176 01da 1968     		ldr	r1, [r3]
 1177 01dc 594B     		ldr	r3, .L291+64
 1178 01de 0020     		movs	r0, #0
 1179 01e0 FFF7FEFF 		bl	MMBS1_RX
 1180              	.LVL77:
1222:HANcoder_E407_TTA_CombineModel.c **** 
1223:HANcoder_E407_TTA_CombineModel.c ****     /* End of Outputs for SubSystem: '<S11>/TRCK1_RX' */
1224:HANcoder_E407_TTA_CombineModel.c **** 
1225:HANcoder_E407_TTA_CombineModel.c ****     /* Logic: '<S11>/AND6' */
1226:HANcoder_E407_TTA_CombineModel.c ****     rtb_AND6 = (rtb_Equal16 && rtb_Equal17);
 1181              		.loc 1 1226 5 view .LVU421
 1182              	.L161:
1227:HANcoder_E407_TTA_CombineModel.c **** 
1228:HANcoder_E407_TTA_CombineModel.c ****     /* Outputs for Triggered SubSystem: '<S11>/TRCK1_TX' */
1229:HANcoder_E407_TTA_CombineModel.c ****     /* Constant: '<S11>/Constant3' */
1230:HANcoder_E407_TTA_CombineModel.c ****     MMBS1_TX(rtb_AND6, TRCK1_ID1, &rtPrevZCSigState.TRCK1_TX);
 1183              		.loc 1 1230 5 view .LVU422
 1184              	.LBB132:
 1185              	.LBI132:
 412:HANcoder_E407_TTA_CombineModel.c **** {
 1186              		.loc 1 412 6 view .LVU423
 1187              	.LBB133:
 417:HANcoder_E407_TTA_CombineModel.c ****     /* Update for M-S-Function: '<S40>/S-Function' */
 1188              		.loc 1 417 3 view .LVU424
 1189              	.LBE133:
 1190              	.LBE132:
1226:HANcoder_E407_TTA_CombineModel.c **** 
 1191              		.loc 1 1226 14 is_stmt 0 view .LVU425
 1192 01e4 0023     		movs	r3, #0
 1193              	.LVL78:
 1194              	.L144:
 1195              	.LBB137:
 1196              	.LBB134:
 428:HANcoder_E407_TTA_CombineModel.c **** 
 1197              		.loc 1 428 3 is_stmt 1 view .LVU426
 1198              	.LBE134:
 1199              	.LBE137:
1231:HANcoder_E407_TTA_CombineModel.c **** 
1232:HANcoder_E407_TTA_CombineModel.c ****     /* End of Outputs for SubSystem: '<S11>/TRCK1_TX' */
1233:HANcoder_E407_TTA_CombineModel.c **** 
1234:HANcoder_E407_TTA_CombineModel.c ****     /* Outputs for Enabled SubSystem: '<S11>/TRCK_ID3_RX' incorporates:
1235:HANcoder_E407_TTA_CombineModel.c ****      *  EnablePort: '<S33>/Enable'
1236:HANcoder_E407_TTA_CombineModel.c ****      */
1237:HANcoder_E407_TTA_CombineModel.c ****     /* Logic: '<S11>/AND11' incorporates:
1238:HANcoder_E407_TTA_CombineModel.c ****      *  Logic: '<S11>/NOT5'
1239:HANcoder_E407_TTA_CombineModel.c ****      */
1240:HANcoder_E407_TTA_CombineModel.c ****     if (rtb_Equal14 && (!rtb_Level2MfileSFunction_j)) {
 1200              		.loc 1 1240 8 is_stmt 0 view .LVU427
 1201 01e6 F1EE0C7A 		vmov.f32	s15, #7.0e+0
 1202 01ea B4EE678A 		vcmp.f32	s16, s15
 1203 01ee F1EE10FA 		vmrs	APSR_nzcv, FPSCR
 1204              	.LBB138:
 1205              	.LBB135:
 428:HANcoder_E407_TTA_CombineModel.c **** 
 1206              		.loc 1 428 31 view .LVU428
 1207 01f2 2B71     		strb	r3, [r5, #4]
 1208              	.LBE135:
 1209              	.LBE138:
 1210              		.loc 1 1240 5 is_stmt 1 view .LVU429
 1211              		.loc 1 1240 8 is_stmt 0 view .LVU430
 1212 01f4 07D1     		bne	.L106
 1213              		.loc 1 1240 21 discriminator 1 view .LVU431
 1214 01f6 F0EE087A 		vmov.f32	s15, #3.0e+0
 1215 01fa F4EE678A 		vcmp.f32	s17, s15
 1216 01fe F1EE10FA 		vmrs	APSR_nzcv, FPSCR
 1217 0202 40F07185 		bne	.L276
 1218              	.L106:
1241:HANcoder_E407_TTA_CombineModel.c ****       rtDWork.TRCK_ID3_RX_MODE = true;
1242:HANcoder_E407_TTA_CombineModel.c **** 
1243:HANcoder_E407_TTA_CombineModel.c ****       /* M-S-Function: '<S124>/S-Function' incorporates:
1244:HANcoder_E407_TTA_CombineModel.c ****        *  Constant: '<S11>/Constant26'
1245:HANcoder_E407_TTA_CombineModel.c ****        */
1246:HANcoder_E407_TTA_CombineModel.c **** 
1247:HANcoder_E407_TTA_CombineModel.c ****       /* read the message data and store the new parameter */
1248:HANcoder_E407_TTA_CombineModel.c ****       rtb_SFunction_o1_k1 = CanIoGetMessage(0, TRCK1_ID3, NULL,
1249:HANcoder_E407_TTA_CombineModel.c ****         &canRxData_0_TRCK1_ID3.uint8_T_info[0], NULL);
1250:HANcoder_E407_TTA_CombineModel.c **** 
1251:HANcoder_E407_TTA_CombineModel.c ****       /* process the message data */
1252:HANcoder_E407_TTA_CombineModel.c ****       if (rtb_SFunction_o1_k1 > 0) {
1253:HANcoder_E407_TTA_CombineModel.c ****         /* read the data */
1254:HANcoder_E407_TTA_CombineModel.c ****         rtb_SFunction_o2_j = canRxData_0_TRCK1_ID3.uint8_T_info[0];
1255:HANcoder_E407_TTA_CombineModel.c ****         rtb_SFunction_o3_a = canRxData_0_TRCK1_ID3.uint8_T_info[1];
1256:HANcoder_E407_TTA_CombineModel.c ****         rtb_SFunction_o4_i = canRxData_0_TRCK1_ID3.uint8_T_info[2];
1257:HANcoder_E407_TTA_CombineModel.c ****         rtb_SFunction_o5_k = canRxData_0_TRCK1_ID3.uint8_T_info[3];
1258:HANcoder_E407_TTA_CombineModel.c ****         rtb_SFunction_o6_c = canRxData_0_TRCK1_ID3.uint8_T_info[4];
1259:HANcoder_E407_TTA_CombineModel.c ****         rtb_SFunction_o7_d = canRxData_0_TRCK1_ID3.uint8_T_info[5];
1260:HANcoder_E407_TTA_CombineModel.c ****         rtb_SFunction_o8_h = canRxData_0_TRCK1_ID3.uint8_T_info[6];
1261:HANcoder_E407_TTA_CombineModel.c ****         rtb_SFunction_o9_b = canRxData_0_TRCK1_ID3.uint8_T_info[7];
1262:HANcoder_E407_TTA_CombineModel.c ****       }
1263:HANcoder_E407_TTA_CombineModel.c **** 
1264:HANcoder_E407_TTA_CombineModel.c ****       /* Outputs for Enabled SubSystem: '<S124>/Enabled Subsystem' */
1265:HANcoder_E407_TTA_CombineModel.c ****       EnabledSubsystem(rtb_SFunction_o1_k1, rtb_SFunction_o2_j,
1266:HANcoder_E407_TTA_CombineModel.c ****                        rtb_SFunction_o3_a, rtb_SFunction_o4_i,
1267:HANcoder_E407_TTA_CombineModel.c ****                        rtb_SFunction_o5_k, rtb_SFunction_o6_c,
1268:HANcoder_E407_TTA_CombineModel.c ****                        rtb_SFunction_o7_d, rtb_SFunction_o8_h,
1269:HANcoder_E407_TTA_CombineModel.c ****                        rtb_SFunction_o9_b, &rtB.EnabledSubsystem_b);
1270:HANcoder_E407_TTA_CombineModel.c **** 
1271:HANcoder_E407_TTA_CombineModel.c ****       /* End of Outputs for SubSystem: '<S124>/Enabled Subsystem' */
1272:HANcoder_E407_TTA_CombineModel.c ****     } else if (rtDWork.TRCK_ID3_RX_MODE) {
 1219              		.loc 1 1272 12 is_stmt 1 view .LVU432
 1220              		.loc 1 1272 15 is_stmt 0 view .LVU433
 1221 0206 94F8D530 		ldrb	r3, [r4, #213]	@ zero_extendqisi2
 1222 020a 13B1     		cbz	r3, .L108
1273:HANcoder_E407_TTA_CombineModel.c ****       rtDWork.TRCK_ID3_RX_MODE = false;
 1223              		.loc 1 1273 7 is_stmt 1 view .LVU434
 1224              		.loc 1 1273 32 is_stmt 0 view .LVU435
 1225 020c 0023     		movs	r3, #0
 1226 020e 84F8D530 		strb	r3, [r4, #213]
 1227              	.L108:
1274:HANcoder_E407_TTA_CombineModel.c ****     }
1275:HANcoder_E407_TTA_CombineModel.c **** 
1276:HANcoder_E407_TTA_CombineModel.c ****     /* End of Logic: '<S11>/AND11' */
1277:HANcoder_E407_TTA_CombineModel.c ****     /* End of Outputs for SubSystem: '<S11>/TRCK_ID3_RX' */
1278:HANcoder_E407_TTA_CombineModel.c **** 
1279:HANcoder_E407_TTA_CombineModel.c ****     /* RelationalOperator: '<S11>/Equal15' incorporates:
1280:HANcoder_E407_TTA_CombineModel.c ****      *  Constant: '<S11>/Constant22'
1281:HANcoder_E407_TTA_CombineModel.c ****      */
1282:HANcoder_E407_TTA_CombineModel.c ****     rtb_Equal17 = (slotSelected == 8.0);
 1228              		.loc 1 1282 5 is_stmt 1 view .LVU436
 1229              		.loc 1 1282 33 is_stmt 0 view .LVU437
 1230 0212 9BF80030 		ldrb	r3, [fp]	@ zero_extendqisi2
 1231 0216 07EE903A 		vmov	s15, r3	@ int
1283:HANcoder_E407_TTA_CombineModel.c **** 
1284:HANcoder_E407_TTA_CombineModel.c ****     /* RelationalOperator: '<S11>/Equal8' incorporates:
1285:HANcoder_E407_TTA_CombineModel.c ****      *  Constant: '<S11>/Constant21'
1286:HANcoder_E407_TTA_CombineModel.c ****      *  DataStoreRead: '<S1>/Data Store Read'
1287:HANcoder_E407_TTA_CombineModel.c ****      */
1288:HANcoder_E407_TTA_CombineModel.c ****     rtb_Equal16 = (rtDWork.nodeRole == 4.0);
 1232              		.loc 1 1288 27 view .LVU438
 1233 021a 94F8CB30 		ldrb	r3, [r4, #203]	@ zero_extendqisi2
1282:HANcoder_E407_TTA_CombineModel.c **** 
 1234              		.loc 1 1282 33 view .LVU439
 1235 021e F8EEE77A 		vcvt.f32.s32	s15, s15
 1236              	.LVL79:
 1237              		.loc 1 1288 5 is_stmt 1 view .LVU440
1289:HANcoder_E407_TTA_CombineModel.c **** 
1290:HANcoder_E407_TTA_CombineModel.c ****     /* Logic: '<S11>/AND13' incorporates:
1291:HANcoder_E407_TTA_CombineModel.c ****      *  Logic: '<S11>/NOT6'
1292:HANcoder_E407_TTA_CombineModel.c ****      */
1293:HANcoder_E407_TTA_CombineModel.c ****     rtb_AND13 = (rtb_Equal17 && (!rtb_Equal16));
 1238              		.loc 1 1293 30 is_stmt 0 view .LVU441
 1239 0222 F2EE006A 		vmov.f32	s13, #8.0e+0
1288:HANcoder_E407_TTA_CombineModel.c **** 
 1240              		.loc 1 1288 37 view .LVU442
 1241 0226 07EE103A 		vmov	s14, r3	@ int
 1242              		.loc 1 1293 30 view .LVU443
 1243 022a F4EE667A 		vcmp.f32	s15, s13
 1244 022e F1EE10FA 		vmrs	APSR_nzcv, FPSCR
1288:HANcoder_E407_TTA_CombineModel.c **** 
 1245              		.loc 1 1288 37 view .LVU444
 1246 0232 B8EEC77A 		vcvt.f32.s32	s14, s14
 1247              	.LVL80:
 1248              		.loc 1 1293 5 is_stmt 1 view .LVU445
 1249              		.loc 1 1293 30 is_stmt 0 view .LVU446
 1250 0236 00F0A881 		beq	.L277
 1251              	.LVL81:
1294:HANcoder_E407_TTA_CombineModel.c **** 
1295:HANcoder_E407_TTA_CombineModel.c ****     /* Outputs for Enabled SubSystem: '<S11>/TRLS_ID4_RX' incorporates:
1296:HANcoder_E407_TTA_CombineModel.c ****      *  EnablePort: '<S34>/Enable'
1297:HANcoder_E407_TTA_CombineModel.c ****      */
1298:HANcoder_E407_TTA_CombineModel.c ****     if (rtb_AND13) {
 1252              		.loc 1 1298 5 is_stmt 1 view .LVU447
1299:HANcoder_E407_TTA_CombineModel.c ****       rtDWork.TRLS_ID4_RX_MODE = true;
1300:HANcoder_E407_TTA_CombineModel.c **** 
1301:HANcoder_E407_TTA_CombineModel.c ****       /* M-S-Function: '<S127>/S-Function' incorporates:
1302:HANcoder_E407_TTA_CombineModel.c ****        *  Constant: '<S11>/Constant8'
1303:HANcoder_E407_TTA_CombineModel.c ****        */
1304:HANcoder_E407_TTA_CombineModel.c **** 
1305:HANcoder_E407_TTA_CombineModel.c ****       /* read the message data and store the new parameter */
1306:HANcoder_E407_TTA_CombineModel.c ****       rtb_SFunction_o1_k = CanIoGetMessage(0, TRLS1_ID4, NULL,
1307:HANcoder_E407_TTA_CombineModel.c ****         &canRxData_0_TRLS1_ID4.uint8_T_info[0], NULL);
1308:HANcoder_E407_TTA_CombineModel.c **** 
1309:HANcoder_E407_TTA_CombineModel.c ****       /* process the message data */
1310:HANcoder_E407_TTA_CombineModel.c ****       if (rtb_SFunction_o1_k > 0) {
1311:HANcoder_E407_TTA_CombineModel.c ****         /* read the data */
1312:HANcoder_E407_TTA_CombineModel.c ****         rtb_SFunction_o2_e = canRxData_0_TRLS1_ID4.uint8_T_info[0];
1313:HANcoder_E407_TTA_CombineModel.c ****         rtb_SFunction_o3_p = canRxData_0_TRLS1_ID4.uint8_T_info[1];
1314:HANcoder_E407_TTA_CombineModel.c ****         rtb_SFunction_o4_c = canRxData_0_TRLS1_ID4.uint8_T_info[2];
1315:HANcoder_E407_TTA_CombineModel.c ****         rtb_SFunction_o5_c = canRxData_0_TRLS1_ID4.uint8_T_info[3];
1316:HANcoder_E407_TTA_CombineModel.c ****         rtb_SFunction_o6_e = canRxData_0_TRLS1_ID4.uint8_T_info[4];
1317:HANcoder_E407_TTA_CombineModel.c ****         rtb_SFunction_o7_l = canRxData_0_TRLS1_ID4.uint8_T_info[5];
1318:HANcoder_E407_TTA_CombineModel.c ****         rtb_SFunction_o8_f = canRxData_0_TRLS1_ID4.uint8_T_info[6];
1319:HANcoder_E407_TTA_CombineModel.c ****         rtb_SFunction_o9_h = canRxData_0_TRLS1_ID4.uint8_T_info[7];
1320:HANcoder_E407_TTA_CombineModel.c ****       }
1321:HANcoder_E407_TTA_CombineModel.c **** 
1322:HANcoder_E407_TTA_CombineModel.c ****       /* Outputs for Enabled SubSystem: '<S127>/Enabled Subsystem' */
1323:HANcoder_E407_TTA_CombineModel.c ****       EnabledSubsystem(rtb_SFunction_o1_k, rtb_SFunction_o2_e,
1324:HANcoder_E407_TTA_CombineModel.c ****                        rtb_SFunction_o3_p, rtb_SFunction_o4_c,
1325:HANcoder_E407_TTA_CombineModel.c ****                        rtb_SFunction_o5_c, rtb_SFunction_o6_e,
1326:HANcoder_E407_TTA_CombineModel.c ****                        rtb_SFunction_o7_l, rtb_SFunction_o8_f,
1327:HANcoder_E407_TTA_CombineModel.c ****                        rtb_SFunction_o9_h, &rtB.EnabledSubsystem_g);
1328:HANcoder_E407_TTA_CombineModel.c **** 
1329:HANcoder_E407_TTA_CombineModel.c ****       /* End of Outputs for SubSystem: '<S127>/Enabled Subsystem' */
1330:HANcoder_E407_TTA_CombineModel.c **** 
1331:HANcoder_E407_TTA_CombineModel.c ****       /* DataTypeConversion: '<S126>/Cast' */
1332:HANcoder_E407_TTA_CombineModel.c ****       rtb_Cast_le = rtB.EnabledSubsystem_g.In1;
1333:HANcoder_E407_TTA_CombineModel.c **** 
1334:HANcoder_E407_TTA_CombineModel.c ****       /* Outputs for Atomic SubSystem: '<S126>/Bit Shift' */
1335:HANcoder_E407_TTA_CombineModel.c ****       BitShift(rtb_Cast_le, &rtB.BitShift_j);
1336:HANcoder_E407_TTA_CombineModel.c **** 
1337:HANcoder_E407_TTA_CombineModel.c ****       /* End of Outputs for SubSystem: '<S126>/Bit Shift' */
1338:HANcoder_E407_TTA_CombineModel.c **** 
1339:HANcoder_E407_TTA_CombineModel.c ****       /* Sum: '<S126>/Add' incorporates:
1340:HANcoder_E407_TTA_CombineModel.c ****        *  DataStoreWrite: '<S34>/Data Store Write'
1341:HANcoder_E407_TTA_CombineModel.c ****        *  DataTypeConversion: '<S126>/Cast1'
1342:HANcoder_E407_TTA_CombineModel.c ****        */
1343:HANcoder_E407_TTA_CombineModel.c ****       rtDWork.trailerOneAngle = (uint16_T)((uint32_T)rtB.BitShift_j.y +
1344:HANcoder_E407_TTA_CombineModel.c ****         rtB.EnabledSubsystem_g.In2);
1345:HANcoder_E407_TTA_CombineModel.c ****     } else if (rtDWork.TRLS_ID4_RX_MODE) {
 1253              		.loc 1 1345 12 view .LVU448
 1254              		.loc 1 1345 15 is_stmt 0 view .LVU449
 1255 023a 94F8D420 		ldrb	r2, [r4, #212]	@ zero_extendqisi2
 1256 023e 002A     		cmp	r2, #0
 1257 0240 40F04D85 		bne	.L158
 1258              	.LVL82:
 1259              	.L113:
1346:HANcoder_E407_TTA_CombineModel.c ****       rtDWork.TRLS_ID4_RX_MODE = false;
1347:HANcoder_E407_TTA_CombineModel.c ****     }
1348:HANcoder_E407_TTA_CombineModel.c **** 
1349:HANcoder_E407_TTA_CombineModel.c ****     /* End of Outputs for SubSystem: '<S11>/TRLS_ID4_RX' */
1350:HANcoder_E407_TTA_CombineModel.c **** 
1351:HANcoder_E407_TTA_CombineModel.c ****     /* Logic: '<S11>/AND12' */
1352:HANcoder_E407_TTA_CombineModel.c ****     rtb_Equal14 = (rtb_Equal17 && rtb_Equal16);
1353:HANcoder_E407_TTA_CombineModel.c **** 
1354:HANcoder_E407_TTA_CombineModel.c ****     /* Outputs for Triggered SubSystem: '<S11>/TRLS_ID4_TX' incorporates:
1355:HANcoder_E407_TTA_CombineModel.c ****      *  TriggerPort: '<S35>/Trigger'
1356:HANcoder_E407_TTA_CombineModel.c ****      */
1357:HANcoder_E407_TTA_CombineModel.c ****     if (rtb_Equal14 && (rtPrevZCSigState.TRLS_ID4_TX_Trig_ZCE != POS_ZCSIG)) {
 1260              		.loc 1 1357 5 is_stmt 1 view .LVU450
1352:HANcoder_E407_TTA_CombineModel.c **** 
 1261              		.loc 1 1352 17 is_stmt 0 view .LVU451
 1262 0244 0022     		movs	r2, #0
 1263              	.LVL83:
 1264              	.L140:
1358:HANcoder_E407_TTA_CombineModel.c ****       /* Outputs for Atomic SubSystem: '<S132>/Bit Shift' */
1359:HANcoder_E407_TTA_CombineModel.c ****       /* DataStoreRead: '<S35>/Data Store Read' */
1360:HANcoder_E407_TTA_CombineModel.c ****       BitShift_d(rtDWork.trailerOneAngle, &rtB.BitShift_dn);
1361:HANcoder_E407_TTA_CombineModel.c **** 
1362:HANcoder_E407_TTA_CombineModel.c ****       /* End of Outputs for SubSystem: '<S132>/Bit Shift' */
1363:HANcoder_E407_TTA_CombineModel.c **** 
1364:HANcoder_E407_TTA_CombineModel.c ****       /* DataTypeConversion: '<S132>/Cast' */
1365:HANcoder_E407_TTA_CombineModel.c ****       rtB.Cast_n = (uint8_T)rtB.BitShift_dn.y;
1366:HANcoder_E407_TTA_CombineModel.c **** 
1367:HANcoder_E407_TTA_CombineModel.c ****       /* DataTypeConversion: '<S132>/Cast1' incorporates:
1368:HANcoder_E407_TTA_CombineModel.c ****        *  DataStoreRead: '<S35>/Data Store Read'
1369:HANcoder_E407_TTA_CombineModel.c ****        */
1370:HANcoder_E407_TTA_CombineModel.c ****       rtB.Cast1_i = (uint8_T)rtDWork.trailerOneAngle;
1371:HANcoder_E407_TTA_CombineModel.c **** 
1372:HANcoder_E407_TTA_CombineModel.c ****       /* Update for M-S-Function: '<S131>/S-Function' incorporates:
1373:HANcoder_E407_TTA_CombineModel.c ****        *  Constant: '<S11>/Constant8'
1374:HANcoder_E407_TTA_CombineModel.c ****        */
1375:HANcoder_E407_TTA_CombineModel.c ****       {
1376:HANcoder_E407_TTA_CombineModel.c ****         /* prepare the data */
1377:HANcoder_E407_TTA_CombineModel.c ****         canTxData.uint8_T_info[0] = rtB.Cast_n;
1378:HANcoder_E407_TTA_CombineModel.c ****         canTxData.uint8_T_info[1] = rtB.Cast1_i;
1379:HANcoder_E407_TTA_CombineModel.c **** 
1380:HANcoder_E407_TTA_CombineModel.c ****         /* send the data */
1381:HANcoder_E407_TTA_CombineModel.c ****         CanTransmit(0, TRLS1_ID4, 2, &canTxData.uint8_T_info[0]);
1382:HANcoder_E407_TTA_CombineModel.c ****       }
1383:HANcoder_E407_TTA_CombineModel.c ****     }
1384:HANcoder_E407_TTA_CombineModel.c **** 
1385:HANcoder_E407_TTA_CombineModel.c ****     rtPrevZCSigState.TRLS_ID4_TX_Trig_ZCE = rtb_Equal14;
 1265              		.loc 1 1385 5 is_stmt 1 view .LVU452
1386:HANcoder_E407_TTA_CombineModel.c **** 
1387:HANcoder_E407_TTA_CombineModel.c ****     /* End of Outputs for SubSystem: '<S11>/TRLS_ID4_TX' */
1388:HANcoder_E407_TTA_CombineModel.c **** 
1389:HANcoder_E407_TTA_CombineModel.c ****     /* RelationalOperator: '<S11>/Equal17' incorporates:
1390:HANcoder_E407_TTA_CombineModel.c ****      *  Constant: '<S11>/Constant25'
1391:HANcoder_E407_TTA_CombineModel.c ****      */
1392:HANcoder_E407_TTA_CombineModel.c ****     rtb_Equal17 = (slotSelected == 9.0);
1393:HANcoder_E407_TTA_CombineModel.c **** 
1394:HANcoder_E407_TTA_CombineModel.c ****     /* RelationalOperator: '<S11>/Equal16' incorporates:
1395:HANcoder_E407_TTA_CombineModel.c ****      *  Constant: '<S11>/Constant24'
1396:HANcoder_E407_TTA_CombineModel.c ****      *  DataStoreRead: '<S1>/Data Store Read'
1397:HANcoder_E407_TTA_CombineModel.c ****      */
1398:HANcoder_E407_TTA_CombineModel.c ****     rtb_Equal16 = (rtDWork.nodeRole == 5.0);
1399:HANcoder_E407_TTA_CombineModel.c **** 
1400:HANcoder_E407_TTA_CombineModel.c ****     /* Logic: '<S11>/AND15' incorporates:
1401:HANcoder_E407_TTA_CombineModel.c ****      *  Logic: '<S11>/NOT7'
1402:HANcoder_E407_TTA_CombineModel.c ****      */
1403:HANcoder_E407_TTA_CombineModel.c ****     rtb_AND15 = (rtb_Equal17 && (!rtb_Equal16));
 1266              		.loc 1 1403 30 is_stmt 0 view .LVU453
 1267 0246 F2EE026A 		vmov.f32	s13, #9.0e+0
 1268 024a F4EE667A 		vcmp.f32	s15, s13
 1269 024e F1EE10FA 		vmrs	APSR_nzcv, FPSCR
1385:HANcoder_E407_TTA_CombineModel.c **** 
 1270              		.loc 1 1385 43 view .LVU454
 1271 0252 EA70     		strb	r2, [r5, #3]
1392:HANcoder_E407_TTA_CombineModel.c **** 
 1272              		.loc 1 1392 5 is_stmt 1 view .LVU455
 1273              	.LVL84:
1398:HANcoder_E407_TTA_CombineModel.c **** 
 1274              		.loc 1 1398 5 view .LVU456
 1275              		.loc 1 1403 5 view .LVU457
 1276              		.loc 1 1403 30 is_stmt 0 view .LVU458
 1277 0254 40F0D381 		bne	.L114
 1278              	.LVL85:
 1279              	.L285:
 1280              		.loc 1 1403 30 discriminator 1 view .LVU459
 1281 0258 F1EE047A 		vmov.f32	s15, #5.0e+0
 1282 025c B4EE677A 		vcmp.f32	s14, s15
 1283 0260 F1EE10FA 		vmrs	APSR_nzcv, FPSCR
 1284 0264 00F0B484 		beq	.L278
 1285              	.LVL86:
1404:HANcoder_E407_TTA_CombineModel.c **** 
1405:HANcoder_E407_TTA_CombineModel.c ****     /* Outputs for Enabled SubSystem: '<S11>/TRLS_ID5_RX' incorporates:
1406:HANcoder_E407_TTA_CombineModel.c ****      *  EnablePort: '<S36>/Enable'
1407:HANcoder_E407_TTA_CombineModel.c ****      */
1408:HANcoder_E407_TTA_CombineModel.c ****     if (rtb_AND15) {
 1286              		.loc 1 1408 5 is_stmt 1 view .LVU460
1409:HANcoder_E407_TTA_CombineModel.c ****       rtDWork.TRLS_ID5_RX_MODE = true;
 1287              		.loc 1 1409 7 view .LVU461
1410:HANcoder_E407_TTA_CombineModel.c **** 
1411:HANcoder_E407_TTA_CombineModel.c ****       /* M-S-Function: '<S136>/S-Function' incorporates:
1412:HANcoder_E407_TTA_CombineModel.c ****        *  Constant: '<S11>/Constant18'
1413:HANcoder_E407_TTA_CombineModel.c ****        */
1414:HANcoder_E407_TTA_CombineModel.c **** 
1415:HANcoder_E407_TTA_CombineModel.c ****       /* read the message data and store the new parameter */
1416:HANcoder_E407_TTA_CombineModel.c ****       rtb_SFunction_o1_n = CanIoGetMessage(0, TRLS1_ID5, NULL,
 1288              		.loc 1 1416 28 is_stmt 0 view .LVU462
 1289 0268 374B     		ldr	r3, .L291+68
 1290 026a 384E     		ldr	r6, .L291+72
 1291 026c 1968     		ldr	r1, [r3]
 1292 026e 0022     		movs	r2, #0
1409:HANcoder_E407_TTA_CombineModel.c ****       rtDWork.TRLS_ID5_RX_MODE = true;
 1293              		.loc 1 1409 32 view .LVU463
 1294 0270 0123     		movs	r3, #1
 1295 0272 84F8D330 		strb	r3, [r4, #211]
 1296              		.loc 1 1416 7 is_stmt 1 view .LVU464
 1297              		.loc 1 1416 28 is_stmt 0 view .LVU465
 1298 0276 0092     		str	r2, [sp]
 1299 0278 3346     		mov	r3, r6
 1300 027a 1046     		mov	r0, r2
 1301 027c FFF7FEFF 		bl	CanIoGetMessage
 1302              	.LVL87:
1417:HANcoder_E407_TTA_CombineModel.c ****         &canRxData_0_TRLS1_ID5.uint8_T_info[0], NULL);
1418:HANcoder_E407_TTA_CombineModel.c **** 
1419:HANcoder_E407_TTA_CombineModel.c ****       /* process the message data */
1420:HANcoder_E407_TTA_CombineModel.c ****       if (rtb_SFunction_o1_n > 0) {
 1303              		.loc 1 1420 7 is_stmt 1 view .LVU466
 1304              		.loc 1 1420 10 is_stmt 0 view .LVU467
 1305 0280 0028     		cmp	r0, #0
 1306 0282 40F31F86 		ble	.L279
1421:HANcoder_E407_TTA_CombineModel.c ****         /* read the data */
1422:HANcoder_E407_TTA_CombineModel.c ****         rtb_SFunction_o2_l = canRxData_0_TRLS1_ID5.uint8_T_info[0];
 1307              		.loc 1 1422 9 is_stmt 1 view .LVU468
 1308              		.loc 1 1422 28 is_stmt 0 view .LVU469
 1309 0286 3278     		ldrb	r2, [r6]	@ zero_extendqisi2
 1310              	.LVL88:
1423:HANcoder_E407_TTA_CombineModel.c ****         rtb_SFunction_o3_m = canRxData_0_TRLS1_ID5.uint8_T_info[1];
 1311              		.loc 1 1423 9 is_stmt 1 view .LVU470
 1312              		.loc 1 1423 28 is_stmt 0 view .LVU471
 1313 0288 7178     		ldrb	r1, [r6, #1]	@ zero_extendqisi2
 1314              	.LVL89:
1424:HANcoder_E407_TTA_CombineModel.c ****         rtb_SFunction_o4_b = canRxData_0_TRLS1_ID5.uint8_T_info[2];
 1315              		.loc 1 1424 9 is_stmt 1 view .LVU472
1425:HANcoder_E407_TTA_CombineModel.c ****         rtb_SFunction_o5_o = canRxData_0_TRLS1_ID5.uint8_T_info[3];
 1316              		.loc 1 1425 9 view .LVU473
1426:HANcoder_E407_TTA_CombineModel.c ****         rtb_SFunction_o6_i = canRxData_0_TRLS1_ID5.uint8_T_info[4];
 1317              		.loc 1 1426 9 view .LVU474
1427:HANcoder_E407_TTA_CombineModel.c ****         rtb_SFunction_o7_f = canRxData_0_TRLS1_ID5.uint8_T_info[5];
 1318              		.loc 1 1427 9 view .LVU475
1428:HANcoder_E407_TTA_CombineModel.c ****         rtb_SFunction_o8_p = canRxData_0_TRLS1_ID5.uint8_T_info[6];
 1319              		.loc 1 1428 9 view .LVU476
1429:HANcoder_E407_TTA_CombineModel.c ****         rtb_SFunction_o9_l = canRxData_0_TRLS1_ID5.uint8_T_info[7];
 1320              		.loc 1 1429 9 view .LVU477
1430:HANcoder_E407_TTA_CombineModel.c ****       }
1431:HANcoder_E407_TTA_CombineModel.c **** 
1432:HANcoder_E407_TTA_CombineModel.c ****       /* Outputs for Enabled SubSystem: '<S136>/Enabled Subsystem' */
1433:HANcoder_E407_TTA_CombineModel.c ****       EnabledSubsystem(rtb_SFunction_o1_n, rtb_SFunction_o2_l,
 1321              		.loc 1 1433 7 view .LVU478
 1322              	.LBB139:
 1323              	.LBI139:
 273:HANcoder_E407_TTA_CombineModel.c ****                       uint8_T rtu_In3, uint8_T rtu_In4, uint8_T rtu_In5, uint8_T
 1324              		.loc 1 273 6 view .LVU479
 1325              	.LBB140:
 278:HANcoder_E407_TTA_CombineModel.c ****   uint8_T rtb_In4;
 1326              		.loc 1 278 3 view .LVU480
 279:HANcoder_E407_TTA_CombineModel.c ****   uint8_T rtb_In5;
 1327              		.loc 1 279 3 view .LVU481
 280:HANcoder_E407_TTA_CombineModel.c ****   uint8_T rtb_In6;
 1328              		.loc 1 280 3 view .LVU482
 281:HANcoder_E407_TTA_CombineModel.c ****   uint8_T rtb_In7;
 1329              		.loc 1 281 3 view .LVU483
 282:HANcoder_E407_TTA_CombineModel.c ****   uint8_T rtb_In8;
 1330              		.loc 1 282 3 view .LVU484
 283:HANcoder_E407_TTA_CombineModel.c **** 
 1331              		.loc 1 283 3 view .LVU485
 288:HANcoder_E407_TTA_CombineModel.c ****     /* SignalConversion generated from: '<S39>/In1' */
 1332              		.loc 1 288 3 view .LVU486
 290:HANcoder_E407_TTA_CombineModel.c **** 
 1333              		.loc 1 290 5 view .LVU487
 290:HANcoder_E407_TTA_CombineModel.c **** 
 1334              		.loc 1 290 17 is_stmt 0 view .LVU488
 1335 028a 8AF81220 		strb	r2, [r10, #18]
 293:HANcoder_E407_TTA_CombineModel.c **** 
 1336              		.loc 1 293 5 is_stmt 1 view .LVU489
 293:HANcoder_E407_TTA_CombineModel.c **** 
 1337              		.loc 1 293 17 is_stmt 0 view .LVU490
 1338 028e 8AF81310 		strb	r1, [r10, #19]
 296:HANcoder_E407_TTA_CombineModel.c **** 
 1339              		.loc 1 296 5 is_stmt 1 view .LVU491
 299:HANcoder_E407_TTA_CombineModel.c **** 
 1340              		.loc 1 299 5 view .LVU492
 302:HANcoder_E407_TTA_CombineModel.c **** 
 1341              		.loc 1 302 5 view .LVU493
 305:HANcoder_E407_TTA_CombineModel.c **** 
 1342              		.loc 1 305 5 view .LVU494
 308:HANcoder_E407_TTA_CombineModel.c **** 
 1343              		.loc 1 308 5 view .LVU495
 311:HANcoder_E407_TTA_CombineModel.c ****   }
 1344              		.loc 1 311 5 view .LVU496
 1345              	.LVL90:
 1346              	.L139:
 311:HANcoder_E407_TTA_CombineModel.c ****   }
 1347              		.loc 1 311 5 is_stmt 0 view .LVU497
 1348              	.LBE140:
 1349              	.LBE139:
1434:HANcoder_E407_TTA_CombineModel.c ****                        rtb_SFunction_o3_m, rtb_SFunction_o4_b,
1435:HANcoder_E407_TTA_CombineModel.c ****                        rtb_SFunction_o5_o, rtb_SFunction_o6_i,
1436:HANcoder_E407_TTA_CombineModel.c ****                        rtb_SFunction_o7_f, rtb_SFunction_o8_p,
1437:HANcoder_E407_TTA_CombineModel.c ****                        rtb_SFunction_o9_l, &rtB.EnabledSubsystem_e);
1438:HANcoder_E407_TTA_CombineModel.c **** 
1439:HANcoder_E407_TTA_CombineModel.c ****       /* End of Outputs for SubSystem: '<S136>/Enabled Subsystem' */
1440:HANcoder_E407_TTA_CombineModel.c **** 
1441:HANcoder_E407_TTA_CombineModel.c ****       /* DataTypeConversion: '<S135>/Cast' */
1442:HANcoder_E407_TTA_CombineModel.c ****       rtb_Cast_b = rtB.EnabledSubsystem_e.In1;
 1350              		.loc 1 1442 7 is_stmt 1 view .LVU498
1443:HANcoder_E407_TTA_CombineModel.c **** 
1444:HANcoder_E407_TTA_CombineModel.c ****       /* Outputs for Atomic SubSystem: '<S135>/Bit Shift' */
1445:HANcoder_E407_TTA_CombineModel.c ****       BitShift(rtb_Cast_b, &rtB.BitShift_c);
 1351              		.loc 1 1445 7 view .LVU499
 1352              	.LBB141:
 1353              	.LBI141:
 438:HANcoder_E407_TTA_CombineModel.c **** {
 1354              		.loc 1 438 6 view .LVU500
 1355              	.LBB142:
 443:HANcoder_E407_TTA_CombineModel.c **** }
 1356              		.loc 1 443 3 view .LVU501
 443:HANcoder_E407_TTA_CombineModel.c **** }
 1357              		.loc 1 443 15 is_stmt 0 view .LVU502
 1358 0292 1302     		lsls	r3, r2, #8
 1359              	.LBE142:
 1360              	.LBE141:
1446:HANcoder_E407_TTA_CombineModel.c **** 
1447:HANcoder_E407_TTA_CombineModel.c ****       /* End of Outputs for SubSystem: '<S135>/Bit Shift' */
1448:HANcoder_E407_TTA_CombineModel.c **** 
1449:HANcoder_E407_TTA_CombineModel.c ****       /* Sum: '<S135>/Add' incorporates:
1450:HANcoder_E407_TTA_CombineModel.c ****        *  DataStoreWrite: '<S36>/Data Store Write1'
1451:HANcoder_E407_TTA_CombineModel.c ****        *  DataTypeConversion: '<S135>/Cast1'
1452:HANcoder_E407_TTA_CombineModel.c ****        */
1453:HANcoder_E407_TTA_CombineModel.c ****       rtDWork.trailerTwoAngle = (uint16_T)((uint32_T)rtB.BitShift_c.y +
 1361              		.loc 1 1453 33 view .LVU503
 1362 0294 1944     		add	r1, r1, r3
 1363              	.LBB144:
 1364              	.LBB143:
 443:HANcoder_E407_TTA_CombineModel.c **** }
 1365              		.loc 1 443 13 view .LVU504
 1366 0296 AAF81430 		strh	r3, [r10, #20]	@ movhi
 1367              	.LVL91:
 443:HANcoder_E407_TTA_CombineModel.c **** }
 1368              		.loc 1 443 13 view .LVU505
 1369              	.LBE143:
 1370              	.LBE144:
 1371              		.loc 1 1453 7 is_stmt 1 view .LVU506
1454:HANcoder_E407_TTA_CombineModel.c ****         rtB.EnabledSubsystem_e.In2);
1455:HANcoder_E407_TTA_CombineModel.c ****     } else if (rtDWork.TRLS_ID5_RX_MODE) {
1456:HANcoder_E407_TTA_CombineModel.c ****       rtDWork.TRLS_ID5_RX_MODE = false;
1457:HANcoder_E407_TTA_CombineModel.c ****     }
1458:HANcoder_E407_TTA_CombineModel.c **** 
1459:HANcoder_E407_TTA_CombineModel.c ****     /* End of Outputs for SubSystem: '<S11>/TRLS_ID5_RX' */
1460:HANcoder_E407_TTA_CombineModel.c **** 
1461:HANcoder_E407_TTA_CombineModel.c ****     /* Logic: '<S11>/AND14' */
1462:HANcoder_E407_TTA_CombineModel.c ****     rtb_Equal14 = (rtb_Equal17 && rtb_Equal16);
1463:HANcoder_E407_TTA_CombineModel.c **** 
1464:HANcoder_E407_TTA_CombineModel.c ****     /* Outputs for Triggered SubSystem: '<S11>/TRLS_ID5_TX' incorporates:
1465:HANcoder_E407_TTA_CombineModel.c ****      *  TriggerPort: '<S37>/Trigger'
1466:HANcoder_E407_TTA_CombineModel.c ****      */
1467:HANcoder_E407_TTA_CombineModel.c ****     if (rtb_Equal14 && (rtPrevZCSigState.TRLS_ID5_TX_Trig_ZCE != POS_ZCSIG)) {
1468:HANcoder_E407_TTA_CombineModel.c ****       /* Outputs for Atomic SubSystem: '<S141>/Bit Shift' */
1469:HANcoder_E407_TTA_CombineModel.c ****       /* DataStoreRead: '<S37>/Data Store Read' */
1470:HANcoder_E407_TTA_CombineModel.c ****       BitShift_d(rtDWork.trailerTwoAngle, &rtB.BitShift_p);
1471:HANcoder_E407_TTA_CombineModel.c **** 
1472:HANcoder_E407_TTA_CombineModel.c ****       /* End of Outputs for SubSystem: '<S141>/Bit Shift' */
1473:HANcoder_E407_TTA_CombineModel.c **** 
1474:HANcoder_E407_TTA_CombineModel.c ****       /* DataTypeConversion: '<S141>/Cast' */
1475:HANcoder_E407_TTA_CombineModel.c ****       rtB.Cast = (uint8_T)rtB.BitShift_p.y;
1476:HANcoder_E407_TTA_CombineModel.c **** 
1477:HANcoder_E407_TTA_CombineModel.c ****       /* DataTypeConversion: '<S141>/Cast1' incorporates:
1478:HANcoder_E407_TTA_CombineModel.c ****        *  DataStoreRead: '<S37>/Data Store Read'
1479:HANcoder_E407_TTA_CombineModel.c ****        */
1480:HANcoder_E407_TTA_CombineModel.c ****       rtB.Cast1 = (uint8_T)rtDWork.trailerTwoAngle;
1481:HANcoder_E407_TTA_CombineModel.c **** 
1482:HANcoder_E407_TTA_CombineModel.c ****       /* Update for M-S-Function: '<S140>/S-Function' incorporates:
1483:HANcoder_E407_TTA_CombineModel.c ****        *  Constant: '<S11>/Constant18'
1484:HANcoder_E407_TTA_CombineModel.c ****        */
1485:HANcoder_E407_TTA_CombineModel.c ****       {
1486:HANcoder_E407_TTA_CombineModel.c ****         /* prepare the data */
1487:HANcoder_E407_TTA_CombineModel.c ****         canTxData.uint8_T_info[0] = rtB.Cast;
1488:HANcoder_E407_TTA_CombineModel.c ****         canTxData.uint8_T_info[1] = rtB.Cast1;
1489:HANcoder_E407_TTA_CombineModel.c **** 
1490:HANcoder_E407_TTA_CombineModel.c ****         /* send the data */
1491:HANcoder_E407_TTA_CombineModel.c ****         CanTransmit(0, TRLS1_ID5, 2, &canTxData.uint8_T_info[0]);
1492:HANcoder_E407_TTA_CombineModel.c ****       }
1493:HANcoder_E407_TTA_CombineModel.c ****     }
1494:HANcoder_E407_TTA_CombineModel.c **** 
1495:HANcoder_E407_TTA_CombineModel.c ****     rtPrevZCSigState.TRLS_ID5_TX_Trig_ZCE = rtb_Equal14;
1496:HANcoder_E407_TTA_CombineModel.c **** 
1497:HANcoder_E407_TTA_CombineModel.c ****     /* End of Outputs for SubSystem: '<S11>/TRLS_ID5_TX' */
1498:HANcoder_E407_TTA_CombineModel.c ****   } else if (rtDWork.Messageselector_MODE) {
1499:HANcoder_E407_TTA_CombineModel.c ****     /* Disable for Enabled SubSystem: '<S11>/MMBS1_RX' */
1500:HANcoder_E407_TTA_CombineModel.c ****     if (rtDWork.MMBS1_RX_j.MMBS1_RX_MODE) {
1501:HANcoder_E407_TTA_CombineModel.c ****       /* Constant: '<S11>/Constant12' */
1502:HANcoder_E407_TTA_CombineModel.c ****       MMBS1_RX_Disable(&rtDWork.MMBS1_RX_j);
1503:HANcoder_E407_TTA_CombineModel.c ****     }
1504:HANcoder_E407_TTA_CombineModel.c **** 
1505:HANcoder_E407_TTA_CombineModel.c ****     /* End of Disable for SubSystem: '<S11>/MMBS1_RX' */
1506:HANcoder_E407_TTA_CombineModel.c **** 
1507:HANcoder_E407_TTA_CombineModel.c ****     /* Disable for Triggered SubSystem: '<S11>/MMBS1_TX' */
1508:HANcoder_E407_TTA_CombineModel.c ****     /* Constant: '<S11>/Constant12' */
1509:HANcoder_E407_TTA_CombineModel.c ****     /* Disable for Enabled SubSystem: '<S11>/SSTM1_RX' */
1510:HANcoder_E407_TTA_CombineModel.c ****     if (rtDWork.SSTM1_RX.MMBS1_RX_MODE) {
1511:HANcoder_E407_TTA_CombineModel.c ****       /* Constant: '<S11>/Constant14' */
1512:HANcoder_E407_TTA_CombineModel.c ****       MMBS1_RX_Disable(&rtDWork.SSTM1_RX);
1513:HANcoder_E407_TTA_CombineModel.c ****     }
1514:HANcoder_E407_TTA_CombineModel.c **** 
1515:HANcoder_E407_TTA_CombineModel.c ****     /* End of Disable for SubSystem: '<S11>/SSTM1_RX' */
1516:HANcoder_E407_TTA_CombineModel.c **** 
1517:HANcoder_E407_TTA_CombineModel.c ****     /* Disable for Triggered SubSystem: '<S11>/SSTM1_TX' */
1518:HANcoder_E407_TTA_CombineModel.c ****     /* Constant: '<S11>/Constant14' */
1519:HANcoder_E407_TTA_CombineModel.c ****     /* Disable for Enabled SubSystem: '<S11>/SYNC1_RX' */
1520:HANcoder_E407_TTA_CombineModel.c ****     if (rtDWork.SYNC1_RX_MODE) {
1521:HANcoder_E407_TTA_CombineModel.c ****       rtDWork.SYNC1_RX_MODE = false;
1522:HANcoder_E407_TTA_CombineModel.c ****     }
1523:HANcoder_E407_TTA_CombineModel.c **** 
1524:HANcoder_E407_TTA_CombineModel.c ****     /* End of Disable for SubSystem: '<S11>/SYNC1_RX' */
1525:HANcoder_E407_TTA_CombineModel.c ****     /* Disable for Enabled SubSystem: '<S11>/TRCK1_ID2_RX' */
1526:HANcoder_E407_TTA_CombineModel.c ****     if (rtDWork.TRCK1_ID2_RX.MMBS1_RX_MODE) {
1527:HANcoder_E407_TTA_CombineModel.c ****       /* Constant: '<S11>/Constant5' */
1528:HANcoder_E407_TTA_CombineModel.c ****       MMBS1_RX_Disable(&rtDWork.TRCK1_ID2_RX);
1529:HANcoder_E407_TTA_CombineModel.c ****     }
1530:HANcoder_E407_TTA_CombineModel.c **** 
1531:HANcoder_E407_TTA_CombineModel.c ****     /* End of Disable for SubSystem: '<S11>/TRCK1_ID2_RX' */
1532:HANcoder_E407_TTA_CombineModel.c **** 
1533:HANcoder_E407_TTA_CombineModel.c ****     /* Disable for Triggered SubSystem: '<S11>/TRCK1_ID2_TX' */
1534:HANcoder_E407_TTA_CombineModel.c ****     /* Constant: '<S11>/Constant5' */
1535:HANcoder_E407_TTA_CombineModel.c ****     /* Disable for Triggered SubSystem: '<S11>/TRCK1_ID3_TX' */
1536:HANcoder_E407_TTA_CombineModel.c ****     /* Constant: '<S11>/Constant26' */
1537:HANcoder_E407_TTA_CombineModel.c ****     /* Disable for Enabled SubSystem: '<S11>/TRCK1_RX' */
1538:HANcoder_E407_TTA_CombineModel.c ****     if (rtDWork.TRCK1_RX.MMBS1_RX_MODE) {
1539:HANcoder_E407_TTA_CombineModel.c ****       /* Constant: '<S11>/Constant3' */
1540:HANcoder_E407_TTA_CombineModel.c ****       MMBS1_RX_Disable(&rtDWork.TRCK1_RX);
1541:HANcoder_E407_TTA_CombineModel.c ****     }
1542:HANcoder_E407_TTA_CombineModel.c **** 
1543:HANcoder_E407_TTA_CombineModel.c ****     /* End of Disable for SubSystem: '<S11>/TRCK1_RX' */
1544:HANcoder_E407_TTA_CombineModel.c **** 
1545:HANcoder_E407_TTA_CombineModel.c ****     /* Disable for Triggered SubSystem: '<S11>/TRCK1_TX' */
1546:HANcoder_E407_TTA_CombineModel.c ****     /* Constant: '<S11>/Constant3' */
1547:HANcoder_E407_TTA_CombineModel.c ****     /* Disable for Enabled SubSystem: '<S11>/TRCK_ID3_RX' */
1548:HANcoder_E407_TTA_CombineModel.c ****     if (rtDWork.TRCK_ID3_RX_MODE) {
1549:HANcoder_E407_TTA_CombineModel.c ****       rtDWork.TRCK_ID3_RX_MODE = false;
1550:HANcoder_E407_TTA_CombineModel.c ****     }
1551:HANcoder_E407_TTA_CombineModel.c **** 
1552:HANcoder_E407_TTA_CombineModel.c ****     /* End of Disable for SubSystem: '<S11>/TRCK_ID3_RX' */
1553:HANcoder_E407_TTA_CombineModel.c **** 
1554:HANcoder_E407_TTA_CombineModel.c ****     /* Disable for Enabled SubSystem: '<S11>/TRLS_ID4_RX' */
1555:HANcoder_E407_TTA_CombineModel.c ****     if (rtDWork.TRLS_ID4_RX_MODE) {
1556:HANcoder_E407_TTA_CombineModel.c ****       rtDWork.TRLS_ID4_RX_MODE = false;
1557:HANcoder_E407_TTA_CombineModel.c ****     }
1558:HANcoder_E407_TTA_CombineModel.c **** 
1559:HANcoder_E407_TTA_CombineModel.c ****     /* End of Disable for SubSystem: '<S11>/TRLS_ID4_RX' */
1560:HANcoder_E407_TTA_CombineModel.c ****     /* Disable for Enabled SubSystem: '<S11>/TRLS_ID5_RX' */
1561:HANcoder_E407_TTA_CombineModel.c ****     if (rtDWork.TRLS_ID5_RX_MODE) {
1562:HANcoder_E407_TTA_CombineModel.c ****       rtDWork.TRLS_ID5_RX_MODE = false;
1563:HANcoder_E407_TTA_CombineModel.c ****     }
1564:HANcoder_E407_TTA_CombineModel.c **** 
1565:HANcoder_E407_TTA_CombineModel.c ****     /* End of Disable for SubSystem: '<S11>/TRLS_ID5_RX' */
1566:HANcoder_E407_TTA_CombineModel.c ****     rtDWork.Messageselector_MODE = false;
1567:HANcoder_E407_TTA_CombineModel.c ****   }
1568:HANcoder_E407_TTA_CombineModel.c **** 
1569:HANcoder_E407_TTA_CombineModel.c ****   /* End of Outputs for SubSystem: '<S1>/Message selector' */
1570:HANcoder_E407_TTA_CombineModel.c **** 
1571:HANcoder_E407_TTA_CombineModel.c ****   /* Outputs for Triggered SubSystem: '<S13>/Subsystem' incorporates:
1572:HANcoder_E407_TTA_CombineModel.c ****    *  TriggerPort: '<S144>/Trigger'
1573:HANcoder_E407_TTA_CombineModel.c ****    */
1574:HANcoder_E407_TTA_CombineModel.c ****   if (rtb_AND && (rtPrevZCSigState.Subsystem_Trig_ZCE != POS_ZCSIG)) {
1575:HANcoder_E407_TTA_CombineModel.c ****     /* DataStoreWrite: '<S144>/Data Store Write1' incorporates:
1576:HANcoder_E407_TTA_CombineModel.c ****      *  Constant: '<S144>/Constant1'
1577:HANcoder_E407_TTA_CombineModel.c ****      */
1578:HANcoder_E407_TTA_CombineModel.c ****     rtDWork.Local_Ticks = ((uint16_T)0U);
1579:HANcoder_E407_TTA_CombineModel.c **** 
1580:HANcoder_E407_TTA_CombineModel.c ****     /* DataStoreWrite: '<S144>/Data Store Write' incorporates:
1581:HANcoder_E407_TTA_CombineModel.c ****      *  Constant: '<S144>/Constant3'
1582:HANcoder_E407_TTA_CombineModel.c ****      */
1583:HANcoder_E407_TTA_CombineModel.c ****     rtDWork.SlotTime = slotTime;
1584:HANcoder_E407_TTA_CombineModel.c ****   }
1585:HANcoder_E407_TTA_CombineModel.c **** 
1586:HANcoder_E407_TTA_CombineModel.c ****   rtPrevZCSigState.Subsystem_Trig_ZCE = rtb_AND;
1587:HANcoder_E407_TTA_CombineModel.c **** 
1588:HANcoder_E407_TTA_CombineModel.c ****   /* End of Outputs for SubSystem: '<S13>/Subsystem' */
1589:HANcoder_E407_TTA_CombineModel.c **** 
1590:HANcoder_E407_TTA_CombineModel.c ****   /* Outputs for Enabled SubSystem: '<S13>/Subsystem2' incorporates:
1591:HANcoder_E407_TTA_CombineModel.c ****    *  EnablePort: '<S145>/Enable'
1592:HANcoder_E407_TTA_CombineModel.c ****    */
1593:HANcoder_E407_TTA_CombineModel.c ****   /* Logic: '<S13>/AND1' incorporates:
1594:HANcoder_E407_TTA_CombineModel.c ****    *  Constant: '<S13>/Constant1'
1595:HANcoder_E407_TTA_CombineModel.c ****    *  DataStoreRead: '<S13>/Data Store Read'
1596:HANcoder_E407_TTA_CombineModel.c ****    *  DataStoreRead: '<S13>/Data Store Read1'
1597:HANcoder_E407_TTA_CombineModel.c ****    *  Logic: '<S13>/NOT'
1598:HANcoder_E407_TTA_CombineModel.c ****    *  RelationalOperator: '<S13>/GreaterThan'
1599:HANcoder_E407_TTA_CombineModel.c ****    */
1600:HANcoder_E407_TTA_CombineModel.c ****   if ((rtDWork.nodeRole > ((uint8_T)3U)) && (!rtDWork.slaveClockOn)) {
 1372              		.loc 1 1600 15 is_stmt 0 view .LVU507
 1373 029a 94F8CB30 		ldrb	r3, [r4, #203]	@ zero_extendqisi2
1453:HANcoder_E407_TTA_CombineModel.c ****         rtB.EnabledSubsystem_e.In2);
 1374              		.loc 1 1453 31 view .LVU508
 1375 029e A4F8C610 		strh	r1, [r4, #198]	@ movhi
1462:HANcoder_E407_TTA_CombineModel.c **** 
 1376              		.loc 1 1462 5 is_stmt 1 view .LVU509
 1377              	.LVL92:
 1378              	.L117:
1467:HANcoder_E407_TTA_CombineModel.c ****       /* Outputs for Atomic SubSystem: '<S141>/Bit Shift' */
 1379              		.loc 1 1467 5 view .LVU510
1462:HANcoder_E407_TTA_CombineModel.c **** 
 1380              		.loc 1 1462 17 is_stmt 0 view .LVU511
 1381 02a2 0022     		movs	r2, #0
 1382              	.LVL93:
 1383              	.L137:
1495:HANcoder_E407_TTA_CombineModel.c **** 
 1384              		.loc 1 1495 5 is_stmt 1 view .LVU512
1495:HANcoder_E407_TTA_CombineModel.c **** 
 1385              		.loc 1 1495 43 is_stmt 0 view .LVU513
 1386 02a4 AA70     		strb	r2, [r5, #2]
 1387 02a6 E0E0     		b	.L118
 1388              	.LVL94:
 1389              	.L267:
 576:HANcoder_E407_TTA_CombineModel.c ****   }
 1390              		.loc 1 576 5 is_stmt 1 view .LVU514
 576:HANcoder_E407_TTA_CombineModel.c ****   }
 1391              		.loc 1 576 42 is_stmt 0 view .LVU515
 1392 02a8 84F8D700 		strb	r0, [r4, #215]
 1393 02ac BCE6     		b	.L59
 1394              	.LVL95:
 1395              	.L269:
 621:HANcoder_E407_TTA_CombineModel.c **** 
 1396              		.loc 1 621 40 discriminator 1 view .LVU516
 1397 02ae F7EE007A 		vmov.f32	s15, #1.0e+0
 1398 02b2 F4EE676A 		vcmp.f32	s13, s15
 1399 02b6 F1EE10FA 		vmrs	APSR_nzcv, FPSCR
 1400 02ba 0CD0     		beq	.L280
 1401              	.LVL96:
 625:HANcoder_E407_TTA_CombineModel.c **** 
 1402              		.loc 1 625 5 is_stmt 1 view .LVU517
 1403 02bc 144B     		ldr	r3, .L291+12
 1404 02be 3046     		mov	r0, r6
 1405 02c0 1968     		ldr	r1, [r3]
 1406 02c2 144B     		ldr	r3, .L291+16
 1407 02c4 0AF12602 		add	r2, r10, #38
 1408 02c8 FFF7FEFF 		bl	MMBS1_RX
 1409              	.LVL97:
 630:HANcoder_E407_TTA_CombineModel.c **** 
 1410              		.loc 1 630 5 view .LVU518
 1411 02cc E9E6     		b	.L168
 1412              	.LVL98:
 1413              	.L268:
 630:HANcoder_E407_TTA_CombineModel.c **** 
 1414              		.loc 1 630 5 is_stmt 0 view .LVU519
 1415 02ce 0122     		movs	r2, #1
 588:HANcoder_E407_TTA_CombineModel.c **** 
 1416              		.loc 1 588 31 view .LVU520
 1417 02d0 CDE90322 		strd	r2, r2, [sp, #12]
 1418 02d4 BDE6     		b	.L154
 1419              	.LVL99:
 1420              	.L280:
 625:HANcoder_E407_TTA_CombineModel.c **** 
 1421              		.loc 1 625 5 is_stmt 1 view .LVU521
 1422 02d6 0E4F     		ldr	r7, .L291+12
 1423              	.LBB145:
 1424              	.LBB110:
 417:HANcoder_E407_TTA_CombineModel.c ****     /* Update for M-S-Function: '<S40>/S-Function' */
 1425              		.loc 1 417 31 is_stmt 0 view .LVU522
 1426 02d8 0F4D     		ldr	r5, .L291+20
 1427              	.LBE110:
 1428              	.LBE145:
 625:HANcoder_E407_TTA_CombineModel.c **** 
 1429              		.loc 1 625 5 view .LVU523
 1430 02da 0E4B     		ldr	r3, .L291+16
 1431 02dc 3968     		ldr	r1, [r7]
 1432 02de 0AF12602 		add	r2, r10, #38
 1433 02e2 0020     		movs	r0, #0
 1434 02e4 FFF7FEFF 		bl	MMBS1_RX
 1435              	.LVL100:
 630:HANcoder_E407_TTA_CombineModel.c **** 
 1436              		.loc 1 630 5 is_stmt 1 view .LVU524
 634:HANcoder_E407_TTA_CombineModel.c **** 
 1437              		.loc 1 634 5 view .LVU525
 1438              	.LBB146:
 412:HANcoder_E407_TTA_CombineModel.c **** {
 1439              		.loc 1 412 6 view .LVU526
 1440              	.LBB111:
 417:HANcoder_E407_TTA_CombineModel.c ****     /* Update for M-S-Function: '<S40>/S-Function' */
 1441              		.loc 1 417 3 view .LVU527
 417:HANcoder_E407_TTA_CombineModel.c ****     /* Update for M-S-Function: '<S40>/S-Function' */
 1442              		.loc 1 417 31 is_stmt 0 view .LVU528
 1443 02e8 2B7B     		ldrb	r3, [r5, #12]	@ zero_extendqisi2
 417:HANcoder_E407_TTA_CombineModel.c ****     /* Update for M-S-Function: '<S40>/S-Function' */
 1444              		.loc 1 417 19 view .LVU529
 1445 02ea 012B     		cmp	r3, #1
 1446 02ec 3FF4DBAE 		beq	.L153
 421:HANcoder_E407_TTA_CombineModel.c **** 
 1447              		.loc 1 421 7 is_stmt 1 view .LVU530
 421:HANcoder_E407_TTA_CombineModel.c **** 
 1448              		.loc 1 421 33 is_stmt 0 view .LVU531
 1449 02f0 174B     		ldr	r3, .L291+76
 424:HANcoder_E407_TTA_CombineModel.c ****     }
 1450              		.loc 1 424 7 view .LVU532
 1451 02f2 3968     		ldr	r1, [r7]
 421:HANcoder_E407_TTA_CombineModel.c **** 
 1452              		.loc 1 421 33 view .LVU533
 1453 02f4 0020     		movs	r0, #0
 1454 02f6 1870     		strb	r0, [r3]
 424:HANcoder_E407_TTA_CombineModel.c ****     }
 1455              		.loc 1 424 7 is_stmt 1 view .LVU534
 1456 02f8 3246     		mov	r2, r6
 1457 02fa FFF7FEFF 		bl	CanTransmit
 1458              	.LVL101:
 424:HANcoder_E407_TTA_CombineModel.c ****     }
 1459              		.loc 1 424 7 is_stmt 0 view .LVU535
 1460              	.LBE111:
 1461              	.LBE146:
 630:HANcoder_E407_TTA_CombineModel.c **** 
 1462              		.loc 1 630 14 view .LVU536
 1463 02fe 3346     		mov	r3, r6
 1464 0300 D1E6     		b	.L153
 1465              	.L292:
 1466 0302 00BF     		.align	2
 1467              	.L291:
 1468 0304 00000000 		.word	.LANCHOR2
 1469 0308 00000000 		.word	.LANCHOR10
 1470 030c 00000000 		.word	.LANCHOR1
 1471 0310 00000000 		.word	.LANCHOR11
 1472 0314 DB000000 		.word	.LANCHOR2+219
 1473 0318 00000000 		.word	.LANCHOR5
 1474 031c 00000000 		.word	.LANCHOR12
 1475 0320 24000000 		.word	.LANCHOR0+36
 1476 0324 DA000000 		.word	.LANCHOR2+218
 1477 0328 00000000 		.word	.LANCHOR16
 1478 032c 00000000 		.word	.LANCHOR20
 1479 0330 00000000 		.word	.LANCHOR35
 1480 0334 20000000 		.word	.LANCHOR0+32
 1481 0338 D9000000 		.word	.LANCHOR2+217
 1482 033c 00000000 		.word	.LANCHOR37
 1483 0340 1E000000 		.word	.LANCHOR0+30
 1484 0344 D8000000 		.word	.LANCHOR2+216
 1485 0348 00000000 		.word	.LANCHOR42
 1486 034c 00000000 		.word	.LANCHOR41
 1487 0350 00000000 		.word	.LANCHOR9
 1488 0354 00000000 		.word	.LANCHOR0
 1489 0358 00000000 		.word	.LANCHOR7
 1490              	.LVL102:
 1491              	.L270:
 657:HANcoder_E407_TTA_CombineModel.c **** 
 1492              		.loc 1 657 5 is_stmt 1 view .LVU537
 1493 035c AD4E     		ldr	r6, .L293
 1494 035e AE4B     		ldr	r3, .L293+4
 1495 0360 AE4A     		ldr	r2, .L293+8
 1496 0362 3168     		ldr	r1, [r6]
 1497 0364 0020     		movs	r0, #0
 1498 0366 FFF7FEFF 		bl	MMBS1_RX
 1499              	.LVL103:
 662:HANcoder_E407_TTA_CombineModel.c **** 
 1500              		.loc 1 662 5 view .LVU538
 666:HANcoder_E407_TTA_CombineModel.c **** 
 1501              		.loc 1 666 5 view .LVU539
 1502              	.LBB147:
 412:HANcoder_E407_TTA_CombineModel.c **** {
 1503              		.loc 1 412 6 view .LVU540
 1504              	.LBB116:
 417:HANcoder_E407_TTA_CombineModel.c ****     /* Update for M-S-Function: '<S40>/S-Function' */
 1505              		.loc 1 417 3 view .LVU541
 417:HANcoder_E407_TTA_CombineModel.c ****     /* Update for M-S-Function: '<S40>/S-Function' */
 1506              		.loc 1 417 31 is_stmt 0 view .LVU542
 1507 036a EB7A     		ldrb	r3, [r5, #11]	@ zero_extendqisi2
 417:HANcoder_E407_TTA_CombineModel.c ****     /* Update for M-S-Function: '<S40>/S-Function' */
 1508              		.loc 1 417 19 view .LVU543
 1509 036c 012B     		cmp	r3, #1
 1510 036e 3FF4BFAE 		beq	.L152
 421:HANcoder_E407_TTA_CombineModel.c **** 
 1511              		.loc 1 421 7 is_stmt 1 view .LVU544
 421:HANcoder_E407_TTA_CombineModel.c **** 
 1512              		.loc 1 421 33 is_stmt 0 view .LVU545
 1513 0372 AB4B     		ldr	r3, .L293+12
 424:HANcoder_E407_TTA_CombineModel.c ****     }
 1514              		.loc 1 424 7 view .LVU546
 1515 0374 3168     		ldr	r1, [r6]
 421:HANcoder_E407_TTA_CombineModel.c **** 
 1516              		.loc 1 421 33 view .LVU547
 1517 0376 0020     		movs	r0, #0
 1518 0378 1870     		strb	r0, [r3]
 424:HANcoder_E407_TTA_CombineModel.c ****     }
 1519              		.loc 1 424 7 is_stmt 1 view .LVU548
 1520 037a 0122     		movs	r2, #1
 1521 037c FFF7FEFF 		bl	CanTransmit
 1522              	.LVL104:
 424:HANcoder_E407_TTA_CombineModel.c ****     }
 1523              		.loc 1 424 7 is_stmt 0 view .LVU549
 1524              	.LBE116:
 1525              	.LBE147:
 662:HANcoder_E407_TTA_CombineModel.c **** 
 1526              		.loc 1 662 14 view .LVU550
 1527 0380 0123     		movs	r3, #1
 1528              	.LVL105:
 1529              	.LBB148:
 1530              	.LBB117:
 428:HANcoder_E407_TTA_CombineModel.c **** 
 1531              		.loc 1 428 3 is_stmt 1 view .LVU551
 428:HANcoder_E407_TTA_CombineModel.c **** 
 1532              		.loc 1 428 31 is_stmt 0 view .LVU552
 1533 0382 EB72     		strb	r3, [r5, #11]
 1534              	.LBE117:
 1535              	.LBE148:
 673:HANcoder_E407_TTA_CombineModel.c **** 
 1536              		.loc 1 673 5 is_stmt 1 view .LVU553
 673:HANcoder_E407_TTA_CombineModel.c **** 
 1537              		.loc 1 673 33 is_stmt 0 view .LVU554
 1538 0384 9BF80030 		ldrb	r3, [fp]	@ zero_extendqisi2
 1539              	.LVL106:
 680:HANcoder_E407_TTA_CombineModel.c **** 
 1540              		.loc 1 680 5 is_stmt 1 view .LVU555
 680:HANcoder_E407_TTA_CombineModel.c **** 
 1541              		.loc 1 680 42 is_stmt 0 view .LVU556
 1542 0388 94F8CB20 		ldrb	r2, [r4, #203]	@ zero_extendqisi2
 1543              	.LVL107:
 685:HANcoder_E407_TTA_CombineModel.c **** 
 1544              		.loc 1 685 5 is_stmt 1 view .LVU557
 685:HANcoder_E407_TTA_CombineModel.c **** 
 1545              		.loc 1 685 31 is_stmt 0 view .LVU558
 1546 038c 012B     		cmp	r3, #1
 1547 038e 7FF4B7AE 		bne	.L70
 1548              	.LVL108:
 1549              	.L271:
 685:HANcoder_E407_TTA_CombineModel.c **** 
 1550              		.loc 1 685 31 discriminator 1 view .LVU559
 1551 0392 012A     		cmp	r2, #1
 1552 0394 00F0A385 		beq	.L281
 1553              	.LVL109:
 690:HANcoder_E407_TTA_CombineModel.c ****       rtDWork.SYNC1_RX_MODE = true;
 1554              		.loc 1 690 5 is_stmt 1 view .LVU560
 691:HANcoder_E407_TTA_CombineModel.c **** 
 1555              		.loc 1 691 7 view .LVU561
 691:HANcoder_E407_TTA_CombineModel.c **** 
 1556              		.loc 1 691 29 is_stmt 0 view .LVU562
 1557 0398 84F8D630 		strb	r3, [r4, #214]
 698:HANcoder_E407_TTA_CombineModel.c ****         &canRxData_0_SYNC1_ID.uint8_T_info[0], NULL);
 1558              		.loc 1 698 7 is_stmt 1 view .LVU563
 698:HANcoder_E407_TTA_CombineModel.c ****         &canRxData_0_SYNC1_ID.uint8_T_info[0], NULL);
 1559              		.loc 1 698 28 is_stmt 0 view .LVU564
 1560 039c A14E     		ldr	r6, .L293+16
 1561 039e A24B     		ldr	r3, .L293+20
 1562 03a0 0022     		movs	r2, #0
 1563 03a2 1968     		ldr	r1, [r3]
 1564 03a4 0092     		str	r2, [sp]
 1565 03a6 1046     		mov	r0, r2
 1566 03a8 3346     		mov	r3, r6
 1567 03aa FFF7FEFF 		bl	CanIoGetMessage
 1568              	.LVL110:
 702:HANcoder_E407_TTA_CombineModel.c ****         /* read the data */
 1569              		.loc 1 702 7 is_stmt 1 view .LVU565
 702:HANcoder_E407_TTA_CombineModel.c ****         /* read the data */
 1570              		.loc 1 702 10 is_stmt 0 view .LVU566
 1571 03ae 021E     		subs	r2, r0, #0
 1572 03b0 02DD     		ble	.L151
 704:HANcoder_E407_TTA_CombineModel.c ****         rtb_SFunction_o3_g = canRxData_0_SYNC1_ID.uint8_T_info[1];
 1573              		.loc 1 704 9 is_stmt 1 view .LVU567
 1574              	.LVL111:
 705:HANcoder_E407_TTA_CombineModel.c ****         rtb_SFunction_o4_j = canRxData_0_SYNC1_ID.uint8_T_info[2];
 1575              		.loc 1 705 9 view .LVU568
 706:HANcoder_E407_TTA_CombineModel.c ****         rtb_SFunction_o5_f = canRxData_0_SYNC1_ID.uint8_T_info[3];
 1576              		.loc 1 706 9 view .LVU569
 707:HANcoder_E407_TTA_CombineModel.c ****         rtb_SFunction_o6_g = canRxData_0_SYNC1_ID.uint8_T_info[4];
 1577              		.loc 1 707 9 view .LVU570
 708:HANcoder_E407_TTA_CombineModel.c ****         rtb_SFunction_o7_k = canRxData_0_SYNC1_ID.uint8_T_info[5];
 1578              		.loc 1 708 9 view .LVU571
 709:HANcoder_E407_TTA_CombineModel.c ****         rtb_SFunction_o8_n = canRxData_0_SYNC1_ID.uint8_T_info[6];
 1579              		.loc 1 709 9 view .LVU572
 710:HANcoder_E407_TTA_CombineModel.c ****         rtb_SFunction_o9_b1 = canRxData_0_SYNC1_ID.uint8_T_info[7];
 1580              		.loc 1 710 9 view .LVU573
 711:HANcoder_E407_TTA_CombineModel.c ****       }
 1581              		.loc 1 711 9 view .LVU574
 715:HANcoder_E407_TTA_CombineModel.c ****                        rtb_SFunction_o3_g, rtb_SFunction_o4_j,
 1582              		.loc 1 715 7 view .LVU575
 1583              	.LBB149:
 1584              	.LBI149:
 273:HANcoder_E407_TTA_CombineModel.c ****                       uint8_T rtu_In3, uint8_T rtu_In4, uint8_T rtu_In5, uint8_T
 1585              		.loc 1 273 6 view .LVU576
 1586              	.LBB150:
 278:HANcoder_E407_TTA_CombineModel.c ****   uint8_T rtb_In4;
 1587              		.loc 1 278 3 view .LVU577
 279:HANcoder_E407_TTA_CombineModel.c ****   uint8_T rtb_In5;
 1588              		.loc 1 279 3 view .LVU578
 280:HANcoder_E407_TTA_CombineModel.c ****   uint8_T rtb_In6;
 1589              		.loc 1 280 3 view .LVU579
 281:HANcoder_E407_TTA_CombineModel.c ****   uint8_T rtb_In7;
 1590              		.loc 1 281 3 view .LVU580
 282:HANcoder_E407_TTA_CombineModel.c ****   uint8_T rtb_In8;
 1591              		.loc 1 282 3 view .LVU581
 283:HANcoder_E407_TTA_CombineModel.c **** 
 1592              		.loc 1 283 3 view .LVU582
 288:HANcoder_E407_TTA_CombineModel.c ****     /* SignalConversion generated from: '<S39>/In1' */
 1593              		.loc 1 288 3 view .LVU583
 290:HANcoder_E407_TTA_CombineModel.c **** 
 1594              		.loc 1 290 5 view .LVU584
 293:HANcoder_E407_TTA_CombineModel.c **** 
 1595              		.loc 1 293 5 view .LVU585
 290:HANcoder_E407_TTA_CombineModel.c **** 
 1596              		.loc 1 290 17 is_stmt 0 view .LVU586
 1597 03b2 3388     		ldrh	r3, [r6]
 1598 03b4 AAF82230 		strh	r3, [r10, #34]	@ movhi
 296:HANcoder_E407_TTA_CombineModel.c **** 
 1599              		.loc 1 296 5 is_stmt 1 view .LVU587
 299:HANcoder_E407_TTA_CombineModel.c **** 
 1600              		.loc 1 299 5 view .LVU588
 302:HANcoder_E407_TTA_CombineModel.c **** 
 1601              		.loc 1 302 5 view .LVU589
 305:HANcoder_E407_TTA_CombineModel.c **** 
 1602              		.loc 1 305 5 view .LVU590
 308:HANcoder_E407_TTA_CombineModel.c **** 
 1603              		.loc 1 308 5 view .LVU591
 311:HANcoder_E407_TTA_CombineModel.c ****   }
 1604              		.loc 1 311 5 view .LVU592
 1605              	.LVL112:
 1606              	.L151:
 311:HANcoder_E407_TTA_CombineModel.c ****   }
 1607              		.loc 1 311 5 is_stmt 0 view .LVU593
 1608              	.LBE150:
 1609              	.LBE149:
 726:HANcoder_E407_TTA_CombineModel.c ****                             &rtPrevZCSigState.Subsystem_Trig_ZCE_h,
 1610              		.loc 1 726 7 is_stmt 1 view .LVU594
 726:HANcoder_E407_TTA_CombineModel.c ****                             &rtPrevZCSigState.Subsystem_Trig_ZCE_h,
 1611              		.loc 1 726 17 is_stmt 0 view .LVU595
 1612 03b8 9C49     		ldr	r1, .L293+24
 1613 03ba 0120     		movs	r0, #1
 1614              	.LVL113:
 726:HANcoder_E407_TTA_CombineModel.c ****                             &rtPrevZCSigState.Subsystem_Trig_ZCE_h,
 1615              		.loc 1 726 17 view .LVU596
 1616 03bc FFF7FEFF 		bl	rt_I32ZCFcn
 1617              	.LVL114:
 729:HANcoder_E407_TTA_CombineModel.c ****         /* DataStoreWrite: '<S45>/Data Store Write' */
 1618              		.loc 1 729 7 is_stmt 1 view .LVU597
 729:HANcoder_E407_TTA_CombineModel.c ****         /* DataStoreWrite: '<S45>/Data Store Write' */
 1619              		.loc 1 729 10 is_stmt 0 view .LVU598
 1620 03c0 30B1     		cbz	r0, .L73
 731:HANcoder_E407_TTA_CombineModel.c **** 
 1621              		.loc 1 731 9 is_stmt 1 view .LVU599
 731:HANcoder_E407_TTA_CombineModel.c **** 
 1622              		.loc 1 731 26 is_stmt 0 view .LVU600
 1623 03c2 9AF82230 		ldrb	r3, [r10, #34]	@ zero_extendqisi2
 1624 03c6 84F8CD30 		strb	r3, [r4, #205]
 736:HANcoder_E407_TTA_CombineModel.c ****       }
 1625              		.loc 1 736 9 is_stmt 1 view .LVU601
 736:HANcoder_E407_TTA_CombineModel.c ****       }
 1626              		.loc 1 736 29 is_stmt 0 view .LVU602
 1627 03ca 0023     		movs	r3, #0
 1628 03cc A4F8C030 		strh	r3, [r4, #192]	@ movhi
 1629              	.L73:
 747:HANcoder_E407_TTA_CombineModel.c **** 
 1630              		.loc 1 747 5 is_stmt 1 view .LVU603
 798:HANcoder_E407_TTA_CombineModel.c **** 
 1631              		.loc 1 798 33 is_stmt 0 view .LVU604
 1632 03d0 9BF80030 		ldrb	r3, [fp]	@ zero_extendqisi2
 1633 03d4 99E6     		b	.L163
 1634              	.LVL115:
 1635              	.L273:
1169:HANcoder_E407_TTA_CombineModel.c **** 
 1636              		.loc 1 1169 5 is_stmt 1 view .LVU605
 1637 03d6 964E     		ldr	r6, .L293+28
 1638 03d8 964B     		ldr	r3, .L293+32
 1639 03da 974A     		ldr	r2, .L293+36
 1640 03dc 3168     		ldr	r1, [r6]
 1641 03de 0020     		movs	r0, #0
 1642 03e0 FFF7FEFF 		bl	MMBS1_RX
 1643              	.LVL116:
1174:HANcoder_E407_TTA_CombineModel.c **** 
 1644              		.loc 1 1174 5 view .LVU606
1178:HANcoder_E407_TTA_CombineModel.c **** 
 1645              		.loc 1 1178 5 view .LVU607
 1646              	.LBB151:
 412:HANcoder_E407_TTA_CombineModel.c **** {
 1647              		.loc 1 412 6 view .LVU608
 1648              	.LBB123:
 417:HANcoder_E407_TTA_CombineModel.c ****     /* Update for M-S-Function: '<S40>/S-Function' */
 1649              		.loc 1 417 3 view .LVU609
 417:HANcoder_E407_TTA_CombineModel.c ****     /* Update for M-S-Function: '<S40>/S-Function' */
 1650              		.loc 1 417 31 is_stmt 0 view .LVU610
 1651 03e4 AB79     		ldrb	r3, [r5, #6]	@ zero_extendqisi2
 417:HANcoder_E407_TTA_CombineModel.c ****     /* Update for M-S-Function: '<S40>/S-Function' */
 1652              		.loc 1 417 19 view .LVU611
 1653 03e6 012B     		cmp	r3, #1
 1654 03e8 3FF4D3AE 		beq	.L146
 421:HANcoder_E407_TTA_CombineModel.c **** 
 1655              		.loc 1 421 7 is_stmt 1 view .LVU612
 421:HANcoder_E407_TTA_CombineModel.c **** 
 1656              		.loc 1 421 33 is_stmt 0 view .LVU613
 1657 03ec 8C4B     		ldr	r3, .L293+12
 424:HANcoder_E407_TTA_CombineModel.c ****     }
 1658              		.loc 1 424 7 view .LVU614
 1659 03ee 3168     		ldr	r1, [r6]
 421:HANcoder_E407_TTA_CombineModel.c **** 
 1660              		.loc 1 421 33 view .LVU615
 1661 03f0 0020     		movs	r0, #0
 1662 03f2 1870     		strb	r0, [r3]
 424:HANcoder_E407_TTA_CombineModel.c ****     }
 1663              		.loc 1 424 7 is_stmt 1 view .LVU616
 1664 03f4 0122     		movs	r2, #1
 1665 03f6 FFF7FEFF 		bl	CanTransmit
 1666              	.LVL117:
 424:HANcoder_E407_TTA_CombineModel.c ****     }
 1667              		.loc 1 424 7 is_stmt 0 view .LVU617
 1668              	.LBE123:
 1669              	.LBE151:
1174:HANcoder_E407_TTA_CombineModel.c **** 
 1670              		.loc 1 1174 14 view .LVU618
 1671 03fa 0123     		movs	r3, #1
 1672 03fc C9E6     		b	.L146
 1673              	.LVL118:
 1674              	.L63:
1498:HANcoder_E407_TTA_CombineModel.c ****     /* Disable for Enabled SubSystem: '<S11>/MMBS1_RX' */
 1675              		.loc 1 1498 10 is_stmt 1 view .LVU619
1498:HANcoder_E407_TTA_CombineModel.c ****     /* Disable for Enabled SubSystem: '<S11>/MMBS1_RX' */
 1676              		.loc 1 1498 13 is_stmt 0 view .LVU620
 1677 03fe 94F8D220 		ldrb	r2, [r4, #210]	@ zero_extendqisi2
 1678 0402 82B3     		cbz	r2, .L265
1500:HANcoder_E407_TTA_CombineModel.c ****       /* Constant: '<S11>/Constant12' */
 1679              		.loc 1 1500 5 is_stmt 1 view .LVU621
1500:HANcoder_E407_TTA_CombineModel.c ****       /* Constant: '<S11>/Constant12' */
 1680              		.loc 1 1500 8 is_stmt 0 view .LVU622
 1681 0404 94F8DB20 		ldrb	r2, [r4, #219]	@ zero_extendqisi2
 1682 0408 0AB1     		cbz	r2, .L119
1502:HANcoder_E407_TTA_CombineModel.c ****     }
 1683              		.loc 1 1502 7 is_stmt 1 view .LVU623
 1684              	.LVL119:
 1685              	.LBB152:
 1686              	.LBI152:
 324:HANcoder_E407_TTA_CombineModel.c **** {
 1687              		.loc 1 324 6 view .LVU624
 1688              	.LBB153:
 326:HANcoder_E407_TTA_CombineModel.c **** }
 1689              		.loc 1 326 3 view .LVU625
 326:HANcoder_E407_TTA_CombineModel.c **** }
 1690              		.loc 1 326 26 is_stmt 0 view .LVU626
 1691 040a 84F8DB10 		strb	r1, [r4, #219]
 1692              	.LVL120:
 1693              	.L119:
 326:HANcoder_E407_TTA_CombineModel.c **** }
 1694              		.loc 1 326 26 view .LVU627
 1695              	.LBE153:
 1696              	.LBE152:
1510:HANcoder_E407_TTA_CombineModel.c ****       /* Constant: '<S11>/Constant14' */
 1697              		.loc 1 1510 5 is_stmt 1 view .LVU628
1510:HANcoder_E407_TTA_CombineModel.c ****       /* Constant: '<S11>/Constant14' */
 1698              		.loc 1 1510 8 is_stmt 0 view .LVU629
 1699 040e 94F8DA20 		ldrb	r2, [r4, #218]	@ zero_extendqisi2
 1700 0412 12B1     		cbz	r2, .L120
1512:HANcoder_E407_TTA_CombineModel.c ****     }
 1701              		.loc 1 1512 7 is_stmt 1 view .LVU630
 1702              	.LVL121:
 1703              	.LBB154:
 1704              	.LBI154:
 324:HANcoder_E407_TTA_CombineModel.c **** {
 1705              		.loc 1 324 6 view .LVU631
 1706              	.LBB155:
 326:HANcoder_E407_TTA_CombineModel.c **** }
 1707              		.loc 1 326 3 view .LVU632
 326:HANcoder_E407_TTA_CombineModel.c **** }
 1708              		.loc 1 326 26 is_stmt 0 view .LVU633
 1709 0414 0022     		movs	r2, #0
 1710 0416 84F8DA20 		strb	r2, [r4, #218]
 1711              	.LVL122:
 1712              	.L120:
 326:HANcoder_E407_TTA_CombineModel.c **** }
 1713              		.loc 1 326 26 view .LVU634
 1714              	.LBE155:
 1715              	.LBE154:
1520:HANcoder_E407_TTA_CombineModel.c ****       rtDWork.SYNC1_RX_MODE = false;
 1716              		.loc 1 1520 5 is_stmt 1 view .LVU635
1520:HANcoder_E407_TTA_CombineModel.c ****       rtDWork.SYNC1_RX_MODE = false;
 1717              		.loc 1 1520 8 is_stmt 0 view .LVU636
 1718 041a 94F8D620 		ldrb	r2, [r4, #214]	@ zero_extendqisi2
 1719 041e 12B1     		cbz	r2, .L121
1521:HANcoder_E407_TTA_CombineModel.c ****     }
 1720              		.loc 1 1521 7 is_stmt 1 view .LVU637
1521:HANcoder_E407_TTA_CombineModel.c ****     }
 1721              		.loc 1 1521 29 is_stmt 0 view .LVU638
 1722 0420 0022     		movs	r2, #0
 1723 0422 84F8D620 		strb	r2, [r4, #214]
 1724              	.L121:
1526:HANcoder_E407_TTA_CombineModel.c ****       /* Constant: '<S11>/Constant5' */
 1725              		.loc 1 1526 5 is_stmt 1 view .LVU639
1526:HANcoder_E407_TTA_CombineModel.c ****       /* Constant: '<S11>/Constant5' */
 1726              		.loc 1 1526 8 is_stmt 0 view .LVU640
 1727 0426 94F8D920 		ldrb	r2, [r4, #217]	@ zero_extendqisi2
 1728 042a 12B1     		cbz	r2, .L122
1528:HANcoder_E407_TTA_CombineModel.c ****     }
 1729              		.loc 1 1528 7 is_stmt 1 view .LVU641
 1730              	.LVL123:
 1731              	.LBB156:
 1732              	.LBI156:
 324:HANcoder_E407_TTA_CombineModel.c **** {
 1733              		.loc 1 324 6 view .LVU642
 1734              	.LBB157:
 326:HANcoder_E407_TTA_CombineModel.c **** }
 1735              		.loc 1 326 3 view .LVU643
 326:HANcoder_E407_TTA_CombineModel.c **** }
 1736              		.loc 1 326 26 is_stmt 0 view .LVU644
 1737 042c 0022     		movs	r2, #0
 1738 042e 84F8D920 		strb	r2, [r4, #217]
 1739              	.LVL124:
 1740              	.L122:
 326:HANcoder_E407_TTA_CombineModel.c **** }
 1741              		.loc 1 326 26 view .LVU645
 1742              	.LBE157:
 1743              	.LBE156:
1538:HANcoder_E407_TTA_CombineModel.c ****       /* Constant: '<S11>/Constant3' */
 1744              		.loc 1 1538 5 is_stmt 1 view .LVU646
1538:HANcoder_E407_TTA_CombineModel.c ****       /* Constant: '<S11>/Constant3' */
 1745              		.loc 1 1538 8 is_stmt 0 view .LVU647
 1746 0432 94F8D820 		ldrb	r2, [r4, #216]	@ zero_extendqisi2
 1747 0436 12B1     		cbz	r2, .L123
1540:HANcoder_E407_TTA_CombineModel.c ****     }
 1748              		.loc 1 1540 7 is_stmt 1 view .LVU648
 1749              	.LVL125:
 1750              	.LBB158:
 1751              	.LBI158:
 324:HANcoder_E407_TTA_CombineModel.c **** {
 1752              		.loc 1 324 6 view .LVU649
 1753              	.LBB159:
 326:HANcoder_E407_TTA_CombineModel.c **** }
 1754              		.loc 1 326 3 view .LVU650
 326:HANcoder_E407_TTA_CombineModel.c **** }
 1755              		.loc 1 326 26 is_stmt 0 view .LVU651
 1756 0438 0022     		movs	r2, #0
 1757 043a 84F8D820 		strb	r2, [r4, #216]
 1758              	.LVL126:
 1759              	.L123:
 326:HANcoder_E407_TTA_CombineModel.c **** }
 1760              		.loc 1 326 26 view .LVU652
 1761              	.LBE159:
 1762              	.LBE158:
1548:HANcoder_E407_TTA_CombineModel.c ****       rtDWork.TRCK_ID3_RX_MODE = false;
 1763              		.loc 1 1548 5 is_stmt 1 view .LVU653
1548:HANcoder_E407_TTA_CombineModel.c ****       rtDWork.TRCK_ID3_RX_MODE = false;
 1764              		.loc 1 1548 8 is_stmt 0 view .LVU654
 1765 043e 94F8D520 		ldrb	r2, [r4, #213]	@ zero_extendqisi2
 1766 0442 12B1     		cbz	r2, .L124
1549:HANcoder_E407_TTA_CombineModel.c ****     }
 1767              		.loc 1 1549 7 is_stmt 1 view .LVU655
1549:HANcoder_E407_TTA_CombineModel.c ****     }
 1768              		.loc 1 1549 32 is_stmt 0 view .LVU656
 1769 0444 0022     		movs	r2, #0
 1770 0446 84F8D520 		strb	r2, [r4, #213]
 1771              	.L124:
1555:HANcoder_E407_TTA_CombineModel.c ****       rtDWork.TRLS_ID4_RX_MODE = false;
 1772              		.loc 1 1555 5 is_stmt 1 view .LVU657
1555:HANcoder_E407_TTA_CombineModel.c ****       rtDWork.TRLS_ID4_RX_MODE = false;
 1773              		.loc 1 1555 8 is_stmt 0 view .LVU658
 1774 044a 94F8D420 		ldrb	r2, [r4, #212]	@ zero_extendqisi2
 1775 044e 12B1     		cbz	r2, .L125
1556:HANcoder_E407_TTA_CombineModel.c ****     }
 1776              		.loc 1 1556 7 is_stmt 1 view .LVU659
1556:HANcoder_E407_TTA_CombineModel.c ****     }
 1777              		.loc 1 1556 32 is_stmt 0 view .LVU660
 1778 0450 0022     		movs	r2, #0
 1779 0452 84F8D420 		strb	r2, [r4, #212]
 1780              	.L125:
1561:HANcoder_E407_TTA_CombineModel.c ****       rtDWork.TRLS_ID5_RX_MODE = false;
 1781              		.loc 1 1561 5 is_stmt 1 view .LVU661
1561:HANcoder_E407_TTA_CombineModel.c ****       rtDWork.TRLS_ID5_RX_MODE = false;
 1782              		.loc 1 1561 8 is_stmt 0 view .LVU662
 1783 0456 94F8D320 		ldrb	r2, [r4, #211]	@ zero_extendqisi2
 1784 045a 002A     		cmp	r2, #0
 1785 045c 40F0B183 		bne	.L282
 1786              	.L126:
1566:HANcoder_E407_TTA_CombineModel.c ****   }
 1787              		.loc 1 1566 5 is_stmt 1 view .LVU663
1566:HANcoder_E407_TTA_CombineModel.c ****   }
 1788              		.loc 1 1566 34 is_stmt 0 view .LVU664
 1789 0460 0022     		movs	r2, #0
 1790 0462 84F8D220 		strb	r2, [r4, #210]
 1791              	.L265:
 1792 0466 754D     		ldr	r5, .L293+40
 1793 0468 754F     		ldr	r7, .L293+44
 1794              	.L118:
1574:HANcoder_E407_TTA_CombineModel.c ****     /* DataStoreWrite: '<S144>/Data Store Write1' incorporates:
 1795              		.loc 1 1574 3 is_stmt 1 view .LVU665
1574:HANcoder_E407_TTA_CombineModel.c ****     /* DataStoreWrite: '<S144>/Data Store Write1' incorporates:
 1796              		.loc 1 1574 6 is_stmt 0 view .LVU666
 1797 046a 039A     		ldr	r2, [sp, #12]
 1798 046c 4AB1     		cbz	r2, .L127
1574:HANcoder_E407_TTA_CombineModel.c ****     /* DataStoreWrite: '<S144>/Data Store Write1' incorporates:
 1799              		.loc 1 1574 15 discriminator 1 view .LVU667
 1800 046e 6A78     		ldrb	r2, [r5, #1]	@ zero_extendqisi2
 1801 0470 012A     		cmp	r2, #1
 1802 0472 06D0     		beq	.L127
1578:HANcoder_E407_TTA_CombineModel.c **** 
 1803              		.loc 1 1578 5 is_stmt 1 view .LVU668
1583:HANcoder_E407_TTA_CombineModel.c ****   }
 1804              		.loc 1 1583 22 is_stmt 0 view .LVU669
 1805 0474 734A     		ldr	r2, .L293+48
 1806 0476 1278     		ldrb	r2, [r2]	@ zero_extendqisi2
 1807 0478 84F8CD20 		strb	r2, [r4, #205]
1578:HANcoder_E407_TTA_CombineModel.c **** 
 1808              		.loc 1 1578 25 view .LVU670
 1809 047c 0022     		movs	r2, #0
 1810 047e A4F8C020 		strh	r2, [r4, #192]	@ movhi
1583:HANcoder_E407_TTA_CombineModel.c ****   }
 1811              		.loc 1 1583 5 is_stmt 1 view .LVU671
 1812              	.L127:
1586:HANcoder_E407_TTA_CombineModel.c **** 
 1813              		.loc 1 1586 3 view .LVU672
1586:HANcoder_E407_TTA_CombineModel.c **** 
 1814              		.loc 1 1586 39 is_stmt 0 view .LVU673
 1815 0482 049A     		ldr	r2, [sp, #16]
 1816 0484 6A70     		strb	r2, [r5, #1]
 1817              		.loc 1 1600 3 is_stmt 1 view .LVU674
 1818              		.loc 1 1600 6 is_stmt 0 view .LVU675
 1819 0486 032B     		cmp	r3, #3
 1820 0488 04D9     		bls	.L128
 1821              		.loc 1 1600 42 discriminator 1 view .LVU676
 1822 048a 94F8CE20 		ldrb	r2, [r4, #206]	@ zero_extendqisi2
 1823 048e 002A     		cmp	r2, #0
 1824 0490 00F03E84 		beq	.L283
 1825              	.L128:
1601:HANcoder_E407_TTA_CombineModel.c ****     rtDWork.Subsystem2_MODE = true;
1602:HANcoder_E407_TTA_CombineModel.c **** 
1603:HANcoder_E407_TTA_CombineModel.c ****     /* M-S-Function: '<S146>/S-Function' incorporates:
1604:HANcoder_E407_TTA_CombineModel.c ****      *  Constant: '<S145>/Constant10'
1605:HANcoder_E407_TTA_CombineModel.c ****      */
1606:HANcoder_E407_TTA_CombineModel.c **** 
1607:HANcoder_E407_TTA_CombineModel.c ****     /* read the message data and store the new parameter */
1608:HANcoder_E407_TTA_CombineModel.c ****     rtb_SFunction_o1 = CanIoGetMessage(0, SYNC1_ID, NULL,
1609:HANcoder_E407_TTA_CombineModel.c ****       &canRxData_0_SYNC1_ID.uint8_T_info[0], NULL);
1610:HANcoder_E407_TTA_CombineModel.c **** 
1611:HANcoder_E407_TTA_CombineModel.c ****     /* process the message data */
1612:HANcoder_E407_TTA_CombineModel.c ****     if (rtb_SFunction_o1 > 0) {
1613:HANcoder_E407_TTA_CombineModel.c ****       /* read the data */
1614:HANcoder_E407_TTA_CombineModel.c ****       rtb_SFunction_o2 = canRxData_0_SYNC1_ID.uint8_T_info[0];
1615:HANcoder_E407_TTA_CombineModel.c ****       rtb_SFunction_o3 = canRxData_0_SYNC1_ID.uint8_T_info[1];
1616:HANcoder_E407_TTA_CombineModel.c ****       rtb_SFunction_o4 = canRxData_0_SYNC1_ID.uint8_T_info[2];
1617:HANcoder_E407_TTA_CombineModel.c ****       rtb_SFunction_o5 = canRxData_0_SYNC1_ID.uint8_T_info[3];
1618:HANcoder_E407_TTA_CombineModel.c ****       rtb_SFunction_o6 = canRxData_0_SYNC1_ID.uint8_T_info[4];
1619:HANcoder_E407_TTA_CombineModel.c ****       rtb_SFunction_o7 = canRxData_0_SYNC1_ID.uint8_T_info[5];
1620:HANcoder_E407_TTA_CombineModel.c ****       rtb_SFunction_o8 = canRxData_0_SYNC1_ID.uint8_T_info[6];
1621:HANcoder_E407_TTA_CombineModel.c ****       rtb_SFunction_o9 = canRxData_0_SYNC1_ID.uint8_T_info[7];
1622:HANcoder_E407_TTA_CombineModel.c ****     }
1623:HANcoder_E407_TTA_CombineModel.c **** 
1624:HANcoder_E407_TTA_CombineModel.c ****     /* Outputs for Enabled SubSystem: '<S146>/Enabled Subsystem' */
1625:HANcoder_E407_TTA_CombineModel.c ****     EnabledSubsystem(rtb_SFunction_o1, rtb_SFunction_o2, rtb_SFunction_o3,
1626:HANcoder_E407_TTA_CombineModel.c ****                      rtb_SFunction_o4, rtb_SFunction_o5, rtb_SFunction_o6,
1627:HANcoder_E407_TTA_CombineModel.c ****                      rtb_SFunction_o7, rtb_SFunction_o8, rtb_SFunction_o9,
1628:HANcoder_E407_TTA_CombineModel.c ****                      &rtB.EnabledSubsystem_i);
1629:HANcoder_E407_TTA_CombineModel.c **** 
1630:HANcoder_E407_TTA_CombineModel.c ****     /* End of Outputs for SubSystem: '<S146>/Enabled Subsystem' */
1631:HANcoder_E407_TTA_CombineModel.c **** 
1632:HANcoder_E407_TTA_CombineModel.c ****     /* Outputs for Triggered SubSystem: '<S145>/Subsystem1' incorporates:
1633:HANcoder_E407_TTA_CombineModel.c ****      *  TriggerPort: '<S147>/Trigger'
1634:HANcoder_E407_TTA_CombineModel.c ****      */
1635:HANcoder_E407_TTA_CombineModel.c ****     zcEvent = rt_I32ZCFcn(RISING_ZERO_CROSSING,
1636:HANcoder_E407_TTA_CombineModel.c ****                           &rtPrevZCSigState.Subsystem1_Trig_ZCE,
1637:HANcoder_E407_TTA_CombineModel.c ****                           (rtb_SFunction_o1));
1638:HANcoder_E407_TTA_CombineModel.c ****     if (zcEvent != NO_ZCEVENT) {
1639:HANcoder_E407_TTA_CombineModel.c ****       /* DataStoreWrite: '<S147>/Data Store Write' */
1640:HANcoder_E407_TTA_CombineModel.c ****       rtDWork.SlotTime = rtB.EnabledSubsystem_i.In1;
1641:HANcoder_E407_TTA_CombineModel.c **** 
1642:HANcoder_E407_TTA_CombineModel.c ****       /* DataStoreWrite: '<S147>/Data Store Write1' incorporates:
1643:HANcoder_E407_TTA_CombineModel.c ****        *  Constant: '<S147>/Constant'
1644:HANcoder_E407_TTA_CombineModel.c ****        */
1645:HANcoder_E407_TTA_CombineModel.c ****       rtDWork.Local_Ticks = ((uint16_T)0U);
1646:HANcoder_E407_TTA_CombineModel.c **** 
1647:HANcoder_E407_TTA_CombineModel.c ****       /* DataStoreWrite: '<S147>/Data Store Write2' incorporates:
1648:HANcoder_E407_TTA_CombineModel.c ****        *  Constant: '<S147>/Constant1'
1649:HANcoder_E407_TTA_CombineModel.c ****        */
1650:HANcoder_E407_TTA_CombineModel.c ****       rtDWork.slaveClockOn = true;
1651:HANcoder_E407_TTA_CombineModel.c **** 
1652:HANcoder_E407_TTA_CombineModel.c ****       /* DataStoreWrite: '<S147>/Data Store Write3' incorporates:
1653:HANcoder_E407_TTA_CombineModel.c ****        *  Constant: '<S147>/Constant2'
1654:HANcoder_E407_TTA_CombineModel.c ****        */
1655:HANcoder_E407_TTA_CombineModel.c ****       rtDWork.slot = ((uint8_T)1U);
1656:HANcoder_E407_TTA_CombineModel.c ****     }
1657:HANcoder_E407_TTA_CombineModel.c **** 
1658:HANcoder_E407_TTA_CombineModel.c ****     /* End of Outputs for SubSystem: '<S145>/Subsystem1' */
1659:HANcoder_E407_TTA_CombineModel.c ****   } else if (rtDWork.Subsystem2_MODE) {
 1826              		.loc 1 1659 10 is_stmt 1 view .LVU677
 1827              		.loc 1 1659 13 is_stmt 0 view .LVU678
 1828 0494 94F8D130 		ldrb	r3, [r4, #209]	@ zero_extendqisi2
 1829 0498 13B1     		cbz	r3, .L131
1660:HANcoder_E407_TTA_CombineModel.c ****     rtDWork.Subsystem2_MODE = false;
 1830              		.loc 1 1660 5 is_stmt 1 view .LVU679
 1831              		.loc 1 1660 29 is_stmt 0 view .LVU680
 1832 049a 0023     		movs	r3, #0
 1833 049c 84F8D130 		strb	r3, [r4, #209]
 1834              	.L131:
1661:HANcoder_E407_TTA_CombineModel.c ****   }
1662:HANcoder_E407_TTA_CombineModel.c **** 
1663:HANcoder_E407_TTA_CombineModel.c ****   /* End of Logic: '<S13>/AND1' */
1664:HANcoder_E407_TTA_CombineModel.c ****   /* End of Outputs for SubSystem: '<S13>/Subsystem2' */
1665:HANcoder_E407_TTA_CombineModel.c **** 
1666:HANcoder_E407_TTA_CombineModel.c ****   /* M-S-Function: '<S6>/Level-2 M-file S-Function' */
1667:HANcoder_E407_TTA_CombineModel.c ****   /* read from digital input */
1668:HANcoder_E407_TTA_CombineModel.c ****   rtb_Level2MfileSFunction_j = DiginGet(DIGIN_PORTG_PIN12);
 1835              		.loc 1 1668 3 is_stmt 1 view .LVU681
 1836              		.loc 1 1668 32 is_stmt 0 view .LVU682
 1837 04a0 0E20     		movs	r0, #14
 1838 04a2 FFF7FEFF 		bl	DiginGet
 1839              	.LVL127:
 1840 04a6 0546     		mov	r5, r0
 1841              	.LVL128:
1669:HANcoder_E407_TTA_CombineModel.c **** 
1670:HANcoder_E407_TTA_CombineModel.c ****   /* Gain: '<S1>/Multiply' */
1671:HANcoder_E407_TTA_CombineModel.c ****   rtb_Multiply = (uint8_T)(rtb_Level2MfileSFunction_j ? (int32_T)((uint32_T)
 1842              		.loc 1 1671 3 is_stmt 1 view .LVU683
 1843              		.loc 1 1671 18 is_stmt 0 view .LVU684
 1844 04a8 003D     		subs	r5, r5, #0
 1845              	.LVL129:
1672:HANcoder_E407_TTA_CombineModel.c ****     ((uint8_T)128U) >> 7) : 0);
1673:HANcoder_E407_TTA_CombineModel.c **** 
1674:HANcoder_E407_TTA_CombineModel.c ****   /* M-S-Function: '<S7>/Level-2 M-file S-Function' */
1675:HANcoder_E407_TTA_CombineModel.c ****   /* read from digital input */
1676:HANcoder_E407_TTA_CombineModel.c ****   rtb_Level2MfileSFunction_j = DiginGet(DIGIN_PORTG_PIN15);
 1846              		.loc 1 1676 32 view .LVU685
 1847 04aa 4FF00F00 		mov	r0, #15
1671:HANcoder_E407_TTA_CombineModel.c ****     ((uint8_T)128U) >> 7) : 0);
 1848              		.loc 1 1671 18 view .LVU686
 1849 04ae 18BF     		it	ne
 1850 04b0 0125     		movne	r5, #1
 1851              	.LVL130:
 1852              		.loc 1 1676 3 is_stmt 1 view .LVU687
 1853              		.loc 1 1676 32 is_stmt 0 view .LVU688
 1854 04b2 FFF7FEFF 		bl	DiginGet
 1855              	.LVL131:
1677:HANcoder_E407_TTA_CombineModel.c **** 
1678:HANcoder_E407_TTA_CombineModel.c ****   /* Gain: '<S1>/Multiply1' */
1679:HANcoder_E407_TTA_CombineModel.c ****   rtb_Multiply1 = (uint8_T)(rtb_Level2MfileSFunction_j ? (int32_T)((uint32_T)
 1856              		.loc 1 1679 3 is_stmt 1 view .LVU689
 1857              		.loc 1 1679 19 is_stmt 0 view .LVU690
 1858 04b6 00B1     		cbz	r0, .L133
1680:HANcoder_E407_TTA_CombineModel.c ****     ((uint8_T)128U) >> 6) : 0);
1681:HANcoder_E407_TTA_CombineModel.c **** 
1682:HANcoder_E407_TTA_CombineModel.c ****   /* M-S-Function: '<S8>/Level-2 M-file S-Function' */
1683:HANcoder_E407_TTA_CombineModel.c ****   /* read from digital input */
1684:HANcoder_E407_TTA_CombineModel.c ****   rtb_Level2MfileSFunction_j = DiginGet(DIGIN_PORTA_PIN4);
1685:HANcoder_E407_TTA_CombineModel.c **** 
1686:HANcoder_E407_TTA_CombineModel.c ****   /* Sum: '<S1>/Add' incorporates:
1687:HANcoder_E407_TTA_CombineModel.c ****    *  DataStoreWrite: '<S1>/Data Store Write'
1688:HANcoder_E407_TTA_CombineModel.c ****    *  Gain: '<S1>/Multiply2'
1689:HANcoder_E407_TTA_CombineModel.c ****    */
1690:HANcoder_E407_TTA_CombineModel.c ****   rtDWork.nodeRole = (uint8_T)(((uint32_T)rtb_Multiply + rtb_Multiply1) +
 1859              		.loc 1 1690 56 view .LVU691
 1860 04b8 0235     		adds	r5, r5, #2
 1861              	.LVL132:
 1862              	.L133:
1684:HANcoder_E407_TTA_CombineModel.c **** 
 1863              		.loc 1 1684 3 is_stmt 1 discriminator 4 view .LVU692
1684:HANcoder_E407_TTA_CombineModel.c **** 
 1864              		.loc 1 1684 32 is_stmt 0 discriminator 4 view .LVU693
 1865 04ba 1020     		movs	r0, #16
 1866              	.LVL133:
1684:HANcoder_E407_TTA_CombineModel.c **** 
 1867              		.loc 1 1684 32 discriminator 4 view .LVU694
 1868 04bc FFF7FEFF 		bl	DiginGet
 1869              	.LVL134:
 1870              		.loc 1 1690 3 is_stmt 1 discriminator 4 view .LVU695
 1871              		.loc 1 1690 22 is_stmt 0 discriminator 4 view .LVU696
 1872 04c0 08B1     		cbz	r0, .L134
 1873              		.loc 1 1690 22 view .LVU697
 1874 04c2 0435     		adds	r5, r5, #4
 1875 04c4 EDB2     		uxtb	r5, r5
 1876              	.L134:
 1877              		.loc 1 1690 20 discriminator 4 view .LVU698
 1878 04c6 84F8CB50 		strb	r5, [r4, #203]
1691:HANcoder_E407_TTA_CombineModel.c ****     (uint32_T)(rtb_Level2MfileSFunction_j ? (int32_T)((uint32_T)((uint8_T)128U) >>
1692:HANcoder_E407_TTA_CombineModel.c ****     5) : 0));
1693:HANcoder_E407_TTA_CombineModel.c **** 
1694:HANcoder_E407_TTA_CombineModel.c ****   /* M-S-Function: '<S149>/Level-2 M-file S-Function' */
1695:HANcoder_E407_TTA_CombineModel.c ****   /* read the current CPU load */
1696:HANcoder_E407_TTA_CombineModel.c ****   SI_CPUload = OsGetCpuLoad();
 1879              		.loc 1 1696 3 is_stmt 1 discriminator 4 view .LVU699
 1880              		.loc 1 1696 16 is_stmt 0 discriminator 4 view .LVU700
 1881 04ca FFF7FEFF 		bl	OsGetCpuLoad
 1882              	.LVL135:
 1883              		.loc 1 1696 14 discriminator 4 view .LVU701
 1884 04ce 5E4B     		ldr	r3, .L293+52
 1885 04d0 1870     		strb	r0, [r3]
1697:HANcoder_E407_TTA_CombineModel.c **** 
1698:HANcoder_E407_TTA_CombineModel.c ****   /* M-S-Function: '<S150>/Level-2 M-file S-Function' */
1699:HANcoder_E407_TTA_CombineModel.c ****   /* read the free heap size */
1700:HANcoder_E407_TTA_CombineModel.c ****   SI_FreeHeap = OsGetFreeHeapSize();
 1886              		.loc 1 1700 3 is_stmt 1 discriminator 4 view .LVU702
 1887              		.loc 1 1700 17 is_stmt 0 discriminator 4 view .LVU703
 1888 04d2 FFF7FEFF 		bl	OsGetFreeHeapSize
 1889              	.LVL136:
 1890              		.loc 1 1700 15 discriminator 4 view .LVU704
 1891 04d6 5D4B     		ldr	r3, .L293+56
 1892              		.loc 1 1700 17 discriminator 4 view .LVU705
 1893 04d8 0246     		mov	r2, r0
1701:HANcoder_E407_TTA_CombineModel.c **** 
1702:HANcoder_E407_TTA_CombineModel.c ****   /* M-S-Function: '<S151>/Level-2 M-file S-Function' */
1703:HANcoder_E407_TTA_CombineModel.c ****   /* read the task's free stack size */
1704:HANcoder_E407_TTA_CombineModel.c ****   SI_FreeStack = OsGetTaskFreeStackSize("AppCtrlTask");
 1894              		.loc 1 1704 18 discriminator 4 view .LVU706
 1895 04da 5D48     		ldr	r0, .L293+60
1700:HANcoder_E407_TTA_CombineModel.c **** 
 1896              		.loc 1 1700 15 discriminator 4 view .LVU707
 1897 04dc 1A60     		str	r2, [r3]
 1898              		.loc 1 1704 3 is_stmt 1 discriminator 4 view .LVU708
 1899              		.loc 1 1704 18 is_stmt 0 discriminator 4 view .LVU709
 1900 04de FFF7FEFF 		bl	OsGetTaskFreeStackSize
 1901              	.LVL137:
1705:HANcoder_E407_TTA_CombineModel.c **** 
1706:HANcoder_E407_TTA_CombineModel.c ****   /* Update absolute time for base rate */
1707:HANcoder_E407_TTA_CombineModel.c ****   /* The "clockTick0" counts the number of times the code of this task has
1708:HANcoder_E407_TTA_CombineModel.c ****    * been executed. The resolution of this integer timer is 0.001, which is the step size
1709:HANcoder_E407_TTA_CombineModel.c ****    * of the task. Size of "clockTick0" ensures timer will not overflow during the
1710:HANcoder_E407_TTA_CombineModel.c ****    * application lifespan selected.
1711:HANcoder_E407_TTA_CombineModel.c ****    * Timer of this task consists of two 32 bit unsigned integers.
1712:HANcoder_E407_TTA_CombineModel.c ****    * The two integers represent the low bits Timing.clockTick0 and the high bits
1713:HANcoder_E407_TTA_CombineModel.c ****    * Timing.clockTickH0. When the low bit overflows to 0, the high bits increment.
1714:HANcoder_E407_TTA_CombineModel.c ****    */
1715:HANcoder_E407_TTA_CombineModel.c ****   rtM->Timing.clockTick0++;
 1902              		.loc 1 1715 25 discriminator 4 view .LVU710
 1903 04e2 3B68     		ldr	r3, [r7]
1704:HANcoder_E407_TTA_CombineModel.c **** 
 1904              		.loc 1 1704 16 discriminator 4 view .LVU711
 1905 04e4 5B4A     		ldr	r2, .L293+64
 1906              		.loc 1 1715 25 discriminator 4 view .LVU712
 1907 04e6 0133     		adds	r3, r3, #1
1704:HANcoder_E407_TTA_CombineModel.c **** 
 1908              		.loc 1 1704 16 discriminator 4 view .LVU713
 1909 04e8 1060     		str	r0, [r2]
 1910              		.loc 1 1715 3 is_stmt 1 discriminator 4 view .LVU714
 1911              		.loc 1 1715 25 is_stmt 0 discriminator 4 view .LVU715
 1912 04ea 3B60     		str	r3, [r7]
1716:HANcoder_E407_TTA_CombineModel.c ****   if (!rtM->Timing.clockTick0) {
 1913              		.loc 1 1716 3 is_stmt 1 discriminator 4 view .LVU716
 1914              		.loc 1 1716 6 is_stmt 0 discriminator 4 view .LVU717
 1915 04ec 13B9     		cbnz	r3, .L56
1717:HANcoder_E407_TTA_CombineModel.c ****     rtM->Timing.clockTickH0++;
 1916              		.loc 1 1717 5 is_stmt 1 view .LVU718
 1917              		.loc 1 1717 28 is_stmt 0 view .LVU719
 1918 04ee 7B68     		ldr	r3, [r7, #4]
 1919 04f0 0133     		adds	r3, r3, #1
 1920 04f2 7B60     		str	r3, [r7, #4]
 1921              	.L56:
1718:HANcoder_E407_TTA_CombineModel.c ****   }
1719:HANcoder_E407_TTA_CombineModel.c **** }
 1922              		.loc 1 1719 1 view .LVU720
 1923 04f4 19B0     		add	sp, sp, #100
 1924              		.cfi_remember_state
 1925              		.cfi_def_cfa_offset 92
 1926              		@ sp needed
 1927 04f6 BDEC0E8B 		vldm	sp!, {d8-d14}
 1928              		.cfi_restore 92
 1929              		.cfi_restore 93
 1930              		.cfi_restore 90
 1931              		.cfi_restore 91
 1932              		.cfi_restore 88
 1933              		.cfi_restore 89
 1934              		.cfi_restore 86
 1935              		.cfi_restore 87
 1936              		.cfi_restore 84
 1937              		.cfi_restore 85
 1938              		.cfi_restore 82
 1939              		.cfi_restore 83
 1940              		.cfi_restore 80
 1941              		.cfi_restore 81
 1942              		.cfi_def_cfa_offset 36
 1943 04fa BDE8F08F 		pop	{r4, r5, r6, r7, r8, r9, r10, fp, pc}
 1944              	.L266:
 1945              		.cfi_restore_state
 561:HANcoder_E407_TTA_CombineModel.c **** 
 1946              		.loc 1 561 5 is_stmt 1 view .LVU721
 566:HANcoder_E407_TTA_CombineModel.c **** 
 1947              		.loc 1 566 24 is_stmt 0 view .LVU722
 1948 04fe 564F     		ldr	r7, .L293+68
 1949 0500 0026     		movs	r6, #0
 561:HANcoder_E407_TTA_CombineModel.c **** 
 1950              		.loc 1 561 42 view .LVU723
 1951 0502 0121     		movs	r1, #1
 573:HANcoder_E407_TTA_CombineModel.c ****       (tTimeoutAction)((uint8_T)3U));
 1952              		.loc 1 573 5 view .LVU724
 1953 0504 0322     		movs	r2, #3
 1954 0506 0720     		movs	r0, #7
 566:HANcoder_E407_TTA_CombineModel.c **** 
 1955              		.loc 1 566 24 view .LVU725
 1956 0508 C4E92A67 		strd	r6, [r4, #168]
 561:HANcoder_E407_TTA_CombineModel.c **** 
 1957              		.loc 1 561 42 view .LVU726
 1958 050c 84F8D710 		strb	r1, [r4, #215]
 566:HANcoder_E407_TTA_CombineModel.c **** 
 1959              		.loc 1 566 5 is_stmt 1 view .LVU727
 573:HANcoder_E407_TTA_CombineModel.c ****       (tTimeoutAction)((uint8_T)3U));
 1960              		.loc 1 573 5 view .LVU728
 1961 0510 FFF7FEFF 		bl	TimeoutScheduleCompareEvent
 1962              	.LVL138:
 1963 0514 88E5     		b	.L59
 1964              	.LVL139:
 1965              	.L178:
 573:HANcoder_E407_TTA_CombineModel.c ****       (tTimeoutAction)((uint8_T)3U));
 1966              		.loc 1 573 5 is_stmt 0 view .LVU729
 1967 0516 F0EE687A 		vmov.f32	s15, s17
 1968 051a B0EE487A 		vmov.f32	s14, s16
1195:HANcoder_E407_TTA_CombineModel.c **** 
 1969              		.loc 1 1195 15 view .LVU730
 1970 051e 0023     		movs	r3, #0
 1971              	.L100:
 1972              	.LBB160:
 1973              	.LBB128:
 428:HANcoder_E407_TTA_CombineModel.c **** 
 1974              		.loc 1 428 3 is_stmt 1 view .LVU731
 1975              	.LBE128:
 1976              	.LBE160:
1217:HANcoder_E407_TTA_CombineModel.c **** 
 1977              		.loc 1 1217 25 is_stmt 0 view .LVU732
 1978 0520 F1EE006A 		vmov.f32	s13, #4.0e+0
 1979 0524 B4EE667A 		vcmp.f32	s14, s13
 1980 0528 F1EE10FA 		vmrs	APSR_nzcv, FPSCR
 1981              	.LBB161:
 1982              	.LBB129:
 428:HANcoder_E407_TTA_CombineModel.c **** 
 1983              		.loc 1 428 31 view .LVU733
 1984 052c 6B71     		strb	r3, [r5, #5]
 1985              	.LBE129:
 1986              	.LBE161:
1206:HANcoder_E407_TTA_CombineModel.c **** 
 1987              		.loc 1 1206 5 is_stmt 1 view .LVU734
 1988              	.LVL140:
1212:HANcoder_E407_TTA_CombineModel.c **** 
 1989              		.loc 1 1212 5 view .LVU735
1217:HANcoder_E407_TTA_CombineModel.c **** 
 1990              		.loc 1 1217 5 view .LVU736
1217:HANcoder_E407_TTA_CombineModel.c **** 
 1991              		.loc 1 1217 25 is_stmt 0 view .LVU737
 1992 052e 7FF452AE 		bne	.L103
1217:HANcoder_E407_TTA_CombineModel.c **** 
 1993              		.loc 1 1217 25 discriminator 1 view .LVU738
 1994 0532 B7EE007A 		vmov.f32	s14, #1.0e+0
 1995 0536 F4EE477A 		vcmp.f32	s15, s14
 1996 053a F1EE10FA 		vmrs	APSR_nzcv, FPSCR
 1997 053e 07D0     		beq	.L284
 1998              	.LVL141:
1221:HANcoder_E407_TTA_CombineModel.c **** 
 1999              		.loc 1 1221 5 is_stmt 1 view .LVU739
 2000 0540 464B     		ldr	r3, .L293+72
 2001 0542 474A     		ldr	r2, .L293+76
 2002 0544 1968     		ldr	r1, [r3]
 2003 0546 474B     		ldr	r3, .L293+80
 2004 0548 0120     		movs	r0, #1
 2005 054a FFF7FEFF 		bl	MMBS1_RX
 2006              	.LVL142:
1226:HANcoder_E407_TTA_CombineModel.c **** 
 2007              		.loc 1 1226 5 view .LVU740
 2008 054e 49E6     		b	.L161
 2009              	.LVL143:
 2010              	.L284:
1221:HANcoder_E407_TTA_CombineModel.c **** 
 2011              		.loc 1 1221 5 view .LVU741
 2012 0550 424E     		ldr	r6, .L293+72
 2013 0552 444B     		ldr	r3, .L293+80
 2014 0554 424A     		ldr	r2, .L293+76
 2015 0556 3168     		ldr	r1, [r6]
 2016 0558 0020     		movs	r0, #0
 2017 055a FFF7FEFF 		bl	MMBS1_RX
 2018              	.LVL144:
1226:HANcoder_E407_TTA_CombineModel.c **** 
 2019              		.loc 1 1226 5 view .LVU742
1230:HANcoder_E407_TTA_CombineModel.c **** 
 2020              		.loc 1 1230 5 view .LVU743
 2021              	.LBB162:
 412:HANcoder_E407_TTA_CombineModel.c **** {
 2022              		.loc 1 412 6 view .LVU744
 2023              	.LBB136:
 417:HANcoder_E407_TTA_CombineModel.c ****     /* Update for M-S-Function: '<S40>/S-Function' */
 2024              		.loc 1 417 3 view .LVU745
 417:HANcoder_E407_TTA_CombineModel.c ****     /* Update for M-S-Function: '<S40>/S-Function' */
 2025              		.loc 1 417 31 is_stmt 0 view .LVU746
 2026 055e 2B79     		ldrb	r3, [r5, #4]	@ zero_extendqisi2
 417:HANcoder_E407_TTA_CombineModel.c ****     /* Update for M-S-Function: '<S40>/S-Function' */
 2027              		.loc 1 417 19 view .LVU747
 2028 0560 012B     		cmp	r3, #1
 2029 0562 3FF440AE 		beq	.L144
 421:HANcoder_E407_TTA_CombineModel.c **** 
 2030              		.loc 1 421 7 is_stmt 1 view .LVU748
 421:HANcoder_E407_TTA_CombineModel.c **** 
 2031              		.loc 1 421 33 is_stmt 0 view .LVU749
 2032 0566 2E4B     		ldr	r3, .L293+12
 424:HANcoder_E407_TTA_CombineModel.c ****     }
 2033              		.loc 1 424 7 view .LVU750
 2034 0568 3168     		ldr	r1, [r6]
 421:HANcoder_E407_TTA_CombineModel.c **** 
 2035              		.loc 1 421 33 view .LVU751
 2036 056a 0020     		movs	r0, #0
 2037 056c 1870     		strb	r0, [r3]
 424:HANcoder_E407_TTA_CombineModel.c ****     }
 2038              		.loc 1 424 7 is_stmt 1 view .LVU752
 2039 056e 0122     		movs	r2, #1
 2040 0570 FFF7FEFF 		bl	CanTransmit
 2041              	.LVL145:
 424:HANcoder_E407_TTA_CombineModel.c ****     }
 2042              		.loc 1 424 7 is_stmt 0 view .LVU753
 2043              	.LBE136:
 2044              	.LBE162:
1226:HANcoder_E407_TTA_CombineModel.c **** 
 2045              		.loc 1 1226 14 view .LVU754
 2046 0574 0123     		movs	r3, #1
 2047 0576 36E6     		b	.L144
 2048              	.LVL146:
 2049              	.L97:
1169:HANcoder_E407_TTA_CombineModel.c **** 
 2050              		.loc 1 1169 5 is_stmt 1 view .LVU755
 2051 0578 2D4B     		ldr	r3, .L293+28
 2052 057a 2F4A     		ldr	r2, .L293+36
 2053 057c 1968     		ldr	r1, [r3]
 2054 057e 2D4B     		ldr	r3, .L293+32
 2055 0580 0020     		movs	r0, #0
 2056 0582 FFF7FEFF 		bl	MMBS1_RX
 2057              	.LVL147:
1174:HANcoder_E407_TTA_CombineModel.c **** 
 2058              		.loc 1 1174 5 view .LVU756
1178:HANcoder_E407_TTA_CombineModel.c **** 
 2059              		.loc 1 1178 5 view .LVU757
 2060              	.LBB163:
 412:HANcoder_E407_TTA_CombineModel.c **** {
 2061              		.loc 1 412 6 view .LVU758
 2062              	.LBB124:
 417:HANcoder_E407_TTA_CombineModel.c ****     /* Update for M-S-Function: '<S40>/S-Function' */
 2063              		.loc 1 417 3 view .LVU759
 2064              	.LBE124:
 2065              	.LBE163:
1174:HANcoder_E407_TTA_CombineModel.c **** 
 2066              		.loc 1 1174 14 is_stmt 0 view .LVU760
 2067 0586 0023     		movs	r3, #0
 2068 0588 03E6     		b	.L146
 2069              	.LVL148:
 2070              	.L277:
1293:HANcoder_E407_TTA_CombineModel.c **** 
 2071              		.loc 1 1293 30 discriminator 1 view .LVU761
 2072 058a F1EE006A 		vmov.f32	s13, #4.0e+0
 2073 058e B4EE667A 		vcmp.f32	s14, s13
 2074 0592 F1EE10FA 		vmrs	APSR_nzcv, FPSCR
 2075 0596 40F0EB82 		bne	.L111
 2076              	.LVL149:
1298:HANcoder_E407_TTA_CombineModel.c ****       rtDWork.TRLS_ID4_RX_MODE = true;
 2077              		.loc 1 1298 5 is_stmt 1 view .LVU762
1345:HANcoder_E407_TTA_CombineModel.c ****       rtDWork.TRLS_ID4_RX_MODE = false;
 2078              		.loc 1 1345 12 view .LVU763
1345:HANcoder_E407_TTA_CombineModel.c ****       rtDWork.TRLS_ID4_RX_MODE = false;
 2079              		.loc 1 1345 15 is_stmt 0 view .LVU764
 2080 059a 94F8D420 		ldrb	r2, [r4, #212]	@ zero_extendqisi2
 2081 059e 12B1     		cbz	r2, .L160
1346:HANcoder_E407_TTA_CombineModel.c ****     }
 2082              		.loc 1 1346 7 is_stmt 1 view .LVU765
1346:HANcoder_E407_TTA_CombineModel.c ****     }
 2083              		.loc 1 1346 32 is_stmt 0 view .LVU766
 2084 05a0 0022     		movs	r2, #0
 2085 05a2 84F8D420 		strb	r2, [r4, #212]
1352:HANcoder_E407_TTA_CombineModel.c **** 
 2086              		.loc 1 1352 5 is_stmt 1 view .LVU767
 2087              	.L160:
 2088              	.LVL150:
1357:HANcoder_E407_TTA_CombineModel.c ****       /* Outputs for Atomic SubSystem: '<S132>/Bit Shift' */
 2089              		.loc 1 1357 5 view .LVU768
1357:HANcoder_E407_TTA_CombineModel.c ****       /* Outputs for Atomic SubSystem: '<S132>/Bit Shift' */
 2090              		.loc 1 1357 41 is_stmt 0 view .LVU769
 2091 05a6 EA78     		ldrb	r2, [r5, #3]	@ zero_extendqisi2
1357:HANcoder_E407_TTA_CombineModel.c ****       /* Outputs for Atomic SubSystem: '<S132>/Bit Shift' */
 2092              		.loc 1 1357 21 view .LVU770
 2093 05a8 012A     		cmp	r2, #1
 2094 05aa 3FF44CAE 		beq	.L140
1360:HANcoder_E407_TTA_CombineModel.c **** 
 2095              		.loc 1 1360 7 is_stmt 1 view .LVU771
 2096              	.LBB164:
 2097              	.LBB165:
 456:HANcoder_E407_TTA_CombineModel.c **** }
 2098              		.loc 1 456 15 is_stmt 0 view .LVU772
 2099 05ae B4F8C430 		ldrh	r3, [r4, #196]
 2100 05b2 B4F8C420 		ldrh	r2, [r4, #196]
 2101 05b6 1B0A     		lsrs	r3, r3, #8
 456:HANcoder_E407_TTA_CombineModel.c **** }
 2102              		.loc 1 456 13 view .LVU773
 2103 05b8 AAF81630 		strh	r3, [r10, #22]	@ movhi
 2104              	.LBE165:
 2105              	.LBE164:
1377:HANcoder_E407_TTA_CombineModel.c ****         canTxData.uint8_T_info[1] = rtB.Cast1_i;
 2106              		.loc 1 1377 35 view .LVU774
 2107 05bc 184B     		ldr	r3, .L293+12
 2108 05be 52BA     		rev16	r2, r2
 2109              	.LVL151:
 2110              	.LBB167:
 2111              	.LBI164:
 451:HANcoder_E407_TTA_CombineModel.c **** {
 2112              		.loc 1 451 6 is_stmt 1 view .LVU775
 2113              	.LBB166:
 456:HANcoder_E407_TTA_CombineModel.c **** }
 2114              		.loc 1 456 3 view .LVU776
 456:HANcoder_E407_TTA_CombineModel.c **** }
 2115              		.loc 1 456 3 is_stmt 0 view .LVU777
 2116              	.LBE166:
 2117              	.LBE167:
1365:HANcoder_E407_TTA_CombineModel.c **** 
 2118              		.loc 1 1365 7 is_stmt 1 view .LVU778
1370:HANcoder_E407_TTA_CombineModel.c **** 
 2119              		.loc 1 1370 7 view .LVU779
1377:HANcoder_E407_TTA_CombineModel.c ****         canTxData.uint8_T_info[1] = rtB.Cast1_i;
 2120              		.loc 1 1377 9 view .LVU780
1378:HANcoder_E407_TTA_CombineModel.c **** 
 2121              		.loc 1 1378 9 view .LVU781
1377:HANcoder_E407_TTA_CombineModel.c ****         canTxData.uint8_T_info[1] = rtB.Cast1_i;
 2122              		.loc 1 1377 35 is_stmt 0 view .LVU782
 2123 05c0 1A80     		strh	r2, [r3]	@ movhi
1381:HANcoder_E407_TTA_CombineModel.c ****       }
 2124              		.loc 1 1381 9 is_stmt 1 view .LVU783
1365:HANcoder_E407_TTA_CombineModel.c **** 
 2125              		.loc 1 1365 18 is_stmt 0 view .LVU784
 2126 05c2 AAF80620 		strh	r2, [r10, #6]	@ movhi
1381:HANcoder_E407_TTA_CombineModel.c ****       }
 2127              		.loc 1 1381 9 view .LVU785
 2128 05c6 284A     		ldr	r2, .L293+84
 2129 05c8 0020     		movs	r0, #0
 2130 05ca 1168     		ldr	r1, [r2]
 2131 05cc 0222     		movs	r2, #2
 2132 05ce FFF7FEFF 		bl	CanTransmit
 2133              	.LVL152:
1392:HANcoder_E407_TTA_CombineModel.c **** 
 2134              		.loc 1 1392 33 view .LVU786
 2135 05d2 9BF80030 		ldrb	r3, [fp]	@ zero_extendqisi2
 2136 05d6 07EE903A 		vmov	s15, r3	@ int
1398:HANcoder_E407_TTA_CombineModel.c **** 
 2137              		.loc 1 1398 27 view .LVU787
 2138 05da 94F8CB30 		ldrb	r3, [r4, #203]	@ zero_extendqisi2
1392:HANcoder_E407_TTA_CombineModel.c **** 
 2139              		.loc 1 1392 33 view .LVU788
 2140 05de F8EEE77A 		vcvt.f32.s32	s15, s15
1403:HANcoder_E407_TTA_CombineModel.c **** 
 2141              		.loc 1 1403 30 view .LVU789
 2142 05e2 F2EE026A 		vmov.f32	s13, #9.0e+0
1398:HANcoder_E407_TTA_CombineModel.c **** 
 2143              		.loc 1 1398 37 view .LVU790
 2144 05e6 07EE103A 		vmov	s14, r3	@ int
1403:HANcoder_E407_TTA_CombineModel.c **** 
 2145              		.loc 1 1403 30 view .LVU791
 2146 05ea F4EE667A 		vcmp.f32	s15, s13
1352:HANcoder_E407_TTA_CombineModel.c **** 
 2147              		.loc 1 1352 17 view .LVU792
 2148 05ee 0122     		movs	r2, #1
 2149              	.LVL153:
1385:HANcoder_E407_TTA_CombineModel.c **** 
 2150              		.loc 1 1385 5 is_stmt 1 view .LVU793
1403:HANcoder_E407_TTA_CombineModel.c **** 
 2151              		.loc 1 1403 30 is_stmt 0 view .LVU794
 2152 05f0 F1EE10FA 		vmrs	APSR_nzcv, FPSCR
1398:HANcoder_E407_TTA_CombineModel.c **** 
 2153              		.loc 1 1398 37 view .LVU795
 2154 05f4 B8EEC77A 		vcvt.f32.s32	s14, s14
1385:HANcoder_E407_TTA_CombineModel.c **** 
 2155              		.loc 1 1385 43 view .LVU796
 2156 05f8 EA70     		strb	r2, [r5, #3]
1392:HANcoder_E407_TTA_CombineModel.c **** 
 2157              		.loc 1 1392 5 is_stmt 1 view .LVU797
 2158              	.LVL154:
1398:HANcoder_E407_TTA_CombineModel.c **** 
 2159              		.loc 1 1398 5 view .LVU798
1403:HANcoder_E407_TTA_CombineModel.c **** 
 2160              		.loc 1 1403 5 view .LVU799
1403:HANcoder_E407_TTA_CombineModel.c **** 
 2161              		.loc 1 1403 30 is_stmt 0 view .LVU800
 2162 05fa 3FF42DAE 		beq	.L285
 2163              	.LVL155:
 2164              	.L114:
1408:HANcoder_E407_TTA_CombineModel.c ****       rtDWork.TRLS_ID5_RX_MODE = true;
 2165              		.loc 1 1408 5 is_stmt 1 view .LVU801
1455:HANcoder_E407_TTA_CombineModel.c ****       rtDWork.TRLS_ID5_RX_MODE = false;
 2166              		.loc 1 1455 12 view .LVU802
1455:HANcoder_E407_TTA_CombineModel.c ****       rtDWork.TRLS_ID5_RX_MODE = false;
 2167              		.loc 1 1455 15 is_stmt 0 view .LVU803
 2168 05fe 94F8D320 		ldrb	r2, [r4, #211]	@ zero_extendqisi2
 2169 0602 002A     		cmp	r2, #0
 2170 0604 3FF44DAE 		beq	.L117
1456:HANcoder_E407_TTA_CombineModel.c ****     }
 2171              		.loc 1 1456 7 is_stmt 1 view .LVU804
1456:HANcoder_E407_TTA_CombineModel.c ****     }
 2172              		.loc 1 1456 32 is_stmt 0 view .LVU805
 2173 0608 0022     		movs	r2, #0
 2174 060a 84F8D320 		strb	r2, [r4, #211]
1462:HANcoder_E407_TTA_CombineModel.c **** 
 2175              		.loc 1 1462 5 is_stmt 1 view .LVU806
 2176              	.LVL156:
1467:HANcoder_E407_TTA_CombineModel.c ****       /* Outputs for Atomic SubSystem: '<S141>/Bit Shift' */
 2177              		.loc 1 1467 5 view .LVU807
1462:HANcoder_E407_TTA_CombineModel.c **** 
 2178              		.loc 1 1462 17 is_stmt 0 view .LVU808
 2179 060e 0022     		movs	r2, #0
 2180 0610 48E6     		b	.L137
 2181              	.L294:
 2182 0612 00BF     		.align	2
 2183              	.L293:
 2184 0614 00000000 		.word	.LANCHOR12
 2185 0618 DA000000 		.word	.LANCHOR2+218
 2186 061c 24000000 		.word	.LANCHOR0+36
 2187 0620 00000000 		.word	.LANCHOR9
 2188 0624 00000000 		.word	.LANCHOR13
 2189 0628 00000000 		.word	.LANCHOR15
 2190 062c 0A000000 		.word	.LANCHOR5+10
 2191 0630 00000000 		.word	.LANCHOR35
 2192 0634 D9000000 		.word	.LANCHOR2+217
 2193 0638 20000000 		.word	.LANCHOR0+32
 2194 063c 00000000 		.word	.LANCHOR5
 2195 0640 00000000 		.word	.LANCHOR20
 2196 0644 00000000 		.word	.LANCHOR43
 2197 0648 00000000 		.word	.LANCHOR44
 2198 064c 00000000 		.word	.LANCHOR45
 2199 0650 00000000 		.word	.LC0
 2200 0654 00000000 		.word	.LANCHOR46
 2201 0658 0000F03F 		.word	1072693248
 2202 065c 00000000 		.word	.LANCHOR37
 2203 0660 1E000000 		.word	.LANCHOR0+30
 2204 0664 D8000000 		.word	.LANCHOR2+216
 2205 0668 00000000 		.word	.LANCHOR40
 2206              	.LVL157:
 2207              	.L251:
 896:HANcoder_E407_TTA_CombineModel.c ****       Subsystem_ELAPS_T_tmp = rtM->Timing.clockTick0;
 2208              		.loc 1 896 21 discriminator 1 view .LVU809
 2209 066c EB79     		ldrb	r3, [r5, #7]	@ zero_extendqisi2
 897:HANcoder_E407_TTA_CombineModel.c ****       Subsystem_ELAPS_T[0] = Subsystem_ELAPS_T_tmp - rtDWork.Subsystem_PREV_T[0];
 2210              		.loc 1 897 29 discriminator 1 view .LVU810
 2211 066e D64F     		ldr	r7, .L295+16
 896:HANcoder_E407_TTA_CombineModel.c ****       Subsystem_ELAPS_T_tmp = rtM->Timing.clockTick0;
 2212              		.loc 1 896 21 discriminator 1 view .LVU811
 2213 0670 012B     		cmp	r3, #1
 2214 0672 3FF46EAD 		beq	.L81
 897:HANcoder_E407_TTA_CombineModel.c ****       Subsystem_ELAPS_T[0] = Subsystem_ELAPS_T_tmp - rtDWork.Subsystem_PREV_T[0];
 2215              		.loc 1 897 7 is_stmt 1 view .LVU812
 898:HANcoder_E407_TTA_CombineModel.c ****       rtDWork.Subsystem_PREV_T[0] = Subsystem_ELAPS_T_tmp;
 2216              		.loc 1 898 52 is_stmt 0 view .LVU813
 2217 0676 D4F8B820 		ldr	r2, [r4, #184]
 897:HANcoder_E407_TTA_CombineModel.c ****       Subsystem_ELAPS_T[0] = Subsystem_ELAPS_T_tmp - rtDWork.Subsystem_PREV_T[0];
 2218              		.loc 1 897 29 view .LVU814
 2219 067a 3B68     		ldr	r3, [r7]
 2220              	.LVL158:
 898:HANcoder_E407_TTA_CombineModel.c ****       rtDWork.Subsystem_PREV_T[0] = Subsystem_ELAPS_T_tmp;
 2221              		.loc 1 898 7 is_stmt 1 view .LVU815
 899:HANcoder_E407_TTA_CombineModel.c ****       rtDWork.Subsystem_PREV_T[1] = rtM->Timing.clockTickH0;
 2222              		.loc 1 899 35 is_stmt 0 view .LVU816
 2223 067c C4F8B830 		str	r3, [r4, #184]
 903:HANcoder_E407_TTA_CombineModel.c **** 
 2224              		.loc 1 903 25 view .LVU817
 2225 0680 D4E92C01 		ldrd	r0, [r4, #176]
 898:HANcoder_E407_TTA_CombineModel.c ****       rtDWork.Subsystem_PREV_T[0] = Subsystem_ELAPS_T_tmp;
 2226              		.loc 1 898 52 view .LVU818
 2227 0684 9B1A     		subs	r3, r3, r2
 2228              	.LVL159:
 909:HANcoder_E407_TTA_CombineModel.c **** 
 2229              		.loc 1 909 41 view .LVU819
 2230 0686 D14E     		ldr	r6, .L295+20
 900:HANcoder_E407_TTA_CombineModel.c **** 
 2231              		.loc 1 900 35 view .LVU820
 2232 0688 7A68     		ldr	r2, [r7, #4]
 2233 068a C4F8BC20 		str	r2, [r4, #188]
 898:HANcoder_E407_TTA_CombineModel.c ****       rtDWork.Subsystem_PREV_T[0] = Subsystem_ELAPS_T_tmp;
 2234              		.loc 1 898 52 view .LVU821
 2235 068e 0CEE103A 		vmov	s24, r3	@ int
 2236              	.LVL160:
 899:HANcoder_E407_TTA_CombineModel.c ****       rtDWork.Subsystem_PREV_T[1] = rtM->Timing.clockTickH0;
 2237              		.loc 1 899 7 is_stmt 1 view .LVU822
 900:HANcoder_E407_TTA_CombineModel.c **** 
 2238              		.loc 1 900 7 view .LVU823
 903:HANcoder_E407_TTA_CombineModel.c **** 
 2239              		.loc 1 903 7 view .LVU824
 903:HANcoder_E407_TTA_CombineModel.c **** 
 2240              		.loc 1 903 16 is_stmt 0 view .LVU825
 2241 0692 CF4B     		ldr	r3, .L295+24
 2242              	.LVL161:
 903:HANcoder_E407_TTA_CombineModel.c **** 
 2243              		.loc 1 903 16 view .LVU826
 2244 0694 C3E90001 		strd	r0, [r3]
 909:HANcoder_E407_TTA_CombineModel.c **** 
 2245              		.loc 1 909 7 is_stmt 1 view .LVU827
 909:HANcoder_E407_TTA_CombineModel.c **** 
 2246              		.loc 1 909 17 is_stmt 0 view .LVU828
 2247 0698 FFF7FEFF 		bl	tan
 2248              	.LVL162:
 909:HANcoder_E407_TTA_CombineModel.c **** 
 2249              		.loc 1 909 31 view .LVU829
 2250 069c D6E90423 		ldrd	r2, [r6, #16]
 2251 06a0 FFF7FEFF 		bl	__aeabi_dmul
 2252              	.LVL163:
 909:HANcoder_E407_TTA_CombineModel.c **** 
 2253              		.loc 1 909 15 view .LVU830
 2254 06a4 CB4B     		ldr	r3, .L295+28
 2255 06a6 0022     		movs	r2, #0
 2256 06a8 FFF7FEFF 		bl	__aeabi_dmul
 2257              	.LVL164:
 912:HANcoder_E407_TTA_CombineModel.c **** 
 2258              		.loc 1 912 15 view .LVU831
 2259 06ac CA4B     		ldr	r3, .L295+32
 915:HANcoder_E407_TTA_CombineModel.c **** 
 2260              		.loc 1 915 24 view .LVU832
 2261 06ae B4F8C420 		ldrh	r2, [r4, #196]
 915:HANcoder_E407_TTA_CombineModel.c **** 
 2262              		.loc 1 915 15 view .LVU833
 2263 06b2 0692     		str	r2, [sp, #24]
 909:HANcoder_E407_TTA_CombineModel.c **** 
 2264              		.loc 1 909 15 view .LVU834
 2265 06b4 41EC1B0B 		vmov	d11, r0, r1
 2266              	.LVL165:
 912:HANcoder_E407_TTA_CombineModel.c **** 
 2267              		.loc 1 912 7 is_stmt 1 view .LVU835
 912:HANcoder_E407_TTA_CombineModel.c **** 
 2268              		.loc 1 912 24 is_stmt 0 view .LVU836
 2269 06b8 B4F8C600 		ldrh	r0, [r4, #198]
 2270              	.LVL166:
 912:HANcoder_E407_TTA_CombineModel.c **** 
 2271              		.loc 1 912 15 view .LVU837
 2272 06bc 1880     		strh	r0, [r3]	@ movhi
 915:HANcoder_E407_TTA_CombineModel.c **** 
 2273              		.loc 1 915 7 is_stmt 1 view .LVU838
 915:HANcoder_E407_TTA_CombineModel.c **** 
 2274              		.loc 1 915 15 is_stmt 0 view .LVU839
 2275 06be C74B     		ldr	r3, .L295+36
 918:HANcoder_E407_TTA_CombineModel.c **** 
 2276              		.loc 1 918 16 view .LVU840
 2277 06c0 101A     		subs	r0, r2, r0
 915:HANcoder_E407_TTA_CombineModel.c **** 
 2278              		.loc 1 915 15 view .LVU841
 2279 06c2 1A80     		strh	r2, [r3]	@ movhi
 918:HANcoder_E407_TTA_CombineModel.c **** 
 2280              		.loc 1 918 7 is_stmt 1 view .LVU842
 918:HANcoder_E407_TTA_CombineModel.c **** 
 2281              		.loc 1 918 14 is_stmt 0 view .LVU843
 2282 06c4 C64B     		ldr	r3, .L295+40
 918:HANcoder_E407_TTA_CombineModel.c **** 
 2283              		.loc 1 918 16 view .LVU844
 2284 06c6 80B2     		uxth	r0, r0
 918:HANcoder_E407_TTA_CombineModel.c **** 
 2285              		.loc 1 918 14 view .LVU845
 2286 06c8 1880     		strh	r0, [r3]	@ movhi
 924:HANcoder_E407_TTA_CombineModel.c **** 
 2287              		.loc 1 924 7 is_stmt 1 view .LVU846
 924:HANcoder_E407_TTA_CombineModel.c **** 
 2288              		.loc 1 924 21 is_stmt 0 view .LVU847
 2289 06ca FFF7FEFF 		bl	__aeabi_ui2d
 2290              	.LVL167:
 2291 06ce 8046     		mov	r8, r0
 2292 06d0 8946     		mov	r9, r1
 2293 06d2 FFF7FEFF 		bl	sin
 2294              	.LVL168:
 2295 06d6 0246     		mov	r2, r0
 2296 06d8 0B46     		mov	r3, r1
 930:HANcoder_E407_TTA_CombineModel.c **** 
 2297              		.loc 1 930 11 view .LVU848
 2298 06da 4046     		mov	r0, r8
 2299 06dc 4946     		mov	r1, r9
 924:HANcoder_E407_TTA_CombineModel.c **** 
 2300              		.loc 1 924 21 view .LVU849
 2301 06de 43EC1A2B 		vmov	d10, r2, r3
 2302              	.LVL169:
 930:HANcoder_E407_TTA_CombineModel.c **** 
 2303              		.loc 1 930 7 is_stmt 1 view .LVU850
 930:HANcoder_E407_TTA_CombineModel.c **** 
 2304              		.loc 1 930 11 is_stmt 0 view .LVU851
 2305 06e2 FFF7FEFF 		bl	cos
 2306              	.LVL170:
 940:HANcoder_E407_TTA_CombineModel.c **** 
 2307              		.loc 1 940 32 view .LVU852
 2308 06e6 BF4B     		ldr	r3, .L295+44
 930:HANcoder_E407_TTA_CombineModel.c **** 
 2309              		.loc 1 930 11 view .LVU853
 2310 06e8 8046     		mov	r8, r0
 2311 06ea 8946     		mov	r9, r1
 2312              	.LVL171:
 940:HANcoder_E407_TTA_CombineModel.c **** 
 2313              		.loc 1 940 7 is_stmt 1 view .LVU854
 940:HANcoder_E407_TTA_CombineModel.c **** 
 2314              		.loc 1 940 32 is_stmt 0 view .LVU855
 2315 06ec 0022     		movs	r2, #0
 2316 06ee 51EC1B0B 		vmov	r0, r1, d11
 2317 06f2 FFF7FEFF 		bl	__aeabi_dmul
 2318              	.LVL172:
 940:HANcoder_E407_TTA_CombineModel.c **** 
 2319              		.loc 1 940 38 view .LVU856
 2320 06f6 53EC1A2B 		vmov	r2, r3, d10
 2321 06fa FFF7FEFF 		bl	__aeabi_dmul
 2322              	.LVL173:
 940:HANcoder_E407_TTA_CombineModel.c **** 
 2323              		.loc 1 940 56 view .LVU857
 2324 06fe AEA3     		adr	r3, .L295
 2325 0700 D3E90023 		ldrd	r2, [r3]
 940:HANcoder_E407_TTA_CombineModel.c **** 
 2326              		.loc 1 940 38 view .LVU858
 2327 0704 41EC180B 		vmov	d8, r0, r1
 940:HANcoder_E407_TTA_CombineModel.c **** 
 2328              		.loc 1 940 56 view .LVU859
 2329 0708 4046     		mov	r0, r8
 2330 070a 4946     		mov	r1, r9
 2331 070c FFF7FEFF 		bl	__aeabi_dmul
 2332              	.LVL174:
 2333 0710 0246     		mov	r2, r0
 2334 0712 0B46     		mov	r3, r1
 940:HANcoder_E407_TTA_CombineModel.c **** 
 2335              		.loc 1 940 22 view .LVU860
 2336 0714 51EC180B 		vmov	r0, r1, d8
 2337 0718 FFF7FEFF 		bl	__aeabi_dadd
 2338              	.LVL175:
 2339 071c 0246     		mov	r2, r0
 2340 071e 0B46     		mov	r3, r1
 945:HANcoder_E407_TTA_CombineModel.c **** 
 2341              		.loc 1 945 22 view .LVU861
 2342 0720 0698     		ldr	r0, [sp, #24]
 940:HANcoder_E407_TTA_CombineModel.c **** 
 2343              		.loc 1 940 22 view .LVU862
 2344 0722 43EC192B 		vmov	d9, r2, r3
 945:HANcoder_E407_TTA_CombineModel.c **** 
 2345              		.loc 1 945 22 view .LVU863
 2346 0726 FFF7FEFF 		bl	__aeabi_ui2d
 2347              	.LVL176:
 940:HANcoder_E407_TTA_CombineModel.c **** 
 2348              		.loc 1 940 22 view .LVU864
 2349 072a B0EE49DA 		vmov.f32	s26, s18
 2350 072e F0EE69DA 		vmov.f32	s27, s19
 2351              	.LVL177:
 945:HANcoder_E407_TTA_CombineModel.c **** 
 2352              		.loc 1 945 7 is_stmt 1 view .LVU865
 945:HANcoder_E407_TTA_CombineModel.c **** 
 2353              		.loc 1 945 22 is_stmt 0 view .LVU866
 2354 0732 0246     		mov	r2, r0
 2355 0734 0B46     		mov	r3, r1
 945:HANcoder_E407_TTA_CombineModel.c **** 
 2356              		.loc 1 945 20 view .LVU867
 2357 0736 0020     		movs	r0, #0
 2358 0738 0021     		movs	r1, #0
 2359 073a FFF7FEFF 		bl	__aeabi_dsub
 2360              	.LVL178:
 2361 073e 0246     		mov	r2, r0
 2362 0740 0B46     		mov	r3, r1
 2363 0742 43EC182B 		vmov	d8, r2, r3
 945:HANcoder_E407_TTA_CombineModel.c **** 
 2364              		.loc 1 945 14 view .LVU868
 2365 0746 A84B     		ldr	r3, .L295+48
 956:HANcoder_E407_TTA_CombineModel.c ****         (rtConstB.signV2 * rtConstB.signL0b);
 2366              		.loc 1 956 61 view .LVU869
 2367 0748 4046     		mov	r0, r8
 945:HANcoder_E407_TTA_CombineModel.c **** 
 2368              		.loc 1 945 14 view .LVU870
 2369 074a 83ED008B 		vstr.64	d8, [r3]
 956:HANcoder_E407_TTA_CombineModel.c ****         (rtConstB.signV2 * rtConstB.signL0b);
 2370              		.loc 1 956 7 is_stmt 1 view .LVU871
 956:HANcoder_E407_TTA_CombineModel.c ****         (rtConstB.signV2 * rtConstB.signL0b);
 2371              		.loc 1 956 61 is_stmt 0 view .LVU872
 2372 074e 4946     		mov	r1, r9
 2373 0750 A44B     		ldr	r3, .L295+44
 2374 0752 0022     		movs	r2, #0
 2375 0754 FFF7FEFF 		bl	__aeabi_dmul
 2376              	.LVL179:
 956:HANcoder_E407_TTA_CombineModel.c ****         (rtConstB.signV2 * rtConstB.signL0b);
 2377              		.loc 1 956 67 view .LVU873
 2378 0758 53EC1B2B 		vmov	r2, r3, d11
 2379 075c FFF7FEFF 		bl	__aeabi_dmul
 2380              	.LVL180:
 956:HANcoder_E407_TTA_CombineModel.c ****         (rtConstB.signV2 * rtConstB.signL0b);
 2381              		.loc 1 956 28 view .LVU874
 2382 0760 95A3     		adr	r3, .L295
 2383 0762 D3E90023 		ldrd	r2, [r3]
 956:HANcoder_E407_TTA_CombineModel.c ****         (rtConstB.signV2 * rtConstB.signL0b);
 2384              		.loc 1 956 67 view .LVU875
 2385 0766 8046     		mov	r8, r0
 2386              	.LVL181:
 956:HANcoder_E407_TTA_CombineModel.c ****         (rtConstB.signV2 * rtConstB.signL0b);
 2387              		.loc 1 956 67 view .LVU876
 2388 0768 8946     		mov	r9, r1
 956:HANcoder_E407_TTA_CombineModel.c ****         (rtConstB.signV2 * rtConstB.signL0b);
 2389              		.loc 1 956 28 view .LVU877
 2390 076a 51EC1A0B 		vmov	r0, r1, d10
 2391 076e FFF7FEFF 		bl	__aeabi_dmul
 2392              	.LVL182:
 2393 0772 0246     		mov	r2, r0
 2394 0774 0B46     		mov	r3, r1
 956:HANcoder_E407_TTA_CombineModel.c ****         (rtConstB.signV2 * rtConstB.signL0b);
 2395              		.loc 1 956 51 view .LVU878
 2396 0776 4046     		mov	r0, r8
 2397 0778 4946     		mov	r1, r9
 2398 077a FFF7FEFF 		bl	__aeabi_dsub
 2399              	.LVL183:
 957:HANcoder_E407_TTA_CombineModel.c **** 
 2400              		.loc 1 957 26 view .LVU879
 2401 077e D6E90223 		ldrd	r2, [r6, #8]
 956:HANcoder_E407_TTA_CombineModel.c ****         (rtConstB.signV2 * rtConstB.signL0b);
 2402              		.loc 1 956 51 view .LVU880
 2403 0782 8046     		mov	r8, r0
 2404 0784 8946     		mov	r9, r1
 957:HANcoder_E407_TTA_CombineModel.c **** 
 2405              		.loc 1 957 26 view .LVU881
 2406 0786 D6E90001 		ldrd	r0, [r6]
 2407 078a FFF7FEFF 		bl	__aeabi_dmul
 2408              	.LVL184:
 956:HANcoder_E407_TTA_CombineModel.c ****         (rtConstB.signV2 * rtConstB.signL0b);
 2409              		.loc 1 956 15 view .LVU882
 2410 078e 4246     		mov	r2, r8
 2411 0790 4B46     		mov	r3, r9
 2412 0792 FFF7FEFF 		bl	__aeabi_dmul
 2413              	.LVL185:
 2414 0796 8046     		mov	r8, r0
 2415 0798 8946     		mov	r9, r1
 2416              	.LVL186:
 963:HANcoder_E407_TTA_CombineModel.c **** 
 2417              		.loc 1 963 7 is_stmt 1 view .LVU883
 963:HANcoder_E407_TTA_CombineModel.c **** 
 2418              		.loc 1 963 21 is_stmt 0 view .LVU884
 2419 079a 51EC180B 		vmov	r0, r1, d8
 2420 079e FFF7FEFF 		bl	sin
 2421              	.LVL187:
 2422 07a2 0246     		mov	r2, r0
 2423 07a4 0B46     		mov	r3, r1
 969:HANcoder_E407_TTA_CombineModel.c **** 
 2424              		.loc 1 969 11 view .LVU885
 2425 07a6 51EC180B 		vmov	r0, r1, d8
 963:HANcoder_E407_TTA_CombineModel.c **** 
 2426              		.loc 1 963 21 view .LVU886
 2427 07aa 43EC182B 		vmov	d8, r2, r3
 2428              	.LVL188:
 969:HANcoder_E407_TTA_CombineModel.c **** 
 2429              		.loc 1 969 7 is_stmt 1 view .LVU887
 969:HANcoder_E407_TTA_CombineModel.c **** 
 2430              		.loc 1 969 11 is_stmt 0 view .LVU888
 2431 07ae FFF7FEFF 		bl	cos
 2432              	.LVL189:
 972:HANcoder_E407_TTA_CombineModel.c ****         rtb_MovingAverage_0 = -1.0;
 2433              		.loc 1 972 10 view .LVU889
 2434 07b2 0022     		movs	r2, #0
 969:HANcoder_E407_TTA_CombineModel.c **** 
 2435              		.loc 1 969 11 view .LVU890
 2436 07b4 41EC1A0B 		vmov	d10, r0, r1
 2437              	.LVL190:
 972:HANcoder_E407_TTA_CombineModel.c ****         rtb_MovingAverage_0 = -1.0;
 2438              		.loc 1 972 7 is_stmt 1 view .LVU891
 972:HANcoder_E407_TTA_CombineModel.c ****         rtb_MovingAverage_0 = -1.0;
 2439              		.loc 1 972 10 is_stmt 0 view .LVU892
 2440 07b8 0023     		movs	r3, #0
 2441 07ba 51EC190B 		vmov	r0, r1, d9
 2442              	.LVL191:
 972:HANcoder_E407_TTA_CombineModel.c ****         rtb_MovingAverage_0 = -1.0;
 2443              		.loc 1 972 10 view .LVU893
 2444 07be FFF7FEFF 		bl	__aeabi_dcmplt
 2445              	.LVL192:
 2446 07c2 0028     		cmp	r0, #0
 2447 07c4 40F08483 		bne	.L174
 975:HANcoder_E407_TTA_CombineModel.c ****       }
 2448              		.loc 1 975 9 is_stmt 1 view .LVU894
 975:HANcoder_E407_TTA_CombineModel.c ****       }
 2449              		.loc 1 975 29 is_stmt 0 view .LVU895
 2450 07c8 51EC190B 		vmov	r0, r1, d9
 2451 07cc 0022     		movs	r2, #0
 2452 07ce 0023     		movs	r3, #0
 2453 07d0 FFF7FEFF 		bl	__aeabi_dcmpgt
 2454              	.LVL193:
 2455 07d4 0028     		cmp	r0, #0
 2456 07d6 00F0B983 		beq	.L286
 2457 07da 9FED797B 		vldr.64	d7, .L295+8
 2458 07de B0EE47EA 		vmov.f32	s28, s14
 2459 07e2 F0EE67EA 		vmov.f32	s29, s15
 2460              	.L82:
 2461              	.LVL194:
 996:HANcoder_E407_TTA_CombineModel.c ****         (-1.0) + z / 1.0 * 4.0 * rtb_Sum) * (rtb_MovingAverage_0 *
 2462              		.loc 1 996 7 is_stmt 1 view .LVU896
 997:HANcoder_E407_TTA_CombineModel.c ****         rtConstB.signL0b_o) * 3.0 / (rtb_Sum * 4.0 * modValueRev + z *
 2463              		.loc 1 997 26 is_stmt 0 view .LVU897
 2464 07e6 7F4B     		ldr	r3, .L295+44
 2465 07e8 B0EE4ABA 		vmov.f32	s22, s20
 2466 07ec F0EE6ABA 		vmov.f32	s23, s21
 2467 07f0 51EC1A0B 		vmov	r0, r1, d10
 2468 07f4 0022     		movs	r2, #0
 2469 07f6 FFF7FEFF 		bl	__aeabi_dmul
 2470              	.LVL195:
 997:HANcoder_E407_TTA_CombineModel.c ****         rtConstB.signL0b_o) * 3.0 / (rtb_Sum * 4.0 * modValueRev + z *
 2471              		.loc 1 997 32 view .LVU898
 2472 07fa 4246     		mov	r2, r8
 2473 07fc 4B46     		mov	r3, r9
 2474 07fe FFF7FEFF 		bl	__aeabi_dmul
 2475              	.LVL196:
 2476 0802 49EC1A8B 		vmov	d10, r8, r9
 2477              	.LVL197:
 996:HANcoder_E407_TTA_CombineModel.c ****         (-1.0) + z / 1.0 * 4.0 * rtb_Sum) * (rtb_MovingAverage_0 *
 2478              		.loc 1 996 66 view .LVU899
 2479 0806 53EC182B 		vmov	r2, r3, d8
 997:HANcoder_E407_TTA_CombineModel.c ****         rtConstB.signL0b_o) * 3.0 / (rtb_Sum * 4.0 * modValueRev + z *
 2480              		.loc 1 997 32 view .LVU900
 2481 080a 8046     		mov	r8, r0
 2482              	.LVL198:
 997:HANcoder_E407_TTA_CombineModel.c ****         rtConstB.signL0b_o) * 3.0 / (rtb_Sum * 4.0 * modValueRev + z *
 2483              		.loc 1 997 32 view .LVU901
 2484 080c 8946     		mov	r9, r1
 996:HANcoder_E407_TTA_CombineModel.c ****         (-1.0) + z / 1.0 * 4.0 * rtb_Sum) * (rtb_MovingAverage_0 *
 2485              		.loc 1 996 66 view .LVU902
 2486 080e 51EC1D0B 		vmov	r0, r1, d13
 2487 0812 FFF7FEFF 		bl	__aeabi_dmul
 2488              	.LVL199:
 2489 0816 0246     		mov	r2, r0
 2490 0818 0B46     		mov	r3, r1
 997:HANcoder_E407_TTA_CombineModel.c ****         rtConstB.signL0b_o) * 3.0 / (rtb_Sum * 4.0 * modValueRev + z *
 2491              		.loc 1 997 16 view .LVU903
 2492 081a 4046     		mov	r0, r8
 2493 081c 4946     		mov	r1, r9
 2494 081e FFF7FEFF 		bl	__aeabi_dsub
 2495              	.LVL200:
 997:HANcoder_E407_TTA_CombineModel.c ****         rtConstB.signL0b_o) * 3.0 / (rtb_Sum * 4.0 * modValueRev + z *
 2496              		.loc 1 997 66 view .LVU904
 2497 0822 D6E90623 		ldrd	r2, [r6, #24]
 997:HANcoder_E407_TTA_CombineModel.c ****         rtConstB.signL0b_o) * 3.0 / (rtb_Sum * 4.0 * modValueRev + z *
 2498              		.loc 1 997 16 view .LVU905
 2499 0826 8046     		mov	r8, r0
 2500 0828 8946     		mov	r9, r1
 997:HANcoder_E407_TTA_CombineModel.c ****         rtConstB.signL0b_o) * 3.0 / (rtb_Sum * 4.0 * modValueRev + z *
 2501              		.loc 1 997 66 view .LVU906
 2502 082a 51EC1E0B 		vmov	r0, r1, d14
 2503 082e FFF7FEFF 		bl	__aeabi_dmul
 2504              	.LVL201:
 2505 0832 0246     		mov	r2, r0
 2506 0834 0B46     		mov	r3, r1
 997:HANcoder_E407_TTA_CombineModel.c ****         rtConstB.signL0b_o) * 3.0 / (rtb_Sum * 4.0 * modValueRev + z *
 2507              		.loc 1 997 43 view .LVU907
 2508 0836 4046     		mov	r0, r8
 2509 0838 4946     		mov	r1, r9
 2510 083a FFF7FEFF 		bl	__aeabi_dmul
 2511              	.LVL202:
 998:HANcoder_E407_TTA_CombineModel.c ****         rtb_Integrator)));
 2512              		.loc 1 998 29 view .LVU908
 2513 083e 6B4B     		ldr	r3, .L295+52
 2514 0840 0022     		movs	r2, #0
 2515 0842 FFF7FEFF 		bl	__aeabi_dmul
 2516              	.LVL203:
 2517 0846 0246     		mov	r2, r0
 2518 0848 0B46     		mov	r3, r1
 998:HANcoder_E407_TTA_CombineModel.c ****         rtb_Integrator)));
 2519              		.loc 1 998 46 view .LVU909
 2520 084a 51EC1A0B 		vmov	r0, r1, d10
 998:HANcoder_E407_TTA_CombineModel.c ****         rtb_Integrator)));
 2521              		.loc 1 998 29 view .LVU910
 2522 084e 43EC1A2B 		vmov	d10, r2, r3
 2523              	.LVL204:
 998:HANcoder_E407_TTA_CombineModel.c ****         rtb_Integrator)));
 2524              		.loc 1 998 46 view .LVU911
 2525 0852 644B     		ldr	r3, .L295+44
 2526 0854 0022     		movs	r2, #0
 2527 0856 FFF7FEFF 		bl	__aeabi_dmul
 2528              	.LVL205:
 998:HANcoder_E407_TTA_CombineModel.c ****         rtb_Integrator)));
 2529              		.loc 1 998 52 view .LVU912
 2530 085a 53EC182B 		vmov	r2, r3, d8
 2531 085e FFF7FEFF 		bl	__aeabi_dmul
 2532              	.LVL206:
 998:HANcoder_E407_TTA_CombineModel.c ****         rtb_Integrator)));
 2533              		.loc 1 998 70 view .LVU913
 2534 0862 53EC1B2B 		vmov	r2, r3, d11
 998:HANcoder_E407_TTA_CombineModel.c ****         rtb_Integrator)));
 2535              		.loc 1 998 52 view .LVU914
 2536 0866 8046     		mov	r8, r0
 2537 0868 8946     		mov	r9, r1
 998:HANcoder_E407_TTA_CombineModel.c ****         rtb_Integrator)));
 2538              		.loc 1 998 70 view .LVU915
 2539 086a 51EC1D0B 		vmov	r0, r1, d13
 2540 086e FFF7FEFF 		bl	__aeabi_dmul
 2541              	.LVL207:
 2542 0872 0246     		mov	r2, r0
 2543 0874 0B46     		mov	r3, r1
 998:HANcoder_E407_TTA_CombineModel.c ****         rtb_Integrator)));
 2544              		.loc 1 998 66 view .LVU916
 2545 0876 4046     		mov	r0, r8
 2546 0878 4946     		mov	r1, r9
 2547 087a FFF7FEFF 		bl	__aeabi_dadd
 2548              	.LVL208:
 2549 087e 0246     		mov	r2, r0
 2550 0880 0B46     		mov	r3, r1
 998:HANcoder_E407_TTA_CombineModel.c ****         rtb_Integrator)));
 2551              		.loc 1 998 35 view .LVU917
 2552 0882 51EC1A0B 		vmov	r0, r1, d10
 2553 0886 FFF7FEFF 		bl	__aeabi_ddiv
 2554              	.LVL209:
 996:HANcoder_E407_TTA_CombineModel.c ****         (-1.0) + z / 1.0 * 4.0 * rtb_Sum) * (rtb_MovingAverage_0 *
 2555              		.loc 1 996 33 view .LVU918
 2556 088a FFF7FEFF 		bl	__aeabi_d2f
 2557              	.LVL210:
 996:HANcoder_E407_TTA_CombineModel.c ****         (-1.0) + z / 1.0 * 4.0 * rtb_Sum) * (rtb_MovingAverage_0 *
 2558              		.loc 1 996 28 view .LVU919
 2559 088e FFF7FEFF 		bl	__aeabi_f2d
 2560              	.LVL211:
 2561 0892 FFF7FEFF 		bl	atan
 2562              	.LVL212:
 996:HANcoder_E407_TTA_CombineModel.c ****         (-1.0) + z / 1.0 * 4.0 * rtb_Sum) * (rtb_MovingAverage_0 *
 2563              		.loc 1 996 18 view .LVU920
 2564 0896 FFF7FEFF 		bl	__aeabi_d2f
 2565              	.LVL213:
1004:HANcoder_E407_TTA_CombineModel.c **** 
 2566              		.loc 1 1004 23 view .LVU921
 2567 089a 9FED557A 		vldr.32	s14, .L295+56
 996:HANcoder_E407_TTA_CombineModel.c ****         (-1.0) + z / 1.0 * 4.0 * rtb_Sum) * (rtb_MovingAverage_0 *
 2568              		.loc 1 996 16 view .LVU922
 2569 089e 554B     		ldr	r3, .L295+60
 996:HANcoder_E407_TTA_CombineModel.c ****         (-1.0) + z / 1.0 * 4.0 * rtb_Sum) * (rtb_MovingAverage_0 *
 2570              		.loc 1 996 18 view .LVU923
 2571 08a0 07EE900A 		vmov	s15, r0
1004:HANcoder_E407_TTA_CombineModel.c **** 
 2572              		.loc 1 1004 23 view .LVU924
 2573 08a4 67EE877A 		vmul.f32	s15, s15, s14
 996:HANcoder_E407_TTA_CombineModel.c ****         (-1.0) + z / 1.0 * 4.0 * rtb_Sum) * (rtb_MovingAverage_0 *
 2574              		.loc 1 996 16 view .LVU925
 2575 08a8 1860     		str	r0, [r3]	@ float
1004:HANcoder_E407_TTA_CombineModel.c **** 
 2576              		.loc 1 1004 7 is_stmt 1 view .LVU926
1004:HANcoder_E407_TTA_CombineModel.c **** 
 2577              		.loc 1 1004 23 is_stmt 0 view .LVU927
 2578 08aa 17EE900A 		vmov	r0, s15
 2579 08ae FFF7FEFF 		bl	__aeabi_f2d
 2580              	.LVL214:
 2581 08b2 514B     		ldr	r3, .L295+64
 2582 08b4 C3E90001 		strd	r0, [r3]
1008:HANcoder_E407_TTA_CombineModel.c ****         QuadEncResetCounter(QUADENC_TIM3_PA6_PB5);
 2583              		.loc 1 1008 7 is_stmt 1 view .LVU928
1008:HANcoder_E407_TTA_CombineModel.c ****         QuadEncResetCounter(QUADENC_TIM3_PA6_PB5);
 2584              		.loc 1 1008 10 is_stmt 0 view .LVU929
 2585 08b8 9AF80A30 		ldrb	r3, [r10, #10]	@ zero_extendqisi2
 2586 08bc 002B     		cmp	r3, #0
 2587 08be 40F03D83 		bne	.L287
 2588              	.L83:
1013:HANcoder_E407_TTA_CombineModel.c **** 
 2589              		.loc 1 1013 7 is_stmt 1 view .LVU930
1013:HANcoder_E407_TTA_CombineModel.c **** 
 2590              		.loc 1 1013 36 is_stmt 0 view .LVU931
 2591 08c2 0120     		movs	r0, #1
 2592 08c4 FFF7FEFF 		bl	QuadEncGetCounter
 2593              	.LVL215:
1018:HANcoder_E407_TTA_CombineModel.c ****         rtDWork.obj.TunablePropsChanged = false;
 2594              		.loc 1 1018 10 view .LVU932
 2595 08c8 637A     		ldrb	r3, [r4, #9]	@ zero_extendqisi2
1013:HANcoder_E407_TTA_CombineModel.c **** 
 2596              		.loc 1 1013 36 view .LVU933
 2597 08ca 8046     		mov	r8, r0
 2598              	.LVL216:
1018:HANcoder_E407_TTA_CombineModel.c ****         rtDWork.obj.TunablePropsChanged = false;
 2599              		.loc 1 1018 7 is_stmt 1 view .LVU934
1018:HANcoder_E407_TTA_CombineModel.c ****         rtDWork.obj.TunablePropsChanged = false;
 2600              		.loc 1 1018 10 is_stmt 0 view .LVU935
 2601 08cc 0BB1     		cbz	r3, .L84
1019:HANcoder_E407_TTA_CombineModel.c ****       }
 2602              		.loc 1 1019 9 is_stmt 1 view .LVU936
1019:HANcoder_E407_TTA_CombineModel.c ****       }
 2603              		.loc 1 1019 41 is_stmt 0 view .LVU937
 2604 08ce 0023     		movs	r3, #0
 2605 08d0 6372     		strb	r3, [r4, #9]
 2606              	.L84:
1022:HANcoder_E407_TTA_CombineModel.c ****       if (obj->isInitialized != 1) {
 2607              		.loc 1 1022 7 is_stmt 1 view .LVU938
1022:HANcoder_E407_TTA_CombineModel.c ****       if (obj->isInitialized != 1) {
 2608              		.loc 1 1022 11 is_stmt 0 view .LVU939
 2609 08d2 E66A     		ldr	r6, [r4, #44]
 2610              	.LVL217:
1023:HANcoder_E407_TTA_CombineModel.c ****         obj->isSetupComplete = false;
 2611              		.loc 1 1023 7 is_stmt 1 view .LVU940
1023:HANcoder_E407_TTA_CombineModel.c ****         obj->isSetupComplete = false;
 2612              		.loc 1 1023 10 is_stmt 0 view .LVU941
 2613 08d4 3368     		ldr	r3, [r6]
 2614 08d6 012B     		cmp	r3, #1
 2615 08d8 00F0AF82 		beq	.L288
1024:HANcoder_E407_TTA_CombineModel.c ****         obj->isInitialized = 1;
 2616              		.loc 1 1024 9 is_stmt 1 view .LVU942
1025:HANcoder_E407_TTA_CombineModel.c ****         obj->pCumSum = 0.0;
 2617              		.loc 1 1025 9 view .LVU943
1025:HANcoder_E407_TTA_CombineModel.c ****         obj->pCumSum = 0.0;
 2618              		.loc 1 1025 28 is_stmt 0 view .LVU944
 2619 08dc 0123     		movs	r3, #1
1043:HANcoder_E407_TTA_CombineModel.c ****       csumrev[1] = obj->pCumSumRev[1];
 2620              		.loc 1 1043 18 view .LVU945
 2621 08de 4FF00009 		mov	r9, #0
1049:HANcoder_E407_TTA_CombineModel.c ****       if (modValueRev == 0.0) {
 2622              		.loc 1 1049 18 view .LVU946
 2623 08e2 4046     		mov	r0, r8
 2624              	.LVL218:
1025:HANcoder_E407_TTA_CombineModel.c ****         obj->pCumSum = 0.0;
 2625              		.loc 1 1025 28 view .LVU947
 2626 08e4 3360     		str	r3, [r6]
1026:HANcoder_E407_TTA_CombineModel.c ****         obj->pCumSumRev[0] = 0.0;
 2627              		.loc 1 1026 9 is_stmt 1 view .LVU948
1027:HANcoder_E407_TTA_CombineModel.c ****         obj->pCumSumRev[1] = 0.0;
 2628              		.loc 1 1027 9 view .LVU949
1028:HANcoder_E407_TTA_CombineModel.c ****         obj->pCumSumRev[2] = 0.0;
 2629              		.loc 1 1028 9 view .LVU950
1029:HANcoder_E407_TTA_CombineModel.c ****         obj->pCumRevIndex = 1.0;
 2630              		.loc 1 1029 9 view .LVU951
1030:HANcoder_E407_TTA_CombineModel.c ****         obj->pModValueRev = 0.0;
 2631              		.loc 1 1030 9 view .LVU952
1031:HANcoder_E407_TTA_CombineModel.c ****         obj->isSetupComplete = true;
 2632              		.loc 1 1031 9 view .LVU953
1032:HANcoder_E407_TTA_CombineModel.c ****         obj->pCumSum = 0.0;
 2633              		.loc 1 1032 9 view .LVU954
1043:HANcoder_E407_TTA_CombineModel.c ****       csumrev[1] = obj->pCumSumRev[1];
 2634              		.loc 1 1043 18 is_stmt 0 view .LVU955
 2635 08e6 4FF00008 		mov	r8, #0
 2636              	.LVL219:
1032:HANcoder_E407_TTA_CombineModel.c ****         obj->pCumSum = 0.0;
 2637              		.loc 1 1032 30 view .LVU956
 2638 08ea 3371     		strb	r3, [r6, #4]
1033:HANcoder_E407_TTA_CombineModel.c ****         obj->pCumSumRev[0] = 0.0;
 2639              		.loc 1 1033 9 is_stmt 1 view .LVU957
1034:HANcoder_E407_TTA_CombineModel.c ****         obj->pCumSumRev[1] = 0.0;
 2640              		.loc 1 1034 9 view .LVU958
1035:HANcoder_E407_TTA_CombineModel.c ****         obj->pCumSumRev[2] = 0.0;
 2641              		.loc 1 1035 9 view .LVU959
1036:HANcoder_E407_TTA_CombineModel.c ****         obj->pCumRevIndex = 1.0;
 2642              		.loc 1 1036 9 view .LVU960
1037:HANcoder_E407_TTA_CombineModel.c ****         obj->pModValueRev = 0.0;
 2643              		.loc 1 1037 9 view .LVU961
1038:HANcoder_E407_TTA_CombineModel.c ****       }
 2644              		.loc 1 1038 9 view .LVU962
1041:HANcoder_E407_TTA_CombineModel.c ****       rtb_Sum = obj->pCumSum;
 2645              		.loc 1 1041 7 view .LVU963
 2646              	.LVL220:
1042:HANcoder_E407_TTA_CombineModel.c ****       csumrev[0] = obj->pCumSumRev[0];
 2647              		.loc 1 1042 7 view .LVU964
1043:HANcoder_E407_TTA_CombineModel.c ****       csumrev[1] = obj->pCumSumRev[1];
 2648              		.loc 1 1043 7 view .LVU965
1049:HANcoder_E407_TTA_CombineModel.c ****       if (modValueRev == 0.0) {
 2649              		.loc 1 1049 15 is_stmt 0 view .LVU966
 2650 08ec 0023     		movs	r3, #0
 2651 08ee 0A93     		str	r3, [sp, #40]
1043:HANcoder_E407_TTA_CombineModel.c ****       csumrev[1] = obj->pCumSumRev[1];
 2652              		.loc 1 1043 18 view .LVU967
 2653 08f0 CDE91289 		strd	r8, [sp, #72]
1044:HANcoder_E407_TTA_CombineModel.c ****       csumrev[2] = obj->pCumSumRev[2];
 2654              		.loc 1 1044 7 is_stmt 1 view .LVU968
1044:HANcoder_E407_TTA_CombineModel.c ****       csumrev[2] = obj->pCumSumRev[2];
 2655              		.loc 1 1044 18 is_stmt 0 view .LVU969
 2656 08f4 CDE91489 		strd	r8, [sp, #80]
1045:HANcoder_E407_TTA_CombineModel.c ****       modValueRev = obj->pModValueRev;
 2657              		.loc 1 1045 7 is_stmt 1 view .LVU970
1045:HANcoder_E407_TTA_CombineModel.c ****       modValueRev = obj->pModValueRev;
 2658              		.loc 1 1045 18 is_stmt 0 view .LVU971
 2659 08f8 CDE91689 		strd	r8, [sp, #88]
1046:HANcoder_E407_TTA_CombineModel.c ****       z = 0.0;
 2660              		.loc 1 1046 7 is_stmt 1 view .LVU972
 2661              	.LVL221:
1047:HANcoder_E407_TTA_CombineModel.c ****       rtb_MovingAverage_0 = 0.0;
 2662              		.loc 1 1047 7 view .LVU973
1048:HANcoder_E407_TTA_CombineModel.c ****       rtb_Sum += (real_T)rtb_Level2MfileSFunction_k;
 2663              		.loc 1 1048 7 view .LVU974
1049:HANcoder_E407_TTA_CombineModel.c ****       if (modValueRev == 0.0) {
 2664              		.loc 1 1049 7 view .LVU975
1049:HANcoder_E407_TTA_CombineModel.c ****       if (modValueRev == 0.0) {
 2665              		.loc 1 1049 18 is_stmt 0 view .LVU976
 2666 08fc FFF7FEFF 		bl	__aeabi_i2d
 2667              	.LVL222:
1049:HANcoder_E407_TTA_CombineModel.c ****       if (modValueRev == 0.0) {
 2668              		.loc 1 1049 18 view .LVU977
 2669 0900 0246     		mov	r2, r0
 2670 0902 0B46     		mov	r3, r1
 2671 0904 CDE90823 		strd	r2, [sp, #32]
1049:HANcoder_E407_TTA_CombineModel.c ****       if (modValueRev == 0.0) {
 2672              		.loc 1 1049 15 view .LVU978
 2673 0908 4246     		mov	r2, r8
 2674 090a 4B46     		mov	r3, r9
 2675 090c FFF7FEFF 		bl	__aeabi_dadd
 2676              	.LVL223:
 2677 0910 9FED2B7B 		vldr.64	d7, .L295+8
 2678 0914 CDE90601 		strd	r0, [sp, #24]
 2679              	.LVL224:
1050:HANcoder_E407_TTA_CombineModel.c ****         z = csumrev[(int32_T)rtb_Integrator - 1] + rtb_Sum;
 2680              		.loc 1 1050 7 is_stmt 1 view .LVU979
1049:HANcoder_E407_TTA_CombineModel.c ****       if (modValueRev == 0.0) {
 2681              		.loc 1 1049 15 is_stmt 0 view .LVU980
 2682 0918 B0EE47AA 		vmov.f32	s20, s14
 2683 091c F0EE67AA 		vmov.f32	s21, s15
 2684 0920 49EC188B 		vmov	d8, r8, r9
 2685              	.LVL225:
 2686              	.L86:
1051:HANcoder_E407_TTA_CombineModel.c ****       }
 2687              		.loc 1 1051 9 is_stmt 1 view .LVU981
1051:HANcoder_E407_TTA_CombineModel.c ****       }
 2688              		.loc 1 1051 20 is_stmt 0 view .LVU982
 2689 0924 0A9A     		ldr	r2, [sp, #40]
 2690 0926 18AB     		add	r3, sp, #96
 2691 0928 03EBC203 		add	r3, r3, r2, lsl #3
1051:HANcoder_E407_TTA_CombineModel.c ****       }
 2692              		.loc 1 1051 11 view .LVU983
 2693 092c DDE90601 		ldrd	r0, [sp, #24]
1051:HANcoder_E407_TTA_CombineModel.c ****       }
 2694              		.loc 1 1051 20 view .LVU984
 2695 0930 4FEAC208 		lsl	r8, r2, #3
1051:HANcoder_E407_TTA_CombineModel.c ****       }
 2696              		.loc 1 1051 11 view .LVU985
 2697 0934 53E90623 		ldrd	r2, [r3, #-24]
 2698 0938 FFF7FEFF 		bl	__aeabi_dadd
 2699              	.LVL226:
1051:HANcoder_E407_TTA_CombineModel.c ****       }
 2700              		.loc 1 1051 11 view .LVU986
 2701 093c CDE91001 		strd	r0, [sp, #64]
 2702              	.LVL227:
 2703              	.L87:
1054:HANcoder_E407_TTA_CombineModel.c ****       if (rtb_Integrator != 3.0) {
 2704              		.loc 1 1054 7 is_stmt 1 view .LVU987
1054:HANcoder_E407_TTA_CombineModel.c ****       if (rtb_Integrator != 3.0) {
 2705              		.loc 1 1054 44 is_stmt 0 view .LVU988
 2706 0940 9DED087B 		vldr.64	d7, [sp, #32]
 2707 0944 08F16003 		add	r3, r8, #96
 2708 0948 0DEB0308 		add	r8, sp, r3
 2709 094c 08ED067B 		vstr.64	d7, [r8, #-24]
1055:HANcoder_E407_TTA_CombineModel.c ****         rtb_Integrator++;
 2710              		.loc 1 1055 7 is_stmt 1 view .LVU989
1055:HANcoder_E407_TTA_CombineModel.c ****         rtb_Integrator++;
 2711              		.loc 1 1055 10 is_stmt 0 view .LVU990
 2712 0950 59EC1A8B 		vmov	r8, r9, d10
 2713 0954 254B     		ldr	r3, .L295+52
 2714 0956 1AEE100A 		vmov	r0, s20	@ int
 2715 095a 0022     		movs	r2, #0
 2716 095c 4946     		mov	r1, r9
 2717 095e FFF7FEFF 		bl	__aeabi_dcmpeq
 2718              	.LVL228:
 2719 0962 0028     		cmp	r0, #0
 2720 0964 40F04C82 		bne	.L253
1056:HANcoder_E407_TTA_CombineModel.c ****       } else {
 2721              		.loc 1 1056 9 is_stmt 1 view .LVU991
1056:HANcoder_E407_TTA_CombineModel.c ****       } else {
 2722              		.loc 1 1056 23 is_stmt 0 view .LVU992
 2723 0968 1AEE100A 		vmov	r0, s20	@ int
 2724 096c 234B     		ldr	r3, .L295+68
 2725 096e 4946     		mov	r1, r9
 2726 0970 0022     		movs	r2, #0
 2727 0972 FFF7FEFF 		bl	__aeabi_dadd
 2728              	.LVL229:
1060:HANcoder_E407_TTA_CombineModel.c ****         csumrev[0] += csumrev[1];
 2729              		.loc 1 1060 30 view .LVU993
 2730 0976 9DED167B 		vldr.64	d7, [sp, #88]
 2731 097a 8DED087B 		vstr.64	d7, [sp, #32]
1069:HANcoder_E407_TTA_CombineModel.c ****       obj->pCumSumRev[1] = csumrev[1];
 2732              		.loc 1 1069 35 view .LVU994
 2733 097e 9DED127B 		vldr.64	d7, [sp, #72]
 2734 0982 8DED0C7B 		vstr.64	d7, [sp, #48]
1070:HANcoder_E407_TTA_CombineModel.c ****       obj->pCumSumRev[2] = csumrev[2];
 2735              		.loc 1 1070 35 view .LVU995
 2736 0986 9DED147B 		vldr.64	d7, [sp, #80]
1056:HANcoder_E407_TTA_CombineModel.c ****       } else {
 2737              		.loc 1 1056 23 view .LVU996
 2738 098a CDE90A01 		strd	r0, [sp, #40]
 2739              	.LVL230:
1070:HANcoder_E407_TTA_CombineModel.c ****       obj->pCumSumRev[2] = csumrev[2];
 2740              		.loc 1 1070 35 view .LVU997
 2741 098e 8DED0E7B 		vstr.64	d7, [sp, #56]
 2742              	.LVL231:
 2743              	.L90:
1064:HANcoder_E407_TTA_CombineModel.c ****         rtb_MovingAverage_0 = z / 4.0;
 2744              		.loc 1 1064 7 is_stmt 1 view .LVU998
1064:HANcoder_E407_TTA_CombineModel.c ****         rtb_MovingAverage_0 = z / 4.0;
 2745              		.loc 1 1064 10 is_stmt 0 view .LVU999
 2746 0992 51EC180B 		vmov	r0, r1, d8
 2747 0996 0022     		movs	r2, #0
 2748 0998 0023     		movs	r3, #0
 2749 099a FFF7FEFF 		bl	__aeabi_dcmpeq
 2750              	.LVL232:
 2751 099e 0028     		cmp	r0, #0
 2752 09a0 00F0DE81 		beq	.L254
1065:HANcoder_E407_TTA_CombineModel.c ****       }
 2753              		.loc 1 1065 9 is_stmt 1 view .LVU1000
 2754              	.LVL233:
1065:HANcoder_E407_TTA_CombineModel.c ****       }
 2755              		.loc 1 1065 29 is_stmt 0 view .LVU1001
 2756 09a4 DDE91001 		ldrd	r0, [sp, #64]
 2757 09a8 0A4B     		ldr	r3, .L295+28
 2758 09aa 0022     		movs	r2, #0
 2759 09ac FFF7FEFF 		bl	__aeabi_dmul
 2760              	.LVL234:
 2761 09b0 26E0     		b	.L296
 2762              	.L297:
 2763 09b2 00BFAFF3 		.align	3
 2763      0080
 2764              	.L295:
 2765 09b8 000000C0 		.word	-1073741824
 2766 09bc CCCCF43F 		.word	1073007820
 2767 09c0 00000000 		.word	0
 2768 09c4 0000F03F 		.word	1072693248
 2769 09c8 00000000 		.word	.LANCHOR20
 2770 09cc 00000000 		.word	rtConstB
 2771 09d0 00000000 		.word	.LANCHOR21
 2772 09d4 0000D03F 		.word	1070596096
 2773 09d8 00000000 		.word	.LANCHOR22
 2774 09dc 00000000 		.word	.LANCHOR23
 2775 09e0 00000000 		.word	.LANCHOR24
 2776 09e4 00001040 		.word	1074790400
 2777 09e8 00000000 		.word	.LANCHOR25
 2778 09ec 00000840 		.word	1074266112
 2779 09f0 66663642 		.word	1110861414
 2780 09f4 00000000 		.word	.LANCHOR26
 2781 09f8 00000000 		.word	.LANCHOR27
 2782 09fc 0000F03F 		.word	1072693248
 2783              	.L296:
1082:HANcoder_E407_TTA_CombineModel.c **** 
 2784              		.loc 1 1082 39 view .LVU1002
 2785 0a00 F7A3     		adr	r3, .L298+112
 2786 0a02 D3E90023 		ldrd	r2, [r3]
 2787 0a06 FFF7FEFF 		bl	__aeabi_dmul
 2788              	.LVL235:
 2789 0a0a 0246     		mov	r2, r0
 2790 0a0c 0B46     		mov	r3, r1
 2791 0a0e CDE91023 		strd	r2, [sp, #64]
 2792              	.LVL236:
1088:HANcoder_E407_TTA_CombineModel.c **** 
 2793              		.loc 1 1088 35 view .LVU1003
 2794 0a12 FFF7FEFF 		bl	floor
 2795              	.LVL237:
 2796 0a16 8046     		mov	r8, r0
 2797 0a18 8946     		mov	r9, r1
 2798              	.L91:
1068:HANcoder_E407_TTA_CombineModel.c ****       obj->pCumSumRev[0] = csumrev[0];
 2799              		.loc 1 1068 7 is_stmt 1 view .LVU1004
1068:HANcoder_E407_TTA_CombineModel.c ****       obj->pCumSumRev[0] = csumrev[0];
 2800              		.loc 1 1068 20 is_stmt 0 view .LVU1005
 2801 0a1a 9DED067B 		vldr.64	d7, [sp, #24]
 2802 0a1e 86ED027B 		vstr.64	d7, [r6, #8]
1069:HANcoder_E407_TTA_CombineModel.c ****       obj->pCumSumRev[1] = csumrev[1];
 2803              		.loc 1 1069 7 is_stmt 1 view .LVU1006
1069:HANcoder_E407_TTA_CombineModel.c ****       obj->pCumSumRev[1] = csumrev[1];
 2804              		.loc 1 1069 26 is_stmt 0 view .LVU1007
 2805 0a22 9DED0C7B 		vldr.64	d7, [sp, #48]
 2806 0a26 86ED047B 		vstr.64	d7, [r6, #16]
1070:HANcoder_E407_TTA_CombineModel.c ****       obj->pCumSumRev[2] = csumrev[2];
 2807              		.loc 1 1070 7 is_stmt 1 view .LVU1008
1070:HANcoder_E407_TTA_CombineModel.c ****       obj->pCumSumRev[2] = csumrev[2];
 2808              		.loc 1 1070 26 is_stmt 0 view .LVU1009
 2809 0a2a 9DED0E7B 		vldr.64	d7, [sp, #56]
 2810 0a2e 86ED067B 		vstr.64	d7, [r6, #24]
1071:HANcoder_E407_TTA_CombineModel.c ****       obj->pCumRevIndex = rtb_Integrator;
 2811              		.loc 1 1071 7 is_stmt 1 view .LVU1010
1071:HANcoder_E407_TTA_CombineModel.c ****       obj->pCumRevIndex = rtb_Integrator;
 2812              		.loc 1 1071 26 is_stmt 0 view .LVU1011
 2813 0a32 9DED087B 		vldr.64	d7, [sp, #32]
 2814 0a36 86ED087B 		vstr.64	d7, [r6, #32]
1072:HANcoder_E407_TTA_CombineModel.c ****       if (modValueRev > 0.0) {
 2815              		.loc 1 1072 7 is_stmt 1 view .LVU1012
1072:HANcoder_E407_TTA_CombineModel.c ****       if (modValueRev > 0.0) {
 2816              		.loc 1 1072 25 is_stmt 0 view .LVU1013
 2817 0a3a 9DED0A7B 		vldr.64	d7, [sp, #40]
1073:HANcoder_E407_TTA_CombineModel.c ****         obj->pModValueRev = modValueRev - 1.0;
 2818              		.loc 1 1073 10 view .LVU1014
 2819 0a3e 51EC180B 		vmov	r0, r1, d8
1072:HANcoder_E407_TTA_CombineModel.c ****       if (modValueRev > 0.0) {
 2820              		.loc 1 1072 25 view .LVU1015
 2821 0a42 86ED0A7B 		vstr.64	d7, [r6, #40]
1073:HANcoder_E407_TTA_CombineModel.c ****         obj->pModValueRev = modValueRev - 1.0;
 2822              		.loc 1 1073 7 is_stmt 1 view .LVU1016
1073:HANcoder_E407_TTA_CombineModel.c ****         obj->pModValueRev = modValueRev - 1.0;
 2823              		.loc 1 1073 10 is_stmt 0 view .LVU1017
 2824 0a46 0022     		movs	r2, #0
 2825 0a48 0023     		movs	r3, #0
 2826 0a4a FFF7FEFF 		bl	__aeabi_dcmpgt
 2827              	.LVL238:
 2828 0a4e 0028     		cmp	r0, #0
 2829 0a50 00F03582 		beq	.L255
1074:HANcoder_E407_TTA_CombineModel.c ****       } else {
 2830              		.loc 1 1074 9 is_stmt 1 view .LVU1018
1074:HANcoder_E407_TTA_CombineModel.c ****       } else {
 2831              		.loc 1 1074 41 is_stmt 0 view .LVU1019
 2832 0a54 51EC180B 		vmov	r0, r1, d8
 2833 0a58 C94B     		ldr	r3, .L298+16
 2834 0a5a 0022     		movs	r2, #0
 2835 0a5c FFF7FEFF 		bl	__aeabi_dsub
 2836              	.LVL239:
 2837              	.L93:
1082:HANcoder_E407_TTA_CombineModel.c **** 
 2838              		.loc 1 1082 16 view .LVU1020
 2839 0a60 9DED107B 		vldr.64	d7, [sp, #64]
 2840 0a64 C74B     		ldr	r3, .L298+20
 2841 0a66 83ED007B 		vstr.64	d7, [r3]
1088:HANcoder_E407_TTA_CombineModel.c **** 
 2842              		.loc 1 1088 17 view .LVU1021
 2843 0a6a C74B     		ldr	r3, .L298+24
 2844 0a6c C6E90C01 		strd	r0, [r6, #48]
1082:HANcoder_E407_TTA_CombineModel.c **** 
 2845              		.loc 1 1082 7 is_stmt 1 view .LVU1022
1088:HANcoder_E407_TTA_CombineModel.c **** 
 2846              		.loc 1 1088 7 view .LVU1023
1088:HANcoder_E407_TTA_CombineModel.c **** 
 2847              		.loc 1 1088 17 is_stmt 0 view .LVU1024
 2848 0a70 D3E90001 		ldrd	r0, [r3]
 2849 0a74 FFF7FEFF 		bl	floor
 2850              	.LVL240:
1088:HANcoder_E407_TTA_CombineModel.c **** 
 2851              		.loc 1 1088 33 view .LVU1025
 2852 0a78 4246     		mov	r2, r8
 2853 0a7a 4B46     		mov	r3, r9
 2854 0a7c FFF7FEFF 		bl	__aeabi_dsub
 2855              	.LVL241:
1101:HANcoder_E407_TTA_CombineModel.c **** 
 2856              		.loc 1 1101 16 view .LVU1026
 2857 0a80 94ED1C7B 		vldr.64	d7, [r4, #112]
1088:HANcoder_E407_TTA_CombineModel.c **** 
 2858              		.loc 1 1088 15 view .LVU1027
 2859 0a84 C14A     		ldr	r2, .L298+28
1100:HANcoder_E407_TTA_CombineModel.c ****         rtDWork.Integrator_DSTATE) + ((uint16_T)300U));
 2860              		.loc 1 1100 57 view .LVU1028
 2861 0a86 C24B     		ldr	r3, .L298+32
1101:HANcoder_E407_TTA_CombineModel.c **** 
 2862              		.loc 1 1101 16 view .LVU1029
 2863 0a88 B0EE478A 		vmov.f32	s16, s14
 2864 0a8c F0EE678A 		vmov.f32	s17, s15
1091:HANcoder_E407_TTA_CombineModel.c **** 
 2865              		.loc 1 1091 15 view .LVU1030
 2866 0a90 21F00049 		bic	r9, r1, #-2147483648
1088:HANcoder_E407_TTA_CombineModel.c **** 
 2867              		.loc 1 1088 15 view .LVU1031
 2868 0a94 C2E90001 		strd	r0, [r2]
1091:HANcoder_E407_TTA_CombineModel.c **** 
 2869              		.loc 1 1091 7 is_stmt 1 view .LVU1032
1088:HANcoder_E407_TTA_CombineModel.c **** 
 2870              		.loc 1 1088 33 is_stmt 0 view .LVU1033
 2871 0a98 CDE90601 		strd	r0, [sp, #24]
 2872              	.LVL242:
1100:HANcoder_E407_TTA_CombineModel.c ****         rtDWork.Integrator_DSTATE) + ((uint16_T)300U));
 2873              		.loc 1 1100 57 view .LVU1034
 2874 0a9c D3E90023 		ldrd	r2, [r3]
 2875 0aa0 4946     		mov	r1, r9
1091:HANcoder_E407_TTA_CombineModel.c **** 
 2876              		.loc 1 1091 15 view .LVU1035
 2877 0aa2 8046     		mov	r8, r0
 2878              	.LVL243:
1100:HANcoder_E407_TTA_CombineModel.c ****         rtDWork.Integrator_DSTATE) + ((uint16_T)300U));
 2879              		.loc 1 1100 7 is_stmt 1 view .LVU1036
1100:HANcoder_E407_TTA_CombineModel.c ****         rtDWork.Integrator_DSTATE) + ((uint16_T)300U));
 2880              		.loc 1 1100 57 is_stmt 0 view .LVU1037
 2881 0aa4 FFF7FEFF 		bl	__aeabi_dmul
 2882              	.LVL244:
1100:HANcoder_E407_TTA_CombineModel.c ****         rtDWork.Integrator_DSTATE) + ((uint16_T)300U));
 2883              		.loc 1 1100 67 view .LVU1038
 2884 0aa8 53EC182B 		vmov	r2, r3, d8
 2885 0aac FFF7FEFF 		bl	__aeabi_dadd
 2886              	.LVL245:
1100:HANcoder_E407_TTA_CombineModel.c ****         rtDWork.Integrator_DSTATE) + ((uint16_T)300U));
 2887              		.loc 1 1100 38 view .LVU1039
 2888 0ab0 FFF7FEFF 		bl	__aeabi_d2uiz
 2889              	.LVL246:
1100:HANcoder_E407_TTA_CombineModel.c ****         rtDWork.Integrator_DSTATE) + ((uint16_T)300U));
 2890              		.loc 1 1100 15 view .LVU1040
 2891 0ab4 B74A     		ldr	r2, .L298+36
1100:HANcoder_E407_TTA_CombineModel.c ****         rtDWork.Integrator_DSTATE) + ((uint16_T)300U));
 2892              		.loc 1 1100 17 view .LVU1041
 2893 0ab6 00F59670 		add	r0, r0, #300
 2894 0aba 83B2     		uxth	r3, r0
1100:HANcoder_E407_TTA_CombineModel.c ****         rtDWork.Integrator_DSTATE) + ((uint16_T)300U));
 2895              		.loc 1 1100 15 view .LVU1042
 2896 0abc 1380     		strh	r3, [r2]	@ movhi
1104:HANcoder_E407_TTA_CombineModel.c **** 
 2897              		.loc 1 1104 7 is_stmt 1 view .LVU1043
1110:HANcoder_E407_TTA_CombineModel.c **** 
 2898              		.loc 1 1110 7 view .LVU1044
1110:HANcoder_E407_TTA_CombineModel.c **** 
 2899              		.loc 1 1110 21 is_stmt 0 view .LVU1045
 2900 0abe DDE90601 		ldrd	r0, [sp, #24]
1104:HANcoder_E407_TTA_CombineModel.c **** 
 2901              		.loc 1 1104 24 view .LVU1046
 2902 0ac2 A4F8C230 		strh	r3, [r4, #194]	@ movhi
1110:HANcoder_E407_TTA_CombineModel.c **** 
 2903              		.loc 1 1110 21 view .LVU1047
 2904 0ac6 0022     		movs	r2, #0
 2905 0ac8 0023     		movs	r3, #0
 2906 0aca FFF7FEFF 		bl	__aeabi_dcmpgt
 2907              	.LVL247:
1110:HANcoder_E407_TTA_CombineModel.c **** 
 2908              		.loc 1 1110 10 view .LVU1048
 2909 0ace B24B     		ldr	r3, .L298+40
1110:HANcoder_E407_TTA_CombineModel.c **** 
 2910              		.loc 1 1110 21 view .LVU1049
 2911 0ad0 0038     		subs	r0, r0, #0
 2912 0ad2 18BF     		it	ne
 2913 0ad4 0120     		movne	r0, #1
1110:HANcoder_E407_TTA_CombineModel.c **** 
 2914              		.loc 1 1110 10 view .LVU1050
 2915 0ad6 1870     		strb	r0, [r3]
1113:HANcoder_E407_TTA_CombineModel.c **** 
 2916              		.loc 1 1113 7 is_stmt 1 view .LVU1051
1116:HANcoder_E407_TTA_CombineModel.c **** 
 2917              		.loc 1 1116 7 view .LVU1052
1116:HANcoder_E407_TTA_CombineModel.c **** 
 2918              		.loc 1 1116 11 is_stmt 0 view .LVU1053
 2919 0ad8 B04B     		ldr	r3, .L298+44
1113:HANcoder_E407_TTA_CombineModel.c **** 
 2920              		.loc 1 1113 23 view .LVU1054
 2921 0ada 84F8CF00 		strb	r0, [r4, #207]
 2922 0ade 80F00100 		eor	r0, r0, #1
1116:HANcoder_E407_TTA_CombineModel.c **** 
 2923              		.loc 1 1116 11 view .LVU1055
 2924 0ae2 1870     		strb	r0, [r3]
1119:HANcoder_E407_TTA_CombineModel.c **** 
 2925              		.loc 1 1119 7 is_stmt 1 view .LVU1056
1129:HANcoder_E407_TTA_CombineModel.c **** 
 2926              		.loc 1 1129 7 view .LVU1057
1119:HANcoder_E407_TTA_CombineModel.c **** 
 2927              		.loc 1 1119 24 is_stmt 0 view .LVU1058
 2928 0ae4 84F8D000 		strb	r0, [r4, #208]
1129:HANcoder_E407_TTA_CombineModel.c **** 
 2929              		.loc 1 1129 60 view .LVU1059
 2930 0ae8 0022     		movs	r2, #0
 2931 0aea D4E91E01 		ldrd	r0, [r4, #120]
 2932 0aee 0023     		movs	r3, #0
 2933 0af0 FFF7FEFF 		bl	__aeabi_dcmplt
 2934              	.LVL248:
1135:HANcoder_E407_TTA_CombineModel.c **** 
 2935              		.loc 1 1135 17 view .LVU1060
 2936 0af4 AA4B     		ldr	r3, .L298+48
1129:HANcoder_E407_TTA_CombineModel.c **** 
 2937              		.loc 1 1129 60 view .LVU1061
 2938 0af6 0038     		subs	r0, r0, #0
 2939 0af8 18BF     		it	ne
 2940 0afa 0120     		movne	r0, #1
1135:HANcoder_E407_TTA_CombineModel.c **** 
 2941              		.loc 1 1135 17 view .LVU1062
 2942 0afc D3E90023 		ldrd	r2, [r3]
1129:HANcoder_E407_TTA_CombineModel.c **** 
 2943              		.loc 1 1129 30 view .LVU1063
 2944 0b00 8AF80A00 		strb	r0, [r10, #10]
1134:HANcoder_E407_TTA_CombineModel.c ****         (intVal * rtb_Sum);
 2945              		.loc 1 1134 7 is_stmt 1 view .LVU1064
1135:HANcoder_E407_TTA_CombineModel.c **** 
 2946              		.loc 1 1135 17 is_stmt 0 view .LVU1065
 2947 0b04 4946     		mov	r1, r9
 2948 0b06 4046     		mov	r0, r8
 2949 0b08 FFF7FEFF 		bl	__aeabi_dmul
 2950              	.LVL249:
 2951 0b0c 8046     		mov	r8, r0
 2952              	.LVL250:
1134:HANcoder_E407_TTA_CombineModel.c ****         (intVal * rtb_Sum);
 2953              		.loc 1 1134 44 view .LVU1066
 2954 0b0e 1CEE100A 		vmov	r0, s24	@ int
1135:HANcoder_E407_TTA_CombineModel.c **** 
 2955              		.loc 1 1135 17 view .LVU1067
 2956 0b12 8946     		mov	r9, r1
1134:HANcoder_E407_TTA_CombineModel.c ****         (intVal * rtb_Sum);
 2957              		.loc 1 1134 44 view .LVU1068
 2958 0b14 FFF7FEFF 		bl	__aeabi_ui2d
 2959              	.LVL251:
1134:HANcoder_E407_TTA_CombineModel.c ****         (intVal * rtb_Sum);
 2960              		.loc 1 1134 42 view .LVU1069
 2961 0b18 95A3     		adr	r3, .L298
 2962 0b1a D3E90023 		ldrd	r2, [r3]
 2963 0b1e FFF7FEFF 		bl	__aeabi_dmul
 2964              	.LVL252:
 2965 0b22 0246     		mov	r2, r0
 2966 0b24 0B46     		mov	r3, r1
1134:HANcoder_E407_TTA_CombineModel.c ****         (intVal * rtb_Sum);
 2967              		.loc 1 1134 73 view .LVU1070
 2968 0b26 4046     		mov	r0, r8
 2969 0b28 4946     		mov	r1, r9
 2970 0b2a FFF7FEFF 		bl	__aeabi_dmul
 2971              	.LVL253:
1134:HANcoder_E407_TTA_CombineModel.c ****         (intVal * rtb_Sum);
 2972              		.loc 1 1134 33 view .LVU1071
 2973 0b2e 53EC182B 		vmov	r2, r3, d8
 2974 0b32 FFF7FEFF 		bl	__aeabi_dadd
 2975              	.LVL254:
1153:HANcoder_E407_TTA_CombineModel.c **** 
 2976              		.loc 1 1153 33 view .LVU1072
 2977 0b36 9BF80030 		ldrb	r3, [fp]	@ zero_extendqisi2
 2978 0b3a 07EE903A 		vmov	s15, r3	@ int
1143:HANcoder_E407_TTA_CombineModel.c ****     }
 2979              		.loc 1 1143 34 view .LVU1073
 2980 0b3e 0022     		movs	r2, #0
 2981 0b40 0023     		movs	r3, #0
1134:HANcoder_E407_TTA_CombineModel.c ****         (intVal * rtb_Sum);
 2982              		.loc 1 1134 33 view .LVU1074
 2983 0b42 C4E91C01 		strd	r0, [r4, #112]
1143:HANcoder_E407_TTA_CombineModel.c ****     }
 2984              		.loc 1 1143 7 is_stmt 1 view .LVU1075
1143:HANcoder_E407_TTA_CombineModel.c ****     }
 2985              		.loc 1 1143 34 is_stmt 0 view .LVU1076
 2986 0b46 C4E91E23 		strd	r2, [r4, #120]
1153:HANcoder_E407_TTA_CombineModel.c **** 
 2987              		.loc 1 1153 33 view .LVU1077
 2988 0b4a F8EEE77A 		vcvt.f32.s32	s15, s15
 2989 0b4e FFF700BB 		b	.L81
 2990              	.LVL255:
 2991              	.L67:
 657:HANcoder_E407_TTA_CombineModel.c **** 
 2992              		.loc 1 657 5 is_stmt 1 view .LVU1078
 2993 0b52 944B     		ldr	r3, .L298+52
 2994 0b54 944A     		ldr	r2, .L298+56
 2995 0b56 1968     		ldr	r1, [r3]
 2996 0b58 944B     		ldr	r3, .L298+60
 2997 0b5a 0020     		movs	r0, #0
 2998 0b5c FFF7FEFF 		bl	MMBS1_RX
 2999              	.LVL256:
 662:HANcoder_E407_TTA_CombineModel.c **** 
 3000              		.loc 1 662 5 view .LVU1079
 666:HANcoder_E407_TTA_CombineModel.c **** 
 3001              		.loc 1 666 5 view .LVU1080
 3002              	.LBB168:
 412:HANcoder_E407_TTA_CombineModel.c **** {
 3003              		.loc 1 412 6 view .LVU1081
 3004              	.LBB118:
 417:HANcoder_E407_TTA_CombineModel.c ****     /* Update for M-S-Function: '<S40>/S-Function' */
 3005              		.loc 1 417 3 view .LVU1082
 3006              	.LBE118:
 3007              	.LBE168:
 662:HANcoder_E407_TTA_CombineModel.c **** 
 3008              		.loc 1 662 14 is_stmt 0 view .LVU1083
 3009 0b60 0023     		movs	r3, #0
 3010 0b62 FFF7C5BA 		b	.L152
 3011              	.LVL257:
 3012              	.L164:
 741:HANcoder_E407_TTA_CombineModel.c ****     }
 3013              		.loc 1 741 7 is_stmt 1 view .LVU1084
 741:HANcoder_E407_TTA_CombineModel.c ****     }
 3014              		.loc 1 741 29 is_stmt 0 view .LVU1085
 3015 0b66 0022     		movs	r2, #0
 3016 0b68 84F8D620 		strb	r2, [r4, #214]
 747:HANcoder_E407_TTA_CombineModel.c **** 
 3017              		.loc 1 747 5 is_stmt 1 view .LVU1086
 3018 0b6c FFF7CDBA 		b	.L163
 3019              	.LVL258:
 3020              	.L111:
1298:HANcoder_E407_TTA_CombineModel.c ****       rtDWork.TRLS_ID4_RX_MODE = true;
 3021              		.loc 1 1298 5 view .LVU1087
1299:HANcoder_E407_TTA_CombineModel.c **** 
 3022              		.loc 1 1299 7 view .LVU1088
1306:HANcoder_E407_TTA_CombineModel.c ****         &canRxData_0_TRLS1_ID4.uint8_T_info[0], NULL);
 3023              		.loc 1 1306 28 is_stmt 0 view .LVU1089
 3024 0b70 8F4B     		ldr	r3, .L298+64
 3025 0b72 904E     		ldr	r6, .L298+68
 3026 0b74 1968     		ldr	r1, [r3]
 3027 0b76 0022     		movs	r2, #0
1299:HANcoder_E407_TTA_CombineModel.c **** 
 3028              		.loc 1 1299 32 view .LVU1090
 3029 0b78 0123     		movs	r3, #1
 3030 0b7a 84F8D430 		strb	r3, [r4, #212]
1306:HANcoder_E407_TTA_CombineModel.c ****         &canRxData_0_TRLS1_ID4.uint8_T_info[0], NULL);
 3031              		.loc 1 1306 7 is_stmt 1 view .LVU1091
1306:HANcoder_E407_TTA_CombineModel.c ****         &canRxData_0_TRLS1_ID4.uint8_T_info[0], NULL);
 3032              		.loc 1 1306 28 is_stmt 0 view .LVU1092
 3033 0b7e 0092     		str	r2, [sp]
 3034 0b80 3346     		mov	r3, r6
 3035 0b82 1046     		mov	r0, r2
 3036 0b84 FFF7FEFF 		bl	CanIoGetMessage
 3037              	.LVL259:
1310:HANcoder_E407_TTA_CombineModel.c ****         /* read the data */
 3038              		.loc 1 1310 7 is_stmt 1 view .LVU1093
1310:HANcoder_E407_TTA_CombineModel.c ****         /* read the data */
 3039              		.loc 1 1310 10 is_stmt 0 view .LVU1094
 3040 0b88 0028     		cmp	r0, #0
 3041 0b8a 40F39381 		ble	.L289
1312:HANcoder_E407_TTA_CombineModel.c ****         rtb_SFunction_o3_p = canRxData_0_TRLS1_ID4.uint8_T_info[1];
 3042              		.loc 1 1312 9 is_stmt 1 view .LVU1095
1312:HANcoder_E407_TTA_CombineModel.c ****         rtb_SFunction_o3_p = canRxData_0_TRLS1_ID4.uint8_T_info[1];
 3043              		.loc 1 1312 28 is_stmt 0 view .LVU1096
 3044 0b8e 3278     		ldrb	r2, [r6]	@ zero_extendqisi2
 3045              	.LVL260:
1313:HANcoder_E407_TTA_CombineModel.c ****         rtb_SFunction_o4_c = canRxData_0_TRLS1_ID4.uint8_T_info[2];
 3046              		.loc 1 1313 9 is_stmt 1 view .LVU1097
1313:HANcoder_E407_TTA_CombineModel.c ****         rtb_SFunction_o4_c = canRxData_0_TRLS1_ID4.uint8_T_info[2];
 3047              		.loc 1 1313 28 is_stmt 0 view .LVU1098
 3048 0b90 7178     		ldrb	r1, [r6, #1]	@ zero_extendqisi2
 3049              	.LVL261:
1314:HANcoder_E407_TTA_CombineModel.c ****         rtb_SFunction_o5_c = canRxData_0_TRLS1_ID4.uint8_T_info[3];
 3050              		.loc 1 1314 9 is_stmt 1 view .LVU1099
1315:HANcoder_E407_TTA_CombineModel.c ****         rtb_SFunction_o6_e = canRxData_0_TRLS1_ID4.uint8_T_info[4];
 3051              		.loc 1 1315 9 view .LVU1100
1316:HANcoder_E407_TTA_CombineModel.c ****         rtb_SFunction_o7_l = canRxData_0_TRLS1_ID4.uint8_T_info[5];
 3052              		.loc 1 1316 9 view .LVU1101
1317:HANcoder_E407_TTA_CombineModel.c ****         rtb_SFunction_o8_f = canRxData_0_TRLS1_ID4.uint8_T_info[6];
 3053              		.loc 1 1317 9 view .LVU1102
1318:HANcoder_E407_TTA_CombineModel.c ****         rtb_SFunction_o9_h = canRxData_0_TRLS1_ID4.uint8_T_info[7];
 3054              		.loc 1 1318 9 view .LVU1103
1319:HANcoder_E407_TTA_CombineModel.c ****       }
 3055              		.loc 1 1319 9 view .LVU1104
1323:HANcoder_E407_TTA_CombineModel.c ****                        rtb_SFunction_o3_p, rtb_SFunction_o4_c,
 3056              		.loc 1 1323 7 view .LVU1105
 3057              	.LBB169:
 3058              	.LBI169:
 273:HANcoder_E407_TTA_CombineModel.c ****                       uint8_T rtu_In3, uint8_T rtu_In4, uint8_T rtu_In5, uint8_T
 3059              		.loc 1 273 6 view .LVU1106
 3060              	.LBB170:
 278:HANcoder_E407_TTA_CombineModel.c ****   uint8_T rtb_In4;
 3061              		.loc 1 278 3 view .LVU1107
 279:HANcoder_E407_TTA_CombineModel.c ****   uint8_T rtb_In5;
 3062              		.loc 1 279 3 view .LVU1108
 280:HANcoder_E407_TTA_CombineModel.c ****   uint8_T rtb_In6;
 3063              		.loc 1 280 3 view .LVU1109
 281:HANcoder_E407_TTA_CombineModel.c ****   uint8_T rtb_In7;
 3064              		.loc 1 281 3 view .LVU1110
 282:HANcoder_E407_TTA_CombineModel.c ****   uint8_T rtb_In8;
 3065              		.loc 1 282 3 view .LVU1111
 283:HANcoder_E407_TTA_CombineModel.c **** 
 3066              		.loc 1 283 3 view .LVU1112
 288:HANcoder_E407_TTA_CombineModel.c ****     /* SignalConversion generated from: '<S39>/In1' */
 3067              		.loc 1 288 3 view .LVU1113
 290:HANcoder_E407_TTA_CombineModel.c **** 
 3068              		.loc 1 290 5 view .LVU1114
 290:HANcoder_E407_TTA_CombineModel.c **** 
 3069              		.loc 1 290 17 is_stmt 0 view .LVU1115
 3070 0b92 8AF81820 		strb	r2, [r10, #24]
 293:HANcoder_E407_TTA_CombineModel.c **** 
 3071              		.loc 1 293 5 is_stmt 1 view .LVU1116
 293:HANcoder_E407_TTA_CombineModel.c **** 
 3072              		.loc 1 293 17 is_stmt 0 view .LVU1117
 3073 0b96 8AF81910 		strb	r1, [r10, #25]
 296:HANcoder_E407_TTA_CombineModel.c **** 
 3074              		.loc 1 296 5 is_stmt 1 view .LVU1118
 299:HANcoder_E407_TTA_CombineModel.c **** 
 3075              		.loc 1 299 5 view .LVU1119
 302:HANcoder_E407_TTA_CombineModel.c **** 
 3076              		.loc 1 302 5 view .LVU1120
 305:HANcoder_E407_TTA_CombineModel.c **** 
 3077              		.loc 1 305 5 view .LVU1121
 308:HANcoder_E407_TTA_CombineModel.c **** 
 3078              		.loc 1 308 5 view .LVU1122
 311:HANcoder_E407_TTA_CombineModel.c ****   }
 3079              		.loc 1 311 5 view .LVU1123
 3080              	.LVL262:
 3081              	.L143:
 311:HANcoder_E407_TTA_CombineModel.c ****   }
 3082              		.loc 1 311 5 is_stmt 0 view .LVU1124
 3083              	.LBE170:
 3084              	.LBE169:
1332:HANcoder_E407_TTA_CombineModel.c **** 
 3085              		.loc 1 1332 7 is_stmt 1 view .LVU1125
1335:HANcoder_E407_TTA_CombineModel.c **** 
 3086              		.loc 1 1335 7 view .LVU1126
 3087              	.LBB171:
 3088              	.LBI171:
 438:HANcoder_E407_TTA_CombineModel.c **** {
 3089              		.loc 1 438 6 view .LVU1127
 3090              	.LBB172:
 443:HANcoder_E407_TTA_CombineModel.c **** }
 3091              		.loc 1 443 3 view .LVU1128
 443:HANcoder_E407_TTA_CombineModel.c **** }
 3092              		.loc 1 443 15 is_stmt 0 view .LVU1129
 3093 0b9a 1302     		lsls	r3, r2, #8
 3094              	.LBE172:
 3095              	.LBE171:
1343:HANcoder_E407_TTA_CombineModel.c ****         rtB.EnabledSubsystem_g.In2);
 3096              		.loc 1 1343 33 view .LVU1130
 3097 0b9c 1944     		add	r1, r1, r3
1392:HANcoder_E407_TTA_CombineModel.c **** 
 3098              		.loc 1 1392 33 view .LVU1131
 3099 0b9e 9BF80020 		ldrb	r2, [fp]	@ zero_extendqisi2
 3100              	.LVL263:
 3101              	.LBB174:
 3102              	.LBB173:
 443:HANcoder_E407_TTA_CombineModel.c **** }
 3103              		.loc 1 443 13 view .LVU1132
 3104 0ba2 AAF81A30 		strh	r3, [r10, #26]	@ movhi
 3105              	.LVL264:
 443:HANcoder_E407_TTA_CombineModel.c **** }
 3106              		.loc 1 443 13 view .LVU1133
 3107              	.LBE173:
 3108              	.LBE174:
1343:HANcoder_E407_TTA_CombineModel.c ****         rtB.EnabledSubsystem_g.In2);
 3109              		.loc 1 1343 7 is_stmt 1 view .LVU1134
1398:HANcoder_E407_TTA_CombineModel.c **** 
 3110              		.loc 1 1398 27 is_stmt 0 view .LVU1135
 3111 0ba6 94F8CB30 		ldrb	r3, [r4, #203]	@ zero_extendqisi2
1343:HANcoder_E407_TTA_CombineModel.c ****         rtB.EnabledSubsystem_g.In2);
 3112              		.loc 1 1343 31 view .LVU1136
 3113 0baa A4F8C410 		strh	r1, [r4, #196]	@ movhi
1352:HANcoder_E407_TTA_CombineModel.c **** 
 3114              		.loc 1 1352 5 is_stmt 1 view .LVU1137
1392:HANcoder_E407_TTA_CombineModel.c **** 
 3115              		.loc 1 1392 33 is_stmt 0 view .LVU1138
 3116 0bae 07EE902A 		vmov	s15, r2	@ int
1398:HANcoder_E407_TTA_CombineModel.c **** 
 3117              		.loc 1 1398 37 view .LVU1139
 3118 0bb2 07EE103A 		vmov	s14, r3	@ int
1392:HANcoder_E407_TTA_CombineModel.c **** 
 3119              		.loc 1 1392 33 view .LVU1140
 3120 0bb6 F8EEE77A 		vcvt.f32.s32	s15, s15
1398:HANcoder_E407_TTA_CombineModel.c **** 
 3121              		.loc 1 1398 37 view .LVU1141
 3122 0bba B8EEC77A 		vcvt.f32.s32	s14, s14
 3123 0bbe FFF741BB 		b	.L113
 3124              	.LVL265:
 3125              	.L282:
1562:HANcoder_E407_TTA_CombineModel.c ****     }
 3126              		.loc 1 1562 7 is_stmt 1 view .LVU1142
1562:HANcoder_E407_TTA_CombineModel.c ****     }
 3127              		.loc 1 1562 32 is_stmt 0 view .LVU1143
 3128 0bc2 0022     		movs	r2, #0
 3129 0bc4 84F8D320 		strb	r2, [r4, #211]
 3130 0bc8 4AE4     		b	.L126
 3131              	.LVL266:
 3132              	.L274:
1195:HANcoder_E407_TTA_CombineModel.c **** 
 3133              		.loc 1 1195 15 view .LVU1144
 3134 0bca 0023     		movs	r3, #0
 3135 0bcc FFF702BB 		b	.L102
 3136              	.LVL267:
 3137              	.L278:
1408:HANcoder_E407_TTA_CombineModel.c ****       rtDWork.TRLS_ID5_RX_MODE = true;
 3138              		.loc 1 1408 5 is_stmt 1 view .LVU1145
1455:HANcoder_E407_TTA_CombineModel.c ****       rtDWork.TRLS_ID5_RX_MODE = false;
 3139              		.loc 1 1455 12 view .LVU1146
1455:HANcoder_E407_TTA_CombineModel.c ****       rtDWork.TRLS_ID5_RX_MODE = false;
 3140              		.loc 1 1455 15 is_stmt 0 view .LVU1147
 3141 0bd0 94F8D320 		ldrb	r2, [r4, #211]	@ zero_extendqisi2
 3142 0bd4 002A     		cmp	r2, #0
 3143 0bd6 40F0B581 		bne	.L290
 3144              	.L156:
 3145              	.LVL268:
1467:HANcoder_E407_TTA_CombineModel.c ****       /* Outputs for Atomic SubSystem: '<S141>/Bit Shift' */
 3146              		.loc 1 1467 5 is_stmt 1 view .LVU1148
1467:HANcoder_E407_TTA_CombineModel.c ****       /* Outputs for Atomic SubSystem: '<S141>/Bit Shift' */
 3147              		.loc 1 1467 41 is_stmt 0 view .LVU1149
 3148 0bda AA78     		ldrb	r2, [r5, #2]	@ zero_extendqisi2
1467:HANcoder_E407_TTA_CombineModel.c ****       /* Outputs for Atomic SubSystem: '<S141>/Bit Shift' */
 3149              		.loc 1 1467 21 view .LVU1150
 3150 0bdc 012A     		cmp	r2, #1
 3151 0bde 3FF461AB 		beq	.L137
1470:HANcoder_E407_TTA_CombineModel.c **** 
 3152              		.loc 1 1470 7 is_stmt 1 view .LVU1151
 3153              	.LBB175:
 3154              	.LBB176:
 456:HANcoder_E407_TTA_CombineModel.c **** }
 3155              		.loc 1 456 15 is_stmt 0 view .LVU1152
 3156 0be2 B4F8C630 		ldrh	r3, [r4, #198]
 3157 0be6 B4F8C620 		ldrh	r2, [r4, #198]
 3158 0bea 1B0A     		lsrs	r3, r3, #8
 456:HANcoder_E407_TTA_CombineModel.c **** }
 3159              		.loc 1 456 13 view .LVU1153
 3160 0bec AAF81030 		strh	r3, [r10, #16]	@ movhi
 3161              	.LBE176:
 3162              	.LBE175:
1487:HANcoder_E407_TTA_CombineModel.c ****         canTxData.uint8_T_info[1] = rtB.Cast1;
 3163              		.loc 1 1487 35 view .LVU1154
 3164 0bf0 714B     		ldr	r3, .L298+72
 3165 0bf2 52BA     		rev16	r2, r2
 3166              	.LVL269:
 3167              	.LBB178:
 3168              	.LBI175:
 451:HANcoder_E407_TTA_CombineModel.c **** {
 3169              		.loc 1 451 6 is_stmt 1 view .LVU1155
 3170              	.LBB177:
 456:HANcoder_E407_TTA_CombineModel.c **** }
 3171              		.loc 1 456 3 view .LVU1156
 456:HANcoder_E407_TTA_CombineModel.c **** }
 3172              		.loc 1 456 3 is_stmt 0 view .LVU1157
 3173              	.LBE177:
 3174              	.LBE178:
1475:HANcoder_E407_TTA_CombineModel.c **** 
 3175              		.loc 1 1475 7 is_stmt 1 view .LVU1158
1480:HANcoder_E407_TTA_CombineModel.c **** 
 3176              		.loc 1 1480 7 view .LVU1159
1487:HANcoder_E407_TTA_CombineModel.c ****         canTxData.uint8_T_info[1] = rtB.Cast1;
 3177              		.loc 1 1487 9 view .LVU1160
1488:HANcoder_E407_TTA_CombineModel.c **** 
 3178              		.loc 1 1488 9 view .LVU1161
1487:HANcoder_E407_TTA_CombineModel.c ****         canTxData.uint8_T_info[1] = rtB.Cast1;
 3179              		.loc 1 1487 35 is_stmt 0 view .LVU1162
 3180 0bf4 1A80     		strh	r2, [r3]	@ movhi
1491:HANcoder_E407_TTA_CombineModel.c ****       }
 3181              		.loc 1 1491 9 is_stmt 1 view .LVU1163
1475:HANcoder_E407_TTA_CombineModel.c **** 
 3182              		.loc 1 1475 16 is_stmt 0 view .LVU1164
 3183 0bf6 AAF80420 		strh	r2, [r10, #4]	@ movhi
1491:HANcoder_E407_TTA_CombineModel.c ****       }
 3184              		.loc 1 1491 9 view .LVU1165
 3185 0bfa 704A     		ldr	r2, .L298+76
 3186 0bfc 0020     		movs	r0, #0
 3187 0bfe 1168     		ldr	r1, [r2]
 3188 0c00 0222     		movs	r2, #2
 3189 0c02 FFF7FEFF 		bl	CanTransmit
 3190              	.LVL270:
1462:HANcoder_E407_TTA_CombineModel.c **** 
 3191              		.loc 1 1462 17 view .LVU1166
 3192 0c06 0122     		movs	r2, #1
 3193              	.LVL271:
1495:HANcoder_E407_TTA_CombineModel.c **** 
 3194              		.loc 1 1495 5 is_stmt 1 view .LVU1167
1600:HANcoder_E407_TTA_CombineModel.c ****     rtDWork.Subsystem2_MODE = true;
 3195              		.loc 1 1600 15 is_stmt 0 view .LVU1168
 3196 0c08 94F8CB30 		ldrb	r3, [r4, #203]	@ zero_extendqisi2
1495:HANcoder_E407_TTA_CombineModel.c **** 
 3197              		.loc 1 1495 43 view .LVU1169
 3198 0c0c AA70     		strb	r2, [r5, #2]
 3199 0c0e 2CE4     		b	.L118
 3200              	.LVL272:
 3201              	.L275:
 3202              	.LBB179:
 3203              	.LBB130:
 421:HANcoder_E407_TTA_CombineModel.c **** 
 3204              		.loc 1 421 7 is_stmt 1 view .LVU1170
 421:HANcoder_E407_TTA_CombineModel.c **** 
 3205              		.loc 1 421 33 is_stmt 0 view .LVU1171
 3206 0c10 694B     		ldr	r3, .L298+72
 3207              	.LBE130:
 3208              	.LBE179:
1199:HANcoder_E407_TTA_CombineModel.c **** 
 3209              		.loc 1 1199 5 view .LVU1172
 3210 0c12 6B4A     		ldr	r2, .L298+80
 3211              	.LBB180:
 3212              	.LBB131:
 421:HANcoder_E407_TTA_CombineModel.c **** 
 3213              		.loc 1 421 33 view .LVU1173
 3214 0c14 0020     		movs	r0, #0
 424:HANcoder_E407_TTA_CombineModel.c ****     }
 3215              		.loc 1 424 7 view .LVU1174
 3216 0c16 1168     		ldr	r1, [r2]
 421:HANcoder_E407_TTA_CombineModel.c **** 
 3217              		.loc 1 421 33 view .LVU1175
 3218 0c18 1870     		strb	r0, [r3]
 424:HANcoder_E407_TTA_CombineModel.c ****     }
 3219              		.loc 1 424 7 is_stmt 1 view .LVU1176
 3220 0c1a 0122     		movs	r2, #1
 3221 0c1c FFF7FEFF 		bl	CanTransmit
 3222              	.LVL273:
 424:HANcoder_E407_TTA_CombineModel.c ****     }
 3223              		.loc 1 424 7 is_stmt 0 view .LVU1177
 3224              	.LBE131:
 3225              	.LBE180:
1206:HANcoder_E407_TTA_CombineModel.c **** 
 3226              		.loc 1 1206 33 view .LVU1178
 3227 0c20 9BF80030 		ldrb	r3, [fp]	@ zero_extendqisi2
 3228 0c24 07EE103A 		vmov	s14, r3	@ int
1212:HANcoder_E407_TTA_CombineModel.c **** 
 3229              		.loc 1 1212 27 view .LVU1179
 3230 0c28 94F8CB30 		ldrb	r3, [r4, #203]	@ zero_extendqisi2
 3231 0c2c 07EE903A 		vmov	s15, r3	@ int
1206:HANcoder_E407_TTA_CombineModel.c **** 
 3232              		.loc 1 1206 33 view .LVU1180
 3233 0c30 B8EEC77A 		vcvt.f32.s32	s14, s14
1212:HANcoder_E407_TTA_CombineModel.c **** 
 3234              		.loc 1 1212 37 view .LVU1181
 3235 0c34 F8EEE77A 		vcvt.f32.s32	s15, s15
1195:HANcoder_E407_TTA_CombineModel.c **** 
 3236              		.loc 1 1195 15 view .LVU1182
 3237 0c38 0123     		movs	r3, #1
 3238 0c3a 71E4     		b	.L100
 3239              	.LVL274:
 3240              	.L272:
 809:HANcoder_E407_TTA_CombineModel.c **** 
 3241              		.loc 1 809 7 is_stmt 1 view .LVU1183
 809:HANcoder_E407_TTA_CombineModel.c **** 
 3242              		.loc 1 809 53 is_stmt 0 view .LVU1184
 3243 0c3c 614B     		ldr	r3, .L298+84
 3244 0c3e D3E90001 		ldrd	r0, [r3]
 3245 0c42 4DA3     		adr	r3, .L298+8
 3246 0c44 D3E90023 		ldrd	r2, [r3]
 3247 0c48 FFF7FEFF 		bl	__aeabi_dmul
 3248              	.LVL275:
 809:HANcoder_E407_TTA_CombineModel.c **** 
 3249              		.loc 1 809 30 view .LVU1185
 3250 0c4c C4E92C01 		strd	r0, [r4, #176]
 813:HANcoder_E407_TTA_CombineModel.c **** 
 3251              		.loc 1 813 7 is_stmt 1 view .LVU1186
 813:HANcoder_E407_TTA_CombineModel.c **** 
 3252              		.loc 1 813 20 is_stmt 0 view .LVU1187
 3253 0c50 0021     		movs	r1, #0
 3254 0c52 0520     		movs	r0, #5
 3255 0c54 FFF7FEFF 		bl	AninGet
 3256              	.LVL276:
 813:HANcoder_E407_TTA_CombineModel.c **** 
 3257              		.loc 1 813 18 view .LVU1188
 3258 0c58 5B4B     		ldr	r3, .L298+88
 3259 0c5a 1880     		strh	r0, [r3]	@ movhi
 822:HANcoder_E407_TTA_CombineModel.c ****         /* Gain: '<S50>/Gain2' incorporates:
 3260              		.loc 1 822 7 is_stmt 1 view .LVU1189
 822:HANcoder_E407_TTA_CombineModel.c ****         /* Gain: '<S50>/Gain2' incorporates:
 3261              		.loc 1 822 10 is_stmt 0 view .LVU1190
 3262 0c5c 94F8CB30 		ldrb	r3, [r4, #203]	@ zero_extendqisi2
 3263 0c60 052B     		cmp	r3, #5
 3264 0c62 06D1     		bne	.L76
 826:HANcoder_E407_TTA_CombineModel.c ****           analogPot2) >> 22);
 3265              		.loc 1 826 9 is_stmt 1 view .LVU1191
 826:HANcoder_E407_TTA_CombineModel.c ****           analogPot2) >> 22);
 3266              		.loc 1 826 76 is_stmt 0 view .LVU1192
 3267 0c64 4FF2C953 		movw	r3, #62921
 3268 0c68 03FB00F0 		mul	r0, r3, r0
 827:HANcoder_E407_TTA_CombineModel.c ****       }
 3269              		.loc 1 827 23 view .LVU1193
 3270 0c6c 800D     		lsrs	r0, r0, #22
 826:HANcoder_E407_TTA_CombineModel.c ****           analogPot2) >> 22);
 3271              		.loc 1 826 35 view .LVU1194
 3272 0c6e A4F8C600 		strh	r0, [r4, #198]	@ movhi
 3273              	.L76:
 835:HANcoder_E407_TTA_CombineModel.c **** 
 3274              		.loc 1 835 7 is_stmt 1 view .LVU1195
 835:HANcoder_E407_TTA_CombineModel.c **** 
 3275              		.loc 1 835 20 is_stmt 0 view .LVU1196
 3276 0c72 0021     		movs	r1, #0
 3277 0c74 0420     		movs	r0, #4
 3278 0c76 FFF7FEFF 		bl	AninGet
 3279              	.LVL277:
 835:HANcoder_E407_TTA_CombineModel.c **** 
 3280              		.loc 1 835 18 view .LVU1197
 3281 0c7a 544B     		ldr	r3, .L298+92
 3282 0c7c 1880     		strh	r0, [r3]	@ movhi
 844:HANcoder_E407_TTA_CombineModel.c ****         /* Gain: '<S51>/Gain2' incorporates:
 3283              		.loc 1 844 7 is_stmt 1 view .LVU1198
 844:HANcoder_E407_TTA_CombineModel.c ****         /* Gain: '<S51>/Gain2' incorporates:
 3284              		.loc 1 844 10 is_stmt 0 view .LVU1199
 3285 0c7e 94F8CB30 		ldrb	r3, [r4, #203]	@ zero_extendqisi2
 3286 0c82 042B     		cmp	r3, #4
 3287 0c84 06D1     		bne	.L77
 848:HANcoder_E407_TTA_CombineModel.c ****           analogPot1) >> 22);
 3288              		.loc 1 848 9 is_stmt 1 view .LVU1200
 848:HANcoder_E407_TTA_CombineModel.c ****           analogPot1) >> 22);
 3289              		.loc 1 848 76 is_stmt 0 view .LVU1201
 3290 0c86 4FF2C953 		movw	r3, #62921
 3291 0c8a 03FB00F0 		mul	r0, r3, r0
 849:HANcoder_E407_TTA_CombineModel.c ****       }
 3292              		.loc 1 849 23 view .LVU1202
 3293 0c8e 800D     		lsrs	r0, r0, #22
 848:HANcoder_E407_TTA_CombineModel.c ****           analogPot1) >> 22);
 3294              		.loc 1 848 35 view .LVU1203
 3295 0c90 A4F8C400 		strh	r0, [r4, #196]	@ movhi
 3296              	.L77:
 855:HANcoder_E407_TTA_CombineModel.c **** 
 3297              		.loc 1 855 7 is_stmt 1 view .LVU1204
 858:HANcoder_E407_TTA_CombineModel.c **** 
 3298              		.loc 1 858 26 is_stmt 0 view .LVU1205
 3299 0c94 94F8CF30 		ldrb	r3, [r4, #207]	@ zero_extendqisi2
 855:HANcoder_E407_TTA_CombineModel.c **** 
 3300              		.loc 1 855 34 view .LVU1206
 3301 0c98 B4F8C210 		ldrh	r1, [r4, #194]
 858:HANcoder_E407_TTA_CombineModel.c **** 
 3302              		.loc 1 858 26 view .LVU1207
 3303 0c9c 8AF80B30 		strb	r3, [r10, #11]
 865:HANcoder_E407_TTA_CombineModel.c **** 
 3304              		.loc 1 865 7 view .LVU1208
 3305 0ca0 1020     		movs	r0, #16
 861:HANcoder_E407_TTA_CombineModel.c **** 
 3306              		.loc 1 861 26 view .LVU1209
 3307 0ca2 94F8D030 		ldrb	r3, [r4, #208]	@ zero_extendqisi2
 855:HANcoder_E407_TTA_CombineModel.c **** 
 3308              		.loc 1 855 25 view .LVU1210
 3309 0ca6 AAF80010 		strh	r1, [r10]	@ movhi
 858:HANcoder_E407_TTA_CombineModel.c **** 
 3310              		.loc 1 858 7 is_stmt 1 view .LVU1211
 861:HANcoder_E407_TTA_CombineModel.c **** 
 3311              		.loc 1 861 7 view .LVU1212
 861:HANcoder_E407_TTA_CombineModel.c **** 
 3312              		.loc 1 861 26 is_stmt 0 view .LVU1213
 3313 0caa 8AF80C30 		strb	r3, [r10, #12]
 865:HANcoder_E407_TTA_CombineModel.c **** 
 3314              		.loc 1 865 7 is_stmt 1 view .LVU1214
 3315 0cae FFF7FEFF 		bl	PwmoutSet
 3316              	.LVL278:
 869:HANcoder_E407_TTA_CombineModel.c ****         DigoutSet(DIGOUT_PORTE_PIN5, DIGOUT_LOW);
 3317              		.loc 1 869 7 view .LVU1215
 869:HANcoder_E407_TTA_CombineModel.c ****         DigoutSet(DIGOUT_PORTE_PIN5, DIGOUT_LOW);
 3318              		.loc 1 869 10 is_stmt 0 view .LVU1216
 3319 0cb2 9AF80B10 		ldrb	r1, [r10, #11]	@ zero_extendqisi2
 3320 0cb6 01B1     		cbz	r1, .L263
 872:HANcoder_E407_TTA_CombineModel.c ****       }
 3321              		.loc 1 872 9 is_stmt 1 view .LVU1217
 3322 0cb8 0121     		movs	r1, #1
 3323              	.L263:
 3324 0cba 0A20     		movs	r0, #10
 3325 0cbc FFF7FEFF 		bl	DigoutSet
 3326              	.LVL279:
 877:HANcoder_E407_TTA_CombineModel.c ****         DigoutSet(DIGOUT_PORTE_PIN6, DIGOUT_LOW);
 3327              		.loc 1 877 7 view .LVU1218
 877:HANcoder_E407_TTA_CombineModel.c ****         DigoutSet(DIGOUT_PORTE_PIN6, DIGOUT_LOW);
 3328              		.loc 1 877 10 is_stmt 0 view .LVU1219
 3329 0cc0 9AF80C10 		ldrb	r1, [r10, #12]	@ zero_extendqisi2
 3330 0cc4 01B1     		cbz	r1, .L264
 880:HANcoder_E407_TTA_CombineModel.c ****       }
 3331              		.loc 1 880 9 is_stmt 1 view .LVU1220
 3332 0cc6 0121     		movs	r1, #1
 3333              	.L264:
 3334 0cc8 0B20     		movs	r0, #11
 3335 0cca FFF7FEFF 		bl	DigoutSet
 3336              	.LVL280:
 891:HANcoder_E407_TTA_CombineModel.c **** 
 3337              		.loc 1 891 33 is_stmt 0 view .LVU1221
 3338 0cce 9BF80030 		ldrb	r3, [fp]	@ zero_extendqisi2
 3339 0cd2 07EE903A 		vmov	s15, r3	@ int
 3340 0cd6 F8EEE77A 		vcvt.f32.s32	s15, s15
 3341 0cda FFF72CBA 		b	.L75
 3342              	.LVL281:
 3343              	.L158:
1346:HANcoder_E407_TTA_CombineModel.c ****     }
 3344              		.loc 1 1346 7 is_stmt 1 view .LVU1222
1346:HANcoder_E407_TTA_CombineModel.c ****     }
 3345              		.loc 1 1346 32 is_stmt 0 view .LVU1223
 3346 0cde 0022     		movs	r2, #0
 3347 0ce0 84F8D420 		strb	r2, [r4, #212]
1352:HANcoder_E407_TTA_CombineModel.c **** 
 3348              		.loc 1 1352 5 is_stmt 1 view .LVU1224
 3349 0ce4 FFF7AEBA 		b	.L113
 3350              	.LVL282:
 3351              	.L276:
1241:HANcoder_E407_TTA_CombineModel.c **** 
 3352              		.loc 1 1241 7 view .LVU1225
1248:HANcoder_E407_TTA_CombineModel.c ****         &canRxData_0_TRCK1_ID3.uint8_T_info[0], NULL);
 3353              		.loc 1 1248 29 is_stmt 0 view .LVU1226
 3354 0ce8 354B     		ldr	r3, .L298+80
 3355 0cea 394E     		ldr	r6, .L298+96
 3356 0cec 1968     		ldr	r1, [r3]
 3357 0cee 0022     		movs	r2, #0
1241:HANcoder_E407_TTA_CombineModel.c **** 
 3358              		.loc 1 1241 32 view .LVU1227
 3359 0cf0 0123     		movs	r3, #1
 3360 0cf2 84F8D530 		strb	r3, [r4, #213]
1248:HANcoder_E407_TTA_CombineModel.c ****         &canRxData_0_TRCK1_ID3.uint8_T_info[0], NULL);
 3361              		.loc 1 1248 7 is_stmt 1 view .LVU1228
1248:HANcoder_E407_TTA_CombineModel.c ****         &canRxData_0_TRCK1_ID3.uint8_T_info[0], NULL);
 3362              		.loc 1 1248 29 is_stmt 0 view .LVU1229
 3363 0cf6 0092     		str	r2, [sp]
 3364 0cf8 3346     		mov	r3, r6
 3365 0cfa 1046     		mov	r0, r2
 3366 0cfc FFF7FEFF 		bl	CanIoGetMessage
 3367              	.LVL283:
1252:HANcoder_E407_TTA_CombineModel.c ****         /* read the data */
 3368              		.loc 1 1252 7 is_stmt 1 view .LVU1230
1252:HANcoder_E407_TTA_CombineModel.c ****         /* read the data */
 3369              		.loc 1 1252 10 is_stmt 0 view .LVU1231
 3370 0d00 0028     		cmp	r0, #0
 3371 0d02 7FF786AA 		ble	.L108
1254:HANcoder_E407_TTA_CombineModel.c ****         rtb_SFunction_o3_a = canRxData_0_TRCK1_ID3.uint8_T_info[1];
 3372              		.loc 1 1254 9 is_stmt 1 view .LVU1232
 3373              	.LVL284:
1255:HANcoder_E407_TTA_CombineModel.c ****         rtb_SFunction_o4_i = canRxData_0_TRCK1_ID3.uint8_T_info[2];
 3374              		.loc 1 1255 9 view .LVU1233
1256:HANcoder_E407_TTA_CombineModel.c ****         rtb_SFunction_o5_k = canRxData_0_TRCK1_ID3.uint8_T_info[3];
 3375              		.loc 1 1256 9 view .LVU1234
1257:HANcoder_E407_TTA_CombineModel.c ****         rtb_SFunction_o6_c = canRxData_0_TRCK1_ID3.uint8_T_info[4];
 3376              		.loc 1 1257 9 view .LVU1235
1258:HANcoder_E407_TTA_CombineModel.c ****         rtb_SFunction_o7_d = canRxData_0_TRCK1_ID3.uint8_T_info[5];
 3377              		.loc 1 1258 9 view .LVU1236
1259:HANcoder_E407_TTA_CombineModel.c ****         rtb_SFunction_o8_h = canRxData_0_TRCK1_ID3.uint8_T_info[6];
 3378              		.loc 1 1259 9 view .LVU1237
1260:HANcoder_E407_TTA_CombineModel.c ****         rtb_SFunction_o9_b = canRxData_0_TRCK1_ID3.uint8_T_info[7];
 3379              		.loc 1 1260 9 view .LVU1238
1261:HANcoder_E407_TTA_CombineModel.c ****       }
 3380              		.loc 1 1261 9 view .LVU1239
1265:HANcoder_E407_TTA_CombineModel.c ****                        rtb_SFunction_o3_a, rtb_SFunction_o4_i,
 3381              		.loc 1 1265 7 view .LVU1240
 3382              	.LBB181:
 3383              	.LBI181:
 273:HANcoder_E407_TTA_CombineModel.c ****                       uint8_T rtu_In3, uint8_T rtu_In4, uint8_T rtu_In5, uint8_T
 3384              		.loc 1 273 6 view .LVU1241
 3385              	.LBB182:
 278:HANcoder_E407_TTA_CombineModel.c ****   uint8_T rtb_In4;
 3386              		.loc 1 278 3 view .LVU1242
 279:HANcoder_E407_TTA_CombineModel.c ****   uint8_T rtb_In5;
 3387              		.loc 1 279 3 view .LVU1243
 280:HANcoder_E407_TTA_CombineModel.c ****   uint8_T rtb_In6;
 3388              		.loc 1 280 3 view .LVU1244
 281:HANcoder_E407_TTA_CombineModel.c ****   uint8_T rtb_In7;
 3389              		.loc 1 281 3 view .LVU1245
 282:HANcoder_E407_TTA_CombineModel.c ****   uint8_T rtb_In8;
 3390              		.loc 1 282 3 view .LVU1246
 283:HANcoder_E407_TTA_CombineModel.c **** 
 3391              		.loc 1 283 3 view .LVU1247
 288:HANcoder_E407_TTA_CombineModel.c ****     /* SignalConversion generated from: '<S39>/In1' */
 3392              		.loc 1 288 3 view .LVU1248
 290:HANcoder_E407_TTA_CombineModel.c **** 
 3393              		.loc 1 290 5 view .LVU1249
 293:HANcoder_E407_TTA_CombineModel.c **** 
 3394              		.loc 1 293 5 view .LVU1250
 290:HANcoder_E407_TTA_CombineModel.c **** 
 3395              		.loc 1 290 17 is_stmt 0 view .LVU1251
 3396 0d06 3388     		ldrh	r3, [r6]
 3397 0d08 AAF81C30 		strh	r3, [r10, #28]	@ movhi
 296:HANcoder_E407_TTA_CombineModel.c **** 
 3398              		.loc 1 296 5 is_stmt 1 view .LVU1252
 299:HANcoder_E407_TTA_CombineModel.c **** 
 3399              		.loc 1 299 5 view .LVU1253
 302:HANcoder_E407_TTA_CombineModel.c **** 
 3400              		.loc 1 302 5 view .LVU1254
 305:HANcoder_E407_TTA_CombineModel.c **** 
 3401              		.loc 1 305 5 view .LVU1255
 308:HANcoder_E407_TTA_CombineModel.c **** 
 3402              		.loc 1 308 5 view .LVU1256
 311:HANcoder_E407_TTA_CombineModel.c ****   }
 3403              		.loc 1 311 5 view .LVU1257
 3404 0d0c FFF781BA 		b	.L108
 3405              	.LVL285:
 3406              	.L283:
 311:HANcoder_E407_TTA_CombineModel.c ****   }
 3407              		.loc 1 311 5 is_stmt 0 view .LVU1258
 3408              	.LBE182:
 3409              	.LBE181:
1601:HANcoder_E407_TTA_CombineModel.c **** 
 3410              		.loc 1 1601 5 is_stmt 1 view .LVU1259
1601:HANcoder_E407_TTA_CombineModel.c **** 
 3411              		.loc 1 1601 29 is_stmt 0 view .LVU1260
 3412 0d10 0123     		movs	r3, #1
 3413 0d12 84F8D130 		strb	r3, [r4, #209]
1608:HANcoder_E407_TTA_CombineModel.c ****       &canRxData_0_SYNC1_ID.uint8_T_info[0], NULL);
 3414              		.loc 1 1608 5 is_stmt 1 view .LVU1261
1608:HANcoder_E407_TTA_CombineModel.c ****       &canRxData_0_SYNC1_ID.uint8_T_info[0], NULL);
 3415              		.loc 1 1608 24 is_stmt 0 view .LVU1262
 3416 0d16 2F4D     		ldr	r5, .L298+100
 3417 0d18 2F4B     		ldr	r3, .L298+104
 3418 0d1a 0092     		str	r2, [sp]
 3419 0d1c 1968     		ldr	r1, [r3]
 3420 0d1e 1046     		mov	r0, r2
 3421 0d20 2B46     		mov	r3, r5
 3422 0d22 FFF7FEFF 		bl	CanIoGetMessage
 3423              	.LVL286:
1612:HANcoder_E407_TTA_CombineModel.c ****       /* read the data */
 3424              		.loc 1 1612 5 is_stmt 1 view .LVU1263
1612:HANcoder_E407_TTA_CombineModel.c ****       /* read the data */
 3425              		.loc 1 1612 8 is_stmt 0 view .LVU1264
 3426 0d26 021E     		subs	r2, r0, #0
 3427 0d28 05DD     		ble	.L129
1614:HANcoder_E407_TTA_CombineModel.c ****       rtb_SFunction_o3 = canRxData_0_SYNC1_ID.uint8_T_info[1];
 3428              		.loc 1 1614 7 is_stmt 1 view .LVU1265
 3429              	.LVL287:
1615:HANcoder_E407_TTA_CombineModel.c ****       rtb_SFunction_o4 = canRxData_0_SYNC1_ID.uint8_T_info[2];
 3430              		.loc 1 1615 7 view .LVU1266
1615:HANcoder_E407_TTA_CombineModel.c ****       rtb_SFunction_o4 = canRxData_0_SYNC1_ID.uint8_T_info[2];
 3431              		.loc 1 1615 24 is_stmt 0 view .LVU1267
 3432 0d2a 6B78     		ldrb	r3, [r5, #1]	@ zero_extendqisi2
 3433              	.LVL288:
1616:HANcoder_E407_TTA_CombineModel.c ****       rtb_SFunction_o5 = canRxData_0_SYNC1_ID.uint8_T_info[3];
 3434              		.loc 1 1616 7 is_stmt 1 view .LVU1268
1617:HANcoder_E407_TTA_CombineModel.c ****       rtb_SFunction_o6 = canRxData_0_SYNC1_ID.uint8_T_info[4];
 3435              		.loc 1 1617 7 view .LVU1269
1618:HANcoder_E407_TTA_CombineModel.c ****       rtb_SFunction_o7 = canRxData_0_SYNC1_ID.uint8_T_info[5];
 3436              		.loc 1 1618 7 view .LVU1270
1619:HANcoder_E407_TTA_CombineModel.c ****       rtb_SFunction_o8 = canRxData_0_SYNC1_ID.uint8_T_info[6];
 3437              		.loc 1 1619 7 view .LVU1271
1620:HANcoder_E407_TTA_CombineModel.c ****       rtb_SFunction_o9 = canRxData_0_SYNC1_ID.uint8_T_info[7];
 3438              		.loc 1 1620 7 view .LVU1272
1621:HANcoder_E407_TTA_CombineModel.c ****     }
 3439              		.loc 1 1621 7 view .LVU1273
1625:HANcoder_E407_TTA_CombineModel.c ****                      rtb_SFunction_o4, rtb_SFunction_o5, rtb_SFunction_o6,
 3440              		.loc 1 1625 5 view .LVU1274
 3441              	.LBB183:
 3442              	.LBI183:
 273:HANcoder_E407_TTA_CombineModel.c ****                       uint8_T rtu_In3, uint8_T rtu_In4, uint8_T rtu_In5, uint8_T
 3443              		.loc 1 273 6 view .LVU1275
 3444              	.LBB184:
 278:HANcoder_E407_TTA_CombineModel.c ****   uint8_T rtb_In4;
 3445              		.loc 1 278 3 view .LVU1276
 279:HANcoder_E407_TTA_CombineModel.c ****   uint8_T rtb_In5;
 3446              		.loc 1 279 3 view .LVU1277
 280:HANcoder_E407_TTA_CombineModel.c ****   uint8_T rtb_In6;
 3447              		.loc 1 280 3 view .LVU1278
 281:HANcoder_E407_TTA_CombineModel.c ****   uint8_T rtb_In7;
 3448              		.loc 1 281 3 view .LVU1279
 282:HANcoder_E407_TTA_CombineModel.c ****   uint8_T rtb_In8;
 3449              		.loc 1 282 3 view .LVU1280
 283:HANcoder_E407_TTA_CombineModel.c **** 
 3450              		.loc 1 283 3 view .LVU1281
 288:HANcoder_E407_TTA_CombineModel.c ****     /* SignalConversion generated from: '<S39>/In1' */
 3451              		.loc 1 288 3 view .LVU1282
 290:HANcoder_E407_TTA_CombineModel.c **** 
 3452              		.loc 1 290 5 view .LVU1283
 293:HANcoder_E407_TTA_CombineModel.c **** 
 3453              		.loc 1 293 17 is_stmt 0 view .LVU1284
 3454 0d2c 8AF80E30 		strb	r3, [r10, #14]
 290:HANcoder_E407_TTA_CombineModel.c **** 
 3455              		.loc 1 290 17 view .LVU1285
 3456 0d30 2B78     		ldrb	r3, [r5]	@ zero_extendqisi2
 3457              	.LVL289:
 290:HANcoder_E407_TTA_CombineModel.c **** 
 3458              		.loc 1 290 17 view .LVU1286
 3459 0d32 8AF80D30 		strb	r3, [r10, #13]
 293:HANcoder_E407_TTA_CombineModel.c **** 
 3460              		.loc 1 293 5 is_stmt 1 view .LVU1287
 296:HANcoder_E407_TTA_CombineModel.c **** 
 3461              		.loc 1 296 5 view .LVU1288
 299:HANcoder_E407_TTA_CombineModel.c **** 
 3462              		.loc 1 299 5 view .LVU1289
 302:HANcoder_E407_TTA_CombineModel.c **** 
 3463              		.loc 1 302 5 view .LVU1290
 305:HANcoder_E407_TTA_CombineModel.c **** 
 3464              		.loc 1 305 5 view .LVU1291
 308:HANcoder_E407_TTA_CombineModel.c **** 
 3465              		.loc 1 308 5 view .LVU1292
 311:HANcoder_E407_TTA_CombineModel.c ****   }
 3466              		.loc 1 311 5 view .LVU1293
 3467              	.LVL290:
 3468              	.L129:
 311:HANcoder_E407_TTA_CombineModel.c ****   }
 3469              		.loc 1 311 5 is_stmt 0 view .LVU1294
 3470              	.LBE184:
 3471              	.LBE183:
1635:HANcoder_E407_TTA_CombineModel.c ****                           &rtPrevZCSigState.Subsystem1_Trig_ZCE,
 3472              		.loc 1 1635 5 is_stmt 1 view .LVU1295
1635:HANcoder_E407_TTA_CombineModel.c ****                           &rtPrevZCSigState.Subsystem1_Trig_ZCE,
 3473              		.loc 1 1635 15 is_stmt 0 view .LVU1296
 3474 0d36 2949     		ldr	r1, .L298+108
 3475 0d38 0120     		movs	r0, #1
 3476              	.LVL291:
1635:HANcoder_E407_TTA_CombineModel.c ****                           &rtPrevZCSigState.Subsystem1_Trig_ZCE,
 3477              		.loc 1 1635 15 view .LVU1297
 3478 0d3a FFF7FEFF 		bl	rt_I32ZCFcn
 3479              	.LVL292:
1638:HANcoder_E407_TTA_CombineModel.c ****       /* DataStoreWrite: '<S147>/Data Store Write' */
 3480              		.loc 1 1638 5 is_stmt 1 view .LVU1298
1638:HANcoder_E407_TTA_CombineModel.c ****       /* DataStoreWrite: '<S147>/Data Store Write' */
 3481              		.loc 1 1638 8 is_stmt 0 view .LVU1299
 3482 0d3e 0028     		cmp	r0, #0
 3483 0d40 3FF4AEAB 		beq	.L131
1640:HANcoder_E407_TTA_CombineModel.c **** 
 3484              		.loc 1 1640 7 is_stmt 1 view .LVU1300
1650:HANcoder_E407_TTA_CombineModel.c **** 
 3485              		.loc 1 1650 28 is_stmt 0 view .LVU1301
 3486 0d44 0123     		movs	r3, #1
1640:HANcoder_E407_TTA_CombineModel.c **** 
 3487              		.loc 1 1640 24 view .LVU1302
 3488 0d46 9AF80D10 		ldrb	r1, [r10, #13]	@ zero_extendqisi2
 3489 0d4a 84F8CD10 		strb	r1, [r4, #205]
1645:HANcoder_E407_TTA_CombineModel.c **** 
 3490              		.loc 1 1645 7 is_stmt 1 view .LVU1303
1645:HANcoder_E407_TTA_CombineModel.c **** 
 3491              		.loc 1 1645 27 is_stmt 0 view .LVU1304
 3492 0d4e 0022     		movs	r2, #0
 3493 0d50 A4F8C020 		strh	r2, [r4, #192]	@ movhi
1650:HANcoder_E407_TTA_CombineModel.c **** 
 3494              		.loc 1 1650 7 is_stmt 1 view .LVU1305
1650:HANcoder_E407_TTA_CombineModel.c **** 
 3495              		.loc 1 1650 28 is_stmt 0 view .LVU1306
 3496 0d54 84F8CE30 		strb	r3, [r4, #206]
1655:HANcoder_E407_TTA_CombineModel.c ****     }
 3497              		.loc 1 1655 7 is_stmt 1 view .LVU1307
1655:HANcoder_E407_TTA_CombineModel.c ****     }
 3498              		.loc 1 1655 20 is_stmt 0 view .LVU1308
 3499 0d58 84F8CC30 		strb	r3, [r4, #204]
 3500 0d5c FFF7A0BB 		b	.L131
 3501              	.LVL293:
 3502              	.L254:
1655:HANcoder_E407_TTA_CombineModel.c ****     }
 3503              		.loc 1 1655 20 view .LVU1309
 3504 0d60 4FF00008 		mov	r8, #0
 3505 0d64 4FF00009 		mov	r9, #0
 3506 0d68 CDE91089 		strd	r8, [sp, #64]
 3507              	.LVL294:
1655:HANcoder_E407_TTA_CombineModel.c ****     }
 3508              		.loc 1 1655 20 view .LVU1310
 3509 0d6c 55E6     		b	.L91
 3510              	.L299:
 3511 0d6e 00BF     		.align	3
 3512              	.L298:
 3513 0d70 000000E0 		.word	-536870912
 3514 0d74 4D62503F 		.word	1062232653
 3515 0d78 00000040 		.word	1073741824
 3516 0d7c 1BB98E3F 		.word	1066318107
 3517 0d80 0000F03F 		.word	1072693248
 3518 0d84 00000000 		.word	.LANCHOR28
 3519 0d88 00000000 		.word	.LANCHOR27
 3520 0d8c 00000000 		.word	.LANCHOR29
 3521 0d90 00000000 		.word	.LANCHOR30
 3522 0d94 00000000 		.word	.LANCHOR31
 3523 0d98 00000000 		.word	.LANCHOR32
 3524 0d9c 00000000 		.word	.LANCHOR33
 3525 0da0 00000000 		.word	.LANCHOR34
 3526 0da4 00000000 		.word	.LANCHOR12
 3527 0da8 24000000 		.word	.LANCHOR0+36
 3528 0dac DA000000 		.word	.LANCHOR2+218
 3529 0db0 00000000 		.word	.LANCHOR40
 3530 0db4 00000000 		.word	.LANCHOR39
 3531 0db8 00000000 		.word	.LANCHOR9
 3532 0dbc 00000000 		.word	.LANCHOR42
 3533 0dc0 00000000 		.word	.LANCHOR36
 3534 0dc4 00000000 		.word	.LANCHOR17
 3535 0dc8 00000000 		.word	.LANCHOR18
 3536 0dcc 00000000 		.word	.LANCHOR19
 3537 0dd0 00000000 		.word	.LANCHOR38
 3538 0dd4 00000000 		.word	.LANCHOR13
 3539 0dd8 00000000 		.word	.LANCHOR15
 3540 0ddc 00000000 		.word	.LANCHOR5
 3541 0de0 00000060 		.word	1610612736
 3542 0de4 68F9953F 		.word	1066793320
 3543 0de8 00000000 		.word	0
 3544 0dec 0000F03F 		.word	1072693248
 3545 0df0 00000000 		.word	0
 3546 0df4 00000000 		.word	0
 3547 0df8 00000000 		.word	0
 3548 0dfc 0000F0BF 		.word	-1074790400
 3549              	.LVL295:
 3550              	.L253:
1058:HANcoder_E407_TTA_CombineModel.c ****         rtb_Sum = 0.0;
 3551              		.loc 1 1058 9 is_stmt 1 view .LVU1311
1059:HANcoder_E407_TTA_CombineModel.c ****         csumrev[1] += csumrev[2];
 3552              		.loc 1 1059 9 view .LVU1312
1060:HANcoder_E407_TTA_CombineModel.c ****         csumrev[0] += csumrev[1];
 3553              		.loc 1 1060 9 view .LVU1313
1060:HANcoder_E407_TTA_CombineModel.c ****         csumrev[0] += csumrev[1];
 3554              		.loc 1 1060 30 is_stmt 0 view .LVU1314
 3555 0e00 9DED167B 		vldr.64	d7, [sp, #88]
 3556 0e04 8DED087B 		vstr.64	d7, [sp, #32]
1059:HANcoder_E407_TTA_CombineModel.c ****         csumrev[1] += csumrev[2];
 3557              		.loc 1 1059 17 view .LVU1315
 3558 0e08 1FED077B 		vldr.64	d7, .L298+128
1060:HANcoder_E407_TTA_CombineModel.c ****         csumrev[0] += csumrev[1];
 3559              		.loc 1 1060 20 view .LVU1316
 3560 0e0c DDE91423 		ldrd	r2, [sp, #80]
 3561 0e10 DDE90801 		ldrd	r0, [sp, #32]
1059:HANcoder_E407_TTA_CombineModel.c ****         csumrev[1] += csumrev[2];
 3562              		.loc 1 1059 17 view .LVU1317
 3563 0e14 8DED067B 		vstr.64	d7, [sp, #24]
1060:HANcoder_E407_TTA_CombineModel.c ****         csumrev[0] += csumrev[1];
 3564              		.loc 1 1060 20 view .LVU1318
 3565 0e18 FFF7FEFF 		bl	__aeabi_dadd
 3566              	.LVL296:
 3567 0e1c 0246     		mov	r2, r0
 3568 0e1e 0B46     		mov	r3, r1
 3569 0e20 CDE90E23 		strd	r2, [sp, #56]
1061:HANcoder_E407_TTA_CombineModel.c ****       }
 3570              		.loc 1 1061 9 is_stmt 1 view .LVU1319
1061:HANcoder_E407_TTA_CombineModel.c ****       }
 3571              		.loc 1 1061 20 is_stmt 0 view .LVU1320
 3572 0e24 DDE91223 		ldrd	r2, [sp, #72]
 3573 0e28 FFF7FEFF 		bl	__aeabi_dadd
 3574              	.LVL297:
1058:HANcoder_E407_TTA_CombineModel.c ****         rtb_Sum = 0.0;
 3575              		.loc 1 1058 24 view .LVU1321
 3576 0e2c 1FED127B 		vldr.64	d7, .L298+120
1061:HANcoder_E407_TTA_CombineModel.c ****       }
 3577              		.loc 1 1061 20 view .LVU1322
 3578 0e30 CDE90C01 		strd	r0, [sp, #48]
1058:HANcoder_E407_TTA_CombineModel.c ****         rtb_Sum = 0.0;
 3579              		.loc 1 1058 24 view .LVU1323
 3580 0e34 8DED0A7B 		vstr.64	d7, [sp, #40]
 3581 0e38 ABE5     		b	.L90
 3582              	.LVL298:
 3583              	.L288:
1041:HANcoder_E407_TTA_CombineModel.c ****       rtb_Sum = obj->pCumSum;
 3584              		.loc 1 1041 22 view .LVU1324
 3585 0e3a 96ED0A7B 		vldr.64	d7, [r6, #40]
1051:HANcoder_E407_TTA_CombineModel.c ****       }
 3586              		.loc 1 1051 21 view .LVU1325
 3587 0e3e 51EC170B 		vmov	r0, r1, d7
 3588              	.LVL299:
1041:HANcoder_E407_TTA_CombineModel.c ****       rtb_Sum = obj->pCumSum;
 3589              		.loc 1 1041 22 view .LVU1326
 3590 0e42 B0EE47AA 		vmov.f32	s20, s14
 3591 0e46 F0EE67AA 		vmov.f32	s21, s15
1051:HANcoder_E407_TTA_CombineModel.c ****       }
 3592              		.loc 1 1051 21 view .LVU1327
 3593 0e4a FFF7FEFF 		bl	__aeabi_d2iz
 3594              	.LVL300:
1041:HANcoder_E407_TTA_CombineModel.c ****       rtb_Sum = obj->pCumSum;
 3595              		.loc 1 1041 7 is_stmt 1 view .LVU1328
1042:HANcoder_E407_TTA_CombineModel.c ****       csumrev[0] = obj->pCumSumRev[0];
 3596              		.loc 1 1042 7 view .LVU1329
1043:HANcoder_E407_TTA_CombineModel.c ****       csumrev[1] = obj->pCumSumRev[1];
 3597              		.loc 1 1043 7 view .LVU1330
1051:HANcoder_E407_TTA_CombineModel.c ****       }
 3598              		.loc 1 1051 21 is_stmt 0 view .LVU1331
 3599 0e4e 0346     		mov	r3, r0
1051:HANcoder_E407_TTA_CombineModel.c ****       }
 3600              		.loc 1 1051 45 view .LVU1332
 3601 0e50 013B     		subs	r3, r3, #1
1045:HANcoder_E407_TTA_CombineModel.c ****       modValueRev = obj->pModValueRev;
 3602              		.loc 1 1045 35 view .LVU1333
 3603 0e52 96ED088B 		vldr.64	d8, [r6, #32]
 3604              	.LVL301:
1051:HANcoder_E407_TTA_CombineModel.c ****       }
 3605              		.loc 1 1051 45 view .LVU1334
 3606 0e56 0A93     		str	r3, [sp, #40]
1044:HANcoder_E407_TTA_CombineModel.c ****       csumrev[2] = obj->pCumSumRev[2];
 3607              		.loc 1 1044 35 view .LVU1335
 3608 0e58 96ED069B 		vldr.64	d9, [r6, #24]
1043:HANcoder_E407_TTA_CombineModel.c ****       csumrev[1] = obj->pCumSumRev[1];
 3609              		.loc 1 1043 18 view .LVU1336
 3610 0e5c D6E90423 		ldrd	r2, [r6, #16]
1049:HANcoder_E407_TTA_CombineModel.c ****       if (modValueRev == 0.0) {
 3611              		.loc 1 1049 18 view .LVU1337
 3612 0e60 4046     		mov	r0, r8
1043:HANcoder_E407_TTA_CombineModel.c ****       csumrev[1] = obj->pCumSumRev[1];
 3613              		.loc 1 1043 18 view .LVU1338
 3614 0e62 CDE91223 		strd	r2, [sp, #72]
1044:HANcoder_E407_TTA_CombineModel.c ****       csumrev[2] = obj->pCumSumRev[2];
 3615              		.loc 1 1044 7 is_stmt 1 view .LVU1339
1045:HANcoder_E407_TTA_CombineModel.c ****       modValueRev = obj->pModValueRev;
 3616              		.loc 1 1045 7 view .LVU1340
1046:HANcoder_E407_TTA_CombineModel.c ****       z = 0.0;
 3617              		.loc 1 1046 7 view .LVU1341
 3618              	.LVL302:
1047:HANcoder_E407_TTA_CombineModel.c ****       rtb_MovingAverage_0 = 0.0;
 3619              		.loc 1 1047 7 view .LVU1342
1048:HANcoder_E407_TTA_CombineModel.c ****       rtb_Sum += (real_T)rtb_Level2MfileSFunction_k;
 3620              		.loc 1 1048 7 view .LVU1343
1049:HANcoder_E407_TTA_CombineModel.c ****       if (modValueRev == 0.0) {
 3621              		.loc 1 1049 7 view .LVU1344
1045:HANcoder_E407_TTA_CombineModel.c ****       modValueRev = obj->pModValueRev;
 3622              		.loc 1 1045 18 is_stmt 0 view .LVU1345
 3623 0e66 8DED168B 		vstr.64	d8, [sp, #88]
1044:HANcoder_E407_TTA_CombineModel.c ****       csumrev[2] = obj->pCumSumRev[2];
 3624              		.loc 1 1044 18 view .LVU1346
 3625 0e6a 8DED149B 		vstr.64	d9, [sp, #80]
1049:HANcoder_E407_TTA_CombineModel.c ****       if (modValueRev == 0.0) {
 3626              		.loc 1 1049 18 view .LVU1347
 3627 0e6e FFF7FEFF 		bl	__aeabi_i2d
 3628              	.LVL303:
1049:HANcoder_E407_TTA_CombineModel.c ****       if (modValueRev == 0.0) {
 3629              		.loc 1 1049 18 view .LVU1348
 3630 0e72 0246     		mov	r2, r0
 3631 0e74 0B46     		mov	r3, r1
 3632 0e76 CDE90823 		strd	r2, [sp, #32]
1042:HANcoder_E407_TTA_CombineModel.c ****       csumrev[0] = obj->pCumSumRev[0];
 3633              		.loc 1 1042 15 view .LVU1349
 3634 0e7a D6E90223 		ldrd	r2, [r6, #8]
 3635              	.LVL304:
1049:HANcoder_E407_TTA_CombineModel.c ****       if (modValueRev == 0.0) {
 3636              		.loc 1 1049 15 view .LVU1350
 3637 0e7e FFF7FEFF 		bl	__aeabi_dadd
 3638              	.LVL305:
1046:HANcoder_E407_TTA_CombineModel.c ****       z = 0.0;
 3639              		.loc 1 1046 19 view .LVU1351
 3640 0e82 96ED0C7B 		vldr.64	d7, [r6, #48]
 3641              	.LVL306:
1049:HANcoder_E407_TTA_CombineModel.c ****       if (modValueRev == 0.0) {
 3642              		.loc 1 1049 15 view .LVU1352
 3643 0e86 CDE90601 		strd	r0, [sp, #24]
 3644              	.LVL307:
1050:HANcoder_E407_TTA_CombineModel.c ****         z = csumrev[(int32_T)rtb_Integrator - 1] + rtb_Sum;
 3645              		.loc 1 1050 7 is_stmt 1 view .LVU1353
1046:HANcoder_E407_TTA_CombineModel.c ****       z = 0.0;
 3646              		.loc 1 1046 19 is_stmt 0 view .LVU1354
 3647 0e8a B0EE478A 		vmov.f32	s16, s14
 3648 0e8e F0EE678A 		vmov.f32	s17, s15
1050:HANcoder_E407_TTA_CombineModel.c ****         z = csumrev[(int32_T)rtb_Integrator - 1] + rtb_Sum;
 3649              		.loc 1 1050 10 view .LVU1355
 3650 0e92 51EC170B 		vmov	r0, r1, d7
 3651              	.LVL308:
1050:HANcoder_E407_TTA_CombineModel.c ****         z = csumrev[(int32_T)rtb_Integrator - 1] + rtb_Sum;
 3652              		.loc 1 1050 10 view .LVU1356
 3653 0e96 0022     		movs	r2, #0
 3654 0e98 0023     		movs	r3, #0
 3655 0e9a FFF7FEFF 		bl	__aeabi_dcmpeq
 3656              	.LVL309:
1050:HANcoder_E407_TTA_CombineModel.c ****         z = csumrev[(int32_T)rtb_Integrator - 1] + rtb_Sum;
 3657              		.loc 1 1050 10 view .LVU1357
 3658 0e9e 0028     		cmp	r0, #0
 3659 0ea0 7FF440AD 		bne	.L86
1047:HANcoder_E407_TTA_CombineModel.c ****       rtb_MovingAverage_0 = 0.0;
 3660              		.loc 1 1047 9 view .LVU1358
 3661 0ea4 1FED2E7B 		vldr.64	d7, .L298+128
 3662 0ea8 0A9B     		ldr	r3, [sp, #40]
 3663 0eaa 8DED107B 		vstr.64	d7, [sp, #64]
 3664 0eae 4FEAC308 		lsl	r8, r3, #3
 3665              	.LVL310:
1047:HANcoder_E407_TTA_CombineModel.c ****       rtb_MovingAverage_0 = 0.0;
 3666              		.loc 1 1047 9 view .LVU1359
 3667 0eb2 45E5     		b	.L87
 3668              	.LVL311:
 3669              	.L289:
1332:HANcoder_E407_TTA_CombineModel.c **** 
 3670              		.loc 1 1332 43 view .LVU1360
 3671 0eb4 9AF81820 		ldrb	r2, [r10, #24]	@ zero_extendqisi2
1344:HANcoder_E407_TTA_CombineModel.c ****     } else if (rtDWork.TRLS_ID4_RX_MODE) {
 3672              		.loc 1 1344 31 view .LVU1361
 3673 0eb8 9AF81910 		ldrb	r1, [r10, #25]	@ zero_extendqisi2
 3674 0ebc 6DE6     		b	.L143
 3675              	.LVL312:
 3676              	.L255:
1076:HANcoder_E407_TTA_CombineModel.c ****       }
 3677              		.loc 1 1076 27 view .LVU1362
 3678 0ebe 0020     		movs	r0, #0
 3679 0ec0 0021     		movs	r1, #0
 3680 0ec2 CDE5     		b	.L93
 3681              	.LVL313:
 3682              	.L279:
1442:HANcoder_E407_TTA_CombineModel.c **** 
 3683              		.loc 1 1442 42 view .LVU1363
 3684 0ec4 9AF81220 		ldrb	r2, [r10, #18]	@ zero_extendqisi2
1454:HANcoder_E407_TTA_CombineModel.c ****     } else if (rtDWork.TRLS_ID5_RX_MODE) {
 3685              		.loc 1 1454 31 view .LVU1364
 3686 0ec8 9AF81310 		ldrb	r1, [r10, #19]	@ zero_extendqisi2
 3687 0ecc FFF7E1B9 		b	.L139
 3688              	.LVL314:
 3689              	.L174:
 973:HANcoder_E407_TTA_CombineModel.c ****       } else {
 3690              		.loc 1 973 29 view .LVU1365
 3691 0ed0 1FED377B 		vldr.64	d7, .L298+136
 3692 0ed4 B0EE47EA 		vmov.f32	s28, s14
 3693 0ed8 F0EE67EA 		vmov.f32	s29, s15
 3694 0edc 83E4     		b	.L82
 3695              	.LVL315:
 3696              	.L281:
 690:HANcoder_E407_TTA_CombineModel.c ****       rtDWork.SYNC1_RX_MODE = true;
 3697              		.loc 1 690 5 is_stmt 1 view .LVU1366
 740:HANcoder_E407_TTA_CombineModel.c ****       rtDWork.SYNC1_RX_MODE = false;
 3698              		.loc 1 740 12 view .LVU1367
 740:HANcoder_E407_TTA_CombineModel.c ****       rtDWork.SYNC1_RX_MODE = false;
 3699              		.loc 1 740 15 is_stmt 0 view .LVU1368
 3700 0ede 94F8D630 		ldrb	r3, [r4, #214]	@ zero_extendqisi2
 3701 0ee2 13B1     		cbz	r3, .L166
 741:HANcoder_E407_TTA_CombineModel.c ****     }
 3702              		.loc 1 741 7 is_stmt 1 view .LVU1369
 741:HANcoder_E407_TTA_CombineModel.c ****     }
 3703              		.loc 1 741 29 is_stmt 0 view .LVU1370
 3704 0ee4 0023     		movs	r3, #0
 3705 0ee6 84F8D630 		strb	r3, [r4, #214]
 747:HANcoder_E407_TTA_CombineModel.c **** 
 3706              		.loc 1 747 5 is_stmt 1 view .LVU1371
 3707              	.L166:
 752:HANcoder_E407_TTA_CombineModel.c ****       /* DataStoreRead: '<S25>/Data Store Read1' */
 3708              		.loc 1 752 17 is_stmt 0 view .LVU1372
 3709 0eea 6B7A     		ldrb	r3, [r5, #9]	@ zero_extendqisi2
 747:HANcoder_E407_TTA_CombineModel.c **** 
 3710              		.loc 1 747 13 view .LVU1373
 3711 0eec 1E4E     		ldr	r6, .L300+8
 3712 0eee 0122     		movs	r2, #1
 752:HANcoder_E407_TTA_CombineModel.c ****       /* DataStoreRead: '<S25>/Data Store Read1' */
 3713              		.loc 1 752 17 view .LVU1374
 3714 0ef0 9342     		cmp	r3, r2
 747:HANcoder_E407_TTA_CombineModel.c **** 
 3715              		.loc 1 747 13 view .LVU1375
 3716 0ef2 3270     		strb	r2, [r6]
 752:HANcoder_E407_TTA_CombineModel.c ****       /* DataStoreRead: '<S25>/Data Store Read1' */
 3717              		.loc 1 752 5 is_stmt 1 view .LVU1376
 752:HANcoder_E407_TTA_CombineModel.c ****       /* DataStoreRead: '<S25>/Data Store Read1' */
 3718              		.loc 1 752 17 is_stmt 0 view .LVU1377
 3719 0ef4 1CD0     		beq	.L261
 754:HANcoder_E407_TTA_CombineModel.c **** 
 3720              		.loc 1 754 7 is_stmt 1 view .LVU1378
 777:HANcoder_E407_TTA_CombineModel.c ****         canTxData.uint8_T_info[1] = ((uint8_T)1U);
 3721              		.loc 1 777 35 is_stmt 0 view .LVU1379
 3722 0ef6 1D4B     		ldr	r3, .L300+12
 754:HANcoder_E407_TTA_CombineModel.c **** 
 3723              		.loc 1 754 19 view .LVU1380
 3724 0ef8 1D4F     		ldr	r7, .L300+16
 778:HANcoder_E407_TTA_CombineModel.c ****         canTxData.uint8_T_info[2] = ((uint8_T)0U);
 3725              		.loc 1 778 35 view .LVU1381
 3726 0efa 5A70     		strb	r2, [r3, #1]
 754:HANcoder_E407_TTA_CombineModel.c **** 
 3727              		.loc 1 754 28 view .LVU1382
 3728 0efc B4F8C820 		ldrh	r2, [r4, #200]
 754:HANcoder_E407_TTA_CombineModel.c **** 
 3729              		.loc 1 754 19 view .LVU1383
 3730 0f00 3A80     		strh	r2, [r7]	@ movhi
 760:HANcoder_E407_TTA_CombineModel.c **** 
 3731              		.loc 1 760 7 is_stmt 1 view .LVU1384
 760:HANcoder_E407_TTA_CombineModel.c **** 
 3732              		.loc 1 760 27 is_stmt 0 view .LVU1385
 3733 0f02 0132     		adds	r2, r2, #1
 760:HANcoder_E407_TTA_CombineModel.c **** 
 3734              		.loc 1 760 25 view .LVU1386
 3735 0f04 A4F8C820 		strh	r2, [r4, #200]	@ movhi
 763:HANcoder_E407_TTA_CombineModel.c **** 
 3736              		.loc 1 763 7 is_stmt 1 view .LVU1387
 787:HANcoder_E407_TTA_CombineModel.c ****       }
 3737              		.loc 1 787 9 is_stmt 0 view .LVU1388
 3738 0f08 1A49     		ldr	r1, .L300+20
 763:HANcoder_E407_TTA_CombineModel.c **** 
 3739              		.loc 1 763 36 view .LVU1389
 3740 0f0a 94F8CD20 		ldrb	r2, [r4, #205]	@ zero_extendqisi2
 777:HANcoder_E407_TTA_CombineModel.c ****         canTxData.uint8_T_info[1] = ((uint8_T)1U);
 3741              		.loc 1 777 35 view .LVU1390
 3742 0f0e 1A70     		strb	r2, [r3]
 779:HANcoder_E407_TTA_CombineModel.c ****         canTxData.uint8_T_info[3] = ((uint8_T)0U);
 3743              		.loc 1 779 35 view .LVU1391
 3744 0f10 0020     		movs	r0, #0
 763:HANcoder_E407_TTA_CombineModel.c **** 
 3745              		.loc 1 763 27 view .LVU1392
 3746 0f12 8AF80820 		strb	r2, [r10, #8]
 777:HANcoder_E407_TTA_CombineModel.c ****         canTxData.uint8_T_info[1] = ((uint8_T)1U);
 3747              		.loc 1 777 9 is_stmt 1 view .LVU1393
 778:HANcoder_E407_TTA_CombineModel.c ****         canTxData.uint8_T_info[2] = ((uint8_T)0U);
 3748              		.loc 1 778 9 view .LVU1394
 779:HANcoder_E407_TTA_CombineModel.c ****         canTxData.uint8_T_info[3] = ((uint8_T)0U);
 3749              		.loc 1 779 9 view .LVU1395
 780:HANcoder_E407_TTA_CombineModel.c ****         canTxData.uint8_T_info[4] = ((uint8_T)0U);
 3750              		.loc 1 780 9 view .LVU1396
 781:HANcoder_E407_TTA_CombineModel.c ****         canTxData.uint8_T_info[5] = ((uint8_T)0U);
 3751              		.loc 1 781 9 view .LVU1397
 782:HANcoder_E407_TTA_CombineModel.c ****         canTxData.uint8_T_info[6] = ((uint8_T)0U);
 3752              		.loc 1 782 9 view .LVU1398
 783:HANcoder_E407_TTA_CombineModel.c ****         canTxData.uint8_T_info[7] = ((uint8_T)1U);
 3753              		.loc 1 783 9 view .LVU1399
 784:HANcoder_E407_TTA_CombineModel.c **** 
 3754              		.loc 1 784 9 view .LVU1400
 781:HANcoder_E407_TTA_CombineModel.c ****         canTxData.uint8_T_info[5] = ((uint8_T)0U);
 3755              		.loc 1 781 35 is_stmt 0 view .LVU1401
 3756 0f16 4FF08072 		mov	r2, #16777216
 3757 0f1a 5A60     		str	r2, [r3, #4]
 787:HANcoder_E407_TTA_CombineModel.c ****       }
 3758              		.loc 1 787 9 is_stmt 1 view .LVU1402
 779:HANcoder_E407_TTA_CombineModel.c ****         canTxData.uint8_T_info[3] = ((uint8_T)0U);
 3759              		.loc 1 779 35 is_stmt 0 view .LVU1403
 3760 0f1c 5880     		strh	r0, [r3, #2]	@ movhi
 787:HANcoder_E407_TTA_CombineModel.c ****       }
 3761              		.loc 1 787 9 view .LVU1404
 3762 0f1e 0822     		movs	r2, #8
 3763 0f20 0968     		ldr	r1, [r1]
 3764 0f22 FFF7FEFF 		bl	CanTransmit
 3765              	.LVL316:
 791:HANcoder_E407_TTA_CombineModel.c **** 
 3766              		.loc 1 791 40 view .LVU1405
 3767 0f26 3278     		ldrb	r2, [r6]	@ zero_extendqisi2
 798:HANcoder_E407_TTA_CombineModel.c **** 
 3768              		.loc 1 798 33 view .LVU1406
 3769 0f28 9BF80030 		ldrb	r3, [fp]	@ zero_extendqisi2
 3770 0f2c FFF7F0B8 		b	.L147
 3771              	.L261:
 791:HANcoder_E407_TTA_CombineModel.c **** 
 3772              		.loc 1 791 5 is_stmt 1 view .LVU1407
 791:HANcoder_E407_TTA_CombineModel.c **** 
 3773              		.loc 1 791 40 is_stmt 0 view .LVU1408
 3774 0f30 6B72     		strb	r3, [r5, #9]
 798:HANcoder_E407_TTA_CombineModel.c **** 
 3775              		.loc 1 798 5 is_stmt 1 view .LVU1409
 3776              	.LVL317:
 803:HANcoder_E407_TTA_CombineModel.c ****     {
 3777              		.loc 1 803 5 view .LVU1410
 798:HANcoder_E407_TTA_CombineModel.c **** 
 3778              		.loc 1 798 33 is_stmt 0 view .LVU1411
 3779 0f32 F7EE007A 		vmov.f32	s15, #1.0e+0
 798:HANcoder_E407_TTA_CombineModel.c **** 
 3780              		.loc 1 798 17 view .LVU1412
 3781 0f36 0026     		movs	r6, #0
 3782 0f38 FFF7FDB8 		b	.L75
 3783              	.LVL318:
 3784              	.L287:
1009:HANcoder_E407_TTA_CombineModel.c ****       }
 3785              		.loc 1 1009 9 is_stmt 1 view .LVU1413
 3786 0f3c 0120     		movs	r0, #1
 3787 0f3e FFF7FEFF 		bl	QuadEncResetCounter
 3788              	.LVL319:
 3789 0f42 BEE4     		b	.L83
 3790              	.LVL320:
 3791              	.L290:
1456:HANcoder_E407_TTA_CombineModel.c ****     }
 3792              		.loc 1 1456 7 view .LVU1414
1456:HANcoder_E407_TTA_CombineModel.c ****     }
 3793              		.loc 1 1456 32 is_stmt 0 view .LVU1415
 3794 0f44 0022     		movs	r2, #0
 3795 0f46 84F8D320 		strb	r2, [r4, #211]
1462:HANcoder_E407_TTA_CombineModel.c **** 
 3796              		.loc 1 1462 5 is_stmt 1 view .LVU1416
 3797 0f4a 46E6     		b	.L156
 3798              	.LVL321:
 3799              	.L286:
 975:HANcoder_E407_TTA_CombineModel.c ****       }
 3800              		.loc 1 975 29 is_stmt 0 view .LVU1417
 3801 0f4c 9FED047B 		vldr.64	d7, .L300
 3802 0f50 B0EE47EA 		vmov.f32	s28, s14
 3803 0f54 F0EE67EA 		vmov.f32	s29, s15
 3804 0f58 45E4     		b	.L82
 3805              	.L301:
 3806 0f5a 00BFAFF3 		.align	3
 3806      0080
 3807              	.L300:
 3808 0f60 00000000 		.word	0
 3809 0f64 00000000 		.word	0
 3810 0f68 00000000 		.word	.LANCHOR16
 3811 0f6c 00000000 		.word	.LANCHOR9
 3812 0f70 00000000 		.word	.LANCHOR14
 3813 0f74 00000000 		.word	.LANCHOR15
 3814              		.cfi_endproc
 3815              	.LFE124:
 3817              		.section	.rodata.HANcoder_E407_TTA_CombineModel_initialize.str1.4,"aMS",%progbits,1
 3818              		.align	2
 3819              	.LC1:
 3820 0000 48414E63 		.ascii	"HANcoder_E407_TTA_CombineModel.c\000"
 3820      6F646572 
 3820      5F453430 
 3820      375F5454 
 3820      415F436F 
 3821              		.section	.text.HANcoder_E407_TTA_CombineModel_initialize,"ax",%progbits
 3822              		.align	1
 3823              		.p2align 2,,3
 3824              		.global	HANcoder_E407_TTA_CombineModel_initialize
 3825              		.syntax unified
 3826              		.thumb
 3827              		.thumb_func
 3829              	HANcoder_E407_TTA_CombineModel_initialize:
 3830              	.LFB125:
1720:HANcoder_E407_TTA_CombineModel.c **** 
1721:HANcoder_E407_TTA_CombineModel.c **** /* Model initialize function */
1722:HANcoder_E407_TTA_CombineModel.c **** void HANcoder_E407_TTA_CombineModel_initialize(void)
1723:HANcoder_E407_TTA_CombineModel.c **** {
 3831              		.loc 1 1723 1 is_stmt 1 view -0
 3832              		.cfi_startproc
 3833              		@ args = 0, pretend = 0, frame = 16
 3834              		@ frame_needed = 0, uses_anonymous_args = 0
 3835              	.LBB185:
1724:HANcoder_E407_TTA_CombineModel.c ****   {
1725:HANcoder_E407_TTA_CombineModel.c ****     g_dsp_internal_SlidingWindowAve *obj;
 3836              		.loc 1 1725 5 view .LVU1419
 3837              	.LBB186:
1726:HANcoder_E407_TTA_CombineModel.c **** 
1727:HANcoder_E407_TTA_CombineModel.c ****     {
1728:HANcoder_E407_TTA_CombineModel.c ****       /* user code (Start function Header) */
1729:HANcoder_E407_TTA_CombineModel.c ****       uint8_t canResult1;
 3838              		.loc 1 1729 7 view .LVU1420
1730:HANcoder_E407_TTA_CombineModel.c ****       tCanFilter canFilter1;
 3839              		.loc 1 1730 7 view .LVU1421
1731:HANcoder_E407_TTA_CombineModel.c **** 
1732:HANcoder_E407_TTA_CombineModel.c ****       /* user code (Start function Body) */
1733:HANcoder_E407_TTA_CombineModel.c **** 
1734:HANcoder_E407_TTA_CombineModel.c ****       /* initialize the CAN driver. */
1735:HANcoder_E407_TTA_CombineModel.c ****       CanInit(64, 8);
 3840              		.loc 1 1735 7 view .LVU1422
 3841              	.LBE186:
 3842              	.LBE185:
1723:HANcoder_E407_TTA_CombineModel.c ****   {
 3843              		.loc 1 1723 1 is_stmt 0 view .LVU1423
 3844 0000 70B5     		push	{r4, r5, r6, lr}
 3845              		.cfi_def_cfa_offset 16
 3846              		.cfi_offset 4, -16
 3847              		.cfi_offset 5, -12
 3848              		.cfi_offset 6, -8
 3849              		.cfi_offset 14, -4
 3850              	.LBB213:
 3851              	.LBB211:
 3852              		.loc 1 1735 7 view .LVU1424
 3853 0002 0821     		movs	r1, #8
 3854              	.LBE211:
 3855              	.LBE213:
1723:HANcoder_E407_TTA_CombineModel.c ****   {
 3856              		.loc 1 1723 1 view .LVU1425
 3857 0004 84B0     		sub	sp, sp, #16
 3858              		.cfi_def_cfa_offset 32
 3859              	.LBB214:
 3860              	.LBB212:
 3861              		.loc 1 1735 7 view .LVU1426
 3862 0006 4020     		movs	r0, #64
 3863 0008 FFF7FEFF 		bl	CanInit
 3864              	.LVL322:
1736:HANcoder_E407_TTA_CombineModel.c **** 
1737:HANcoder_E407_TTA_CombineModel.c ****       /* initialize the CAN I/O module for channel 1 */
1738:HANcoder_E407_TTA_CombineModel.c ****       CanIoInit(0);
 3865              		.loc 1 1738 7 is_stmt 1 view .LVU1427
 3866 000c 0020     		movs	r0, #0
 3867 000e FFF7FEFF 		bl	CanIoInit
 3868              	.LVL323:
1739:HANcoder_E407_TTA_CombineModel.c **** 
1740:HANcoder_E407_TTA_CombineModel.c ****       /* initialize the timer module for output compare. */
1741:HANcoder_E407_TTA_CombineModel.c ****       TimeoutInitModule(TIMEOUT_MODULE_TIM4, 1000000);
 3869              		.loc 1 1741 7 view .LVU1428
 3870 0012 5C49     		ldr	r1, .L309
1742:HANcoder_E407_TTA_CombineModel.c **** 
1743:HANcoder_E407_TTA_CombineModel.c ****       /* register the callback handler */
1744:HANcoder_E407_TTA_CombineModel.c ****       TimeoutRegisterCompareEventCallback(TIMEOUT_TIM4_PIN_PD12,
1745:HANcoder_E407_TTA_CombineModel.c ****         TimeoutEventIRQ_TIMEOUT_TIM4_PIN_PD12);
1746:HANcoder_E407_TTA_CombineModel.c **** 
1747:HANcoder_E407_TTA_CombineModel.c ****       /* End of Start for S-Function (sfcn_timeout_event_irq): '<S4>/S-Function' */
1748:HANcoder_E407_TTA_CombineModel.c **** 
1749:HANcoder_E407_TTA_CombineModel.c ****       /* Start for Enabled SubSystem: '<S1>/Message selector'
1750:HANcoder_E407_TTA_CombineModel.c ****        *
1751:HANcoder_E407_TTA_CombineModel.c ****        * Block description for '<S1>/Message selector':
1752:HANcoder_E407_TTA_CombineModel.c ****        *  Truck 1
1753:HANcoder_E407_TTA_CombineModel.c ****        */
1754:HANcoder_E407_TTA_CombineModel.c ****       /* Start for Enabled SubSystem: '<S11>/MMBS1_RX' */
1755:HANcoder_E407_TTA_CombineModel.c ****       /* Constant: '<S11>/Constant12' */
1756:HANcoder_E407_TTA_CombineModel.c ****       MMBS1_RX_Start(MMBS1_ID);
1757:HANcoder_E407_TTA_CombineModel.c **** 
1758:HANcoder_E407_TTA_CombineModel.c ****       /* End of Start for SubSystem: '<S11>/MMBS1_RX' */
1759:HANcoder_E407_TTA_CombineModel.c **** 
1760:HANcoder_E407_TTA_CombineModel.c ****       /* Start for Enabled SubSystem: '<S11>/SSTM1_RX' */
1761:HANcoder_E407_TTA_CombineModel.c ****       /* Constant: '<S11>/Constant14' */
1762:HANcoder_E407_TTA_CombineModel.c ****       MMBS1_RX_Start(SSTM1_ID);
1763:HANcoder_E407_TTA_CombineModel.c **** 
1764:HANcoder_E407_TTA_CombineModel.c ****       /* End of Start for SubSystem: '<S11>/SSTM1_RX' */
1765:HANcoder_E407_TTA_CombineModel.c **** 
1766:HANcoder_E407_TTA_CombineModel.c ****       /* Start for Enabled SubSystem: '<S11>/SYNC1_RX' */
1767:HANcoder_E407_TTA_CombineModel.c ****       /* Start for M-S-Function: '<S44>/S-Function' incorporates:
1768:HANcoder_E407_TTA_CombineModel.c ****        *  Constant: '<S11>/Constant10'
1769:HANcoder_E407_TTA_CombineModel.c ****        */
1770:HANcoder_E407_TTA_CombineModel.c **** 
1771:HANcoder_E407_TTA_CombineModel.c ****       /* register a CAN storage buffer for the message with this ID */
1772:HANcoder_E407_TTA_CombineModel.c ****       CanIoCreateMessageReceivedStorage(0, SYNC1_ID);
 3871              		.loc 1 1772 7 is_stmt 0 view .LVU1429
 3872 0014 5C4E     		ldr	r6, .L309+4
1773:HANcoder_E407_TTA_CombineModel.c **** 
1774:HANcoder_E407_TTA_CombineModel.c ****       /* End of Start for SubSystem: '<S11>/SYNC1_RX' */
1775:HANcoder_E407_TTA_CombineModel.c **** 
1776:HANcoder_E407_TTA_CombineModel.c ****       /* Start for Triggered SubSystem: '<S11>/Slot 5 execution' */
1777:HANcoder_E407_TTA_CombineModel.c ****       /* Start for M-S-Function: '<S53>/Level-2 M-file S-Function' */
1778:HANcoder_E407_TTA_CombineModel.c **** 
1779:HANcoder_E407_TTA_CombineModel.c ****       /* configure the analog input for filtered inputs */
1780:HANcoder_E407_TTA_CombineModel.c ****       AninConfigure(ANIN_PORTF_PIN8,0);
1781:HANcoder_E407_TTA_CombineModel.c **** 
1782:HANcoder_E407_TTA_CombineModel.c ****       /* Start for M-S-Function: '<S52>/Level-2 M-file S-Function' */
1783:HANcoder_E407_TTA_CombineModel.c **** 
1784:HANcoder_E407_TTA_CombineModel.c ****       /* configure the analog input for filtered inputs */
1785:HANcoder_E407_TTA_CombineModel.c ****       AninConfigure(ANIN_PORTF_PIN7,0);
1786:HANcoder_E407_TTA_CombineModel.c **** 
1787:HANcoder_E407_TTA_CombineModel.c ****       /* Start for M-S-Function: '<S54>/Level-2 M-file S-Function' */
1788:HANcoder_E407_TTA_CombineModel.c **** 
1789:HANcoder_E407_TTA_CombineModel.c ****       /* configure the digital output */
1790:HANcoder_E407_TTA_CombineModel.c ****       DigoutConfigure(DIGOUT_PORTE_PIN5, DIGOUT_CFG_PUSHPULL);
1791:HANcoder_E407_TTA_CombineModel.c **** 
1792:HANcoder_E407_TTA_CombineModel.c ****       /* Start for M-S-Function: '<S55>/Level-2 M-file S-Function' */
1793:HANcoder_E407_TTA_CombineModel.c **** 
1794:HANcoder_E407_TTA_CombineModel.c ****       /* configure the digital output */
1795:HANcoder_E407_TTA_CombineModel.c ****       DigoutConfigure(DIGOUT_PORTE_PIN6, DIGOUT_CFG_PUSHPULL);
1796:HANcoder_E407_TTA_CombineModel.c **** 
1797:HANcoder_E407_TTA_CombineModel.c ****       /* Start for S-Function (sfcn_pwmout_init): '<S57>/S-Function' */
1798:HANcoder_E407_TTA_CombineModel.c **** 
1799:HANcoder_E407_TTA_CombineModel.c ****       /* initialize the PWM module and register the callback handler */
1800:HANcoder_E407_TTA_CombineModel.c ****       PwmoutInit(PWMOUT_MODULE_TIM14, 10253, PWMOUT_EDGE_ALIGNMENT);
1801:HANcoder_E407_TTA_CombineModel.c ****       PwmoutRegisterPeriodCompleteCallback(PWMOUT_MODULE_TIM14,
1802:HANcoder_E407_TTA_CombineModel.c ****         PwmoutIRQ_PWMOUT_MODULE_TIM14);
1803:HANcoder_E407_TTA_CombineModel.c **** 
1804:HANcoder_E407_TTA_CombineModel.c ****       /* configures channel 1 */
1805:HANcoder_E407_TTA_CombineModel.c ****       PwmoutConfigure(PWMOUT_TIM14_PIN_PF9, PWMOUT_ACTIVE_HIGH,
1806:HANcoder_E407_TTA_CombineModel.c ****                       PWMOUT_INVERTED_OUTPUT_OFF);
1807:HANcoder_E407_TTA_CombineModel.c **** 
1808:HANcoder_E407_TTA_CombineModel.c ****       /* End of Start for SubSystem: '<S11>/Slot 5 execution' */
1809:HANcoder_E407_TTA_CombineModel.c **** 
1810:HANcoder_E407_TTA_CombineModel.c ****       /* Start for Triggered SubSystem: '<S11>/Subsystem' */
1811:HANcoder_E407_TTA_CombineModel.c ****       /* Start for M-S-Function: '<S61>/Level-2 M-file S-Function' */
1812:HANcoder_E407_TTA_CombineModel.c **** 
1813:HANcoder_E407_TTA_CombineModel.c ****       /* configure the quadrature encoder module */
1814:HANcoder_E407_TTA_CombineModel.c ****       QuadEncConfigure(QUADENC_TIM3_PA6_PB5, QUADENC_CFG_FLOATING);
1815:HANcoder_E407_TTA_CombineModel.c **** 
1816:HANcoder_E407_TTA_CombineModel.c ****       /* Start for MATLABSystem: '<S58>/Moving Average' */
1817:HANcoder_E407_TTA_CombineModel.c ****       rtDWork.obj.isInitialized = 0;
1818:HANcoder_E407_TTA_CombineModel.c ****       rtDWork.obj.NumChannels = -1;
1819:HANcoder_E407_TTA_CombineModel.c ****       rtDWork.obj.FrameLength = -1;
1820:HANcoder_E407_TTA_CombineModel.c ****       rtDWork.obj.matlabCodegenIsDeleted = false;
 3873              		.loc 1 1820 42 view .LVU1430
 3874 0016 5D4D     		ldr	r5, .L309+8
1741:HANcoder_E407_TTA_CombineModel.c **** 
 3875              		.loc 1 1741 7 view .LVU1431
 3876 0018 0320     		movs	r0, #3
 3877 001a FFF7FEFF 		bl	TimeoutInitModule
 3878              	.LVL324:
1744:HANcoder_E407_TTA_CombineModel.c ****         TimeoutEventIRQ_TIMEOUT_TIM4_PIN_PD12);
 3879              		.loc 1 1744 7 is_stmt 1 view .LVU1432
 3880 001e 5C49     		ldr	r1, .L309+12
 3881 0020 0720     		movs	r0, #7
 3882 0022 FFF7FEFF 		bl	TimeoutRegisterCompareEventCallback
 3883              	.LVL325:
1756:HANcoder_E407_TTA_CombineModel.c **** 
 3884              		.loc 1 1756 7 view .LVU1433
 3885              	.LBB187:
 3886              	.LBI187:
 336:HANcoder_E407_TTA_CombineModel.c **** {
 3887              		.loc 1 336 6 view .LVU1434
 3888              	.LBB188:
 341:HANcoder_E407_TTA_CombineModel.c **** }
 3889              		.loc 1 341 3 view .LVU1435
 3890              	.LBE188:
 3891              	.LBE187:
1756:HANcoder_E407_TTA_CombineModel.c **** 
 3892              		.loc 1 1756 7 is_stmt 0 view .LVU1436
 3893 0026 5B4B     		ldr	r3, .L309+16
 3894              	.LBB190:
 3895              	.LBB189:
 341:HANcoder_E407_TTA_CombineModel.c **** }
 3896              		.loc 1 341 3 view .LVU1437
 3897 0028 0020     		movs	r0, #0
 3898 002a 1968     		ldr	r1, [r3]
 3899 002c FFF7FEFF 		bl	CanIoCreateMessageReceivedStorage
 3900              	.LVL326:
 341:HANcoder_E407_TTA_CombineModel.c **** }
 3901              		.loc 1 341 3 view .LVU1438
 3902              	.LBE189:
 3903              	.LBE190:
1762:HANcoder_E407_TTA_CombineModel.c **** 
 3904              		.loc 1 1762 7 is_stmt 1 view .LVU1439
 3905              	.LBB191:
 3906              	.LBI191:
 336:HANcoder_E407_TTA_CombineModel.c **** {
 3907              		.loc 1 336 6 view .LVU1440
 3908              	.LBB192:
 341:HANcoder_E407_TTA_CombineModel.c **** }
 3909              		.loc 1 341 3 view .LVU1441
 3910              	.LBE192:
 3911              	.LBE191:
1762:HANcoder_E407_TTA_CombineModel.c **** 
 3912              		.loc 1 1762 7 is_stmt 0 view .LVU1442
 3913 0030 594B     		ldr	r3, .L309+20
 3914              	.LBB194:
 3915              	.LBB193:
 341:HANcoder_E407_TTA_CombineModel.c **** }
 3916              		.loc 1 341 3 view .LVU1443
 3917 0032 0020     		movs	r0, #0
 3918 0034 1968     		ldr	r1, [r3]
 3919 0036 FFF7FEFF 		bl	CanIoCreateMessageReceivedStorage
 3920              	.LVL327:
 341:HANcoder_E407_TTA_CombineModel.c **** }
 3921              		.loc 1 341 3 view .LVU1444
 3922              	.LBE193:
 3923              	.LBE194:
1772:HANcoder_E407_TTA_CombineModel.c **** 
 3924              		.loc 1 1772 7 is_stmt 1 view .LVU1445
 3925 003a 3168     		ldr	r1, [r6]
 3926 003c 0020     		movs	r0, #0
 3927 003e FFF7FEFF 		bl	CanIoCreateMessageReceivedStorage
 3928              	.LVL328:
1780:HANcoder_E407_TTA_CombineModel.c **** 
 3929              		.loc 1 1780 7 view .LVU1446
 3930 0042 0021     		movs	r1, #0
 3931 0044 0520     		movs	r0, #5
 3932 0046 FFF7FEFF 		bl	AninConfigure
 3933              	.LVL329:
1785:HANcoder_E407_TTA_CombineModel.c **** 
 3934              		.loc 1 1785 7 view .LVU1447
 3935 004a 0021     		movs	r1, #0
 3936 004c 0420     		movs	r0, #4
 3937 004e FFF7FEFF 		bl	AninConfigure
 3938              	.LVL330:
1790:HANcoder_E407_TTA_CombineModel.c **** 
 3939              		.loc 1 1790 7 view .LVU1448
 3940 0052 0121     		movs	r1, #1
 3941 0054 0A20     		movs	r0, #10
 3942 0056 FFF7FEFF 		bl	DigoutConfigure
 3943              	.LVL331:
1795:HANcoder_E407_TTA_CombineModel.c **** 
 3944              		.loc 1 1795 7 view .LVU1449
 3945 005a 0121     		movs	r1, #1
 3946 005c 0B20     		movs	r0, #11
 3947 005e FFF7FEFF 		bl	DigoutConfigure
 3948              	.LVL332:
1800:HANcoder_E407_TTA_CombineModel.c ****       PwmoutRegisterPeriodCompleteCallback(PWMOUT_MODULE_TIM14,
 3949              		.loc 1 1800 7 view .LVU1450
 3950 0062 0022     		movs	r2, #0
 3951 0064 42F60D01 		movw	r1, #10253
 3952 0068 0920     		movs	r0, #9
 3953 006a FFF7FEFF 		bl	PwmoutInit
 3954              	.LVL333:
1801:HANcoder_E407_TTA_CombineModel.c ****         PwmoutIRQ_PWMOUT_MODULE_TIM14);
 3955              		.loc 1 1801 7 view .LVU1451
 3956 006e 4B49     		ldr	r1, .L309+24
 3957 0070 0920     		movs	r0, #9
 3958 0072 FFF7FEFF 		bl	PwmoutRegisterPeriodCompleteCallback
 3959              	.LVL334:
1805:HANcoder_E407_TTA_CombineModel.c ****                       PWMOUT_INVERTED_OUTPUT_OFF);
 3960              		.loc 1 1805 7 view .LVU1452
 3961 0076 0022     		movs	r2, #0
 3962 0078 1146     		mov	r1, r2
 3963 007a 1020     		movs	r0, #16
 3964 007c FFF7FEFF 		bl	PwmoutConfigure
 3965              	.LVL335:
1814:HANcoder_E407_TTA_CombineModel.c **** 
 3966              		.loc 1 1814 7 view .LVU1453
 3967 0080 0021     		movs	r1, #0
 3968 0082 0120     		movs	r0, #1
 3969 0084 FFF7FEFF 		bl	QuadEncConfigure
 3970              	.LVL336:
1817:HANcoder_E407_TTA_CombineModel.c ****       rtDWork.obj.NumChannels = -1;
 3971              		.loc 1 1817 7 view .LVU1454
1818:HANcoder_E407_TTA_CombineModel.c ****       rtDWork.obj.FrameLength = -1;
 3972              		.loc 1 1818 7 view .LVU1455
1819:HANcoder_E407_TTA_CombineModel.c ****       rtDWork.obj.matlabCodegenIsDeleted = false;
 3973              		.loc 1 1819 7 view .LVU1456
 3974              		.loc 1 1820 7 view .LVU1457
 3975              	.LBB195:
 3976              	.LBB196:
 465:HANcoder_E407_TTA_CombineModel.c ****   obj->_pobj0.isInitialized = 0;
 3977              		.loc 1 465 29 is_stmt 0 view .LVU1458
 3978 0088 2A46     		mov	r2, r5
 3979              	.LBE196:
 3980              	.LBE195:
 3981              		.loc 1 1820 42 view .LVU1459
 3982 008a 0024     		movs	r4, #0
 3983              	.LBB200:
 3984              	.LBB197:
 465:HANcoder_E407_TTA_CombineModel.c ****   obj->_pobj0.isInitialized = 0;
 3985              		.loc 1 465 29 view .LVU1460
 3986 008c 42F8384F 		str	r4, [r2, #56]!
 467:HANcoder_E407_TTA_CombineModel.c ****   obj->isSetupComplete = true;
 3987              		.loc 1 467 19 view .LVU1461
 3988 0090 EA62     		str	r2, [r5, #44]
 3989              	.LBE197:
 3990              	.LBE200:
1821:HANcoder_E407_TTA_CombineModel.c ****       SystemCore_setup(&rtDWork.obj);
1822:HANcoder_E407_TTA_CombineModel.c **** 
1823:HANcoder_E407_TTA_CombineModel.c ****       /* End of Start for SubSystem: '<S11>/Subsystem' */
1824:HANcoder_E407_TTA_CombineModel.c **** 
1825:HANcoder_E407_TTA_CombineModel.c ****       /* Start for Enabled SubSystem: '<S11>/TRCK1_ID2_RX' */
1826:HANcoder_E407_TTA_CombineModel.c ****       /* Constant: '<S11>/Constant5' */
1827:HANcoder_E407_TTA_CombineModel.c ****       MMBS1_RX_Start(TRCK1_ID2);
 3991              		.loc 1 1827 7 view .LVU1462
 3992 0092 434A     		ldr	r2, .L309+28
1820:HANcoder_E407_TTA_CombineModel.c ****       SystemCore_setup(&rtDWork.obj);
 3993              		.loc 1 1820 42 view .LVU1463
 3994 0094 2C70     		strb	r4, [r5]
1821:HANcoder_E407_TTA_CombineModel.c ****       SystemCore_setup(&rtDWork.obj);
 3995              		.loc 1 1821 7 is_stmt 1 view .LVU1464
 3996              	.LVL337:
 3997              	.LBB201:
 3998              	.LBI195:
 459:HANcoder_E407_TTA_CombineModel.c **** {
 3999              		.loc 1 459 13 view .LVU1465
 4000              	.LBB198:
 461:HANcoder_E407_TTA_CombineModel.c ****   obj->isInitialized = 1;
 4001              		.loc 1 461 3 view .LVU1466
 462:HANcoder_E407_TTA_CombineModel.c ****   obj->NumChannels = 1;
 4002              		.loc 1 462 3 view .LVU1467
 463:HANcoder_E407_TTA_CombineModel.c ****   obj->FrameLength = 1;
 4003              		.loc 1 463 3 view .LVU1468
 463:HANcoder_E407_TTA_CombineModel.c ****   obj->FrameLength = 1;
 4004              		.loc 1 463 20 is_stmt 0 view .LVU1469
 4005 0096 0123     		movs	r3, #1
 4006              	.LBE198:
 4007              	.LBE201:
 4008              	.LBB202:
 4009              	.LBB203:
 341:HANcoder_E407_TTA_CombineModel.c **** }
 4010              		.loc 1 341 3 view .LVU1470
 4011 0098 1168     		ldr	r1, [r2]
 4012              	.LBE203:
 4013              	.LBE202:
 4014              	.LBB205:
 4015              	.LBB199:
 462:HANcoder_E407_TTA_CombineModel.c ****   obj->NumChannels = 1;
 4016              		.loc 1 462 22 view .LVU1471
 4017 009a 6B60     		str	r3, [r5, #4]
 464:HANcoder_E407_TTA_CombineModel.c ****   obj->_pobj0.isInitialized = 0;
 4018              		.loc 1 464 20 view .LVU1472
 4019 009c C5E90C33 		strd	r3, r3, [r5, #48]
 465:HANcoder_E407_TTA_CombineModel.c ****   obj->_pobj0.isInitialized = 0;
 4020              		.loc 1 465 3 is_stmt 1 view .LVU1473
 466:HANcoder_E407_TTA_CombineModel.c ****   obj->pStatistic = &obj->_pobj0;
 4021              		.loc 1 466 3 view .LVU1474
 467:HANcoder_E407_TTA_CombineModel.c ****   obj->isSetupComplete = true;
 4022              		.loc 1 467 3 view .LVU1475
 468:HANcoder_E407_TTA_CombineModel.c ****   obj->TunablePropsChanged = false;
 4023              		.loc 1 468 3 view .LVU1476
 469:HANcoder_E407_TTA_CombineModel.c **** }
 4024              		.loc 1 469 3 view .LVU1477
 468:HANcoder_E407_TTA_CombineModel.c ****   obj->TunablePropsChanged = false;
 4025              		.loc 1 468 24 is_stmt 0 view .LVU1478
 4026 00a0 2B81     		strh	r3, [r5, #8]	@ movhi
 4027              	.LVL338:
 468:HANcoder_E407_TTA_CombineModel.c ****   obj->TunablePropsChanged = false;
 4028              		.loc 1 468 24 view .LVU1479
 4029              	.LBE199:
 4030              	.LBE205:
 4031              		.loc 1 1827 7 is_stmt 1 view .LVU1480
 4032              	.LBB206:
 4033              	.LBI202:
 336:HANcoder_E407_TTA_CombineModel.c **** {
 4034              		.loc 1 336 6 view .LVU1481
 4035              	.LBB204:
 341:HANcoder_E407_TTA_CombineModel.c **** }
 4036              		.loc 1 341 3 view .LVU1482
 4037 00a2 2046     		mov	r0, r4
 4038 00a4 FFF7FEFF 		bl	CanIoCreateMessageReceivedStorage
 4039              	.LVL339:
 341:HANcoder_E407_TTA_CombineModel.c **** }
 4040              		.loc 1 341 3 is_stmt 0 view .LVU1483
 4041              	.LBE204:
 4042              	.LBE206:
1828:HANcoder_E407_TTA_CombineModel.c **** 
1829:HANcoder_E407_TTA_CombineModel.c ****       /* End of Start for SubSystem: '<S11>/TRCK1_ID2_RX' */
1830:HANcoder_E407_TTA_CombineModel.c **** 
1831:HANcoder_E407_TTA_CombineModel.c ****       /* Start for Enabled SubSystem: '<S11>/TRCK1_RX' */
1832:HANcoder_E407_TTA_CombineModel.c ****       /* Constant: '<S11>/Constant3' */
1833:HANcoder_E407_TTA_CombineModel.c ****       MMBS1_RX_Start(TRCK1_ID1);
 4043              		.loc 1 1833 7 is_stmt 1 view .LVU1484
 4044              	.LBB207:
 4045              	.LBI207:
 336:HANcoder_E407_TTA_CombineModel.c **** {
 4046              		.loc 1 336 6 view .LVU1485
 4047              	.LBB208:
 341:HANcoder_E407_TTA_CombineModel.c **** }
 4048              		.loc 1 341 3 view .LVU1486
 4049              	.LBE208:
 4050              	.LBE207:
 4051              		.loc 1 1833 7 is_stmt 0 view .LVU1487
 4052 00a8 3E4B     		ldr	r3, .L309+32
 4053              	.LBB210:
 4054              	.LBB209:
 341:HANcoder_E407_TTA_CombineModel.c **** }
 4055              		.loc 1 341 3 view .LVU1488
 4056 00aa 2046     		mov	r0, r4
 4057 00ac 1968     		ldr	r1, [r3]
 4058 00ae FFF7FEFF 		bl	CanIoCreateMessageReceivedStorage
 4059              	.LVL340:
 341:HANcoder_E407_TTA_CombineModel.c **** }
 4060              		.loc 1 341 3 view .LVU1489
 4061              	.LBE209:
 4062              	.LBE210:
1834:HANcoder_E407_TTA_CombineModel.c **** 
1835:HANcoder_E407_TTA_CombineModel.c ****       /* End of Start for SubSystem: '<S11>/TRCK1_RX' */
1836:HANcoder_E407_TTA_CombineModel.c **** 
1837:HANcoder_E407_TTA_CombineModel.c ****       /* Start for Enabled SubSystem: '<S11>/TRCK_ID3_RX' */
1838:HANcoder_E407_TTA_CombineModel.c ****       /* Start for M-S-Function: '<S124>/S-Function' incorporates:
1839:HANcoder_E407_TTA_CombineModel.c ****        *  Constant: '<S11>/Constant26'
1840:HANcoder_E407_TTA_CombineModel.c ****        */
1841:HANcoder_E407_TTA_CombineModel.c **** 
1842:HANcoder_E407_TTA_CombineModel.c ****       /* register a CAN storage buffer for the message with this ID */
1843:HANcoder_E407_TTA_CombineModel.c ****       CanIoCreateMessageReceivedStorage(0, TRCK1_ID3);
 4063              		.loc 1 1843 7 is_stmt 1 view .LVU1490
 4064 00b2 3D4B     		ldr	r3, .L309+36
 4065 00b4 2046     		mov	r0, r4
 4066 00b6 1968     		ldr	r1, [r3]
 4067 00b8 FFF7FEFF 		bl	CanIoCreateMessageReceivedStorage
 4068              	.LVL341:
1844:HANcoder_E407_TTA_CombineModel.c **** 
1845:HANcoder_E407_TTA_CombineModel.c ****       /* End of Start for SubSystem: '<S11>/TRCK_ID3_RX' */
1846:HANcoder_E407_TTA_CombineModel.c **** 
1847:HANcoder_E407_TTA_CombineModel.c ****       /* Start for Enabled SubSystem: '<S11>/TRLS_ID4_RX' */
1848:HANcoder_E407_TTA_CombineModel.c ****       /* Start for M-S-Function: '<S127>/S-Function' incorporates:
1849:HANcoder_E407_TTA_CombineModel.c ****        *  Constant: '<S11>/Constant8'
1850:HANcoder_E407_TTA_CombineModel.c ****        */
1851:HANcoder_E407_TTA_CombineModel.c **** 
1852:HANcoder_E407_TTA_CombineModel.c ****       /* register a CAN storage buffer for the message with this ID */
1853:HANcoder_E407_TTA_CombineModel.c ****       CanIoCreateMessageReceivedStorage(0, TRLS1_ID4);
 4069              		.loc 1 1853 7 view .LVU1491
 4070 00bc 3B4B     		ldr	r3, .L309+40
 4071 00be 2046     		mov	r0, r4
 4072 00c0 1968     		ldr	r1, [r3]
 4073 00c2 FFF7FEFF 		bl	CanIoCreateMessageReceivedStorage
 4074              	.LVL342:
1854:HANcoder_E407_TTA_CombineModel.c **** 
1855:HANcoder_E407_TTA_CombineModel.c ****       /* End of Start for SubSystem: '<S11>/TRLS_ID4_RX' */
1856:HANcoder_E407_TTA_CombineModel.c **** 
1857:HANcoder_E407_TTA_CombineModel.c ****       /* Start for Enabled SubSystem: '<S11>/TRLS_ID5_RX' */
1858:HANcoder_E407_TTA_CombineModel.c ****       /* Start for M-S-Function: '<S136>/S-Function' incorporates:
1859:HANcoder_E407_TTA_CombineModel.c ****        *  Constant: '<S11>/Constant18'
1860:HANcoder_E407_TTA_CombineModel.c ****        */
1861:HANcoder_E407_TTA_CombineModel.c **** 
1862:HANcoder_E407_TTA_CombineModel.c ****       /* register a CAN storage buffer for the message with this ID */
1863:HANcoder_E407_TTA_CombineModel.c ****       CanIoCreateMessageReceivedStorage(0, TRLS1_ID5);
 4075              		.loc 1 1863 7 view .LVU1492
 4076 00c6 3A4B     		ldr	r3, .L309+44
 4077 00c8 2046     		mov	r0, r4
 4078 00ca 1968     		ldr	r1, [r3]
 4079 00cc FFF7FEFF 		bl	CanIoCreateMessageReceivedStorage
 4080              	.LVL343:
1864:HANcoder_E407_TTA_CombineModel.c **** 
1865:HANcoder_E407_TTA_CombineModel.c ****       /* End of Start for SubSystem: '<S11>/TRLS_ID5_RX' */
1866:HANcoder_E407_TTA_CombineModel.c ****       /* End of Start for SubSystem: '<S1>/Message selector' */
1867:HANcoder_E407_TTA_CombineModel.c **** 
1868:HANcoder_E407_TTA_CombineModel.c ****       /* Start for Enabled SubSystem: '<S13>/Subsystem2' */
1869:HANcoder_E407_TTA_CombineModel.c ****       /* Start for M-S-Function: '<S146>/S-Function' incorporates:
1870:HANcoder_E407_TTA_CombineModel.c ****        *  Constant: '<S145>/Constant10'
1871:HANcoder_E407_TTA_CombineModel.c ****        */
1872:HANcoder_E407_TTA_CombineModel.c **** 
1873:HANcoder_E407_TTA_CombineModel.c ****       /* register a CAN storage buffer for the message with this ID */
1874:HANcoder_E407_TTA_CombineModel.c ****       CanIoCreateMessageReceivedStorage(0, SYNC1_ID);
 4081              		.loc 1 1874 7 view .LVU1493
 4082 00d0 3168     		ldr	r1, [r6]
 4083 00d2 2046     		mov	r0, r4
 4084 00d4 FFF7FEFF 		bl	CanIoCreateMessageReceivedStorage
 4085              	.LVL344:
1875:HANcoder_E407_TTA_CombineModel.c **** 
1876:HANcoder_E407_TTA_CombineModel.c ****       /* End of Start for SubSystem: '<S13>/Subsystem2' */
1877:HANcoder_E407_TTA_CombineModel.c **** 
1878:HANcoder_E407_TTA_CombineModel.c ****       /* Start for M-S-Function: '<S6>/Level-2 M-file S-Function' */
1879:HANcoder_E407_TTA_CombineModel.c **** 
1880:HANcoder_E407_TTA_CombineModel.c ****       /* configure the digital input */
1881:HANcoder_E407_TTA_CombineModel.c ****       DiginConfigure(DIGIN_PORTG_PIN12, DIGIN_CFG_PULLDOWN);
 4086              		.loc 1 1881 7 view .LVU1494
 4087 00d8 0221     		movs	r1, #2
 4088 00da 0E20     		movs	r0, #14
 4089 00dc FFF7FEFF 		bl	DiginConfigure
 4090              	.LVL345:
1882:HANcoder_E407_TTA_CombineModel.c **** 
1883:HANcoder_E407_TTA_CombineModel.c ****       /* Start for M-S-Function: '<S7>/Level-2 M-file S-Function' */
1884:HANcoder_E407_TTA_CombineModel.c **** 
1885:HANcoder_E407_TTA_CombineModel.c ****       /* configure the digital input */
1886:HANcoder_E407_TTA_CombineModel.c ****       DiginConfigure(DIGIN_PORTG_PIN15, DIGIN_CFG_PULLDOWN);
 4091              		.loc 1 1886 7 view .LVU1495
 4092 00e0 0221     		movs	r1, #2
 4093 00e2 0F20     		movs	r0, #15
 4094 00e4 FFF7FEFF 		bl	DiginConfigure
 4095              	.LVL346:
1887:HANcoder_E407_TTA_CombineModel.c **** 
1888:HANcoder_E407_TTA_CombineModel.c ****       /* Start for M-S-Function: '<S8>/Level-2 M-file S-Function' */
1889:HANcoder_E407_TTA_CombineModel.c **** 
1890:HANcoder_E407_TTA_CombineModel.c ****       /* configure the digital input */
1891:HANcoder_E407_TTA_CombineModel.c ****       DiginConfigure(DIGIN_PORTA_PIN4, DIGIN_CFG_PULLDOWN);
 4096              		.loc 1 1891 7 view .LVU1496
 4097 00e8 0221     		movs	r1, #2
 4098 00ea 1020     		movs	r0, #16
 4099 00ec FFF7FEFF 		bl	DiginConfigure
 4100              	.LVL347:
1892:HANcoder_E407_TTA_CombineModel.c **** 
1893:HANcoder_E407_TTA_CombineModel.c ****       /* Start for M-S-Function: '<S2>/Level-2 M-file S-Function' */
1894:HANcoder_E407_TTA_CombineModel.c **** 
1895:HANcoder_E407_TTA_CombineModel.c ****       /* configure the stack size for the task that executes the model */
1896:HANcoder_E407_TTA_CombineModel.c ****       AppCtrlTaskSetStackSize((configMINIMAL_STACK_SIZE*sizeof(portBASE_TYPE)) +
 4101              		.loc 1 1896 7 view .LVU1497
 4102 00f0 4FF41970 		mov	r0, #612
 4103 00f4 FFF7FEFF 		bl	AppCtrlTaskSetStackSize
 4104              	.LVL348:
1897:HANcoder_E407_TTA_CombineModel.c ****         100);
1898:HANcoder_E407_TTA_CombineModel.c **** 
1899:HANcoder_E407_TTA_CombineModel.c ****       /* configure the sample time of the model in microseconds */
1900:HANcoder_E407_TTA_CombineModel.c ****       AppCtrlTaskSetPeriod(1000);
 4105              		.loc 1 1900 7 view .LVU1498
 4106 00f8 4FF47A70 		mov	r0, #1000
 4107 00fc FFF7FEFF 		bl	AppCtrlTaskSetPeriod
 4108              	.LVL349:
1901:HANcoder_E407_TTA_CombineModel.c **** 
1902:HANcoder_E407_TTA_CombineModel.c ****       /* Run the ADC conversions ten times faster than the Simulink model */
1903:HANcoder_E407_TTA_CombineModel.c ****       ADCconversionTaskSetPeriod(1000/10);
 4109              		.loc 1 1903 7 view .LVU1499
 4110 0100 6420     		movs	r0, #100
 4111 0102 FFF7FEFF 		bl	ADCconversionTaskSetPeriod
 4112              	.LVL350:
1904:HANcoder_E407_TTA_CombineModel.c **** 
1905:HANcoder_E407_TTA_CombineModel.c ****       /* Start for M-S-Function: '<S3>/Level-2 M-file S-Function' */
1906:HANcoder_E407_TTA_CombineModel.c **** 
1907:HANcoder_E407_TTA_CombineModel.c ****       /* store the CAN controller's filter configuration */
1908:HANcoder_E407_TTA_CombineModel.c ****       canFilter1.mask = 0x00000000;
 4113              		.loc 1 1908 7 view .LVU1500
1909:HANcoder_E407_TTA_CombineModel.c ****       canFilter1.code = 0x00000000;
1910:HANcoder_E407_TTA_CombineModel.c ****       canFilter1.mode = CAN_FILTER_MODE_STDID_ONLY;
1911:HANcoder_E407_TTA_CombineModel.c **** 
1912:HANcoder_E407_TTA_CombineModel.c ****       /* connect and synchronize the CAN bus */
1913:HANcoder_E407_TTA_CombineModel.c ****       canResult1 = CanConnect(0, 250000, &canFilter1);
 4114              		.loc 1 1913 20 is_stmt 0 view .LVU1501
 4115 0106 2B49     		ldr	r1, .L309+48
1910:HANcoder_E407_TTA_CombineModel.c **** 
 4116              		.loc 1 1910 23 view .LVU1502
 4117 0108 8DF80C40 		strb	r4, [sp, #12]
 4118              		.loc 1 1913 20 view .LVU1503
 4119 010c 01AA     		add	r2, sp, #4
 4120 010e 2046     		mov	r0, r4
1909:HANcoder_E407_TTA_CombineModel.c ****       canFilter1.code = 0x00000000;
 4121              		.loc 1 1909 23 view .LVU1504
 4122 0110 CDE90144 		strd	r4, r4, [sp, #4]
1910:HANcoder_E407_TTA_CombineModel.c **** 
 4123              		.loc 1 1910 7 is_stmt 1 view .LVU1505
 4124              		.loc 1 1913 7 view .LVU1506
 4125              		.loc 1 1913 20 is_stmt 0 view .LVU1507
 4126 0114 FFF7FEFF 		bl	CanConnect
 4127              	.LVL351:
1914:HANcoder_E407_TTA_CombineModel.c ****       configASSERT(canResult1 == TRUE);
 4128              		.loc 1 1914 7 is_stmt 1 view .LVU1508
 4129 0118 0128     		cmp	r0, #1
 4130 011a 04D0     		beq	.L303
 4131              		.loc 1 1914 7 discriminator 2 view .LVU1509
 4132 011c 2648     		ldr	r0, .L309+52
 4133              	.LVL352:
 4134              		.loc 1 1914 7 is_stmt 0 discriminator 2 view .LVU1510
 4135 011e 40F27A71 		movw	r1, #1914
 4136 0122 FFF7FEFF 		bl	AssertFailure
 4137              	.LVL353:
 4138              	.L303:
1915:HANcoder_E407_TTA_CombineModel.c **** 
1916:HANcoder_E407_TTA_CombineModel.c ****       /* Start for S-Function (sfcn_timeout_init): '<S12>/S-Function' */
1917:HANcoder_E407_TTA_CombineModel.c **** 
1918:HANcoder_E407_TTA_CombineModel.c ****       /* register the free running counter overflow callback handler */
1919:HANcoder_E407_TTA_CombineModel.c ****       TimeoutRegisterOverflowCallback(TIMEOUT_MODULE_TIM4,
 4139              		.loc 1 1919 7 is_stmt 1 view .LVU1511
 4140 0126 2549     		ldr	r1, .L309+56
 4141 0128 0320     		movs	r0, #3
 4142 012a FFF7FEFF 		bl	TimeoutRegisterOverflowCallback
 4143              	.LVL354:
1920:HANcoder_E407_TTA_CombineModel.c ****         TimeoutOverflowIRQ_TIMEOUT_MODULE_TIM4);
1921:HANcoder_E407_TTA_CombineModel.c **** 
1922:HANcoder_E407_TTA_CombineModel.c ****       /* Start for M-S-Function: '<S15>/Level-2 M-file S-Function' */
1923:HANcoder_E407_TTA_CombineModel.c **** 
1924:HANcoder_E407_TTA_CombineModel.c ****       /* initialize the measurement and calibration interface */
1925:HANcoder_E407_TTA_CombineModel.c ****       MacUsbComInit();
 4144              		.loc 1 1925 7 view .LVU1512
 4145 012e FFF7FEFF 		bl	MacUsbComInit
 4146              	.LVL355:
1926:HANcoder_E407_TTA_CombineModel.c ****       MacInit();
 4147              		.loc 1 1926 7 view .LVU1513
 4148 0132 FFF7FEFF 		bl	MacInit
 4149              	.LVL356:
 4150              	.LBE212:
1927:HANcoder_E407_TTA_CombineModel.c ****     }
1928:HANcoder_E407_TTA_CombineModel.c **** 
1929:HANcoder_E407_TTA_CombineModel.c ****     rtPrevZCSigState.EnabledSubsystem_Trig_ZCE = POS_ZCSIG;
 4151              		.loc 1 1929 5 view .LVU1514
1930:HANcoder_E407_TTA_CombineModel.c ****     rtPrevZCSigState.Subsystem_Trig_ZCE_h = UNINITIALIZED_ZCSIG;
 4152              		.loc 1 1930 5 view .LVU1515
1931:HANcoder_E407_TTA_CombineModel.c ****     rtPrevZCSigState.SYNC1_TX_Trig_ZCE = POS_ZCSIG;
 4153              		.loc 1 1931 5 view .LVU1516
1932:HANcoder_E407_TTA_CombineModel.c ****     rtPrevZCSigState.Slot5execution_Trig_ZCE = POS_ZCSIG;
 4154              		.loc 1 1932 5 view .LVU1517
1933:HANcoder_E407_TTA_CombineModel.c ****     rtPrevZCSigState.Subsystem_Trig_ZCE_g = POS_ZCSIG;
 4155              		.loc 1 1933 5 view .LVU1518
1934:HANcoder_E407_TTA_CombineModel.c ****     rtPrevZCSigState.TRLS_ID4_TX_Trig_ZCE = POS_ZCSIG;
 4156              		.loc 1 1934 5 view .LVU1519
1935:HANcoder_E407_TTA_CombineModel.c ****     rtPrevZCSigState.TRLS_ID5_TX_Trig_ZCE = POS_ZCSIG;
 4157              		.loc 1 1935 5 view .LVU1520
1936:HANcoder_E407_TTA_CombineModel.c ****     rtPrevZCSigState.Subsystem_Trig_ZCE = POS_ZCSIG;
 4158              		.loc 1 1936 5 view .LVU1521
1937:HANcoder_E407_TTA_CombineModel.c ****     rtPrevZCSigState.Subsystem1_Trig_ZCE = UNINITIALIZED_ZCSIG;
 4159              		.loc 1 1937 5 view .LVU1522
1938:HANcoder_E407_TTA_CombineModel.c ****     rtPrevZCSigState.TRCK1_TX.MMBS1_TX_Trig_ZCE = POS_ZCSIG;
 4160              		.loc 1 1938 5 view .LVU1523
1939:HANcoder_E407_TTA_CombineModel.c ****     rtPrevZCSigState.TRCK1_ID3_TX.MMBS1_TX_Trig_ZCE = POS_ZCSIG;
 4161              		.loc 1 1939 5 view .LVU1524
1940:HANcoder_E407_TTA_CombineModel.c ****     rtPrevZCSigState.TRCK1_ID2_TX.MMBS1_TX_Trig_ZCE = POS_ZCSIG;
 4162              		.loc 1 1940 5 view .LVU1525
1941:HANcoder_E407_TTA_CombineModel.c ****     rtPrevZCSigState.SSTM1_TX.MMBS1_TX_Trig_ZCE = POS_ZCSIG;
 4163              		.loc 1 1941 5 view .LVU1526
1942:HANcoder_E407_TTA_CombineModel.c ****     rtPrevZCSigState.MMBS1_TX_a.MMBS1_TX_Trig_ZCE = POS_ZCSIG;
 4164              		.loc 1 1942 5 view .LVU1527
1937:HANcoder_E407_TTA_CombineModel.c ****     rtPrevZCSigState.TRCK1_TX.MMBS1_TX_Trig_ZCE = POS_ZCSIG;
 4165              		.loc 1 1937 42 is_stmt 0 view .LVU1528
 4166 0136 224B     		ldr	r3, .L309+60
1932:HANcoder_E407_TTA_CombineModel.c ****     rtPrevZCSigState.Subsystem_Trig_ZCE_g = POS_ZCSIG;
 4167              		.loc 1 1932 46 view .LVU1529
 4168 0138 2249     		ldr	r1, .L309+64
1937:HANcoder_E407_TTA_CombineModel.c ****     rtPrevZCSigState.TRCK1_TX.MMBS1_TX_Trig_ZCE = POS_ZCSIG;
 4169              		.loc 1 1937 42 view .LVU1530
 4170 013a 234A     		ldr	r2, .L309+68
 4171 013c 1A60     		str	r2, [r3]
1938:HANcoder_E407_TTA_CombineModel.c ****     rtPrevZCSigState.TRCK1_ID3_TX.MMBS1_TX_Trig_ZCE = POS_ZCSIG;
 4172              		.loc 1 1938 49 view .LVU1531
 4173 013e 4FF00130 		mov	r0, #16843009
1932:HANcoder_E407_TTA_CombineModel.c ****     rtPrevZCSigState.Subsystem_Trig_ZCE_g = POS_ZCSIG;
 4174              		.loc 1 1932 46 view .LVU1532
 4175 0142 C3E90101 		strd	r0, r1, [r3, #4]
 4176              		.loc 1 1942 51 view .LVU1533
 4177 0146 40F20114 		movw	r4, #257
 4178 014a 9C81     		strh	r4, [r3, #12]	@ movhi
1943:HANcoder_E407_TTA_CombineModel.c **** 
1944:HANcoder_E407_TTA_CombineModel.c ****     /* SystemInitialize for Enabled SubSystem: '<S1>/Message selector'
1945:HANcoder_E407_TTA_CombineModel.c ****      *
1946:HANcoder_E407_TTA_CombineModel.c ****      * Block description for '<S1>/Message selector':
1947:HANcoder_E407_TTA_CombineModel.c ****      *  Truck 1
1948:HANcoder_E407_TTA_CombineModel.c ****      */
1949:HANcoder_E407_TTA_CombineModel.c ****     /* SystemInitialize for Triggered SubSystem: '<S11>/Subsystem' */
1950:HANcoder_E407_TTA_CombineModel.c ****     rtDWork.Subsystem_PREV_T[0] = rtM->Timing.clockTick0;
 4179              		.loc 1 1950 5 is_stmt 1 view .LVU1534
1951:HANcoder_E407_TTA_CombineModel.c ****     rtDWork.Subsystem_PREV_T[1] = rtM->Timing.clockTickH0;
1952:HANcoder_E407_TTA_CombineModel.c **** 
1953:HANcoder_E407_TTA_CombineModel.c ****     /* InitializeConditions for MATLABSystem: '<S58>/Moving Average' */
1954:HANcoder_E407_TTA_CombineModel.c ****     obj = rtDWork.obj.pStatistic;
 4180              		.loc 1 1954 9 is_stmt 0 view .LVU1535
 4181 014c EA6A     		ldr	r2, [r5, #44]
1950:HANcoder_E407_TTA_CombineModel.c ****     rtDWork.Subsystem_PREV_T[1] = rtM->Timing.clockTickH0;
 4182              		.loc 1 1950 46 view .LVU1536
 4183 014e 1F4B     		ldr	r3, .L309+72
1955:HANcoder_E407_TTA_CombineModel.c ****     if (obj->isInitialized == 1) {
 4184              		.loc 1 1955 8 view .LVU1537
 4185 0150 1168     		ldr	r1, [r2]
1951:HANcoder_E407_TTA_CombineModel.c ****     rtDWork.Subsystem_PREV_T[1] = rtM->Timing.clockTickH0;
 4186              		.loc 1 1951 33 view .LVU1538
 4187 0152 D3E90003 		ldrd	r0, r3, [r3]
 4188              		.loc 1 1955 8 view .LVU1539
 4189 0156 0129     		cmp	r1, #1
1951:HANcoder_E407_TTA_CombineModel.c ****     rtDWork.Subsystem_PREV_T[1] = rtM->Timing.clockTickH0;
 4190              		.loc 1 1951 33 view .LVU1540
 4191 0158 C5E92E03 		strd	r0, r3, [r5, #184]
1954:HANcoder_E407_TTA_CombineModel.c ****     if (obj->isInitialized == 1) {
 4192              		.loc 1 1954 5 is_stmt 1 view .LVU1541
 4193              	.LVL357:
 4194              		.loc 1 1955 5 view .LVU1542
 4195              		.loc 1 1955 8 is_stmt 0 view .LVU1543
 4196 015c 0FD1     		bne	.L302
1956:HANcoder_E407_TTA_CombineModel.c ****       obj->pCumSum = 0.0;
 4197              		.loc 1 1956 7 is_stmt 1 view .LVU1544
1957:HANcoder_E407_TTA_CombineModel.c ****       obj->pCumSumRev[0] = 0.0;
1958:HANcoder_E407_TTA_CombineModel.c ****       obj->pCumSumRev[1] = 0.0;
1959:HANcoder_E407_TTA_CombineModel.c ****       obj->pCumSumRev[2] = 0.0;
1960:HANcoder_E407_TTA_CombineModel.c ****       obj->pCumRevIndex = 1.0;
 4198              		.loc 1 1960 25 is_stmt 0 view .LVU1545
 4199 015e 1C4D     		ldr	r5, .L309+76
1956:HANcoder_E407_TTA_CombineModel.c ****       obj->pCumSum = 0.0;
 4200              		.loc 1 1956 20 view .LVU1546
 4201 0160 0020     		movs	r0, #0
 4202 0162 0021     		movs	r1, #0
 4203              		.loc 1 1960 25 view .LVU1547
 4204 0164 0024     		movs	r4, #0
1956:HANcoder_E407_TTA_CombineModel.c ****       obj->pCumSum = 0.0;
 4205              		.loc 1 1956 20 view .LVU1548
 4206 0166 C2E90201 		strd	r0, [r2, #8]
1957:HANcoder_E407_TTA_CombineModel.c ****       obj->pCumSumRev[0] = 0.0;
 4207              		.loc 1 1957 7 is_stmt 1 view .LVU1549
1957:HANcoder_E407_TTA_CombineModel.c ****       obj->pCumSumRev[0] = 0.0;
 4208              		.loc 1 1957 26 is_stmt 0 view .LVU1550
 4209 016a C2E90401 		strd	r0, [r2, #16]
1958:HANcoder_E407_TTA_CombineModel.c ****       obj->pCumSumRev[2] = 0.0;
 4210              		.loc 1 1958 7 is_stmt 1 view .LVU1551
1958:HANcoder_E407_TTA_CombineModel.c ****       obj->pCumSumRev[2] = 0.0;
 4211              		.loc 1 1958 26 is_stmt 0 view .LVU1552
 4212 016e C2E90601 		strd	r0, [r2, #24]
1959:HANcoder_E407_TTA_CombineModel.c ****       obj->pCumRevIndex = 1.0;
 4213              		.loc 1 1959 7 is_stmt 1 view .LVU1553
1959:HANcoder_E407_TTA_CombineModel.c ****       obj->pCumRevIndex = 1.0;
 4214              		.loc 1 1959 26 is_stmt 0 view .LVU1554
 4215 0172 C2E90801 		strd	r0, [r2, #32]
 4216              		.loc 1 1960 7 is_stmt 1 view .LVU1555
 4217              		.loc 1 1960 25 is_stmt 0 view .LVU1556
 4218 0176 C2E90A45 		strd	r4, [r2, #40]
1961:HANcoder_E407_TTA_CombineModel.c ****       obj->pModValueRev = 0.0;
 4219              		.loc 1 1961 7 is_stmt 1 view .LVU1557
 4220              		.loc 1 1961 25 is_stmt 0 view .LVU1558
 4221 017a C2E90C01 		strd	r0, [r2, #48]
 4222              	.L302:
 4223              	.LBE214:
1962:HANcoder_E407_TTA_CombineModel.c ****     }
1963:HANcoder_E407_TTA_CombineModel.c **** 
1964:HANcoder_E407_TTA_CombineModel.c ****     /* End of InitializeConditions for MATLABSystem: '<S58>/Moving Average' */
1965:HANcoder_E407_TTA_CombineModel.c ****     /* End of SystemInitialize for SubSystem: '<S11>/Subsystem' */
1966:HANcoder_E407_TTA_CombineModel.c ****     /* End of SystemInitialize for SubSystem: '<S1>/Message selector' */
1967:HANcoder_E407_TTA_CombineModel.c ****   }
1968:HANcoder_E407_TTA_CombineModel.c **** }
 4224              		.loc 1 1968 1 view .LVU1559
 4225 017e 04B0     		add	sp, sp, #16
 4226              		.cfi_def_cfa_offset 16
 4227              		@ sp needed
 4228 0180 70BD     		pop	{r4, r5, r6, pc}
 4229              	.L310:
 4230 0182 00BF     		.align	2
 4231              	.L309:
 4232 0184 40420F00 		.word	1000000
 4233 0188 00000000 		.word	.LANCHOR15
 4234 018c 00000000 		.word	.LANCHOR2
 4235 0190 00000000 		.word	TimeoutEventIRQ_TIMEOUT_TIM4_PIN_PD12
 4236 0194 00000000 		.word	.LANCHOR11
 4237 0198 00000000 		.word	.LANCHOR12
 4238 019c 00000000 		.word	PwmoutIRQ_PWMOUT_MODULE_TIM14
 4239 01a0 00000000 		.word	.LANCHOR35
 4240 01a4 00000000 		.word	.LANCHOR37
 4241 01a8 00000000 		.word	.LANCHOR36
 4242 01ac 00000000 		.word	.LANCHOR40
 4243 01b0 00000000 		.word	.LANCHOR42
 4244 01b4 90D00300 		.word	250000
 4245 01b8 00000000 		.word	.LC1
 4246 01bc 00000000 		.word	TimeoutOverflowIRQ_TIMEOUT_MODULE_TIM4
 4247 01c0 00000000 		.word	.LANCHOR5
 4248 01c4 01010301 		.word	16974081
 4249 01c8 03010101 		.word	16843011
 4250 01cc 00000000 		.word	.LANCHOR20
 4251 01d0 0000F03F 		.word	1072693248
 4252              		.cfi_endproc
 4253              	.LFE125:
 4255              		.global	rtM
 4256              		.global	rtPrevZCSigState
 4257              		.global	rtDWork
 4258              		.global	rtB
 4259              		.global	slotTime
 4260              		.global	TRLS1_ID5
 4261              		.global	TRLS1_ID4
 4262              		.global	TRCK1_ID3
 4263              		.global	TRCK1_ID2
 4264              		.global	TRCK1_ID1
 4265              		.global	SYNC1_ID
 4266              		.global	SSTM1_ID
 4267              		.global	MMBS1_ID
 4268              		.global	propVal
 4269              		.global	matrixRows
 4270              		.global	intVal
 4271              		.global	desiredAngle
 4272              		.global	ClockOn
 4273              		.global	canActive
 4274              		.global	ccw
 4275              		.global	cw
 4276              		.global	boolCan
 4277              		.global	slotSelected
 4278              		.global	setSlotTime
 4279              		.global	SI_CPUload
 4280              		.global	local_ticks_interrupt
 4281              		.global	testCounter
 4282              		.global	analogPot1
 4283              		.global	analogPot2
 4284              		.global	mospeed
 4285              		.global	Gamma2
 4286              		.global	t1Angle
 4287              		.global	t2Angle
 4288              		.global	delta12K
 4289              		.global	SI_FreeStack
 4290              		.global	SI_FreeHeap
 4291              		.global	control
 4292              		.global	position
 4293              		.global	steering
 4294              		.global	Gamma1
 4295              		.global	reqAngle
 4296              		.section	.bss.Gamma1,"aw",%nobits
 4297              		.align	3
 4298              		.set	.LANCHOR25,. + 0
 4301              	Gamma1:
 4302 0000 00000000 		.space	8
 4302      00000000 
 4303              		.section	.bss.Gamma2,"aw",%nobits
 4304              		.align	1
 4305              		.set	.LANCHOR24,. + 0
 4308              	Gamma2:
 4309 0000 0000     		.space	2
 4310              		.section	.bss.SI_CPUload,"aw",%nobits
 4311              		.set	.LANCHOR44,. + 0
 4314              	SI_CPUload:
 4315 0000 00       		.space	1
 4316              		.section	.bss.SI_FreeHeap,"aw",%nobits
 4317              		.align	2
 4318              		.set	.LANCHOR45,. + 0
 4321              	SI_FreeHeap:
 4322 0000 00000000 		.space	4
 4323              		.section	.bss.SI_FreeStack,"aw",%nobits
 4324              		.align	2
 4325              		.set	.LANCHOR46,. + 0
 4328              	SI_FreeStack:
 4329 0000 00000000 		.space	4
 4330              		.section	.bss.analogPot1,"aw",%nobits
 4331              		.align	1
 4332              		.set	.LANCHOR19,. + 0
 4335              	analogPot1:
 4336 0000 0000     		.space	2
 4337              		.section	.bss.analogPot2,"aw",%nobits
 4338              		.align	1
 4339              		.set	.LANCHOR18,. + 0
 4342              	analogPot2:
 4343 0000 0000     		.space	2
 4344              		.section	.bss.boolCan,"aw",%nobits
 4345              		.set	.LANCHOR16,. + 0
 4348              	boolCan:
 4349 0000 00       		.space	1
 4350              		.section	.bss.canActive,"aw",%nobits
 4351              		.set	.LANCHOR1,. + 0
 4354              	canActive:
 4355 0000 00       		.space	1
 4356              		.section	.bss.canRxData_0_SYNC1_ID,"aw",%nobits
 4357              		.align	2
 4358              		.set	.LANCHOR13,. + 0
 4361              	canRxData_0_SYNC1_ID:
 4362 0000 00000000 		.space	8
 4362      00000000 
 4363              		.section	.bss.canRxData_0_TRCK1_ID3,"aw",%nobits
 4364              		.align	2
 4365              		.set	.LANCHOR38,. + 0
 4368              	canRxData_0_TRCK1_ID3:
 4369 0000 00000000 		.space	8
 4369      00000000 
 4370              		.section	.bss.canRxData_0_TRLS1_ID4,"aw",%nobits
 4371              		.align	2
 4372              		.set	.LANCHOR39,. + 0
 4375              	canRxData_0_TRLS1_ID4:
 4376 0000 00000000 		.space	8
 4376      00000000 
 4377              		.section	.bss.canRxData_0_TRLS1_ID5,"aw",%nobits
 4378              		.align	2
 4379              		.set	.LANCHOR41,. + 0
 4382              	canRxData_0_TRLS1_ID5:
 4383 0000 00000000 		.space	8
 4383      00000000 
 4384              		.section	.bss.canRxData_0_rtu_In1,"aw",%nobits
 4385              		.align	2
 4386              		.set	.LANCHOR8,. + 0
 4389              	canRxData_0_rtu_In1:
 4390 0000 00000000 		.space	8
 4390      00000000 
 4391              		.section	.bss.canTxData,"aw",%nobits
 4392              		.align	2
 4393              		.set	.LANCHOR9,. + 0
 4396              	canTxData:
 4397 0000 00000000 		.space	8
 4397      00000000 
 4398              		.section	.bss.ccw,"aw",%nobits
 4399              		.set	.LANCHOR33,. + 0
 4402              	ccw:
 4403 0000 00       		.space	1
 4404              		.section	.bss.control,"aw",%nobits
 4405              		.align	3
 4406              		.set	.LANCHOR29,. + 0
 4409              	control:
 4410 0000 00000000 		.space	8
 4410      00000000 
 4411              		.section	.bss.cw,"aw",%nobits
 4412              		.set	.LANCHOR32,. + 0
 4415              	cw:
 4416 0000 00       		.space	1
 4417              		.section	.bss.delta12K,"aw",%nobits
 4418              		.align	2
 4419              		.set	.LANCHOR26,. + 0
 4422              	delta12K:
 4423 0000 00000000 		.space	4
 4424              		.section	.bss.local_ticks_interrupt,"aw",%nobits
 4425              		.align	1
 4426              		.set	.LANCHOR3,. + 0
 4429              	local_ticks_interrupt:
 4430 0000 0000     		.space	2
 4431              		.section	.bss.mospeed,"aw",%nobits
 4432              		.align	1
 4433              		.set	.LANCHOR31,. + 0
 4436              	mospeed:
 4437 0000 0000     		.space	2
 4438              		.section	.bss.position,"aw",%nobits
 4439              		.align	3
 4440              		.set	.LANCHOR28,. + 0
 4443              	position:
 4444 0000 00000000 		.space	8
 4444      00000000 
 4445              		.section	.bss.reqAngle,"aw",%nobits
 4446              		.align	3
 4447              		.set	.LANCHOR21,. + 0
 4450              	reqAngle:
 4451 0000 00000000 		.space	8
 4451      00000000 
 4452              		.section	.bss.rtB,"aw",%nobits
 4453              		.align	2
 4454              		.set	.LANCHOR0,. + 0
 4457              	rtB:
 4458 0000 00000000 		.space	40
 4458      00000000 
 4458      00000000 
 4458      00000000 
 4458      00000000 
 4459              		.section	.bss.rtDWork,"aw",%nobits
 4460              		.align	3
 4461              		.set	.LANCHOR2,. + 0
 4464              	rtDWork:
 4465 0000 00000000 		.space	224
 4465      00000000 
 4465      00000000 
 4465      00000000 
 4465      00000000 
 4466              		.section	.bss.rtM_,"aw",%nobits
 4467              		.align	2
 4468              		.set	.LANCHOR20,. + 0
 4471              	rtM_:
 4472 0000 00000000 		.space	8
 4472      00000000 
 4473              		.section	.bss.rtPrevZCSigState,"aw",%nobits
 4474              		.align	2
 4475              		.set	.LANCHOR5,. + 0
 4478              	rtPrevZCSigState:
 4479 0000 00000000 		.space	14
 4479      00000000 
 4479      00000000 
 4479      0000
 4480              		.section	.bss.setSlotTime,"aw",%nobits
 4481              		.set	.LANCHOR4,. + 0
 4484              	setSlotTime:
 4485 0000 00       		.space	1
 4486              		.section	.bss.slotSelected,"aw",%nobits
 4487              		.set	.LANCHOR7,. + 0
 4490              	slotSelected:
 4491 0000 00       		.space	1
 4492              		.section	.bss.steering,"aw",%nobits
 4493              		.align	3
 4494              		.set	.LANCHOR27,. + 0
 4497              	steering:
 4498 0000 00000000 		.space	8
 4498      00000000 
 4499              		.section	.bss.t1Angle,"aw",%nobits
 4500              		.align	1
 4501              		.set	.LANCHOR23,. + 0
 4504              	t1Angle:
 4505 0000 0000     		.space	2
 4506              		.section	.bss.t2Angle,"aw",%nobits
 4507              		.align	1
 4508              		.set	.LANCHOR22,. + 0
 4511              	t2Angle:
 4512 0000 0000     		.space	2
 4513              		.section	.bss.testCounter,"aw",%nobits
 4514              		.align	1
 4515              		.set	.LANCHOR14,. + 0
 4518              	testCounter:
 4519 0000 0000     		.space	2
 4520              		.section	.data.ClockOn,"aw"
 4521              		.align	3
 4522              		.set	.LANCHOR10,. + 0
 4525              	ClockOn:
 4526 0000 00000000 		.space	8
 4526      00000000 
 4527              		.section	.data.MMBS1_ID,"aw"
 4528              		.align	2
 4529              		.set	.LANCHOR11,. + 0
 4532              	MMBS1_ID:
 4533 0000 0C000000 		.word	12
 4534              		.section	.data.SSTM1_ID,"aw"
 4535              		.align	2
 4536              		.set	.LANCHOR12,. + 0
 4539              	SSTM1_ID:
 4540 0000 0D000000 		.word	13
 4541              		.section	.data.SYNC1_ID,"aw"
 4542              		.align	2
 4543              		.set	.LANCHOR15,. + 0
 4546              	SYNC1_ID:
 4547 0000 0B000000 		.word	11
 4548              		.section	.data.TRCK1_ID1,"aw"
 4549              		.align	2
 4550              		.set	.LANCHOR37,. + 0
 4553              	TRCK1_ID1:
 4554 0000 0E000000 		.word	14
 4555              		.section	.data.TRCK1_ID2,"aw"
 4556              		.align	2
 4557              		.set	.LANCHOR35,. + 0
 4560              	TRCK1_ID2:
 4561 0000 1A000000 		.word	26
 4562              		.section	.data.TRCK1_ID3,"aw"
 4563              		.align	2
 4564              		.set	.LANCHOR36,. + 0
 4567              	TRCK1_ID3:
 4568 0000 25000000 		.word	37
 4569              		.section	.data.TRLS1_ID4,"aw"
 4570              		.align	2
 4571              		.set	.LANCHOR40,. + 0
 4574              	TRLS1_ID4:
 4575 0000 30000000 		.word	48
 4576              		.section	.data.TRLS1_ID5,"aw"
 4577              		.align	2
 4578              		.set	.LANCHOR42,. + 0
 4581              	TRLS1_ID5:
 4582 0000 3B000000 		.word	59
 4583              		.section	.data.desiredAngle,"aw"
 4584              		.align	3
 4585              		.set	.LANCHOR17,. + 0
 4588              	desiredAngle:
 4589 0000 00000000 		.space	8
 4589      00000000 
 4590              		.section	.data.intVal,"aw"
 4591              		.align	3
 4592              		.set	.LANCHOR34,. + 0
 4595              	intVal:
 4596 0000 00000000 		.space	8
 4596      00000000 
 4597              		.section	.data.matrixRows,"aw"
 4598              		.align	3
 4599              		.set	.LANCHOR6,. + 0
 4602              	matrixRows:
 4603 0000 00000000 		.word	0
 4604 0004 00002440 		.word	1076101120
 4605              		.section	.data.propVal,"aw"
 4606              		.align	3
 4607              		.set	.LANCHOR30,. + 0
 4610              	propVal:
 4611 0000 00000000 		.space	8
 4611      00000000 
 4612              		.section	.data.slotTime,"aw"
 4613              		.set	.LANCHOR43,. + 0
 4616              	slotTime:
 4617 0000 32       		.byte	50
 4618              		.section	.rodata.rtM,"a"
 4619              		.align	2
 4622              	rtM:
 4623 0000 00000000 		.word	rtM_
 4624              		.text
 4625              	.Letext0:
 4626              		.file 2 "rtwtypes.h"
 4627              		.file 3 "c:\\program files (x86)\\gnu arm embedded toolchain\\10 2021.10\\arm-none-eabi\\include\\
 4628              		.file 4 "c:\\program files (x86)\\gnu arm embedded toolchain\\10 2021.10\\arm-none-eabi\\include\\
 4629              		.file 5 "../blockset/rtw/STM32/inc/STM32_E407/timeout.h"
 4630              		.file 6 "../blockset/rtw/STM32/inc/STM32_E407/can.h"
 4631              		.file 7 "../blockset/rtw/STM32/inc/STM32_E407/pwmout.h"
 4632              		.file 8 "../blockset/rtw/STM32/inc/STM32_E407/digout.h"
 4633              		.file 9 "../blockset/rtw/STM32/inc/STM32_E407/quadencoder.h"
 4634              		.file 10 "../blockset/rtw/STM32/inc/STM32_E407/digin.h"
 4635              		.file 11 "c:\\program files (x86)\\gnu arm embedded toolchain\\10 2021.10\\lib\\gcc\\arm-none-eabi
 4636              		.file 12 "HANcoder_E407_TTA_CombineModel_types.h"
 4637              		.file 13 "HANcoder_E407_TTA_CombineModel.h"
 4638              		.file 14 "zero_crossing_types.h"
 4639              		.file 15 "../blockset/rtw/STM32/inc/STM32_E407/canio.h"
 4640              		.file 16 "../blockset/rtw/STM32/inc/STM32_E407/anin.h"
 4641              		.file 17 "../blockset/rtw/STM32/inc/app.h"
 4642              		.file 18 "../blockset/rtw/STM32/inc/STM32_E407/FreeRTOSConfig.h"
 4643              		.file 19 "../blockset/rtw/STM32/inc/STM32_E407/mac.h"
 4644              		.file 20 "rt_i32zcfcn.h"
 4645              		.file 21 "../blockset/rtw/STM32/inc/os.h"
 4646              		.file 22 "c:\\program files (x86)\\gnu arm embedded toolchain\\10 2021.10\\arm-none-eabi\\include\
DEFINED SYMBOLS
                            *ABS*:00000000 HANcoder_E407_TTA_CombineModel.c
C:\Users\ADMIN~1.CVA\AppData\Local\Temp\ccY7QMAH.s:19     .text.PwmoutIRQ_PWMOUT_MODULE_TIM14:00000000 $t
C:\Users\ADMIN~1.CVA\AppData\Local\Temp\ccY7QMAH.s:26     .text.PwmoutIRQ_PWMOUT_MODULE_TIM14:00000000 PwmoutIRQ_PWMOUT_MODULE_TIM14
C:\Users\ADMIN~1.CVA\AppData\Local\Temp\ccY7QMAH.s:41     .text.TimeoutEventIRQ_TIMEOUT_TIM4_PIN_PD12:00000000 $t
C:\Users\ADMIN~1.CVA\AppData\Local\Temp\ccY7QMAH.s:48     .text.TimeoutEventIRQ_TIMEOUT_TIM4_PIN_PD12:00000000 TimeoutEventIRQ_TIMEOUT_TIM4_PIN_PD12
C:\Users\ADMIN~1.CVA\AppData\Local\Temp\ccY7QMAH.s:188    .text.TimeoutEventIRQ_TIMEOUT_TIM4_PIN_PD12:0000008c $d
C:\Users\ADMIN~1.CVA\AppData\Local\Temp\ccY7QMAH.s:201    .text.TimeoutOverflowIRQ_TIMEOUT_MODULE_TIM4:00000000 $t
C:\Users\ADMIN~1.CVA\AppData\Local\Temp\ccY7QMAH.s:208    .text.TimeoutOverflowIRQ_TIMEOUT_MODULE_TIM4:00000000 TimeoutOverflowIRQ_TIMEOUT_MODULE_TIM4
C:\Users\ADMIN~1.CVA\AppData\Local\Temp\ccY7QMAH.s:219    .text.ByteSwap_x:00000000 $t
C:\Users\ADMIN~1.CVA\AppData\Local\Temp\ccY7QMAH.s:226    .text.ByteSwap_x:00000000 ByteSwap_x
C:\Users\ADMIN~1.CVA\AppData\Local\Temp\ccY7QMAH.s:304    .text.EnabledSubsystem:00000000 $t
C:\Users\ADMIN~1.CVA\AppData\Local\Temp\ccY7QMAH.s:311    .text.EnabledSubsystem:00000000 EnabledSubsystem
C:\Users\ADMIN~1.CVA\AppData\Local\Temp\ccY7QMAH.s:351    .text.MMBS1_RX_Disable:00000000 $t
C:\Users\ADMIN~1.CVA\AppData\Local\Temp\ccY7QMAH.s:358    .text.MMBS1_RX_Disable:00000000 MMBS1_RX_Disable
C:\Users\ADMIN~1.CVA\AppData\Local\Temp\ccY7QMAH.s:376    .text.MMBS1_RX_Start:00000000 $t
C:\Users\ADMIN~1.CVA\AppData\Local\Temp\ccY7QMAH.s:383    .text.MMBS1_RX_Start:00000000 MMBS1_RX_Start
C:\Users\ADMIN~1.CVA\AppData\Local\Temp\ccY7QMAH.s:405    .text.MMBS1_RX:00000000 $t
C:\Users\ADMIN~1.CVA\AppData\Local\Temp\ccY7QMAH.s:412    .text.MMBS1_RX:00000000 MMBS1_RX
C:\Users\ADMIN~1.CVA\AppData\Local\Temp\ccY7QMAH.s:553    .text.MMBS1_RX:00000034 $d
C:\Users\ADMIN~1.CVA\AppData\Local\Temp\ccY7QMAH.s:558    .text.MMBS1_TX:00000000 $t
C:\Users\ADMIN~1.CVA\AppData\Local\Temp\ccY7QMAH.s:565    .text.MMBS1_TX:00000000 MMBS1_TX
C:\Users\ADMIN~1.CVA\AppData\Local\Temp\ccY7QMAH.s:619    .text.MMBS1_TX:00000024 $d
C:\Users\ADMIN~1.CVA\AppData\Local\Temp\ccY7QMAH.s:624    .text.BitShift:00000000 $t
C:\Users\ADMIN~1.CVA\AppData\Local\Temp\ccY7QMAH.s:631    .text.BitShift:00000000 BitShift
C:\Users\ADMIN~1.CVA\AppData\Local\Temp\ccY7QMAH.s:651    .text.BitShift_d:00000000 $t
C:\Users\ADMIN~1.CVA\AppData\Local\Temp\ccY7QMAH.s:658    .text.BitShift_d:00000000 BitShift_d
C:\Users\ADMIN~1.CVA\AppData\Local\Temp\ccY7QMAH.s:690    .rodata.HANcoder_E407_TTA_CombineModel_step.str1.4:00000000 $d
C:\Users\ADMIN~1.CVA\AppData\Local\Temp\ccY7QMAH.s:694    .text.HANcoder_E407_TTA_CombineModel_step:00000000 $t
C:\Users\ADMIN~1.CVA\AppData\Local\Temp\ccY7QMAH.s:701    .text.HANcoder_E407_TTA_CombineModel_step:00000000 HANcoder_E407_TTA_CombineModel_step
C:\Users\ADMIN~1.CVA\AppData\Local\Temp\ccY7QMAH.s:1468   .text.HANcoder_E407_TTA_CombineModel_step:00000304 $d
C:\Users\ADMIN~1.CVA\AppData\Local\Temp\ccY7QMAH.s:1493   .text.HANcoder_E407_TTA_CombineModel_step:0000035c $t
C:\Users\ADMIN~1.CVA\AppData\Local\Temp\ccY7QMAH.s:2184   .text.HANcoder_E407_TTA_CombineModel_step:00000614 $d
C:\Users\ADMIN~1.CVA\AppData\Local\Temp\ccY7QMAH.s:2209   .text.HANcoder_E407_TTA_CombineModel_step:0000066c $t
C:\Users\ADMIN~1.CVA\AppData\Local\Temp\ccY7QMAH.s:2765   .text.HANcoder_E407_TTA_CombineModel_step:000009b8 $d
C:\Users\ADMIN~1.CVA\AppData\Local\Temp\ccY7QMAH.s:2785   .text.HANcoder_E407_TTA_CombineModel_step:00000a00 $t
C:\Users\ADMIN~1.CVA\AppData\Local\Temp\ccY7QMAH.s:3513   .text.HANcoder_E407_TTA_CombineModel_step:00000d70 $d
C:\Users\ADMIN~1.CVA\AppData\Local\Temp\ccY7QMAH.s:3555   .text.HANcoder_E407_TTA_CombineModel_step:00000e00 $t
C:\Users\ADMIN~1.CVA\AppData\Local\Temp\ccY7QMAH.s:3808   .text.HANcoder_E407_TTA_CombineModel_step:00000f60 $d
C:\Users\ADMIN~1.CVA\AppData\Local\Temp\ccY7QMAH.s:3818   .rodata.HANcoder_E407_TTA_CombineModel_initialize.str1.4:00000000 $d
C:\Users\ADMIN~1.CVA\AppData\Local\Temp\ccY7QMAH.s:3822   .text.HANcoder_E407_TTA_CombineModel_initialize:00000000 $t
C:\Users\ADMIN~1.CVA\AppData\Local\Temp\ccY7QMAH.s:3829   .text.HANcoder_E407_TTA_CombineModel_initialize:00000000 HANcoder_E407_TTA_CombineModel_initialize
C:\Users\ADMIN~1.CVA\AppData\Local\Temp\ccY7QMAH.s:4232   .text.HANcoder_E407_TTA_CombineModel_initialize:00000184 $d
C:\Users\ADMIN~1.CVA\AppData\Local\Temp\ccY7QMAH.s:4622   .rodata.rtM:00000000 rtM
C:\Users\ADMIN~1.CVA\AppData\Local\Temp\ccY7QMAH.s:4478   .bss.rtPrevZCSigState:00000000 rtPrevZCSigState
C:\Users\ADMIN~1.CVA\AppData\Local\Temp\ccY7QMAH.s:4464   .bss.rtDWork:00000000 rtDWork
C:\Users\ADMIN~1.CVA\AppData\Local\Temp\ccY7QMAH.s:4457   .bss.rtB:00000000 rtB
C:\Users\ADMIN~1.CVA\AppData\Local\Temp\ccY7QMAH.s:4616   .data.slotTime:00000000 slotTime
C:\Users\ADMIN~1.CVA\AppData\Local\Temp\ccY7QMAH.s:4581   .data.TRLS1_ID5:00000000 TRLS1_ID5
C:\Users\ADMIN~1.CVA\AppData\Local\Temp\ccY7QMAH.s:4574   .data.TRLS1_ID4:00000000 TRLS1_ID4
C:\Users\ADMIN~1.CVA\AppData\Local\Temp\ccY7QMAH.s:4567   .data.TRCK1_ID3:00000000 TRCK1_ID3
C:\Users\ADMIN~1.CVA\AppData\Local\Temp\ccY7QMAH.s:4560   .data.TRCK1_ID2:00000000 TRCK1_ID2
C:\Users\ADMIN~1.CVA\AppData\Local\Temp\ccY7QMAH.s:4553   .data.TRCK1_ID1:00000000 TRCK1_ID1
C:\Users\ADMIN~1.CVA\AppData\Local\Temp\ccY7QMAH.s:4546   .data.SYNC1_ID:00000000 SYNC1_ID
C:\Users\ADMIN~1.CVA\AppData\Local\Temp\ccY7QMAH.s:4539   .data.SSTM1_ID:00000000 SSTM1_ID
C:\Users\ADMIN~1.CVA\AppData\Local\Temp\ccY7QMAH.s:4532   .data.MMBS1_ID:00000000 MMBS1_ID
C:\Users\ADMIN~1.CVA\AppData\Local\Temp\ccY7QMAH.s:4610   .data.propVal:00000000 propVal
C:\Users\ADMIN~1.CVA\AppData\Local\Temp\ccY7QMAH.s:4602   .data.matrixRows:00000000 matrixRows
C:\Users\ADMIN~1.CVA\AppData\Local\Temp\ccY7QMAH.s:4595   .data.intVal:00000000 intVal
C:\Users\ADMIN~1.CVA\AppData\Local\Temp\ccY7QMAH.s:4588   .data.desiredAngle:00000000 desiredAngle
C:\Users\ADMIN~1.CVA\AppData\Local\Temp\ccY7QMAH.s:4525   .data.ClockOn:00000000 ClockOn
C:\Users\ADMIN~1.CVA\AppData\Local\Temp\ccY7QMAH.s:4354   .bss.canActive:00000000 canActive
C:\Users\ADMIN~1.CVA\AppData\Local\Temp\ccY7QMAH.s:4402   .bss.ccw:00000000 ccw
C:\Users\ADMIN~1.CVA\AppData\Local\Temp\ccY7QMAH.s:4415   .bss.cw:00000000 cw
C:\Users\ADMIN~1.CVA\AppData\Local\Temp\ccY7QMAH.s:4348   .bss.boolCan:00000000 boolCan
C:\Users\ADMIN~1.CVA\AppData\Local\Temp\ccY7QMAH.s:4490   .bss.slotSelected:00000000 slotSelected
C:\Users\ADMIN~1.CVA\AppData\Local\Temp\ccY7QMAH.s:4484   .bss.setSlotTime:00000000 setSlotTime
C:\Users\ADMIN~1.CVA\AppData\Local\Temp\ccY7QMAH.s:4314   .bss.SI_CPUload:00000000 SI_CPUload
C:\Users\ADMIN~1.CVA\AppData\Local\Temp\ccY7QMAH.s:4429   .bss.local_ticks_interrupt:00000000 local_ticks_interrupt
C:\Users\ADMIN~1.CVA\AppData\Local\Temp\ccY7QMAH.s:4518   .bss.testCounter:00000000 testCounter
C:\Users\ADMIN~1.CVA\AppData\Local\Temp\ccY7QMAH.s:4335   .bss.analogPot1:00000000 analogPot1
C:\Users\ADMIN~1.CVA\AppData\Local\Temp\ccY7QMAH.s:4342   .bss.analogPot2:00000000 analogPot2
C:\Users\ADMIN~1.CVA\AppData\Local\Temp\ccY7QMAH.s:4436   .bss.mospeed:00000000 mospeed
C:\Users\ADMIN~1.CVA\AppData\Local\Temp\ccY7QMAH.s:4308   .bss.Gamma2:00000000 Gamma2
C:\Users\ADMIN~1.CVA\AppData\Local\Temp\ccY7QMAH.s:4504   .bss.t1Angle:00000000 t1Angle
C:\Users\ADMIN~1.CVA\AppData\Local\Temp\ccY7QMAH.s:4511   .bss.t2Angle:00000000 t2Angle
C:\Users\ADMIN~1.CVA\AppData\Local\Temp\ccY7QMAH.s:4422   .bss.delta12K:00000000 delta12K
C:\Users\ADMIN~1.CVA\AppData\Local\Temp\ccY7QMAH.s:4328   .bss.SI_FreeStack:00000000 SI_FreeStack
C:\Users\ADMIN~1.CVA\AppData\Local\Temp\ccY7QMAH.s:4321   .bss.SI_FreeHeap:00000000 SI_FreeHeap
C:\Users\ADMIN~1.CVA\AppData\Local\Temp\ccY7QMAH.s:4409   .bss.control:00000000 control
C:\Users\ADMIN~1.CVA\AppData\Local\Temp\ccY7QMAH.s:4443   .bss.position:00000000 position
C:\Users\ADMIN~1.CVA\AppData\Local\Temp\ccY7QMAH.s:4497   .bss.steering:00000000 steering
C:\Users\ADMIN~1.CVA\AppData\Local\Temp\ccY7QMAH.s:4301   .bss.Gamma1:00000000 Gamma1
C:\Users\ADMIN~1.CVA\AppData\Local\Temp\ccY7QMAH.s:4450   .bss.reqAngle:00000000 reqAngle
C:\Users\ADMIN~1.CVA\AppData\Local\Temp\ccY7QMAH.s:4297   .bss.Gamma1:00000000 $d
C:\Users\ADMIN~1.CVA\AppData\Local\Temp\ccY7QMAH.s:4304   .bss.Gamma2:00000000 $d
C:\Users\ADMIN~1.CVA\AppData\Local\Temp\ccY7QMAH.s:4315   .bss.SI_CPUload:00000000 $d
C:\Users\ADMIN~1.CVA\AppData\Local\Temp\ccY7QMAH.s:4317   .bss.SI_FreeHeap:00000000 $d
C:\Users\ADMIN~1.CVA\AppData\Local\Temp\ccY7QMAH.s:4324   .bss.SI_FreeStack:00000000 $d
C:\Users\ADMIN~1.CVA\AppData\Local\Temp\ccY7QMAH.s:4331   .bss.analogPot1:00000000 $d
C:\Users\ADMIN~1.CVA\AppData\Local\Temp\ccY7QMAH.s:4338   .bss.analogPot2:00000000 $d
C:\Users\ADMIN~1.CVA\AppData\Local\Temp\ccY7QMAH.s:4349   .bss.boolCan:00000000 $d
C:\Users\ADMIN~1.CVA\AppData\Local\Temp\ccY7QMAH.s:4355   .bss.canActive:00000000 $d
C:\Users\ADMIN~1.CVA\AppData\Local\Temp\ccY7QMAH.s:4357   .bss.canRxData_0_SYNC1_ID:00000000 $d
C:\Users\ADMIN~1.CVA\AppData\Local\Temp\ccY7QMAH.s:4361   .bss.canRxData_0_SYNC1_ID:00000000 canRxData_0_SYNC1_ID
C:\Users\ADMIN~1.CVA\AppData\Local\Temp\ccY7QMAH.s:4364   .bss.canRxData_0_TRCK1_ID3:00000000 $d
C:\Users\ADMIN~1.CVA\AppData\Local\Temp\ccY7QMAH.s:4368   .bss.canRxData_0_TRCK1_ID3:00000000 canRxData_0_TRCK1_ID3
C:\Users\ADMIN~1.CVA\AppData\Local\Temp\ccY7QMAH.s:4371   .bss.canRxData_0_TRLS1_ID4:00000000 $d
C:\Users\ADMIN~1.CVA\AppData\Local\Temp\ccY7QMAH.s:4375   .bss.canRxData_0_TRLS1_ID4:00000000 canRxData_0_TRLS1_ID4
C:\Users\ADMIN~1.CVA\AppData\Local\Temp\ccY7QMAH.s:4378   .bss.canRxData_0_TRLS1_ID5:00000000 $d
C:\Users\ADMIN~1.CVA\AppData\Local\Temp\ccY7QMAH.s:4382   .bss.canRxData_0_TRLS1_ID5:00000000 canRxData_0_TRLS1_ID5
C:\Users\ADMIN~1.CVA\AppData\Local\Temp\ccY7QMAH.s:4385   .bss.canRxData_0_rtu_In1:00000000 $d
C:\Users\ADMIN~1.CVA\AppData\Local\Temp\ccY7QMAH.s:4389   .bss.canRxData_0_rtu_In1:00000000 canRxData_0_rtu_In1
C:\Users\ADMIN~1.CVA\AppData\Local\Temp\ccY7QMAH.s:4392   .bss.canTxData:00000000 $d
C:\Users\ADMIN~1.CVA\AppData\Local\Temp\ccY7QMAH.s:4396   .bss.canTxData:00000000 canTxData
C:\Users\ADMIN~1.CVA\AppData\Local\Temp\ccY7QMAH.s:4403   .bss.ccw:00000000 $d
C:\Users\ADMIN~1.CVA\AppData\Local\Temp\ccY7QMAH.s:4405   .bss.control:00000000 $d
C:\Users\ADMIN~1.CVA\AppData\Local\Temp\ccY7QMAH.s:4416   .bss.cw:00000000 $d
C:\Users\ADMIN~1.CVA\AppData\Local\Temp\ccY7QMAH.s:4418   .bss.delta12K:00000000 $d
C:\Users\ADMIN~1.CVA\AppData\Local\Temp\ccY7QMAH.s:4425   .bss.local_ticks_interrupt:00000000 $d
C:\Users\ADMIN~1.CVA\AppData\Local\Temp\ccY7QMAH.s:4432   .bss.mospeed:00000000 $d
C:\Users\ADMIN~1.CVA\AppData\Local\Temp\ccY7QMAH.s:4439   .bss.position:00000000 $d
C:\Users\ADMIN~1.CVA\AppData\Local\Temp\ccY7QMAH.s:4446   .bss.reqAngle:00000000 $d
C:\Users\ADMIN~1.CVA\AppData\Local\Temp\ccY7QMAH.s:4453   .bss.rtB:00000000 $d
C:\Users\ADMIN~1.CVA\AppData\Local\Temp\ccY7QMAH.s:4460   .bss.rtDWork:00000000 $d
C:\Users\ADMIN~1.CVA\AppData\Local\Temp\ccY7QMAH.s:4467   .bss.rtM_:00000000 $d
C:\Users\ADMIN~1.CVA\AppData\Local\Temp\ccY7QMAH.s:4471   .bss.rtM_:00000000 rtM_
C:\Users\ADMIN~1.CVA\AppData\Local\Temp\ccY7QMAH.s:4474   .bss.rtPrevZCSigState:00000000 $d
C:\Users\ADMIN~1.CVA\AppData\Local\Temp\ccY7QMAH.s:4485   .bss.setSlotTime:00000000 $d
C:\Users\ADMIN~1.CVA\AppData\Local\Temp\ccY7QMAH.s:4491   .bss.slotSelected:00000000 $d
C:\Users\ADMIN~1.CVA\AppData\Local\Temp\ccY7QMAH.s:4493   .bss.steering:00000000 $d
C:\Users\ADMIN~1.CVA\AppData\Local\Temp\ccY7QMAH.s:4500   .bss.t1Angle:00000000 $d
C:\Users\ADMIN~1.CVA\AppData\Local\Temp\ccY7QMAH.s:4507   .bss.t2Angle:00000000 $d
C:\Users\ADMIN~1.CVA\AppData\Local\Temp\ccY7QMAH.s:4514   .bss.testCounter:00000000 $d
C:\Users\ADMIN~1.CVA\AppData\Local\Temp\ccY7QMAH.s:4521   .data.ClockOn:00000000 $d
C:\Users\ADMIN~1.CVA\AppData\Local\Temp\ccY7QMAH.s:4528   .data.MMBS1_ID:00000000 $d
C:\Users\ADMIN~1.CVA\AppData\Local\Temp\ccY7QMAH.s:4535   .data.SSTM1_ID:00000000 $d
C:\Users\ADMIN~1.CVA\AppData\Local\Temp\ccY7QMAH.s:4542   .data.SYNC1_ID:00000000 $d
C:\Users\ADMIN~1.CVA\AppData\Local\Temp\ccY7QMAH.s:4549   .data.TRCK1_ID1:00000000 $d
C:\Users\ADMIN~1.CVA\AppData\Local\Temp\ccY7QMAH.s:4556   .data.TRCK1_ID2:00000000 $d
C:\Users\ADMIN~1.CVA\AppData\Local\Temp\ccY7QMAH.s:4563   .data.TRCK1_ID3:00000000 $d
C:\Users\ADMIN~1.CVA\AppData\Local\Temp\ccY7QMAH.s:4570   .data.TRLS1_ID4:00000000 $d
C:\Users\ADMIN~1.CVA\AppData\Local\Temp\ccY7QMAH.s:4577   .data.TRLS1_ID5:00000000 $d
C:\Users\ADMIN~1.CVA\AppData\Local\Temp\ccY7QMAH.s:4584   .data.desiredAngle:00000000 $d
C:\Users\ADMIN~1.CVA\AppData\Local\Temp\ccY7QMAH.s:4591   .data.intVal:00000000 $d
C:\Users\ADMIN~1.CVA\AppData\Local\Temp\ccY7QMAH.s:4598   .data.matrixRows:00000000 $d
C:\Users\ADMIN~1.CVA\AppData\Local\Temp\ccY7QMAH.s:4606   .data.propVal:00000000 $d
C:\Users\ADMIN~1.CVA\AppData\Local\Temp\ccY7QMAH.s:4619   .rodata.rtM:00000000 $d

UNDEFINED SYMBOLS
__aeabi_d2uiz
TimeoutGetLastEventCounter
TimeoutScheduleCompareEvent
CanIoCreateMessageReceivedStorage
CanIoGetMessage
CanTransmit
__aeabi_dcmpeq
__aeabi_dmul
__aeabi_ui2d
__aeabi_dadd
__aeabi_dsub
__aeabi_dcmplt
__aeabi_dcmpgt
__aeabi_ddiv
__aeabi_d2f
__aeabi_f2d
__aeabi_d2iz
__aeabi_i2d
rt_I32ZCFcn
DiginGet
OsGetCpuLoad
OsGetFreeHeapSize
OsGetTaskFreeStackSize
tan
sin
cos
atan
QuadEncGetCounter
rtConstB
floor
AninGet
PwmoutSet
DigoutSet
QuadEncResetCounter
CanInit
CanIoInit
TimeoutInitModule
TimeoutRegisterCompareEventCallback
AninConfigure
DigoutConfigure
PwmoutInit
PwmoutRegisterPeriodCompleteCallback
PwmoutConfigure
QuadEncConfigure
DiginConfigure
AppCtrlTaskSetStackSize
AppCtrlTaskSetPeriod
ADCconversionTaskSetPeriod
CanConnect
AssertFailure
TimeoutRegisterOverflowCallback
MacUsbComInit
MacInit
