   1              		.cpu cortex-m4
   2              		.arch armv7e-m
   3              		.fpu fpv4-sp-d16
   4              		.eabi_attribute 27, 1
   5              		.eabi_attribute 20, 1
   6              		.eabi_attribute 21, 1
   7              		.eabi_attribute 23, 3
   8              		.eabi_attribute 24, 1
   9              		.eabi_attribute 25, 1
  10              		.eabi_attribute 26, 1
  11              		.eabi_attribute 30, 2
  12              		.eabi_attribute 34, 1
  13              		.eabi_attribute 18, 4
  14              		.file	"HANcoder_E407_TTA_CombineModel.c"
  15              		.text
  16              	.Ltext0:
  17              		.cfi_sections	.debug_frame
  18              		.section	.text.PwmoutIRQ_PWMOUT_MODULE_TIM14,"ax",%progbits
  19              		.align	1
  20              		.p2align 2,,3
  21              		.global	PwmoutIRQ_PWMOUT_MODULE_TIM14
  22              		.syntax unified
  23              		.thumb
  24              		.thumb_func
  26              	PwmoutIRQ_PWMOUT_MODULE_TIM14:
  27              	.LFB114:
  28              		.file 1 "HANcoder_E407_TTA_CombineModel.c"
   1:HANcoder_E407_TTA_CombineModel.c **** /*
   2:HANcoder_E407_TTA_CombineModel.c ****  * Academic License - for use in teaching, academic research, and meeting
   3:HANcoder_E407_TTA_CombineModel.c ****  * course requirements at degree granting institutions only.  Not for
   4:HANcoder_E407_TTA_CombineModel.c ****  * government, commercial, or other organizational use.
   5:HANcoder_E407_TTA_CombineModel.c ****  *
   6:HANcoder_E407_TTA_CombineModel.c ****  * File: HANcoder_E407_TTA_CombineModel.c
   7:HANcoder_E407_TTA_CombineModel.c ****  *
   8:HANcoder_E407_TTA_CombineModel.c ****  * Code generated for Simulink model 'HANcoder_E407_TTA_CombineModel'.
   9:HANcoder_E407_TTA_CombineModel.c ****  *
  10:HANcoder_E407_TTA_CombineModel.c ****  * Model version                  : 17.35
  11:HANcoder_E407_TTA_CombineModel.c ****  * Simulink Coder version         : 9.8 (R2022b) 13-May-2022
  12:HANcoder_E407_TTA_CombineModel.c ****  * C/C++ source code generated on : Tue Jun 20 11:14:14 2023
  13:HANcoder_E407_TTA_CombineModel.c ****  *
  14:HANcoder_E407_TTA_CombineModel.c ****  * Target selection: ert.tlc
  15:HANcoder_E407_TTA_CombineModel.c ****  * Embedded hardware selection: ARM Compatible->ARM Cortex
  16:HANcoder_E407_TTA_CombineModel.c ****  * Code generation objectives: Unspecified
  17:HANcoder_E407_TTA_CombineModel.c ****  * Validation result: Not run
  18:HANcoder_E407_TTA_CombineModel.c ****  */
  19:HANcoder_E407_TTA_CombineModel.c **** 
  20:HANcoder_E407_TTA_CombineModel.c **** #include "HANcoder_E407_TTA_CombineModel.h"
  21:HANcoder_E407_TTA_CombineModel.c **** #include "rtwtypes.h"
  22:HANcoder_E407_TTA_CombineModel.c **** #include "HANcoder_E407_TTA_CombineModel_types.h"
  23:HANcoder_E407_TTA_CombineModel.c **** #include "HANcoder_E407_TTA_CombineModel_private.h"
  24:HANcoder_E407_TTA_CombineModel.c **** #include <math.h>
  25:HANcoder_E407_TTA_CombineModel.c **** #include "zero_crossing_types.h"
  26:HANcoder_E407_TTA_CombineModel.c **** 
  27:HANcoder_E407_TTA_CombineModel.c **** /* map ByteSwap function */
  28:HANcoder_E407_TTA_CombineModel.c **** #define ByteSwap(x)                    (ByteSwap_x((uint8_t *) &x, sizeof(x)))
  29:HANcoder_E407_TTA_CombineModel.c **** 
  30:HANcoder_E407_TTA_CombineModel.c **** void PwmoutIRQ_PWMOUT_MODULE_TIM14(void);
  31:HANcoder_E407_TTA_CombineModel.c **** void TimeoutEventIRQ_TIMEOUT_TIM4_PIN_PD12(void);
  32:HANcoder_E407_TTA_CombineModel.c **** void TimeoutOverflowIRQ_TIMEOUT_MODULE_TIM4(void);
  33:HANcoder_E407_TTA_CombineModel.c **** 
  34:HANcoder_E407_TTA_CombineModel.c **** /* Exported block signals */
  35:HANcoder_E407_TTA_CombineModel.c **** real_T reqAngle;                       /* '<S5>/Data Store Read' */
  36:HANcoder_E407_TTA_CombineModel.c **** real_T Gamma1;                         /* '<S19>/Sum1' */
  37:HANcoder_E407_TTA_CombineModel.c **** real_T steering;                       /* '<S18>/Gain2' */
  38:HANcoder_E407_TTA_CombineModel.c **** real_T position;                       /* '<S18>/Gain1' */
  39:HANcoder_E407_TTA_CombineModel.c **** real_T control;                        /* '<S18>/Sum' */
  40:HANcoder_E407_TTA_CombineModel.c **** uint32_T SI_FreeHeap;                  /* '<S368>/Level-2 M-file S-Function' */
  41:HANcoder_E407_TTA_CombineModel.c **** uint32_T SI_FreeStack;                 /* '<S369>/Level-2 M-file S-Function' */
  42:HANcoder_E407_TTA_CombineModel.c **** real32_T derivativeMean;               /* '<S79>/Moving Average' */
  43:HANcoder_E407_TTA_CombineModel.c **** real32_T delta12K;                     /* '<S74>/tan 1' */
  44:HANcoder_E407_TTA_CombineModel.c **** int32_T motorPos;                      /* '<S81>/Level-2 M-file S-Function' */
  45:HANcoder_E407_TTA_CombineModel.c **** uint16_T pot31;                        /* '<S241>/Add' */
  46:HANcoder_E407_TTA_CombineModel.c **** uint16_T pot32;                        /* '<S240>/Add' */
  47:HANcoder_E407_TTA_CombineModel.c **** uint16_T pot11;                        /* '<S194>/Add' */
  48:HANcoder_E407_TTA_CombineModel.c **** uint16_T pot12;                        /* '<S193>/Add' */
  49:HANcoder_E407_TTA_CombineModel.c **** uint16_T pot21;                        /* '<S125>/Add' */
  50:HANcoder_E407_TTA_CombineModel.c **** uint16_T pot22;                        /* '<S124>/Add' */
  51:HANcoder_E407_TTA_CombineModel.c **** uint16_T testCounter;                  /* '<S103>/Data Store Read1' */
  52:HANcoder_E407_TTA_CombineModel.c **** uint16_T potRaw;                       /* '<S79>/Data Store Read5' */
  53:HANcoder_E407_TTA_CombineModel.c **** uint16_T lastPot;                      /* '<S79>/Data Store Read6' */
  54:HANcoder_E407_TTA_CombineModel.c **** uint16_T derivative;                   /* '<S90>/Diff' */
  55:HANcoder_E407_TTA_CombineModel.c **** uint16_T analogPot1;                   /* '<S82>/Level-2 M-file S-Function' */
  56:HANcoder_E407_TTA_CombineModel.c **** uint16_T pot1;                         /* '<S77>/Cast1' */
  57:HANcoder_E407_TTA_CombineModel.c **** uint16_T analogPot2;                   /* '<S83>/Level-2 M-file S-Function' */
  58:HANcoder_E407_TTA_CombineModel.c **** uint16_T pot2;                         /* '<S77>/Cast2' */
  59:HANcoder_E407_TTA_CombineModel.c **** uint16_T t2Angle;                      /* '<S5>/Data Store Read2' */
  60:HANcoder_E407_TTA_CombineModel.c **** uint16_T t1Angle;                      /* '<S5>/Data Store Read1' */
  61:HANcoder_E407_TTA_CombineModel.c **** uint16_T Gamma2;                       /* '<S19>/Sum2' */
  62:HANcoder_E407_TTA_CombineModel.c **** uint16_T mospeed;                      /* '<S18>/Add' */
  63:HANcoder_E407_TTA_CombineModel.c **** uint8_T SI_CPUload;                    /* '<S367>/Level-2 M-file S-Function' */
  64:HANcoder_E407_TTA_CombineModel.c **** uint8_T buttonpress2;                  /* '<S320>/In6' */
  65:HANcoder_E407_TTA_CombineModel.c **** uint8_T buttonpress1;                  /* '<S273>/In6' */
  66:HANcoder_E407_TTA_CombineModel.c **** uint8_T amounttrailers;                /* '<S16>/Add' */
  67:HANcoder_E407_TTA_CombineModel.c **** uint8_T positionID5;                   /* '<S16>/Cast3' */
  68:HANcoder_E407_TTA_CombineModel.c **** uint8_T positionID4;                   /* '<S16>/Cast2' */
  69:HANcoder_E407_TTA_CombineModel.c **** uint8_T local_ticks_interrupt;         /* '<S9>/Switch' */
  70:HANcoder_E407_TTA_CombineModel.c **** uint8_T setSlotTime;                   /* '<S9>/Data Store Read3' */
  71:HANcoder_E407_TTA_CombineModel.c **** uint8_T slotSelected;                  /* '<S94>/Switch' */
  72:HANcoder_E407_TTA_CombineModel.c **** boolean_T boolCan;                     /* '<S10>/AND' */
  73:HANcoder_E407_TTA_CombineModel.c **** boolean_T potFaultDetected;            /* '<S108>/Data Store Read4' */
  74:HANcoder_E407_TTA_CombineModel.c **** boolean_T masterCanFail;               /* '<S98>/NOT' */
  75:HANcoder_E407_TTA_CombineModel.c **** boolean_T mf1;                         /* '<S79>/Delay' */
  76:HANcoder_E407_TTA_CombineModel.c **** boolean_T mf2;                         /* '<S79>/Delay1' */
  77:HANcoder_E407_TTA_CombineModel.c **** boolean_T mf3;                         /* '<S79>/Delay2' */
  78:HANcoder_E407_TTA_CombineModel.c **** boolean_T mf4;                         /* '<S79>/Delay4' */
  79:HANcoder_E407_TTA_CombineModel.c **** boolean_T mf5;                         /* '<S79>/Delay3' */
  80:HANcoder_E407_TTA_CombineModel.c **** boolean_T motorFaultDetected;          /* '<S79>/AND2' */
  81:HANcoder_E407_TTA_CombineModel.c **** boolean_T ioInit;                      /* '<S77>/Constant' */
  82:HANcoder_E407_TTA_CombineModel.c **** boolean_T cw;                          /* '<S18>/Cast1' */
  83:HANcoder_E407_TTA_CombineModel.c **** boolean_T ccw;                         /* '<S18>/NOT' */
  84:HANcoder_E407_TTA_CombineModel.c **** boolean_T canActive;                   /* '<S9>/Clock_State' */
  85:HANcoder_E407_TTA_CombineModel.c **** 
  86:HANcoder_E407_TTA_CombineModel.c **** /* Exported block parameters */
  87:HANcoder_E407_TTA_CombineModel.c **** real_T ClockOn = 0.0;                  /* Variable: ClockOn
  88:HANcoder_E407_TTA_CombineModel.c ****                                         * Referenced by: '<S12>/Constant'
  89:HANcoder_E407_TTA_CombineModel.c ****                                         */
  90:HANcoder_E407_TTA_CombineModel.c **** real_T ResetPosition = 0.0;            /* Variable: ResetPosition
  91:HANcoder_E407_TTA_CombineModel.c ****                                         * Referenced by: '<S371>/Constant'
  92:HANcoder_E407_TTA_CombineModel.c ****                                         */
  93:HANcoder_E407_TTA_CombineModel.c **** real_T controlWidth = 10.0;            /* Variable: controlWidth
  94:HANcoder_E407_TTA_CombineModel.c ****                                         * Referenced by: '<S18>/Constant'
  95:HANcoder_E407_TTA_CombineModel.c ****                                         */
  96:HANcoder_E407_TTA_CombineModel.c **** real_T desiredAngle = 0.0;             /* Variable: desiredAngle
  97:HANcoder_E407_TTA_CombineModel.c ****                                         * Referenced by: '<S77>/Constant2'
  98:HANcoder_E407_TTA_CombineModel.c ****                                         */
  99:HANcoder_E407_TTA_CombineModel.c **** real_T intVal = 0.15;                  /* Variable: intVal
 100:HANcoder_E407_TTA_CombineModel.c ****                                         * Referenced by: '<S51>/Integral Gain'
 101:HANcoder_E407_TTA_CombineModel.c ****                                         */
 102:HANcoder_E407_TTA_CombineModel.c **** real_T matrixRows = 10.0;              /* Variable: matrixRows
 103:HANcoder_E407_TTA_CombineModel.c ****                                         * Referenced by: '<S94>/Constant1'
 104:HANcoder_E407_TTA_CombineModel.c ****                                         */
 105:HANcoder_E407_TTA_CombineModel.c **** real_T propVal = 1.0;                  /* Variable: propVal
 106:HANcoder_E407_TTA_CombineModel.c ****                                         * Referenced by: '<S59>/Proportional Gain'
 107:HANcoder_E407_TTA_CombineModel.c ****                                         */
 108:HANcoder_E407_TTA_CombineModel.c **** uint32_T MMBS1_ID = 12U;               /* Variable: MMBS1_ID
 109:HANcoder_E407_TTA_CombineModel.c ****                                         * Referenced by: '<S10>/Constant12'
 110:HANcoder_E407_TTA_CombineModel.c ****                                         */
 111:HANcoder_E407_TTA_CombineModel.c **** uint32_T SSTM1_ID = 13U;               /* Variable: SSTM1_ID
 112:HANcoder_E407_TTA_CombineModel.c ****                                         * Referenced by: '<S10>/Constant14'
 113:HANcoder_E407_TTA_CombineModel.c ****                                         */
 114:HANcoder_E407_TTA_CombineModel.c **** uint32_T SYNC1_ID = 11U;               /* Variable: SYNC1_ID
 115:HANcoder_E407_TTA_CombineModel.c ****                                         * Referenced by:
 116:HANcoder_E407_TTA_CombineModel.c ****                                         *   '<S10>/Constant10'
 117:HANcoder_E407_TTA_CombineModel.c ****                                         *   '<S360>/Constant10'
 118:HANcoder_E407_TTA_CombineModel.c ****                                         */
 119:HANcoder_E407_TTA_CombineModel.c **** uint32_T TRCK1_ID1 = 14U;              /* Variable: TRCK1_ID1
 120:HANcoder_E407_TTA_CombineModel.c ****                                         * Referenced by: '<S10>/Constant3'
 121:HANcoder_E407_TTA_CombineModel.c ****                                         */
 122:HANcoder_E407_TTA_CombineModel.c **** uint32_T TRCK1_ID2 = 26U;              /* Variable: TRCK1_ID2
 123:HANcoder_E407_TTA_CombineModel.c ****                                         * Referenced by: '<S10>/Constant5'
 124:HANcoder_E407_TTA_CombineModel.c ****                                         */
 125:HANcoder_E407_TTA_CombineModel.c **** uint32_T TRCK1_ID3 = 37U;              /* Variable: TRCK1_ID3
 126:HANcoder_E407_TTA_CombineModel.c ****                                         * Referenced by: '<S10>/Constant26'
 127:HANcoder_E407_TTA_CombineModel.c ****                                         */
 128:HANcoder_E407_TTA_CombineModel.c **** uint32_T TRLS1_ID4 = 48U;              /* Variable: TRLS1_ID4
 129:HANcoder_E407_TTA_CombineModel.c ****                                         * Referenced by: '<S10>/Constant8'
 130:HANcoder_E407_TTA_CombineModel.c ****                                         */
 131:HANcoder_E407_TTA_CombineModel.c **** uint32_T TRLS1_ID5 = 59U;              /* Variable: TRLS1_ID5
 132:HANcoder_E407_TTA_CombineModel.c ****                                         * Referenced by: '<S10>/Constant18'
 133:HANcoder_E407_TTA_CombineModel.c ****                                         */
 134:HANcoder_E407_TTA_CombineModel.c **** uint8_T slotTime = 10U;                /* Variable: slotTime
 135:HANcoder_E407_TTA_CombineModel.c ****                                         * Referenced by: '<S359>/Constant3'
 136:HANcoder_E407_TTA_CombineModel.c ****                                         */
 137:HANcoder_E407_TTA_CombineModel.c **** 
 138:HANcoder_E407_TTA_CombineModel.c **** /* Block signals (default storage) */
 139:HANcoder_E407_TTA_CombineModel.c **** BlockIO rtB;
 140:HANcoder_E407_TTA_CombineModel.c **** 
 141:HANcoder_E407_TTA_CombineModel.c **** /* Block states (default storage) */
 142:HANcoder_E407_TTA_CombineModel.c **** D_Work rtDWork;
 143:HANcoder_E407_TTA_CombineModel.c **** 
 144:HANcoder_E407_TTA_CombineModel.c **** /* Previous zero-crossings (trigger) states */
 145:HANcoder_E407_TTA_CombineModel.c **** PrevZCSigStates rtPrevZCSigState;
 146:HANcoder_E407_TTA_CombineModel.c **** 
 147:HANcoder_E407_TTA_CombineModel.c **** /* Real-time model */
 148:HANcoder_E407_TTA_CombineModel.c **** static RT_MODEL rtM_;
 149:HANcoder_E407_TTA_CombineModel.c **** RT_MODEL *const rtM = &rtM_;
 150:HANcoder_E407_TTA_CombineModel.c **** 
 151:HANcoder_E407_TTA_CombineModel.c **** /* Forward declaration for local functions */
 152:HANcoder_E407_TTA_CombineModel.c **** static void SystemCore_setup(dsp_simulink_MovingAverage *obj);
 153:HANcoder_E407_TTA_CombineModel.c **** 
 154:HANcoder_E407_TTA_CombineModel.c **** /* Forward declaration for local functions */
 155:HANcoder_E407_TTA_CombineModel.c **** static void SystemCore_setup_l(dsp_simulink_MovingAverage *obj);
 156:HANcoder_E407_TTA_CombineModel.c **** static tCanDataTypes canRxData_0_MMBS1_ID;
 157:HANcoder_E407_TTA_CombineModel.c **** static tCanDataTypes canTxData;
 158:HANcoder_E407_TTA_CombineModel.c **** static tCanDataTypes canRxData_0_SSTM1_ID;
 159:HANcoder_E407_TTA_CombineModel.c **** static tCanDataTypes canRxData_0_SYNC1_ID;
 160:HANcoder_E407_TTA_CombineModel.c **** static tCanDataTypes canRxData_0_TRCK1_ID2;
 161:HANcoder_E407_TTA_CombineModel.c **** static tCanDataTypes canRxData_0_TRCK1_ID1;
 162:HANcoder_E407_TTA_CombineModel.c **** static tCanDataTypes canRxData_0_TRCK1_ID3;
 163:HANcoder_E407_TTA_CombineModel.c **** static tCanDataTypes canRxData_0_TRLS1_ID4;
 164:HANcoder_E407_TTA_CombineModel.c **** static tCanDataTypes canRxData_0_TRLS1_ID5;
 165:HANcoder_E407_TTA_CombineModel.c **** static tCanDataTypes canRxData_0_SYNC1_ID;
 166:HANcoder_E407_TTA_CombineModel.c **** 
 167:HANcoder_E407_TTA_CombineModel.c **** /*
 168:HANcoder_E407_TTA_CombineModel.c ****  * Swaps the values of two bytes.
 169:HANcoder_E407_TTA_CombineModel.c ****  * a, b pointers to data values that need swapping
 170:HANcoder_E407_TTA_CombineModel.c ****  */
 171:HANcoder_E407_TTA_CombineModel.c **** static void swap(unsigned char *a, unsigned char *b)
 172:HANcoder_E407_TTA_CombineModel.c **** {
 173:HANcoder_E407_TTA_CombineModel.c ****   register char i = *a;
 174:HANcoder_E407_TTA_CombineModel.c ****   *a = *b;
 175:HANcoder_E407_TTA_CombineModel.c ****   *b = i;
 176:HANcoder_E407_TTA_CombineModel.c **** }                                      /*** end of swap ***/
 177:HANcoder_E407_TTA_CombineModel.c **** 
 178:HANcoder_E407_TTA_CombineModel.c **** /*
 179:HANcoder_E407_TTA_CombineModel.c ****  * Swaps all bytes in b. Typically used to fix endianes.
 180:HANcoder_E407_TTA_CombineModel.c ****  * b pointer to data with bytes to swap
 181:HANcoder_E407_TTA_CombineModel.c ****  * n number of bytes to swap
 182:HANcoder_E407_TTA_CombineModel.c ****  */
 183:HANcoder_E407_TTA_CombineModel.c **** void ByteSwap_x(uint8_t *b, size_t n)
 184:HANcoder_E407_TTA_CombineModel.c **** {
 185:HANcoder_E407_TTA_CombineModel.c ****   int i = 0;
 186:HANcoder_E407_TTA_CombineModel.c ****   int j = n-1;
 187:HANcoder_E407_TTA_CombineModel.c ****   while (i<j) {
 188:HANcoder_E407_TTA_CombineModel.c ****     swap(&b[i], &b[j]);
 189:HANcoder_E407_TTA_CombineModel.c ****     i++, j--;
 190:HANcoder_E407_TTA_CombineModel.c ****   }
 191:HANcoder_E407_TTA_CombineModel.c **** }
 192:HANcoder_E407_TTA_CombineModel.c **** 
 193:HANcoder_E407_TTA_CombineModel.c **** void TimeoutEventIRQ_TIMEOUT_TIM4_PIN_PD12(void)
 194:HANcoder_E407_TTA_CombineModel.c **** {
 195:HANcoder_E407_TTA_CombineModel.c ****   /* Output and update for function-call system: '<S1>/Local Time generation' */
 196:HANcoder_E407_TTA_CombineModel.c ****   {
 197:HANcoder_E407_TTA_CombineModel.c ****     /* local block i/o variables */
 198:HANcoder_E407_TTA_CombineModel.c ****     uint16_T rtb_Level2MfileSFunction;
 199:HANcoder_E407_TTA_CombineModel.c ****     boolean_T rtb_Equal;
 200:HANcoder_E407_TTA_CombineModel.c **** 
 201:HANcoder_E407_TTA_CombineModel.c ****     /* SignalConversion generated from: '<S9>/Clock_State' */
 202:HANcoder_E407_TTA_CombineModel.c ****     canActive = rtB.OR;
 203:HANcoder_E407_TTA_CombineModel.c **** 
 204:HANcoder_E407_TTA_CombineModel.c ****     /* Switch: '<S9>/Switch' */
 205:HANcoder_E407_TTA_CombineModel.c ****     if (canActive) {
 206:HANcoder_E407_TTA_CombineModel.c ****       /* Switch: '<S9>/Switch' incorporates:
 207:HANcoder_E407_TTA_CombineModel.c ****        *  Constant: '<S9>/Constant2'
 208:HANcoder_E407_TTA_CombineModel.c ****        *  DataStoreRead: '<S9>/Data Store Read'
 209:HANcoder_E407_TTA_CombineModel.c ****        *  Sum: '<S9>/Sum1'
 210:HANcoder_E407_TTA_CombineModel.c ****        */
 211:HANcoder_E407_TTA_CombineModel.c ****       local_ticks_interrupt = (uint8_T)((uint32_T)rtDWork.Local_Ticks +
 212:HANcoder_E407_TTA_CombineModel.c ****         ((uint8_T)1U));
 213:HANcoder_E407_TTA_CombineModel.c ****     } else {
 214:HANcoder_E407_TTA_CombineModel.c ****       /* Switch: '<S9>/Switch' incorporates:
 215:HANcoder_E407_TTA_CombineModel.c ****        *  DataStoreRead: '<S9>/Data Store Read1'
 216:HANcoder_E407_TTA_CombineModel.c ****        */
 217:HANcoder_E407_TTA_CombineModel.c ****       local_ticks_interrupt = rtDWork.Local_Ticks;
 218:HANcoder_E407_TTA_CombineModel.c ****     }
 219:HANcoder_E407_TTA_CombineModel.c **** 
 220:HANcoder_E407_TTA_CombineModel.c ****     /* End of Switch: '<S9>/Switch' */
 221:HANcoder_E407_TTA_CombineModel.c **** 
 222:HANcoder_E407_TTA_CombineModel.c ****     /* DataStoreWrite: '<S9>/Data Store Write' */
 223:HANcoder_E407_TTA_CombineModel.c ****     rtDWork.Local_Ticks = local_ticks_interrupt;
 224:HANcoder_E407_TTA_CombineModel.c **** 
 225:HANcoder_E407_TTA_CombineModel.c ****     /* DataStoreRead: '<S9>/Data Store Read3' */
 226:HANcoder_E407_TTA_CombineModel.c ****     setSlotTime = rtDWork.SlotTime;
 227:HANcoder_E407_TTA_CombineModel.c **** 
 228:HANcoder_E407_TTA_CombineModel.c ****     /* M-S-Function: '<S95>/Level-2 M-file S-Function' incorporates:
 229:HANcoder_E407_TTA_CombineModel.c ****      *  DataTypeConversion: '<S9>/Cast'
 230:HANcoder_E407_TTA_CombineModel.c ****      */
 231:HANcoder_E407_TTA_CombineModel.c ****     rtb_Level2MfileSFunction = setSlotTime;
 232:HANcoder_E407_TTA_CombineModel.c **** 
 233:HANcoder_E407_TTA_CombineModel.c ****     /* RelationalOperator: '<S9>/Equal' incorporates:
 234:HANcoder_E407_TTA_CombineModel.c ****      *  DataStoreRead: '<S9>/Data Store Read2'
 235:HANcoder_E407_TTA_CombineModel.c ****      */
 236:HANcoder_E407_TTA_CombineModel.c ****     rtb_Equal = (rtDWork.Local_Ticks >= rtb_Level2MfileSFunction);
 237:HANcoder_E407_TTA_CombineModel.c **** 
 238:HANcoder_E407_TTA_CombineModel.c ****     /* Outputs for Triggered SubSystem: '<S9>/Enabled Subsystem' incorporates:
 239:HANcoder_E407_TTA_CombineModel.c ****      *  TriggerPort: '<S94>/Trigger'
 240:HANcoder_E407_TTA_CombineModel.c ****      */
 241:HANcoder_E407_TTA_CombineModel.c ****     if (rtb_Equal && (rtPrevZCSigState.EnabledSubsystem_Trig_ZCE != POS_ZCSIG))
 242:HANcoder_E407_TTA_CombineModel.c ****     {
 243:HANcoder_E407_TTA_CombineModel.c ****       /* Switch: '<S94>/Switch' incorporates:
 244:HANcoder_E407_TTA_CombineModel.c ****        *  Constant: '<S94>/Constant1'
 245:HANcoder_E407_TTA_CombineModel.c ****        *  DataStoreRead: '<S94>/Data Store Read1'
 246:HANcoder_E407_TTA_CombineModel.c ****        *  DataTypeConversion: '<S94>/Cast'
 247:HANcoder_E407_TTA_CombineModel.c ****        *  RelationalOperator: '<S94>/Equal'
 248:HANcoder_E407_TTA_CombineModel.c ****        */
 249:HANcoder_E407_TTA_CombineModel.c ****       if (rtDWork.slot < (uint8_T)matrixRows) {
 250:HANcoder_E407_TTA_CombineModel.c ****         /* Switch: '<S94>/Switch' incorporates:
 251:HANcoder_E407_TTA_CombineModel.c ****          *  Constant: '<S94>/Constant'
 252:HANcoder_E407_TTA_CombineModel.c ****          *  DataStoreRead: '<S94>/Data Store Read'
 253:HANcoder_E407_TTA_CombineModel.c ****          *  Sum: '<S94>/Plus'
 254:HANcoder_E407_TTA_CombineModel.c ****          */
 255:HANcoder_E407_TTA_CombineModel.c ****         slotSelected = (uint8_T)((uint32_T)rtDWork.slot + ((uint8_T)1U));
 256:HANcoder_E407_TTA_CombineModel.c ****       } else {
 257:HANcoder_E407_TTA_CombineModel.c ****         /* Switch: '<S94>/Switch' incorporates:
 258:HANcoder_E407_TTA_CombineModel.c ****          *  Constant: '<S94>/Constant2'
 259:HANcoder_E407_TTA_CombineModel.c ****          */
 260:HANcoder_E407_TTA_CombineModel.c ****         slotSelected = (uint8_T)1.0;
 261:HANcoder_E407_TTA_CombineModel.c ****       }
 262:HANcoder_E407_TTA_CombineModel.c **** 
 263:HANcoder_E407_TTA_CombineModel.c ****       /* End of Switch: '<S94>/Switch' */
 264:HANcoder_E407_TTA_CombineModel.c **** 
 265:HANcoder_E407_TTA_CombineModel.c ****       /* DataStoreWrite: '<S94>/Data Store Write' */
 266:HANcoder_E407_TTA_CombineModel.c ****       rtDWork.slot = slotSelected;
 267:HANcoder_E407_TTA_CombineModel.c **** 
 268:HANcoder_E407_TTA_CombineModel.c ****       /* DataStoreWrite: '<S94>/Data Store Write1' incorporates:
 269:HANcoder_E407_TTA_CombineModel.c ****        *  Constant: '<S94>/Constant3'
 270:HANcoder_E407_TTA_CombineModel.c ****        */
 271:HANcoder_E407_TTA_CombineModel.c ****       rtDWork.Local_Ticks = ((uint8_T)0U);
 272:HANcoder_E407_TTA_CombineModel.c ****     }
 273:HANcoder_E407_TTA_CombineModel.c **** 
 274:HANcoder_E407_TTA_CombineModel.c ****     rtPrevZCSigState.EnabledSubsystem_Trig_ZCE = rtb_Equal;
 275:HANcoder_E407_TTA_CombineModel.c **** 
 276:HANcoder_E407_TTA_CombineModel.c ****     /* End of Outputs for SubSystem: '<S9>/Enabled Subsystem' */
 277:HANcoder_E407_TTA_CombineModel.c ****     /* M-S-Function: '<S95>/Level-2 M-file S-Function' */
 278:HANcoder_E407_TTA_CombineModel.c ****     /* read 16-bit free running counter timestamp of the last output compare event */
 279:HANcoder_E407_TTA_CombineModel.c ****     rtb_Level2MfileSFunction = TimeoutGetLastEventCounter(TIMEOUT_TIM4_PIN_PD12);
 280:HANcoder_E407_TTA_CombineModel.c **** 
 281:HANcoder_E407_TTA_CombineModel.c ****     /* Sum: '<S9>/Sum' incorporates:
 282:HANcoder_E407_TTA_CombineModel.c ****      *  Constant: '<S9>/Constant'
 283:HANcoder_E407_TTA_CombineModel.c ****      */
 284:HANcoder_E407_TTA_CombineModel.c ****     rtB.Sum = (uint16_T)((uint32_T)rtb_Level2MfileSFunction + ((uint16_T)1000U));
 285:HANcoder_E407_TTA_CombineModel.c **** 
 286:HANcoder_E407_TTA_CombineModel.c ****     /* Update for M-S-Function: '<S96>/Level-2 M-file S-Function' incorporates:
 287:HANcoder_E407_TTA_CombineModel.c ****      *  Constant: '<S9>/Constant1'
 288:HANcoder_E407_TTA_CombineModel.c ****      */
 289:HANcoder_E407_TTA_CombineModel.c ****     /* schedule the next output compare event */
 290:HANcoder_E407_TTA_CombineModel.c ****     TimeoutScheduleCompareEvent(TIMEOUT_TIM4_PIN_PD12, rtB.Sum, (tTimeoutAction)
 291:HANcoder_E407_TTA_CombineModel.c ****       ((uint8_T)3U));
 292:HANcoder_E407_TTA_CombineModel.c ****   }
 293:HANcoder_E407_TTA_CombineModel.c **** }
 294:HANcoder_E407_TTA_CombineModel.c **** 
 295:HANcoder_E407_TTA_CombineModel.c **** void PwmoutIRQ_PWMOUT_MODULE_TIM14(void)
 296:HANcoder_E407_TTA_CombineModel.c **** {
  29              		.loc 1 296 1 view -0
  30              		.cfi_startproc
  31              		@ args = 0, pretend = 0, frame = 0
  32              		@ frame_needed = 0, uses_anonymous_args = 0
  33              		@ link register save eliminated.
 297:HANcoder_E407_TTA_CombineModel.c **** }
  34              		.loc 1 297 1 view .LVU1
  35 0000 7047     		bx	lr
  36              		.cfi_endproc
  37              	.LFE114:
  39              		.global	__aeabi_d2uiz
  40 0002 00BF     		.section	.text.TimeoutEventIRQ_TIMEOUT_TIM4_PIN_PD12,"ax",%progbits
  41              		.align	1
  42              		.p2align 2,,3
  43              		.global	TimeoutEventIRQ_TIMEOUT_TIM4_PIN_PD12
  44              		.syntax unified
  45              		.thumb
  46              		.thumb_func
  48              	TimeoutEventIRQ_TIMEOUT_TIM4_PIN_PD12:
  49              	.LFB113:
 194:HANcoder_E407_TTA_CombineModel.c ****   /* Output and update for function-call system: '<S1>/Local Time generation' */
  50              		.loc 1 194 1 view -0
  51              		.cfi_startproc
  52              		@ args = 0, pretend = 0, frame = 0
  53              		@ frame_needed = 0, uses_anonymous_args = 0
  54              	.LBB222:
 198:HANcoder_E407_TTA_CombineModel.c ****     boolean_T rtb_Equal;
  55              		.loc 1 198 5 view .LVU3
 199:HANcoder_E407_TTA_CombineModel.c **** 
  56              		.loc 1 199 5 view .LVU4
 202:HANcoder_E407_TTA_CombineModel.c **** 
  57              		.loc 1 202 5 view .LVU5
  58              	.LBE222:
 194:HANcoder_E407_TTA_CombineModel.c ****   /* Output and update for function-call system: '<S1>/Local Time generation' */
  59              		.loc 1 194 1 is_stmt 0 view .LVU6
  60 0000 2DE9F041 		push	{r4, r5, r6, r7, r8, lr}
  61              		.cfi_def_cfa_offset 24
  62              		.cfi_offset 4, -24
  63              		.cfi_offset 5, -20
  64              		.cfi_offset 6, -16
  65              		.cfi_offset 7, -12
  66              		.cfi_offset 8, -8
  67              		.cfi_offset 14, -4
  68              	.LBB223:
 202:HANcoder_E407_TTA_CombineModel.c **** 
  69              		.loc 1 202 20 view .LVU7
  70 0004 224D     		ldr	r5, .L15
 202:HANcoder_E407_TTA_CombineModel.c **** 
  71              		.loc 1 202 15 view .LVU8
  72 0006 234A     		ldr	r2, .L15+4
 202:HANcoder_E407_TTA_CombineModel.c **** 
  73              		.loc 1 202 20 view .LVU9
  74 0008 95F83430 		ldrb	r3, [r5, #52]	@ zero_extendqisi2
 211:HANcoder_E407_TTA_CombineModel.c ****         ((uint8_T)1U));
  75              		.loc 1 211 58 view .LVU10
  76 000c 224C     		ldr	r4, .L15+8
 202:HANcoder_E407_TTA_CombineModel.c **** 
  77              		.loc 1 202 15 view .LVU11
  78 000e 1370     		strb	r3, [r2]
 205:HANcoder_E407_TTA_CombineModel.c ****       /* Switch: '<S9>/Switch' incorporates:
  79              		.loc 1 205 5 is_stmt 1 view .LVU12
 205:HANcoder_E407_TTA_CombineModel.c ****       /* Switch: '<S9>/Switch' incorporates:
  80              		.loc 1 205 8 is_stmt 0 view .LVU13
  81 0010 002B     		cmp	r3, #0
  82 0012 3AD0     		beq	.L4
 211:HANcoder_E407_TTA_CombineModel.c ****         ((uint8_T)1U));
  83              		.loc 1 211 7 is_stmt 1 view .LVU14
 211:HANcoder_E407_TTA_CombineModel.c ****         ((uint8_T)1U));
  84              		.loc 1 211 31 is_stmt 0 view .LVU15
  85 0014 94F84731 		ldrb	r3, [r4, #327]	@ zero_extendqisi2
  86 0018 0133     		adds	r3, r3, #1
  87 001a DBB2     		uxtb	r3, r3
  88              	.L5:
  89 001c 1F49     		ldr	r1, .L15+12
 226:HANcoder_E407_TTA_CombineModel.c **** 
  90              		.loc 1 226 26 view .LVU16
  91 001e 94F84A21 		ldrb	r2, [r4, #330]	@ zero_extendqisi2
  92 0022 0B70     		strb	r3, [r1]
 223:HANcoder_E407_TTA_CombineModel.c **** 
  93              		.loc 1 223 5 is_stmt 1 view .LVU17
 226:HANcoder_E407_TTA_CombineModel.c **** 
  94              		.loc 1 226 17 is_stmt 0 view .LVU18
  95 0024 1E49     		ldr	r1, .L15+16
 241:HANcoder_E407_TTA_CombineModel.c ****     {
  96              		.loc 1 241 39 view .LVU19
  97 0026 1F4E     		ldr	r6, .L15+20
 223:HANcoder_E407_TTA_CombineModel.c **** 
  98              		.loc 1 223 25 view .LVU20
  99 0028 84F84731 		strb	r3, [r4, #327]
 226:HANcoder_E407_TTA_CombineModel.c **** 
 100              		.loc 1 226 5 is_stmt 1 view .LVU21
 236:HANcoder_E407_TTA_CombineModel.c **** 
 101              		.loc 1 236 38 is_stmt 0 view .LVU22
 102 002c 9A42     		cmp	r2, r3
 226:HANcoder_E407_TTA_CombineModel.c **** 
 103              		.loc 1 226 17 view .LVU23
 104 002e 0A70     		strb	r2, [r1]
 231:HANcoder_E407_TTA_CombineModel.c **** 
 105              		.loc 1 231 5 is_stmt 1 view .LVU24
 106              	.LVL0:
 236:HANcoder_E407_TTA_CombineModel.c **** 
 107              		.loc 1 236 5 view .LVU25
 236:HANcoder_E407_TTA_CombineModel.c **** 
 108              		.loc 1 236 15 is_stmt 0 view .LVU26
 109 0030 94BF     		ite	ls
 110 0032 4FF00108 		movls	r8, #1
 111 0036 4FF00008 		movhi	r8, #0
 112              	.LVL1:
 241:HANcoder_E407_TTA_CombineModel.c ****     {
 113              		.loc 1 241 5 is_stmt 1 view .LVU27
 241:HANcoder_E407_TTA_CombineModel.c ****     {
 114              		.loc 1 241 8 is_stmt 0 view .LVU28
 115 003a 17D8     		bhi	.L6
 241:HANcoder_E407_TTA_CombineModel.c ****     {
 116              		.loc 1 241 19 discriminator 1 view .LVU29
 117 003c 737B     		ldrb	r3, [r6, #13]	@ zero_extendqisi2
 118 003e 012B     		cmp	r3, #1
 119 0040 14D0     		beq	.L6
 249:HANcoder_E407_TTA_CombineModel.c ****         /* Switch: '<S94>/Switch' incorporates:
 120              		.loc 1 249 7 is_stmt 1 view .LVU30
 249:HANcoder_E407_TTA_CombineModel.c ****         /* Switch: '<S94>/Switch' incorporates:
 121              		.loc 1 249 26 is_stmt 0 view .LVU31
 122 0042 194B     		ldr	r3, .L15+24
 249:HANcoder_E407_TTA_CombineModel.c ****         /* Switch: '<S94>/Switch' incorporates:
 123              		.loc 1 249 18 view .LVU32
 124 0044 94F84971 		ldrb	r7, [r4, #329]	@ zero_extendqisi2
 249:HANcoder_E407_TTA_CombineModel.c ****         /* Switch: '<S94>/Switch' incorporates:
 125              		.loc 1 249 26 view .LVU33
 126 0048 D3E90001 		ldrd	r0, [r3]
 127 004c FFF7FEFF 		bl	__aeabi_d2uiz
 128              	.LVL2:
 249:HANcoder_E407_TTA_CombineModel.c ****         /* Switch: '<S94>/Switch' incorporates:
 129              		.loc 1 249 10 view .LVU34
 130 0050 C0B2     		uxtb	r0, r0
 131 0052 B842     		cmp	r0, r7
 255:HANcoder_E407_TTA_CombineModel.c ****       } else {
 132              		.loc 1 255 9 is_stmt 1 view .LVU35
 255:HANcoder_E407_TTA_CombineModel.c ****       } else {
 133              		.loc 1 255 24 is_stmt 0 view .LVU36
 134 0054 88BF     		it	hi
 135 0056 7B1C     		addhi	r3, r7, #1
 136 0058 144A     		ldr	r2, .L15+28
 137 005a 8CBF     		ite	hi
 138 005c DBB2     		uxtbhi	r3, r3
 260:HANcoder_E407_TTA_CombineModel.c ****       }
 139              		.loc 1 260 22 view .LVU37
 140 005e 0123     		movls	r3, #1
 266:HANcoder_E407_TTA_CombineModel.c **** 
 141              		.loc 1 266 20 view .LVU38
 142 0060 84F84931 		strb	r3, [r4, #329]
 143 0064 1370     		strb	r3, [r2]
 266:HANcoder_E407_TTA_CombineModel.c **** 
 144              		.loc 1 266 7 is_stmt 1 view .LVU39
 271:HANcoder_E407_TTA_CombineModel.c ****     }
 145              		.loc 1 271 7 view .LVU40
 271:HANcoder_E407_TTA_CombineModel.c ****     }
 146              		.loc 1 271 27 is_stmt 0 view .LVU41
 147 0066 0023     		movs	r3, #0
 148 0068 84F84731 		strb	r3, [r4, #327]
 149              	.L6:
 274:HANcoder_E407_TTA_CombineModel.c **** 
 150              		.loc 1 274 5 is_stmt 1 view .LVU42
 279:HANcoder_E407_TTA_CombineModel.c **** 
 151              		.loc 1 279 32 is_stmt 0 view .LVU43
 152 006c 0720     		movs	r0, #7
 274:HANcoder_E407_TTA_CombineModel.c **** 
 153              		.loc 1 274 48 view .LVU44
 154 006e 86F80D80 		strb	r8, [r6, #13]
 279:HANcoder_E407_TTA_CombineModel.c **** 
 155              		.loc 1 279 5 is_stmt 1 view .LVU45
 279:HANcoder_E407_TTA_CombineModel.c **** 
 156              		.loc 1 279 32 is_stmt 0 view .LVU46
 157 0072 FFF7FEFF 		bl	TimeoutGetLastEventCounter
 158              	.LVL3:
 284:HANcoder_E407_TTA_CombineModel.c **** 
 159              		.loc 1 284 5 is_stmt 1 view .LVU47
 284:HANcoder_E407_TTA_CombineModel.c **** 
 160              		.loc 1 284 15 is_stmt 0 view .LVU48
 161 0076 00F57A70 		add	r0, r0, #1000
 162              	.LVL4:
 284:HANcoder_E407_TTA_CombineModel.c **** 
 163              		.loc 1 284 15 view .LVU49
 164 007a 81B2     		uxth	r1, r0
 284:HANcoder_E407_TTA_CombineModel.c **** 
 165              		.loc 1 284 13 view .LVU50
 166 007c 6980     		strh	r1, [r5, #2]	@ movhi
 290:HANcoder_E407_TTA_CombineModel.c ****       ((uint8_T)3U));
 167              		.loc 1 290 5 is_stmt 1 view .LVU51
 168 007e 0322     		movs	r2, #3
 169              	.LBE223:
 293:HANcoder_E407_TTA_CombineModel.c **** 
 170              		.loc 1 293 1 is_stmt 0 view .LVU52
 171 0080 BDE8F041 		pop	{r4, r5, r6, r7, r8, lr}
 172              		.cfi_remember_state
 173              		.cfi_restore 14
 174              		.cfi_restore 8
 175              		.cfi_restore 7
 176              		.cfi_restore 6
 177              		.cfi_restore 5
 178              		.cfi_restore 4
 179              		.cfi_def_cfa_offset 0
 180              	.LVL5:
 181              	.LBB224:
 290:HANcoder_E407_TTA_CombineModel.c ****       ((uint8_T)3U));
 182              		.loc 1 290 5 view .LVU53
 183 0084 0720     		movs	r0, #7
 184 0086 FFF7FEBF 		b	TimeoutScheduleCompareEvent
 185              	.LVL6:
 186              	.L4:
 187              		.cfi_restore_state
 217:HANcoder_E407_TTA_CombineModel.c ****     }
 188              		.loc 1 217 7 is_stmt 1 view .LVU54
 217:HANcoder_E407_TTA_CombineModel.c ****     }
 189              		.loc 1 217 38 is_stmt 0 view .LVU55
 190 008a 94F84731 		ldrb	r3, [r4, #327]	@ zero_extendqisi2
 191 008e C5E7     		b	.L5
 192              	.L16:
 193              		.align	2
 194              	.L15:
 195 0090 00000000 		.word	.LANCHOR0
 196 0094 00000000 		.word	.LANCHOR1
 197 0098 00000000 		.word	.LANCHOR2
 198 009c 00000000 		.word	.LANCHOR3
 199 00a0 00000000 		.word	.LANCHOR4
 200 00a4 00000000 		.word	.LANCHOR5
 201 00a8 00000000 		.word	.LANCHOR6
 202 00ac 00000000 		.word	.LANCHOR7
 203              	.LBE224:
 204              		.cfi_endproc
 205              	.LFE113:
 207              		.section	.text.TimeoutOverflowIRQ_TIMEOUT_MODULE_TIM4,"ax",%progbits
 208              		.align	1
 209              		.p2align 2,,3
 210              		.global	TimeoutOverflowIRQ_TIMEOUT_MODULE_TIM4
 211              		.syntax unified
 212              		.thumb
 213              		.thumb_func
 215              	TimeoutOverflowIRQ_TIMEOUT_MODULE_TIM4:
 216              	.LFB142:
 217              		.cfi_startproc
 218              		@ args = 0, pretend = 0, frame = 0
 219              		@ frame_needed = 0, uses_anonymous_args = 0
 220              		@ link register save eliminated.
 221 0000 7047     		bx	lr
 222              		.cfi_endproc
 223              	.LFE142:
 225 0002 00BF     		.section	.text.ByteSwap_x,"ax",%progbits
 226              		.align	1
 227              		.p2align 2,,3
 228              		.global	ByteSwap_x
 229              		.syntax unified
 230              		.thumb
 231              		.thumb_func
 233              	ByteSwap_x:
 234              	.LVL7:
 235              	.LFB112:
 184:HANcoder_E407_TTA_CombineModel.c ****   int i = 0;
 236              		.loc 1 184 1 is_stmt 1 view -0
 237              		.cfi_startproc
 238              		@ args = 0, pretend = 0, frame = 0
 239              		@ frame_needed = 0, uses_anonymous_args = 0
 185:HANcoder_E407_TTA_CombineModel.c ****   int j = n-1;
 240              		.loc 1 185 3 view .LVU57
 186:HANcoder_E407_TTA_CombineModel.c ****   while (i<j) {
 241              		.loc 1 186 3 view .LVU58
 184:HANcoder_E407_TTA_CombineModel.c ****   int i = 0;
 242              		.loc 1 184 1 is_stmt 0 view .LVU59
 243 0000 70B5     		push	{r4, r5, r6, lr}
 244              		.cfi_def_cfa_offset 16
 245              		.cfi_offset 4, -16
 246              		.cfi_offset 5, -12
 247              		.cfi_offset 6, -8
 248              		.cfi_offset 14, -4
 186:HANcoder_E407_TTA_CombineModel.c ****   while (i<j) {
 249              		.loc 1 186 12 view .LVU60
 250 0002 01F1FF3E 		add	lr, r1, #-1
 251              	.LVL8:
 187:HANcoder_E407_TTA_CombineModel.c ****     swap(&b[i], &b[j]);
 252              		.loc 1 187 3 is_stmt 1 view .LVU61
 187:HANcoder_E407_TTA_CombineModel.c ****     swap(&b[i], &b[j]);
 253              		.loc 1 187 9 view .LVU62
 254 0006 BEF1000F 		cmp	lr, #0
 255 000a 15DD     		ble	.L18
 256 000c 00F1FF3C 		add	ip, r0, #-1
 257 0010 8644     		add	lr, lr, r0
 258              	.LVL9:
 187:HANcoder_E407_TTA_CombineModel.c ****     swap(&b[i], &b[j]);
 259              		.loc 1 187 9 is_stmt 0 view .LVU63
 260 0012 6FF00106 		mvn	r6, #1
 261              	.LVL10:
 262              	.L20:
 188:HANcoder_E407_TTA_CombineModel.c ****     i++, j--;
 263              		.loc 1 188 5 is_stmt 1 view .LVU64
 264              	.LBB225:
 265              	.LBI225:
 171:HANcoder_E407_TTA_CombineModel.c **** {
 266              		.loc 1 171 13 view .LVU65
 267              	.LBB226:
 173:HANcoder_E407_TTA_CombineModel.c ****   *a = *b;
 268              		.loc 1 173 3 view .LVU66
 269 0016 6246     		mov	r2, ip
 173:HANcoder_E407_TTA_CombineModel.c ****   *a = *b;
 270              		.loc 1 173 17 is_stmt 0 view .LVU67
 271 0018 1CF8014F 		ldrb	r4, [ip, #1]!	@ zero_extendqisi2
 272              	.LVL11:
 174:HANcoder_E407_TTA_CombineModel.c ****   *b = i;
 273              		.loc 1 174 3 is_stmt 1 view .LVU68
 174:HANcoder_E407_TTA_CombineModel.c ****   *b = i;
 274              		.loc 1 174 8 is_stmt 0 view .LVU69
 275 001c 9EF80050 		ldrb	r5, [lr]	@ zero_extendqisi2
 174:HANcoder_E407_TTA_CombineModel.c ****   *b = i;
 276              		.loc 1 174 6 view .LVU70
 277 0020 8CF80050 		strb	r5, [ip]
 175:HANcoder_E407_TTA_CombineModel.c **** }                                      /*** end of swap ***/
 278              		.loc 1 175 3 is_stmt 1 view .LVU71
 279              	.LBE226:
 280              	.LBE225:
 187:HANcoder_E407_TTA_CombineModel.c ****     swap(&b[i], &b[j]);
 281              		.loc 1 187 9 is_stmt 0 view .LVU72
 282 0024 A6EB0C03 		sub	r3, r6, ip
 283 0028 0232     		adds	r2, r2, #2
 284              	.LVL12:
 187:HANcoder_E407_TTA_CombineModel.c ****     swap(&b[i], &b[j]);
 285              		.loc 1 187 9 view .LVU73
 286 002a 0344     		add	r3, r3, r0
 287 002c 121A     		subs	r2, r2, r0
 288              	.LVL13:
 187:HANcoder_E407_TTA_CombineModel.c ****     swap(&b[i], &b[j]);
 289              		.loc 1 187 9 view .LVU74
 290 002e 0B44     		add	r3, r3, r1
 291 0030 9A42     		cmp	r2, r3
 292              	.LBB228:
 293              	.LBB227:
 175:HANcoder_E407_TTA_CombineModel.c **** }                                      /*** end of swap ***/
 294              		.loc 1 175 6 view .LVU75
 295 0032 0EF80149 		strb	r4, [lr], #-1
 296              	.LVL14:
 175:HANcoder_E407_TTA_CombineModel.c **** }                                      /*** end of swap ***/
 297              		.loc 1 175 6 view .LVU76
 298              	.LBE227:
 299              	.LBE228:
 189:HANcoder_E407_TTA_CombineModel.c ****   }
 300              		.loc 1 189 5 is_stmt 1 view .LVU77
 187:HANcoder_E407_TTA_CombineModel.c ****     swap(&b[i], &b[j]);
 301              		.loc 1 187 9 view .LVU78
 302 0036 EEDB     		blt	.L20
 303              	.LVL15:
 304              	.L18:
 191:HANcoder_E407_TTA_CombineModel.c **** 
 305              		.loc 1 191 1 is_stmt 0 view .LVU79
 306 0038 70BD     		pop	{r4, r5, r6, pc}
 307              		.cfi_endproc
 308              	.LFE112:
 310 003a 00BF     		.section	.text.MovingAverage_Init,"ax",%progbits
 311              		.align	1
 312              		.p2align 2,,3
 313              		.global	MovingAverage_Init
 314              		.syntax unified
 315              		.thumb
 316              		.thumb_func
 318              	MovingAverage_Init:
 319              	.LVL16:
 320              	.LFB117:
 298:HANcoder_E407_TTA_CombineModel.c **** 
 299:HANcoder_E407_TTA_CombineModel.c **** void TimeoutOverflowIRQ_TIMEOUT_MODULE_TIM4(void)
 300:HANcoder_E407_TTA_CombineModel.c **** {
 301:HANcoder_E407_TTA_CombineModel.c **** }
 302:HANcoder_E407_TTA_CombineModel.c **** 
 303:HANcoder_E407_TTA_CombineModel.c **** static void SystemCore_setup(dsp_simulink_MovingAverage *obj)
 304:HANcoder_E407_TTA_CombineModel.c **** {
 305:HANcoder_E407_TTA_CombineModel.c ****   obj->isSetupComplete = false;
 306:HANcoder_E407_TTA_CombineModel.c ****   obj->isInitialized = 1;
 307:HANcoder_E407_TTA_CombineModel.c ****   obj->NumChannels = 1;
 308:HANcoder_E407_TTA_CombineModel.c ****   obj->FrameLength = 1;
 309:HANcoder_E407_TTA_CombineModel.c ****   obj->_pobj0.isInitialized = 0;
 310:HANcoder_E407_TTA_CombineModel.c ****   obj->_pobj0.isInitialized = 0;
 311:HANcoder_E407_TTA_CombineModel.c ****   obj->pStatistic = &obj->_pobj0;
 312:HANcoder_E407_TTA_CombineModel.c ****   obj->isSetupComplete = true;
 313:HANcoder_E407_TTA_CombineModel.c ****   obj->TunablePropsChanged = false;
 314:HANcoder_E407_TTA_CombineModel.c **** }
 315:HANcoder_E407_TTA_CombineModel.c **** 
 316:HANcoder_E407_TTA_CombineModel.c **** /* System initialize for atomic system: */
 317:HANcoder_E407_TTA_CombineModel.c **** void MovingAverage_Init(rtDW_MovingAverage *localDW)
 318:HANcoder_E407_TTA_CombineModel.c **** {
 321              		.loc 1 318 1 is_stmt 1 view -0
 322              		.cfi_startproc
 323              		@ args = 0, pretend = 0, frame = 0
 324              		@ frame_needed = 0, uses_anonymous_args = 0
 319:HANcoder_E407_TTA_CombineModel.c ****   g_dsp_internal_SlidingWindowAve *obj;
 325              		.loc 1 319 3 view .LVU81
 320:HANcoder_E407_TTA_CombineModel.c ****   int32_T i;
 326              		.loc 1 320 3 view .LVU82
 321:HANcoder_E407_TTA_CombineModel.c **** 
 322:HANcoder_E407_TTA_CombineModel.c ****   /* InitializeConditions for MATLABSystem: '<S77>/Moving Average' */
 323:HANcoder_E407_TTA_CombineModel.c ****   obj = localDW->obj.pStatistic;
 327              		.loc 1 323 3 view .LVU83
 318:HANcoder_E407_TTA_CombineModel.c ****   g_dsp_internal_SlidingWindowAve *obj;
 328              		.loc 1 318 1 is_stmt 0 view .LVU84
 329 0000 38B5     		push	{r3, r4, r5, lr}
 330              		.cfi_def_cfa_offset 16
 331              		.cfi_offset 3, -16
 332              		.cfi_offset 4, -12
 333              		.cfi_offset 5, -8
 334              		.cfi_offset 14, -4
 335              		.loc 1 323 7 view .LVU85
 336 0002 C46A     		ldr	r4, [r0, #44]
 337              	.LVL17:
 324:HANcoder_E407_TTA_CombineModel.c ****   if (obj->isInitialized == 1) {
 338              		.loc 1 324 3 is_stmt 1 view .LVU86
 339              		.loc 1 324 6 is_stmt 0 view .LVU87
 340 0004 2368     		ldr	r3, [r4]
 341 0006 012B     		cmp	r3, #1
 342 0008 00D0     		beq	.L26
 325:HANcoder_E407_TTA_CombineModel.c ****     obj->pCumSum = 0.0F;
 326:HANcoder_E407_TTA_CombineModel.c ****     for (i = 0; i < 9; i++) {
 327:HANcoder_E407_TTA_CombineModel.c ****       obj->pCumSumRev[i] = 0.0F;
 328:HANcoder_E407_TTA_CombineModel.c ****     }
 329:HANcoder_E407_TTA_CombineModel.c **** 
 330:HANcoder_E407_TTA_CombineModel.c ****     obj->pCumRevIndex = 1.0F;
 331:HANcoder_E407_TTA_CombineModel.c ****     obj->pModValueRev = 0.0F;
 332:HANcoder_E407_TTA_CombineModel.c ****   }
 333:HANcoder_E407_TTA_CombineModel.c **** 
 334:HANcoder_E407_TTA_CombineModel.c ****   /* End of InitializeConditions for MATLABSystem: '<S77>/Moving Average' */
 335:HANcoder_E407_TTA_CombineModel.c **** }
 343              		.loc 1 335 1 view .LVU88
 344 000a 38BD     		pop	{r3, r4, r5, pc}
 345              	.LVL18:
 346              	.L26:
 325:HANcoder_E407_TTA_CombineModel.c ****     obj->pCumSum = 0.0F;
 347              		.loc 1 325 5 is_stmt 1 view .LVU89
 325:HANcoder_E407_TTA_CombineModel.c ****     obj->pCumSum = 0.0F;
 348              		.loc 1 325 18 is_stmt 0 view .LVU90
 349 000c 0025     		movs	r5, #0
 327:HANcoder_E407_TTA_CombineModel.c ****     }
 350              		.loc 1 327 26 view .LVU91
 351 000e 2422     		movs	r2, #36
 325:HANcoder_E407_TTA_CombineModel.c ****     obj->pCumSum = 0.0F;
 352              		.loc 1 325 18 view .LVU92
 353 0010 A560     		str	r5, [r4, #8]	@ float
 326:HANcoder_E407_TTA_CombineModel.c ****       obj->pCumSumRev[i] = 0.0F;
 354              		.loc 1 326 5 is_stmt 1 view .LVU93
 355              	.LVL19:
 326:HANcoder_E407_TTA_CombineModel.c ****       obj->pCumSumRev[i] = 0.0F;
 356              		.loc 1 326 17 view .LVU94
 327:HANcoder_E407_TTA_CombineModel.c ****     }
 357              		.loc 1 327 26 is_stmt 0 view .LVU95
 358 0012 0021     		movs	r1, #0
 359 0014 04F10C00 		add	r0, r4, #12
 360              	.LVL20:
 327:HANcoder_E407_TTA_CombineModel.c ****     }
 361              		.loc 1 327 26 view .LVU96
 362 0018 FFF7FEFF 		bl	memset
 363              	.LVL21:
 330:HANcoder_E407_TTA_CombineModel.c ****     obj->pModValueRev = 0.0F;
 364              		.loc 1 330 5 is_stmt 1 view .LVU97
 330:HANcoder_E407_TTA_CombineModel.c ****     obj->pModValueRev = 0.0F;
 365              		.loc 1 330 23 is_stmt 0 view .LVU98
 366 001c 4FF07E53 		mov	r3, #1065353216
 367 0020 2363     		str	r3, [r4, #48]	@ float
 331:HANcoder_E407_TTA_CombineModel.c ****   }
 368              		.loc 1 331 5 is_stmt 1 view .LVU99
 331:HANcoder_E407_TTA_CombineModel.c ****   }
 369              		.loc 1 331 23 is_stmt 0 view .LVU100
 370 0022 6563     		str	r5, [r4, #52]	@ float
 371              		.loc 1 335 1 view .LVU101
 372 0024 38BD     		pop	{r3, r4, r5, pc}
 373              		.loc 1 335 1 view .LVU102
 374              		.cfi_endproc
 375              	.LFE117:
 377 0026 00BF     		.section	.text.MovingAverage_Start,"ax",%progbits
 378              		.align	1
 379              		.p2align 2,,3
 380              		.global	MovingAverage_Start
 381              		.syntax unified
 382              		.thumb
 383              		.thumb_func
 385              	MovingAverage_Start:
 386              	.LVL22:
 387              	.LFB118:
 336:HANcoder_E407_TTA_CombineModel.c **** 
 337:HANcoder_E407_TTA_CombineModel.c **** /* Start for atomic system: */
 338:HANcoder_E407_TTA_CombineModel.c **** void MovingAverage_Start(rtDW_MovingAverage *localDW)
 339:HANcoder_E407_TTA_CombineModel.c **** {
 388              		.loc 1 339 1 is_stmt 1 view -0
 389              		.cfi_startproc
 390              		@ args = 0, pretend = 0, frame = 0
 391              		@ frame_needed = 0, uses_anonymous_args = 0
 392              		@ link register save eliminated.
 340:HANcoder_E407_TTA_CombineModel.c ****   /* Start for MATLABSystem: '<S77>/Moving Average' */
 341:HANcoder_E407_TTA_CombineModel.c ****   localDW->obj.isInitialized = 0;
 393              		.loc 1 341 3 view .LVU104
 342:HANcoder_E407_TTA_CombineModel.c ****   localDW->obj.NumChannels = -1;
 394              		.loc 1 342 3 view .LVU105
 343:HANcoder_E407_TTA_CombineModel.c ****   localDW->obj.FrameLength = -1;
 395              		.loc 1 343 3 view .LVU106
 344:HANcoder_E407_TTA_CombineModel.c ****   localDW->obj.matlabCodegenIsDeleted = false;
 396              		.loc 1 344 3 view .LVU107
 397              	.LBB229:
 398              	.LBB230:
 309:HANcoder_E407_TTA_CombineModel.c ****   obj->_pobj0.isInitialized = 0;
 399              		.loc 1 309 29 is_stmt 0 view .LVU108
 400 0000 0246     		mov	r2, r0
 401              	.LBE230:
 402              	.LBE229:
 345:HANcoder_E407_TTA_CombineModel.c ****   localDW->objisempty = true;
 403              		.loc 1 345 23 view .LVU109
 404 0002 0123     		movs	r3, #1
 344:HANcoder_E407_TTA_CombineModel.c ****   localDW->obj.matlabCodegenIsDeleted = false;
 405              		.loc 1 344 39 view .LVU110
 406 0004 0021     		movs	r1, #0
 407              	.LBB233:
 408              	.LBB231:
 308:HANcoder_E407_TTA_CombineModel.c ****   obj->_pobj0.isInitialized = 0;
 409              		.loc 1 308 20 view .LVU111
 410 0006 C0E90C33 		strd	r3, r3, [r0, #48]
 411              	.LBE231:
 412              	.LBE233:
 344:HANcoder_E407_TTA_CombineModel.c ****   localDW->objisempty = true;
 413              		.loc 1 344 39 view .LVU112
 414 000a 0170     		strb	r1, [r0]
 415              		.loc 1 345 3 is_stmt 1 view .LVU113
 416              		.loc 1 345 23 is_stmt 0 view .LVU114
 417 000c 80F87030 		strb	r3, [r0, #112]
 346:HANcoder_E407_TTA_CombineModel.c ****   SystemCore_setup(&localDW->obj);
 418              		.loc 1 346 3 is_stmt 1 view .LVU115
 419              	.LVL23:
 420              	.LBB234:
 421              	.LBI229:
 303:HANcoder_E407_TTA_CombineModel.c **** {
 422              		.loc 1 303 13 view .LVU116
 423              	.LBB232:
 305:HANcoder_E407_TTA_CombineModel.c ****   obj->isInitialized = 1;
 424              		.loc 1 305 3 view .LVU117
 306:HANcoder_E407_TTA_CombineModel.c ****   obj->NumChannels = 1;
 425              		.loc 1 306 3 view .LVU118
 307:HANcoder_E407_TTA_CombineModel.c ****   obj->FrameLength = 1;
 426              		.loc 1 307 3 view .LVU119
 309:HANcoder_E407_TTA_CombineModel.c ****   obj->_pobj0.isInitialized = 0;
 427              		.loc 1 309 3 view .LVU120
 309:HANcoder_E407_TTA_CombineModel.c ****   obj->_pobj0.isInitialized = 0;
 428              		.loc 1 309 29 is_stmt 0 view .LVU121
 429 0010 42F8381F 		str	r1, [r2, #56]!
 310:HANcoder_E407_TTA_CombineModel.c ****   obj->pStatistic = &obj->_pobj0;
 430              		.loc 1 310 3 is_stmt 1 view .LVU122
 311:HANcoder_E407_TTA_CombineModel.c ****   obj->isSetupComplete = true;
 431              		.loc 1 311 3 view .LVU123
 306:HANcoder_E407_TTA_CombineModel.c ****   obj->NumChannels = 1;
 432              		.loc 1 306 22 is_stmt 0 view .LVU124
 433 0014 4360     		str	r3, [r0, #4]
 311:HANcoder_E407_TTA_CombineModel.c ****   obj->isSetupComplete = true;
 434              		.loc 1 311 19 view .LVU125
 435 0016 C262     		str	r2, [r0, #44]
 312:HANcoder_E407_TTA_CombineModel.c ****   obj->TunablePropsChanged = false;
 436              		.loc 1 312 3 is_stmt 1 view .LVU126
 313:HANcoder_E407_TTA_CombineModel.c **** }
 437              		.loc 1 313 3 view .LVU127
 312:HANcoder_E407_TTA_CombineModel.c ****   obj->TunablePropsChanged = false;
 438              		.loc 1 312 24 is_stmt 0 view .LVU128
 439 0018 0381     		strh	r3, [r0, #8]	@ movhi
 440              	.LVL24:
 312:HANcoder_E407_TTA_CombineModel.c ****   obj->TunablePropsChanged = false;
 441              		.loc 1 312 24 view .LVU129
 442              	.LBE232:
 443              	.LBE234:
 347:HANcoder_E407_TTA_CombineModel.c **** }
 444              		.loc 1 347 1 view .LVU130
 445 001a 7047     		bx	lr
 446              		.cfi_endproc
 447              	.LFE118:
 449              		.section	.text.MovingAverage,"ax",%progbits
 450              		.align	1
 451              		.p2align 2,,3
 452              		.global	MovingAverage
 453              		.syntax unified
 454              		.thumb
 455              		.thumb_func
 457              	MovingAverage:
 458              	.LVL25:
 459              	.LFB119:
 348:HANcoder_E407_TTA_CombineModel.c **** 
 349:HANcoder_E407_TTA_CombineModel.c **** /* Output and update for atomic system: */
 350:HANcoder_E407_TTA_CombineModel.c **** void MovingAverage(real32_T rtu_0, rtB_MovingAverage *localB, rtDW_MovingAverage
 351:HANcoder_E407_TTA_CombineModel.c ****                    *localDW)
 352:HANcoder_E407_TTA_CombineModel.c **** {
 460              		.loc 1 352 1 is_stmt 1 view -0
 461              		.cfi_startproc
 462              		@ args = 0, pretend = 0, frame = 40
 463              		@ frame_needed = 0, uses_anonymous_args = 0
 353:HANcoder_E407_TTA_CombineModel.c ****   g_dsp_internal_SlidingWindowAve *obj;
 464              		.loc 1 353 3 view .LVU132
 354:HANcoder_E407_TTA_CombineModel.c ****   int32_T i;
 465              		.loc 1 354 3 view .LVU133
 355:HANcoder_E407_TTA_CombineModel.c ****   real32_T csumrev[9];
 466              		.loc 1 355 3 view .LVU134
 356:HANcoder_E407_TTA_CombineModel.c ****   real32_T csum;
 467              		.loc 1 356 3 view .LVU135
 357:HANcoder_E407_TTA_CombineModel.c ****   real32_T cumRevIndex;
 468              		.loc 1 357 3 view .LVU136
 358:HANcoder_E407_TTA_CombineModel.c ****   real32_T modValueRev;
 469              		.loc 1 358 3 view .LVU137
 359:HANcoder_E407_TTA_CombineModel.c ****   real32_T z;
 470              		.loc 1 359 3 view .LVU138
 360:HANcoder_E407_TTA_CombineModel.c **** 
 361:HANcoder_E407_TTA_CombineModel.c ****   /* MATLABSystem: '<S77>/Moving Average' */
 362:HANcoder_E407_TTA_CombineModel.c ****   if (localDW->obj.TunablePropsChanged) {
 471              		.loc 1 362 3 view .LVU139
 352:HANcoder_E407_TTA_CombineModel.c ****   g_dsp_internal_SlidingWindowAve *obj;
 472              		.loc 1 352 1 is_stmt 0 view .LVU140
 473 0000 2DE9F047 		push	{r4, r5, r6, r7, r8, r9, r10, lr}
 474              		.cfi_def_cfa_offset 32
 475              		.cfi_offset 4, -32
 476              		.cfi_offset 5, -28
 477              		.cfi_offset 6, -24
 478              		.cfi_offset 7, -20
 479              		.cfi_offset 8, -16
 480              		.cfi_offset 9, -12
 481              		.cfi_offset 10, -8
 482              		.cfi_offset 14, -4
 483 0004 2DED028B 		vpush.64	{d8}
 484              		.cfi_def_cfa_offset 40
 485              		.cfi_offset 80, -40
 486              		.cfi_offset 81, -36
 487              		.loc 1 362 6 view .LVU141
 488 0008 537A     		ldrb	r3, [r2, #9]	@ zero_extendqisi2
 352:HANcoder_E407_TTA_CombineModel.c ****   g_dsp_internal_SlidingWindowAve *obj;
 489              		.loc 1 352 1 view .LVU142
 490 000a 08EE100A 		vmov	s16, r0
 491 000e 8AB0     		sub	sp, sp, #40
 492              		.cfi_def_cfa_offset 80
 352:HANcoder_E407_TTA_CombineModel.c ****   g_dsp_internal_SlidingWindowAve *obj;
 493              		.loc 1 352 1 view .LVU143
 494 0010 0F46     		mov	r7, r1
 495              		.loc 1 362 6 view .LVU144
 496 0012 0BB1     		cbz	r3, .L29
 363:HANcoder_E407_TTA_CombineModel.c ****     localDW->obj.TunablePropsChanged = false;
 497              		.loc 1 363 5 is_stmt 1 view .LVU145
 498              		.loc 1 363 38 is_stmt 0 view .LVU146
 499 0014 0023     		movs	r3, #0
 500 0016 5372     		strb	r3, [r2, #9]
 501              	.L29:
 364:HANcoder_E407_TTA_CombineModel.c ****   }
 365:HANcoder_E407_TTA_CombineModel.c **** 
 366:HANcoder_E407_TTA_CombineModel.c ****   obj = localDW->obj.pStatistic;
 502              		.loc 1 366 3 is_stmt 1 view .LVU147
 503              		.loc 1 366 7 is_stmt 0 view .LVU148
 504 0018 D56A     		ldr	r5, [r2, #44]
 505              	.LVL26:
 367:HANcoder_E407_TTA_CombineModel.c ****   if (obj->isInitialized != 1) {
 506              		.loc 1 367 3 is_stmt 1 view .LVU149
 507              		.loc 1 367 6 is_stmt 0 view .LVU150
 508 001a 2B68     		ldr	r3, [r5]
 509 001c 012B     		cmp	r3, #1
 510 001e 00F08380 		beq	.L30
 368:HANcoder_E407_TTA_CombineModel.c ****     obj->isSetupComplete = false;
 511              		.loc 1 368 5 is_stmt 1 view .LVU151
 369:HANcoder_E407_TTA_CombineModel.c ****     obj->isInitialized = 1;
 512              		.loc 1 369 5 view .LVU152
 370:HANcoder_E407_TTA_CombineModel.c ****     obj->pCumSum = 0.0F;
 513              		.loc 1 370 18 is_stmt 0 view .LVU153
 514 0022 0022     		movs	r2, #0
 515              	.LVL27:
 369:HANcoder_E407_TTA_CombineModel.c ****     obj->isInitialized = 1;
 516              		.loc 1 369 24 view .LVU154
 517 0024 0123     		movs	r3, #1
 371:HANcoder_E407_TTA_CombineModel.c ****     for (i = 0; i < 9; i++) {
 372:HANcoder_E407_TTA_CombineModel.c ****       obj->pCumSumRev[i] = 0.0F;
 373:HANcoder_E407_TTA_CombineModel.c ****     }
 374:HANcoder_E407_TTA_CombineModel.c **** 
 375:HANcoder_E407_TTA_CombineModel.c ****     obj->pCumRevIndex = 1.0F;
 376:HANcoder_E407_TTA_CombineModel.c ****     obj->pModValueRev = 0.0F;
 377:HANcoder_E407_TTA_CombineModel.c ****     obj->isSetupComplete = true;
 378:HANcoder_E407_TTA_CombineModel.c ****     obj->pCumSum = 0.0F;
 379:HANcoder_E407_TTA_CombineModel.c ****     for (i = 0; i < 9; i++) {
 380:HANcoder_E407_TTA_CombineModel.c ****       obj->pCumSumRev[i] = 0.0F;
 518              		.loc 1 380 26 view .LVU155
 519 0026 05F10C0C 		add	ip, r5, #12
 375:HANcoder_E407_TTA_CombineModel.c ****     obj->pModValueRev = 0.0F;
 520              		.loc 1 375 23 view .LVU156
 521 002a 4FF07E51 		mov	r1, #1065353216
 522              	.LVL28:
 370:HANcoder_E407_TTA_CombineModel.c ****     obj->pCumSum = 0.0F;
 523              		.loc 1 370 18 view .LVU157
 524 002e AA60     		str	r2, [r5, #8]	@ float
 375:HANcoder_E407_TTA_CombineModel.c ****     obj->pModValueRev = 0.0F;
 525              		.loc 1 375 23 view .LVU158
 526 0030 2963     		str	r1, [r5, #48]	@ float
 376:HANcoder_E407_TTA_CombineModel.c ****     obj->isSetupComplete = true;
 527              		.loc 1 376 23 view .LVU159
 528 0032 6A63     		str	r2, [r5, #52]	@ float
 529              		.loc 1 380 26 view .LVU160
 530 0034 6046     		mov	r0, ip
 531              	.LVL29:
 369:HANcoder_E407_TTA_CombineModel.c ****     obj->pCumSum = 0.0F;
 532              		.loc 1 369 24 view .LVU161
 533 0036 2B60     		str	r3, [r5]
 370:HANcoder_E407_TTA_CombineModel.c ****     for (i = 0; i < 9; i++) {
 534              		.loc 1 370 5 is_stmt 1 view .LVU162
 371:HANcoder_E407_TTA_CombineModel.c ****       obj->pCumSumRev[i] = 0.0F;
 535              		.loc 1 371 5 view .LVU163
 536              	.LVL30:
 371:HANcoder_E407_TTA_CombineModel.c ****       obj->pCumSumRev[i] = 0.0F;
 537              		.loc 1 371 17 view .LVU164
 375:HANcoder_E407_TTA_CombineModel.c ****     obj->pModValueRev = 0.0F;
 538              		.loc 1 375 5 view .LVU165
 376:HANcoder_E407_TTA_CombineModel.c ****     obj->isSetupComplete = true;
 539              		.loc 1 376 5 view .LVU166
 377:HANcoder_E407_TTA_CombineModel.c ****     obj->pCumSum = 0.0F;
 540              		.loc 1 377 5 view .LVU167
 377:HANcoder_E407_TTA_CombineModel.c ****     obj->pCumSum = 0.0F;
 541              		.loc 1 377 26 is_stmt 0 view .LVU168
 542 0038 2B71     		strb	r3, [r5, #4]
 378:HANcoder_E407_TTA_CombineModel.c ****     for (i = 0; i < 9; i++) {
 543              		.loc 1 378 5 is_stmt 1 view .LVU169
 379:HANcoder_E407_TTA_CombineModel.c ****       obj->pCumSumRev[i] = 0.0F;
 544              		.loc 1 379 5 view .LVU170
 545              	.LVL31:
 379:HANcoder_E407_TTA_CombineModel.c ****       obj->pCumSumRev[i] = 0.0F;
 546              		.loc 1 379 17 view .LVU171
 547              		.loc 1 380 26 is_stmt 0 view .LVU172
 548 003a 2422     		movs	r2, #36
 549 003c 0021     		movs	r1, #0
 550 003e FFF7FEFF 		bl	memset
 551              	.LVL32:
 381:HANcoder_E407_TTA_CombineModel.c ****     }
 382:HANcoder_E407_TTA_CombineModel.c **** 
 383:HANcoder_E407_TTA_CombineModel.c ****     obj->pCumRevIndex = 1.0F;
 384:HANcoder_E407_TTA_CombineModel.c ****     obj->pModValueRev = 0.0F;
 385:HANcoder_E407_TTA_CombineModel.c ****   }
 386:HANcoder_E407_TTA_CombineModel.c **** 
 387:HANcoder_E407_TTA_CombineModel.c ****   cumRevIndex = obj->pCumRevIndex;
 552              		.loc 1 387 3 is_stmt 1 view .LVU173
 388:HANcoder_E407_TTA_CombineModel.c ****   csum = obj->pCumSum;
 553              		.loc 1 388 3 view .LVU174
 389:HANcoder_E407_TTA_CombineModel.c ****   for (i = 0; i < 9; i++) {
 554              		.loc 1 389 3 view .LVU175
 555              		.loc 1 389 15 view .LVU176
 390:HANcoder_E407_TTA_CombineModel.c ****     csumrev[i] = obj->pCumSumRev[i];
 556              		.loc 1 390 16 is_stmt 0 view .LVU177
 557 0042 01AE     		add	r6, sp, #4
 558 0044 8446     		mov	ip, r0
 559 0046 0446     		mov	r4, r0
 560 0048 B046     		mov	r8, r6
 561 004a 05F12C09 		add	r9, r5, #44
 562              	.LVL33:
 563              	.L31:
 564              		.loc 1 390 16 view .LVU178
 565 004e 2068     		ldr	r0, [r4]	@ unaligned
 566 0050 6168     		ldr	r1, [r4, #4]	@ unaligned
 567 0052 A268     		ldr	r2, [r4, #8]	@ unaligned
 568 0054 E368     		ldr	r3, [r4, #12]	@ unaligned
 569 0056 1034     		adds	r4, r4, #16
 570 0058 C646     		mov	lr, r8
 571 005a 4C45     		cmp	r4, r9
 572 005c AEE80F00 		stmia	lr!, {r0, r1, r2, r3}
 573 0060 08F11008 		add	r8, r8, #16
 574 0064 F3D1     		bne	.L31
 391:HANcoder_E407_TTA_CombineModel.c ****   }
 392:HANcoder_E407_TTA_CombineModel.c **** 
 393:HANcoder_E407_TTA_CombineModel.c ****   modValueRev = obj->pModValueRev;
 394:HANcoder_E407_TTA_CombineModel.c ****   z = 0.0F;
 395:HANcoder_E407_TTA_CombineModel.c **** 
 396:HANcoder_E407_TTA_CombineModel.c ****   /* MATLABSystem: '<S77>/Moving Average' */
 397:HANcoder_E407_TTA_CombineModel.c ****   localB->MovingAverage_n = 0.0F;
 575              		.loc 1 397 27 view .LVU179
 576 0066 DFED547A 		vldr.32	s15, .L54
 390:HANcoder_E407_TTA_CombineModel.c ****     csumrev[i] = obj->pCumSumRev[i];
 577              		.loc 1 390 16 view .LVU180
 578 006a 2068     		ldr	r0, [r4]	@ unaligned
 579 006c C8F80000 		str	r0, [r8]
 580              	.LVL34:
 393:HANcoder_E407_TTA_CombineModel.c ****   z = 0.0F;
 581              		.loc 1 393 3 is_stmt 1 view .LVU181
 394:HANcoder_E407_TTA_CombineModel.c **** 
 582              		.loc 1 394 3 view .LVU182
 583              		.loc 1 397 3 view .LVU183
 398:HANcoder_E407_TTA_CombineModel.c **** 
 399:HANcoder_E407_TTA_CombineModel.c ****   /* MATLABSystem: '<S77>/Moving Average' */
 400:HANcoder_E407_TTA_CombineModel.c ****   csum += rtu_0;
 584              		.loc 1 400 8 is_stmt 0 view .LVU184
 585 0070 38EE277A 		vadd.f32	s14, s16, s15
 586 0074 F0EE676A 		vmov.f32	s13, s15
 397:HANcoder_E407_TTA_CombineModel.c **** 
 587              		.loc 1 397 27 view .LVU185
 588 0078 C7ED007A 		vstr.32	s15, [r7]
 589              		.loc 1 400 3 is_stmt 1 view .LVU186
 590              	.LVL35:
 401:HANcoder_E407_TTA_CombineModel.c ****   if (modValueRev == 0.0F) {
 591              		.loc 1 401 3 view .LVU187
 400:HANcoder_E407_TTA_CombineModel.c ****   if (modValueRev == 0.0F) {
 592              		.loc 1 400 8 is_stmt 0 view .LVU188
 593 007c 4FF00009 		mov	r9, #0
 594 0080 F7EE007A 		vmov.f32	s15, #1.0e+0
 595              	.LVL36:
 596              	.L32:
 402:HANcoder_E407_TTA_CombineModel.c ****     z = csumrev[(int32_T)cumRevIndex - 1] + csum;
 597              		.loc 1 402 5 is_stmt 1 view .LVU189
 598              		.loc 1 402 16 is_stmt 0 view .LVU190
 599 0084 0AAB     		add	r3, sp, #40
 600 0086 03EB8903 		add	r3, r3, r9, lsl #2
 601              		.loc 1 402 7 view .LVU191
 602 008a 13ED096A 		vldr.32	s12, [r3, #-36]
 603 008e 37EE066A 		vadd.f32	s12, s14, s12
 604              	.LVL37:
 605              		.loc 1 402 16 view .LVU192
 606 0092 4FEA8909 		lsl	r9, r9, #2
 607              	.LVL38:
 608              	.L34:
 403:HANcoder_E407_TTA_CombineModel.c ****   }
 404:HANcoder_E407_TTA_CombineModel.c **** 
 405:HANcoder_E407_TTA_CombineModel.c ****   csumrev[(int32_T)cumRevIndex - 1] = rtu_0;
 609              		.loc 1 405 3 is_stmt 1 view .LVU193
 406:HANcoder_E407_TTA_CombineModel.c ****   if (cumRevIndex != 9.0F) {
 610              		.loc 1 406 6 is_stmt 0 view .LVU194
 611 0096 F2EE025A 		vmov.f32	s11, #9.0e+0
 405:HANcoder_E407_TTA_CombineModel.c ****   if (cumRevIndex != 9.0F) {
 612              		.loc 1 405 37 view .LVU195
 613 009a 09F12803 		add	r3, r9, #40
 614              		.loc 1 406 6 view .LVU196
 615 009e F4EE657A 		vcmp.f32	s15, s11
 405:HANcoder_E407_TTA_CombineModel.c ****   if (cumRevIndex != 9.0F) {
 616              		.loc 1 405 37 view .LVU197
 617 00a2 0DEB0309 		add	r9, sp, r3
 618              		.loc 1 406 6 view .LVU198
 619 00a6 F1EE10FA 		vmrs	APSR_nzcv, FPSCR
 405:HANcoder_E407_TTA_CombineModel.c ****   if (cumRevIndex != 9.0F) {
 620              		.loc 1 405 37 view .LVU199
 621 00aa 09ED098A 		vstr.32	s16, [r9, #-36]
 622              		.loc 1 406 3 is_stmt 1 view .LVU200
 623              		.loc 1 406 6 is_stmt 0 view .LVU201
 624 00ae 71D0     		beq	.L35
 407:HANcoder_E407_TTA_CombineModel.c ****     cumRevIndex++;
 625              		.loc 1 407 5 is_stmt 1 view .LVU202
 626              		.loc 1 407 16 is_stmt 0 view .LVU203
 627 00b0 F7EE005A 		vmov.f32	s11, #1.0e+0
 628 00b4 77EEA57A 		vadd.f32	s15, s15, s11
 629              	.LVL39:
 630              		.loc 1 407 16 view .LVU204
 631 00b8 0DF12408 		add	r8, sp, #36
 632              	.LVL40:
 633              	.L36:
 408:HANcoder_E407_TTA_CombineModel.c ****   } else {
 409:HANcoder_E407_TTA_CombineModel.c ****     cumRevIndex = 1.0F;
 410:HANcoder_E407_TTA_CombineModel.c ****     csum = 0.0F;
 411:HANcoder_E407_TTA_CombineModel.c ****     for (i = 7; i >= 0; i--) {
 412:HANcoder_E407_TTA_CombineModel.c ****       csumrev[i] += csumrev[i + 1];
 413:HANcoder_E407_TTA_CombineModel.c ****     }
 414:HANcoder_E407_TTA_CombineModel.c ****   }
 415:HANcoder_E407_TTA_CombineModel.c **** 
 416:HANcoder_E407_TTA_CombineModel.c ****   if (modValueRev == 0.0F) {
 634              		.loc 1 416 3 is_stmt 1 view .LVU205
 635              		.loc 1 416 6 is_stmt 0 view .LVU206
 636 00bc F5EE406A 		vcmp.f32	s13, #0
 637 00c0 F1EE10FA 		vmrs	APSR_nzcv, FPSCR
 638 00c4 05D1     		bne	.L38
 417:HANcoder_E407_TTA_CombineModel.c ****     /* MATLABSystem: '<S77>/Moving Average' */
 418:HANcoder_E407_TTA_CombineModel.c ****     localB->MovingAverage_n = z / 10.0F;
 639              		.loc 1 418 5 is_stmt 1 view .LVU207
 640              		.loc 1 418 33 is_stmt 0 view .LVU208
 641 00c6 B2EE045A 		vmov.f32	s10, #1.0e+1
 642 00ca C6EE055A 		vdiv.f32	s11, s12, s10
 643              		.loc 1 418 29 view .LVU209
 644 00ce C7ED005A 		vstr.32	s11, [r7]
 645              	.L38:
 419:HANcoder_E407_TTA_CombineModel.c ****   }
 420:HANcoder_E407_TTA_CombineModel.c **** 
 421:HANcoder_E407_TTA_CombineModel.c ****   obj->pCumSum = csum;
 646              		.loc 1 421 3 is_stmt 1 view .LVU210
 647              		.loc 1 421 16 is_stmt 0 view .LVU211
 648 00d2 85ED027A 		vstr.32	s14, [r5, #8]
 422:HANcoder_E407_TTA_CombineModel.c ****   for (i = 0; i < 9; i++) {
 649              		.loc 1 422 3 is_stmt 1 view .LVU212
 650              	.LVL41:
 651              		.loc 1 422 15 view .LVU213
 423:HANcoder_E407_TTA_CombineModel.c ****     obj->pCumSumRev[i] = csumrev[i];
 652              		.loc 1 423 24 is_stmt 0 view .LVU214
 653 00d6 3446     		mov	r4, r6
 654              	.L39:
 655 00d8 A646     		mov	lr, r4
 656 00da BEE80F00 		ldmia	lr!, {r0, r1, r2, r3}
 657 00de C645     		cmp	lr, r8
 658 00e0 0CF1100C 		add	ip, ip, #16
 659 00e4 7446     		mov	r4, lr
 660 00e6 4CF8100C 		str	r0, [ip, #-16]	@ unaligned
 661 00ea 4CF80C1C 		str	r1, [ip, #-12]	@ unaligned
 662 00ee 4CF8082C 		str	r2, [ip, #-8]	@ unaligned
 663 00f2 4CF8043C 		str	r3, [ip, #-4]	@ unaligned
 664 00f6 EFD1     		bne	.L39
 424:HANcoder_E407_TTA_CombineModel.c ****   }
 425:HANcoder_E407_TTA_CombineModel.c **** 
 426:HANcoder_E407_TTA_CombineModel.c ****   obj->pCumRevIndex = cumRevIndex;
 427:HANcoder_E407_TTA_CombineModel.c ****   if (modValueRev > 0.0F) {
 665              		.loc 1 427 6 view .LVU215
 666 00f8 F5EEC06A 		vcmpe.f32	s13, #0
 423:HANcoder_E407_TTA_CombineModel.c ****     obj->pCumSumRev[i] = csumrev[i];
 667              		.loc 1 423 24 view .LVU216
 668 00fc DEF80000 		ldr	r0, [lr]
 669 0100 CCF80000 		str	r0, [ip]	@ unaligned
 670              	.LVL42:
 426:HANcoder_E407_TTA_CombineModel.c ****   if (modValueRev > 0.0F) {
 671              		.loc 1 426 3 is_stmt 1 view .LVU217
 672              		.loc 1 427 6 is_stmt 0 view .LVU218
 673 0104 F1EE10FA 		vmrs	APSR_nzcv, FPSCR
 426:HANcoder_E407_TTA_CombineModel.c ****   if (modValueRev > 0.0F) {
 674              		.loc 1 426 21 view .LVU219
 675 0108 C5ED0C7A 		vstr.32	s15, [r5, #48]
 676              		.loc 1 427 3 is_stmt 1 view .LVU220
 428:HANcoder_E407_TTA_CombineModel.c ****     obj->pModValueRev = modValueRev - 1.0F;
 677              		.loc 1 428 5 view .LVU221
 678              		.loc 1 428 37 is_stmt 0 view .LVU222
 679 010c C6BF     		itte	gt
 680 010e F7EE007A 		vmovgt.f32	s15, #1.0e+0
 681              	.LVL43:
 682              		.loc 1 428 37 view .LVU223
 683 0112 76EEE76A 		vsubgt.f32	s13, s13, s15
 429:HANcoder_E407_TTA_CombineModel.c ****   } else {
 430:HANcoder_E407_TTA_CombineModel.c ****     obj->pModValueRev = 0.0F;
 684              		.loc 1 430 23 view .LVU224
 685 0116 DFED286A 		vldrle.32	s13, .L54
 686 011a C5ED0D6A 		vstr.32	s13, [r5, #52]
 431:HANcoder_E407_TTA_CombineModel.c ****   }
 432:HANcoder_E407_TTA_CombineModel.c **** }
 687              		.loc 1 432 1 view .LVU225
 688 011e 0AB0     		add	sp, sp, #40
 689              		.cfi_remember_state
 690              		.cfi_def_cfa_offset 40
 691              		@ sp needed
 692 0120 BDEC028B 		vldm	sp!, {d8}
 693              		.cfi_restore 80
 694              		.cfi_restore 81
 695              		.cfi_def_cfa_offset 32
 696              	.LVL44:
 697              		.loc 1 432 1 view .LVU226
 698 0124 BDE8F087 		pop	{r4, r5, r6, r7, r8, r9, r10, pc}
 699              	.LVL45:
 700              	.L30:
 701              		.cfi_restore_state
 387:HANcoder_E407_TTA_CombineModel.c ****   csum = obj->pCumSum;
 702              		.loc 1 387 15 view .LVU227
 703 0128 D5ED0C7A 		vldr.32	s15, [r5, #48]
 393:HANcoder_E407_TTA_CombineModel.c ****   z = 0.0F;
 704              		.loc 1 393 15 view .LVU228
 705 012c D5ED0D6A 		vldr.32	s13, [r5, #52]
 402:HANcoder_E407_TTA_CombineModel.c ****   }
 706              		.loc 1 402 17 view .LVU229
 707 0130 BDEEE77A 		vcvt.s32.f32	s14, s15
 708 0134 05F10C0C 		add	ip, r5, #12
 709 0138 17EE109A 		vmov	r9, s14	@ int
 390:HANcoder_E407_TTA_CombineModel.c ****   }
 710              		.loc 1 390 16 view .LVU230
 711 013c 01AE     		add	r6, sp, #4
 388:HANcoder_E407_TTA_CombineModel.c ****   for (i = 0; i < 9; i++) {
 712              		.loc 1 388 8 view .LVU231
 713 013e 95ED027A 		vldr.32	s14, [r5, #8]
 402:HANcoder_E407_TTA_CombineModel.c ****   }
 714              		.loc 1 402 38 view .LVU232
 715 0142 09F1FF39 		add	r9, r9, #-1
 387:HANcoder_E407_TTA_CombineModel.c ****   csum = obj->pCumSum;
 716              		.loc 1 387 3 is_stmt 1 view .LVU233
 717              	.LVL46:
 388:HANcoder_E407_TTA_CombineModel.c ****   for (i = 0; i < 9; i++) {
 718              		.loc 1 388 3 view .LVU234
 389:HANcoder_E407_TTA_CombineModel.c ****     csumrev[i] = obj->pCumSumRev[i];
 719              		.loc 1 389 3 view .LVU235
 389:HANcoder_E407_TTA_CombineModel.c ****     csumrev[i] = obj->pCumSumRev[i];
 720              		.loc 1 389 15 view .LVU236
 390:HANcoder_E407_TTA_CombineModel.c ****   }
 721              		.loc 1 390 16 is_stmt 0 view .LVU237
 722 0146 E646     		mov	lr, ip
 723 0148 B046     		mov	r8, r6
 724 014a 05F12C0A 		add	r10, r5, #44
 725              	.LVL47:
 726              	.L33:
 390:HANcoder_E407_TTA_CombineModel.c ****   }
 727              		.loc 1 390 16 view .LVU238
 728 014e DEF80000 		ldr	r0, [lr]	@ unaligned
 729 0152 DEF80410 		ldr	r1, [lr, #4]	@ unaligned
 730 0156 DEF80820 		ldr	r2, [lr, #8]	@ unaligned
 731 015a DEF80C30 		ldr	r3, [lr, #12]	@ unaligned
 732 015e 0EF1100E 		add	lr, lr, #16
 733 0162 4446     		mov	r4, r8
 734 0164 D645     		cmp	lr, r10
 735 0166 0FC4     		stmia	r4!, {r0, r1, r2, r3}
 736 0168 08F11008 		add	r8, r8, #16
 737 016c EFD1     		bne	.L33
 397:HANcoder_E407_TTA_CombineModel.c **** 
 738              		.loc 1 397 27 view .LVU239
 739 016e 9FED126A 		vldr.32	s12, .L54
 390:HANcoder_E407_TTA_CombineModel.c ****   }
 740              		.loc 1 390 16 view .LVU240
 741 0172 DEF80000 		ldr	r0, [lr]	@ unaligned
 742 0176 C8F80000 		str	r0, [r8]
 743              	.LVL48:
 393:HANcoder_E407_TTA_CombineModel.c ****   z = 0.0F;
 744              		.loc 1 393 3 is_stmt 1 view .LVU241
 394:HANcoder_E407_TTA_CombineModel.c **** 
 745              		.loc 1 394 3 view .LVU242
 397:HANcoder_E407_TTA_CombineModel.c **** 
 746              		.loc 1 397 3 view .LVU243
 401:HANcoder_E407_TTA_CombineModel.c ****     z = csumrev[(int32_T)cumRevIndex - 1] + csum;
 747              		.loc 1 401 6 is_stmt 0 view .LVU244
 748 017a F4EE466A 		vcmp.f32	s13, s12
 749 017e F1EE10FA 		vmrs	APSR_nzcv, FPSCR
 400:HANcoder_E407_TTA_CombineModel.c ****   if (modValueRev == 0.0F) {
 750              		.loc 1 400 8 view .LVU245
 751 0182 37EE087A 		vadd.f32	s14, s14, s16
 752              	.LVL49:
 397:HANcoder_E407_TTA_CombineModel.c **** 
 753              		.loc 1 397 27 view .LVU246
 754 0186 87ED006A 		vstr.32	s12, [r7]
 400:HANcoder_E407_TTA_CombineModel.c ****   if (modValueRev == 0.0F) {
 755              		.loc 1 400 3 is_stmt 1 view .LVU247
 756              	.LVL50:
 401:HANcoder_E407_TTA_CombineModel.c ****     z = csumrev[(int32_T)cumRevIndex - 1] + csum;
 757              		.loc 1 401 3 view .LVU248
 401:HANcoder_E407_TTA_CombineModel.c ****     z = csumrev[(int32_T)cumRevIndex - 1] + csum;
 758              		.loc 1 401 6 is_stmt 0 view .LVU249
 759 018a 3FF47BAF 		beq	.L32
 760 018e 4FEA8909 		lsl	r9, r9, #2
 761 0192 80E7     		b	.L34
 762              	.LVL51:
 763              	.L35:
 401:HANcoder_E407_TTA_CombineModel.c ****     z = csumrev[(int32_T)cumRevIndex - 1] + csum;
 764              		.loc 1 401 6 view .LVU250
 765 0194 0DF12408 		add	r8, sp, #36
 766 0198 4346     		mov	r3, r8
 767              	.LVL52:
 768              	.L37:
 412:HANcoder_E407_TTA_CombineModel.c ****     }
 769              		.loc 1 412 7 is_stmt 1 discriminator 3 view .LVU251
 412:HANcoder_E407_TTA_CombineModel.c ****     }
 770              		.loc 1 412 18 is_stmt 0 discriminator 3 view .LVU252
 771 019a 73ED017A 		vldmdb.32	r3!, {s15}
 772 019e 93ED017A 		vldr.32	s14, [r3, #4]
 773 01a2 77EE877A 		vadd.f32	s15, s15, s14
 411:HANcoder_E407_TTA_CombineModel.c ****       csumrev[i] += csumrev[i + 1];
 774              		.loc 1 411 5 discriminator 3 view .LVU253
 775 01a6 9E42     		cmp	r6, r3
 412:HANcoder_E407_TTA_CombineModel.c ****     }
 776              		.loc 1 412 18 discriminator 3 view .LVU254
 777 01a8 C3ED007A 		vstr.32	s15, [r3]
 411:HANcoder_E407_TTA_CombineModel.c ****       csumrev[i] += csumrev[i + 1];
 778              		.loc 1 411 25 is_stmt 1 discriminator 3 view .LVU255
 411:HANcoder_E407_TTA_CombineModel.c ****       csumrev[i] += csumrev[i + 1];
 779              		.loc 1 411 17 discriminator 3 view .LVU256
 411:HANcoder_E407_TTA_CombineModel.c ****       csumrev[i] += csumrev[i + 1];
 780              		.loc 1 411 5 is_stmt 0 discriminator 3 view .LVU257
 781 01ac F5D1     		bne	.L37
 410:HANcoder_E407_TTA_CombineModel.c ****     for (i = 7; i >= 0; i--) {
 782              		.loc 1 410 10 view .LVU258
 783 01ae 9FED027A 		vldr.32	s14, .L54
 409:HANcoder_E407_TTA_CombineModel.c ****     csum = 0.0F;
 784              		.loc 1 409 17 view .LVU259
 785 01b2 F7EE007A 		vmov.f32	s15, #1.0e+0
 786 01b6 81E7     		b	.L36
 787              	.L55:
 788              		.align	2
 789              	.L54:
 790 01b8 00000000 		.word	0
 791              		.cfi_endproc
 792              	.LFE119:
 794              		.section	.text.EnabledSubsystem,"ax",%progbits
 795              		.align	1
 796              		.p2align 2,,3
 797              		.global	EnabledSubsystem
 798              		.syntax unified
 799              		.thumb
 800              		.thumb_func
 802              	EnabledSubsystem:
 803              	.LVL53:
 804              	.LFB120:
 433:HANcoder_E407_TTA_CombineModel.c **** 
 434:HANcoder_E407_TTA_CombineModel.c **** /*
 435:HANcoder_E407_TTA_CombineModel.c ****  * Output and update for enable system:
 436:HANcoder_E407_TTA_CombineModel.c ****  *    '<S114>/Enabled Subsystem'
 437:HANcoder_E407_TTA_CombineModel.c ****  *    '<S117>/Enabled Subsystem'
 438:HANcoder_E407_TTA_CombineModel.c ****  *    '<S120>/Enabled Subsystem'
 439:HANcoder_E407_TTA_CombineModel.c ****  *    '<S126>/Enabled Subsystem'
 440:HANcoder_E407_TTA_CombineModel.c ****  *    '<S195>/Enabled Subsystem'
 441:HANcoder_E407_TTA_CombineModel.c ****  *    '<S242>/Enabled Subsystem'
 442:HANcoder_E407_TTA_CombineModel.c ****  *    '<S361>/Enabled Subsystem'
 443:HANcoder_E407_TTA_CombineModel.c ****  */
 444:HANcoder_E407_TTA_CombineModel.c **** void EnabledSubsystem(int8_T rtu_Enable, uint8_T rtu_In1, uint8_T rtu_In2,
 445:HANcoder_E407_TTA_CombineModel.c ****                       uint8_T rtu_In3, uint8_T rtu_In4, uint8_T rtu_In5, uint8_T
 446:HANcoder_E407_TTA_CombineModel.c ****                       rtu_In6, uint8_T rtu_In7, uint8_T rtu_In8,
 447:HANcoder_E407_TTA_CombineModel.c ****                       rtB_EnabledSubsystem *localB)
 448:HANcoder_E407_TTA_CombineModel.c **** {
 805              		.loc 1 448 1 is_stmt 1 view -0
 806              		.cfi_startproc
 807              		@ args = 24, pretend = 0, frame = 0
 808              		@ frame_needed = 0, uses_anonymous_args = 0
 449:HANcoder_E407_TTA_CombineModel.c ****   uint8_T rtb_In5_nc;
 809              		.loc 1 449 3 view .LVU261
 450:HANcoder_E407_TTA_CombineModel.c ****   uint8_T rtb_In6;
 810              		.loc 1 450 3 view .LVU262
 451:HANcoder_E407_TTA_CombineModel.c ****   uint8_T rtb_In8_m;
 811              		.loc 1 451 3 view .LVU263
 452:HANcoder_E407_TTA_CombineModel.c **** 
 453:HANcoder_E407_TTA_CombineModel.c ****   /* Outputs for Enabled SubSystem: '<S114>/Enabled Subsystem' incorporates:
 454:HANcoder_E407_TTA_CombineModel.c ****    *  EnablePort: '<S115>/Enable'
 455:HANcoder_E407_TTA_CombineModel.c ****    */
 456:HANcoder_E407_TTA_CombineModel.c ****   if (rtu_Enable > 0) {
 812              		.loc 1 456 3 view .LVU264
 448:HANcoder_E407_TTA_CombineModel.c ****   uint8_T rtb_In5_nc;
 813              		.loc 1 448 1 is_stmt 0 view .LVU265
 814 0000 10B5     		push	{r4, lr}
 815              		.cfi_def_cfa_offset 8
 816              		.cfi_offset 4, -8
 817              		.cfi_offset 14, -4
 818              		.loc 1 456 6 view .LVU266
 819 0002 0028     		cmp	r0, #0
 448:HANcoder_E407_TTA_CombineModel.c ****   uint8_T rtb_In5_nc;
 820              		.loc 1 448 1 view .LVU267
 821 0004 9DF808E0 		ldrb	lr, [sp, #8]	@ zero_extendqisi2
 822 0008 9DF814C0 		ldrb	ip, [sp, #20]	@ zero_extendqisi2
 823 000c 079C     		ldr	r4, [sp, #28]
 824              		.loc 1 456 6 view .LVU268
 825 000e 06DD     		ble	.L56
 457:HANcoder_E407_TTA_CombineModel.c ****     /* SignalConversion generated from: '<S115>/In1' */
 458:HANcoder_E407_TTA_CombineModel.c ****     localB->In1 = rtu_In1;
 826              		.loc 1 458 5 is_stmt 1 view .LVU269
 827              		.loc 1 458 17 is_stmt 0 view .LVU270
 828 0010 2170     		strb	r1, [r4]
 459:HANcoder_E407_TTA_CombineModel.c **** 
 460:HANcoder_E407_TTA_CombineModel.c ****     /* SignalConversion generated from: '<S115>/In2' */
 461:HANcoder_E407_TTA_CombineModel.c ****     localB->In2 = rtu_In2;
 829              		.loc 1 461 5 is_stmt 1 view .LVU271
 830              		.loc 1 461 17 is_stmt 0 view .LVU272
 831 0012 6270     		strb	r2, [r4, #1]
 462:HANcoder_E407_TTA_CombineModel.c **** 
 463:HANcoder_E407_TTA_CombineModel.c ****     /* SignalConversion generated from: '<S115>/In3' */
 464:HANcoder_E407_TTA_CombineModel.c ****     localB->In3 = rtu_In3;
 832              		.loc 1 464 5 is_stmt 1 view .LVU273
 833              		.loc 1 464 17 is_stmt 0 view .LVU274
 834 0014 A370     		strb	r3, [r4, #2]
 465:HANcoder_E407_TTA_CombineModel.c **** 
 466:HANcoder_E407_TTA_CombineModel.c ****     /* SignalConversion generated from: '<S115>/In4' */
 467:HANcoder_E407_TTA_CombineModel.c ****     localB->In4 = rtu_In4;
 835              		.loc 1 467 5 is_stmt 1 view .LVU275
 836              		.loc 1 467 17 is_stmt 0 view .LVU276
 837 0016 84F803E0 		strb	lr, [r4, #3]
 468:HANcoder_E407_TTA_CombineModel.c **** 
 469:HANcoder_E407_TTA_CombineModel.c ****     /* SignalConversion generated from: '<S115>/In5' */
 470:HANcoder_E407_TTA_CombineModel.c ****     rtb_In5_nc = rtu_In5;
 838              		.loc 1 470 5 is_stmt 1 view .LVU277
 839              	.LVL54:
 471:HANcoder_E407_TTA_CombineModel.c **** 
 472:HANcoder_E407_TTA_CombineModel.c ****     /* SignalConversion generated from: '<S115>/In6' */
 473:HANcoder_E407_TTA_CombineModel.c ****     rtb_In6 = rtu_In6;
 840              		.loc 1 473 5 view .LVU278
 474:HANcoder_E407_TTA_CombineModel.c **** 
 475:HANcoder_E407_TTA_CombineModel.c ****     /* SignalConversion generated from: '<S115>/In7' */
 476:HANcoder_E407_TTA_CombineModel.c ****     localB->In7 = rtu_In7;
 841              		.loc 1 476 5 view .LVU279
 842              		.loc 1 476 17 is_stmt 0 view .LVU280
 843 001a 84F804C0 		strb	ip, [r4, #4]
 477:HANcoder_E407_TTA_CombineModel.c **** 
 478:HANcoder_E407_TTA_CombineModel.c ****     /* SignalConversion generated from: '<S115>/In8' */
 479:HANcoder_E407_TTA_CombineModel.c ****     rtb_In8_m = rtu_In8;
 844              		.loc 1 479 5 is_stmt 1 view .LVU281
 845              	.LVL55:
 846              	.L56:
 480:HANcoder_E407_TTA_CombineModel.c ****   }
 481:HANcoder_E407_TTA_CombineModel.c **** 
 482:HANcoder_E407_TTA_CombineModel.c ****   /* End of Outputs for SubSystem: '<S114>/Enabled Subsystem' */
 483:HANcoder_E407_TTA_CombineModel.c **** }
 847              		.loc 1 483 1 is_stmt 0 view .LVU282
 848 001e 10BD     		pop	{r4, pc}
 849              		.loc 1 483 1 view .LVU283
 850              		.cfi_endproc
 851              	.LFE120:
 853              		.section	.text.MMBS1_TX,"ax",%progbits
 854              		.align	1
 855              		.p2align 2,,3
 856              		.global	MMBS1_TX
 857              		.syntax unified
 858              		.thumb
 859              		.thumb_func
 861              	MMBS1_TX:
 862              	.LVL56:
 863              	.LFB121:
 484:HANcoder_E407_TTA_CombineModel.c **** 
 485:HANcoder_E407_TTA_CombineModel.c **** /*
 486:HANcoder_E407_TTA_CombineModel.c ****  * Output and update for trigger system:
 487:HANcoder_E407_TTA_CombineModel.c ****  *    '<S10>/MMBS1_TX'
 488:HANcoder_E407_TTA_CombineModel.c ****  *    '<S10>/SSTM1_TX'
 489:HANcoder_E407_TTA_CombineModel.c ****  */
 490:HANcoder_E407_TTA_CombineModel.c **** void MMBS1_TX(boolean_T rtu_Trigger, uint32_T rtu_In1, rtZCE_MMBS1_TX *localZCE)
 491:HANcoder_E407_TTA_CombineModel.c **** {
 864              		.loc 1 491 1 is_stmt 1 view -0
 865              		.cfi_startproc
 866              		@ args = 0, pretend = 0, frame = 0
 867              		@ frame_needed = 0, uses_anonymous_args = 0
 492:HANcoder_E407_TTA_CombineModel.c ****   /* Outputs for Triggered SubSystem: '<S10>/MMBS1_TX' incorporates:
 493:HANcoder_E407_TTA_CombineModel.c ****    *  TriggerPort: '<S99>/Trigger'
 494:HANcoder_E407_TTA_CombineModel.c ****    */
 495:HANcoder_E407_TTA_CombineModel.c ****   if (rtu_Trigger && (localZCE->MMBS1_TX_Trig_ZCE != POS_ZCSIG)) {
 868              		.loc 1 495 3 view .LVU285
 491:HANcoder_E407_TTA_CombineModel.c ****   /* Outputs for Triggered SubSystem: '<S10>/MMBS1_TX' incorporates:
 869              		.loc 1 491 1 is_stmt 0 view .LVU286
 870 0000 38B5     		push	{r3, r4, r5, lr}
 871              		.cfi_def_cfa_offset 16
 872              		.cfi_offset 3, -16
 873              		.cfi_offset 4, -12
 874              		.cfi_offset 5, -8
 875              		.cfi_offset 14, -4
 491:HANcoder_E407_TTA_CombineModel.c ****   /* Outputs for Triggered SubSystem: '<S10>/MMBS1_TX' incorporates:
 876              		.loc 1 491 1 view .LVU287
 877 0002 1546     		mov	r5, r2
 878              		.loc 1 495 6 view .LVU288
 879 0004 0446     		mov	r4, r0
 880 0006 10B1     		cbz	r0, .L60
 881              		.loc 1 495 19 discriminator 1 view .LVU289
 882 0008 1378     		ldrb	r3, [r2]	@ zero_extendqisi2
 883 000a 012B     		cmp	r3, #1
 884 000c 01D1     		bne	.L68
 885              	.L60:
 496:HANcoder_E407_TTA_CombineModel.c ****     /* Update for M-S-Function: '<S116>/S-Function' */
 497:HANcoder_E407_TTA_CombineModel.c ****     {
 498:HANcoder_E407_TTA_CombineModel.c ****       /* prepare the data */
 499:HANcoder_E407_TTA_CombineModel.c ****       canTxData.uint8_T_info[0] = 0U;
 500:HANcoder_E407_TTA_CombineModel.c **** 
 501:HANcoder_E407_TTA_CombineModel.c ****       /* send the data */
 502:HANcoder_E407_TTA_CombineModel.c ****       CanTransmit(0, rtu_In1, 1, &canTxData.uint8_T_info[0]);
 503:HANcoder_E407_TTA_CombineModel.c ****     }
 504:HANcoder_E407_TTA_CombineModel.c ****   }
 505:HANcoder_E407_TTA_CombineModel.c **** 
 506:HANcoder_E407_TTA_CombineModel.c ****   localZCE->MMBS1_TX_Trig_ZCE = rtu_Trigger;
 886              		.loc 1 506 3 is_stmt 1 view .LVU290
 887              		.loc 1 506 31 is_stmt 0 view .LVU291
 888 000e 2C70     		strb	r4, [r5]
 507:HANcoder_E407_TTA_CombineModel.c **** 
 508:HANcoder_E407_TTA_CombineModel.c ****   /* End of Outputs for SubSystem: '<S10>/MMBS1_TX' */
 509:HANcoder_E407_TTA_CombineModel.c **** }
 889              		.loc 1 509 1 view .LVU292
 890 0010 38BD     		pop	{r3, r4, r5, pc}
 891              	.L68:
 499:HANcoder_E407_TTA_CombineModel.c **** 
 892              		.loc 1 499 7 is_stmt 1 view .LVU293
 499:HANcoder_E407_TTA_CombineModel.c **** 
 893              		.loc 1 499 33 is_stmt 0 view .LVU294
 894 0012 044B     		ldr	r3, .L69
 895 0014 0020     		movs	r0, #0
 896              	.LVL57:
 499:HANcoder_E407_TTA_CombineModel.c **** 
 897              		.loc 1 499 33 view .LVU295
 898 0016 1870     		strb	r0, [r3]
 502:HANcoder_E407_TTA_CombineModel.c ****     }
 899              		.loc 1 502 7 is_stmt 1 view .LVU296
 900 0018 0122     		movs	r2, #1
 901              	.LVL58:
 502:HANcoder_E407_TTA_CombineModel.c ****     }
 902              		.loc 1 502 7 is_stmt 0 view .LVU297
 903 001a FFF7FEFF 		bl	CanTransmit
 904              	.LVL59:
 506:HANcoder_E407_TTA_CombineModel.c **** 
 905              		.loc 1 506 3 is_stmt 1 view .LVU298
 506:HANcoder_E407_TTA_CombineModel.c **** 
 906              		.loc 1 506 31 is_stmt 0 view .LVU299
 907 001e 2C70     		strb	r4, [r5]
 908              		.loc 1 509 1 view .LVU300
 909 0020 38BD     		pop	{r3, r4, r5, pc}
 910              	.LVL60:
 911              	.L70:
 912              		.loc 1 509 1 view .LVU301
 913 0022 00BF     		.align	2
 914              	.L69:
 915 0024 00000000 		.word	.LANCHOR8
 916              		.cfi_endproc
 917              	.LFE121:
 919              		.section	.text.BitShift,"ax",%progbits
 920              		.align	1
 921              		.p2align 2,,3
 922              		.global	BitShift
 923              		.syntax unified
 924              		.thumb
 925              		.thumb_func
 927              	BitShift:
 928              	.LVL61:
 929              	.LFB122:
 510:HANcoder_E407_TTA_CombineModel.c **** 
 511:HANcoder_E407_TTA_CombineModel.c **** /*
 512:HANcoder_E407_TTA_CombineModel.c ****  * Output and update for atomic system:
 513:HANcoder_E407_TTA_CombineModel.c ****  *    '<S124>/Bit Shift'
 514:HANcoder_E407_TTA_CombineModel.c ****  *    '<S125>/Bit Shift'
 515:HANcoder_E407_TTA_CombineModel.c ****  *    '<S193>/Bit Shift'
 516:HANcoder_E407_TTA_CombineModel.c ****  *    '<S194>/Bit Shift'
 517:HANcoder_E407_TTA_CombineModel.c ****  *    '<S240>/Bit Shift'
 518:HANcoder_E407_TTA_CombineModel.c ****  *    '<S241>/Bit Shift'
 519:HANcoder_E407_TTA_CombineModel.c ****  *    '<S265>/Bit Shift'
 520:HANcoder_E407_TTA_CombineModel.c ****  *    '<S266>/Bit Shift'
 521:HANcoder_E407_TTA_CombineModel.c ****  *    '<S312>/Bit Shift'
 522:HANcoder_E407_TTA_CombineModel.c ****  *    '<S313>/Bit Shift'
 523:HANcoder_E407_TTA_CombineModel.c ****  */
 524:HANcoder_E407_TTA_CombineModel.c **** void BitShift(uint16_T rtu_u, rtB_BitShift *localB)
 525:HANcoder_E407_TTA_CombineModel.c **** {
 930              		.loc 1 525 1 is_stmt 1 view -0
 931              		.cfi_startproc
 932              		@ args = 0, pretend = 0, frame = 0
 933              		@ frame_needed = 0, uses_anonymous_args = 0
 934              		@ link register save eliminated.
 526:HANcoder_E407_TTA_CombineModel.c ****   /* MATLAB Function: '<S128>/bit_shift' */
 527:HANcoder_E407_TTA_CombineModel.c ****   /* MATLAB Function 'Logic and Bit Operations/Bit Shift/bit_shift': '<S129>:1' */
 528:HANcoder_E407_TTA_CombineModel.c ****   /* '<S129>:1:6' */
 529:HANcoder_E407_TTA_CombineModel.c ****   localB->y = (uint16_T)(rtu_u << 8);
 935              		.loc 1 529 3 view .LVU303
 936              		.loc 1 529 15 is_stmt 0 view .LVU304
 937 0000 0002     		lsls	r0, r0, #8
 938              	.LVL62:
 939              		.loc 1 529 13 view .LVU305
 940 0002 0880     		strh	r0, [r1]	@ movhi
 530:HANcoder_E407_TTA_CombineModel.c **** }
 941              		.loc 1 530 1 view .LVU306
 942 0004 7047     		bx	lr
 943              		.cfi_endproc
 944              	.LFE122:
 946 0006 00BF     		.section	.text.BitShift_g,"ax",%progbits
 947              		.align	1
 948              		.p2align 2,,3
 949              		.global	BitShift_g
 950              		.syntax unified
 951              		.thumb
 952              		.thumb_func
 954              	BitShift_g:
 955              	.LVL63:
 956              	.LFB123:
 531:HANcoder_E407_TTA_CombineModel.c **** 
 532:HANcoder_E407_TTA_CombineModel.c **** /*
 533:HANcoder_E407_TTA_CombineModel.c ****  * Output and update for atomic system:
 534:HANcoder_E407_TTA_CombineModel.c ****  *    '<S127>/Bit Shift'
 535:HANcoder_E407_TTA_CombineModel.c ****  *    '<S127>/Bit Shift7'
 536:HANcoder_E407_TTA_CombineModel.c ****  *    '<S196>/Bit Shift'
 537:HANcoder_E407_TTA_CombineModel.c ****  *    '<S196>/Bit Shift7'
 538:HANcoder_E407_TTA_CombineModel.c ****  *    '<S243>/Bit Shift'
 539:HANcoder_E407_TTA_CombineModel.c ****  *    '<S243>/Bit Shift7'
 540:HANcoder_E407_TTA_CombineModel.c ****  *    '<S268>/Bit Shift'
 541:HANcoder_E407_TTA_CombineModel.c ****  *    '<S268>/Bit Shift7'
 542:HANcoder_E407_TTA_CombineModel.c ****  *    '<S315>/Bit Shift'
 543:HANcoder_E407_TTA_CombineModel.c ****  *    '<S315>/Bit Shift7'
 544:HANcoder_E407_TTA_CombineModel.c ****  */
 545:HANcoder_E407_TTA_CombineModel.c **** void BitShift_g(uint8_T rtu_u, rtB_BitShift_l *localB)
 546:HANcoder_E407_TTA_CombineModel.c **** {
 957              		.loc 1 546 1 is_stmt 1 view -0
 958              		.cfi_startproc
 959              		@ args = 0, pretend = 0, frame = 0
 960              		@ frame_needed = 0, uses_anonymous_args = 0
 961              		@ link register save eliminated.
 547:HANcoder_E407_TTA_CombineModel.c ****   /* MATLAB Function: '<S133>/bit_shift' */
 548:HANcoder_E407_TTA_CombineModel.c ****   /* MATLAB Function 'Logic and Bit Operations/Bit Shift/bit_shift': '<S141>:1' */
 549:HANcoder_E407_TTA_CombineModel.c ****   /* '<S141>:1:8' */
 550:HANcoder_E407_TTA_CombineModel.c ****   localB->y = (uint8_T)((uint32_T)rtu_u >> 1);
 962              		.loc 1 550 3 view .LVU308
 963              		.loc 1 550 15 is_stmt 0 view .LVU309
 964 0000 4008     		lsrs	r0, r0, #1
 965              	.LVL64:
 966              		.loc 1 550 13 view .LVU310
 967 0002 0870     		strb	r0, [r1]
 551:HANcoder_E407_TTA_CombineModel.c **** }
 968              		.loc 1 551 1 view .LVU311
 969 0004 7047     		bx	lr
 970              		.cfi_endproc
 971              	.LFE123:
 973 0006 00BF     		.section	.text.BitShift1,"ax",%progbits
 974              		.align	1
 975              		.p2align 2,,3
 976              		.global	BitShift1
 977              		.syntax unified
 978              		.thumb
 979              		.thumb_func
 981              	BitShift1:
 982              	.LVL65:
 983              	.LFB124:
 552:HANcoder_E407_TTA_CombineModel.c **** 
 553:HANcoder_E407_TTA_CombineModel.c **** /*
 554:HANcoder_E407_TTA_CombineModel.c ****  * Output and update for atomic system:
 555:HANcoder_E407_TTA_CombineModel.c ****  *    '<S127>/Bit Shift1'
 556:HANcoder_E407_TTA_CombineModel.c ****  *    '<S196>/Bit Shift1'
 557:HANcoder_E407_TTA_CombineModel.c ****  *    '<S243>/Bit Shift1'
 558:HANcoder_E407_TTA_CombineModel.c ****  *    '<S268>/Bit Shift1'
 559:HANcoder_E407_TTA_CombineModel.c ****  *    '<S315>/Bit Shift1'
 560:HANcoder_E407_TTA_CombineModel.c ****  */
 561:HANcoder_E407_TTA_CombineModel.c **** void BitShift1(uint8_T rtu_u, rtB_BitShift1 *localB)
 562:HANcoder_E407_TTA_CombineModel.c **** {
 984              		.loc 1 562 1 is_stmt 1 view -0
 985              		.cfi_startproc
 986              		@ args = 0, pretend = 0, frame = 0
 987              		@ frame_needed = 0, uses_anonymous_args = 0
 988              		@ link register save eliminated.
 563:HANcoder_E407_TTA_CombineModel.c ****   /* MATLAB Function: '<S134>/bit_shift' */
 564:HANcoder_E407_TTA_CombineModel.c ****   /* MATLAB Function 'Logic and Bit Operations/Bit Shift/bit_shift': '<S142>:1' */
 565:HANcoder_E407_TTA_CombineModel.c ****   /* '<S142>:1:8' */
 566:HANcoder_E407_TTA_CombineModel.c ****   localB->y = (uint8_T)((uint32_T)rtu_u >> 2);
 989              		.loc 1 566 3 view .LVU313
 990              		.loc 1 566 15 is_stmt 0 view .LVU314
 991 0000 8008     		lsrs	r0, r0, #2
 992              	.LVL66:
 993              		.loc 1 566 13 view .LVU315
 994 0002 0870     		strb	r0, [r1]
 567:HANcoder_E407_TTA_CombineModel.c **** }
 995              		.loc 1 567 1 view .LVU316
 996 0004 7047     		bx	lr
 997              		.cfi_endproc
 998              	.LFE124:
 1000 0006 00BF     		.section	.text.BitShift2,"ax",%progbits
 1001              		.align	1
 1002              		.p2align 2,,3
 1003              		.global	BitShift2
 1004              		.syntax unified
 1005              		.thumb
 1006              		.thumb_func
 1008              	BitShift2:
 1009              	.LVL67:
 1010              	.LFB125:
 568:HANcoder_E407_TTA_CombineModel.c **** 
 569:HANcoder_E407_TTA_CombineModel.c **** /*
 570:HANcoder_E407_TTA_CombineModel.c ****  * Output and update for atomic system:
 571:HANcoder_E407_TTA_CombineModel.c ****  *    '<S127>/Bit Shift2'
 572:HANcoder_E407_TTA_CombineModel.c ****  *    '<S196>/Bit Shift2'
 573:HANcoder_E407_TTA_CombineModel.c ****  *    '<S243>/Bit Shift2'
 574:HANcoder_E407_TTA_CombineModel.c ****  *    '<S268>/Bit Shift2'
 575:HANcoder_E407_TTA_CombineModel.c ****  *    '<S315>/Bit Shift2'
 576:HANcoder_E407_TTA_CombineModel.c ****  */
 577:HANcoder_E407_TTA_CombineModel.c **** void BitShift2(uint8_T rtu_u, rtB_BitShift2 *localB)
 578:HANcoder_E407_TTA_CombineModel.c **** {
 1011              		.loc 1 578 1 is_stmt 1 view -0
 1012              		.cfi_startproc
 1013              		@ args = 0, pretend = 0, frame = 0
 1014              		@ frame_needed = 0, uses_anonymous_args = 0
 1015              		@ link register save eliminated.
 579:HANcoder_E407_TTA_CombineModel.c ****   /* MATLAB Function: '<S135>/bit_shift' */
 580:HANcoder_E407_TTA_CombineModel.c ****   /* MATLAB Function 'Logic and Bit Operations/Bit Shift/bit_shift': '<S143>:1' */
 581:HANcoder_E407_TTA_CombineModel.c ****   /* '<S143>:1:8' */
 582:HANcoder_E407_TTA_CombineModel.c ****   localB->y = (uint8_T)((uint32_T)rtu_u >> 3);
 1016              		.loc 1 582 3 view .LVU318
 1017              		.loc 1 582 15 is_stmt 0 view .LVU319
 1018 0000 C008     		lsrs	r0, r0, #3
 1019              	.LVL68:
 1020              		.loc 1 582 13 view .LVU320
 1021 0002 0870     		strb	r0, [r1]
 583:HANcoder_E407_TTA_CombineModel.c **** }
 1022              		.loc 1 583 1 view .LVU321
 1023 0004 7047     		bx	lr
 1024              		.cfi_endproc
 1025              	.LFE125:
 1027 0006 00BF     		.section	.text.BitShift3,"ax",%progbits
 1028              		.align	1
 1029              		.p2align 2,,3
 1030              		.global	BitShift3
 1031              		.syntax unified
 1032              		.thumb
 1033              		.thumb_func
 1035              	BitShift3:
 1036              	.LVL69:
 1037              	.LFB126:
 584:HANcoder_E407_TTA_CombineModel.c **** 
 585:HANcoder_E407_TTA_CombineModel.c **** /*
 586:HANcoder_E407_TTA_CombineModel.c ****  * Output and update for atomic system:
 587:HANcoder_E407_TTA_CombineModel.c ****  *    '<S127>/Bit Shift3'
 588:HANcoder_E407_TTA_CombineModel.c ****  *    '<S196>/Bit Shift3'
 589:HANcoder_E407_TTA_CombineModel.c ****  *    '<S243>/Bit Shift3'
 590:HANcoder_E407_TTA_CombineModel.c ****  *    '<S268>/Bit Shift3'
 591:HANcoder_E407_TTA_CombineModel.c ****  *    '<S315>/Bit Shift3'
 592:HANcoder_E407_TTA_CombineModel.c ****  */
 593:HANcoder_E407_TTA_CombineModel.c **** void BitShift3(uint8_T rtu_u, rtB_BitShift3 *localB)
 594:HANcoder_E407_TTA_CombineModel.c **** {
 1038              		.loc 1 594 1 is_stmt 1 view -0
 1039              		.cfi_startproc
 1040              		@ args = 0, pretend = 0, frame = 0
 1041              		@ frame_needed = 0, uses_anonymous_args = 0
 1042              		@ link register save eliminated.
 595:HANcoder_E407_TTA_CombineModel.c ****   /* MATLAB Function: '<S136>/bit_shift' */
 596:HANcoder_E407_TTA_CombineModel.c ****   /* MATLAB Function 'Logic and Bit Operations/Bit Shift/bit_shift': '<S144>:1' */
 597:HANcoder_E407_TTA_CombineModel.c ****   /* '<S144>:1:8' */
 598:HANcoder_E407_TTA_CombineModel.c ****   localB->y = (uint8_T)((uint32_T)rtu_u >> 4);
 1043              		.loc 1 598 3 view .LVU323
 1044              		.loc 1 598 15 is_stmt 0 view .LVU324
 1045 0000 0009     		lsrs	r0, r0, #4
 1046              	.LVL70:
 1047              		.loc 1 598 13 view .LVU325
 1048 0002 0870     		strb	r0, [r1]
 599:HANcoder_E407_TTA_CombineModel.c **** }
 1049              		.loc 1 599 1 view .LVU326
 1050 0004 7047     		bx	lr
 1051              		.cfi_endproc
 1052              	.LFE126:
 1054 0006 00BF     		.section	.text.BitShift4,"ax",%progbits
 1055              		.align	1
 1056              		.p2align 2,,3
 1057              		.global	BitShift4
 1058              		.syntax unified
 1059              		.thumb
 1060              		.thumb_func
 1062              	BitShift4:
 1063              	.LVL71:
 1064              	.LFB127:
 600:HANcoder_E407_TTA_CombineModel.c **** 
 601:HANcoder_E407_TTA_CombineModel.c **** /*
 602:HANcoder_E407_TTA_CombineModel.c ****  * Output and update for atomic system:
 603:HANcoder_E407_TTA_CombineModel.c ****  *    '<S127>/Bit Shift4'
 604:HANcoder_E407_TTA_CombineModel.c ****  *    '<S196>/Bit Shift4'
 605:HANcoder_E407_TTA_CombineModel.c ****  *    '<S243>/Bit Shift4'
 606:HANcoder_E407_TTA_CombineModel.c ****  *    '<S268>/Bit Shift4'
 607:HANcoder_E407_TTA_CombineModel.c ****  *    '<S315>/Bit Shift4'
 608:HANcoder_E407_TTA_CombineModel.c ****  */
 609:HANcoder_E407_TTA_CombineModel.c **** void BitShift4(uint8_T rtu_u, rtB_BitShift4 *localB)
 610:HANcoder_E407_TTA_CombineModel.c **** {
 1065              		.loc 1 610 1 is_stmt 1 view -0
 1066              		.cfi_startproc
 1067              		@ args = 0, pretend = 0, frame = 0
 1068              		@ frame_needed = 0, uses_anonymous_args = 0
 1069              		@ link register save eliminated.
 611:HANcoder_E407_TTA_CombineModel.c ****   /* MATLAB Function: '<S137>/bit_shift' */
 612:HANcoder_E407_TTA_CombineModel.c ****   /* MATLAB Function 'Logic and Bit Operations/Bit Shift/bit_shift': '<S145>:1' */
 613:HANcoder_E407_TTA_CombineModel.c ****   /* '<S145>:1:8' */
 614:HANcoder_E407_TTA_CombineModel.c ****   localB->y = (uint8_T)((uint32_T)rtu_u >> 5);
 1070              		.loc 1 614 3 view .LVU328
 1071              		.loc 1 614 15 is_stmt 0 view .LVU329
 1072 0000 4009     		lsrs	r0, r0, #5
 1073              	.LVL72:
 1074              		.loc 1 614 13 view .LVU330
 1075 0002 0870     		strb	r0, [r1]
 615:HANcoder_E407_TTA_CombineModel.c **** }
 1076              		.loc 1 615 1 view .LVU331
 1077 0004 7047     		bx	lr
 1078              		.cfi_endproc
 1079              	.LFE127:
 1081 0006 00BF     		.section	.text.BitShift5,"ax",%progbits
 1082              		.align	1
 1083              		.p2align 2,,3
 1084              		.global	BitShift5
 1085              		.syntax unified
 1086              		.thumb
 1087              		.thumb_func
 1089              	BitShift5:
 1090              	.LVL73:
 1091              	.LFB128:
 616:HANcoder_E407_TTA_CombineModel.c **** 
 617:HANcoder_E407_TTA_CombineModel.c **** /*
 618:HANcoder_E407_TTA_CombineModel.c ****  * Output and update for atomic system:
 619:HANcoder_E407_TTA_CombineModel.c ****  *    '<S127>/Bit Shift5'
 620:HANcoder_E407_TTA_CombineModel.c ****  *    '<S196>/Bit Shift5'
 621:HANcoder_E407_TTA_CombineModel.c ****  *    '<S243>/Bit Shift5'
 622:HANcoder_E407_TTA_CombineModel.c ****  *    '<S268>/Bit Shift5'
 623:HANcoder_E407_TTA_CombineModel.c ****  *    '<S315>/Bit Shift5'
 624:HANcoder_E407_TTA_CombineModel.c ****  */
 625:HANcoder_E407_TTA_CombineModel.c **** void BitShift5(uint8_T rtu_u, rtB_BitShift5 *localB)
 626:HANcoder_E407_TTA_CombineModel.c **** {
 1092              		.loc 1 626 1 is_stmt 1 view -0
 1093              		.cfi_startproc
 1094              		@ args = 0, pretend = 0, frame = 0
 1095              		@ frame_needed = 0, uses_anonymous_args = 0
 1096              		@ link register save eliminated.
 627:HANcoder_E407_TTA_CombineModel.c ****   /* MATLAB Function: '<S138>/bit_shift' */
 628:HANcoder_E407_TTA_CombineModel.c ****   /* MATLAB Function 'Logic and Bit Operations/Bit Shift/bit_shift': '<S146>:1' */
 629:HANcoder_E407_TTA_CombineModel.c ****   /* '<S146>:1:8' */
 630:HANcoder_E407_TTA_CombineModel.c ****   localB->y = (uint8_T)((uint32_T)rtu_u >> 6);
 1097              		.loc 1 630 3 view .LVU333
 1098              		.loc 1 630 15 is_stmt 0 view .LVU334
 1099 0000 8009     		lsrs	r0, r0, #6
 1100              	.LVL74:
 1101              		.loc 1 630 13 view .LVU335
 1102 0002 0870     		strb	r0, [r1]
 631:HANcoder_E407_TTA_CombineModel.c **** }
 1103              		.loc 1 631 1 view .LVU336
 1104 0004 7047     		bx	lr
 1105              		.cfi_endproc
 1106              	.LFE128:
 1108 0006 00BF     		.section	.text.BitShift6,"ax",%progbits
 1109              		.align	1
 1110              		.p2align 2,,3
 1111              		.global	BitShift6
 1112              		.syntax unified
 1113              		.thumb
 1114              		.thumb_func
 1116              	BitShift6:
 1117              	.LVL75:
 1118              	.LFB129:
 632:HANcoder_E407_TTA_CombineModel.c **** 
 633:HANcoder_E407_TTA_CombineModel.c **** /*
 634:HANcoder_E407_TTA_CombineModel.c ****  * Output and update for atomic system:
 635:HANcoder_E407_TTA_CombineModel.c ****  *    '<S127>/Bit Shift6'
 636:HANcoder_E407_TTA_CombineModel.c ****  *    '<S196>/Bit Shift6'
 637:HANcoder_E407_TTA_CombineModel.c ****  *    '<S243>/Bit Shift6'
 638:HANcoder_E407_TTA_CombineModel.c ****  *    '<S268>/Bit Shift6'
 639:HANcoder_E407_TTA_CombineModel.c ****  *    '<S315>/Bit Shift6'
 640:HANcoder_E407_TTA_CombineModel.c ****  */
 641:HANcoder_E407_TTA_CombineModel.c **** void BitShift6(uint8_T rtu_u, rtB_BitShift6 *localB)
 642:HANcoder_E407_TTA_CombineModel.c **** {
 1119              		.loc 1 642 1 is_stmt 1 view -0
 1120              		.cfi_startproc
 1121              		@ args = 0, pretend = 0, frame = 0
 1122              		@ frame_needed = 0, uses_anonymous_args = 0
 1123              		@ link register save eliminated.
 643:HANcoder_E407_TTA_CombineModel.c ****   /* MATLAB Function: '<S139>/bit_shift' */
 644:HANcoder_E407_TTA_CombineModel.c ****   /* MATLAB Function 'Logic and Bit Operations/Bit Shift/bit_shift': '<S147>:1' */
 645:HANcoder_E407_TTA_CombineModel.c ****   /* '<S147>:1:8' */
 646:HANcoder_E407_TTA_CombineModel.c ****   localB->y = (uint8_T)((uint32_T)rtu_u >> 7);
 1124              		.loc 1 646 3 view .LVU338
 1125              		.loc 1 646 15 is_stmt 0 view .LVU339
 1126 0000 C009     		lsrs	r0, r0, #7
 1127              	.LVL76:
 1128              		.loc 1 646 13 view .LVU340
 1129 0002 0870     		strb	r0, [r1]
 647:HANcoder_E407_TTA_CombineModel.c **** }
 1130              		.loc 1 647 1 view .LVU341
 1131 0004 7047     		bx	lr
 1132              		.cfi_endproc
 1133              	.LFE129:
 1135 0006 00BF     		.section	.text.BitShift_gy,"ax",%progbits
 1136              		.align	1
 1137              		.p2align 2,,3
 1138              		.global	BitShift_gy
 1139              		.syntax unified
 1140              		.thumb
 1141              		.thumb_func
 1143              	BitShift_gy:
 1144              	.LVL77:
 1145              	.LFB130:
 648:HANcoder_E407_TTA_CombineModel.c **** 
 649:HANcoder_E407_TTA_CombineModel.c **** /*
 650:HANcoder_E407_TTA_CombineModel.c ****  * Output and update for atomic system:
 651:HANcoder_E407_TTA_CombineModel.c ****  *    '<S150>/Bit Shift'
 652:HANcoder_E407_TTA_CombineModel.c ****  *    '<S172>/Bit Shift'
 653:HANcoder_E407_TTA_CombineModel.c ****  *    '<S219>/Bit Shift'
 654:HANcoder_E407_TTA_CombineModel.c ****  *    '<S291>/Bit Shift'
 655:HANcoder_E407_TTA_CombineModel.c ****  *    '<S338>/Bit Shift'
 656:HANcoder_E407_TTA_CombineModel.c ****  */
 657:HANcoder_E407_TTA_CombineModel.c **** void BitShift_gy(uint8_T rtu_u, rtB_BitShift_o *localB)
 658:HANcoder_E407_TTA_CombineModel.c **** {
 1146              		.loc 1 658 1 is_stmt 1 view -0
 1147              		.cfi_startproc
 1148              		@ args = 0, pretend = 0, frame = 0
 1149              		@ frame_needed = 0, uses_anonymous_args = 0
 1150              		@ link register save eliminated.
 659:HANcoder_E407_TTA_CombineModel.c ****   /* MATLAB Function: '<S153>/bit_shift' */
 660:HANcoder_E407_TTA_CombineModel.c ****   /* MATLAB Function 'Logic and Bit Operations/Bit Shift/bit_shift': '<S160>:1' */
 661:HANcoder_E407_TTA_CombineModel.c ****   /* '<S160>:1:6' */
 662:HANcoder_E407_TTA_CombineModel.c ****   localB->y = (uint8_T)(rtu_u << 2);
 1151              		.loc 1 662 3 view .LVU343
 1152              		.loc 1 662 15 is_stmt 0 view .LVU344
 1153 0000 8000     		lsls	r0, r0, #2
 1154              	.LVL78:
 1155              		.loc 1 662 13 view .LVU345
 1156 0002 0870     		strb	r0, [r1]
 663:HANcoder_E407_TTA_CombineModel.c **** }
 1157              		.loc 1 663 1 view .LVU346
 1158 0004 7047     		bx	lr
 1159              		.cfi_endproc
 1160              	.LFE130:
 1162 0006 00BF     		.section	.text.BitShift1_b,"ax",%progbits
 1163              		.align	1
 1164              		.p2align 2,,3
 1165              		.global	BitShift1_b
 1166              		.syntax unified
 1167              		.thumb
 1168              		.thumb_func
 1170              	BitShift1_b:
 1171              	.LVL79:
 1172              	.LFB131:
 664:HANcoder_E407_TTA_CombineModel.c **** 
 665:HANcoder_E407_TTA_CombineModel.c **** /*
 666:HANcoder_E407_TTA_CombineModel.c ****  * Output and update for atomic system:
 667:HANcoder_E407_TTA_CombineModel.c ****  *    '<S150>/Bit Shift1'
 668:HANcoder_E407_TTA_CombineModel.c ****  *    '<S172>/Bit Shift1'
 669:HANcoder_E407_TTA_CombineModel.c ****  *    '<S219>/Bit Shift1'
 670:HANcoder_E407_TTA_CombineModel.c ****  *    '<S291>/Bit Shift1'
 671:HANcoder_E407_TTA_CombineModel.c ****  *    '<S338>/Bit Shift1'
 672:HANcoder_E407_TTA_CombineModel.c ****  */
 673:HANcoder_E407_TTA_CombineModel.c **** void BitShift1_b(uint8_T rtu_u, rtB_BitShift1_j *localB)
 674:HANcoder_E407_TTA_CombineModel.c **** {
 1173              		.loc 1 674 1 is_stmt 1 view -0
 1174              		.cfi_startproc
 1175              		@ args = 0, pretend = 0, frame = 0
 1176              		@ frame_needed = 0, uses_anonymous_args = 0
 1177              		@ link register save eliminated.
 675:HANcoder_E407_TTA_CombineModel.c ****   /* MATLAB Function: '<S154>/bit_shift' */
 676:HANcoder_E407_TTA_CombineModel.c ****   /* MATLAB Function 'Logic and Bit Operations/Bit Shift/bit_shift': '<S161>:1' */
 677:HANcoder_E407_TTA_CombineModel.c ****   /* '<S161>:1:6' */
 678:HANcoder_E407_TTA_CombineModel.c ****   localB->y = (uint8_T)(rtu_u << 1);
 1178              		.loc 1 678 3 view .LVU348
 1179              		.loc 1 678 15 is_stmt 0 view .LVU349
 1180 0000 4000     		lsls	r0, r0, #1
 1181              	.LVL80:
 1182              		.loc 1 678 13 view .LVU350
 1183 0002 0870     		strb	r0, [r1]
 679:HANcoder_E407_TTA_CombineModel.c **** }
 1184              		.loc 1 679 1 view .LVU351
 1185 0004 7047     		bx	lr
 1186              		.cfi_endproc
 1187              	.LFE131:
 1189 0006 00BF     		.section	.text.BitShift2_p,"ax",%progbits
 1190              		.align	1
 1191              		.p2align 2,,3
 1192              		.global	BitShift2_p
 1193              		.syntax unified
 1194              		.thumb
 1195              		.thumb_func
 1197              	BitShift2_p:
 1198              	.LVL81:
 1199              	.LFB132:
 680:HANcoder_E407_TTA_CombineModel.c **** 
 681:HANcoder_E407_TTA_CombineModel.c **** /*
 682:HANcoder_E407_TTA_CombineModel.c ****  * Output and update for atomic system:
 683:HANcoder_E407_TTA_CombineModel.c ****  *    '<S150>/Bit Shift2'
 684:HANcoder_E407_TTA_CombineModel.c ****  *    '<S172>/Bit Shift2'
 685:HANcoder_E407_TTA_CombineModel.c ****  *    '<S219>/Bit Shift2'
 686:HANcoder_E407_TTA_CombineModel.c ****  *    '<S291>/Bit Shift2'
 687:HANcoder_E407_TTA_CombineModel.c ****  *    '<S338>/Bit Shift2'
 688:HANcoder_E407_TTA_CombineModel.c ****  */
 689:HANcoder_E407_TTA_CombineModel.c **** void BitShift2_p(uint8_T rtu_u, rtB_BitShift2_e *localB)
 690:HANcoder_E407_TTA_CombineModel.c **** {
 1200              		.loc 1 690 1 is_stmt 1 view -0
 1201              		.cfi_startproc
 1202              		@ args = 0, pretend = 0, frame = 0
 1203              		@ frame_needed = 0, uses_anonymous_args = 0
 1204              		@ link register save eliminated.
 691:HANcoder_E407_TTA_CombineModel.c ****   /* MATLAB Function: '<S155>/bit_shift' */
 692:HANcoder_E407_TTA_CombineModel.c ****   /* MATLAB Function 'Logic and Bit Operations/Bit Shift/bit_shift': '<S162>:1' */
 693:HANcoder_E407_TTA_CombineModel.c ****   /* '<S162>:1:6' */
 694:HANcoder_E407_TTA_CombineModel.c ****   localB->y = (uint8_T)(rtu_u << 3);
 1205              		.loc 1 694 3 view .LVU353
 1206              		.loc 1 694 15 is_stmt 0 view .LVU354
 1207 0000 C000     		lsls	r0, r0, #3
 1208              	.LVL82:
 1209              		.loc 1 694 13 view .LVU355
 1210 0002 0870     		strb	r0, [r1]
 695:HANcoder_E407_TTA_CombineModel.c **** }
 1211              		.loc 1 695 1 view .LVU356
 1212 0004 7047     		bx	lr
 1213              		.cfi_endproc
 1214              	.LFE132:
 1216 0006 00BF     		.section	.text.BitShift3_l,"ax",%progbits
 1217              		.align	1
 1218              		.p2align 2,,3
 1219              		.global	BitShift3_l
 1220              		.syntax unified
 1221              		.thumb
 1222              		.thumb_func
 1224              	BitShift3_l:
 1225              	.LVL83:
 1226              	.LFB133:
 696:HANcoder_E407_TTA_CombineModel.c **** 
 697:HANcoder_E407_TTA_CombineModel.c **** /*
 698:HANcoder_E407_TTA_CombineModel.c ****  * Output and update for atomic system:
 699:HANcoder_E407_TTA_CombineModel.c ****  *    '<S150>/Bit Shift3'
 700:HANcoder_E407_TTA_CombineModel.c ****  *    '<S172>/Bit Shift3'
 701:HANcoder_E407_TTA_CombineModel.c ****  *    '<S219>/Bit Shift3'
 702:HANcoder_E407_TTA_CombineModel.c ****  *    '<S291>/Bit Shift3'
 703:HANcoder_E407_TTA_CombineModel.c ****  *    '<S338>/Bit Shift3'
 704:HANcoder_E407_TTA_CombineModel.c ****  */
 705:HANcoder_E407_TTA_CombineModel.c **** void BitShift3_l(uint8_T rtu_u, rtB_BitShift3_g *localB)
 706:HANcoder_E407_TTA_CombineModel.c **** {
 1227              		.loc 1 706 1 is_stmt 1 view -0
 1228              		.cfi_startproc
 1229              		@ args = 0, pretend = 0, frame = 0
 1230              		@ frame_needed = 0, uses_anonymous_args = 0
 1231              		@ link register save eliminated.
 707:HANcoder_E407_TTA_CombineModel.c ****   /* MATLAB Function: '<S156>/bit_shift' */
 708:HANcoder_E407_TTA_CombineModel.c ****   /* MATLAB Function 'Logic and Bit Operations/Bit Shift/bit_shift': '<S163>:1' */
 709:HANcoder_E407_TTA_CombineModel.c ****   /* '<S163>:1:6' */
 710:HANcoder_E407_TTA_CombineModel.c ****   localB->y = (uint8_T)(rtu_u << 4);
 1232              		.loc 1 710 3 view .LVU358
 1233              		.loc 1 710 15 is_stmt 0 view .LVU359
 1234 0000 0001     		lsls	r0, r0, #4
 1235              	.LVL84:
 1236              		.loc 1 710 13 view .LVU360
 1237 0002 0870     		strb	r0, [r1]
 711:HANcoder_E407_TTA_CombineModel.c **** }
 1238              		.loc 1 711 1 view .LVU361
 1239 0004 7047     		bx	lr
 1240              		.cfi_endproc
 1241              	.LFE133:
 1243 0006 00BF     		.section	.text.BitShift4_g,"ax",%progbits
 1244              		.align	1
 1245              		.p2align 2,,3
 1246              		.global	BitShift4_g
 1247              		.syntax unified
 1248              		.thumb
 1249              		.thumb_func
 1251              	BitShift4_g:
 1252              	.LVL85:
 1253              	.LFB134:
 712:HANcoder_E407_TTA_CombineModel.c **** 
 713:HANcoder_E407_TTA_CombineModel.c **** /*
 714:HANcoder_E407_TTA_CombineModel.c ****  * Output and update for atomic system:
 715:HANcoder_E407_TTA_CombineModel.c ****  *    '<S150>/Bit Shift4'
 716:HANcoder_E407_TTA_CombineModel.c ****  *    '<S172>/Bit Shift4'
 717:HANcoder_E407_TTA_CombineModel.c ****  *    '<S219>/Bit Shift4'
 718:HANcoder_E407_TTA_CombineModel.c ****  *    '<S291>/Bit Shift4'
 719:HANcoder_E407_TTA_CombineModel.c ****  *    '<S338>/Bit Shift4'
 720:HANcoder_E407_TTA_CombineModel.c ****  */
 721:HANcoder_E407_TTA_CombineModel.c **** void BitShift4_g(uint8_T rtu_u, rtB_BitShift4_g *localB)
 722:HANcoder_E407_TTA_CombineModel.c **** {
 1254              		.loc 1 722 1 is_stmt 1 view -0
 1255              		.cfi_startproc
 1256              		@ args = 0, pretend = 0, frame = 0
 1257              		@ frame_needed = 0, uses_anonymous_args = 0
 1258              		@ link register save eliminated.
 723:HANcoder_E407_TTA_CombineModel.c ****   /* MATLAB Function: '<S157>/bit_shift' */
 724:HANcoder_E407_TTA_CombineModel.c ****   /* MATLAB Function 'Logic and Bit Operations/Bit Shift/bit_shift': '<S164>:1' */
 725:HANcoder_E407_TTA_CombineModel.c ****   /* '<S164>:1:6' */
 726:HANcoder_E407_TTA_CombineModel.c ****   localB->y = (uint8_T)(rtu_u << 5);
 1259              		.loc 1 726 3 view .LVU363
 1260              		.loc 1 726 15 is_stmt 0 view .LVU364
 1261 0000 4001     		lsls	r0, r0, #5
 1262              	.LVL86:
 1263              		.loc 1 726 13 view .LVU365
 1264 0002 0870     		strb	r0, [r1]
 727:HANcoder_E407_TTA_CombineModel.c **** }
 1265              		.loc 1 727 1 view .LVU366
 1266 0004 7047     		bx	lr
 1267              		.cfi_endproc
 1268              	.LFE134:
 1270 0006 00BF     		.section	.text.BitShift5_n,"ax",%progbits
 1271              		.align	1
 1272              		.p2align 2,,3
 1273              		.global	BitShift5_n
 1274              		.syntax unified
 1275              		.thumb
 1276              		.thumb_func
 1278              	BitShift5_n:
 1279              	.LVL87:
 1280              	.LFB135:
 728:HANcoder_E407_TTA_CombineModel.c **** 
 729:HANcoder_E407_TTA_CombineModel.c **** /*
 730:HANcoder_E407_TTA_CombineModel.c ****  * Output and update for atomic system:
 731:HANcoder_E407_TTA_CombineModel.c ****  *    '<S150>/Bit Shift5'
 732:HANcoder_E407_TTA_CombineModel.c ****  *    '<S172>/Bit Shift5'
 733:HANcoder_E407_TTA_CombineModel.c ****  *    '<S219>/Bit Shift5'
 734:HANcoder_E407_TTA_CombineModel.c ****  *    '<S291>/Bit Shift5'
 735:HANcoder_E407_TTA_CombineModel.c ****  *    '<S338>/Bit Shift5'
 736:HANcoder_E407_TTA_CombineModel.c ****  */
 737:HANcoder_E407_TTA_CombineModel.c **** void BitShift5_n(uint8_T rtu_u, rtB_BitShift5_e *localB)
 738:HANcoder_E407_TTA_CombineModel.c **** {
 1281              		.loc 1 738 1 is_stmt 1 view -0
 1282              		.cfi_startproc
 1283              		@ args = 0, pretend = 0, frame = 0
 1284              		@ frame_needed = 0, uses_anonymous_args = 0
 1285              		@ link register save eliminated.
 739:HANcoder_E407_TTA_CombineModel.c ****   /* MATLAB Function: '<S158>/bit_shift' */
 740:HANcoder_E407_TTA_CombineModel.c ****   /* MATLAB Function 'Logic and Bit Operations/Bit Shift/bit_shift': '<S165>:1' */
 741:HANcoder_E407_TTA_CombineModel.c ****   /* '<S165>:1:6' */
 742:HANcoder_E407_TTA_CombineModel.c ****   localB->y = (uint8_T)(rtu_u << 6);
 1286              		.loc 1 742 3 view .LVU368
 1287              		.loc 1 742 15 is_stmt 0 view .LVU369
 1288 0000 8001     		lsls	r0, r0, #6
 1289              	.LVL88:
 1290              		.loc 1 742 13 view .LVU370
 1291 0002 0870     		strb	r0, [r1]
 743:HANcoder_E407_TTA_CombineModel.c **** }
 1292              		.loc 1 743 1 view .LVU371
 1293 0004 7047     		bx	lr
 1294              		.cfi_endproc
 1295              	.LFE135:
 1297 0006 00BF     		.section	.text.BitShift6_d,"ax",%progbits
 1298              		.align	1
 1299              		.p2align 2,,3
 1300              		.global	BitShift6_d
 1301              		.syntax unified
 1302              		.thumb
 1303              		.thumb_func
 1305              	BitShift6_d:
 1306              	.LVL89:
 1307              	.LFB136:
 744:HANcoder_E407_TTA_CombineModel.c **** 
 745:HANcoder_E407_TTA_CombineModel.c **** /*
 746:HANcoder_E407_TTA_CombineModel.c ****  * Output and update for atomic system:
 747:HANcoder_E407_TTA_CombineModel.c ****  *    '<S150>/Bit Shift6'
 748:HANcoder_E407_TTA_CombineModel.c ****  *    '<S172>/Bit Shift6'
 749:HANcoder_E407_TTA_CombineModel.c ****  *    '<S219>/Bit Shift6'
 750:HANcoder_E407_TTA_CombineModel.c ****  *    '<S291>/Bit Shift6'
 751:HANcoder_E407_TTA_CombineModel.c ****  *    '<S338>/Bit Shift6'
 752:HANcoder_E407_TTA_CombineModel.c ****  */
 753:HANcoder_E407_TTA_CombineModel.c **** void BitShift6_d(uint8_T rtu_u, rtB_BitShift6_b *localB)
 754:HANcoder_E407_TTA_CombineModel.c **** {
 1308              		.loc 1 754 1 is_stmt 1 view -0
 1309              		.cfi_startproc
 1310              		@ args = 0, pretend = 0, frame = 0
 1311              		@ frame_needed = 0, uses_anonymous_args = 0
 1312              		@ link register save eliminated.
 755:HANcoder_E407_TTA_CombineModel.c ****   /* MATLAB Function: '<S159>/bit_shift' */
 756:HANcoder_E407_TTA_CombineModel.c ****   /* MATLAB Function 'Logic and Bit Operations/Bit Shift/bit_shift': '<S166>:1' */
 757:HANcoder_E407_TTA_CombineModel.c ****   /* '<S166>:1:6' */
 758:HANcoder_E407_TTA_CombineModel.c ****   localB->y = (uint8_T)(rtu_u << 7);
 1313              		.loc 1 758 3 view .LVU373
 1314              		.loc 1 758 15 is_stmt 0 view .LVU374
 1315 0000 C001     		lsls	r0, r0, #7
 1316              	.LVL90:
 1317              		.loc 1 758 13 view .LVU375
 1318 0002 0870     		strb	r0, [r1]
 759:HANcoder_E407_TTA_CombineModel.c **** }
 1319              		.loc 1 759 1 view .LVU376
 1320 0004 7047     		bx	lr
 1321              		.cfi_endproc
 1322              	.LFE136:
 1324 0006 00BF     		.section	.text.BitShift_o,"ax",%progbits
 1325              		.align	1
 1326              		.p2align 2,,3
 1327              		.global	BitShift_o
 1328              		.syntax unified
 1329              		.thumb
 1330              		.thumb_func
 1332              	BitShift_o:
 1333              	.LVL91:
 1334              	.LFB137:
 760:HANcoder_E407_TTA_CombineModel.c **** 
 761:HANcoder_E407_TTA_CombineModel.c **** /*
 762:HANcoder_E407_TTA_CombineModel.c ****  * Output and update for atomic system:
 763:HANcoder_E407_TTA_CombineModel.c ****  *    '<S151>/Bit Shift'
 764:HANcoder_E407_TTA_CombineModel.c ****  *    '<S152>/Bit Shift'
 765:HANcoder_E407_TTA_CombineModel.c ****  *    '<S173>/Bit Shift'
 766:HANcoder_E407_TTA_CombineModel.c ****  *    '<S174>/Bit Shift'
 767:HANcoder_E407_TTA_CombineModel.c ****  *    '<S220>/Bit Shift'
 768:HANcoder_E407_TTA_CombineModel.c ****  *    '<S221>/Bit Shift'
 769:HANcoder_E407_TTA_CombineModel.c ****  *    '<S292>/Bit Shift'
 770:HANcoder_E407_TTA_CombineModel.c ****  *    '<S293>/Bit Shift'
 771:HANcoder_E407_TTA_CombineModel.c ****  *    '<S339>/Bit Shift'
 772:HANcoder_E407_TTA_CombineModel.c ****  *    '<S340>/Bit Shift'
 773:HANcoder_E407_TTA_CombineModel.c ****  */
 774:HANcoder_E407_TTA_CombineModel.c **** void BitShift_o(uint16_T rtu_u, rtB_BitShift_c *localB)
 775:HANcoder_E407_TTA_CombineModel.c **** {
 1335              		.loc 1 775 1 is_stmt 1 view -0
 1336              		.cfi_startproc
 1337              		@ args = 0, pretend = 0, frame = 0
 1338              		@ frame_needed = 0, uses_anonymous_args = 0
 1339              		@ link register save eliminated.
 776:HANcoder_E407_TTA_CombineModel.c ****   /* MATLAB Function: '<S167>/bit_shift' */
 777:HANcoder_E407_TTA_CombineModel.c ****   /* MATLAB Function 'Logic and Bit Operations/Bit Shift/bit_shift': '<S168>:1' */
 778:HANcoder_E407_TTA_CombineModel.c ****   /* '<S168>:1:8' */
 779:HANcoder_E407_TTA_CombineModel.c ****   localB->y = (uint16_T)((uint32_T)rtu_u >> 8);
 1340              		.loc 1 779 3 view .LVU378
 1341              		.loc 1 779 15 is_stmt 0 view .LVU379
 1342 0000 000A     		lsrs	r0, r0, #8
 1343              	.LVL92:
 1344              		.loc 1 779 13 view .LVU380
 1345 0002 0880     		strh	r0, [r1]	@ movhi
 780:HANcoder_E407_TTA_CombineModel.c **** }
 1346              		.loc 1 780 1 view .LVU381
 1347 0004 7047     		bx	lr
 1348              		.cfi_endproc
 1349              	.LFE137:
 1351              		.global	__aeabi_dcmpeq
 1352              		.global	__aeabi_dmul
 1353              		.global	__aeabi_ui2d
 1354              		.global	__aeabi_dadd
 1355              		.global	__aeabi_dsub
 1356              		.global	__aeabi_dcmplt
 1357              		.global	__aeabi_dcmpgt
 1358              		.global	__aeabi_ddiv
 1359              		.global	__aeabi_d2f
 1360              		.global	__aeabi_f2d
 1361              		.global	__aeabi_i2d
 1362              		.global	__aeabi_dcmpge
 1363              		.global	__aeabi_dcmple
 1364 0006 00BF     		.section	.rodata.HANcoder_E407_TTA_CombineModel_step.str1.4,"aMS",%progbits,1
 1365              		.align	2
 1366              	.LC0:
 1367 0000 41707043 		.ascii	"AppCtrlTask\000"
 1367      74726C54 
 1367      61736B00 
 1368              		.section	.text.HANcoder_E407_TTA_CombineModel_step,"ax",%progbits
 1369              		.align	1
 1370              		.p2align 2,,3
 1371              		.global	HANcoder_E407_TTA_CombineModel_step
 1372              		.syntax unified
 1373              		.thumb
 1374              		.thumb_func
 1376              	HANcoder_E407_TTA_CombineModel_step:
 1377              	.LFB139:
 781:HANcoder_E407_TTA_CombineModel.c **** 
 782:HANcoder_E407_TTA_CombineModel.c **** static void SystemCore_setup_l(dsp_simulink_MovingAverage *obj)
 783:HANcoder_E407_TTA_CombineModel.c **** {
 784:HANcoder_E407_TTA_CombineModel.c ****   obj->isSetupComplete = false;
 785:HANcoder_E407_TTA_CombineModel.c ****   obj->isInitialized = 1;
 786:HANcoder_E407_TTA_CombineModel.c ****   obj->NumChannels = 1;
 787:HANcoder_E407_TTA_CombineModel.c ****   obj->FrameLength = 1;
 788:HANcoder_E407_TTA_CombineModel.c ****   obj->_pobj0.isInitialized = 0;
 789:HANcoder_E407_TTA_CombineModel.c ****   obj->_pobj0.isInitialized = 0;
 790:HANcoder_E407_TTA_CombineModel.c ****   obj->pStatistic = &obj->_pobj0;
 791:HANcoder_E407_TTA_CombineModel.c ****   obj->isSetupComplete = true;
 792:HANcoder_E407_TTA_CombineModel.c ****   obj->TunablePropsChanged = false;
 793:HANcoder_E407_TTA_CombineModel.c **** }
 794:HANcoder_E407_TTA_CombineModel.c **** 
 795:HANcoder_E407_TTA_CombineModel.c **** /* Model step function */
 796:HANcoder_E407_TTA_CombineModel.c **** void HANcoder_E407_TTA_CombineModel_step(void)
 797:HANcoder_E407_TTA_CombineModel.c **** {
 1378              		.loc 1 797 1 is_stmt 1 view -0
 1379              		.cfi_startproc
 1380              		@ args = 0, pretend = 0, frame = 88
 1381              		@ frame_needed = 0, uses_anonymous_args = 0
 798:HANcoder_E407_TTA_CombineModel.c ****   /* local block i/o variables */
 799:HANcoder_E407_TTA_CombineModel.c ****   real32_T rtb_Cast_m;
 1382              		.loc 1 799 3 view .LVU383
 800:HANcoder_E407_TTA_CombineModel.c ****   real32_T rtb_Cast3;
 1383              		.loc 1 800 3 view .LVU384
 801:HANcoder_E407_TTA_CombineModel.c ****   uint8_T rtb_SFunction_o2;
 1384              		.loc 1 801 3 view .LVU385
 802:HANcoder_E407_TTA_CombineModel.c ****   uint8_T rtb_SFunction_o3;
 1385              		.loc 1 802 3 view .LVU386
 803:HANcoder_E407_TTA_CombineModel.c ****   uint8_T rtb_SFunction_o4;
 1386              		.loc 1 803 3 view .LVU387
 804:HANcoder_E407_TTA_CombineModel.c ****   uint8_T rtb_SFunction_o5;
 1387              		.loc 1 804 3 view .LVU388
 805:HANcoder_E407_TTA_CombineModel.c ****   uint8_T rtb_SFunction_o6;
 1388              		.loc 1 805 3 view .LVU389
 806:HANcoder_E407_TTA_CombineModel.c ****   uint8_T rtb_SFunction_o7;
 1389              		.loc 1 806 3 view .LVU390
 807:HANcoder_E407_TTA_CombineModel.c ****   uint8_T rtb_SFunction_o8;
 1390              		.loc 1 807 3 view .LVU391
 808:HANcoder_E407_TTA_CombineModel.c ****   uint8_T rtb_SFunction_o9;
 1391              		.loc 1 808 3 view .LVU392
 809:HANcoder_E407_TTA_CombineModel.c ****   uint8_T rtb_SFunction_o2_l;
 1392              		.loc 1 809 3 view .LVU393
 810:HANcoder_E407_TTA_CombineModel.c ****   uint8_T rtb_SFunction_o3_m;
 1393              		.loc 1 810 3 view .LVU394
 811:HANcoder_E407_TTA_CombineModel.c ****   uint8_T rtb_SFunction_o4_b;
 1394              		.loc 1 811 3 view .LVU395
 812:HANcoder_E407_TTA_CombineModel.c ****   uint8_T rtb_SFunction_o5_o;
 1395              		.loc 1 812 3 view .LVU396
 813:HANcoder_E407_TTA_CombineModel.c ****   uint8_T rtb_SFunction_o6_i;
 1396              		.loc 1 813 3 view .LVU397
 814:HANcoder_E407_TTA_CombineModel.c ****   uint8_T rtb_SFunction_o7_f;
 1397              		.loc 1 814 3 view .LVU398
 815:HANcoder_E407_TTA_CombineModel.c ****   uint8_T rtb_SFunction_o8_p;
 1398              		.loc 1 815 3 view .LVU399
 816:HANcoder_E407_TTA_CombineModel.c ****   uint8_T rtb_SFunction_o9_l;
 1399              		.loc 1 816 3 view .LVU400
 817:HANcoder_E407_TTA_CombineModel.c ****   uint8_T rtb_SFunction_o2_e;
 1400              		.loc 1 817 3 view .LVU401
 818:HANcoder_E407_TTA_CombineModel.c ****   uint8_T rtb_SFunction_o3_p;
 1401              		.loc 1 818 3 view .LVU402
 819:HANcoder_E407_TTA_CombineModel.c ****   uint8_T rtb_SFunction_o4_c;
 1402              		.loc 1 819 3 view .LVU403
 820:HANcoder_E407_TTA_CombineModel.c ****   uint8_T rtb_SFunction_o5_c;
 1403              		.loc 1 820 3 view .LVU404
 821:HANcoder_E407_TTA_CombineModel.c ****   uint8_T rtb_SFunction_o6_e;
 1404              		.loc 1 821 3 view .LVU405
 822:HANcoder_E407_TTA_CombineModel.c ****   uint8_T rtb_SFunction_o7_l;
 1405              		.loc 1 822 3 view .LVU406
 823:HANcoder_E407_TTA_CombineModel.c ****   uint8_T rtb_SFunction_o8_f;
 1406              		.loc 1 823 3 view .LVU407
 824:HANcoder_E407_TTA_CombineModel.c ****   uint8_T rtb_SFunction_o9_h;
 1407              		.loc 1 824 3 view .LVU408
 825:HANcoder_E407_TTA_CombineModel.c ****   uint8_T rtb_SFunction_o2_j;
 1408              		.loc 1 825 3 view .LVU409
 826:HANcoder_E407_TTA_CombineModel.c ****   uint8_T rtb_SFunction_o3_a;
 1409              		.loc 1 826 3 view .LVU410
 827:HANcoder_E407_TTA_CombineModel.c ****   uint8_T rtb_SFunction_o4_i;
 1410              		.loc 1 827 3 view .LVU411
 828:HANcoder_E407_TTA_CombineModel.c ****   uint8_T rtb_SFunction_o5_k;
 1411              		.loc 1 828 3 view .LVU412
 829:HANcoder_E407_TTA_CombineModel.c ****   uint8_T rtb_SFunction_o6_c;
 1412              		.loc 1 829 3 view .LVU413
 830:HANcoder_E407_TTA_CombineModel.c ****   uint8_T rtb_SFunction_o7_d;
 1413              		.loc 1 830 3 view .LVU414
 831:HANcoder_E407_TTA_CombineModel.c ****   uint8_T rtb_SFunction_o8_h;
 1414              		.loc 1 831 3 view .LVU415
 832:HANcoder_E407_TTA_CombineModel.c ****   uint8_T rtb_SFunction_o9_b;
 1415              		.loc 1 832 3 view .LVU416
 833:HANcoder_E407_TTA_CombineModel.c ****   uint8_T rtb_SFunction_o2_i;
 1416              		.loc 1 833 3 view .LVU417
 834:HANcoder_E407_TTA_CombineModel.c ****   uint8_T rtb_SFunction_o3_i;
 1417              		.loc 1 834 3 view .LVU418
 835:HANcoder_E407_TTA_CombineModel.c ****   uint8_T rtb_SFunction_o4_n;
 1418              		.loc 1 835 3 view .LVU419
 836:HANcoder_E407_TTA_CombineModel.c ****   uint8_T rtb_SFunction_o5_p;
 1419              		.loc 1 836 3 view .LVU420
 837:HANcoder_E407_TTA_CombineModel.c ****   uint8_T rtb_SFunction_o6_g;
 1420              		.loc 1 837 3 view .LVU421
 838:HANcoder_E407_TTA_CombineModel.c ****   uint8_T rtb_SFunction_o7_fg;
 1421              		.loc 1 838 3 view .LVU422
 839:HANcoder_E407_TTA_CombineModel.c ****   uint8_T rtb_SFunction_o8_i;
 1422              		.loc 1 839 3 view .LVU423
 840:HANcoder_E407_TTA_CombineModel.c ****   uint8_T rtb_SFunction_o9_o;
 1423              		.loc 1 840 3 view .LVU424
 841:HANcoder_E407_TTA_CombineModel.c ****   uint8_T rtb_SFunction_o2_n;
 1424              		.loc 1 841 3 view .LVU425
 842:HANcoder_E407_TTA_CombineModel.c ****   uint8_T rtb_SFunction_o3_l;
 1425              		.loc 1 842 3 view .LVU426
 843:HANcoder_E407_TTA_CombineModel.c ****   uint8_T rtb_SFunction_o4_m;
 1426              		.loc 1 843 3 view .LVU427
 844:HANcoder_E407_TTA_CombineModel.c ****   uint8_T rtb_SFunction_o5_i;
 1427              		.loc 1 844 3 view .LVU428
 845:HANcoder_E407_TTA_CombineModel.c ****   uint8_T rtb_SFunction_o6_o;
 1428              		.loc 1 845 3 view .LVU429
 846:HANcoder_E407_TTA_CombineModel.c ****   uint8_T rtb_SFunction_o7_j;
 1429              		.loc 1 846 3 view .LVU430
 847:HANcoder_E407_TTA_CombineModel.c ****   uint8_T rtb_SFunction_o8_d;
 1430              		.loc 1 847 3 view .LVU431
 848:HANcoder_E407_TTA_CombineModel.c ****   uint8_T rtb_SFunction_o9_lv;
 1431              		.loc 1 848 3 view .LVU432
 849:HANcoder_E407_TTA_CombineModel.c ****   uint8_T rtb_SFunction_o2_ib;
 1432              		.loc 1 849 3 view .LVU433
 850:HANcoder_E407_TTA_CombineModel.c ****   uint8_T rtb_SFunction_o3_g;
 1433              		.loc 1 850 3 view .LVU434
 851:HANcoder_E407_TTA_CombineModel.c ****   uint8_T rtb_SFunction_o4_j;
 1434              		.loc 1 851 3 view .LVU435
 852:HANcoder_E407_TTA_CombineModel.c ****   uint8_T rtb_SFunction_o5_f;
 1435              		.loc 1 852 3 view .LVU436
 853:HANcoder_E407_TTA_CombineModel.c ****   uint8_T rtb_SFunction_o6_gy;
 1436              		.loc 1 853 3 view .LVU437
 854:HANcoder_E407_TTA_CombineModel.c ****   uint8_T rtb_SFunction_o7_k;
 1437              		.loc 1 854 3 view .LVU438
 855:HANcoder_E407_TTA_CombineModel.c ****   uint8_T rtb_SFunction_o8_n;
 1438              		.loc 1 855 3 view .LVU439
 856:HANcoder_E407_TTA_CombineModel.c ****   uint8_T rtb_SFunction_o9_b1;
 1439              		.loc 1 856 3 view .LVU440
 857:HANcoder_E407_TTA_CombineModel.c ****   uint8_T rtb_SFunction_o2_c;
 1440              		.loc 1 857 3 view .LVU441
 858:HANcoder_E407_TTA_CombineModel.c ****   uint8_T rtb_SFunction_o3_f;
 1441              		.loc 1 858 3 view .LVU442
 859:HANcoder_E407_TTA_CombineModel.c ****   uint8_T rtb_SFunction_o4_k;
 1442              		.loc 1 859 3 view .LVU443
 860:HANcoder_E407_TTA_CombineModel.c ****   uint8_T rtb_SFunction_o5_h;
 1443              		.loc 1 860 3 view .LVU444
 861:HANcoder_E407_TTA_CombineModel.c ****   uint8_T rtb_SFunction_o6_k;
 1444              		.loc 1 861 3 view .LVU445
 862:HANcoder_E407_TTA_CombineModel.c ****   uint8_T rtb_SFunction_o7_e;
 1445              		.loc 1 862 3 view .LVU446
 863:HANcoder_E407_TTA_CombineModel.c ****   uint8_T rtb_SFunction_o8_pe;
 1446              		.loc 1 863 3 view .LVU447
 864:HANcoder_E407_TTA_CombineModel.c ****   uint8_T rtb_SFunction_o9_f;
 1447              		.loc 1 864 3 view .LVU448
 865:HANcoder_E407_TTA_CombineModel.c ****   uint8_T rtb_SFunction_o2_n2;
 1448              		.loc 1 865 3 view .LVU449
 866:HANcoder_E407_TTA_CombineModel.c ****   uint8_T rtb_SFunction_o3_b;
 1449              		.loc 1 866 3 view .LVU450
 867:HANcoder_E407_TTA_CombineModel.c ****   uint8_T rtb_SFunction_o4_l;
 1450              		.loc 1 867 3 view .LVU451
 868:HANcoder_E407_TTA_CombineModel.c ****   uint8_T rtb_SFunction_o5_e;
 1451              		.loc 1 868 3 view .LVU452
 869:HANcoder_E407_TTA_CombineModel.c ****   uint8_T rtb_SFunction_o6_k1;
 1452              		.loc 1 869 3 view .LVU453
 870:HANcoder_E407_TTA_CombineModel.c ****   uint8_T rtb_SFunction_o7_dj;
 1453              		.loc 1 870 3 view .LVU454
 871:HANcoder_E407_TTA_CombineModel.c ****   uint8_T rtb_SFunction_o8_n1;
 1454              		.loc 1 871 3 view .LVU455
 872:HANcoder_E407_TTA_CombineModel.c ****   uint8_T rtb_SFunction_o9_ok;
 1455              		.loc 1 872 3 view .LVU456
 873:HANcoder_E407_TTA_CombineModel.c ****   int8_T rtb_SFunction_o1;
 1456              		.loc 1 873 3 view .LVU457
 874:HANcoder_E407_TTA_CombineModel.c ****   int8_T rtb_SFunction_o1_n;
 1457              		.loc 1 874 3 view .LVU458
 875:HANcoder_E407_TTA_CombineModel.c ****   int8_T rtb_SFunction_o1_k;
 1458              		.loc 1 875 3 view .LVU459
 876:HANcoder_E407_TTA_CombineModel.c ****   int8_T rtb_SFunction_o1_k1;
 1459              		.loc 1 876 3 view .LVU460
 877:HANcoder_E407_TTA_CombineModel.c ****   int8_T rtb_SFunction_o1_ns;
 1460              		.loc 1 877 3 view .LVU461
 878:HANcoder_E407_TTA_CombineModel.c ****   int8_T rtb_SFunction_o1_p;
 1461              		.loc 1 878 3 view .LVU462
 879:HANcoder_E407_TTA_CombineModel.c ****   int8_T rtb_SFunction_o1_h;
 1462              		.loc 1 879 3 view .LVU463
 880:HANcoder_E407_TTA_CombineModel.c ****   int8_T rtb_SFunction_o1_b;
 1463              		.loc 1 880 3 view .LVU464
 881:HANcoder_E407_TTA_CombineModel.c ****   int8_T rtb_SFunction_o1_g;
 1464              		.loc 1 881 3 view .LVU465
 882:HANcoder_E407_TTA_CombineModel.c ****   boolean_T rtb_Level2MfileSFunction_h;
 1465              		.loc 1 882 3 view .LVU466
 883:HANcoder_E407_TTA_CombineModel.c ****   boolean_T rtb_Level2MfileSFunction_d;
 1466              		.loc 1 883 3 view .LVU467
 884:HANcoder_E407_TTA_CombineModel.c ****   boolean_T rtb_Equal17;
 1467              		.loc 1 884 3 view .LVU468
 885:HANcoder_E407_TTA_CombineModel.c ****   g_dsp_internal_SlidingWindowAve *obj;
 1468              		.loc 1 885 3 view .LVU469
 886:HANcoder_E407_TTA_CombineModel.c ****   real_T rtb_IntegralGain;
 1469              		.loc 1 886 3 view .LVU470
 887:HANcoder_E407_TTA_CombineModel.c ****   real_T rtb_Integrator;
 1470              		.loc 1 887 3 view .LVU471
 888:HANcoder_E407_TTA_CombineModel.c ****   real_T rtb_Integrator_tmp;
 1471              		.loc 1 888 3 view .LVU472
 889:HANcoder_E407_TTA_CombineModel.c ****   real_T rtb_Uk1;
 1472              		.loc 1 889 3 view .LVU473
 890:HANcoder_E407_TTA_CombineModel.c ****   real_T tmp;
 1473              		.loc 1 890 3 view .LVU474
 891:HANcoder_E407_TTA_CombineModel.c ****   int32_T i;
 1474              		.loc 1 891 3 view .LVU475
 892:HANcoder_E407_TTA_CombineModel.c ****   int_T idxDelay;
 1475              		.loc 1 892 3 view .LVU476
 893:HANcoder_E407_TTA_CombineModel.c ****   real32_T csumrev[9];
 1476              		.loc 1 893 3 view .LVU477
 894:HANcoder_E407_TTA_CombineModel.c ****   real32_T csum;
 1477              		.loc 1 894 3 view .LVU478
 895:HANcoder_E407_TTA_CombineModel.c ****   real32_T cumRevIndex;
 1478              		.loc 1 895 3 view .LVU479
 896:HANcoder_E407_TTA_CombineModel.c ****   real32_T modValueRev;
 1479              		.loc 1 896 3 view .LVU480
 897:HANcoder_E407_TTA_CombineModel.c ****   real32_T z;
 1480              		.loc 1 897 3 view .LVU481
 898:HANcoder_E407_TTA_CombineModel.c ****   uint32_T IOexecution_ELAPS_T[2];
 1481              		.loc 1 898 3 view .LVU482
 899:HANcoder_E407_TTA_CombineModel.c ****   uint32_T IOexecution_ELAPS_T_tmp;
 1482              		.loc 1 899 3 view .LVU483
 900:HANcoder_E407_TTA_CombineModel.c ****   int16_T u;
 1483              		.loc 1 900 3 view .LVU484
 901:HANcoder_E407_TTA_CombineModel.c ****   uint16_T rtb_Cast_d;
 1484              		.loc 1 901 3 view .LVU485
 902:HANcoder_E407_TTA_CombineModel.c ****   uint16_T rtb_Cast_e1;
 1485              		.loc 1 902 3 view .LVU486
 903:HANcoder_E407_TTA_CombineModel.c ****   uint16_T rtb_Cast_g;
 1486              		.loc 1 903 3 view .LVU487
 904:HANcoder_E407_TTA_CombineModel.c ****   uint16_T rtb_Cast_gh;
 1487              		.loc 1 904 3 view .LVU488
 905:HANcoder_E407_TTA_CombineModel.c ****   uint16_T rtb_Cast_i;
 1488              		.loc 1 905 3 view .LVU489
 906:HANcoder_E407_TTA_CombineModel.c ****   uint16_T rtb_Cast_j;
 1489              		.loc 1 906 3 view .LVU490
 907:HANcoder_E407_TTA_CombineModel.c ****   uint16_T rtb_Cast_ky;
 1490              		.loc 1 907 3 view .LVU491
 908:HANcoder_E407_TTA_CombineModel.c ****   uint16_T rtb_Cast_lr;
 1491              		.loc 1 908 3 view .LVU492
 909:HANcoder_E407_TTA_CombineModel.c ****   uint16_T rtb_Cast_o;
 1492              		.loc 1 909 3 view .LVU493
 910:HANcoder_E407_TTA_CombineModel.c ****   uint16_T rtb_Cast_ow;
 1493              		.loc 1 910 3 view .LVU494
 911:HANcoder_E407_TTA_CombineModel.c ****   uint16_T rtb_DataStoreRead8;
 1494              		.loc 1 911 3 view .LVU495
 912:HANcoder_E407_TTA_CombineModel.c ****   uint16_T rtb_TSamp;
 1495              		.loc 1 912 3 view .LVU496
 913:HANcoder_E407_TTA_CombineModel.c ****   int8_T rtAction;
 1496              		.loc 1 913 3 view .LVU497
 914:HANcoder_E407_TTA_CombineModel.c ****   int8_T rtPrevAction;
 1497              		.loc 1 914 3 view .LVU498
 915:HANcoder_E407_TTA_CombineModel.c ****   uint8_T rtb_Cast1_i;
 1498              		.loc 1 915 3 view .LVU499
 916:HANcoder_E407_TTA_CombineModel.c ****   uint8_T rtb_Cast1_jo;
 1499              		.loc 1 916 3 view .LVU500
 917:HANcoder_E407_TTA_CombineModel.c ****   uint8_T rtb_Cast1_l;
 1500              		.loc 1 917 3 view .LVU501
 918:HANcoder_E407_TTA_CombineModel.c ****   uint8_T rtb_Cast1_ln;
 1501              		.loc 1 918 3 view .LVU502
 919:HANcoder_E407_TTA_CombineModel.c ****   uint8_T rtb_Cast1_n;
 1502              		.loc 1 919 3 view .LVU503
 920:HANcoder_E407_TTA_CombineModel.c ****   uint8_T rtb_Multiply;
 1503              		.loc 1 920 3 view .LVU504
 921:HANcoder_E407_TTA_CombineModel.c ****   uint8_T rtb_Multiply1;
 1504              		.loc 1 921 3 view .LVU505
 922:HANcoder_E407_TTA_CombineModel.c ****   boolean_T rtb_AND;
 1505              		.loc 1 922 3 view .LVU506
 923:HANcoder_E407_TTA_CombineModel.c ****   boolean_T rtb_AND13;
 1506              		.loc 1 923 3 view .LVU507
 924:HANcoder_E407_TTA_CombineModel.c ****   boolean_T rtb_AND15;
 1507              		.loc 1 924 3 view .LVU508
 925:HANcoder_E407_TTA_CombineModel.c ****   boolean_T rtb_AND1_k;
 1508              		.loc 1 925 3 view .LVU509
 926:HANcoder_E407_TTA_CombineModel.c ****   boolean_T rtb_AND2;
 1509              		.loc 1 926 3 view .LVU510
 927:HANcoder_E407_TTA_CombineModel.c ****   boolean_T rtb_AND3;
 1510              		.loc 1 927 3 view .LVU511
 928:HANcoder_E407_TTA_CombineModel.c ****   boolean_T rtb_AND4;
 1511              		.loc 1 928 3 view .LVU512
 929:HANcoder_E407_TTA_CombineModel.c ****   boolean_T rtb_AND5;
 1512              		.loc 1 929 3 view .LVU513
 930:HANcoder_E407_TTA_CombineModel.c ****   boolean_T rtb_AND7;
 1513              		.loc 1 930 3 view .LVU514
 931:HANcoder_E407_TTA_CombineModel.c ****   boolean_T rtb_AND9;
 1514              		.loc 1 931 3 view .LVU515
 932:HANcoder_E407_TTA_CombineModel.c ****   boolean_T rtb_AND_n;
 1515              		.loc 1 932 3 view .LVU516
 933:HANcoder_E407_TTA_CombineModel.c ****   boolean_T rtb_DataStoreRead11;
 1516              		.loc 1 933 3 view .LVU517
 934:HANcoder_E407_TTA_CombineModel.c ****   boolean_T rtb_Logic_c_idx_0;
 1517              		.loc 1 934 3 view .LVU518
 935:HANcoder_E407_TTA_CombineModel.c ****   boolean_T rtb_Logic_f_idx_0;
 1518              		.loc 1 935 3 view .LVU519
 936:HANcoder_E407_TTA_CombineModel.c ****   boolean_T rtb_OR1;
 1519              		.loc 1 936 3 view .LVU520
 937:HANcoder_E407_TTA_CombineModel.c ****   ZCEventType zcEvent;
 1520              		.loc 1 937 3 view .LVU521
 938:HANcoder_E407_TTA_CombineModel.c **** 
 939:HANcoder_E407_TTA_CombineModel.c ****   /* Outputs for Enabled SubSystem: '<S1>/Initialize Clock Schedule' incorporates:
 940:HANcoder_E407_TTA_CombineModel.c ****    *  EnablePort: '<S8>/Enable'
 941:HANcoder_E407_TTA_CombineModel.c ****    */
 942:HANcoder_E407_TTA_CombineModel.c ****   /* Logic: '<S1>/NOT' incorporates:
 943:HANcoder_E407_TTA_CombineModel.c ****    *  DataStoreRead: '<S1>/If 1 -> Clock initialized '
 944:HANcoder_E407_TTA_CombineModel.c ****    */
 945:HANcoder_E407_TTA_CombineModel.c ****   if (rtDWork.init_clock == 0.0) {
 1521              		.loc 1 945 3 view .LVU522
 797:HANcoder_E407_TTA_CombineModel.c ****   /* local block i/o variables */
 1522              		.loc 1 797 1 is_stmt 0 view .LVU523
 1523 0000 2DE9F04F 		push	{r4, r5, r6, r7, r8, r9, r10, fp, lr}
 1524              		.cfi_def_cfa_offset 36
 1525              		.cfi_offset 4, -36
 1526              		.cfi_offset 5, -32
 1527              		.cfi_offset 6, -28
 1528              		.cfi_offset 7, -24
 1529              		.cfi_offset 8, -20
 1530              		.cfi_offset 9, -16
 1531              		.cfi_offset 10, -12
 1532              		.cfi_offset 11, -8
 1533              		.cfi_offset 14, -4
 1534 0004 2DED088B 		vpush.64	{d8, d9, d10, d11}
 1535              		.cfi_def_cfa_offset 68
 1536              		.cfi_offset 80, -68
 1537              		.cfi_offset 81, -64
 1538              		.cfi_offset 82, -60
 1539              		.cfi_offset 83, -56
 1540              		.cfi_offset 84, -52
 1541              		.cfi_offset 85, -48
 1542              		.cfi_offset 86, -44
 1543              		.cfi_offset 87, -40
 1544              		.loc 1 945 14 view .LVU524
 1545 0008 D04C     		ldr	r4, .L454
 797:HANcoder_E407_TTA_CombineModel.c ****   /* local block i/o variables */
 1546              		.loc 1 797 1 view .LVU525
 1547 000a 99B0     		sub	sp, sp, #100
 1548              		.cfi_def_cfa_offset 168
 1549              		.loc 1 945 6 view .LVU526
 1550 000c D4E92401 		ldrd	r0, [r4, #144]
 1551 0010 0022     		movs	r2, #0
 1552 0012 0023     		movs	r3, #0
 1553 0014 FFF7FEFF 		bl	__aeabi_dcmpeq
 1554              	.LVL93:
 1555 0018 0028     		cmp	r0, #0
 1556 001a 40F0A687 		bne	.L414
 946:HANcoder_E407_TTA_CombineModel.c ****     rtDWork.InitializeClockSchedule_MODE = true;
 947:HANcoder_E407_TTA_CombineModel.c **** 
 948:HANcoder_E407_TTA_CombineModel.c ****     /* DataStoreWrite: '<S8>/Data Store Write' incorporates:
 949:HANcoder_E407_TTA_CombineModel.c ****      *  Constant: '<S8>/Constant2'
 950:HANcoder_E407_TTA_CombineModel.c ****      */
 951:HANcoder_E407_TTA_CombineModel.c ****     rtDWork.init_clock = 1.0;
 952:HANcoder_E407_TTA_CombineModel.c **** 
 953:HANcoder_E407_TTA_CombineModel.c ****     /* Update for M-S-Function: '<S93>/Level-2 M-file S-Function' incorporates:
 954:HANcoder_E407_TTA_CombineModel.c ****      *  Constant: '<S8>/Constant'
 955:HANcoder_E407_TTA_CombineModel.c ****      *  Constant: '<S8>/Constant1'
 956:HANcoder_E407_TTA_CombineModel.c ****      */
 957:HANcoder_E407_TTA_CombineModel.c ****     /* schedule the next output compare event */
 958:HANcoder_E407_TTA_CombineModel.c ****     TimeoutScheduleCompareEvent(TIMEOUT_TIM4_PIN_PD12, ((uint16_T)1U),
 959:HANcoder_E407_TTA_CombineModel.c ****       (tTimeoutAction)((uint8_T)3U));
 960:HANcoder_E407_TTA_CombineModel.c ****   } else if (rtDWork.InitializeClockSchedule_MODE) {
 1557              		.loc 1 960 10 is_stmt 1 view .LVU527
 1558              		.loc 1 960 13 is_stmt 0 view .LVU528
 1559 001e 94F86731 		ldrb	r3, [r4, #359]	@ zero_extendqisi2
 1560 0022 002B     		cmp	r3, #0
 1561 0024 40F04587 		bne	.L415
 1562              	.L90:
 961:HANcoder_E407_TTA_CombineModel.c ****     rtDWork.InitializeClockSchedule_MODE = false;
 962:HANcoder_E407_TTA_CombineModel.c ****   }
 963:HANcoder_E407_TTA_CombineModel.c **** 
 964:HANcoder_E407_TTA_CombineModel.c ****   /* End of Logic: '<S1>/NOT' */
 965:HANcoder_E407_TTA_CombineModel.c ****   /* End of Outputs for SubSystem: '<S1>/Initialize Clock Schedule' */
 966:HANcoder_E407_TTA_CombineModel.c **** 
 967:HANcoder_E407_TTA_CombineModel.c ****   /* If: '<S1>/If1' incorporates:
 968:HANcoder_E407_TTA_CombineModel.c ****    *  DataStoreRead: '<S1>/Data Store Read2'
 969:HANcoder_E407_TTA_CombineModel.c ****    */
 970:HANcoder_E407_TTA_CombineModel.c ****   rtPrevAction = rtDWork.If1_ActiveSubsystem;
 1563              		.loc 1 970 3 is_stmt 1 view .LVU529
 1564              	.LVL94:
 971:HANcoder_E407_TTA_CombineModel.c ****   rtAction = -1;
 1565              		.loc 1 971 3 view .LVU530
 972:HANcoder_E407_TTA_CombineModel.c ****   if (rtDWork.Board_ID == 0) {
 1566              		.loc 1 972 3 view .LVU531
 1567              		.loc 1 972 6 is_stmt 0 view .LVU532
 1568 0028 94F84631 		ldrb	r3, [r4, #326]	@ zero_extendqisi2
 1569 002c 002B     		cmp	r3, #0
 1570 002e 00F04787 		beq	.L91
 1571              	.L445:
 973:HANcoder_E407_TTA_CombineModel.c ****     rtAction = 0;
 974:HANcoder_E407_TTA_CombineModel.c ****   }
 975:HANcoder_E407_TTA_CombineModel.c **** 
 976:HANcoder_E407_TTA_CombineModel.c ****   rtDWork.If1_ActiveSubsystem = rtAction;
 1572              		.loc 1 976 3 is_stmt 1 view .LVU533
 977:HANcoder_E407_TTA_CombineModel.c ****   if ((rtPrevAction != rtAction) && (rtPrevAction == 0)) {
 978:HANcoder_E407_TTA_CombineModel.c ****   }
 979:HANcoder_E407_TTA_CombineModel.c **** 
 980:HANcoder_E407_TTA_CombineModel.c ****   if (rtAction == 0) {
 981:HANcoder_E407_TTA_CombineModel.c ****     /* Outputs for IfAction SubSystem: '<S1>/Setting ID' incorporates:
 982:HANcoder_E407_TTA_CombineModel.c ****      *  ActionPort: '<S13>/Action Port'
 983:HANcoder_E407_TTA_CombineModel.c ****      */
 984:HANcoder_E407_TTA_CombineModel.c ****     /* M-S-Function: '<S364>/Level-2 M-file S-Function' */
 985:HANcoder_E407_TTA_CombineModel.c ****     /* read from digital input */
 986:HANcoder_E407_TTA_CombineModel.c ****     rtb_Level2MfileSFunction_d = DiginGet(DIGIN_PORTG_PIN12);
 987:HANcoder_E407_TTA_CombineModel.c **** 
 988:HANcoder_E407_TTA_CombineModel.c ****     /* Product: '<S13>/Multiply' incorporates:
 989:HANcoder_E407_TTA_CombineModel.c ****      *  Constant: '<S13>/Constant1'
 990:HANcoder_E407_TTA_CombineModel.c ****      */
 991:HANcoder_E407_TTA_CombineModel.c ****     rtb_Multiply = (uint8_T)(rtb_Level2MfileSFunction_d ? (int32_T)((uint8_T)1U)
 992:HANcoder_E407_TTA_CombineModel.c ****       : 0);
 993:HANcoder_E407_TTA_CombineModel.c **** 
 994:HANcoder_E407_TTA_CombineModel.c ****     /* M-S-Function: '<S365>/Level-2 M-file S-Function' */
 995:HANcoder_E407_TTA_CombineModel.c ****     /* read from digital input */
 996:HANcoder_E407_TTA_CombineModel.c ****     rtb_Level2MfileSFunction_d = DiginGet(DIGIN_PORTG_PIN15);
 997:HANcoder_E407_TTA_CombineModel.c **** 
 998:HANcoder_E407_TTA_CombineModel.c ****     /* Product: '<S13>/Multiply1' incorporates:
 999:HANcoder_E407_TTA_CombineModel.c ****      *  Constant: '<S13>/Constant4'
1000:HANcoder_E407_TTA_CombineModel.c ****      */
1001:HANcoder_E407_TTA_CombineModel.c ****     rtb_Multiply1 = (uint8_T)(rtb_Level2MfileSFunction_d ? (int32_T)((uint8_T)2U)
1002:HANcoder_E407_TTA_CombineModel.c ****       : 0);
1003:HANcoder_E407_TTA_CombineModel.c **** 
1004:HANcoder_E407_TTA_CombineModel.c ****     /* M-S-Function: '<S366>/Level-2 M-file S-Function' */
1005:HANcoder_E407_TTA_CombineModel.c ****     /* read from digital input */
1006:HANcoder_E407_TTA_CombineModel.c ****     rtb_Level2MfileSFunction_d = DiginGet(DIGIN_PORTA_PIN4);
1007:HANcoder_E407_TTA_CombineModel.c **** 
1008:HANcoder_E407_TTA_CombineModel.c ****     /* Sum: '<S13>/Add' incorporates:
1009:HANcoder_E407_TTA_CombineModel.c ****      *  Constant: '<S13>/Constant6'
1010:HANcoder_E407_TTA_CombineModel.c ****      *  Product: '<S13>/Multiply2'
1011:HANcoder_E407_TTA_CombineModel.c ****      */
1012:HANcoder_E407_TTA_CombineModel.c ****     rtB.Add_i = (uint8_T)((uint8_T)((uint32_T)rtb_Multiply + rtb_Multiply1) +
1013:HANcoder_E407_TTA_CombineModel.c ****                           (uint32_T)(rtb_Level2MfileSFunction_d ? (int32_T)
1014:HANcoder_E407_TTA_CombineModel.c ****       ((uint8_T)4U) : 0));
1015:HANcoder_E407_TTA_CombineModel.c **** 
1016:HANcoder_E407_TTA_CombineModel.c ****     /* End of Outputs for SubSystem: '<S1>/Setting ID' */
1017:HANcoder_E407_TTA_CombineModel.c ****   }
1018:HANcoder_E407_TTA_CombineModel.c **** 
1019:HANcoder_E407_TTA_CombineModel.c ****   /* End of If: '<S1>/If1' */
1020:HANcoder_E407_TTA_CombineModel.c **** 
1021:HANcoder_E407_TTA_CombineModel.c ****   /* DataStoreWrite: '<S1>/Data Store Write1' */
1022:HANcoder_E407_TTA_CombineModel.c ****   rtDWork.Board_ID = rtB.Add_i;
 1573              		.loc 1 1022 25 is_stmt 0 view .LVU534
 1574 0032 C74D     		ldr	r5, .L454+4
 976:HANcoder_E407_TTA_CombineModel.c ****   if ((rtPrevAction != rtAction) && (rtPrevAction == 0)) {
 1575              		.loc 1 976 31 view .LVU535
 1576 0034 FF23     		movs	r3, #255
 1577              		.loc 1 1022 25 view .LVU536
 1578 0036 95F82DA0 		ldrb	r10, [r5, #45]	@ zero_extendqisi2
 976:HANcoder_E407_TTA_CombineModel.c ****   if ((rtPrevAction != rtAction) && (rtPrevAction == 0)) {
 1579              		.loc 1 976 31 view .LVU537
 1580 003a 84F84331 		strb	r3, [r4, #323]
 1581              	.LVL95:
 977:HANcoder_E407_TTA_CombineModel.c ****   if ((rtPrevAction != rtAction) && (rtPrevAction == 0)) {
 1582              		.loc 1 977 3 is_stmt 1 view .LVU538
 978:HANcoder_E407_TTA_CombineModel.c **** 
 1583              		.loc 1 978 3 view .LVU539
 980:HANcoder_E407_TTA_CombineModel.c ****     /* Outputs for IfAction SubSystem: '<S1>/Setting ID' incorporates:
 1584              		.loc 1 980 3 view .LVU540
 1585              	.L92:
 1586              		.loc 1 1022 3 view .LVU541
1023:HANcoder_E407_TTA_CombineModel.c **** 
1024:HANcoder_E407_TTA_CombineModel.c ****   /* Logic: '<S12>/AND' incorporates:
1025:HANcoder_E407_TTA_CombineModel.c ****    *  Constant: '<S12>/Constant'
1026:HANcoder_E407_TTA_CombineModel.c ****    *  Constant: '<S12>/Constant4'
1027:HANcoder_E407_TTA_CombineModel.c ****    *  DataStoreRead: '<S1>/Data Store Read3'
1028:HANcoder_E407_TTA_CombineModel.c ****    *  RelationalOperator: '<S12>/Less Than'
1029:HANcoder_E407_TTA_CombineModel.c ****    */
1030:HANcoder_E407_TTA_CombineModel.c ****   rtb_AND = ((ClockOn != 0.0) && (rtDWork.Board_ID == ((uint8_T)1U)));
 1587              		.loc 1 1030 23 is_stmt 0 view .LVU542
 1588 003e C549     		ldr	r1, .L454+8
1022:HANcoder_E407_TTA_CombineModel.c **** 
 1589              		.loc 1 1022 20 view .LVU543
 1590 0040 84F846A1 		strb	r10, [r4, #326]
 1591              		.loc 1 1030 3 is_stmt 1 view .LVU544
 1592              		.loc 1 1030 31 is_stmt 0 view .LVU545
 1593 0044 D1E90001 		ldrd	r0, [r1]
 1594 0048 0022     		movs	r2, #0
 1595 004a 0023     		movs	r3, #0
 1596 004c FFF7FEFF 		bl	__aeabi_dcmpeq
 1597              	.LVL96:
 1598 0050 18B9     		cbnz	r0, .L95
 1599              		.loc 1 1030 31 discriminator 1 view .LVU546
 1600 0052 BAF1010F 		cmp	r10, #1
 1601 0056 01F00181 		beq	.L416
 1602              	.L95:
 1603              	.LVL97:
1031:HANcoder_E407_TTA_CombineModel.c **** 
1032:HANcoder_E407_TTA_CombineModel.c ****   /* Logic: '<S12>/OR' incorporates:
1033:HANcoder_E407_TTA_CombineModel.c ****    *  DataStoreRead: '<S12>/Data Store Read2'
1034:HANcoder_E407_TTA_CombineModel.c ****    */
1035:HANcoder_E407_TTA_CombineModel.c ****   rtB.OR = (rtb_AND || rtDWork.slaveClockOn);
 1604              		.loc 1 1035 3 is_stmt 1 view .LVU547
 1605              		.loc 1 1035 21 is_stmt 0 view .LVU548
 1606 005a 94F85131 		ldrb	r3, [r4, #337]	@ zero_extendqisi2
1030:HANcoder_E407_TTA_CombineModel.c **** 
 1607              		.loc 1 1030 11 view .LVU549
 1608 005e 0022     		movs	r2, #0
 1609              		.loc 1 1035 10 view .LVU550
 1610 0060 9B1A     		subs	r3, r3, r2
1030:HANcoder_E407_TTA_CombineModel.c **** 
 1611              		.loc 1 1030 11 view .LVU551
 1612 0062 0492     		str	r2, [sp, #16]
 1613              		.loc 1 1035 10 view .LVU552
 1614 0064 18BF     		it	ne
 1615 0066 0123     		movne	r3, #1
1030:HANcoder_E407_TTA_CombineModel.c **** 
 1616              		.loc 1 1030 31 view .LVU553
 1617 0068 0392     		str	r2, [sp, #12]
 1618              	.LVL98:
 1619              	.L261:
 1620              		.loc 1 1035 10 discriminator 6 view .LVU554
 1621 006a 85F83430 		strb	r3, [r5, #52]
1036:HANcoder_E407_TTA_CombineModel.c **** 
1037:HANcoder_E407_TTA_CombineModel.c ****   /* End of Outputs for S-Function (sfcn_timeout_event_irq): '<S4>/S-Function' */
1038:HANcoder_E407_TTA_CombineModel.c **** 
1039:HANcoder_E407_TTA_CombineModel.c ****   /* Logic: '<S14>/OR1' incorporates:
1040:HANcoder_E407_TTA_CombineModel.c ****    *  Constant: '<S14>/Constant27'
1041:HANcoder_E407_TTA_CombineModel.c ****    *  Constant: '<S14>/Constant4'
1042:HANcoder_E407_TTA_CombineModel.c ****    *  RelationalOperator: '<S14>/Equal19'
1043:HANcoder_E407_TTA_CombineModel.c ****    *  RelationalOperator: '<S14>/Equal4'
1044:HANcoder_E407_TTA_CombineModel.c ****    */
1045:HANcoder_E407_TTA_CombineModel.c ****   rtb_OR1 = ((slotSelected == 5.0) || (slotSelected == 10.0));
 1622              		.loc 1 1045 3 is_stmt 1 discriminator 6 view .LVU555
 1623              		.loc 1 1045 28 is_stmt 0 discriminator 6 view .LVU556
 1624 006e BA4B     		ldr	r3, .L454+12
 1625 0070 1B78     		ldrb	r3, [r3]	@ zero_extendqisi2
 1626 0072 07EE903A 		vmov	s15, r3	@ int
 1627 0076 F8EEE77A 		vcvt.f32.s32	s15, s15
 1628              		.loc 1 1045 36 discriminator 6 view .LVU557
 1629 007a B1EE047A 		vmov.f32	s14, #5.0e+0
 1630 007e F4EE477A 		vcmp.f32	s15, s14
 1631 0082 F1EE10FA 		vmrs	APSR_nzcv, FPSCR
 1632 0086 00F00182 		beq	.L97
 1633              		.loc 1 1045 36 discriminator 2 view .LVU558
 1634 008a B2EE047A 		vmov.f32	s14, #1.0e+1
 1635 008e F4EE477A 		vcmp.f32	s15, s14
 1636 0092 F1EE10FA 		vmrs	APSR_nzcv, FPSCR
 1637 0096 00F0F981 		beq	.L97
 1638              	.LVL99:
1046:HANcoder_E407_TTA_CombineModel.c **** 
1047:HANcoder_E407_TTA_CombineModel.c ****   /* Outputs for Triggered SubSystem: '<S1>/Control execution' incorporates:
1048:HANcoder_E407_TTA_CombineModel.c ****    *  TriggerPort: '<S5>/Trigger'
1049:HANcoder_E407_TTA_CombineModel.c ****    */
1050:HANcoder_E407_TTA_CombineModel.c ****   if (rtb_OR1 && (rtPrevZCSigState.Controlexecution_Trig_ZCE != POS_ZCSIG)) {
 1639              		.loc 1 1050 3 is_stmt 1 view .LVU559
1051:HANcoder_E407_TTA_CombineModel.c ****     /* DataStoreRead: '<S5>/Data Store Read' */
1052:HANcoder_E407_TTA_CombineModel.c ****     reqAngle = rtDWork.requestedAngle;
1053:HANcoder_E407_TTA_CombineModel.c **** 
1054:HANcoder_E407_TTA_CombineModel.c ****     /* Product: '<S73>/Product' incorporates:
1055:HANcoder_E407_TTA_CombineModel.c ****      *  Constant: '<S19>/TrailUnitWheelbase'
1056:HANcoder_E407_TTA_CombineModel.c ****      *  Trigonometry: '<S73>/tan '
1057:HANcoder_E407_TTA_CombineModel.c ****      */
1058:HANcoder_E407_TTA_CombineModel.c ****     rtb_Uk1 = tan(reqAngle) * rtConstB.Abs / 4.0;
1059:HANcoder_E407_TTA_CombineModel.c **** 
1060:HANcoder_E407_TTA_CombineModel.c ****     /* DataStoreRead: '<S5>/Data Store Read2' */
1061:HANcoder_E407_TTA_CombineModel.c ****     t2Angle = rtDWork.trailerTwoAngle;
1062:HANcoder_E407_TTA_CombineModel.c **** 
1063:HANcoder_E407_TTA_CombineModel.c ****     /* DataStoreRead: '<S5>/Data Store Read1' */
1064:HANcoder_E407_TTA_CombineModel.c ****     t1Angle = rtDWork.trailerOneAngle;
1065:HANcoder_E407_TTA_CombineModel.c **** 
1066:HANcoder_E407_TTA_CombineModel.c ****     /* Sum: '<S19>/Sum2' */
1067:HANcoder_E407_TTA_CombineModel.c ****     Gamma2 = (uint16_T)(t1Angle - t2Angle);
1068:HANcoder_E407_TTA_CombineModel.c **** 
1069:HANcoder_E407_TTA_CombineModel.c ****     /* Trigonometry: '<S71>/tan 1' incorporates:
1070:HANcoder_E407_TTA_CombineModel.c ****      *  DataTypeConversion: '<S71>/Cast'
1071:HANcoder_E407_TTA_CombineModel.c ****      *  Trigonometry: '<S72>/tan '
1072:HANcoder_E407_TTA_CombineModel.c ****      */
1073:HANcoder_E407_TTA_CombineModel.c ****     rtb_IntegralGain = sin(Gamma2);
1074:HANcoder_E407_TTA_CombineModel.c **** 
1075:HANcoder_E407_TTA_CombineModel.c ****     /* Trigonometry: '<S71>/tan 2' incorporates:
1076:HANcoder_E407_TTA_CombineModel.c ****      *  DataTypeConversion: '<S71>/Cast'
1077:HANcoder_E407_TTA_CombineModel.c ****      *  Trigonometry: '<S72>/tan 1'
1078:HANcoder_E407_TTA_CombineModel.c ****      */
1079:HANcoder_E407_TTA_CombineModel.c ****     rtb_Integrator_tmp = cos(Gamma2);
1080:HANcoder_E407_TTA_CombineModel.c **** 
1081:HANcoder_E407_TTA_CombineModel.c ****     /* Sum: '<S71>/Add' incorporates:
1082:HANcoder_E407_TTA_CombineModel.c ****      *  Constant: '<S19>/TrailUnitWheelbase'
1083:HANcoder_E407_TTA_CombineModel.c ****      *  Constant: '<S5>/Constant'
1084:HANcoder_E407_TTA_CombineModel.c ****      *  Product: '<S71>/Product1'
1085:HANcoder_E407_TTA_CombineModel.c ****      *  Product: '<S71>/Product2'
1086:HANcoder_E407_TTA_CombineModel.c ****      *  Trigonometry: '<S71>/tan 1'
1087:HANcoder_E407_TTA_CombineModel.c ****      *  Trigonometry: '<S71>/tan 2'
1088:HANcoder_E407_TTA_CombineModel.c ****      */
1089:HANcoder_E407_TTA_CombineModel.c ****     rtb_Integrator = rtb_Uk1 * 4.0 * rtb_IntegralGain + rtb_Integrator_tmp * 0.5;
1090:HANcoder_E407_TTA_CombineModel.c **** 
1091:HANcoder_E407_TTA_CombineModel.c ****     /* Sum: '<S19>/Sum1' incorporates:
1092:HANcoder_E407_TTA_CombineModel.c ****      *  Constant: '<S5>/Constant1'
1093:HANcoder_E407_TTA_CombineModel.c ****      */
1094:HANcoder_E407_TTA_CombineModel.c ****     Gamma1 = 0.0 - (real_T)t1Angle;
1095:HANcoder_E407_TTA_CombineModel.c **** 
1096:HANcoder_E407_TTA_CombineModel.c ****     /* Product: '<S72>/Product' incorporates:
1097:HANcoder_E407_TTA_CombineModel.c ****      *  Constant: '<S19>/RearAxleToHitch'
1098:HANcoder_E407_TTA_CombineModel.c ****      *  Constant: '<S19>/TrailUnitWheelbase'
1099:HANcoder_E407_TTA_CombineModel.c ****      *  Constant: '<S5>/Constant'
1100:HANcoder_E407_TTA_CombineModel.c ****      *  Gain: '<S72>/Gain'
1101:HANcoder_E407_TTA_CombineModel.c ****      *  Product: '<S72>/Product1'
1102:HANcoder_E407_TTA_CombineModel.c ****      *  Product: '<S72>/Product3'
1103:HANcoder_E407_TTA_CombineModel.c ****      *  Sum: '<S72>/Add'
1104:HANcoder_E407_TTA_CombineModel.c ****      */
1105:HANcoder_E407_TTA_CombineModel.c ****     rtb_IntegralGain = (0.5 / 1.0 * rtb_IntegralGain * (-1.0) +
1106:HANcoder_E407_TTA_CombineModel.c ****                         rtb_Integrator_tmp / 1.0 * 4.0 * rtb_Uk1) *
1107:HANcoder_E407_TTA_CombineModel.c ****       (rtConstB.signV2 * rtConstB.signL0b);
1108:HANcoder_E407_TTA_CombineModel.c **** 
1109:HANcoder_E407_TTA_CombineModel.c ****     /* Trigonometry: '<S76>/tan ' incorporates:
1110:HANcoder_E407_TTA_CombineModel.c ****      *  DataTypeConversion: '<S76>/Cast'
1111:HANcoder_E407_TTA_CombineModel.c ****      *  Trigonometry: '<S75>/tan 1'
1112:HANcoder_E407_TTA_CombineModel.c ****      */
1113:HANcoder_E407_TTA_CombineModel.c ****     rtb_Uk1 = sin(Gamma1);
1114:HANcoder_E407_TTA_CombineModel.c **** 
1115:HANcoder_E407_TTA_CombineModel.c ****     /* Trigonometry: '<S76>/tan 1' incorporates:
1116:HANcoder_E407_TTA_CombineModel.c ****      *  DataTypeConversion: '<S76>/Cast'
1117:HANcoder_E407_TTA_CombineModel.c ****      *  Trigonometry: '<S75>/tan 2'
1118:HANcoder_E407_TTA_CombineModel.c ****      */
1119:HANcoder_E407_TTA_CombineModel.c ****     rtb_Integrator_tmp = cos(Gamma1);
1120:HANcoder_E407_TTA_CombineModel.c **** 
1121:HANcoder_E407_TTA_CombineModel.c ****     /* Signum: '<S76>/Sign' */
1122:HANcoder_E407_TTA_CombineModel.c ****     if (rtb_Integrator < 0.0) {
1123:HANcoder_E407_TTA_CombineModel.c ****       tmp = -1.0;
1124:HANcoder_E407_TTA_CombineModel.c ****     } else {
1125:HANcoder_E407_TTA_CombineModel.c ****       tmp = (rtb_Integrator > 0.0);
1126:HANcoder_E407_TTA_CombineModel.c ****     }
1127:HANcoder_E407_TTA_CombineModel.c **** 
1128:HANcoder_E407_TTA_CombineModel.c ****     /* Trigonometry: '<S74>/tan 1' incorporates:
1129:HANcoder_E407_TTA_CombineModel.c ****      *  Constant: '<S19>/RearAxleToHitch'
1130:HANcoder_E407_TTA_CombineModel.c ****      *  Constant: '<S19>/TractorWheelbase'
1131:HANcoder_E407_TTA_CombineModel.c ****      *  Constant: '<S19>/TrailUnitWheelbase'
1132:HANcoder_E407_TTA_CombineModel.c ****      *  DataTypeConversion: '<S74>/Cast'
1133:HANcoder_E407_TTA_CombineModel.c ****      *  Gain: '<S76>/Gain'
1134:HANcoder_E407_TTA_CombineModel.c ****      *  Product: '<S74>/Product1'
1135:HANcoder_E407_TTA_CombineModel.c ****      *  Product: '<S75>/Product1'
1136:HANcoder_E407_TTA_CombineModel.c ****      *  Product: '<S75>/Product2'
1137:HANcoder_E407_TTA_CombineModel.c ****      *  Product: '<S76>/Product'
1138:HANcoder_E407_TTA_CombineModel.c ****      *  Product: '<S76>/Product1'
1139:HANcoder_E407_TTA_CombineModel.c ****      *  Product: '<S76>/Product3'
1140:HANcoder_E407_TTA_CombineModel.c ****      *  Signum: '<S76>/Sign'
1141:HANcoder_E407_TTA_CombineModel.c ****      *  Sum: '<S75>/Add'
1142:HANcoder_E407_TTA_CombineModel.c ****      *  Sum: '<S76>/Add'
1143:HANcoder_E407_TTA_CombineModel.c ****      *  Trigonometry: '<S76>/tan '
1144:HANcoder_E407_TTA_CombineModel.c ****      *  Trigonometry: '<S76>/tan 1'
1145:HANcoder_E407_TTA_CombineModel.c ****      */
1146:HANcoder_E407_TTA_CombineModel.c ****     delta12K = (real32_T)atan((real32_T)((rtb_Integrator / 1.0 * rtb_Uk1 * (-1.0)
1147:HANcoder_E407_TTA_CombineModel.c ****       + rtb_Integrator_tmp / 1.0 * 4.0 * rtb_IntegralGain) * (tmp *
1148:HANcoder_E407_TTA_CombineModel.c ****       rtConstB.signL0b_o) * 3.0 / (rtb_IntegralGain * 4.0 * rtb_Uk1 +
1149:HANcoder_E407_TTA_CombineModel.c ****       rtb_Integrator_tmp * rtb_Integrator)));
1150:HANcoder_E407_TTA_CombineModel.c **** 
1151:HANcoder_E407_TTA_CombineModel.c ****     /* Gain: '<S18>/Gain2' incorporates:
1152:HANcoder_E407_TTA_CombineModel.c ****      *  DataTypeConversion: '<S18>/Cast3'
1153:HANcoder_E407_TTA_CombineModel.c ****      */
1154:HANcoder_E407_TTA_CombineModel.c ****     steering = 45.6 * delta12K;
1155:HANcoder_E407_TTA_CombineModel.c **** 
1156:HANcoder_E407_TTA_CombineModel.c ****     /* Gain: '<S18>/Gain1' incorporates:
1157:HANcoder_E407_TTA_CombineModel.c ****      *  DataStoreRead: '<S18>/Data Store Read'
1158:HANcoder_E407_TTA_CombineModel.c ****      */
1159:HANcoder_E407_TTA_CombineModel.c ****     position = (real_T)1717986918 * 5.8207660913467407E-11 * (real_T)
1160:HANcoder_E407_TTA_CombineModel.c ****       rtDWork.encoderPosition;
1161:HANcoder_E407_TTA_CombineModel.c **** 
1162:HANcoder_E407_TTA_CombineModel.c ****     /* Sum: '<S18>/Sum' incorporates:
1163:HANcoder_E407_TTA_CombineModel.c ****      *  Rounding: '<S18>/Round'
1164:HANcoder_E407_TTA_CombineModel.c ****      *  Rounding: '<S18>/Round1'
1165:HANcoder_E407_TTA_CombineModel.c ****      */
1166:HANcoder_E407_TTA_CombineModel.c ****     control = floor(steering) - floor(position);
1167:HANcoder_E407_TTA_CombineModel.c **** 
1168:HANcoder_E407_TTA_CombineModel.c ****     /* Abs: '<S18>/Abs' */
1169:HANcoder_E407_TTA_CombineModel.c ****     rtb_IntegralGain = fabs(control);
1170:HANcoder_E407_TTA_CombineModel.c **** 
1171:HANcoder_E407_TTA_CombineModel.c ****     /* Sum: '<S63>/Sum' incorporates:
1172:HANcoder_E407_TTA_CombineModel.c ****      *  DiscreteIntegrator: '<S54>/Integrator'
1173:HANcoder_E407_TTA_CombineModel.c ****      *  Gain: '<S59>/Proportional Gain'
1174:HANcoder_E407_TTA_CombineModel.c ****      */
1175:HANcoder_E407_TTA_CombineModel.c ****     rtb_Uk1 = propVal * rtb_IntegralGain + rtDWork.Integrator_DSTATE;
1176:HANcoder_E407_TTA_CombineModel.c **** 
1177:HANcoder_E407_TTA_CombineModel.c ****     /* Saturate: '<S61>/Saturation' */
1178:HANcoder_E407_TTA_CombineModel.c ****     if (rtb_Uk1 > 300.0) {
1179:HANcoder_E407_TTA_CombineModel.c ****       tmp = 300.0;
1180:HANcoder_E407_TTA_CombineModel.c ****     } else if (rtb_Uk1 < 0.0) {
1181:HANcoder_E407_TTA_CombineModel.c ****       tmp = 0.0;
1182:HANcoder_E407_TTA_CombineModel.c ****     } else {
1183:HANcoder_E407_TTA_CombineModel.c ****       tmp = rtb_Uk1;
1184:HANcoder_E407_TTA_CombineModel.c ****     }
1185:HANcoder_E407_TTA_CombineModel.c **** 
1186:HANcoder_E407_TTA_CombineModel.c ****     /* Sum: '<S18>/Add' incorporates:
1187:HANcoder_E407_TTA_CombineModel.c ****      *  Constant: '<S18>/Motor dead zone'
1188:HANcoder_E407_TTA_CombineModel.c ****      *  DataTypeConversion: '<S18>/Cast'
1189:HANcoder_E407_TTA_CombineModel.c ****      *  Saturate: '<S61>/Saturation'
1190:HANcoder_E407_TTA_CombineModel.c ****      */
1191:HANcoder_E407_TTA_CombineModel.c ****     mospeed = (uint16_T)((uint32_T)((uint16_T)500U) + (uint16_T)tmp);
1192:HANcoder_E407_TTA_CombineModel.c **** 
1193:HANcoder_E407_TTA_CombineModel.c ****     /* DataStoreWrite: '<S5>/Data Store Write' */
1194:HANcoder_E407_TTA_CombineModel.c ****     rtDWork.pwmMotor = mospeed;
1195:HANcoder_E407_TTA_CombineModel.c **** 
1196:HANcoder_E407_TTA_CombineModel.c ****     /* RelationalOperator: '<S10>/Equal17' incorporates:
1197:HANcoder_E407_TTA_CombineModel.c ****      *  Constant: '<S18>/Constant'
1198:HANcoder_E407_TTA_CombineModel.c ****      *  RelationalOperator: '<S18>/GreaterThan1'
1199:HANcoder_E407_TTA_CombineModel.c ****      */
1200:HANcoder_E407_TTA_CombineModel.c ****     rtb_Equal17 = (rtb_IntegralGain > controlWidth);
1201:HANcoder_E407_TTA_CombineModel.c **** 
1202:HANcoder_E407_TTA_CombineModel.c ****     /* DataTypeConversion: '<S18>/Cast1' incorporates:
1203:HANcoder_E407_TTA_CombineModel.c ****      *  Constant: '<S18>/Constant1'
1204:HANcoder_E407_TTA_CombineModel.c ****      *  RelationalOperator: '<S18>/GreaterThan'
1205:HANcoder_E407_TTA_CombineModel.c ****      */
1206:HANcoder_E407_TTA_CombineModel.c ****     cw = (control > 0.0);
1207:HANcoder_E407_TTA_CombineModel.c **** 
1208:HANcoder_E407_TTA_CombineModel.c ****     /* Logic: '<S18>/AND' incorporates:
1209:HANcoder_E407_TTA_CombineModel.c ****      *  DataStoreWrite: '<S5>/Data Store Write1'
1210:HANcoder_E407_TTA_CombineModel.c ****      */
1211:HANcoder_E407_TTA_CombineModel.c ****     rtDWork.cwMotor = (rtb_Equal17 && cw);
1212:HANcoder_E407_TTA_CombineModel.c **** 
1213:HANcoder_E407_TTA_CombineModel.c ****     /* Logic: '<S18>/NOT' */
1214:HANcoder_E407_TTA_CombineModel.c ****     ccw = !cw;
1215:HANcoder_E407_TTA_CombineModel.c **** 
1216:HANcoder_E407_TTA_CombineModel.c ****     /* Logic: '<S18>/AND1' incorporates:
1217:HANcoder_E407_TTA_CombineModel.c ****      *  DataStoreWrite: '<S5>/Data Store Write8'
1218:HANcoder_E407_TTA_CombineModel.c ****      */
1219:HANcoder_E407_TTA_CombineModel.c ****     rtDWork.ccwMotor = (rtb_Equal17 && ccw);
1220:HANcoder_E407_TTA_CombineModel.c **** 
1221:HANcoder_E407_TTA_CombineModel.c ****     /* DeadZone: '<S47>/DeadZone' */
1222:HANcoder_E407_TTA_CombineModel.c ****     if (rtb_Uk1 > 300.0) {
1223:HANcoder_E407_TTA_CombineModel.c ****       rtb_Uk1 -= 300.0;
1224:HANcoder_E407_TTA_CombineModel.c ****     } else if (rtb_Uk1 >= 0.0) {
1225:HANcoder_E407_TTA_CombineModel.c ****       rtb_Uk1 = 0.0;
1226:HANcoder_E407_TTA_CombineModel.c ****     } else {
1227:HANcoder_E407_TTA_CombineModel.c ****       rtb_Uk1 -= 0.0;
1228:HANcoder_E407_TTA_CombineModel.c ****     }
1229:HANcoder_E407_TTA_CombineModel.c **** 
1230:HANcoder_E407_TTA_CombineModel.c ****     /* End of DeadZone: '<S47>/DeadZone' */
1231:HANcoder_E407_TTA_CombineModel.c **** 
1232:HANcoder_E407_TTA_CombineModel.c ****     /* Gain: '<S51>/Integral Gain' */
1233:HANcoder_E407_TTA_CombineModel.c ****     rtb_IntegralGain *= intVal;
1234:HANcoder_E407_TTA_CombineModel.c **** 
1235:HANcoder_E407_TTA_CombineModel.c ****     /* Switch: '<S45>/Switch1' incorporates:
1236:HANcoder_E407_TTA_CombineModel.c ****      *  Constant: '<S45>/Clamping_zero'
1237:HANcoder_E407_TTA_CombineModel.c ****      *  Constant: '<S45>/Constant'
1238:HANcoder_E407_TTA_CombineModel.c ****      *  Constant: '<S45>/Constant2'
1239:HANcoder_E407_TTA_CombineModel.c ****      *  RelationalOperator: '<S45>/fix for DT propagation issue'
1240:HANcoder_E407_TTA_CombineModel.c ****      */
1241:HANcoder_E407_TTA_CombineModel.c ****     if (rtb_Uk1 > 0.0) {
1242:HANcoder_E407_TTA_CombineModel.c ****       rtPrevAction = 1;
1243:HANcoder_E407_TTA_CombineModel.c ****     } else {
1244:HANcoder_E407_TTA_CombineModel.c ****       rtPrevAction = (-1);
1245:HANcoder_E407_TTA_CombineModel.c ****     }
1246:HANcoder_E407_TTA_CombineModel.c **** 
1247:HANcoder_E407_TTA_CombineModel.c ****     /* Switch: '<S45>/Switch2' incorporates:
1248:HANcoder_E407_TTA_CombineModel.c ****      *  Constant: '<S45>/Clamping_zero'
1249:HANcoder_E407_TTA_CombineModel.c ****      *  Constant: '<S45>/Constant3'
1250:HANcoder_E407_TTA_CombineModel.c ****      *  Constant: '<S45>/Constant4'
1251:HANcoder_E407_TTA_CombineModel.c ****      *  RelationalOperator: '<S45>/fix for DT propagation issue1'
1252:HANcoder_E407_TTA_CombineModel.c ****      */
1253:HANcoder_E407_TTA_CombineModel.c ****     if (rtb_IntegralGain > 0.0) {
1254:HANcoder_E407_TTA_CombineModel.c ****       rtAction = 1;
1255:HANcoder_E407_TTA_CombineModel.c ****     } else {
1256:HANcoder_E407_TTA_CombineModel.c ****       rtAction = (-1);
1257:HANcoder_E407_TTA_CombineModel.c ****     }
1258:HANcoder_E407_TTA_CombineModel.c **** 
1259:HANcoder_E407_TTA_CombineModel.c ****     /* Switch: '<S45>/Switch' incorporates:
1260:HANcoder_E407_TTA_CombineModel.c ****      *  Constant: '<S45>/Clamping_zero'
1261:HANcoder_E407_TTA_CombineModel.c ****      *  Constant: '<S45>/Constant1'
1262:HANcoder_E407_TTA_CombineModel.c ****      *  Logic: '<S45>/AND3'
1263:HANcoder_E407_TTA_CombineModel.c ****      *  RelationalOperator: '<S45>/Equal1'
1264:HANcoder_E407_TTA_CombineModel.c ****      *  RelationalOperator: '<S45>/Relational Operator'
1265:HANcoder_E407_TTA_CombineModel.c ****      *  Switch: '<S45>/Switch1'
1266:HANcoder_E407_TTA_CombineModel.c ****      *  Switch: '<S45>/Switch2'
1267:HANcoder_E407_TTA_CombineModel.c ****      */
1268:HANcoder_E407_TTA_CombineModel.c ****     if ((0.0 != rtb_Uk1) && (rtPrevAction == rtAction)) {
1269:HANcoder_E407_TTA_CombineModel.c ****       rtb_IntegralGain = 0.0;
1270:HANcoder_E407_TTA_CombineModel.c ****     }
1271:HANcoder_E407_TTA_CombineModel.c **** 
1272:HANcoder_E407_TTA_CombineModel.c ****     /* Update for DiscreteIntegrator: '<S54>/Integrator' incorporates:
1273:HANcoder_E407_TTA_CombineModel.c ****      *  Switch: '<S45>/Switch'
1274:HANcoder_E407_TTA_CombineModel.c ****      */
1275:HANcoder_E407_TTA_CombineModel.c ****     rtDWork.Integrator_DSTATE += 1.0 * rtb_IntegralGain;
1276:HANcoder_E407_TTA_CombineModel.c ****     if (rtDWork.Integrator_DSTATE >= 100.0) {
1277:HANcoder_E407_TTA_CombineModel.c ****       rtDWork.Integrator_DSTATE = 100.0;
1278:HANcoder_E407_TTA_CombineModel.c ****     } else if (rtDWork.Integrator_DSTATE <= 0.0) {
1279:HANcoder_E407_TTA_CombineModel.c ****       rtDWork.Integrator_DSTATE = 0.0;
1280:HANcoder_E407_TTA_CombineModel.c ****     }
1281:HANcoder_E407_TTA_CombineModel.c **** 
1282:HANcoder_E407_TTA_CombineModel.c ****     /* End of Update for DiscreteIntegrator: '<S54>/Integrator' */
1283:HANcoder_E407_TTA_CombineModel.c ****   }
1284:HANcoder_E407_TTA_CombineModel.c **** 
1285:HANcoder_E407_TTA_CombineModel.c ****   rtPrevZCSigState.Controlexecution_Trig_ZCE = rtb_OR1;
 1640              		.loc 1 1285 3 view .LVU560
 1641              		.loc 1 1285 46 is_stmt 0 view .LVU561
 1642 009a DFF8E4B2 		ldr	fp, .L454+52
 1643 009e 0023     		movs	r3, #0
 1644 00a0 8BF80C30 		strb	r3, [fp, #12]
 1645              	.LVL100:
 1646              	.L405:
1286:HANcoder_E407_TTA_CombineModel.c **** 
1287:HANcoder_E407_TTA_CombineModel.c ****   /* End of Outputs for SubSystem: '<S1>/Control execution' */
1288:HANcoder_E407_TTA_CombineModel.c **** 
1289:HANcoder_E407_TTA_CombineModel.c ****   /* Outputs for Triggered SubSystem: '<S1>/IO execution' incorporates:
1290:HANcoder_E407_TTA_CombineModel.c ****    *  TriggerPort: '<S7>/Trigger'
1291:HANcoder_E407_TTA_CombineModel.c ****    */
1292:HANcoder_E407_TTA_CombineModel.c ****   if (rtb_OR1 && (rtPrevZCSigState.IOexecution_Trig_ZCE != POS_ZCSIG)) {
 1647              		.loc 1 1292 3 is_stmt 1 view .LVU562
1293:HANcoder_E407_TTA_CombineModel.c ****     IOexecution_ELAPS_T_tmp = rtM->Timing.clockTick0;
1294:HANcoder_E407_TTA_CombineModel.c ****     IOexecution_ELAPS_T[0] = IOexecution_ELAPS_T_tmp -
1295:HANcoder_E407_TTA_CombineModel.c ****       rtDWork.IOexecution_PREV_T[0];
1296:HANcoder_E407_TTA_CombineModel.c ****     rtDWork.IOexecution_PREV_T[0] = IOexecution_ELAPS_T_tmp;
1297:HANcoder_E407_TTA_CombineModel.c ****     rtDWork.IOexecution_PREV_T[1] = rtM->Timing.clockTickH0;
1298:HANcoder_E407_TTA_CombineModel.c **** 
1299:HANcoder_E407_TTA_CombineModel.c ****     /* Delay: '<S79>/Delay' */
1300:HANcoder_E407_TTA_CombineModel.c ****     mf1 = rtDWork.Delay_DSTATE[0];
1301:HANcoder_E407_TTA_CombineModel.c **** 
1302:HANcoder_E407_TTA_CombineModel.c ****     /* Delay: '<S79>/Delay1' */
1303:HANcoder_E407_TTA_CombineModel.c ****     mf2 = rtDWork.Delay1_DSTATE[0];
1304:HANcoder_E407_TTA_CombineModel.c **** 
1305:HANcoder_E407_TTA_CombineModel.c ****     /* Delay: '<S79>/Delay2' */
1306:HANcoder_E407_TTA_CombineModel.c ****     mf3 = rtDWork.Delay2_DSTATE[0];
1307:HANcoder_E407_TTA_CombineModel.c **** 
1308:HANcoder_E407_TTA_CombineModel.c ****     /* Delay: '<S79>/Delay4' */
1309:HANcoder_E407_TTA_CombineModel.c ****     mf4 = rtDWork.Delay4_DSTATE[0];
1310:HANcoder_E407_TTA_CombineModel.c **** 
1311:HANcoder_E407_TTA_CombineModel.c ****     /* Delay: '<S79>/Delay3' */
1312:HANcoder_E407_TTA_CombineModel.c ****     mf5 = rtDWork.Delay3_DSTATE[0];
1313:HANcoder_E407_TTA_CombineModel.c **** 
1314:HANcoder_E407_TTA_CombineModel.c ****     /* RelationalOperator: '<S10>/Equal17' incorporates:
1315:HANcoder_E407_TTA_CombineModel.c ****      *  Logic: '<S79>/AND1'
1316:HANcoder_E407_TTA_CombineModel.c ****      */
1317:HANcoder_E407_TTA_CombineModel.c ****     rtb_Equal17 = (mf1 && mf2 && mf3 && mf4 && mf5);
1318:HANcoder_E407_TTA_CombineModel.c **** 
1319:HANcoder_E407_TTA_CombineModel.c ****     /* CombinatorialLogic: '<S91>/Logic' incorporates:
1320:HANcoder_E407_TTA_CombineModel.c ****      *  Memory: '<S91>/Memory'
1321:HANcoder_E407_TTA_CombineModel.c ****      */
1322:HANcoder_E407_TTA_CombineModel.c ****     rtb_Logic_c_idx_0 = rtConstP.pooled23[((((uint32_T)rtb_Equal17 << 1) + false)
1323:HANcoder_E407_TTA_CombineModel.c ****       << 1) + rtDWork.Memory_PreviousInput_d1];
1324:HANcoder_E407_TTA_CombineModel.c **** 
1325:HANcoder_E407_TTA_CombineModel.c ****     /* RelationalOperator: '<S10>/Equal17' incorporates:
1326:HANcoder_E407_TTA_CombineModel.c ****      *  Constant: '<S79>/Constant2'
1327:HANcoder_E407_TTA_CombineModel.c ****      *  DataStoreRead: '<S1>/Data Store Read1'
1328:HANcoder_E407_TTA_CombineModel.c ****      *  RelationalOperator: '<S79>/Equal1'
1329:HANcoder_E407_TTA_CombineModel.c ****      */
1330:HANcoder_E407_TTA_CombineModel.c ****     rtb_Equal17 = (rtDWork.Board_ID == ((uint8_T)1U));
1331:HANcoder_E407_TTA_CombineModel.c **** 
1332:HANcoder_E407_TTA_CombineModel.c ****     /* Logic: '<S79>/AND2' */
1333:HANcoder_E407_TTA_CombineModel.c ****     motorFaultDetected = (rtb_Logic_c_idx_0 && rtb_Equal17);
1334:HANcoder_E407_TTA_CombineModel.c **** 
1335:HANcoder_E407_TTA_CombineModel.c ****     /* DataStoreWrite: '<S79>/Data Store Write' */
1336:HANcoder_E407_TTA_CombineModel.c ****     rtDWork.motorFailed = motorFaultDetected;
1337:HANcoder_E407_TTA_CombineModel.c **** 
1338:HANcoder_E407_TTA_CombineModel.c ****     /* DataStoreRead: '<S79>/Data Store Read5' */
1339:HANcoder_E407_TTA_CombineModel.c ****     potRaw = rtDWork.potentiometer1Raw;
1340:HANcoder_E407_TTA_CombineModel.c **** 
1341:HANcoder_E407_TTA_CombineModel.c ****     /* DataStoreRead: '<S79>/Data Store Read6' */
1342:HANcoder_E407_TTA_CombineModel.c ****     lastPot = rtDWork.lastPot1;
1343:HANcoder_E407_TTA_CombineModel.c **** 
1344:HANcoder_E407_TTA_CombineModel.c ****     /* Sum: '<S79>/Add' incorporates:
1345:HANcoder_E407_TTA_CombineModel.c ****      *  DataTypeConversion: '<S79>/Cast'
1346:HANcoder_E407_TTA_CombineModel.c ****      *  DataTypeConversion: '<S79>/Cast1'
1347:HANcoder_E407_TTA_CombineModel.c ****      */
1348:HANcoder_E407_TTA_CombineModel.c ****     u = (int16_T)((int16_T)potRaw - (int16_T)lastPot);
1349:HANcoder_E407_TTA_CombineModel.c **** 
1350:HANcoder_E407_TTA_CombineModel.c ****     /* Abs: '<S79>/Abs' */
1351:HANcoder_E407_TTA_CombineModel.c ****     if (u < 0) {
1352:HANcoder_E407_TTA_CombineModel.c ****       u = (int16_T)-u;
1353:HANcoder_E407_TTA_CombineModel.c ****     }
1354:HANcoder_E407_TTA_CombineModel.c **** 
1355:HANcoder_E407_TTA_CombineModel.c ****     /* RelationalOperator: '<S10>/Equal17' incorporates:
1356:HANcoder_E407_TTA_CombineModel.c ****      *  Abs: '<S79>/Abs'
1357:HANcoder_E407_TTA_CombineModel.c ****      *  Constant: '<S79>/Constant1'
1358:HANcoder_E407_TTA_CombineModel.c ****      *  Delay: '<S79>/Delay6'
1359:HANcoder_E407_TTA_CombineModel.c ****      *  Logic: '<S79>/AND3'
1360:HANcoder_E407_TTA_CombineModel.c ****      *  RelationalOperator: '<S79>/GreaterThan1'
1361:HANcoder_E407_TTA_CombineModel.c ****      */
1362:HANcoder_E407_TTA_CombineModel.c ****     rtb_Equal17 = ((u > 500) && rtDWork.Delay6_DSTATE[0]);
1363:HANcoder_E407_TTA_CombineModel.c **** 
1364:HANcoder_E407_TTA_CombineModel.c ****     /* CombinatorialLogic: '<S92>/Logic' incorporates:
1365:HANcoder_E407_TTA_CombineModel.c ****      *  Memory: '<S92>/Memory'
1366:HANcoder_E407_TTA_CombineModel.c ****      */
1367:HANcoder_E407_TTA_CombineModel.c ****     rtb_Logic_f_idx_0 = rtConstP.pooled23[((((uint32_T)rtb_Equal17 << 1) + false)
1368:HANcoder_E407_TTA_CombineModel.c ****       << 1) + rtDWork.Memory_PreviousInput_a];
1369:HANcoder_E407_TTA_CombineModel.c **** 
1370:HANcoder_E407_TTA_CombineModel.c ****     /* DataStoreWrite: '<S79>/Data Store Write2' */
1371:HANcoder_E407_TTA_CombineModel.c ****     rtDWork.potFault = rtb_Logic_f_idx_0;
1372:HANcoder_E407_TTA_CombineModel.c **** 
1373:HANcoder_E407_TTA_CombineModel.c ****     /* Gain: '<S79>/Gain' incorporates:
1374:HANcoder_E407_TTA_CombineModel.c ****      *  DataStoreRead: '<S79>/Data Store Read12'
1375:HANcoder_E407_TTA_CombineModel.c ****      *  DataStoreWrite: '<S79>/Data Store Write4'
1376:HANcoder_E407_TTA_CombineModel.c ****      */
1377:HANcoder_E407_TTA_CombineModel.c ****     rtDWork.trailerOneAngle = (uint16_T)(((uint32_T)((uint16_T)62602U) *
1378:HANcoder_E407_TTA_CombineModel.c ****       rtDWork.pot4_1) >> 22);
1379:HANcoder_E407_TTA_CombineModel.c **** 
1380:HANcoder_E407_TTA_CombineModel.c ****     /* Gain: '<S79>/Gain1' incorporates:
1381:HANcoder_E407_TTA_CombineModel.c ****      *  DataStoreRead: '<S79>/Data Store Read13'
1382:HANcoder_E407_TTA_CombineModel.c ****      *  DataStoreWrite: '<S79>/Data Store Write5'
1383:HANcoder_E407_TTA_CombineModel.c ****      */
1384:HANcoder_E407_TTA_CombineModel.c ****     rtDWork.trailerTwoAngle = (uint16_T)(((uint32_T)((uint16_T)62602U) *
1385:HANcoder_E407_TTA_CombineModel.c ****       rtDWork.pot5_1) >> 22);
1386:HANcoder_E407_TTA_CombineModel.c **** 
1387:HANcoder_E407_TTA_CombineModel.c ****     /* Delay: '<S79>/Delay7' incorporates:
1388:HANcoder_E407_TTA_CombineModel.c ****      *  DataStoreWrite: '<S79>/Data Store Write1'
1389:HANcoder_E407_TTA_CombineModel.c ****      */
1390:HANcoder_E407_TTA_CombineModel.c ****     rtDWork.lastPot1 = rtDWork.Delay7_DSTATE[0];
1391:HANcoder_E407_TTA_CombineModel.c **** 
1392:HANcoder_E407_TTA_CombineModel.c ****     /* Logic: '<S79>/AND' incorporates:
1393:HANcoder_E407_TTA_CombineModel.c ****      *  Constant: '<S79>/Constant'
1394:HANcoder_E407_TTA_CombineModel.c ****      *  DataStoreRead: '<S79>/Data Store Read2'
1395:HANcoder_E407_TTA_CombineModel.c ****      *  DataStoreRead: '<S79>/Data Store Read4'
1396:HANcoder_E407_TTA_CombineModel.c ****      *  Delay: '<S79>/Delay5'
1397:HANcoder_E407_TTA_CombineModel.c ****      *  RelationalOperator: '<S79>/Equal'
1398:HANcoder_E407_TTA_CombineModel.c ****      *  RelationalOperator: '<S79>/GreaterThan'
1399:HANcoder_E407_TTA_CombineModel.c ****      */
1400:HANcoder_E407_TTA_CombineModel.c ****     rtb_AND_n = ((rtDWork.Delay5_DSTATE[0] == rtDWork.encoderPosition) &&
1401:HANcoder_E407_TTA_CombineModel.c ****                  (rtDWork.pwmMotor > ((uint16_T)650U)));
1402:HANcoder_E407_TTA_CombineModel.c **** 
1403:HANcoder_E407_TTA_CombineModel.c ****     /* SampleTimeMath: '<S90>/TSamp'
1404:HANcoder_E407_TTA_CombineModel.c ****      *
1405:HANcoder_E407_TTA_CombineModel.c ****      * About '<S90>/TSamp':
1406:HANcoder_E407_TTA_CombineModel.c ****      *  y = u * K where K = 1 / ( w * Ts )
1407:HANcoder_E407_TTA_CombineModel.c ****      */
1408:HANcoder_E407_TTA_CombineModel.c ****     rtb_TSamp = (uint16_T)(potRaw * 10U / IOexecution_ELAPS_T[0]);
1409:HANcoder_E407_TTA_CombineModel.c **** 
1410:HANcoder_E407_TTA_CombineModel.c ****     /* Sum: '<S90>/Diff' incorporates:
1411:HANcoder_E407_TTA_CombineModel.c ****      *  UnitDelay: '<S90>/UD'
1412:HANcoder_E407_TTA_CombineModel.c ****      *
1413:HANcoder_E407_TTA_CombineModel.c ****      * Block description for '<S90>/Diff':
1414:HANcoder_E407_TTA_CombineModel.c ****      *
1415:HANcoder_E407_TTA_CombineModel.c ****      *  Add in CPU
1416:HANcoder_E407_TTA_CombineModel.c ****      *
1417:HANcoder_E407_TTA_CombineModel.c ****      * Block description for '<S90>/UD':
1418:HANcoder_E407_TTA_CombineModel.c ****      *
1419:HANcoder_E407_TTA_CombineModel.c ****      *  Store in Global RAM
1420:HANcoder_E407_TTA_CombineModel.c ****      */
1421:HANcoder_E407_TTA_CombineModel.c ****     derivative = (uint16_T)(rtb_TSamp - rtDWork.UD_DSTATE);
1422:HANcoder_E407_TTA_CombineModel.c **** 
1423:HANcoder_E407_TTA_CombineModel.c ****     /* DataStoreRead: '<S79>/Data Store Read11' */
1424:HANcoder_E407_TTA_CombineModel.c ****     rtb_DataStoreRead11 = rtDWork.ioInitialized;
1425:HANcoder_E407_TTA_CombineModel.c **** 
1426:HANcoder_E407_TTA_CombineModel.c ****     /* MATLABSystem: '<S79>/Moving Average' */
1427:HANcoder_E407_TTA_CombineModel.c ****     if (rtDWork.obj.TunablePropsChanged) {
1428:HANcoder_E407_TTA_CombineModel.c ****       rtDWork.obj.TunablePropsChanged = false;
1429:HANcoder_E407_TTA_CombineModel.c ****     }
1430:HANcoder_E407_TTA_CombineModel.c **** 
1431:HANcoder_E407_TTA_CombineModel.c ****     obj = rtDWork.obj.pStatistic;
1432:HANcoder_E407_TTA_CombineModel.c ****     if (obj->isInitialized != 1) {
1433:HANcoder_E407_TTA_CombineModel.c ****       obj->isSetupComplete = false;
1434:HANcoder_E407_TTA_CombineModel.c ****       obj->isInitialized = 1;
1435:HANcoder_E407_TTA_CombineModel.c ****       obj->pCumSum = 0.0F;
1436:HANcoder_E407_TTA_CombineModel.c ****       for (i = 0; i < 9; i++) {
1437:HANcoder_E407_TTA_CombineModel.c ****         obj->pCumSumRev[i] = 0.0F;
1438:HANcoder_E407_TTA_CombineModel.c ****       }
1439:HANcoder_E407_TTA_CombineModel.c **** 
1440:HANcoder_E407_TTA_CombineModel.c ****       obj->pCumRevIndex = 1.0F;
1441:HANcoder_E407_TTA_CombineModel.c ****       obj->pModValueRev = 0.0F;
1442:HANcoder_E407_TTA_CombineModel.c ****       obj->isSetupComplete = true;
1443:HANcoder_E407_TTA_CombineModel.c ****       obj->pCumSum = 0.0F;
1444:HANcoder_E407_TTA_CombineModel.c ****       for (i = 0; i < 9; i++) {
1445:HANcoder_E407_TTA_CombineModel.c ****         obj->pCumSumRev[i] = 0.0F;
1446:HANcoder_E407_TTA_CombineModel.c ****       }
1447:HANcoder_E407_TTA_CombineModel.c **** 
1448:HANcoder_E407_TTA_CombineModel.c ****       obj->pCumRevIndex = 1.0F;
1449:HANcoder_E407_TTA_CombineModel.c ****       obj->pModValueRev = 0.0F;
1450:HANcoder_E407_TTA_CombineModel.c ****     }
1451:HANcoder_E407_TTA_CombineModel.c **** 
1452:HANcoder_E407_TTA_CombineModel.c ****     cumRevIndex = obj->pCumRevIndex;
1453:HANcoder_E407_TTA_CombineModel.c ****     csum = obj->pCumSum;
1454:HANcoder_E407_TTA_CombineModel.c ****     for (i = 0; i < 9; i++) {
1455:HANcoder_E407_TTA_CombineModel.c ****       csumrev[i] = obj->pCumSumRev[i];
1456:HANcoder_E407_TTA_CombineModel.c ****     }
1457:HANcoder_E407_TTA_CombineModel.c **** 
1458:HANcoder_E407_TTA_CombineModel.c ****     modValueRev = obj->pModValueRev;
1459:HANcoder_E407_TTA_CombineModel.c ****     z = 0.0F;
1460:HANcoder_E407_TTA_CombineModel.c **** 
1461:HANcoder_E407_TTA_CombineModel.c ****     /* MATLABSystem: '<S79>/Moving Average' */
1462:HANcoder_E407_TTA_CombineModel.c ****     derivativeMean = 0.0F;
1463:HANcoder_E407_TTA_CombineModel.c **** 
1464:HANcoder_E407_TTA_CombineModel.c ****     /* MATLABSystem: '<S79>/Moving Average' incorporates:
1465:HANcoder_E407_TTA_CombineModel.c ****      *  DataTypeConversion: '<S79>/Cast2'
1466:HANcoder_E407_TTA_CombineModel.c ****      */
1467:HANcoder_E407_TTA_CombineModel.c ****     csum += (real32_T)derivative;
1468:HANcoder_E407_TTA_CombineModel.c ****     if (modValueRev == 0.0F) {
1469:HANcoder_E407_TTA_CombineModel.c ****       z = csumrev[(int32_T)cumRevIndex - 1] + csum;
1470:HANcoder_E407_TTA_CombineModel.c ****     }
1471:HANcoder_E407_TTA_CombineModel.c **** 
1472:HANcoder_E407_TTA_CombineModel.c ****     csumrev[(int32_T)cumRevIndex - 1] = derivative;
1473:HANcoder_E407_TTA_CombineModel.c ****     if (cumRevIndex != 9.0F) {
1474:HANcoder_E407_TTA_CombineModel.c ****       cumRevIndex++;
1475:HANcoder_E407_TTA_CombineModel.c ****     } else {
1476:HANcoder_E407_TTA_CombineModel.c ****       cumRevIndex = 1.0F;
1477:HANcoder_E407_TTA_CombineModel.c ****       csum = 0.0F;
1478:HANcoder_E407_TTA_CombineModel.c ****       for (i = 7; i >= 0; i--) {
1479:HANcoder_E407_TTA_CombineModel.c ****         csumrev[i] += csumrev[i + 1];
1480:HANcoder_E407_TTA_CombineModel.c ****       }
1481:HANcoder_E407_TTA_CombineModel.c ****     }
1482:HANcoder_E407_TTA_CombineModel.c **** 
1483:HANcoder_E407_TTA_CombineModel.c ****     if (modValueRev == 0.0F) {
1484:HANcoder_E407_TTA_CombineModel.c ****       /* MATLABSystem: '<S79>/Moving Average' */
1485:HANcoder_E407_TTA_CombineModel.c ****       derivativeMean = z / 10.0F;
1486:HANcoder_E407_TTA_CombineModel.c ****     }
1487:HANcoder_E407_TTA_CombineModel.c **** 
1488:HANcoder_E407_TTA_CombineModel.c ****     obj->pCumSum = csum;
1489:HANcoder_E407_TTA_CombineModel.c ****     for (i = 0; i < 9; i++) {
1490:HANcoder_E407_TTA_CombineModel.c ****       obj->pCumSumRev[i] = csumrev[i];
1491:HANcoder_E407_TTA_CombineModel.c ****     }
1492:HANcoder_E407_TTA_CombineModel.c **** 
1493:HANcoder_E407_TTA_CombineModel.c ****     obj->pCumRevIndex = cumRevIndex;
1494:HANcoder_E407_TTA_CombineModel.c ****     if (modValueRev > 0.0F) {
1495:HANcoder_E407_TTA_CombineModel.c ****       obj->pModValueRev = modValueRev - 1.0F;
1496:HANcoder_E407_TTA_CombineModel.c ****     } else {
1497:HANcoder_E407_TTA_CombineModel.c ****       obj->pModValueRev = 0.0F;
1498:HANcoder_E407_TTA_CombineModel.c ****     }
1499:HANcoder_E407_TTA_CombineModel.c **** 
1500:HANcoder_E407_TTA_CombineModel.c ****     /* DataStoreRead: '<S79>/Data Store Read7' */
1501:HANcoder_E407_TTA_CombineModel.c ****     i = rtDWork.encoderPosition;
1502:HANcoder_E407_TTA_CombineModel.c **** 
1503:HANcoder_E407_TTA_CombineModel.c ****     /* DataStoreRead: '<S79>/Data Store Read8' */
1504:HANcoder_E407_TTA_CombineModel.c ****     rtb_DataStoreRead8 = rtDWork.potentiometer1Raw;
1505:HANcoder_E407_TTA_CombineModel.c **** 
1506:HANcoder_E407_TTA_CombineModel.c ****     /* M-S-Function: '<S82>/Level-2 M-file S-Function' */
1507:HANcoder_E407_TTA_CombineModel.c ****     /* read from analog input for filtered inputs*/
1508:HANcoder_E407_TTA_CombineModel.c ****     analogPot1 = AninGet(ANIN_PORTF_PIN7,0);
1509:HANcoder_E407_TTA_CombineModel.c **** 
1510:HANcoder_E407_TTA_CombineModel.c ****     /* DataTypeConversion: '<S77>/Cast' */
1511:HANcoder_E407_TTA_CombineModel.c ****     rtb_Cast_m = analogPot1;
1512:HANcoder_E407_TTA_CombineModel.c ****     MovingAverage(rtb_Cast_m, &rtB.MovingAverage_p, &rtDWork.MovingAverage_p);
1513:HANcoder_E407_TTA_CombineModel.c **** 
1514:HANcoder_E407_TTA_CombineModel.c ****     /* DataTypeConversion: '<S77>/Cast1' */
1515:HANcoder_E407_TTA_CombineModel.c ****     pot1 = (uint16_T)rtB.MovingAverage_p.MovingAverage_n;
1516:HANcoder_E407_TTA_CombineModel.c **** 
1517:HANcoder_E407_TTA_CombineModel.c ****     /* DataStoreWrite: '<S77>/Data Store Write1' */
1518:HANcoder_E407_TTA_CombineModel.c ****     rtDWork.potentiometer1 = pot1;
1519:HANcoder_E407_TTA_CombineModel.c **** 
1520:HANcoder_E407_TTA_CombineModel.c ****     /* DataStoreWrite: '<S77>/Data Store Write4' */
1521:HANcoder_E407_TTA_CombineModel.c ****     rtDWork.potentiometer1Raw = analogPot1;
1522:HANcoder_E407_TTA_CombineModel.c **** 
1523:HANcoder_E407_TTA_CombineModel.c ****     /* M-S-Function: '<S83>/Level-2 M-file S-Function' */
1524:HANcoder_E407_TTA_CombineModel.c ****     /* read from analog input for filtered inputs*/
1525:HANcoder_E407_TTA_CombineModel.c ****     analogPot2 = AninGet(ANIN_PORTF_PIN8,0);
1526:HANcoder_E407_TTA_CombineModel.c **** 
1527:HANcoder_E407_TTA_CombineModel.c ****     /* DataTypeConversion: '<S77>/Cast3' */
1528:HANcoder_E407_TTA_CombineModel.c ****     rtb_Cast3 = analogPot2;
1529:HANcoder_E407_TTA_CombineModel.c ****     MovingAverage(rtb_Cast3, &rtB.MovingAverage1, &rtDWork.MovingAverage1);
1530:HANcoder_E407_TTA_CombineModel.c **** 
1531:HANcoder_E407_TTA_CombineModel.c ****     /* DataTypeConversion: '<S77>/Cast2' */
1532:HANcoder_E407_TTA_CombineModel.c ****     pot2 = (uint16_T)rtB.MovingAverage1.MovingAverage_n;
1533:HANcoder_E407_TTA_CombineModel.c **** 
1534:HANcoder_E407_TTA_CombineModel.c ****     /* DataStoreWrite: '<S77>/Data Store Write3' */
1535:HANcoder_E407_TTA_CombineModel.c ****     rtDWork.potentiometer2 = pot2;
1536:HANcoder_E407_TTA_CombineModel.c **** 
1537:HANcoder_E407_TTA_CombineModel.c ****     /* M-S-Function: '<S80>/Level-2 M-file S-Function' */
1538:HANcoder_E407_TTA_CombineModel.c ****     /* read from digital input */
1539:HANcoder_E407_TTA_CombineModel.c ****     rtb_Equal17 = DiginGet(DIGIN_PORTA_PIN0);
1540:HANcoder_E407_TTA_CombineModel.c **** 
1541:HANcoder_E407_TTA_CombineModel.c ****     /* DataTypeConversion: '<S77>/Cast4' incorporates:
1542:HANcoder_E407_TTA_CombineModel.c ****      *  DataStoreWrite: '<S77>/Data Store Write6'
1543:HANcoder_E407_TTA_CombineModel.c ****      */
1544:HANcoder_E407_TTA_CombineModel.c ****     rtDWork.buttonPress = rtb_Equal17;
1545:HANcoder_E407_TTA_CombineModel.c **** 
1546:HANcoder_E407_TTA_CombineModel.c ****     /* DataStoreWrite: '<S77>/Data Store Write5' */
1547:HANcoder_E407_TTA_CombineModel.c ****     rtDWork.ioInitialized = ioInit;
1548:HANcoder_E407_TTA_CombineModel.c **** 
1549:HANcoder_E407_TTA_CombineModel.c ****     /* Gain: '<S77>/Gain' incorporates:
1550:HANcoder_E407_TTA_CombineModel.c ****      *  Constant: '<S77>/Constant2'
1551:HANcoder_E407_TTA_CombineModel.c ****      *  DataStoreWrite: '<S77>/Data Store Write2'
1552:HANcoder_E407_TTA_CombineModel.c ****      */
1553:HANcoder_E407_TTA_CombineModel.c ****     rtDWork.requestedAngle = 0.015001500150015003 * desiredAngle;
1554:HANcoder_E407_TTA_CombineModel.c **** 
1555:HANcoder_E407_TTA_CombineModel.c ****     /* M-S-Function: '<S81>/Level-2 M-file S-Function' */
1556:HANcoder_E407_TTA_CombineModel.c ****     /* determine if the counter needs a reset  */
1557:HANcoder_E407_TTA_CombineModel.c ****     if (rtB.DataTypeConversion > 0) {
1558:HANcoder_E407_TTA_CombineModel.c ****       QuadEncResetCounter(QUADENC_TIM3_PA6_PB5);
1559:HANcoder_E407_TTA_CombineModel.c ****     }
1560:HANcoder_E407_TTA_CombineModel.c **** 
1561:HANcoder_E407_TTA_CombineModel.c ****     /* read counter from the quadrature encoder module */
1562:HANcoder_E407_TTA_CombineModel.c ****     motorPos = QuadEncGetCounter(QUADENC_TIM3_PA6_PB5);
1563:HANcoder_E407_TTA_CombineModel.c **** 
1564:HANcoder_E407_TTA_CombineModel.c ****     /* DataStoreWrite: '<S77>/Data Store Write' */
1565:HANcoder_E407_TTA_CombineModel.c ****     rtDWork.encoderPosition = motorPos;
1566:HANcoder_E407_TTA_CombineModel.c **** 
1567:HANcoder_E407_TTA_CombineModel.c ****     /* DataTypeConversion: '<S81>/Data Type Conversion' incorporates:
1568:HANcoder_E407_TTA_CombineModel.c ****      *  RelationalOperator: '<S84>/FixPt Relational Operator'
1569:HANcoder_E407_TTA_CombineModel.c ****      *  UnitDelay: '<S84>/Delay Input1'
1570:HANcoder_E407_TTA_CombineModel.c ****      *
1571:HANcoder_E407_TTA_CombineModel.c ****      * Block description for '<S84>/Delay Input1':
1572:HANcoder_E407_TTA_CombineModel.c ****      *
1573:HANcoder_E407_TTA_CombineModel.c ****      *  Store in Global RAM
1574:HANcoder_E407_TTA_CombineModel.c ****      */
1575:HANcoder_E407_TTA_CombineModel.c ****     rtB.DataTypeConversion = (rtDWork.DelayInput1_DSTATE < 0.0);
1576:HANcoder_E407_TTA_CombineModel.c **** 
1577:HANcoder_E407_TTA_CombineModel.c ****     /* Switch: '<S78>/Switch' incorporates:
1578:HANcoder_E407_TTA_CombineModel.c ****      *  Switch: '<S78>/Switch1'
1579:HANcoder_E407_TTA_CombineModel.c ****      *  Switch: '<S78>/Switch2'
1580:HANcoder_E407_TTA_CombineModel.c ****      */
1581:HANcoder_E407_TTA_CombineModel.c ****     if (canActive) {
1582:HANcoder_E407_TTA_CombineModel.c ****       /* Switch: '<S78>/Switch' incorporates:
1583:HANcoder_E407_TTA_CombineModel.c ****        *  DataStoreRead: '<S7>/Data Store Read'
1584:HANcoder_E407_TTA_CombineModel.c ****        */
1585:HANcoder_E407_TTA_CombineModel.c ****       rtB.Switch = rtDWork.pwmMotor;
1586:HANcoder_E407_TTA_CombineModel.c **** 
1587:HANcoder_E407_TTA_CombineModel.c ****       /* Switch: '<S78>/Switch1' incorporates:
1588:HANcoder_E407_TTA_CombineModel.c ****        *  DataStoreRead: '<S7>/Data Store Read1'
1589:HANcoder_E407_TTA_CombineModel.c ****        */
1590:HANcoder_E407_TTA_CombineModel.c ****       rtB.Switch1 = rtDWork.cwMotor;
1591:HANcoder_E407_TTA_CombineModel.c **** 
1592:HANcoder_E407_TTA_CombineModel.c ****       /* Switch: '<S78>/Switch2' incorporates:
1593:HANcoder_E407_TTA_CombineModel.c ****        *  DataStoreRead: '<S7>/Data Store Read3'
1594:HANcoder_E407_TTA_CombineModel.c ****        */
1595:HANcoder_E407_TTA_CombineModel.c ****       rtB.Switch2 = rtDWork.ccwMotor;
1596:HANcoder_E407_TTA_CombineModel.c ****     } else {
1597:HANcoder_E407_TTA_CombineModel.c ****       /* Switch: '<S78>/Switch' */
1598:HANcoder_E407_TTA_CombineModel.c ****       rtB.Switch = rtConstB.Cast;
1599:HANcoder_E407_TTA_CombineModel.c **** 
1600:HANcoder_E407_TTA_CombineModel.c ****       /* Switch: '<S78>/Switch1' */
1601:HANcoder_E407_TTA_CombineModel.c ****       rtB.Switch1 = rtConstB.Cast1;
1602:HANcoder_E407_TTA_CombineModel.c **** 
1603:HANcoder_E407_TTA_CombineModel.c ****       /* Switch: '<S78>/Switch2' */
1604:HANcoder_E407_TTA_CombineModel.c ****       rtB.Switch2 = rtConstB.Cast2_pq;
1605:HANcoder_E407_TTA_CombineModel.c ****     }
1606:HANcoder_E407_TTA_CombineModel.c **** 
1607:HANcoder_E407_TTA_CombineModel.c ****     /* End of Switch: '<S78>/Switch' */
1608:HANcoder_E407_TTA_CombineModel.c ****     /* Logic: '<S78>/NOT' incorporates:
1609:HANcoder_E407_TTA_CombineModel.c ****      *  Constant: '<S78>/Constant'
1610:HANcoder_E407_TTA_CombineModel.c ****      *  Constant: '<S78>/Constant2'
1611:HANcoder_E407_TTA_CombineModel.c ****      *  DataStoreRead: '<S1>/Data Store Read1'
1612:HANcoder_E407_TTA_CombineModel.c ****      *  DataStoreRead: '<S78>/Data Store Read'
1613:HANcoder_E407_TTA_CombineModel.c ****      *  Logic: '<S78>/AND'
1614:HANcoder_E407_TTA_CombineModel.c ****      *  Logic: '<S78>/OR'
1615:HANcoder_E407_TTA_CombineModel.c ****      *  RelationalOperator: '<S78>/NotEqual'
1616:HANcoder_E407_TTA_CombineModel.c ****      *  RelationalOperator: '<S78>/NotEqual1'
1617:HANcoder_E407_TTA_CombineModel.c ****      */
1618:HANcoder_E407_TTA_CombineModel.c ****     rtB.NOT = ((rtDWork.Board_ID != ((uint8_T)1U)) && ((!rtDWork.node1CanFailed)
1619:HANcoder_E407_TTA_CombineModel.c ****                 || (rtDWork.Board_ID != ((uint8_T)2U))));
1620:HANcoder_E407_TTA_CombineModel.c **** 
1621:HANcoder_E407_TTA_CombineModel.c ****     /* Update for Delay: '<S79>/Delay' */
1622:HANcoder_E407_TTA_CombineModel.c ****     rtDWork.Delay_DSTATE[0] = rtDWork.Delay_DSTATE[1];
1623:HANcoder_E407_TTA_CombineModel.c ****     rtDWork.Delay_DSTATE[1] = rtb_AND_n;
1624:HANcoder_E407_TTA_CombineModel.c **** 
1625:HANcoder_E407_TTA_CombineModel.c ****     /* Update for Delay: '<S79>/Delay1' */
1626:HANcoder_E407_TTA_CombineModel.c ****     for (idxDelay = 0; idxDelay < 8; idxDelay++) {
1627:HANcoder_E407_TTA_CombineModel.c ****       rtDWork.Delay1_DSTATE[idxDelay] = rtDWork.Delay1_DSTATE[idxDelay + 1];
1628:HANcoder_E407_TTA_CombineModel.c ****     }
1629:HANcoder_E407_TTA_CombineModel.c **** 
1630:HANcoder_E407_TTA_CombineModel.c ****     rtDWork.Delay1_DSTATE[8] = rtb_AND_n;
1631:HANcoder_E407_TTA_CombineModel.c **** 
1632:HANcoder_E407_TTA_CombineModel.c ****     /* End of Update for Delay: '<S79>/Delay1' */
1633:HANcoder_E407_TTA_CombineModel.c **** 
1634:HANcoder_E407_TTA_CombineModel.c ****     /* Update for Delay: '<S79>/Delay2' */
1635:HANcoder_E407_TTA_CombineModel.c ****     for (idxDelay = 0; idxDelay < 15; idxDelay++) {
1636:HANcoder_E407_TTA_CombineModel.c ****       rtDWork.Delay2_DSTATE[idxDelay] = rtDWork.Delay2_DSTATE[idxDelay + 1];
1637:HANcoder_E407_TTA_CombineModel.c ****     }
1638:HANcoder_E407_TTA_CombineModel.c **** 
1639:HANcoder_E407_TTA_CombineModel.c ****     rtDWork.Delay2_DSTATE[15] = rtb_AND_n;
1640:HANcoder_E407_TTA_CombineModel.c **** 
1641:HANcoder_E407_TTA_CombineModel.c ****     /* End of Update for Delay: '<S79>/Delay2' */
1642:HANcoder_E407_TTA_CombineModel.c **** 
1643:HANcoder_E407_TTA_CombineModel.c ****     /* Update for Delay: '<S79>/Delay4' */
1644:HANcoder_E407_TTA_CombineModel.c ****     for (idxDelay = 0; idxDelay < 24; idxDelay++) {
1645:HANcoder_E407_TTA_CombineModel.c ****       rtDWork.Delay4_DSTATE[idxDelay] = rtDWork.Delay4_DSTATE[idxDelay + 1];
1646:HANcoder_E407_TTA_CombineModel.c ****     }
1647:HANcoder_E407_TTA_CombineModel.c **** 
1648:HANcoder_E407_TTA_CombineModel.c ****     rtDWork.Delay4_DSTATE[24] = rtb_AND_n;
1649:HANcoder_E407_TTA_CombineModel.c **** 
1650:HANcoder_E407_TTA_CombineModel.c ****     /* End of Update for Delay: '<S79>/Delay4' */
1651:HANcoder_E407_TTA_CombineModel.c **** 
1652:HANcoder_E407_TTA_CombineModel.c ****     /* Update for Delay: '<S79>/Delay3' */
1653:HANcoder_E407_TTA_CombineModel.c ****     for (idxDelay = 0; idxDelay < 34; idxDelay++) {
1654:HANcoder_E407_TTA_CombineModel.c ****       rtDWork.Delay3_DSTATE[idxDelay] = rtDWork.Delay3_DSTATE[idxDelay + 1];
1655:HANcoder_E407_TTA_CombineModel.c ****     }
1656:HANcoder_E407_TTA_CombineModel.c **** 
1657:HANcoder_E407_TTA_CombineModel.c ****     rtDWork.Delay3_DSTATE[34] = rtb_AND_n;
1658:HANcoder_E407_TTA_CombineModel.c **** 
1659:HANcoder_E407_TTA_CombineModel.c ****     /* End of Update for Delay: '<S79>/Delay3' */
1660:HANcoder_E407_TTA_CombineModel.c **** 
1661:HANcoder_E407_TTA_CombineModel.c ****     /* Update for Memory: '<S91>/Memory' */
1662:HANcoder_E407_TTA_CombineModel.c ****     rtDWork.Memory_PreviousInput_d1 = rtb_Logic_c_idx_0;
1663:HANcoder_E407_TTA_CombineModel.c **** 
1664:HANcoder_E407_TTA_CombineModel.c ****     /* Update for Delay: '<S79>/Delay6' */
1665:HANcoder_E407_TTA_CombineModel.c ****     for (idxDelay = 0; idxDelay < 9; idxDelay++) {
1666:HANcoder_E407_TTA_CombineModel.c ****       rtDWork.Delay6_DSTATE[idxDelay] = rtDWork.Delay6_DSTATE[idxDelay + 1];
1667:HANcoder_E407_TTA_CombineModel.c ****     }
1668:HANcoder_E407_TTA_CombineModel.c **** 
1669:HANcoder_E407_TTA_CombineModel.c ****     rtDWork.Delay6_DSTATE[9] = rtb_DataStoreRead11;
1670:HANcoder_E407_TTA_CombineModel.c **** 
1671:HANcoder_E407_TTA_CombineModel.c ****     /* End of Update for Delay: '<S79>/Delay6' */
1672:HANcoder_E407_TTA_CombineModel.c **** 
1673:HANcoder_E407_TTA_CombineModel.c ****     /* Update for Memory: '<S92>/Memory' */
1674:HANcoder_E407_TTA_CombineModel.c ****     rtDWork.Memory_PreviousInput_a = rtb_Logic_f_idx_0;
1675:HANcoder_E407_TTA_CombineModel.c **** 
1676:HANcoder_E407_TTA_CombineModel.c ****     /* Update for Delay: '<S79>/Delay5' */
1677:HANcoder_E407_TTA_CombineModel.c ****     for (idxDelay = 0; idxDelay < 6; idxDelay++) {
1678:HANcoder_E407_TTA_CombineModel.c ****       rtDWork.Delay5_DSTATE[idxDelay] = rtDWork.Delay5_DSTATE[idxDelay + 1];
1679:HANcoder_E407_TTA_CombineModel.c ****     }
1680:HANcoder_E407_TTA_CombineModel.c **** 
1681:HANcoder_E407_TTA_CombineModel.c ****     rtDWork.Delay5_DSTATE[6] = i;
1682:HANcoder_E407_TTA_CombineModel.c **** 
1683:HANcoder_E407_TTA_CombineModel.c ****     /* End of Update for Delay: '<S79>/Delay5' */
1684:HANcoder_E407_TTA_CombineModel.c **** 
1685:HANcoder_E407_TTA_CombineModel.c ****     /* Update for Delay: '<S79>/Delay7' */
1686:HANcoder_E407_TTA_CombineModel.c ****     rtDWork.Delay7_DSTATE[0] = rtDWork.Delay7_DSTATE[1];
1687:HANcoder_E407_TTA_CombineModel.c ****     rtDWork.Delay7_DSTATE[1] = rtb_DataStoreRead8;
1688:HANcoder_E407_TTA_CombineModel.c **** 
1689:HANcoder_E407_TTA_CombineModel.c ****     /* Update for UnitDelay: '<S90>/UD'
1690:HANcoder_E407_TTA_CombineModel.c ****      *
1691:HANcoder_E407_TTA_CombineModel.c ****      * Block description for '<S90>/UD':
1692:HANcoder_E407_TTA_CombineModel.c ****      *
1693:HANcoder_E407_TTA_CombineModel.c ****      *  Store in Global RAM
1694:HANcoder_E407_TTA_CombineModel.c ****      */
1695:HANcoder_E407_TTA_CombineModel.c ****     rtDWork.UD_DSTATE = rtb_TSamp;
1696:HANcoder_E407_TTA_CombineModel.c **** 
1697:HANcoder_E407_TTA_CombineModel.c ****     /* Update for UnitDelay: '<S84>/Delay Input1'
1698:HANcoder_E407_TTA_CombineModel.c ****      *
1699:HANcoder_E407_TTA_CombineModel.c ****      * Block description for '<S84>/Delay Input1':
1700:HANcoder_E407_TTA_CombineModel.c ****      *
1701:HANcoder_E407_TTA_CombineModel.c ****      *  Store in Global RAM
1702:HANcoder_E407_TTA_CombineModel.c ****      */
1703:HANcoder_E407_TTA_CombineModel.c ****     rtDWork.DelayInput1_DSTATE = 0.0;
1704:HANcoder_E407_TTA_CombineModel.c **** 
1705:HANcoder_E407_TTA_CombineModel.c ****     /* Update for M-S-Function: '<S85>/Level-2 M-file S-Function' */
1706:HANcoder_E407_TTA_CombineModel.c ****     /* update digital output */
1707:HANcoder_E407_TTA_CombineModel.c ****     if (rtB.Switch1 == 0) {
1708:HANcoder_E407_TTA_CombineModel.c ****       DigoutSet(DIGOUT_PORTE_PIN5, DIGOUT_LOW);
1709:HANcoder_E407_TTA_CombineModel.c ****     } else {
1710:HANcoder_E407_TTA_CombineModel.c ****       DigoutSet(DIGOUT_PORTE_PIN5, DIGOUT_HIGH);
1711:HANcoder_E407_TTA_CombineModel.c ****     }
1712:HANcoder_E407_TTA_CombineModel.c **** 
1713:HANcoder_E407_TTA_CombineModel.c ****     /* Update for M-S-Function: '<S86>/Level-2 M-file S-Function' */
1714:HANcoder_E407_TTA_CombineModel.c ****     /* update digital output */
1715:HANcoder_E407_TTA_CombineModel.c ****     if (rtB.Switch2 == 0) {
1716:HANcoder_E407_TTA_CombineModel.c ****       DigoutSet(DIGOUT_PORTE_PIN6, DIGOUT_LOW);
1717:HANcoder_E407_TTA_CombineModel.c ****     } else {
1718:HANcoder_E407_TTA_CombineModel.c ****       DigoutSet(DIGOUT_PORTE_PIN6, DIGOUT_HIGH);
1719:HANcoder_E407_TTA_CombineModel.c ****     }
1720:HANcoder_E407_TTA_CombineModel.c **** 
1721:HANcoder_E407_TTA_CombineModel.c ****     /* Update for M-S-Function: '<S88>/Level-2 M-file S-Function' */
1722:HANcoder_E407_TTA_CombineModel.c ****     /* set the new duty cycle */
1723:HANcoder_E407_TTA_CombineModel.c ****     PwmoutSet(PWMOUT_TIM14_PIN_PF9, rtB.Switch);
1724:HANcoder_E407_TTA_CombineModel.c **** 
1725:HANcoder_E407_TTA_CombineModel.c ****     /* Update for M-S-Function: '<S87>/Level-2 M-file S-Function' */
1726:HANcoder_E407_TTA_CombineModel.c ****     /* update digital output */
1727:HANcoder_E407_TTA_CombineModel.c ****     if (rtB.NOT == 0) {
1728:HANcoder_E407_TTA_CombineModel.c ****       DigoutSet(DIGOUT_PORTC_PIN13, DIGOUT_LOW);
1729:HANcoder_E407_TTA_CombineModel.c ****     } else {
1730:HANcoder_E407_TTA_CombineModel.c ****       DigoutSet(DIGOUT_PORTC_PIN13, DIGOUT_HIGH);
1731:HANcoder_E407_TTA_CombineModel.c ****     }
1732:HANcoder_E407_TTA_CombineModel.c ****   }
1733:HANcoder_E407_TTA_CombineModel.c **** 
1734:HANcoder_E407_TTA_CombineModel.c ****   /* Outputs for Triggered SubSystem: '<S1>/Control execution' incorporates:
1735:HANcoder_E407_TTA_CombineModel.c ****    *  TriggerPort: '<S5>/Trigger'
1736:HANcoder_E407_TTA_CombineModel.c ****    */
1737:HANcoder_E407_TTA_CombineModel.c ****   rtPrevZCSigState.IOexecution_Trig_ZCE = rtb_OR1;
 1648              		.loc 1 1737 3 view .LVU563
 1649 00a4 AD4E     		ldr	r6, .L454+16
 1650              		.loc 1 1737 41 is_stmt 0 view .LVU564
 1651 00a6 8BF80B30 		strb	r3, [fp, #11]
1738:HANcoder_E407_TTA_CombineModel.c **** 
1739:HANcoder_E407_TTA_CombineModel.c ****   /* End of Outputs for SubSystem: '<S1>/Control execution' */
1740:HANcoder_E407_TTA_CombineModel.c ****   /* End of Outputs for SubSystem: '<S1>/IO execution' */
1741:HANcoder_E407_TTA_CombineModel.c **** 
1742:HANcoder_E407_TTA_CombineModel.c ****   /* Outputs for Enabled SubSystem: '<S1>/Message selector' incorporates:
1743:HANcoder_E407_TTA_CombineModel.c ****    *  EnablePort: '<S10>/Enable'
1744:HANcoder_E407_TTA_CombineModel.c ****    *
1745:HANcoder_E407_TTA_CombineModel.c ****    * Block description for '<S1>/Message selector':
1746:HANcoder_E407_TTA_CombineModel.c ****    *  Truck 1
1747:HANcoder_E407_TTA_CombineModel.c ****    */
1748:HANcoder_E407_TTA_CombineModel.c ****   if (canActive) {
 1652              		.loc 1 1748 3 is_stmt 1 view .LVU565
 1653              		.loc 1 1748 6 is_stmt 0 view .LVU566
 1654 00aa 3378     		ldrb	r3, [r6]	@ zero_extendqisi2
 1655 00ac DFF8D492 		ldr	r9, .L454+56
 1656 00b0 002B     		cmp	r3, #0
 1657 00b2 00F05886 		beq	.L148
 1658              	.L441:
1749:HANcoder_E407_TTA_CombineModel.c ****     rtDWork.Messageselector_MODE = true;
 1659              		.loc 1 1749 5 is_stmt 1 view .LVU567
1750:HANcoder_E407_TTA_CombineModel.c **** 
1751:HANcoder_E407_TTA_CombineModel.c ****     /* RelationalOperator: '<S10>/Equal1' incorporates:
1752:HANcoder_E407_TTA_CombineModel.c ****      *  Constant: '<S10>/Constant1'
1753:HANcoder_E407_TTA_CombineModel.c ****      */
1754:HANcoder_E407_TTA_CombineModel.c ****     rtb_OR1 = (slotSelected == 2.0);
1755:HANcoder_E407_TTA_CombineModel.c **** 
1756:HANcoder_E407_TTA_CombineModel.c ****     /* Logic: '<S97>/AND16' incorporates:
1757:HANcoder_E407_TTA_CombineModel.c ****      *  Constant: '<S97>/Constant4'
1758:HANcoder_E407_TTA_CombineModel.c ****      *  DataStoreRead: '<S1>/Data Store Read1'
1759:HANcoder_E407_TTA_CombineModel.c ****      *  DataStoreRead: '<S97>/Data Store Read'
1760:HANcoder_E407_TTA_CombineModel.c ****      *  RelationalOperator: '<S97>/Equal4'
1761:HANcoder_E407_TTA_CombineModel.c ****      */
1762:HANcoder_E407_TTA_CombineModel.c ****     rtb_AND_n = ((rtDWork.Board_ID == 2.0) && rtDWork.node1CanFailed);
 1660              		.loc 1 1762 36 is_stmt 0 view .LVU568
 1661 00b6 07EE90AA 		vmov	s15, r10	@ int
1754:HANcoder_E407_TTA_CombineModel.c **** 
 1662              		.loc 1 1754 29 view .LVU569
 1663 00ba A74B     		ldr	r3, .L454+12
 1664              		.loc 1 1762 36 view .LVU570
 1665 00bc F8EEE77A 		vcvt.f32.s32	s15, s15
1754:HANcoder_E407_TTA_CombineModel.c **** 
 1666              		.loc 1 1754 29 view .LVU571
 1667 00c0 1B78     		ldrb	r3, [r3]	@ zero_extendqisi2
 1668              		.loc 1 1762 44 view .LVU572
 1669 00c2 F0EE006A 		vmov.f32	s13, #2.0e+0
1754:HANcoder_E407_TTA_CombineModel.c **** 
 1670              		.loc 1 1754 29 view .LVU573
 1671 00c6 07EE103A 		vmov	s14, r3	@ int
 1672              		.loc 1 1762 44 view .LVU574
 1673 00ca F4EE667A 		vcmp.f32	s15, s13
1749:HANcoder_E407_TTA_CombineModel.c ****     rtDWork.Messageselector_MODE = true;
 1674              		.loc 1 1749 34 view .LVU575
 1675 00ce 0126     		movs	r6, #1
 1676              		.loc 1 1762 44 view .LVU576
 1677 00d0 F1EE10FA 		vmrs	APSR_nzcv, FPSCR
1754:HANcoder_E407_TTA_CombineModel.c **** 
 1678              		.loc 1 1754 29 view .LVU577
 1679 00d4 B8EEC77A 		vcvt.f32.s32	s14, s14
1749:HANcoder_E407_TTA_CombineModel.c ****     rtDWork.Messageselector_MODE = true;
 1680              		.loc 1 1749 34 view .LVU578
 1681 00d8 84F85E61 		strb	r6, [r4, #350]
1754:HANcoder_E407_TTA_CombineModel.c **** 
 1682              		.loc 1 1754 5 is_stmt 1 view .LVU579
 1683              	.LVL101:
 1684              		.loc 1 1762 5 view .LVU580
 1685              		.loc 1 1762 44 is_stmt 0 view .LVU581
 1686 00dc 00F03087 		beq	.L417
 1687              	.LVL102:
1763:HANcoder_E407_TTA_CombineModel.c **** 
1764:HANcoder_E407_TTA_CombineModel.c ****     /* Logic: '<S10>/OR' incorporates:
1765:HANcoder_E407_TTA_CombineModel.c ****      *  Constant: '<S10>/Constant13'
1766:HANcoder_E407_TTA_CombineModel.c ****      *  DataStoreRead: '<S1>/Data Store Read1'
1767:HANcoder_E407_TTA_CombineModel.c ****      *  RelationalOperator: '<S10>/Equal11'
1768:HANcoder_E407_TTA_CombineModel.c ****      */
1769:HANcoder_E407_TTA_CombineModel.c ****     rtb_DataStoreRead11 = ((rtDWork.Board_ID == 1.0) || rtb_AND_n);
 1688              		.loc 1 1769 5 is_stmt 1 discriminator 6 view .LVU582
 1689              		.loc 1 1769 54 is_stmt 0 discriminator 6 view .LVU583
 1690 00e0 B7EE006A 		vmov.f32	s12, #1.0e+0
 1691 00e4 F4EE467A 		vcmp.f32	s15, s12
 1692 00e8 F1EE10FA 		vmrs	APSR_nzcv, FPSCR
 1693 00ec 41F04D81 		bne	.L150
 1694              	.LVL103:
1770:HANcoder_E407_TTA_CombineModel.c **** 
1771:HANcoder_E407_TTA_CombineModel.c ****     /* Logic: '<S10>/AND3' incorporates:
1772:HANcoder_E407_TTA_CombineModel.c ****      *  Logic: '<S10>/NOT1'
1773:HANcoder_E407_TTA_CombineModel.c ****      */
1774:HANcoder_E407_TTA_CombineModel.c ****     rtb_AND3 = (rtb_OR1 && (!rtb_DataStoreRead11));
1775:HANcoder_E407_TTA_CombineModel.c **** 
1776:HANcoder_E407_TTA_CombineModel.c ****     /* Outputs for Enabled SubSystem: '<S10>/MMBS1_RX' incorporates:
1777:HANcoder_E407_TTA_CombineModel.c ****      *  EnablePort: '<S98>/Enable'
1778:HANcoder_E407_TTA_CombineModel.c ****      */
1779:HANcoder_E407_TTA_CombineModel.c ****     if (rtb_AND3) {
 1695              		.loc 1 1779 5 is_stmt 1 view .LVU584
1780:HANcoder_E407_TTA_CombineModel.c ****       rtDWork.MMBS1_RX_MODE = true;
1781:HANcoder_E407_TTA_CombineModel.c **** 
1782:HANcoder_E407_TTA_CombineModel.c ****       /* Logic: '<S98>/NOT' incorporates:
1783:HANcoder_E407_TTA_CombineModel.c ****        *  Constant: '<S98>/Constant'
1784:HANcoder_E407_TTA_CombineModel.c ****        *  DataStoreRead: '<S98>/Data Store Read'
1785:HANcoder_E407_TTA_CombineModel.c ****        *  RelationalOperator: '<S98>/Equal'
1786:HANcoder_E407_TTA_CombineModel.c ****        */
1787:HANcoder_E407_TTA_CombineModel.c ****       masterCanFail = (rtDWork.receiveSync != true);
1788:HANcoder_E407_TTA_CombineModel.c **** 
1789:HANcoder_E407_TTA_CombineModel.c ****       /* DataStoreWrite: '<S98>/Data Store Write' */
1790:HANcoder_E407_TTA_CombineModel.c ****       rtDWork.node1CanFailed = masterCanFail;
1791:HANcoder_E407_TTA_CombineModel.c **** 
1792:HANcoder_E407_TTA_CombineModel.c ****       /* M-S-Function: '<S114>/S-Function' incorporates:
1793:HANcoder_E407_TTA_CombineModel.c ****        *  Constant: '<S10>/Constant12'
1794:HANcoder_E407_TTA_CombineModel.c ****        */
1795:HANcoder_E407_TTA_CombineModel.c **** 
1796:HANcoder_E407_TTA_CombineModel.c ****       /* read the message data and store the new parameter */
1797:HANcoder_E407_TTA_CombineModel.c ****       rtb_SFunction_o1_g = CanIoGetMessage(0, MMBS1_ID, NULL,
1798:HANcoder_E407_TTA_CombineModel.c ****         &canRxData_0_MMBS1_ID.uint8_T_info[0], NULL);
1799:HANcoder_E407_TTA_CombineModel.c **** 
1800:HANcoder_E407_TTA_CombineModel.c ****       /* process the message data */
1801:HANcoder_E407_TTA_CombineModel.c ****       if (rtb_SFunction_o1_g > 0) {
1802:HANcoder_E407_TTA_CombineModel.c ****         /* read the data */
1803:HANcoder_E407_TTA_CombineModel.c ****         rtb_SFunction_o2_n2 = canRxData_0_MMBS1_ID.uint8_T_info[0];
1804:HANcoder_E407_TTA_CombineModel.c ****         rtb_SFunction_o3_b = canRxData_0_MMBS1_ID.uint8_T_info[1];
1805:HANcoder_E407_TTA_CombineModel.c ****         rtb_SFunction_o4_l = canRxData_0_MMBS1_ID.uint8_T_info[2];
1806:HANcoder_E407_TTA_CombineModel.c ****         rtb_SFunction_o5_e = canRxData_0_MMBS1_ID.uint8_T_info[3];
1807:HANcoder_E407_TTA_CombineModel.c ****         rtb_SFunction_o6_k1 = canRxData_0_MMBS1_ID.uint8_T_info[4];
1808:HANcoder_E407_TTA_CombineModel.c ****         rtb_SFunction_o7_dj = canRxData_0_MMBS1_ID.uint8_T_info[5];
1809:HANcoder_E407_TTA_CombineModel.c ****         rtb_SFunction_o8_n1 = canRxData_0_MMBS1_ID.uint8_T_info[6];
1810:HANcoder_E407_TTA_CombineModel.c ****         rtb_SFunction_o9_ok = canRxData_0_MMBS1_ID.uint8_T_info[7];
1811:HANcoder_E407_TTA_CombineModel.c ****       }
1812:HANcoder_E407_TTA_CombineModel.c **** 
1813:HANcoder_E407_TTA_CombineModel.c ****       /* Outputs for Enabled SubSystem: '<S114>/Enabled Subsystem' */
1814:HANcoder_E407_TTA_CombineModel.c ****       EnabledSubsystem(rtb_SFunction_o1_g, rtb_SFunction_o2_n2,
1815:HANcoder_E407_TTA_CombineModel.c ****                        rtb_SFunction_o3_b, rtb_SFunction_o4_l,
1816:HANcoder_E407_TTA_CombineModel.c ****                        rtb_SFunction_o5_e, rtb_SFunction_o6_k1,
1817:HANcoder_E407_TTA_CombineModel.c ****                        rtb_SFunction_o7_dj, rtb_SFunction_o8_n1,
1818:HANcoder_E407_TTA_CombineModel.c ****                        rtb_SFunction_o9_ok, &rtB.EnabledSubsystem_k);
1819:HANcoder_E407_TTA_CombineModel.c **** 
1820:HANcoder_E407_TTA_CombineModel.c ****       /* End of Outputs for SubSystem: '<S114>/Enabled Subsystem' */
1821:HANcoder_E407_TTA_CombineModel.c ****     } else if (rtDWork.MMBS1_RX_MODE) {
 1696              		.loc 1 1821 12 view .LVU585
 1697              		.loc 1 1821 23 is_stmt 0 view .LVU586
 1698 00f0 94F86661 		ldrb	r6, [r4, #358]	@ zero_extendqisi2
 1699              		.loc 1 1821 15 view .LVU587
 1700 00f4 16B1     		cbz	r6, .L412
1822:HANcoder_E407_TTA_CombineModel.c ****       rtDWork.MMBS1_RX_MODE = false;
 1701              		.loc 1 1822 7 is_stmt 1 view .LVU588
 1702              		.loc 1 1822 29 is_stmt 0 view .LVU589
 1703 00f6 0026     		movs	r6, #0
 1704 00f8 84F86661 		strb	r6, [r4, #358]
 1705              	.L412:
1823:HANcoder_E407_TTA_CombineModel.c ****     }
1824:HANcoder_E407_TTA_CombineModel.c **** 
1825:HANcoder_E407_TTA_CombineModel.c ****     /* End of Outputs for SubSystem: '<S10>/MMBS1_RX' */
1826:HANcoder_E407_TTA_CombineModel.c **** 
1827:HANcoder_E407_TTA_CombineModel.c ****     /* Logic: '<S10>/AND2' */
1828:HANcoder_E407_TTA_CombineModel.c ****     rtb_AND2 = (rtb_OR1 && rtb_DataStoreRead11);
 1706              		.loc 1 1828 5 is_stmt 1 view .LVU590
 1707              		.loc 1 1828 25 is_stmt 0 view .LVU591
 1708 00fc B4EE667A 		vcmp.f32	s14, s13
 1709 0100 F1EE10FA 		vmrs	APSR_nzcv, FPSCR
 1710 0104 40F03E87 		bne	.L418
 1711              	.LVL104:
 1712              	.L157:
1829:HANcoder_E407_TTA_CombineModel.c **** 
1830:HANcoder_E407_TTA_CombineModel.c ****     /* Outputs for Triggered SubSystem: '<S10>/MMBS1_TX' */
1831:HANcoder_E407_TTA_CombineModel.c ****     /* Constant: '<S10>/Constant12' */
1832:HANcoder_E407_TTA_CombineModel.c ****     MMBS1_TX(rtb_AND2, MMBS1_ID, &rtPrevZCSigState.MMBS1_TX_a);
 1713              		.loc 1 1832 5 is_stmt 1 view .LVU592
 1714              	.LBB443:
 1715              	.LBI443:
 490:HANcoder_E407_TTA_CombineModel.c **** {
 1716              		.loc 1 490 6 view .LVU593
 1717              	.LBB444:
 495:HANcoder_E407_TTA_CombineModel.c ****     /* Update for M-S-Function: '<S116>/S-Function' */
 1718              		.loc 1 495 3 view .LVU594
 495:HANcoder_E407_TTA_CombineModel.c ****     /* Update for M-S-Function: '<S116>/S-Function' */
 1719              		.loc 1 495 31 is_stmt 0 view .LVU595
 1720 0108 9BF80A20 		ldrb	r2, [fp, #10]	@ zero_extendqisi2
 495:HANcoder_E407_TTA_CombineModel.c ****     /* Update for M-S-Function: '<S116>/S-Function' */
 1721              		.loc 1 495 19 view .LVU596
 1722 010c 012A     		cmp	r2, #1
 1723 010e 41F02283 		bne	.L419
 1724              	.LVL105:
 1725              	.L256:
 506:HANcoder_E407_TTA_CombineModel.c **** 
 1726              		.loc 1 506 3 is_stmt 1 view .LVU597
 1727              	.LBE444:
 1728              	.LBE443:
1833:HANcoder_E407_TTA_CombineModel.c **** 
1834:HANcoder_E407_TTA_CombineModel.c ****     /* End of Outputs for SubSystem: '<S10>/MMBS1_TX' */
1835:HANcoder_E407_TTA_CombineModel.c **** 
1836:HANcoder_E407_TTA_CombineModel.c ****     /* RelationalOperator: '<S10>/Equal2' incorporates:
1837:HANcoder_E407_TTA_CombineModel.c ****      *  Constant: '<S10>/Constant2'
1838:HANcoder_E407_TTA_CombineModel.c ****      */
1839:HANcoder_E407_TTA_CombineModel.c ****     rtb_OR1 = (slotSelected == 3.0);
1840:HANcoder_E407_TTA_CombineModel.c **** 
1841:HANcoder_E407_TTA_CombineModel.c ****     /* Logic: '<S10>/OR2' incorporates:
1842:HANcoder_E407_TTA_CombineModel.c ****      *  Constant: '<S10>/Constant15'
1843:HANcoder_E407_TTA_CombineModel.c ****      *  DataStoreRead: '<S1>/Data Store Read1'
1844:HANcoder_E407_TTA_CombineModel.c ****      *  RelationalOperator: '<S10>/Equal12'
1845:HANcoder_E407_TTA_CombineModel.c ****      */
1846:HANcoder_E407_TTA_CombineModel.c ****     rtb_DataStoreRead11 = ((rtDWork.Board_ID == 1.0) || rtb_AND_n);
 1729              		.loc 1 1846 54 is_stmt 0 view .LVU598
 1730 0112 F7EE006A 		vmov.f32	s13, #1.0e+0
 1731 0116 F4EE667A 		vcmp.f32	s15, s13
 1732 011a F1EE10FA 		vmrs	APSR_nzcv, FPSCR
 1733              	.LBB450:
 1734              	.LBB445:
 506:HANcoder_E407_TTA_CombineModel.c **** 
 1735              		.loc 1 506 31 view .LVU599
 1736 011e 8BF80A20 		strb	r2, [fp, #10]
 1737              	.LBE445:
 1738              	.LBE450:
1839:HANcoder_E407_TTA_CombineModel.c **** 
 1739              		.loc 1 1839 5 is_stmt 1 view .LVU600
 1740              	.LVL106:
 1741              		.loc 1 1846 5 view .LVU601
 1742              		.loc 1 1846 54 is_stmt 0 view .LVU602
 1743 0122 00F03287 		beq	.L161
 1744              	.LVL107:
1847:HANcoder_E407_TTA_CombineModel.c **** 
1848:HANcoder_E407_TTA_CombineModel.c ****     /* Logic: '<S10>/AND5' incorporates:
1849:HANcoder_E407_TTA_CombineModel.c ****      *  Logic: '<S10>/NOT2'
1850:HANcoder_E407_TTA_CombineModel.c ****      */
1851:HANcoder_E407_TTA_CombineModel.c ****     rtb_AND5 = (rtb_OR1 && (!rtb_DataStoreRead11));
 1745              		.loc 1 1851 5 is_stmt 1 discriminator 6 view .LVU603
 1746              		.loc 1 1851 25 is_stmt 0 discriminator 6 view .LVU604
 1747 0126 F0EE087A 		vmov.f32	s15, #3.0e+0
 1748 012a B4EE677A 		vcmp.f32	s14, s15
 1749 012e F1EE10FA 		vmrs	APSR_nzcv, FPSCR
 1750 0132 41F04381 		bne	.L162
 1751              		.loc 1 1851 25 discriminator 1 view .LVU605
 1752 0136 002E     		cmp	r6, #0
 1753 0138 41F04785 		bne	.L420
 1754              	.LVL108:
1852:HANcoder_E407_TTA_CombineModel.c **** 
1853:HANcoder_E407_TTA_CombineModel.c ****     /* Outputs for Enabled SubSystem: '<S10>/SSTM1_RX' incorporates:
1854:HANcoder_E407_TTA_CombineModel.c ****      *  EnablePort: '<S100>/Enable'
1855:HANcoder_E407_TTA_CombineModel.c ****      */
1856:HANcoder_E407_TTA_CombineModel.c ****     if (rtb_AND5) {
 1755              		.loc 1 1856 5 is_stmt 1 view .LVU606
1857:HANcoder_E407_TTA_CombineModel.c ****       rtDWork.SSTM1_RX_MODE = true;
 1756              		.loc 1 1857 7 view .LVU607
1858:HANcoder_E407_TTA_CombineModel.c **** 
1859:HANcoder_E407_TTA_CombineModel.c ****       /* M-S-Function: '<S117>/S-Function' incorporates:
1860:HANcoder_E407_TTA_CombineModel.c ****        *  Constant: '<S10>/Constant14'
1861:HANcoder_E407_TTA_CombineModel.c ****        */
1862:HANcoder_E407_TTA_CombineModel.c **** 
1863:HANcoder_E407_TTA_CombineModel.c ****       /* read the message data and store the new parameter */
1864:HANcoder_E407_TTA_CombineModel.c ****       rtb_SFunction_o1_b = CanIoGetMessage(0, SSTM1_ID, NULL,
 1757              		.loc 1 1864 28 is_stmt 0 view .LVU608
 1758 013c 884B     		ldr	r3, .L454+20
 1759 013e 0096     		str	r6, [sp]
 1760 0140 884F     		ldr	r7, .L454+24
 1761 0142 1968     		ldr	r1, [r3]
1857:HANcoder_E407_TTA_CombineModel.c ****       rtDWork.SSTM1_RX_MODE = true;
 1762              		.loc 1 1857 29 view .LVU609
 1763 0144 0123     		movs	r3, #1
 1764 0146 84F86531 		strb	r3, [r4, #357]
 1765              		.loc 1 1864 7 is_stmt 1 view .LVU610
 1766              		.loc 1 1864 28 is_stmt 0 view .LVU611
 1767 014a 3246     		mov	r2, r6
 1768 014c 3B46     		mov	r3, r7
 1769 014e 3046     		mov	r0, r6
 1770 0150 FFF7FEFF 		bl	CanIoGetMessage
 1771              	.LVL109:
1865:HANcoder_E407_TTA_CombineModel.c ****         &canRxData_0_SSTM1_ID.uint8_T_info[0], NULL);
1866:HANcoder_E407_TTA_CombineModel.c **** 
1867:HANcoder_E407_TTA_CombineModel.c ****       /* process the message data */
1868:HANcoder_E407_TTA_CombineModel.c ****       if (rtb_SFunction_o1_b > 0) {
 1772              		.loc 1 1868 7 is_stmt 1 view .LVU612
 1773              		.loc 1 1868 10 is_stmt 0 view .LVU613
 1774 0154 0028     		cmp	r0, #0
 1775 0156 41F3C484 		ble	.L421
1869:HANcoder_E407_TTA_CombineModel.c ****         /* read the data */
1870:HANcoder_E407_TTA_CombineModel.c ****         rtb_SFunction_o2_c = canRxData_0_SSTM1_ID.uint8_T_info[0];
 1776              		.loc 1 1870 9 is_stmt 1 view .LVU614
 1777              	.LVL110:
1871:HANcoder_E407_TTA_CombineModel.c ****         rtb_SFunction_o3_f = canRxData_0_SSTM1_ID.uint8_T_info[1];
 1778              		.loc 1 1871 9 view .LVU615
 1779              		.loc 1 1871 28 is_stmt 0 view .LVU616
 1780 015a 7B78     		ldrb	r3, [r7, #1]	@ zero_extendqisi2
 1781              	.LVL111:
1872:HANcoder_E407_TTA_CombineModel.c ****         rtb_SFunction_o4_k = canRxData_0_SSTM1_ID.uint8_T_info[2];
 1782              		.loc 1 1872 9 is_stmt 1 view .LVU617
 1783              	.LBB451:
 1784              	.LBB452:
 461:HANcoder_E407_TTA_CombineModel.c **** 
 1785              		.loc 1 461 17 is_stmt 0 view .LVU618
 1786 015c 85F8CA30 		strb	r3, [r5, #202]
 1787              	.LBE452:
 1788              	.LBE451:
 1789              		.loc 1 1872 28 view .LVU619
 1790 0160 BB78     		ldrb	r3, [r7, #2]	@ zero_extendqisi2
 1791              	.LVL112:
1873:HANcoder_E407_TTA_CombineModel.c ****         rtb_SFunction_o5_h = canRxData_0_SSTM1_ID.uint8_T_info[3];
 1792              		.loc 1 1873 9 is_stmt 1 view .LVU620
 1793              	.LBB456:
 1794              	.LBB453:
 464:HANcoder_E407_TTA_CombineModel.c **** 
 1795              		.loc 1 464 17 is_stmt 0 view .LVU621
 1796 0162 85F8CB30 		strb	r3, [r5, #203]
 1797              	.LBE453:
 1798              	.LBE456:
 1799              		.loc 1 1873 28 view .LVU622
 1800 0166 FB78     		ldrb	r3, [r7, #3]	@ zero_extendqisi2
 1801              	.LVL113:
1874:HANcoder_E407_TTA_CombineModel.c ****         rtb_SFunction_o6_k = canRxData_0_SSTM1_ID.uint8_T_info[4];
 1802              		.loc 1 1874 9 is_stmt 1 view .LVU623
1875:HANcoder_E407_TTA_CombineModel.c ****         rtb_SFunction_o7_e = canRxData_0_SSTM1_ID.uint8_T_info[5];
 1803              		.loc 1 1875 9 view .LVU624
1876:HANcoder_E407_TTA_CombineModel.c ****         rtb_SFunction_o8_pe = canRxData_0_SSTM1_ID.uint8_T_info[6];
 1804              		.loc 1 1876 9 view .LVU625
 1805              	.LBB457:
 1806              	.LBB454:
 467:HANcoder_E407_TTA_CombineModel.c **** 
 1807              		.loc 1 467 17 is_stmt 0 view .LVU626
 1808 0168 85F8CC30 		strb	r3, [r5, #204]
 1809              	.LBE454:
 1810              	.LBE457:
 1811              		.loc 1 1876 29 view .LVU627
 1812 016c BB79     		ldrb	r3, [r7, #6]	@ zero_extendqisi2
 1813              	.LVL114:
1877:HANcoder_E407_TTA_CombineModel.c ****         rtb_SFunction_o9_f = canRxData_0_SSTM1_ID.uint8_T_info[7];
 1814              		.loc 1 1877 9 is_stmt 1 view .LVU628
1878:HANcoder_E407_TTA_CombineModel.c ****       }
1879:HANcoder_E407_TTA_CombineModel.c **** 
1880:HANcoder_E407_TTA_CombineModel.c ****       /* Outputs for Enabled SubSystem: '<S117>/Enabled Subsystem' */
1881:HANcoder_E407_TTA_CombineModel.c ****       EnabledSubsystem(rtb_SFunction_o1_b, rtb_SFunction_o2_c,
 1815              		.loc 1 1881 7 view .LVU629
 1816              	.LBB458:
 1817              	.LBI451:
 444:HANcoder_E407_TTA_CombineModel.c ****                       uint8_T rtu_In3, uint8_T rtu_In4, uint8_T rtu_In5, uint8_T
 1818              		.loc 1 444 6 view .LVU630
 1819              	.LBB455:
 449:HANcoder_E407_TTA_CombineModel.c ****   uint8_T rtb_In6;
 1820              		.loc 1 449 3 view .LVU631
 450:HANcoder_E407_TTA_CombineModel.c ****   uint8_T rtb_In8_m;
 1821              		.loc 1 450 3 view .LVU632
 451:HANcoder_E407_TTA_CombineModel.c **** 
 1822              		.loc 1 451 3 view .LVU633
 456:HANcoder_E407_TTA_CombineModel.c ****     /* SignalConversion generated from: '<S115>/In1' */
 1823              		.loc 1 456 3 view .LVU634
 458:HANcoder_E407_TTA_CombineModel.c **** 
 1824              		.loc 1 458 5 view .LVU635
 476:HANcoder_E407_TTA_CombineModel.c **** 
 1825              		.loc 1 476 17 is_stmt 0 view .LVU636
 1826 016e 85F8CD30 		strb	r3, [r5, #205]
 458:HANcoder_E407_TTA_CombineModel.c **** 
 1827              		.loc 1 458 17 view .LVU637
 1828 0172 3B78     		ldrb	r3, [r7]	@ zero_extendqisi2
 1829              	.LVL115:
 458:HANcoder_E407_TTA_CombineModel.c **** 
 1830              		.loc 1 458 17 view .LVU638
 1831 0174 85F8C930 		strb	r3, [r5, #201]
 461:HANcoder_E407_TTA_CombineModel.c **** 
 1832              		.loc 1 461 5 is_stmt 1 view .LVU639
 464:HANcoder_E407_TTA_CombineModel.c **** 
 1833              		.loc 1 464 5 view .LVU640
 467:HANcoder_E407_TTA_CombineModel.c **** 
 1834              		.loc 1 467 5 view .LVU641
 470:HANcoder_E407_TTA_CombineModel.c **** 
 1835              		.loc 1 470 5 view .LVU642
 473:HANcoder_E407_TTA_CombineModel.c **** 
 1836              		.loc 1 473 5 view .LVU643
 476:HANcoder_E407_TTA_CombineModel.c **** 
 1837              		.loc 1 476 5 view .LVU644
 479:HANcoder_E407_TTA_CombineModel.c ****   }
 1838              		.loc 1 479 5 view .LVU645
 1839              	.LVL116:
 479:HANcoder_E407_TTA_CombineModel.c ****   }
 1840              		.loc 1 479 5 is_stmt 0 view .LVU646
 1841              	.LBE455:
 1842              	.LBE458:
1882:HANcoder_E407_TTA_CombineModel.c ****                        rtb_SFunction_o3_f, rtb_SFunction_o4_k,
1883:HANcoder_E407_TTA_CombineModel.c ****                        rtb_SFunction_o5_h, rtb_SFunction_o6_k,
1884:HANcoder_E407_TTA_CombineModel.c ****                        rtb_SFunction_o7_e, rtb_SFunction_o8_pe,
1885:HANcoder_E407_TTA_CombineModel.c ****                        rtb_SFunction_o9_f, &rtB.EnabledSubsystem_h);
1886:HANcoder_E407_TTA_CombineModel.c **** 
1887:HANcoder_E407_TTA_CombineModel.c ****       /* End of Outputs for SubSystem: '<S117>/Enabled Subsystem' */
1888:HANcoder_E407_TTA_CombineModel.c ****     } else if (rtDWork.SSTM1_RX_MODE) {
1889:HANcoder_E407_TTA_CombineModel.c ****       rtDWork.SSTM1_RX_MODE = false;
1890:HANcoder_E407_TTA_CombineModel.c ****     }
1891:HANcoder_E407_TTA_CombineModel.c **** 
1892:HANcoder_E407_TTA_CombineModel.c ****     /* End of Outputs for SubSystem: '<S10>/SSTM1_RX' */
1893:HANcoder_E407_TTA_CombineModel.c **** 
1894:HANcoder_E407_TTA_CombineModel.c ****     /* Logic: '<S10>/AND4' */
1895:HANcoder_E407_TTA_CombineModel.c ****     rtb_AND4 = (rtb_OR1 && rtb_DataStoreRead11);
 1843              		.loc 1 1895 5 is_stmt 1 view .LVU647
1896:HANcoder_E407_TTA_CombineModel.c **** 
1897:HANcoder_E407_TTA_CombineModel.c ****     /* Outputs for Triggered SubSystem: '<S10>/SSTM1_TX' */
1898:HANcoder_E407_TTA_CombineModel.c ****     /* Constant: '<S10>/Constant14' */
1899:HANcoder_E407_TTA_CombineModel.c ****     MMBS1_TX(rtb_AND4, SSTM1_ID, &rtPrevZCSigState.SSTM1_TX);
1900:HANcoder_E407_TTA_CombineModel.c **** 
1901:HANcoder_E407_TTA_CombineModel.c ****     /* End of Outputs for SubSystem: '<S10>/SSTM1_TX' */
1902:HANcoder_E407_TTA_CombineModel.c **** 
1903:HANcoder_E407_TTA_CombineModel.c ****     /* RelationalOperator: '<S10>/Equal' incorporates:
1904:HANcoder_E407_TTA_CombineModel.c ****      *  Constant: '<S10>/Constant'
1905:HANcoder_E407_TTA_CombineModel.c ****      */
1906:HANcoder_E407_TTA_CombineModel.c ****     rtb_OR1 = (slotSelected == ((uint8_T)1U));
 1844              		.loc 1 1906 29 is_stmt 0 view .LVU648
 1845 0178 774B     		ldr	r3, .L454+12
1907:HANcoder_E407_TTA_CombineModel.c **** 
1908:HANcoder_E407_TTA_CombineModel.c ****     /* Logic: '<S10>/OR1' incorporates:
1909:HANcoder_E407_TTA_CombineModel.c ****      *  Constant: '<S10>/Constant11'
1910:HANcoder_E407_TTA_CombineModel.c ****      *  DataStoreRead: '<S1>/Data Store Read1'
1911:HANcoder_E407_TTA_CombineModel.c ****      *  RelationalOperator: '<S10>/Equal10'
1912:HANcoder_E407_TTA_CombineModel.c ****      */
1913:HANcoder_E407_TTA_CombineModel.c ****     rtb_AND_n = ((rtDWork.Board_ID == ((uint8_T)1U)) || rtb_AND_n);
 1846              		.loc 1 1913 26 view .LVU649
 1847 017a 94F846A1 		ldrb	r10, [r4, #326]	@ zero_extendqisi2
1906:HANcoder_E407_TTA_CombineModel.c **** 
 1848              		.loc 1 1906 29 view .LVU650
 1849 017e 1B78     		ldrb	r3, [r3]	@ zero_extendqisi2
 1850              	.LVL117:
 1851              	.L167:
1899:HANcoder_E407_TTA_CombineModel.c **** 
 1852              		.loc 1 1899 5 is_stmt 1 view .LVU651
 1853              	.LBB459:
 1854              	.LBI459:
 490:HANcoder_E407_TTA_CombineModel.c **** {
 1855              		.loc 1 490 6 view .LVU652
 1856              	.LBB460:
 495:HANcoder_E407_TTA_CombineModel.c ****     /* Update for M-S-Function: '<S116>/S-Function' */
 1857              		.loc 1 495 3 view .LVU653
 1858              	.LBE460:
 1859              	.LBE459:
1895:HANcoder_E407_TTA_CombineModel.c **** 
 1860              		.loc 1 1895 14 is_stmt 0 view .LVU654
 1861 0180 0022     		movs	r2, #0
 1862              	.LVL118:
 1863              	.L252:
 1864              	.LBB467:
 1865              	.LBB461:
 506:HANcoder_E407_TTA_CombineModel.c **** 
 1866              		.loc 1 506 3 is_stmt 1 view .LVU655
 1867              	.LBE461:
 1868              	.LBE467:
 1869              		.loc 1 1913 54 is_stmt 0 view .LVU656
 1870 0182 BAF1010F 		cmp	r10, #1
 1871              	.LBB468:
 1872              	.LBB462:
 506:HANcoder_E407_TTA_CombineModel.c **** 
 1873              		.loc 1 506 31 view .LVU657
 1874 0186 8BF80920 		strb	r2, [fp, #9]
 1875              	.LBE462:
 1876              	.LBE468:
1906:HANcoder_E407_TTA_CombineModel.c **** 
 1877              		.loc 1 1906 5 is_stmt 1 view .LVU658
 1878              	.LVL119:
 1879              		.loc 1 1913 5 view .LVU659
 1880              		.loc 1 1913 54 is_stmt 0 view .LVU660
 1881 018a 00F02487 		beq	.L169
 1882              	.LVL120:
 1883              	.L447:
1914:HANcoder_E407_TTA_CombineModel.c **** 
1915:HANcoder_E407_TTA_CombineModel.c ****     /* Logic: '<S10>/AND1' incorporates:
1916:HANcoder_E407_TTA_CombineModel.c ****      *  Logic: '<S10>/NOT'
1917:HANcoder_E407_TTA_CombineModel.c ****      */
1918:HANcoder_E407_TTA_CombineModel.c ****     rtb_AND1_k = (rtb_OR1 && (!rtb_AND_n));
 1884              		.loc 1 1918 5 is_stmt 1 discriminator 6 view .LVU661
 1885              		.loc 1 1918 27 is_stmt 0 discriminator 6 view .LVU662
 1886 018e 012B     		cmp	r3, #1
 1887 0190 01F03584 		beq	.L422
 1888              	.LVL121:
1919:HANcoder_E407_TTA_CombineModel.c **** 
1920:HANcoder_E407_TTA_CombineModel.c ****     /* Outputs for Enabled SubSystem: '<S10>/SYNC1_RX' incorporates:
1921:HANcoder_E407_TTA_CombineModel.c ****      *  EnablePort: '<S102>/Enable'
1922:HANcoder_E407_TTA_CombineModel.c ****      */
1923:HANcoder_E407_TTA_CombineModel.c ****     if (rtb_AND1_k) {
 1889              		.loc 1 1923 5 is_stmt 1 discriminator 4 view .LVU663
1924:HANcoder_E407_TTA_CombineModel.c ****       rtDWork.SYNC1_RX_MODE = true;
1925:HANcoder_E407_TTA_CombineModel.c **** 
1926:HANcoder_E407_TTA_CombineModel.c ****       /* M-S-Function: '<S120>/S-Function' incorporates:
1927:HANcoder_E407_TTA_CombineModel.c ****        *  Constant: '<S10>/Constant10'
1928:HANcoder_E407_TTA_CombineModel.c ****        */
1929:HANcoder_E407_TTA_CombineModel.c **** 
1930:HANcoder_E407_TTA_CombineModel.c ****       /* read the message data and store the new parameter */
1931:HANcoder_E407_TTA_CombineModel.c ****       rtb_SFunction_o1_h = CanIoGetMessage(0, SYNC1_ID, NULL,
1932:HANcoder_E407_TTA_CombineModel.c ****         &canRxData_0_SYNC1_ID.uint8_T_info[0], NULL);
1933:HANcoder_E407_TTA_CombineModel.c **** 
1934:HANcoder_E407_TTA_CombineModel.c ****       /* process the message data */
1935:HANcoder_E407_TTA_CombineModel.c ****       if (rtb_SFunction_o1_h > 0) {
1936:HANcoder_E407_TTA_CombineModel.c ****         /* read the data */
1937:HANcoder_E407_TTA_CombineModel.c ****         rtb_SFunction_o2_ib = canRxData_0_SYNC1_ID.uint8_T_info[0];
1938:HANcoder_E407_TTA_CombineModel.c ****         rtb_SFunction_o3_g = canRxData_0_SYNC1_ID.uint8_T_info[1];
1939:HANcoder_E407_TTA_CombineModel.c ****         rtb_SFunction_o4_j = canRxData_0_SYNC1_ID.uint8_T_info[2];
1940:HANcoder_E407_TTA_CombineModel.c ****         rtb_SFunction_o5_f = canRxData_0_SYNC1_ID.uint8_T_info[3];
1941:HANcoder_E407_TTA_CombineModel.c ****         rtb_SFunction_o6_gy = canRxData_0_SYNC1_ID.uint8_T_info[4];
1942:HANcoder_E407_TTA_CombineModel.c ****         rtb_SFunction_o7_k = canRxData_0_SYNC1_ID.uint8_T_info[5];
1943:HANcoder_E407_TTA_CombineModel.c ****         rtb_SFunction_o8_n = canRxData_0_SYNC1_ID.uint8_T_info[6];
1944:HANcoder_E407_TTA_CombineModel.c ****         rtb_SFunction_o9_b1 = canRxData_0_SYNC1_ID.uint8_T_info[7];
1945:HANcoder_E407_TTA_CombineModel.c ****       }
1946:HANcoder_E407_TTA_CombineModel.c **** 
1947:HANcoder_E407_TTA_CombineModel.c ****       /* Outputs for Enabled SubSystem: '<S120>/Enabled Subsystem' */
1948:HANcoder_E407_TTA_CombineModel.c ****       EnabledSubsystem(rtb_SFunction_o1_h, rtb_SFunction_o2_ib,
1949:HANcoder_E407_TTA_CombineModel.c ****                        rtb_SFunction_o3_g, rtb_SFunction_o4_j,
1950:HANcoder_E407_TTA_CombineModel.c ****                        rtb_SFunction_o5_f, rtb_SFunction_o6_gy,
1951:HANcoder_E407_TTA_CombineModel.c ****                        rtb_SFunction_o7_k, rtb_SFunction_o8_n,
1952:HANcoder_E407_TTA_CombineModel.c ****                        rtb_SFunction_o9_b1, &rtB.EnabledSubsystem_c);
1953:HANcoder_E407_TTA_CombineModel.c **** 
1954:HANcoder_E407_TTA_CombineModel.c ****       /* End of Outputs for SubSystem: '<S120>/Enabled Subsystem' */
1955:HANcoder_E407_TTA_CombineModel.c **** 
1956:HANcoder_E407_TTA_CombineModel.c ****       /* Outputs for Triggered SubSystem: '<S102>/Subsystem' incorporates:
1957:HANcoder_E407_TTA_CombineModel.c ****        *  TriggerPort: '<S121>/Trigger'
1958:HANcoder_E407_TTA_CombineModel.c ****        */
1959:HANcoder_E407_TTA_CombineModel.c ****       zcEvent = rt_I32ZCFcn(RISING_ZERO_CROSSING,
1960:HANcoder_E407_TTA_CombineModel.c ****                             &rtPrevZCSigState.Subsystem_Trig_ZCE_h,
1961:HANcoder_E407_TTA_CombineModel.c ****                             (rtb_SFunction_o1_h));
1962:HANcoder_E407_TTA_CombineModel.c ****       if (zcEvent != NO_ZCEVENT) {
1963:HANcoder_E407_TTA_CombineModel.c ****         /* DataStoreWrite: '<S121>/Data Store Write' */
1964:HANcoder_E407_TTA_CombineModel.c ****         rtDWork.SlotTime = rtB.EnabledSubsystem_c.In1;
1965:HANcoder_E407_TTA_CombineModel.c **** 
1966:HANcoder_E407_TTA_CombineModel.c ****         /* DataStoreWrite: '<S121>/Data Store Write1' incorporates:
1967:HANcoder_E407_TTA_CombineModel.c ****          *  Constant: '<S121>/Constant'
1968:HANcoder_E407_TTA_CombineModel.c ****          */
1969:HANcoder_E407_TTA_CombineModel.c ****         rtDWork.Local_Ticks = ((uint8_T)1U);
1970:HANcoder_E407_TTA_CombineModel.c **** 
1971:HANcoder_E407_TTA_CombineModel.c ****         /* DataStoreWrite: '<S121>/Data Store Write2' incorporates:
1972:HANcoder_E407_TTA_CombineModel.c ****          *  Constant: '<S121>/Constant1'
1973:HANcoder_E407_TTA_CombineModel.c ****          */
1974:HANcoder_E407_TTA_CombineModel.c ****         rtDWork.slot = ((uint8_T)1U);
1975:HANcoder_E407_TTA_CombineModel.c **** 
1976:HANcoder_E407_TTA_CombineModel.c ****         /* DataStoreWrite: '<S121>/Data Store Write3' incorporates:
1977:HANcoder_E407_TTA_CombineModel.c ****          *  Constant: '<S121>/Constant2'
1978:HANcoder_E407_TTA_CombineModel.c ****          */
1979:HANcoder_E407_TTA_CombineModel.c ****         rtDWork.receiveSync = true;
1980:HANcoder_E407_TTA_CombineModel.c ****       }
1981:HANcoder_E407_TTA_CombineModel.c **** 
1982:HANcoder_E407_TTA_CombineModel.c ****       /* End of Outputs for SubSystem: '<S102>/Subsystem' */
1983:HANcoder_E407_TTA_CombineModel.c ****     } else if (rtDWork.SYNC1_RX_MODE) {
 1890              		.loc 1 1983 12 discriminator 4 view .LVU664
 1891              		.loc 1 1983 15 is_stmt 0 discriminator 4 view .LVU665
 1892 0194 94F86421 		ldrb	r2, [r4, #356]	@ zero_extendqisi2
 1893 0198 002A     		cmp	r2, #0
 1894 019a 41F0F382 		bne	.L176
 1895              	.LVL122:
 1896              	.L175:
1984:HANcoder_E407_TTA_CombineModel.c ****       rtDWork.SYNC1_RX_MODE = false;
1985:HANcoder_E407_TTA_CombineModel.c ****     }
1986:HANcoder_E407_TTA_CombineModel.c **** 
1987:HANcoder_E407_TTA_CombineModel.c ****     /* End of Outputs for SubSystem: '<S10>/SYNC1_RX' */
1988:HANcoder_E407_TTA_CombineModel.c **** 
1989:HANcoder_E407_TTA_CombineModel.c ****     /* Logic: '<S10>/AND' */
1990:HANcoder_E407_TTA_CombineModel.c ****     boolCan = (rtb_OR1 && rtb_AND_n);
 1897              		.loc 1 1990 13 view .LVU666
 1898 019e 7249     		ldr	r1, .L454+28
 1899 01a0 0022     		movs	r2, #0
 1900 01a2 0A70     		strb	r2, [r1]
1991:HANcoder_E407_TTA_CombineModel.c **** 
1992:HANcoder_E407_TTA_CombineModel.c ****     /* Outputs for Triggered SubSystem: '<S10>/SYNC1_TX' incorporates:
1993:HANcoder_E407_TTA_CombineModel.c ****      *  TriggerPort: '<S103>/Trigger'
1994:HANcoder_E407_TTA_CombineModel.c ****      */
1995:HANcoder_E407_TTA_CombineModel.c ****     if (boolCan && (rtPrevZCSigState.SYNC1_TX_Trig_ZCE != POS_ZCSIG)) {
 1901              		.loc 1 1995 5 is_stmt 1 view .LVU667
 1902              	.L249:
1996:HANcoder_E407_TTA_CombineModel.c ****       /* DataStoreRead: '<S103>/Data Store Read1' */
1997:HANcoder_E407_TTA_CombineModel.c ****       testCounter = rtDWork.testCount;
1998:HANcoder_E407_TTA_CombineModel.c **** 
1999:HANcoder_E407_TTA_CombineModel.c ****       /* Sum: '<S103>/Add' incorporates:
2000:HANcoder_E407_TTA_CombineModel.c ****        *  Constant: '<S103>/Constant7'
2001:HANcoder_E407_TTA_CombineModel.c ****        *  DataStoreWrite: '<S103>/Data Store Write'
2002:HANcoder_E407_TTA_CombineModel.c ****        */
2003:HANcoder_E407_TTA_CombineModel.c ****       rtDWork.testCount = (uint16_T)((uint32_T)testCounter + ((uint16_T)1U));
2004:HANcoder_E407_TTA_CombineModel.c **** 
2005:HANcoder_E407_TTA_CombineModel.c ****       /* DataStoreRead: '<S103>/Data Store Read' */
2006:HANcoder_E407_TTA_CombineModel.c ****       rtB.DataStoreRead = rtDWork.SlotTime;
2007:HANcoder_E407_TTA_CombineModel.c **** 
2008:HANcoder_E407_TTA_CombineModel.c ****       /* Update for M-S-Function: '<S123>/S-Function' incorporates:
2009:HANcoder_E407_TTA_CombineModel.c ****        *  Constant: '<S103>/Constant'
2010:HANcoder_E407_TTA_CombineModel.c ****        *  Constant: '<S103>/Constant1'
2011:HANcoder_E407_TTA_CombineModel.c ****        *  Constant: '<S103>/Constant2'
2012:HANcoder_E407_TTA_CombineModel.c ****        *  Constant: '<S103>/Constant3'
2013:HANcoder_E407_TTA_CombineModel.c ****        *  Constant: '<S103>/Constant4'
2014:HANcoder_E407_TTA_CombineModel.c ****        *  Constant: '<S103>/Constant5'
2015:HANcoder_E407_TTA_CombineModel.c ****        *  Constant: '<S103>/Constant6'
2016:HANcoder_E407_TTA_CombineModel.c ****        *  Constant: '<S10>/Constant10'
2017:HANcoder_E407_TTA_CombineModel.c ****        */
2018:HANcoder_E407_TTA_CombineModel.c ****       {
2019:HANcoder_E407_TTA_CombineModel.c ****         /* prepare the data */
2020:HANcoder_E407_TTA_CombineModel.c ****         canTxData.uint8_T_info[0] = rtB.DataStoreRead;
2021:HANcoder_E407_TTA_CombineModel.c ****         canTxData.uint8_T_info[1] = ((uint8_T)1U);
2022:HANcoder_E407_TTA_CombineModel.c ****         canTxData.uint8_T_info[2] = ((uint8_T)0U);
2023:HANcoder_E407_TTA_CombineModel.c ****         canTxData.uint8_T_info[3] = ((uint8_T)0U);
2024:HANcoder_E407_TTA_CombineModel.c ****         canTxData.uint8_T_info[4] = ((uint8_T)0U);
2025:HANcoder_E407_TTA_CombineModel.c ****         canTxData.uint8_T_info[5] = ((uint8_T)0U);
2026:HANcoder_E407_TTA_CombineModel.c ****         canTxData.uint8_T_info[6] = ((uint8_T)0U);
2027:HANcoder_E407_TTA_CombineModel.c ****         canTxData.uint8_T_info[7] = ((uint8_T)1U);
2028:HANcoder_E407_TTA_CombineModel.c **** 
2029:HANcoder_E407_TTA_CombineModel.c ****         /* send the data */
2030:HANcoder_E407_TTA_CombineModel.c ****         CanTransmit(0, SYNC1_ID, 8, &canTxData.uint8_T_info[0]);
2031:HANcoder_E407_TTA_CombineModel.c ****       }
2032:HANcoder_E407_TTA_CombineModel.c ****     }
2033:HANcoder_E407_TTA_CombineModel.c **** 
2034:HANcoder_E407_TTA_CombineModel.c ****     rtPrevZCSigState.SYNC1_TX_Trig_ZCE = boolCan;
 1903              		.loc 1 2034 5 view .LVU668
2035:HANcoder_E407_TTA_CombineModel.c **** 
2036:HANcoder_E407_TTA_CombineModel.c ****     /* End of Outputs for SubSystem: '<S10>/SYNC1_TX' */
2037:HANcoder_E407_TTA_CombineModel.c **** 
2038:HANcoder_E407_TTA_CombineModel.c ****     /* RelationalOperator: '<S10>/Equal6' incorporates:
2039:HANcoder_E407_TTA_CombineModel.c ****      *  Constant: '<S10>/Constant7'
2040:HANcoder_E407_TTA_CombineModel.c ****      */
2041:HANcoder_E407_TTA_CombineModel.c ****     rtb_AND_n = (slotSelected == 6.0);
 1904              		.loc 1 2041 31 is_stmt 0 view .LVU669
 1905 01a4 07EE903A 		vmov	s15, r3	@ int
 1906 01a8 B8EEE78A 		vcvt.f32.s32	s16, s15
2042:HANcoder_E407_TTA_CombineModel.c **** 
2043:HANcoder_E407_TTA_CombineModel.c ****     /* RelationalOperator: '<S10>/Equal5' incorporates:
2044:HANcoder_E407_TTA_CombineModel.c ****      *  Constant: '<S10>/Constant6'
2045:HANcoder_E407_TTA_CombineModel.c ****      *  DataStoreRead: '<S1>/Data Store Read1'
2046:HANcoder_E407_TTA_CombineModel.c ****      */
2047:HANcoder_E407_TTA_CombineModel.c ****     rtb_OR1 = (rtDWork.Board_ID == 2.0);
 1907              		.loc 1 2047 33 view .LVU670
