   1              		.cpu cortex-m4
   2              		.arch armv7e-m
   3              		.fpu fpv4-sp-d16
   4              		.eabi_attribute 27, 1
   5              		.eabi_attribute 20, 1
   6              		.eabi_attribute 21, 1
   7              		.eabi_attribute 23, 3
   8              		.eabi_attribute 24, 1
   9              		.eabi_attribute 25, 1
  10              		.eabi_attribute 26, 1
  11              		.eabi_attribute 30, 2
  12              		.eabi_attribute 34, 1
  13              		.eabi_attribute 18, 4
  14              		.file	"HANcoder_E407_TTA_CombineModel.c"
  15              		.text
  16              	.Ltext0:
  17              		.cfi_sections	.debug_frame
  18              		.section	.text.PwmoutIRQ_PWMOUT_MODULE_TIM14,"ax",%progbits
  19              		.align	1
  20              		.p2align 2,,3
  21              		.global	PwmoutIRQ_PWMOUT_MODULE_TIM14
  22              		.syntax unified
  23              		.thumb
  24              		.thumb_func
  26              	PwmoutIRQ_PWMOUT_MODULE_TIM14:
  27              	.LFB114:
  28              		.file 1 "HANcoder_E407_TTA_CombineModel.c"
   1:HANcoder_E407_TTA_CombineModel.c **** /*
   2:HANcoder_E407_TTA_CombineModel.c ****  * Academic License - for use in teaching, academic research, and meeting
   3:HANcoder_E407_TTA_CombineModel.c ****  * course requirements at degree granting institutions only.  Not for
   4:HANcoder_E407_TTA_CombineModel.c ****  * government, commercial, or other organizational use.
   5:HANcoder_E407_TTA_CombineModel.c ****  *
   6:HANcoder_E407_TTA_CombineModel.c ****  * File: HANcoder_E407_TTA_CombineModel.c
   7:HANcoder_E407_TTA_CombineModel.c ****  *
   8:HANcoder_E407_TTA_CombineModel.c ****  * Code generated for Simulink model 'HANcoder_E407_TTA_CombineModel'.
   9:HANcoder_E407_TTA_CombineModel.c ****  *
  10:HANcoder_E407_TTA_CombineModel.c ****  * Model version                  : 17.39
  11:HANcoder_E407_TTA_CombineModel.c ****  * Simulink Coder version         : 9.8 (R2022b) 13-May-2022
  12:HANcoder_E407_TTA_CombineModel.c ****  * C/C++ source code generated on : Tue Jun 20 14:31:59 2023
  13:HANcoder_E407_TTA_CombineModel.c ****  *
  14:HANcoder_E407_TTA_CombineModel.c ****  * Target selection: ert.tlc
  15:HANcoder_E407_TTA_CombineModel.c ****  * Embedded hardware selection: ARM Compatible->ARM Cortex
  16:HANcoder_E407_TTA_CombineModel.c ****  * Code generation objectives: Unspecified
  17:HANcoder_E407_TTA_CombineModel.c ****  * Validation result: Not run
  18:HANcoder_E407_TTA_CombineModel.c ****  */
  19:HANcoder_E407_TTA_CombineModel.c **** 
  20:HANcoder_E407_TTA_CombineModel.c **** #include "HANcoder_E407_TTA_CombineModel.h"
  21:HANcoder_E407_TTA_CombineModel.c **** #include "rtwtypes.h"
  22:HANcoder_E407_TTA_CombineModel.c **** #include "HANcoder_E407_TTA_CombineModel_types.h"
  23:HANcoder_E407_TTA_CombineModel.c **** #include "HANcoder_E407_TTA_CombineModel_private.h"
  24:HANcoder_E407_TTA_CombineModel.c **** #include <math.h>
  25:HANcoder_E407_TTA_CombineModel.c **** #include "zero_crossing_types.h"
  26:HANcoder_E407_TTA_CombineModel.c **** 
  27:HANcoder_E407_TTA_CombineModel.c **** /* map ByteSwap function */
  28:HANcoder_E407_TTA_CombineModel.c **** #define ByteSwap(x)                    (ByteSwap_x((uint8_t *) &x, sizeof(x)))
  29:HANcoder_E407_TTA_CombineModel.c **** 
  30:HANcoder_E407_TTA_CombineModel.c **** void PwmoutIRQ_PWMOUT_MODULE_TIM14(void);
  31:HANcoder_E407_TTA_CombineModel.c **** void TimeoutEventIRQ_TIMEOUT_TIM4_PIN_PD12(void);
  32:HANcoder_E407_TTA_CombineModel.c **** void TimeoutOverflowIRQ_TIMEOUT_MODULE_TIM4(void);
  33:HANcoder_E407_TTA_CombineModel.c **** 
  34:HANcoder_E407_TTA_CombineModel.c **** /* Exported block signals */
  35:HANcoder_E407_TTA_CombineModel.c **** real_T Gamma1;                         /* '<S20>/Sum1' */
  36:HANcoder_E407_TTA_CombineModel.c **** real_T steering;                       /* '<S19>/Gain2' */
  37:HANcoder_E407_TTA_CombineModel.c **** real_T position;                       /* '<S19>/Gain1' */
  38:HANcoder_E407_TTA_CombineModel.c **** real_T control;                        /* '<S19>/Sum' */
  39:HANcoder_E407_TTA_CombineModel.c **** uint32_T SI_FreeHeap;                  /* '<S377>/Level-2 M-file S-Function' */
  40:HANcoder_E407_TTA_CombineModel.c **** uint32_T SI_FreeStack;                 /* '<S378>/Level-2 M-file S-Function' */
  41:HANcoder_E407_TTA_CombineModel.c **** uint32_T reqAngle;                     /* '<S5>/Data Store Read' */
  42:HANcoder_E407_TTA_CombineModel.c **** real32_T delta12K;                     /* '<S75>/tan 1' */
  43:HANcoder_E407_TTA_CombineModel.c **** int32_T motorPos;                      /* '<S82>/Level-2 M-file S-Function' */
  44:HANcoder_E407_TTA_CombineModel.c **** uint16_T pot31;                        /* '<S250>/Add' */
  45:HANcoder_E407_TTA_CombineModel.c **** uint16_T pot32;                        /* '<S249>/Add' */
  46:HANcoder_E407_TTA_CombineModel.c **** uint16_T pot11;                        /* '<S203>/Add' */
  47:HANcoder_E407_TTA_CombineModel.c **** uint16_T pot12;                        /* '<S202>/Add' */
  48:HANcoder_E407_TTA_CombineModel.c **** uint16_T pot21;                        /* '<S133>/Add' */
  49:HANcoder_E407_TTA_CombineModel.c **** uint16_T pot22;                        /* '<S132>/Add' */
  50:HANcoder_E407_TTA_CombineModel.c **** uint16_T testCounter;                  /* '<S108>/Data Store Read1' */
  51:HANcoder_E407_TTA_CombineModel.c **** uint16_T potRaw;                       /* '<S80>/Data Store Read5' */
  52:HANcoder_E407_TTA_CombineModel.c **** uint16_T lastPot;                      /* '<S80>/Data Store Read6' */
  53:HANcoder_E407_TTA_CombineModel.c **** uint16_T analogPot1;                   /* '<S83>/Level-2 M-file S-Function' */
  54:HANcoder_E407_TTA_CombineModel.c **** uint16_T pot1;                         /* '<S78>/Cast1' */
  55:HANcoder_E407_TTA_CombineModel.c **** uint16_T analogPot2;                   /* '<S84>/Level-2 M-file S-Function' */
  56:HANcoder_E407_TTA_CombineModel.c **** uint16_T pot2;                         /* '<S78>/Cast2' */
  57:HANcoder_E407_TTA_CombineModel.c **** uint16_T t2Angle;                      /* '<S5>/Data Store Read2' */
  58:HANcoder_E407_TTA_CombineModel.c **** uint16_T t1Angle;                      /* '<S5>/Data Store Read1' */
  59:HANcoder_E407_TTA_CombineModel.c **** uint16_T Gamma2;                       /* '<S20>/Sum2' */
  60:HANcoder_E407_TTA_CombineModel.c **** uint16_T mospeed;                      /* '<S19>/Add' */
  61:HANcoder_E407_TTA_CombineModel.c **** uint8_T errors;                        /* '<S16>/Level-2 M-file S-Function' */
  62:HANcoder_E407_TTA_CombineModel.c **** uint8_T SI_CPUload;                    /* '<S376>/Level-2 M-file S-Function' */
  63:HANcoder_E407_TTA_CombineModel.c **** uint8_T buttonpress2;                  /* '<S329>/In6' */
  64:HANcoder_E407_TTA_CombineModel.c **** uint8_T buttonpress1;                  /* '<S282>/In6' */
  65:HANcoder_E407_TTA_CombineModel.c **** uint8_T missedMasterMessages;          /* '<S103>/Data Store Read1' */
  66:HANcoder_E407_TTA_CombineModel.c **** uint8_T amounttrailers;                /* '<S17>/Add' */
  67:HANcoder_E407_TTA_CombineModel.c **** uint8_T positionID5;                   /* '<S17>/Cast3' */
  68:HANcoder_E407_TTA_CombineModel.c **** uint8_T positionID4;                   /* '<S17>/Cast2' */
  69:HANcoder_E407_TTA_CombineModel.c **** uint8_T local_ticks_interrupt;         /* '<S9>/Switch' */
  70:HANcoder_E407_TTA_CombineModel.c **** uint8_T setSlotTime;                   /* '<S9>/Data Store Read3' */
  71:HANcoder_E407_TTA_CombineModel.c **** uint8_T slotSelected;                  /* '<S99>/Switch' */
  72:HANcoder_E407_TTA_CombineModel.c **** boolean_T boolCan;                     /* '<S10>/AND' */
  73:HANcoder_E407_TTA_CombineModel.c **** boolean_T potFaultDetected;            /* '<S113>/Data Store Read4' */
  74:HANcoder_E407_TTA_CombineModel.c **** boolean_T masterCanFail;               /* '<S103>/GreaterThan' */
  75:HANcoder_E407_TTA_CombineModel.c **** boolean_T mf1;                         /* '<S80>/Delay' */
  76:HANcoder_E407_TTA_CombineModel.c **** boolean_T mf2;                         /* '<S80>/Delay1' */
  77:HANcoder_E407_TTA_CombineModel.c **** boolean_T mf3;                         /* '<S80>/Delay2' */
  78:HANcoder_E407_TTA_CombineModel.c **** boolean_T mf4;                         /* '<S80>/Delay4' */
  79:HANcoder_E407_TTA_CombineModel.c **** boolean_T mf5;                         /* '<S80>/Delay3' */
  80:HANcoder_E407_TTA_CombineModel.c **** boolean_T motorFaultDetected;          /* '<S80>/AND2' */
  81:HANcoder_E407_TTA_CombineModel.c **** boolean_T ioInit;                      /* '<S78>/Constant' */
  82:HANcoder_E407_TTA_CombineModel.c **** boolean_T cw;                          /* '<S19>/Cast1' */
  83:HANcoder_E407_TTA_CombineModel.c **** boolean_T ccw;                         /* '<S19>/NOT' */
  84:HANcoder_E407_TTA_CombineModel.c **** boolean_T canActive;                   /* '<S9>/Clock_State' */
  85:HANcoder_E407_TTA_CombineModel.c **** 
  86:HANcoder_E407_TTA_CombineModel.c **** /* Exported block parameters */
  87:HANcoder_E407_TTA_CombineModel.c **** real_T ClockOn = 0.0;                  /* Variable: ClockOn
  88:HANcoder_E407_TTA_CombineModel.c ****                                         * Referenced by: '<S12>/Constant'
  89:HANcoder_E407_TTA_CombineModel.c ****                                         */
  90:HANcoder_E407_TTA_CombineModel.c **** real_T ResetPosition = 0.0;            /* Variable: ResetPosition
  91:HANcoder_E407_TTA_CombineModel.c ****                                         * Referenced by: '<S380>/Constant'
  92:HANcoder_E407_TTA_CombineModel.c ****                                         */
  93:HANcoder_E407_TTA_CombineModel.c **** real_T controlWidth = 10.0;            /* Variable: controlWidth
  94:HANcoder_E407_TTA_CombineModel.c ****                                         * Referenced by: '<S19>/Constant'
  95:HANcoder_E407_TTA_CombineModel.c ****                                         */
  96:HANcoder_E407_TTA_CombineModel.c **** real_T intVal = 0.15;                  /* Variable: intVal
  97:HANcoder_E407_TTA_CombineModel.c ****                                         * Referenced by: '<S52>/Integral Gain'
  98:HANcoder_E407_TTA_CombineModel.c ****                                         */
  99:HANcoder_E407_TTA_CombineModel.c **** real_T matrixRows = 10.0;              /* Variable: matrixRows
 100:HANcoder_E407_TTA_CombineModel.c ****                                         * Referenced by: '<S99>/Constant1'
 101:HANcoder_E407_TTA_CombineModel.c ****                                         */
 102:HANcoder_E407_TTA_CombineModel.c **** real_T propVal = 1.0;                  /* Variable: propVal
 103:HANcoder_E407_TTA_CombineModel.c ****                                         * Referenced by: '<S60>/Proportional Gain'
 104:HANcoder_E407_TTA_CombineModel.c ****                                         */
 105:HANcoder_E407_TTA_CombineModel.c **** uint32_T MMBS1_ID = 12U;               /* Variable: MMBS1_ID
 106:HANcoder_E407_TTA_CombineModel.c ****                                         * Referenced by: '<S10>/Constant12'
 107:HANcoder_E407_TTA_CombineModel.c ****                                         */
 108:HANcoder_E407_TTA_CombineModel.c **** uint32_T SSTM1_ID = 13U;               /* Variable: SSTM1_ID
 109:HANcoder_E407_TTA_CombineModel.c ****                                         * Referenced by: '<S10>/Constant14'
 110:HANcoder_E407_TTA_CombineModel.c ****                                         */
 111:HANcoder_E407_TTA_CombineModel.c **** uint32_T SYNC1_ID = 11U;               /* Variable: SYNC1_ID
 112:HANcoder_E407_TTA_CombineModel.c ****                                         * Referenced by:
 113:HANcoder_E407_TTA_CombineModel.c ****                                         *   '<S10>/Constant10'
 114:HANcoder_E407_TTA_CombineModel.c ****                                         *   '<S369>/Constant10'
 115:HANcoder_E407_TTA_CombineModel.c ****                                         */
 116:HANcoder_E407_TTA_CombineModel.c **** uint32_T TRCK1_ID1 = 14U;              /* Variable: TRCK1_ID1
 117:HANcoder_E407_TTA_CombineModel.c ****                                         * Referenced by: '<S10>/Constant3'
 118:HANcoder_E407_TTA_CombineModel.c ****                                         */
 119:HANcoder_E407_TTA_CombineModel.c **** uint32_T TRCK1_ID2 = 26U;              /* Variable: TRCK1_ID2
 120:HANcoder_E407_TTA_CombineModel.c ****                                         * Referenced by: '<S10>/Constant5'
 121:HANcoder_E407_TTA_CombineModel.c ****                                         */
 122:HANcoder_E407_TTA_CombineModel.c **** uint32_T TRCK1_ID3 = 37U;              /* Variable: TRCK1_ID3
 123:HANcoder_E407_TTA_CombineModel.c ****                                         * Referenced by: '<S10>/Constant26'
 124:HANcoder_E407_TTA_CombineModel.c ****                                         */
 125:HANcoder_E407_TTA_CombineModel.c **** uint32_T TRLS1_ID4 = 48U;              /* Variable: TRLS1_ID4
 126:HANcoder_E407_TTA_CombineModel.c ****                                         * Referenced by: '<S10>/Constant8'
 127:HANcoder_E407_TTA_CombineModel.c ****                                         */
 128:HANcoder_E407_TTA_CombineModel.c **** uint32_T TRLS1_ID5 = 59U;              /* Variable: TRLS1_ID5
 129:HANcoder_E407_TTA_CombineModel.c ****                                         * Referenced by: '<S10>/Constant18'
 130:HANcoder_E407_TTA_CombineModel.c ****                                         */
 131:HANcoder_E407_TTA_CombineModel.c **** uint8_T maxMissedMessages = 10U;       /* Variable: maxMissedMessages
 132:HANcoder_E407_TTA_CombineModel.c ****                                         * Referenced by: '<S103>/Constant1'
 133:HANcoder_E407_TTA_CombineModel.c ****                                         */
 134:HANcoder_E407_TTA_CombineModel.c **** uint8_T slotTime = 10U;                /* Variable: slotTime
 135:HANcoder_E407_TTA_CombineModel.c ****                                         * Referenced by: '<S368>/Constant3'
 136:HANcoder_E407_TTA_CombineModel.c ****                                         */
 137:HANcoder_E407_TTA_CombineModel.c **** 
 138:HANcoder_E407_TTA_CombineModel.c **** /* Block signals (default storage) */
 139:HANcoder_E407_TTA_CombineModel.c **** BlockIO rtB;
 140:HANcoder_E407_TTA_CombineModel.c **** 
 141:HANcoder_E407_TTA_CombineModel.c **** /* Block states (default storage) */
 142:HANcoder_E407_TTA_CombineModel.c **** D_Work rtDWork;
 143:HANcoder_E407_TTA_CombineModel.c **** 
 144:HANcoder_E407_TTA_CombineModel.c **** /* Previous zero-crossings (trigger) states */
 145:HANcoder_E407_TTA_CombineModel.c **** PrevZCSigStates rtPrevZCSigState;
 146:HANcoder_E407_TTA_CombineModel.c **** 
 147:HANcoder_E407_TTA_CombineModel.c **** /* Forward declaration for local functions */
 148:HANcoder_E407_TTA_CombineModel.c **** static void SystemCore_setup(dsp_simulink_MovingAverage *obj);
 149:HANcoder_E407_TTA_CombineModel.c **** static tCanDataTypes canRxData_0_MMBS1_ID;
 150:HANcoder_E407_TTA_CombineModel.c **** static tCanDataTypes canTxData;
 151:HANcoder_E407_TTA_CombineModel.c **** static tCanDataTypes canRxData_0_SSTM1_ID;
 152:HANcoder_E407_TTA_CombineModel.c **** static tCanDataTypes canRxData_0_SYNC1_ID;
 153:HANcoder_E407_TTA_CombineModel.c **** static tCanDataTypes canRxData_0_TRCK1_ID2;
 154:HANcoder_E407_TTA_CombineModel.c **** static tCanDataTypes canRxData_0_TRCK1_ID1;
 155:HANcoder_E407_TTA_CombineModel.c **** static tCanDataTypes canRxData_0_TRCK1_ID3;
 156:HANcoder_E407_TTA_CombineModel.c **** static tCanDataTypes canRxData_0_TRLS1_ID4;
 157:HANcoder_E407_TTA_CombineModel.c **** static tCanDataTypes canRxData_0_TRLS1_ID5;
 158:HANcoder_E407_TTA_CombineModel.c **** static tCanDataTypes canRxData_0_SYNC1_ID;
 159:HANcoder_E407_TTA_CombineModel.c **** static uint16_t errCodesNumErrors;
 160:HANcoder_E407_TTA_CombineModel.c **** static tErrCodeData errCodesErrorBuf[8];
 161:HANcoder_E407_TTA_CombineModel.c **** static uint8_t errCodesHighestSeverity;
 162:HANcoder_E407_TTA_CombineModel.c **** static uint8_t errCodesTotalErrors;
 163:HANcoder_E407_TTA_CombineModel.c **** static uint8_t errCodesX, errCodesY;
 164:HANcoder_E407_TTA_CombineModel.c **** 
 165:HANcoder_E407_TTA_CombineModel.c **** /*
 166:HANcoder_E407_TTA_CombineModel.c ****  * Swaps the values of two bytes.
 167:HANcoder_E407_TTA_CombineModel.c ****  * a, b pointers to data values that need swapping
 168:HANcoder_E407_TTA_CombineModel.c ****  */
 169:HANcoder_E407_TTA_CombineModel.c **** static void swap(unsigned char *a, unsigned char *b)
 170:HANcoder_E407_TTA_CombineModel.c **** {
 171:HANcoder_E407_TTA_CombineModel.c ****   register char i = *a;
 172:HANcoder_E407_TTA_CombineModel.c ****   *a = *b;
 173:HANcoder_E407_TTA_CombineModel.c ****   *b = i;
 174:HANcoder_E407_TTA_CombineModel.c **** }                                      /*** end of swap ***/
 175:HANcoder_E407_TTA_CombineModel.c **** 
 176:HANcoder_E407_TTA_CombineModel.c **** /*
 177:HANcoder_E407_TTA_CombineModel.c ****  * Swaps all bytes in b. Typically used to fix endianes.
 178:HANcoder_E407_TTA_CombineModel.c ****  * b pointer to data with bytes to swap
 179:HANcoder_E407_TTA_CombineModel.c ****  * n number of bytes to swap
 180:HANcoder_E407_TTA_CombineModel.c ****  */
 181:HANcoder_E407_TTA_CombineModel.c **** void ByteSwap_x(uint8_t *b, size_t n)
 182:HANcoder_E407_TTA_CombineModel.c **** {
 183:HANcoder_E407_TTA_CombineModel.c ****   int i = 0;
 184:HANcoder_E407_TTA_CombineModel.c ****   int j = n-1;
 185:HANcoder_E407_TTA_CombineModel.c ****   while (i<j) {
 186:HANcoder_E407_TTA_CombineModel.c ****     swap(&b[i], &b[j]);
 187:HANcoder_E407_TTA_CombineModel.c ****     i++, j--;
 188:HANcoder_E407_TTA_CombineModel.c ****   }
 189:HANcoder_E407_TTA_CombineModel.c **** }
 190:HANcoder_E407_TTA_CombineModel.c **** 
 191:HANcoder_E407_TTA_CombineModel.c **** void TimeoutEventIRQ_TIMEOUT_TIM4_PIN_PD12(void)
 192:HANcoder_E407_TTA_CombineModel.c **** {
 193:HANcoder_E407_TTA_CombineModel.c ****   /* Output and update for function-call system: '<S1>/Local Time generation' */
 194:HANcoder_E407_TTA_CombineModel.c ****   {
 195:HANcoder_E407_TTA_CombineModel.c ****     /* local block i/o variables */
 196:HANcoder_E407_TTA_CombineModel.c ****     uint16_T rtb_Level2MfileSFunction;
 197:HANcoder_E407_TTA_CombineModel.c ****     boolean_T rtb_Equal;
 198:HANcoder_E407_TTA_CombineModel.c **** 
 199:HANcoder_E407_TTA_CombineModel.c ****     /* SignalConversion generated from: '<S9>/Clock_State' */
 200:HANcoder_E407_TTA_CombineModel.c ****     canActive = rtB.OR;
 201:HANcoder_E407_TTA_CombineModel.c **** 
 202:HANcoder_E407_TTA_CombineModel.c ****     /* Switch: '<S9>/Switch' */
 203:HANcoder_E407_TTA_CombineModel.c ****     if (canActive) {
 204:HANcoder_E407_TTA_CombineModel.c ****       /* Switch: '<S9>/Switch' incorporates:
 205:HANcoder_E407_TTA_CombineModel.c ****        *  Constant: '<S9>/Constant2'
 206:HANcoder_E407_TTA_CombineModel.c ****        *  DataStoreRead: '<S9>/Data Store Read'
 207:HANcoder_E407_TTA_CombineModel.c ****        *  Sum: '<S9>/Sum1'
 208:HANcoder_E407_TTA_CombineModel.c ****        */
 209:HANcoder_E407_TTA_CombineModel.c ****       local_ticks_interrupt = (uint8_T)((uint32_T)rtDWork.Local_Ticks +
 210:HANcoder_E407_TTA_CombineModel.c ****         ((uint8_T)1U));
 211:HANcoder_E407_TTA_CombineModel.c ****     } else {
 212:HANcoder_E407_TTA_CombineModel.c ****       /* Switch: '<S9>/Switch' incorporates:
 213:HANcoder_E407_TTA_CombineModel.c ****        *  DataStoreRead: '<S9>/Data Store Read1'
 214:HANcoder_E407_TTA_CombineModel.c ****        */
 215:HANcoder_E407_TTA_CombineModel.c ****       local_ticks_interrupt = rtDWork.Local_Ticks;
 216:HANcoder_E407_TTA_CombineModel.c ****     }
 217:HANcoder_E407_TTA_CombineModel.c **** 
 218:HANcoder_E407_TTA_CombineModel.c ****     /* End of Switch: '<S9>/Switch' */
 219:HANcoder_E407_TTA_CombineModel.c **** 
 220:HANcoder_E407_TTA_CombineModel.c ****     /* DataStoreWrite: '<S9>/Data Store Write' */
 221:HANcoder_E407_TTA_CombineModel.c ****     rtDWork.Local_Ticks = local_ticks_interrupt;
 222:HANcoder_E407_TTA_CombineModel.c **** 
 223:HANcoder_E407_TTA_CombineModel.c ****     /* DataStoreRead: '<S9>/Data Store Read3' */
 224:HANcoder_E407_TTA_CombineModel.c ****     setSlotTime = rtDWork.SlotTime;
 225:HANcoder_E407_TTA_CombineModel.c **** 
 226:HANcoder_E407_TTA_CombineModel.c ****     /* M-S-Function: '<S100>/Level-2 M-file S-Function' incorporates:
 227:HANcoder_E407_TTA_CombineModel.c ****      *  DataTypeConversion: '<S9>/Cast'
 228:HANcoder_E407_TTA_CombineModel.c ****      */
 229:HANcoder_E407_TTA_CombineModel.c ****     rtb_Level2MfileSFunction = setSlotTime;
 230:HANcoder_E407_TTA_CombineModel.c **** 
 231:HANcoder_E407_TTA_CombineModel.c ****     /* RelationalOperator: '<S9>/Equal' incorporates:
 232:HANcoder_E407_TTA_CombineModel.c ****      *  DataStoreRead: '<S9>/Data Store Read2'
 233:HANcoder_E407_TTA_CombineModel.c ****      */
 234:HANcoder_E407_TTA_CombineModel.c ****     rtb_Equal = (rtDWork.Local_Ticks >= rtb_Level2MfileSFunction);
 235:HANcoder_E407_TTA_CombineModel.c **** 
 236:HANcoder_E407_TTA_CombineModel.c ****     /* Outputs for Triggered SubSystem: '<S9>/Enabled Subsystem' incorporates:
 237:HANcoder_E407_TTA_CombineModel.c ****      *  TriggerPort: '<S99>/Trigger'
 238:HANcoder_E407_TTA_CombineModel.c ****      */
 239:HANcoder_E407_TTA_CombineModel.c ****     if (rtb_Equal && (rtPrevZCSigState.EnabledSubsystem_Trig_ZCE != POS_ZCSIG))
 240:HANcoder_E407_TTA_CombineModel.c ****     {
 241:HANcoder_E407_TTA_CombineModel.c ****       /* Switch: '<S99>/Switch' incorporates:
 242:HANcoder_E407_TTA_CombineModel.c ****        *  Constant: '<S99>/Constant1'
 243:HANcoder_E407_TTA_CombineModel.c ****        *  DataStoreRead: '<S99>/Data Store Read1'
 244:HANcoder_E407_TTA_CombineModel.c ****        *  DataTypeConversion: '<S99>/Cast'
 245:HANcoder_E407_TTA_CombineModel.c ****        *  RelationalOperator: '<S99>/Equal'
 246:HANcoder_E407_TTA_CombineModel.c ****        */
 247:HANcoder_E407_TTA_CombineModel.c ****       if (rtDWork.slot < (uint8_T)matrixRows) {
 248:HANcoder_E407_TTA_CombineModel.c ****         /* Switch: '<S99>/Switch' incorporates:
 249:HANcoder_E407_TTA_CombineModel.c ****          *  Constant: '<S99>/Constant'
 250:HANcoder_E407_TTA_CombineModel.c ****          *  DataStoreRead: '<S99>/Data Store Read'
 251:HANcoder_E407_TTA_CombineModel.c ****          *  Sum: '<S99>/Plus'
 252:HANcoder_E407_TTA_CombineModel.c ****          */
 253:HANcoder_E407_TTA_CombineModel.c ****         slotSelected = (uint8_T)((uint32_T)rtDWork.slot + ((uint8_T)1U));
 254:HANcoder_E407_TTA_CombineModel.c ****       } else {
 255:HANcoder_E407_TTA_CombineModel.c ****         /* Switch: '<S99>/Switch' incorporates:
 256:HANcoder_E407_TTA_CombineModel.c ****          *  Constant: '<S99>/Constant2'
 257:HANcoder_E407_TTA_CombineModel.c ****          */
 258:HANcoder_E407_TTA_CombineModel.c ****         slotSelected = (uint8_T)1.0;
 259:HANcoder_E407_TTA_CombineModel.c ****       }
 260:HANcoder_E407_TTA_CombineModel.c **** 
 261:HANcoder_E407_TTA_CombineModel.c ****       /* End of Switch: '<S99>/Switch' */
 262:HANcoder_E407_TTA_CombineModel.c **** 
 263:HANcoder_E407_TTA_CombineModel.c ****       /* DataStoreWrite: '<S99>/Data Store Write' */
 264:HANcoder_E407_TTA_CombineModel.c ****       rtDWork.slot = slotSelected;
 265:HANcoder_E407_TTA_CombineModel.c **** 
 266:HANcoder_E407_TTA_CombineModel.c ****       /* DataStoreWrite: '<S99>/Data Store Write1' incorporates:
 267:HANcoder_E407_TTA_CombineModel.c ****        *  Constant: '<S99>/Constant3'
 268:HANcoder_E407_TTA_CombineModel.c ****        */
 269:HANcoder_E407_TTA_CombineModel.c ****       rtDWork.Local_Ticks = ((uint8_T)0U);
 270:HANcoder_E407_TTA_CombineModel.c ****     }
 271:HANcoder_E407_TTA_CombineModel.c **** 
 272:HANcoder_E407_TTA_CombineModel.c ****     rtPrevZCSigState.EnabledSubsystem_Trig_ZCE = rtb_Equal;
 273:HANcoder_E407_TTA_CombineModel.c **** 
 274:HANcoder_E407_TTA_CombineModel.c ****     /* End of Outputs for SubSystem: '<S9>/Enabled Subsystem' */
 275:HANcoder_E407_TTA_CombineModel.c ****     /* M-S-Function: '<S100>/Level-2 M-file S-Function' */
 276:HANcoder_E407_TTA_CombineModel.c ****     /* read 16-bit free running counter timestamp of the last output compare event */
 277:HANcoder_E407_TTA_CombineModel.c ****     rtb_Level2MfileSFunction = TimeoutGetLastEventCounter(TIMEOUT_TIM4_PIN_PD12);
 278:HANcoder_E407_TTA_CombineModel.c **** 
 279:HANcoder_E407_TTA_CombineModel.c ****     /* Sum: '<S9>/Sum' incorporates:
 280:HANcoder_E407_TTA_CombineModel.c ****      *  Constant: '<S9>/Constant'
 281:HANcoder_E407_TTA_CombineModel.c ****      */
 282:HANcoder_E407_TTA_CombineModel.c ****     rtB.Sum = (uint16_T)((uint32_T)rtb_Level2MfileSFunction + ((uint16_T)1000U));
 283:HANcoder_E407_TTA_CombineModel.c **** 
 284:HANcoder_E407_TTA_CombineModel.c ****     /* Update for M-S-Function: '<S101>/Level-2 M-file S-Function' incorporates:
 285:HANcoder_E407_TTA_CombineModel.c ****      *  Constant: '<S9>/Constant1'
 286:HANcoder_E407_TTA_CombineModel.c ****      */
 287:HANcoder_E407_TTA_CombineModel.c ****     /* schedule the next output compare event */
 288:HANcoder_E407_TTA_CombineModel.c ****     TimeoutScheduleCompareEvent(TIMEOUT_TIM4_PIN_PD12, rtB.Sum, (tTimeoutAction)
 289:HANcoder_E407_TTA_CombineModel.c ****       ((uint8_T)3U));
 290:HANcoder_E407_TTA_CombineModel.c ****   }
 291:HANcoder_E407_TTA_CombineModel.c **** }
 292:HANcoder_E407_TTA_CombineModel.c **** 
 293:HANcoder_E407_TTA_CombineModel.c **** void PwmoutIRQ_PWMOUT_MODULE_TIM14(void)
 294:HANcoder_E407_TTA_CombineModel.c **** {
  29              		.loc 1 294 1 view -0
  30              		.cfi_startproc
  31              		@ args = 0, pretend = 0, frame = 0
  32              		@ frame_needed = 0, uses_anonymous_args = 0
  33              		@ link register save eliminated.
 295:HANcoder_E407_TTA_CombineModel.c **** }
  34              		.loc 1 295 1 view .LVU1
  35 0000 7047     		bx	lr
  36              		.cfi_endproc
  37              	.LFE114:
  39              		.global	__aeabi_d2uiz
  40 0002 00BF     		.section	.text.TimeoutEventIRQ_TIMEOUT_TIM4_PIN_PD12,"ax",%progbits
  41              		.align	1
  42              		.p2align 2,,3
  43              		.global	TimeoutEventIRQ_TIMEOUT_TIM4_PIN_PD12
  44              		.syntax unified
  45              		.thumb
  46              		.thumb_func
  48              	TimeoutEventIRQ_TIMEOUT_TIM4_PIN_PD12:
  49              	.LFB113:
 192:HANcoder_E407_TTA_CombineModel.c ****   /* Output and update for function-call system: '<S1>/Local Time generation' */
  50              		.loc 1 192 1 view -0
  51              		.cfi_startproc
  52              		@ args = 0, pretend = 0, frame = 0
  53              		@ frame_needed = 0, uses_anonymous_args = 0
  54              	.LBB219:
 196:HANcoder_E407_TTA_CombineModel.c ****     boolean_T rtb_Equal;
  55              		.loc 1 196 5 view .LVU3
 197:HANcoder_E407_TTA_CombineModel.c **** 
  56              		.loc 1 197 5 view .LVU4
 200:HANcoder_E407_TTA_CombineModel.c **** 
  57              		.loc 1 200 5 view .LVU5
  58              	.LBE219:
 192:HANcoder_E407_TTA_CombineModel.c ****   /* Output and update for function-call system: '<S1>/Local Time generation' */
  59              		.loc 1 192 1 is_stmt 0 view .LVU6
  60 0000 2DE9F041 		push	{r4, r5, r6, r7, r8, lr}
  61              		.cfi_def_cfa_offset 24
  62              		.cfi_offset 4, -24
  63              		.cfi_offset 5, -20
  64              		.cfi_offset 6, -16
  65              		.cfi_offset 7, -12
  66              		.cfi_offset 8, -8
  67              		.cfi_offset 14, -4
  68              	.LBB220:
 200:HANcoder_E407_TTA_CombineModel.c **** 
  69              		.loc 1 200 20 view .LVU7
  70 0004 224D     		ldr	r5, .L15
 200:HANcoder_E407_TTA_CombineModel.c **** 
  71              		.loc 1 200 15 view .LVU8
  72 0006 234A     		ldr	r2, .L15+4
 200:HANcoder_E407_TTA_CombineModel.c **** 
  73              		.loc 1 200 20 view .LVU9
  74 0008 95F83730 		ldrb	r3, [r5, #55]	@ zero_extendqisi2
 209:HANcoder_E407_TTA_CombineModel.c ****         ((uint8_T)1U));
  75              		.loc 1 209 58 view .LVU10
  76 000c 224C     		ldr	r4, .L15+8
 200:HANcoder_E407_TTA_CombineModel.c **** 
  77              		.loc 1 200 15 view .LVU11
  78 000e 1370     		strb	r3, [r2]
 203:HANcoder_E407_TTA_CombineModel.c ****       /* Switch: '<S9>/Switch' incorporates:
  79              		.loc 1 203 5 is_stmt 1 view .LVU12
 203:HANcoder_E407_TTA_CombineModel.c ****       /* Switch: '<S9>/Switch' incorporates:
  80              		.loc 1 203 8 is_stmt 0 view .LVU13
  81 0010 002B     		cmp	r3, #0
  82 0012 3AD0     		beq	.L4
 209:HANcoder_E407_TTA_CombineModel.c ****         ((uint8_T)1U));
  83              		.loc 1 209 7 is_stmt 1 view .LVU14
 209:HANcoder_E407_TTA_CombineModel.c ****         ((uint8_T)1U));
  84              		.loc 1 209 31 is_stmt 0 view .LVU15
  85 0014 94F8DF30 		ldrb	r3, [r4, #223]	@ zero_extendqisi2
  86 0018 0133     		adds	r3, r3, #1
  87 001a DBB2     		uxtb	r3, r3
  88              	.L5:
  89 001c 1F49     		ldr	r1, .L15+12
 224:HANcoder_E407_TTA_CombineModel.c **** 
  90              		.loc 1 224 26 view .LVU16
  91 001e 94F8E220 		ldrb	r2, [r4, #226]	@ zero_extendqisi2
  92 0022 0B70     		strb	r3, [r1]
 221:HANcoder_E407_TTA_CombineModel.c **** 
  93              		.loc 1 221 5 is_stmt 1 view .LVU17
 224:HANcoder_E407_TTA_CombineModel.c **** 
  94              		.loc 1 224 17 is_stmt 0 view .LVU18
  95 0024 1E49     		ldr	r1, .L15+16
 239:HANcoder_E407_TTA_CombineModel.c ****     {
  96              		.loc 1 239 39 view .LVU19
  97 0026 1F4E     		ldr	r6, .L15+20
 221:HANcoder_E407_TTA_CombineModel.c **** 
  98              		.loc 1 221 25 view .LVU20
  99 0028 84F8DF30 		strb	r3, [r4, #223]
 224:HANcoder_E407_TTA_CombineModel.c **** 
 100              		.loc 1 224 5 is_stmt 1 view .LVU21
 234:HANcoder_E407_TTA_CombineModel.c **** 
 101              		.loc 1 234 38 is_stmt 0 view .LVU22
 102 002c 9A42     		cmp	r2, r3
 224:HANcoder_E407_TTA_CombineModel.c **** 
 103              		.loc 1 224 17 view .LVU23
 104 002e 0A70     		strb	r2, [r1]
 229:HANcoder_E407_TTA_CombineModel.c **** 
 105              		.loc 1 229 5 is_stmt 1 view .LVU24
 106              	.LVL0:
 234:HANcoder_E407_TTA_CombineModel.c **** 
 107              		.loc 1 234 5 view .LVU25
 234:HANcoder_E407_TTA_CombineModel.c **** 
 108              		.loc 1 234 15 is_stmt 0 view .LVU26
 109 0030 94BF     		ite	ls
 110 0032 4FF00108 		movls	r8, #1
 111 0036 4FF00008 		movhi	r8, #0
 112              	.LVL1:
 239:HANcoder_E407_TTA_CombineModel.c ****     {
 113              		.loc 1 239 5 is_stmt 1 view .LVU27
 239:HANcoder_E407_TTA_CombineModel.c ****     {
 114              		.loc 1 239 8 is_stmt 0 view .LVU28
 115 003a 17D8     		bhi	.L6
 239:HANcoder_E407_TTA_CombineModel.c ****     {
 116              		.loc 1 239 19 discriminator 1 view .LVU29
 117 003c 737B     		ldrb	r3, [r6, #13]	@ zero_extendqisi2
 118 003e 012B     		cmp	r3, #1
 119 0040 14D0     		beq	.L6
 247:HANcoder_E407_TTA_CombineModel.c ****         /* Switch: '<S99>/Switch' incorporates:
 120              		.loc 1 247 7 is_stmt 1 view .LVU30
 247:HANcoder_E407_TTA_CombineModel.c ****         /* Switch: '<S99>/Switch' incorporates:
 121              		.loc 1 247 26 is_stmt 0 view .LVU31
 122 0042 194B     		ldr	r3, .L15+24
 247:HANcoder_E407_TTA_CombineModel.c ****         /* Switch: '<S99>/Switch' incorporates:
 123              		.loc 1 247 18 view .LVU32
 124 0044 94F8E170 		ldrb	r7, [r4, #225]	@ zero_extendqisi2
 247:HANcoder_E407_TTA_CombineModel.c ****         /* Switch: '<S99>/Switch' incorporates:
 125              		.loc 1 247 26 view .LVU33
 126 0048 D3E90001 		ldrd	r0, [r3]
 127 004c FFF7FEFF 		bl	__aeabi_d2uiz
 128              	.LVL2:
 247:HANcoder_E407_TTA_CombineModel.c ****         /* Switch: '<S99>/Switch' incorporates:
 129              		.loc 1 247 10 view .LVU34
 130 0050 C0B2     		uxtb	r0, r0
 131 0052 B842     		cmp	r0, r7
 253:HANcoder_E407_TTA_CombineModel.c ****       } else {
 132              		.loc 1 253 9 is_stmt 1 view .LVU35
 253:HANcoder_E407_TTA_CombineModel.c ****       } else {
 133              		.loc 1 253 24 is_stmt 0 view .LVU36
 134 0054 88BF     		it	hi
 135 0056 7B1C     		addhi	r3, r7, #1
 136 0058 144A     		ldr	r2, .L15+28
 137 005a 8CBF     		ite	hi
 138 005c DBB2     		uxtbhi	r3, r3
 258:HANcoder_E407_TTA_CombineModel.c ****       }
 139              		.loc 1 258 22 view .LVU37
 140 005e 0123     		movls	r3, #1
 264:HANcoder_E407_TTA_CombineModel.c **** 
 141              		.loc 1 264 20 view .LVU38
 142 0060 84F8E130 		strb	r3, [r4, #225]
 143 0064 1370     		strb	r3, [r2]
 264:HANcoder_E407_TTA_CombineModel.c **** 
 144              		.loc 1 264 7 is_stmt 1 view .LVU39
 269:HANcoder_E407_TTA_CombineModel.c ****     }
 145              		.loc 1 269 7 view .LVU40
 269:HANcoder_E407_TTA_CombineModel.c ****     }
 146              		.loc 1 269 27 is_stmt 0 view .LVU41
 147 0066 0023     		movs	r3, #0
 148 0068 84F8DF30 		strb	r3, [r4, #223]
 149              	.L6:
 272:HANcoder_E407_TTA_CombineModel.c **** 
 150              		.loc 1 272 5 is_stmt 1 view .LVU42
 277:HANcoder_E407_TTA_CombineModel.c **** 
 151              		.loc 1 277 32 is_stmt 0 view .LVU43
 152 006c 0720     		movs	r0, #7
 272:HANcoder_E407_TTA_CombineModel.c **** 
 153              		.loc 1 272 48 view .LVU44
 154 006e 86F80D80 		strb	r8, [r6, #13]
 277:HANcoder_E407_TTA_CombineModel.c **** 
 155              		.loc 1 277 5 is_stmt 1 view .LVU45
 277:HANcoder_E407_TTA_CombineModel.c **** 
 156              		.loc 1 277 32 is_stmt 0 view .LVU46
 157 0072 FFF7FEFF 		bl	TimeoutGetLastEventCounter
 158              	.LVL3:
 282:HANcoder_E407_TTA_CombineModel.c **** 
 159              		.loc 1 282 5 is_stmt 1 view .LVU47
 282:HANcoder_E407_TTA_CombineModel.c **** 
 160              		.loc 1 282 15 is_stmt 0 view .LVU48
 161 0076 00F57A70 		add	r0, r0, #1000
 162              	.LVL4:
 282:HANcoder_E407_TTA_CombineModel.c **** 
 163              		.loc 1 282 15 view .LVU49
 164 007a 81B2     		uxth	r1, r0
 282:HANcoder_E407_TTA_CombineModel.c **** 
 165              		.loc 1 282 13 view .LVU50
 166 007c 6980     		strh	r1, [r5, #2]	@ movhi
 288:HANcoder_E407_TTA_CombineModel.c ****       ((uint8_T)3U));
 167              		.loc 1 288 5 is_stmt 1 view .LVU51
 168 007e 0322     		movs	r2, #3
 169              	.LBE220:
 291:HANcoder_E407_TTA_CombineModel.c **** 
 170              		.loc 1 291 1 is_stmt 0 view .LVU52
 171 0080 BDE8F041 		pop	{r4, r5, r6, r7, r8, lr}
 172              		.cfi_remember_state
 173              		.cfi_restore 14
 174              		.cfi_restore 8
 175              		.cfi_restore 7
 176              		.cfi_restore 6
 177              		.cfi_restore 5
 178              		.cfi_restore 4
 179              		.cfi_def_cfa_offset 0
 180              	.LVL5:
 181              	.LBB221:
 288:HANcoder_E407_TTA_CombineModel.c ****       ((uint8_T)3U));
 182              		.loc 1 288 5 view .LVU53
 183 0084 0720     		movs	r0, #7
 184 0086 FFF7FEBF 		b	TimeoutScheduleCompareEvent
 185              	.LVL6:
 186              	.L4:
 187              		.cfi_restore_state
 215:HANcoder_E407_TTA_CombineModel.c ****     }
 188              		.loc 1 215 7 is_stmt 1 view .LVU54
 215:HANcoder_E407_TTA_CombineModel.c ****     }
 189              		.loc 1 215 38 is_stmt 0 view .LVU55
 190 008a 94F8DF30 		ldrb	r3, [r4, #223]	@ zero_extendqisi2
 191 008e C5E7     		b	.L5
 192              	.L16:
 193              		.align	2
 194              	.L15:
 195 0090 00000000 		.word	.LANCHOR0
 196 0094 00000000 		.word	.LANCHOR1
 197 0098 00000000 		.word	.LANCHOR2
 198 009c 00000000 		.word	.LANCHOR3
 199 00a0 00000000 		.word	.LANCHOR4
 200 00a4 00000000 		.word	.LANCHOR5
 201 00a8 00000000 		.word	.LANCHOR6
 202 00ac 00000000 		.word	.LANCHOR7
 203              	.LBE221:
 204              		.cfi_endproc
 205              	.LFE113:
 207              		.section	.text.TimeoutOverflowIRQ_TIMEOUT_MODULE_TIM4,"ax",%progbits
 208              		.align	1
 209              		.p2align 2,,3
 210              		.global	TimeoutOverflowIRQ_TIMEOUT_MODULE_TIM4
 211              		.syntax unified
 212              		.thumb
 213              		.thumb_func
 215              	TimeoutOverflowIRQ_TIMEOUT_MODULE_TIM4:
 216              	.LFB140:
 217              		.cfi_startproc
 218              		@ args = 0, pretend = 0, frame = 0
 219              		@ frame_needed = 0, uses_anonymous_args = 0
 220              		@ link register save eliminated.
 221 0000 7047     		bx	lr
 222              		.cfi_endproc
 223              	.LFE140:
 225 0002 00BF     		.section	.text.ByteSwap_x,"ax",%progbits
 226              		.align	1
 227              		.p2align 2,,3
 228              		.global	ByteSwap_x
 229              		.syntax unified
 230              		.thumb
 231              		.thumb_func
 233              	ByteSwap_x:
 234              	.LVL7:
 235              	.LFB112:
 182:HANcoder_E407_TTA_CombineModel.c ****   int i = 0;
 236              		.loc 1 182 1 is_stmt 1 view -0
 237              		.cfi_startproc
 238              		@ args = 0, pretend = 0, frame = 0
 239              		@ frame_needed = 0, uses_anonymous_args = 0
 183:HANcoder_E407_TTA_CombineModel.c ****   int j = n-1;
 240              		.loc 1 183 3 view .LVU57
 184:HANcoder_E407_TTA_CombineModel.c ****   while (i<j) {
 241              		.loc 1 184 3 view .LVU58
 182:HANcoder_E407_TTA_CombineModel.c ****   int i = 0;
 242              		.loc 1 182 1 is_stmt 0 view .LVU59
 243 0000 70B5     		push	{r4, r5, r6, lr}
 244              		.cfi_def_cfa_offset 16
 245              		.cfi_offset 4, -16
 246              		.cfi_offset 5, -12
 247              		.cfi_offset 6, -8
 248              		.cfi_offset 14, -4
 184:HANcoder_E407_TTA_CombineModel.c ****   while (i<j) {
 249              		.loc 1 184 12 view .LVU60
 250 0002 01F1FF3E 		add	lr, r1, #-1
 251              	.LVL8:
 185:HANcoder_E407_TTA_CombineModel.c ****     swap(&b[i], &b[j]);
 252              		.loc 1 185 3 is_stmt 1 view .LVU61
 185:HANcoder_E407_TTA_CombineModel.c ****     swap(&b[i], &b[j]);
 253              		.loc 1 185 9 view .LVU62
 254 0006 BEF1000F 		cmp	lr, #0
 255 000a 15DD     		ble	.L18
 256 000c 00F1FF3C 		add	ip, r0, #-1
 257 0010 8644     		add	lr, lr, r0
 258              	.LVL9:
 185:HANcoder_E407_TTA_CombineModel.c ****     swap(&b[i], &b[j]);
 259              		.loc 1 185 9 is_stmt 0 view .LVU63
 260 0012 6FF00106 		mvn	r6, #1
 261              	.LVL10:
 262              	.L20:
 186:HANcoder_E407_TTA_CombineModel.c ****     i++, j--;
 263              		.loc 1 186 5 is_stmt 1 view .LVU64
 264              	.LBB222:
 265              	.LBI222:
 169:HANcoder_E407_TTA_CombineModel.c **** {
 266              		.loc 1 169 13 view .LVU65
 267              	.LBB223:
 171:HANcoder_E407_TTA_CombineModel.c ****   *a = *b;
 268              		.loc 1 171 3 view .LVU66
 269 0016 6246     		mov	r2, ip
 171:HANcoder_E407_TTA_CombineModel.c ****   *a = *b;
 270              		.loc 1 171 17 is_stmt 0 view .LVU67
 271 0018 1CF8014F 		ldrb	r4, [ip, #1]!	@ zero_extendqisi2
 272              	.LVL11:
 172:HANcoder_E407_TTA_CombineModel.c ****   *b = i;
 273              		.loc 1 172 3 is_stmt 1 view .LVU68
 172:HANcoder_E407_TTA_CombineModel.c ****   *b = i;
 274              		.loc 1 172 8 is_stmt 0 view .LVU69
 275 001c 9EF80050 		ldrb	r5, [lr]	@ zero_extendqisi2
 172:HANcoder_E407_TTA_CombineModel.c ****   *b = i;
 276              		.loc 1 172 6 view .LVU70
 277 0020 8CF80050 		strb	r5, [ip]
 173:HANcoder_E407_TTA_CombineModel.c **** }                                      /*** end of swap ***/
 278              		.loc 1 173 3 is_stmt 1 view .LVU71
 279              	.LBE223:
 280              	.LBE222:
 185:HANcoder_E407_TTA_CombineModel.c ****     swap(&b[i], &b[j]);
 281              		.loc 1 185 9 is_stmt 0 view .LVU72
 282 0024 A6EB0C03 		sub	r3, r6, ip
 283 0028 0232     		adds	r2, r2, #2
 284              	.LVL12:
 185:HANcoder_E407_TTA_CombineModel.c ****     swap(&b[i], &b[j]);
 285              		.loc 1 185 9 view .LVU73
 286 002a 0344     		add	r3, r3, r0
 287 002c 121A     		subs	r2, r2, r0
 288              	.LVL13:
 185:HANcoder_E407_TTA_CombineModel.c ****     swap(&b[i], &b[j]);
 289              		.loc 1 185 9 view .LVU74
 290 002e 0B44     		add	r3, r3, r1
 291 0030 9A42     		cmp	r2, r3
 292              	.LBB225:
 293              	.LBB224:
 173:HANcoder_E407_TTA_CombineModel.c **** }                                      /*** end of swap ***/
 294              		.loc 1 173 6 view .LVU75
 295 0032 0EF80149 		strb	r4, [lr], #-1
 296              	.LVL14:
 173:HANcoder_E407_TTA_CombineModel.c **** }                                      /*** end of swap ***/
 297              		.loc 1 173 6 view .LVU76
 298              	.LBE224:
 299              	.LBE225:
 187:HANcoder_E407_TTA_CombineModel.c ****   }
 300              		.loc 1 187 5 is_stmt 1 view .LVU77
 185:HANcoder_E407_TTA_CombineModel.c ****     swap(&b[i], &b[j]);
 301              		.loc 1 185 9 view .LVU78
 302 0036 EEDB     		blt	.L20
 303              	.LVL15:
 304              	.L18:
 189:HANcoder_E407_TTA_CombineModel.c **** 
 305              		.loc 1 189 1 is_stmt 0 view .LVU79
 306 0038 70BD     		pop	{r4, r5, r6, pc}
 307              		.cfi_endproc
 308              	.LFE112:
 310 003a 00BF     		.section	.text.MovingAverage_Init,"ax",%progbits
 311              		.align	1
 312              		.p2align 2,,3
 313              		.global	MovingAverage_Init
 314              		.syntax unified
 315              		.thumb
 316              		.thumb_func
 318              	MovingAverage_Init:
 319              	.LVL16:
 320              	.LFB117:
 296:HANcoder_E407_TTA_CombineModel.c **** 
 297:HANcoder_E407_TTA_CombineModel.c **** void TimeoutOverflowIRQ_TIMEOUT_MODULE_TIM4(void)
 298:HANcoder_E407_TTA_CombineModel.c **** {
 299:HANcoder_E407_TTA_CombineModel.c **** }
 300:HANcoder_E407_TTA_CombineModel.c **** 
 301:HANcoder_E407_TTA_CombineModel.c **** static void SystemCore_setup(dsp_simulink_MovingAverage *obj)
 302:HANcoder_E407_TTA_CombineModel.c **** {
 303:HANcoder_E407_TTA_CombineModel.c ****   obj->isSetupComplete = false;
 304:HANcoder_E407_TTA_CombineModel.c ****   obj->isInitialized = 1;
 305:HANcoder_E407_TTA_CombineModel.c ****   obj->NumChannels = 1;
 306:HANcoder_E407_TTA_CombineModel.c ****   obj->FrameLength = 1;
 307:HANcoder_E407_TTA_CombineModel.c ****   obj->_pobj0.isInitialized = 0;
 308:HANcoder_E407_TTA_CombineModel.c ****   obj->_pobj0.isInitialized = 0;
 309:HANcoder_E407_TTA_CombineModel.c ****   obj->pStatistic = &obj->_pobj0;
 310:HANcoder_E407_TTA_CombineModel.c ****   obj->isSetupComplete = true;
 311:HANcoder_E407_TTA_CombineModel.c ****   obj->TunablePropsChanged = false;
 312:HANcoder_E407_TTA_CombineModel.c **** }
 313:HANcoder_E407_TTA_CombineModel.c **** 
 314:HANcoder_E407_TTA_CombineModel.c **** /* System initialize for atomic system: */
 315:HANcoder_E407_TTA_CombineModel.c **** void MovingAverage_Init(rtDW_MovingAverage *localDW)
 316:HANcoder_E407_TTA_CombineModel.c **** {
 321              		.loc 1 316 1 is_stmt 1 view -0
 322              		.cfi_startproc
 323              		@ args = 0, pretend = 0, frame = 0
 324              		@ frame_needed = 0, uses_anonymous_args = 0
 317:HANcoder_E407_TTA_CombineModel.c ****   g_dsp_internal_SlidingWindowAve *obj;
 325              		.loc 1 317 3 view .LVU81
 318:HANcoder_E407_TTA_CombineModel.c ****   int32_T i;
 326              		.loc 1 318 3 view .LVU82
 319:HANcoder_E407_TTA_CombineModel.c **** 
 320:HANcoder_E407_TTA_CombineModel.c ****   /* InitializeConditions for MATLABSystem: '<S78>/Moving Average' */
 321:HANcoder_E407_TTA_CombineModel.c ****   obj = localDW->obj.pStatistic;
 327              		.loc 1 321 3 view .LVU83
 316:HANcoder_E407_TTA_CombineModel.c ****   g_dsp_internal_SlidingWindowAve *obj;
 328              		.loc 1 316 1 is_stmt 0 view .LVU84
 329 0000 38B5     		push	{r3, r4, r5, lr}
 330              		.cfi_def_cfa_offset 16
 331              		.cfi_offset 3, -16
 332              		.cfi_offset 4, -12
 333              		.cfi_offset 5, -8
 334              		.cfi_offset 14, -4
 335              		.loc 1 321 7 view .LVU85
 336 0002 C46A     		ldr	r4, [r0, #44]
 337              	.LVL17:
 322:HANcoder_E407_TTA_CombineModel.c ****   if (obj->isInitialized == 1) {
 338              		.loc 1 322 3 is_stmt 1 view .LVU86
 339              		.loc 1 322 6 is_stmt 0 view .LVU87
 340 0004 2368     		ldr	r3, [r4]
 341 0006 012B     		cmp	r3, #1
 342 0008 00D0     		beq	.L26
 323:HANcoder_E407_TTA_CombineModel.c ****     obj->pCumSum = 0.0F;
 324:HANcoder_E407_TTA_CombineModel.c ****     for (i = 0; i < 9; i++) {
 325:HANcoder_E407_TTA_CombineModel.c ****       obj->pCumSumRev[i] = 0.0F;
 326:HANcoder_E407_TTA_CombineModel.c ****     }
 327:HANcoder_E407_TTA_CombineModel.c **** 
 328:HANcoder_E407_TTA_CombineModel.c ****     obj->pCumRevIndex = 1.0F;
 329:HANcoder_E407_TTA_CombineModel.c ****     obj->pModValueRev = 0.0F;
 330:HANcoder_E407_TTA_CombineModel.c ****   }
 331:HANcoder_E407_TTA_CombineModel.c **** 
 332:HANcoder_E407_TTA_CombineModel.c ****   /* End of InitializeConditions for MATLABSystem: '<S78>/Moving Average' */
 333:HANcoder_E407_TTA_CombineModel.c **** }
 343              		.loc 1 333 1 view .LVU88
 344 000a 38BD     		pop	{r3, r4, r5, pc}
 345              	.LVL18:
 346              	.L26:
 323:HANcoder_E407_TTA_CombineModel.c ****     obj->pCumSum = 0.0F;
 347              		.loc 1 323 5 is_stmt 1 view .LVU89
 323:HANcoder_E407_TTA_CombineModel.c ****     obj->pCumSum = 0.0F;
 348              		.loc 1 323 18 is_stmt 0 view .LVU90
 349 000c 0025     		movs	r5, #0
 325:HANcoder_E407_TTA_CombineModel.c ****     }
 350              		.loc 1 325 26 view .LVU91
 351 000e 2422     		movs	r2, #36
 323:HANcoder_E407_TTA_CombineModel.c ****     obj->pCumSum = 0.0F;
 352              		.loc 1 323 18 view .LVU92
 353 0010 A560     		str	r5, [r4, #8]	@ float
 324:HANcoder_E407_TTA_CombineModel.c ****       obj->pCumSumRev[i] = 0.0F;
 354              		.loc 1 324 5 is_stmt 1 view .LVU93
 355              	.LVL19:
 324:HANcoder_E407_TTA_CombineModel.c ****       obj->pCumSumRev[i] = 0.0F;
 356              		.loc 1 324 17 view .LVU94
 325:HANcoder_E407_TTA_CombineModel.c ****     }
 357              		.loc 1 325 26 is_stmt 0 view .LVU95
 358 0012 0021     		movs	r1, #0
 359 0014 04F10C00 		add	r0, r4, #12
 360              	.LVL20:
 325:HANcoder_E407_TTA_CombineModel.c ****     }
 361              		.loc 1 325 26 view .LVU96
 362 0018 FFF7FEFF 		bl	memset
 363              	.LVL21:
 328:HANcoder_E407_TTA_CombineModel.c ****     obj->pModValueRev = 0.0F;
 364              		.loc 1 328 5 is_stmt 1 view .LVU97
 328:HANcoder_E407_TTA_CombineModel.c ****     obj->pModValueRev = 0.0F;
 365              		.loc 1 328 23 is_stmt 0 view .LVU98
 366 001c 4FF07E53 		mov	r3, #1065353216
 367 0020 2363     		str	r3, [r4, #48]	@ float
 329:HANcoder_E407_TTA_CombineModel.c ****   }
 368              		.loc 1 329 5 is_stmt 1 view .LVU99
 329:HANcoder_E407_TTA_CombineModel.c ****   }
 369              		.loc 1 329 23 is_stmt 0 view .LVU100
 370 0022 6563     		str	r5, [r4, #52]	@ float
 371              		.loc 1 333 1 view .LVU101
 372 0024 38BD     		pop	{r3, r4, r5, pc}
 373              		.loc 1 333 1 view .LVU102
 374              		.cfi_endproc
 375              	.LFE117:
 377 0026 00BF     		.section	.text.MovingAverage_Start,"ax",%progbits
 378              		.align	1
 379              		.p2align 2,,3
 380              		.global	MovingAverage_Start
 381              		.syntax unified
 382              		.thumb
 383              		.thumb_func
 385              	MovingAverage_Start:
 386              	.LVL22:
 387              	.LFB118:
 334:HANcoder_E407_TTA_CombineModel.c **** 
 335:HANcoder_E407_TTA_CombineModel.c **** /* Start for atomic system: */
 336:HANcoder_E407_TTA_CombineModel.c **** void MovingAverage_Start(rtDW_MovingAverage *localDW)
 337:HANcoder_E407_TTA_CombineModel.c **** {
 388              		.loc 1 337 1 is_stmt 1 view -0
 389              		.cfi_startproc
 390              		@ args = 0, pretend = 0, frame = 0
 391              		@ frame_needed = 0, uses_anonymous_args = 0
 392              		@ link register save eliminated.
 338:HANcoder_E407_TTA_CombineModel.c ****   /* Start for MATLABSystem: '<S78>/Moving Average' */
 339:HANcoder_E407_TTA_CombineModel.c ****   localDW->obj.isInitialized = 0;
 393              		.loc 1 339 3 view .LVU104
 340:HANcoder_E407_TTA_CombineModel.c ****   localDW->obj.NumChannels = -1;
 394              		.loc 1 340 3 view .LVU105
 341:HANcoder_E407_TTA_CombineModel.c ****   localDW->obj.FrameLength = -1;
 395              		.loc 1 341 3 view .LVU106
 342:HANcoder_E407_TTA_CombineModel.c ****   localDW->obj.matlabCodegenIsDeleted = false;
 396              		.loc 1 342 3 view .LVU107
 397              	.LBB226:
 398              	.LBB227:
 307:HANcoder_E407_TTA_CombineModel.c ****   obj->_pobj0.isInitialized = 0;
 399              		.loc 1 307 29 is_stmt 0 view .LVU108
 400 0000 0246     		mov	r2, r0
 401              	.LBE227:
 402              	.LBE226:
 343:HANcoder_E407_TTA_CombineModel.c ****   localDW->objisempty = true;
 403              		.loc 1 343 23 view .LVU109
 404 0002 0123     		movs	r3, #1
 342:HANcoder_E407_TTA_CombineModel.c ****   localDW->obj.matlabCodegenIsDeleted = false;
 405              		.loc 1 342 39 view .LVU110
 406 0004 0021     		movs	r1, #0
 407              	.LBB230:
 408              	.LBB228:
 306:HANcoder_E407_TTA_CombineModel.c ****   obj->_pobj0.isInitialized = 0;
 409              		.loc 1 306 20 view .LVU111
 410 0006 C0E90C33 		strd	r3, r3, [r0, #48]
 411              	.LBE228:
 412              	.LBE230:
 342:HANcoder_E407_TTA_CombineModel.c ****   localDW->objisempty = true;
 413              		.loc 1 342 39 view .LVU112
 414 000a 0170     		strb	r1, [r0]
 415              		.loc 1 343 3 is_stmt 1 view .LVU113
 416              		.loc 1 343 23 is_stmt 0 view .LVU114
 417 000c 80F87030 		strb	r3, [r0, #112]
 344:HANcoder_E407_TTA_CombineModel.c ****   SystemCore_setup(&localDW->obj);
 418              		.loc 1 344 3 is_stmt 1 view .LVU115
 419              	.LVL23:
 420              	.LBB231:
 421              	.LBI226:
 301:HANcoder_E407_TTA_CombineModel.c **** {
 422              		.loc 1 301 13 view .LVU116
 423              	.LBB229:
 303:HANcoder_E407_TTA_CombineModel.c ****   obj->isInitialized = 1;
 424              		.loc 1 303 3 view .LVU117
 304:HANcoder_E407_TTA_CombineModel.c ****   obj->NumChannels = 1;
 425              		.loc 1 304 3 view .LVU118
 305:HANcoder_E407_TTA_CombineModel.c ****   obj->FrameLength = 1;
 426              		.loc 1 305 3 view .LVU119
 307:HANcoder_E407_TTA_CombineModel.c ****   obj->_pobj0.isInitialized = 0;
 427              		.loc 1 307 3 view .LVU120
 307:HANcoder_E407_TTA_CombineModel.c ****   obj->_pobj0.isInitialized = 0;
 428              		.loc 1 307 29 is_stmt 0 view .LVU121
 429 0010 42F8381F 		str	r1, [r2, #56]!
 308:HANcoder_E407_TTA_CombineModel.c ****   obj->pStatistic = &obj->_pobj0;
 430              		.loc 1 308 3 is_stmt 1 view .LVU122
 309:HANcoder_E407_TTA_CombineModel.c ****   obj->isSetupComplete = true;
 431              		.loc 1 309 3 view .LVU123
 304:HANcoder_E407_TTA_CombineModel.c ****   obj->NumChannels = 1;
 432              		.loc 1 304 22 is_stmt 0 view .LVU124
 433 0014 4360     		str	r3, [r0, #4]
 309:HANcoder_E407_TTA_CombineModel.c ****   obj->isSetupComplete = true;
 434              		.loc 1 309 19 view .LVU125
 435 0016 C262     		str	r2, [r0, #44]
 310:HANcoder_E407_TTA_CombineModel.c ****   obj->TunablePropsChanged = false;
 436              		.loc 1 310 3 is_stmt 1 view .LVU126
 311:HANcoder_E407_TTA_CombineModel.c **** }
 437              		.loc 1 311 3 view .LVU127
 310:HANcoder_E407_TTA_CombineModel.c ****   obj->TunablePropsChanged = false;
 438              		.loc 1 310 24 is_stmt 0 view .LVU128
 439 0018 0381     		strh	r3, [r0, #8]	@ movhi
 440              	.LVL24:
 310:HANcoder_E407_TTA_CombineModel.c ****   obj->TunablePropsChanged = false;
 441              		.loc 1 310 24 view .LVU129
 442              	.LBE229:
 443              	.LBE231:
 345:HANcoder_E407_TTA_CombineModel.c **** }
 444              		.loc 1 345 1 view .LVU130
 445 001a 7047     		bx	lr
 446              		.cfi_endproc
 447              	.LFE118:
 449              		.section	.text.MovingAverage,"ax",%progbits
 450              		.align	1
 451              		.p2align 2,,3
 452              		.global	MovingAverage
 453              		.syntax unified
 454              		.thumb
 455              		.thumb_func
 457              	MovingAverage:
 458              	.LVL25:
 459              	.LFB119:
 346:HANcoder_E407_TTA_CombineModel.c **** 
 347:HANcoder_E407_TTA_CombineModel.c **** /* Output and update for atomic system: */
 348:HANcoder_E407_TTA_CombineModel.c **** void MovingAverage(real32_T rtu_0, rtB_MovingAverage *localB, rtDW_MovingAverage
 349:HANcoder_E407_TTA_CombineModel.c ****                    *localDW)
 350:HANcoder_E407_TTA_CombineModel.c **** {
 460              		.loc 1 350 1 is_stmt 1 view -0
 461              		.cfi_startproc
 462              		@ args = 0, pretend = 0, frame = 40
 463              		@ frame_needed = 0, uses_anonymous_args = 0
 351:HANcoder_E407_TTA_CombineModel.c ****   g_dsp_internal_SlidingWindowAve *obj;
 464              		.loc 1 351 3 view .LVU132
 352:HANcoder_E407_TTA_CombineModel.c ****   int32_T i;
 465              		.loc 1 352 3 view .LVU133
 353:HANcoder_E407_TTA_CombineModel.c ****   real32_T csumrev[9];
 466              		.loc 1 353 3 view .LVU134
 354:HANcoder_E407_TTA_CombineModel.c ****   real32_T csum;
 467              		.loc 1 354 3 view .LVU135
 355:HANcoder_E407_TTA_CombineModel.c ****   real32_T cumRevIndex;
 468              		.loc 1 355 3 view .LVU136
 356:HANcoder_E407_TTA_CombineModel.c ****   real32_T modValueRev;
 469              		.loc 1 356 3 view .LVU137
 357:HANcoder_E407_TTA_CombineModel.c ****   real32_T z;
 470              		.loc 1 357 3 view .LVU138
 358:HANcoder_E407_TTA_CombineModel.c **** 
 359:HANcoder_E407_TTA_CombineModel.c ****   /* MATLABSystem: '<S78>/Moving Average' */
 360:HANcoder_E407_TTA_CombineModel.c ****   if (localDW->obj.TunablePropsChanged) {
 471              		.loc 1 360 3 view .LVU139
 350:HANcoder_E407_TTA_CombineModel.c ****   g_dsp_internal_SlidingWindowAve *obj;
 472              		.loc 1 350 1 is_stmt 0 view .LVU140
 473 0000 2DE9F047 		push	{r4, r5, r6, r7, r8, r9, r10, lr}
 474              		.cfi_def_cfa_offset 32
 475              		.cfi_offset 4, -32
 476              		.cfi_offset 5, -28
 477              		.cfi_offset 6, -24
 478              		.cfi_offset 7, -20
 479              		.cfi_offset 8, -16
 480              		.cfi_offset 9, -12
 481              		.cfi_offset 10, -8
 482              		.cfi_offset 14, -4
 483 0004 2DED028B 		vpush.64	{d8}
 484              		.cfi_def_cfa_offset 40
 485              		.cfi_offset 80, -40
 486              		.cfi_offset 81, -36
 487              		.loc 1 360 6 view .LVU141
 488 0008 537A     		ldrb	r3, [r2, #9]	@ zero_extendqisi2
 350:HANcoder_E407_TTA_CombineModel.c ****   g_dsp_internal_SlidingWindowAve *obj;
 489              		.loc 1 350 1 view .LVU142
 490 000a 08EE100A 		vmov	s16, r0
 491 000e 8AB0     		sub	sp, sp, #40
 492              		.cfi_def_cfa_offset 80
 350:HANcoder_E407_TTA_CombineModel.c ****   g_dsp_internal_SlidingWindowAve *obj;
 493              		.loc 1 350 1 view .LVU143
 494 0010 0F46     		mov	r7, r1
 495              		.loc 1 360 6 view .LVU144
 496 0012 0BB1     		cbz	r3, .L29
 361:HANcoder_E407_TTA_CombineModel.c ****     localDW->obj.TunablePropsChanged = false;
 497              		.loc 1 361 5 is_stmt 1 view .LVU145
 498              		.loc 1 361 38 is_stmt 0 view .LVU146
 499 0014 0023     		movs	r3, #0
 500 0016 5372     		strb	r3, [r2, #9]
 501              	.L29:
 362:HANcoder_E407_TTA_CombineModel.c ****   }
 363:HANcoder_E407_TTA_CombineModel.c **** 
 364:HANcoder_E407_TTA_CombineModel.c ****   obj = localDW->obj.pStatistic;
 502              		.loc 1 364 3 is_stmt 1 view .LVU147
 503              		.loc 1 364 7 is_stmt 0 view .LVU148
 504 0018 D56A     		ldr	r5, [r2, #44]
 505              	.LVL26:
 365:HANcoder_E407_TTA_CombineModel.c ****   if (obj->isInitialized != 1) {
 506              		.loc 1 365 3 is_stmt 1 view .LVU149
 507              		.loc 1 365 6 is_stmt 0 view .LVU150
 508 001a 2B68     		ldr	r3, [r5]
 509 001c 012B     		cmp	r3, #1
 510 001e 00F08380 		beq	.L30
 366:HANcoder_E407_TTA_CombineModel.c ****     obj->isSetupComplete = false;
 511              		.loc 1 366 5 is_stmt 1 view .LVU151
 367:HANcoder_E407_TTA_CombineModel.c ****     obj->isInitialized = 1;
 512              		.loc 1 367 5 view .LVU152
 368:HANcoder_E407_TTA_CombineModel.c ****     obj->pCumSum = 0.0F;
 513              		.loc 1 368 18 is_stmt 0 view .LVU153
 514 0022 0022     		movs	r2, #0
 515              	.LVL27:
 367:HANcoder_E407_TTA_CombineModel.c ****     obj->isInitialized = 1;
 516              		.loc 1 367 24 view .LVU154
 517 0024 0123     		movs	r3, #1
 369:HANcoder_E407_TTA_CombineModel.c ****     for (i = 0; i < 9; i++) {
 370:HANcoder_E407_TTA_CombineModel.c ****       obj->pCumSumRev[i] = 0.0F;
 371:HANcoder_E407_TTA_CombineModel.c ****     }
 372:HANcoder_E407_TTA_CombineModel.c **** 
 373:HANcoder_E407_TTA_CombineModel.c ****     obj->pCumRevIndex = 1.0F;
 374:HANcoder_E407_TTA_CombineModel.c ****     obj->pModValueRev = 0.0F;
 375:HANcoder_E407_TTA_CombineModel.c ****     obj->isSetupComplete = true;
 376:HANcoder_E407_TTA_CombineModel.c ****     obj->pCumSum = 0.0F;
 377:HANcoder_E407_TTA_CombineModel.c ****     for (i = 0; i < 9; i++) {
 378:HANcoder_E407_TTA_CombineModel.c ****       obj->pCumSumRev[i] = 0.0F;
 518              		.loc 1 378 26 view .LVU155
 519 0026 05F10C0C 		add	ip, r5, #12
 373:HANcoder_E407_TTA_CombineModel.c ****     obj->pModValueRev = 0.0F;
 520              		.loc 1 373 23 view .LVU156
 521 002a 4FF07E51 		mov	r1, #1065353216
 522              	.LVL28:
 368:HANcoder_E407_TTA_CombineModel.c ****     obj->pCumSum = 0.0F;
 523              		.loc 1 368 18 view .LVU157
 524 002e AA60     		str	r2, [r5, #8]	@ float
 373:HANcoder_E407_TTA_CombineModel.c ****     obj->pModValueRev = 0.0F;
 525              		.loc 1 373 23 view .LVU158
 526 0030 2963     		str	r1, [r5, #48]	@ float
 374:HANcoder_E407_TTA_CombineModel.c ****     obj->isSetupComplete = true;
 527              		.loc 1 374 23 view .LVU159
 528 0032 6A63     		str	r2, [r5, #52]	@ float
 529              		.loc 1 378 26 view .LVU160
 530 0034 6046     		mov	r0, ip
 531              	.LVL29:
 367:HANcoder_E407_TTA_CombineModel.c ****     obj->pCumSum = 0.0F;
 532              		.loc 1 367 24 view .LVU161
 533 0036 2B60     		str	r3, [r5]
 368:HANcoder_E407_TTA_CombineModel.c ****     for (i = 0; i < 9; i++) {
 534              		.loc 1 368 5 is_stmt 1 view .LVU162
 369:HANcoder_E407_TTA_CombineModel.c ****       obj->pCumSumRev[i] = 0.0F;
 535              		.loc 1 369 5 view .LVU163
 536              	.LVL30:
 369:HANcoder_E407_TTA_CombineModel.c ****       obj->pCumSumRev[i] = 0.0F;
 537              		.loc 1 369 17 view .LVU164
 373:HANcoder_E407_TTA_CombineModel.c ****     obj->pModValueRev = 0.0F;
 538              		.loc 1 373 5 view .LVU165
 374:HANcoder_E407_TTA_CombineModel.c ****     obj->isSetupComplete = true;
 539              		.loc 1 374 5 view .LVU166
 375:HANcoder_E407_TTA_CombineModel.c ****     obj->pCumSum = 0.0F;
 540              		.loc 1 375 5 view .LVU167
 375:HANcoder_E407_TTA_CombineModel.c ****     obj->pCumSum = 0.0F;
 541              		.loc 1 375 26 is_stmt 0 view .LVU168
 542 0038 2B71     		strb	r3, [r5, #4]
 376:HANcoder_E407_TTA_CombineModel.c ****     for (i = 0; i < 9; i++) {
 543              		.loc 1 376 5 is_stmt 1 view .LVU169
 377:HANcoder_E407_TTA_CombineModel.c ****       obj->pCumSumRev[i] = 0.0F;
 544              		.loc 1 377 5 view .LVU170
 545              	.LVL31:
 377:HANcoder_E407_TTA_CombineModel.c ****       obj->pCumSumRev[i] = 0.0F;
 546              		.loc 1 377 17 view .LVU171
 547              		.loc 1 378 26 is_stmt 0 view .LVU172
 548 003a 2422     		movs	r2, #36
 549 003c 0021     		movs	r1, #0
 550 003e FFF7FEFF 		bl	memset
 551              	.LVL32:
 379:HANcoder_E407_TTA_CombineModel.c ****     }
 380:HANcoder_E407_TTA_CombineModel.c **** 
 381:HANcoder_E407_TTA_CombineModel.c ****     obj->pCumRevIndex = 1.0F;
 382:HANcoder_E407_TTA_CombineModel.c ****     obj->pModValueRev = 0.0F;
 383:HANcoder_E407_TTA_CombineModel.c ****   }
 384:HANcoder_E407_TTA_CombineModel.c **** 
 385:HANcoder_E407_TTA_CombineModel.c ****   cumRevIndex = obj->pCumRevIndex;
 552              		.loc 1 385 3 is_stmt 1 view .LVU173
 386:HANcoder_E407_TTA_CombineModel.c ****   csum = obj->pCumSum;
 553              		.loc 1 386 3 view .LVU174
 387:HANcoder_E407_TTA_CombineModel.c ****   for (i = 0; i < 9; i++) {
 554              		.loc 1 387 3 view .LVU175
 555              		.loc 1 387 15 view .LVU176
 388:HANcoder_E407_TTA_CombineModel.c ****     csumrev[i] = obj->pCumSumRev[i];
 556              		.loc 1 388 16 is_stmt 0 view .LVU177
 557 0042 01AE     		add	r6, sp, #4
 558 0044 8446     		mov	ip, r0
 559 0046 0446     		mov	r4, r0
 560 0048 B046     		mov	r8, r6
 561 004a 05F12C09 		add	r9, r5, #44
 562              	.LVL33:
 563              	.L31:
 564              		.loc 1 388 16 view .LVU178
 565 004e 2068     		ldr	r0, [r4]	@ unaligned
 566 0050 6168     		ldr	r1, [r4, #4]	@ unaligned
 567 0052 A268     		ldr	r2, [r4, #8]	@ unaligned
 568 0054 E368     		ldr	r3, [r4, #12]	@ unaligned
 569 0056 1034     		adds	r4, r4, #16
 570 0058 C646     		mov	lr, r8
 571 005a 4C45     		cmp	r4, r9
 572 005c AEE80F00 		stmia	lr!, {r0, r1, r2, r3}
 573 0060 08F11008 		add	r8, r8, #16
 574 0064 F3D1     		bne	.L31
 389:HANcoder_E407_TTA_CombineModel.c ****   }
 390:HANcoder_E407_TTA_CombineModel.c **** 
 391:HANcoder_E407_TTA_CombineModel.c ****   modValueRev = obj->pModValueRev;
 392:HANcoder_E407_TTA_CombineModel.c ****   z = 0.0F;
 393:HANcoder_E407_TTA_CombineModel.c **** 
 394:HANcoder_E407_TTA_CombineModel.c ****   /* MATLABSystem: '<S78>/Moving Average' */
 395:HANcoder_E407_TTA_CombineModel.c ****   localB->MovingAverage_n = 0.0F;
 575              		.loc 1 395 27 view .LVU179
 576 0066 DFED547A 		vldr.32	s15, .L54
 388:HANcoder_E407_TTA_CombineModel.c ****     csumrev[i] = obj->pCumSumRev[i];
 577              		.loc 1 388 16 view .LVU180
 578 006a 2068     		ldr	r0, [r4]	@ unaligned
 579 006c C8F80000 		str	r0, [r8]
 580              	.LVL34:
 391:HANcoder_E407_TTA_CombineModel.c ****   z = 0.0F;
 581              		.loc 1 391 3 is_stmt 1 view .LVU181
 392:HANcoder_E407_TTA_CombineModel.c **** 
 582              		.loc 1 392 3 view .LVU182
 583              		.loc 1 395 3 view .LVU183
 396:HANcoder_E407_TTA_CombineModel.c **** 
 397:HANcoder_E407_TTA_CombineModel.c ****   /* MATLABSystem: '<S78>/Moving Average' */
 398:HANcoder_E407_TTA_CombineModel.c ****   csum += rtu_0;
 584              		.loc 1 398 8 is_stmt 0 view .LVU184
 585 0070 38EE277A 		vadd.f32	s14, s16, s15
 586 0074 F0EE676A 		vmov.f32	s13, s15
 395:HANcoder_E407_TTA_CombineModel.c **** 
 587              		.loc 1 395 27 view .LVU185
 588 0078 C7ED007A 		vstr.32	s15, [r7]
 589              		.loc 1 398 3 is_stmt 1 view .LVU186
 590              	.LVL35:
 399:HANcoder_E407_TTA_CombineModel.c ****   if (modValueRev == 0.0F) {
 591              		.loc 1 399 3 view .LVU187
 398:HANcoder_E407_TTA_CombineModel.c ****   if (modValueRev == 0.0F) {
 592              		.loc 1 398 8 is_stmt 0 view .LVU188
 593 007c 4FF00009 		mov	r9, #0
 594 0080 F7EE007A 		vmov.f32	s15, #1.0e+0
 595              	.LVL36:
 596              	.L32:
 400:HANcoder_E407_TTA_CombineModel.c ****     z = csumrev[(int32_T)cumRevIndex - 1] + csum;
 597              		.loc 1 400 5 is_stmt 1 view .LVU189
 598              		.loc 1 400 16 is_stmt 0 view .LVU190
 599 0084 0AAB     		add	r3, sp, #40
 600 0086 03EB8903 		add	r3, r3, r9, lsl #2
 601              		.loc 1 400 7 view .LVU191
 602 008a 13ED096A 		vldr.32	s12, [r3, #-36]
 603 008e 37EE066A 		vadd.f32	s12, s14, s12
 604              	.LVL37:
 605              		.loc 1 400 16 view .LVU192
 606 0092 4FEA8909 		lsl	r9, r9, #2
 607              	.LVL38:
 608              	.L34:
 401:HANcoder_E407_TTA_CombineModel.c ****   }
 402:HANcoder_E407_TTA_CombineModel.c **** 
 403:HANcoder_E407_TTA_CombineModel.c ****   csumrev[(int32_T)cumRevIndex - 1] = rtu_0;
 609              		.loc 1 403 3 is_stmt 1 view .LVU193
 404:HANcoder_E407_TTA_CombineModel.c ****   if (cumRevIndex != 9.0F) {
 610              		.loc 1 404 6 is_stmt 0 view .LVU194
 611 0096 F2EE025A 		vmov.f32	s11, #9.0e+0
 403:HANcoder_E407_TTA_CombineModel.c ****   if (cumRevIndex != 9.0F) {
 612              		.loc 1 403 37 view .LVU195
 613 009a 09F12803 		add	r3, r9, #40
 614              		.loc 1 404 6 view .LVU196
 615 009e F4EE657A 		vcmp.f32	s15, s11
 403:HANcoder_E407_TTA_CombineModel.c ****   if (cumRevIndex != 9.0F) {
 616              		.loc 1 403 37 view .LVU197
 617 00a2 0DEB0309 		add	r9, sp, r3
 618              		.loc 1 404 6 view .LVU198
 619 00a6 F1EE10FA 		vmrs	APSR_nzcv, FPSCR
 403:HANcoder_E407_TTA_CombineModel.c ****   if (cumRevIndex != 9.0F) {
 620              		.loc 1 403 37 view .LVU199
 621 00aa 09ED098A 		vstr.32	s16, [r9, #-36]
 622              		.loc 1 404 3 is_stmt 1 view .LVU200
 623              		.loc 1 404 6 is_stmt 0 view .LVU201
 624 00ae 71D0     		beq	.L35
 405:HANcoder_E407_TTA_CombineModel.c ****     cumRevIndex++;
 625              		.loc 1 405 5 is_stmt 1 view .LVU202
 626              		.loc 1 405 16 is_stmt 0 view .LVU203
 627 00b0 F7EE005A 		vmov.f32	s11, #1.0e+0
 628 00b4 77EEA57A 		vadd.f32	s15, s15, s11
 629              	.LVL39:
 630              		.loc 1 405 16 view .LVU204
 631 00b8 0DF12408 		add	r8, sp, #36
 632              	.LVL40:
 633              	.L36:
 406:HANcoder_E407_TTA_CombineModel.c ****   } else {
 407:HANcoder_E407_TTA_CombineModel.c ****     cumRevIndex = 1.0F;
 408:HANcoder_E407_TTA_CombineModel.c ****     csum = 0.0F;
 409:HANcoder_E407_TTA_CombineModel.c ****     for (i = 7; i >= 0; i--) {
 410:HANcoder_E407_TTA_CombineModel.c ****       csumrev[i] += csumrev[i + 1];
 411:HANcoder_E407_TTA_CombineModel.c ****     }
 412:HANcoder_E407_TTA_CombineModel.c ****   }
 413:HANcoder_E407_TTA_CombineModel.c **** 
 414:HANcoder_E407_TTA_CombineModel.c ****   if (modValueRev == 0.0F) {
 634              		.loc 1 414 3 is_stmt 1 view .LVU205
 635              		.loc 1 414 6 is_stmt 0 view .LVU206
 636 00bc F5EE406A 		vcmp.f32	s13, #0
 637 00c0 F1EE10FA 		vmrs	APSR_nzcv, FPSCR
 638 00c4 05D1     		bne	.L38
 415:HANcoder_E407_TTA_CombineModel.c ****     /* MATLABSystem: '<S78>/Moving Average' */
 416:HANcoder_E407_TTA_CombineModel.c ****     localB->MovingAverage_n = z / 10.0F;
 639              		.loc 1 416 5 is_stmt 1 view .LVU207
 640              		.loc 1 416 33 is_stmt 0 view .LVU208
 641 00c6 B2EE045A 		vmov.f32	s10, #1.0e+1
 642 00ca C6EE055A 		vdiv.f32	s11, s12, s10
 643              		.loc 1 416 29 view .LVU209
 644 00ce C7ED005A 		vstr.32	s11, [r7]
 645              	.L38:
 417:HANcoder_E407_TTA_CombineModel.c ****   }
 418:HANcoder_E407_TTA_CombineModel.c **** 
 419:HANcoder_E407_TTA_CombineModel.c ****   obj->pCumSum = csum;
 646              		.loc 1 419 3 is_stmt 1 view .LVU210
 647              		.loc 1 419 16 is_stmt 0 view .LVU211
 648 00d2 85ED027A 		vstr.32	s14, [r5, #8]
 420:HANcoder_E407_TTA_CombineModel.c ****   for (i = 0; i < 9; i++) {
 649              		.loc 1 420 3 is_stmt 1 view .LVU212
 650              	.LVL41:
 651              		.loc 1 420 15 view .LVU213
 421:HANcoder_E407_TTA_CombineModel.c ****     obj->pCumSumRev[i] = csumrev[i];
 652              		.loc 1 421 24 is_stmt 0 view .LVU214
 653 00d6 3446     		mov	r4, r6
 654              	.L39:
 655 00d8 A646     		mov	lr, r4
 656 00da BEE80F00 		ldmia	lr!, {r0, r1, r2, r3}
 657 00de C645     		cmp	lr, r8
 658 00e0 0CF1100C 		add	ip, ip, #16
 659 00e4 7446     		mov	r4, lr
 660 00e6 4CF8100C 		str	r0, [ip, #-16]	@ unaligned
 661 00ea 4CF80C1C 		str	r1, [ip, #-12]	@ unaligned
 662 00ee 4CF8082C 		str	r2, [ip, #-8]	@ unaligned
 663 00f2 4CF8043C 		str	r3, [ip, #-4]	@ unaligned
 664 00f6 EFD1     		bne	.L39
 422:HANcoder_E407_TTA_CombineModel.c ****   }
 423:HANcoder_E407_TTA_CombineModel.c **** 
 424:HANcoder_E407_TTA_CombineModel.c ****   obj->pCumRevIndex = cumRevIndex;
 425:HANcoder_E407_TTA_CombineModel.c ****   if (modValueRev > 0.0F) {
 665              		.loc 1 425 6 view .LVU215
 666 00f8 F5EEC06A 		vcmpe.f32	s13, #0
 421:HANcoder_E407_TTA_CombineModel.c ****     obj->pCumSumRev[i] = csumrev[i];
 667              		.loc 1 421 24 view .LVU216
 668 00fc DEF80000 		ldr	r0, [lr]
 669 0100 CCF80000 		str	r0, [ip]	@ unaligned
 670              	.LVL42:
 424:HANcoder_E407_TTA_CombineModel.c ****   if (modValueRev > 0.0F) {
 671              		.loc 1 424 3 is_stmt 1 view .LVU217
 672              		.loc 1 425 6 is_stmt 0 view .LVU218
 673 0104 F1EE10FA 		vmrs	APSR_nzcv, FPSCR
 424:HANcoder_E407_TTA_CombineModel.c ****   if (modValueRev > 0.0F) {
 674              		.loc 1 424 21 view .LVU219
 675 0108 C5ED0C7A 		vstr.32	s15, [r5, #48]
 676              		.loc 1 425 3 is_stmt 1 view .LVU220
 426:HANcoder_E407_TTA_CombineModel.c ****     obj->pModValueRev = modValueRev - 1.0F;
 677              		.loc 1 426 5 view .LVU221
 678              		.loc 1 426 37 is_stmt 0 view .LVU222
 679 010c C6BF     		itte	gt
 680 010e F7EE007A 		vmovgt.f32	s15, #1.0e+0
 681              	.LVL43:
 682              		.loc 1 426 37 view .LVU223
 683 0112 76EEE76A 		vsubgt.f32	s13, s13, s15
 427:HANcoder_E407_TTA_CombineModel.c ****   } else {
 428:HANcoder_E407_TTA_CombineModel.c ****     obj->pModValueRev = 0.0F;
 684              		.loc 1 428 23 view .LVU224
 685 0116 DFED286A 		vldrle.32	s13, .L54
 686 011a C5ED0D6A 		vstr.32	s13, [r5, #52]
 429:HANcoder_E407_TTA_CombineModel.c ****   }
 430:HANcoder_E407_TTA_CombineModel.c **** }
 687              		.loc 1 430 1 view .LVU225
 688 011e 0AB0     		add	sp, sp, #40
 689              		.cfi_remember_state
 690              		.cfi_def_cfa_offset 40
 691              		@ sp needed
 692 0120 BDEC028B 		vldm	sp!, {d8}
 693              		.cfi_restore 80
 694              		.cfi_restore 81
 695              		.cfi_def_cfa_offset 32
 696              	.LVL44:
 697              		.loc 1 430 1 view .LVU226
 698 0124 BDE8F087 		pop	{r4, r5, r6, r7, r8, r9, r10, pc}
 699              	.LVL45:
 700              	.L30:
 701              		.cfi_restore_state
 385:HANcoder_E407_TTA_CombineModel.c ****   csum = obj->pCumSum;
 702              		.loc 1 385 15 view .LVU227
 703 0128 D5ED0C7A 		vldr.32	s15, [r5, #48]
 391:HANcoder_E407_TTA_CombineModel.c ****   z = 0.0F;
 704              		.loc 1 391 15 view .LVU228
 705 012c D5ED0D6A 		vldr.32	s13, [r5, #52]
 400:HANcoder_E407_TTA_CombineModel.c ****   }
 706              		.loc 1 400 17 view .LVU229
 707 0130 BDEEE77A 		vcvt.s32.f32	s14, s15
 708 0134 05F10C0C 		add	ip, r5, #12
 709 0138 17EE109A 		vmov	r9, s14	@ int
 388:HANcoder_E407_TTA_CombineModel.c ****   }
 710              		.loc 1 388 16 view .LVU230
 711 013c 01AE     		add	r6, sp, #4
 386:HANcoder_E407_TTA_CombineModel.c ****   for (i = 0; i < 9; i++) {
 712              		.loc 1 386 8 view .LVU231
 713 013e 95ED027A 		vldr.32	s14, [r5, #8]
 400:HANcoder_E407_TTA_CombineModel.c ****   }
 714              		.loc 1 400 38 view .LVU232
 715 0142 09F1FF39 		add	r9, r9, #-1
 385:HANcoder_E407_TTA_CombineModel.c ****   csum = obj->pCumSum;
 716              		.loc 1 385 3 is_stmt 1 view .LVU233
 717              	.LVL46:
 386:HANcoder_E407_TTA_CombineModel.c ****   for (i = 0; i < 9; i++) {
 718              		.loc 1 386 3 view .LVU234
 387:HANcoder_E407_TTA_CombineModel.c ****     csumrev[i] = obj->pCumSumRev[i];
 719              		.loc 1 387 3 view .LVU235
 387:HANcoder_E407_TTA_CombineModel.c ****     csumrev[i] = obj->pCumSumRev[i];
 720              		.loc 1 387 15 view .LVU236
 388:HANcoder_E407_TTA_CombineModel.c ****   }
 721              		.loc 1 388 16 is_stmt 0 view .LVU237
 722 0146 E646     		mov	lr, ip
 723 0148 B046     		mov	r8, r6
 724 014a 05F12C0A 		add	r10, r5, #44
 725              	.LVL47:
 726              	.L33:
 388:HANcoder_E407_TTA_CombineModel.c ****   }
 727              		.loc 1 388 16 view .LVU238
 728 014e DEF80000 		ldr	r0, [lr]	@ unaligned
 729 0152 DEF80410 		ldr	r1, [lr, #4]	@ unaligned
 730 0156 DEF80820 		ldr	r2, [lr, #8]	@ unaligned
 731 015a DEF80C30 		ldr	r3, [lr, #12]	@ unaligned
 732 015e 0EF1100E 		add	lr, lr, #16
 733 0162 4446     		mov	r4, r8
 734 0164 D645     		cmp	lr, r10
 735 0166 0FC4     		stmia	r4!, {r0, r1, r2, r3}
 736 0168 08F11008 		add	r8, r8, #16
 737 016c EFD1     		bne	.L33
 395:HANcoder_E407_TTA_CombineModel.c **** 
 738              		.loc 1 395 27 view .LVU239
 739 016e 9FED126A 		vldr.32	s12, .L54
 388:HANcoder_E407_TTA_CombineModel.c ****   }
 740              		.loc 1 388 16 view .LVU240
 741 0172 DEF80000 		ldr	r0, [lr]	@ unaligned
 742 0176 C8F80000 		str	r0, [r8]
 743              	.LVL48:
 391:HANcoder_E407_TTA_CombineModel.c ****   z = 0.0F;
 744              		.loc 1 391 3 is_stmt 1 view .LVU241
 392:HANcoder_E407_TTA_CombineModel.c **** 
 745              		.loc 1 392 3 view .LVU242
 395:HANcoder_E407_TTA_CombineModel.c **** 
 746              		.loc 1 395 3 view .LVU243
 399:HANcoder_E407_TTA_CombineModel.c ****     z = csumrev[(int32_T)cumRevIndex - 1] + csum;
 747              		.loc 1 399 6 is_stmt 0 view .LVU244
 748 017a F4EE466A 		vcmp.f32	s13, s12
 749 017e F1EE10FA 		vmrs	APSR_nzcv, FPSCR
 398:HANcoder_E407_TTA_CombineModel.c ****   if (modValueRev == 0.0F) {
 750              		.loc 1 398 8 view .LVU245
 751 0182 37EE087A 		vadd.f32	s14, s14, s16
 752              	.LVL49:
 395:HANcoder_E407_TTA_CombineModel.c **** 
 753              		.loc 1 395 27 view .LVU246
 754 0186 87ED006A 		vstr.32	s12, [r7]
 398:HANcoder_E407_TTA_CombineModel.c ****   if (modValueRev == 0.0F) {
 755              		.loc 1 398 3 is_stmt 1 view .LVU247
 756              	.LVL50:
 399:HANcoder_E407_TTA_CombineModel.c ****     z = csumrev[(int32_T)cumRevIndex - 1] + csum;
 757              		.loc 1 399 3 view .LVU248
 399:HANcoder_E407_TTA_CombineModel.c ****     z = csumrev[(int32_T)cumRevIndex - 1] + csum;
 758              		.loc 1 399 6 is_stmt 0 view .LVU249
 759 018a 3FF47BAF 		beq	.L32
 760 018e 4FEA8909 		lsl	r9, r9, #2
 761 0192 80E7     		b	.L34
 762              	.LVL51:
 763              	.L35:
 399:HANcoder_E407_TTA_CombineModel.c ****     z = csumrev[(int32_T)cumRevIndex - 1] + csum;
 764              		.loc 1 399 6 view .LVU250
 765 0194 0DF12408 		add	r8, sp, #36
 766 0198 4346     		mov	r3, r8
 767              	.LVL52:
 768              	.L37:
 410:HANcoder_E407_TTA_CombineModel.c ****     }
 769              		.loc 1 410 7 is_stmt 1 discriminator 3 view .LVU251
 410:HANcoder_E407_TTA_CombineModel.c ****     }
 770              		.loc 1 410 18 is_stmt 0 discriminator 3 view .LVU252
 771 019a 73ED017A 		vldmdb.32	r3!, {s15}
 772 019e 93ED017A 		vldr.32	s14, [r3, #4]
 773 01a2 77EE877A 		vadd.f32	s15, s15, s14
 409:HANcoder_E407_TTA_CombineModel.c ****       csumrev[i] += csumrev[i + 1];
 774              		.loc 1 409 5 discriminator 3 view .LVU253
 775 01a6 9E42     		cmp	r6, r3
 410:HANcoder_E407_TTA_CombineModel.c ****     }
 776              		.loc 1 410 18 discriminator 3 view .LVU254
 777 01a8 C3ED007A 		vstr.32	s15, [r3]
 409:HANcoder_E407_TTA_CombineModel.c ****       csumrev[i] += csumrev[i + 1];
 778              		.loc 1 409 25 is_stmt 1 discriminator 3 view .LVU255
 409:HANcoder_E407_TTA_CombineModel.c ****       csumrev[i] += csumrev[i + 1];
 779              		.loc 1 409 17 discriminator 3 view .LVU256
 409:HANcoder_E407_TTA_CombineModel.c ****       csumrev[i] += csumrev[i + 1];
 780              		.loc 1 409 5 is_stmt 0 discriminator 3 view .LVU257
 781 01ac F5D1     		bne	.L37
 408:HANcoder_E407_TTA_CombineModel.c ****     for (i = 7; i >= 0; i--) {
 782              		.loc 1 408 10 view .LVU258
 783 01ae 9FED027A 		vldr.32	s14, .L54
 407:HANcoder_E407_TTA_CombineModel.c ****     csum = 0.0F;
 784              		.loc 1 407 17 view .LVU259
 785 01b2 F7EE007A 		vmov.f32	s15, #1.0e+0
 786 01b6 81E7     		b	.L36
 787              	.L55:
 788              		.align	2
 789              	.L54:
 790 01b8 00000000 		.word	0
 791              		.cfi_endproc
 792              	.LFE119:
 794              		.section	.text.EnabledSubsystem,"ax",%progbits
 795              		.align	1
 796              		.p2align 2,,3
 797              		.global	EnabledSubsystem
 798              		.syntax unified
 799              		.thumb
 800              		.thumb_func
 802              	EnabledSubsystem:
 803              	.LVL53:
 804              	.LFB120:
 431:HANcoder_E407_TTA_CombineModel.c **** 
 432:HANcoder_E407_TTA_CombineModel.c **** /*
 433:HANcoder_E407_TTA_CombineModel.c ****  * Output and update for enable system:
 434:HANcoder_E407_TTA_CombineModel.c ****  *    '<S119>/Enabled Subsystem'
 435:HANcoder_E407_TTA_CombineModel.c ****  *    '<S125>/Enabled Subsystem'
 436:HANcoder_E407_TTA_CombineModel.c ****  *    '<S128>/Enabled Subsystem'
 437:HANcoder_E407_TTA_CombineModel.c ****  *    '<S134>/Enabled Subsystem'
 438:HANcoder_E407_TTA_CombineModel.c ****  *    '<S204>/Enabled Subsystem'
 439:HANcoder_E407_TTA_CombineModel.c ****  *    '<S251>/Enabled Subsystem'
 440:HANcoder_E407_TTA_CombineModel.c ****  *    '<S370>/Enabled Subsystem'
 441:HANcoder_E407_TTA_CombineModel.c ****  */
 442:HANcoder_E407_TTA_CombineModel.c **** void EnabledSubsystem(int8_T rtu_Enable, uint8_T rtu_In1, uint8_T rtu_In2,
 443:HANcoder_E407_TTA_CombineModel.c ****                       uint8_T rtu_In3, uint8_T rtu_In4, uint8_T rtu_In5, uint8_T
 444:HANcoder_E407_TTA_CombineModel.c ****                       rtu_In6, uint8_T rtu_In7, uint8_T rtu_In8,
 445:HANcoder_E407_TTA_CombineModel.c ****                       rtB_EnabledSubsystem *localB)
 446:HANcoder_E407_TTA_CombineModel.c **** {
 805              		.loc 1 446 1 is_stmt 1 view -0
 806              		.cfi_startproc
 807              		@ args = 24, pretend = 0, frame = 0
 808              		@ frame_needed = 0, uses_anonymous_args = 0
 447:HANcoder_E407_TTA_CombineModel.c ****   uint8_T rtb_In5_nc;
 809              		.loc 1 447 3 view .LVU261
 448:HANcoder_E407_TTA_CombineModel.c ****   uint8_T rtb_In6;
 810              		.loc 1 448 3 view .LVU262
 449:HANcoder_E407_TTA_CombineModel.c ****   uint8_T rtb_In8_m;
 811              		.loc 1 449 3 view .LVU263
 450:HANcoder_E407_TTA_CombineModel.c **** 
 451:HANcoder_E407_TTA_CombineModel.c ****   /* Outputs for Enabled SubSystem: '<S119>/Enabled Subsystem' incorporates:
 452:HANcoder_E407_TTA_CombineModel.c ****    *  EnablePort: '<S123>/Enable'
 453:HANcoder_E407_TTA_CombineModel.c ****    */
 454:HANcoder_E407_TTA_CombineModel.c ****   if (rtu_Enable > 0) {
 812              		.loc 1 454 3 view .LVU264
 446:HANcoder_E407_TTA_CombineModel.c ****   uint8_T rtb_In5_nc;
 813              		.loc 1 446 1 is_stmt 0 view .LVU265
 814 0000 10B5     		push	{r4, lr}
 815              		.cfi_def_cfa_offset 8
 816              		.cfi_offset 4, -8
 817              		.cfi_offset 14, -4
 818              		.loc 1 454 6 view .LVU266
 819 0002 0028     		cmp	r0, #0
 446:HANcoder_E407_TTA_CombineModel.c ****   uint8_T rtb_In5_nc;
 820              		.loc 1 446 1 view .LVU267
 821 0004 9DF808E0 		ldrb	lr, [sp, #8]	@ zero_extendqisi2
 822 0008 9DF814C0 		ldrb	ip, [sp, #20]	@ zero_extendqisi2
 823 000c 079C     		ldr	r4, [sp, #28]
 824              		.loc 1 454 6 view .LVU268
 825 000e 06DD     		ble	.L56
 455:HANcoder_E407_TTA_CombineModel.c ****     /* SignalConversion generated from: '<S123>/In1' */
 456:HANcoder_E407_TTA_CombineModel.c ****     localB->In1 = rtu_In1;
 826              		.loc 1 456 5 is_stmt 1 view .LVU269
 827              		.loc 1 456 17 is_stmt 0 view .LVU270
 828 0010 2170     		strb	r1, [r4]
 457:HANcoder_E407_TTA_CombineModel.c **** 
 458:HANcoder_E407_TTA_CombineModel.c ****     /* SignalConversion generated from: '<S123>/In2' */
 459:HANcoder_E407_TTA_CombineModel.c ****     localB->In2 = rtu_In2;
 829              		.loc 1 459 5 is_stmt 1 view .LVU271
 830              		.loc 1 459 17 is_stmt 0 view .LVU272
 831 0012 6270     		strb	r2, [r4, #1]
 460:HANcoder_E407_TTA_CombineModel.c **** 
 461:HANcoder_E407_TTA_CombineModel.c ****     /* SignalConversion generated from: '<S123>/In3' */
 462:HANcoder_E407_TTA_CombineModel.c ****     localB->In3 = rtu_In3;
 832              		.loc 1 462 5 is_stmt 1 view .LVU273
 833              		.loc 1 462 17 is_stmt 0 view .LVU274
 834 0014 A370     		strb	r3, [r4, #2]
 463:HANcoder_E407_TTA_CombineModel.c **** 
 464:HANcoder_E407_TTA_CombineModel.c ****     /* SignalConversion generated from: '<S123>/In4' */
 465:HANcoder_E407_TTA_CombineModel.c ****     localB->In4 = rtu_In4;
 835              		.loc 1 465 5 is_stmt 1 view .LVU275
 836              		.loc 1 465 17 is_stmt 0 view .LVU276
 837 0016 84F803E0 		strb	lr, [r4, #3]
 466:HANcoder_E407_TTA_CombineModel.c **** 
 467:HANcoder_E407_TTA_CombineModel.c ****     /* SignalConversion generated from: '<S123>/In5' */
 468:HANcoder_E407_TTA_CombineModel.c ****     rtb_In5_nc = rtu_In5;
 838              		.loc 1 468 5 is_stmt 1 view .LVU277
 839              	.LVL54:
 469:HANcoder_E407_TTA_CombineModel.c **** 
 470:HANcoder_E407_TTA_CombineModel.c ****     /* SignalConversion generated from: '<S123>/In6' */
 471:HANcoder_E407_TTA_CombineModel.c ****     rtb_In6 = rtu_In6;
 840              		.loc 1 471 5 view .LVU278
 472:HANcoder_E407_TTA_CombineModel.c **** 
 473:HANcoder_E407_TTA_CombineModel.c ****     /* SignalConversion generated from: '<S123>/In7' */
 474:HANcoder_E407_TTA_CombineModel.c ****     localB->In7 = rtu_In7;
 841              		.loc 1 474 5 view .LVU279
 842              		.loc 1 474 17 is_stmt 0 view .LVU280
 843 001a 84F804C0 		strb	ip, [r4, #4]
 475:HANcoder_E407_TTA_CombineModel.c **** 
 476:HANcoder_E407_TTA_CombineModel.c ****     /* SignalConversion generated from: '<S123>/In8' */
 477:HANcoder_E407_TTA_CombineModel.c ****     rtb_In8_m = rtu_In8;
 844              		.loc 1 477 5 is_stmt 1 view .LVU281
 845              	.LVL55:
 846              	.L56:
 478:HANcoder_E407_TTA_CombineModel.c ****   }
 479:HANcoder_E407_TTA_CombineModel.c **** 
 480:HANcoder_E407_TTA_CombineModel.c ****   /* End of Outputs for SubSystem: '<S119>/Enabled Subsystem' */
 481:HANcoder_E407_TTA_CombineModel.c **** }
 847              		.loc 1 481 1 is_stmt 0 view .LVU282
 848 001e 10BD     		pop	{r4, pc}
 849              		.loc 1 481 1 view .LVU283
 850              		.cfi_endproc
 851              	.LFE120:
 853              		.section	.text.BitShift,"ax",%progbits
 854              		.align	1
 855              		.p2align 2,,3
 856              		.global	BitShift
 857              		.syntax unified
 858              		.thumb
 859              		.thumb_func
 861              	BitShift:
 862              	.LVL56:
 863              	.LFB121:
 482:HANcoder_E407_TTA_CombineModel.c **** 
 483:HANcoder_E407_TTA_CombineModel.c **** /*
 484:HANcoder_E407_TTA_CombineModel.c ****  * Output and update for atomic system:
 485:HANcoder_E407_TTA_CombineModel.c ****  *    '<S132>/Bit Shift'
 486:HANcoder_E407_TTA_CombineModel.c ****  *    '<S133>/Bit Shift'
 487:HANcoder_E407_TTA_CombineModel.c ****  *    '<S202>/Bit Shift'
 488:HANcoder_E407_TTA_CombineModel.c ****  *    '<S203>/Bit Shift'
 489:HANcoder_E407_TTA_CombineModel.c ****  *    '<S249>/Bit Shift'
 490:HANcoder_E407_TTA_CombineModel.c ****  *    '<S250>/Bit Shift'
 491:HANcoder_E407_TTA_CombineModel.c ****  *    '<S274>/Bit Shift'
 492:HANcoder_E407_TTA_CombineModel.c ****  *    '<S275>/Bit Shift'
 493:HANcoder_E407_TTA_CombineModel.c ****  *    '<S321>/Bit Shift'
 494:HANcoder_E407_TTA_CombineModel.c ****  *    '<S322>/Bit Shift'
 495:HANcoder_E407_TTA_CombineModel.c ****  */
 496:HANcoder_E407_TTA_CombineModel.c **** void BitShift(uint16_T rtu_u, rtB_BitShift *localB)
 497:HANcoder_E407_TTA_CombineModel.c **** {
 864              		.loc 1 497 1 is_stmt 1 view -0
 865              		.cfi_startproc
 866              		@ args = 0, pretend = 0, frame = 0
 867              		@ frame_needed = 0, uses_anonymous_args = 0
 868              		@ link register save eliminated.
 498:HANcoder_E407_TTA_CombineModel.c ****   /* MATLAB Function: '<S137>/bit_shift' */
 499:HANcoder_E407_TTA_CombineModel.c ****   /* MATLAB Function 'Logic and Bit Operations/Bit Shift/bit_shift': '<S138>:1' */
 500:HANcoder_E407_TTA_CombineModel.c ****   /* '<S138>:1:6' */
 501:HANcoder_E407_TTA_CombineModel.c ****   localB->y = (uint16_T)(rtu_u << 8);
 869              		.loc 1 501 3 view .LVU285
 870              		.loc 1 501 15 is_stmt 0 view .LVU286
 871 0000 0002     		lsls	r0, r0, #8
 872              	.LVL57:
 873              		.loc 1 501 13 view .LVU287
 874 0002 0880     		strh	r0, [r1]	@ movhi
 502:HANcoder_E407_TTA_CombineModel.c **** }
 875              		.loc 1 502 1 view .LVU288
 876 0004 7047     		bx	lr
 877              		.cfi_endproc
 878              	.LFE121:
 880 0006 00BF     		.section	.text.BitShift_g,"ax",%progbits
 881              		.align	1
 882              		.p2align 2,,3
 883              		.global	BitShift_g
 884              		.syntax unified
 885              		.thumb
 886              		.thumb_func
 888              	BitShift_g:
 889              	.LVL58:
 890              	.LFB122:
 503:HANcoder_E407_TTA_CombineModel.c **** 
 504:HANcoder_E407_TTA_CombineModel.c **** /*
 505:HANcoder_E407_TTA_CombineModel.c ****  * Output and update for atomic system:
 506:HANcoder_E407_TTA_CombineModel.c ****  *    '<S136>/Bit Shift'
 507:HANcoder_E407_TTA_CombineModel.c ****  *    '<S136>/Bit Shift7'
 508:HANcoder_E407_TTA_CombineModel.c ****  *    '<S205>/Bit Shift'
 509:HANcoder_E407_TTA_CombineModel.c ****  *    '<S205>/Bit Shift7'
 510:HANcoder_E407_TTA_CombineModel.c ****  *    '<S252>/Bit Shift'
 511:HANcoder_E407_TTA_CombineModel.c ****  *    '<S252>/Bit Shift7'
 512:HANcoder_E407_TTA_CombineModel.c ****  *    '<S277>/Bit Shift'
 513:HANcoder_E407_TTA_CombineModel.c ****  *    '<S277>/Bit Shift7'
 514:HANcoder_E407_TTA_CombineModel.c ****  *    '<S324>/Bit Shift'
 515:HANcoder_E407_TTA_CombineModel.c ****  *    '<S324>/Bit Shift7'
 516:HANcoder_E407_TTA_CombineModel.c ****  */
 517:HANcoder_E407_TTA_CombineModel.c **** void BitShift_g(uint8_T rtu_u, rtB_BitShift_l *localB)
 518:HANcoder_E407_TTA_CombineModel.c **** {
 891              		.loc 1 518 1 is_stmt 1 view -0
 892              		.cfi_startproc
 893              		@ args = 0, pretend = 0, frame = 0
 894              		@ frame_needed = 0, uses_anonymous_args = 0
 895              		@ link register save eliminated.
 519:HANcoder_E407_TTA_CombineModel.c ****   /* MATLAB Function: '<S142>/bit_shift' */
 520:HANcoder_E407_TTA_CombineModel.c ****   /* MATLAB Function 'Logic and Bit Operations/Bit Shift/bit_shift': '<S150>:1' */
 521:HANcoder_E407_TTA_CombineModel.c ****   /* '<S150>:1:8' */
 522:HANcoder_E407_TTA_CombineModel.c ****   localB->y = (uint8_T)((uint32_T)rtu_u >> 1);
 896              		.loc 1 522 3 view .LVU290
 897              		.loc 1 522 15 is_stmt 0 view .LVU291
 898 0000 4008     		lsrs	r0, r0, #1
 899              	.LVL59:
 900              		.loc 1 522 13 view .LVU292
 901 0002 0870     		strb	r0, [r1]
 523:HANcoder_E407_TTA_CombineModel.c **** }
 902              		.loc 1 523 1 view .LVU293
 903 0004 7047     		bx	lr
 904              		.cfi_endproc
 905              	.LFE122:
 907 0006 00BF     		.section	.text.BitShift1,"ax",%progbits
 908              		.align	1
 909              		.p2align 2,,3
 910              		.global	BitShift1
 911              		.syntax unified
 912              		.thumb
 913              		.thumb_func
 915              	BitShift1:
 916              	.LVL60:
 917              	.LFB123:
 524:HANcoder_E407_TTA_CombineModel.c **** 
 525:HANcoder_E407_TTA_CombineModel.c **** /*
 526:HANcoder_E407_TTA_CombineModel.c ****  * Output and update for atomic system:
 527:HANcoder_E407_TTA_CombineModel.c ****  *    '<S136>/Bit Shift1'
 528:HANcoder_E407_TTA_CombineModel.c ****  *    '<S205>/Bit Shift1'
 529:HANcoder_E407_TTA_CombineModel.c ****  *    '<S252>/Bit Shift1'
 530:HANcoder_E407_TTA_CombineModel.c ****  *    '<S277>/Bit Shift1'
 531:HANcoder_E407_TTA_CombineModel.c ****  *    '<S324>/Bit Shift1'
 532:HANcoder_E407_TTA_CombineModel.c ****  */
 533:HANcoder_E407_TTA_CombineModel.c **** void BitShift1(uint8_T rtu_u, rtB_BitShift1 *localB)
 534:HANcoder_E407_TTA_CombineModel.c **** {
 918              		.loc 1 534 1 is_stmt 1 view -0
 919              		.cfi_startproc
 920              		@ args = 0, pretend = 0, frame = 0
 921              		@ frame_needed = 0, uses_anonymous_args = 0
 922              		@ link register save eliminated.
 535:HANcoder_E407_TTA_CombineModel.c ****   /* MATLAB Function: '<S143>/bit_shift' */
 536:HANcoder_E407_TTA_CombineModel.c ****   /* MATLAB Function 'Logic and Bit Operations/Bit Shift/bit_shift': '<S151>:1' */
 537:HANcoder_E407_TTA_CombineModel.c ****   /* '<S151>:1:8' */
 538:HANcoder_E407_TTA_CombineModel.c ****   localB->y = (uint8_T)((uint32_T)rtu_u >> 2);
 923              		.loc 1 538 3 view .LVU295
 924              		.loc 1 538 15 is_stmt 0 view .LVU296
 925 0000 8008     		lsrs	r0, r0, #2
 926              	.LVL61:
 927              		.loc 1 538 13 view .LVU297
 928 0002 0870     		strb	r0, [r1]
 539:HANcoder_E407_TTA_CombineModel.c **** }
 929              		.loc 1 539 1 view .LVU298
 930 0004 7047     		bx	lr
 931              		.cfi_endproc
 932              	.LFE123:
 934 0006 00BF     		.section	.text.BitShift2,"ax",%progbits
 935              		.align	1
 936              		.p2align 2,,3
 937              		.global	BitShift2
 938              		.syntax unified
 939              		.thumb
 940              		.thumb_func
 942              	BitShift2:
 943              	.LVL62:
 944              	.LFB124:
 540:HANcoder_E407_TTA_CombineModel.c **** 
 541:HANcoder_E407_TTA_CombineModel.c **** /*
 542:HANcoder_E407_TTA_CombineModel.c ****  * Output and update for atomic system:
 543:HANcoder_E407_TTA_CombineModel.c ****  *    '<S136>/Bit Shift2'
 544:HANcoder_E407_TTA_CombineModel.c ****  *    '<S205>/Bit Shift2'
 545:HANcoder_E407_TTA_CombineModel.c ****  *    '<S252>/Bit Shift2'
 546:HANcoder_E407_TTA_CombineModel.c ****  *    '<S277>/Bit Shift2'
 547:HANcoder_E407_TTA_CombineModel.c ****  *    '<S324>/Bit Shift2'
 548:HANcoder_E407_TTA_CombineModel.c ****  */
 549:HANcoder_E407_TTA_CombineModel.c **** void BitShift2(uint8_T rtu_u, rtB_BitShift2 *localB)
 550:HANcoder_E407_TTA_CombineModel.c **** {
 945              		.loc 1 550 1 is_stmt 1 view -0
 946              		.cfi_startproc
 947              		@ args = 0, pretend = 0, frame = 0
 948              		@ frame_needed = 0, uses_anonymous_args = 0
 949              		@ link register save eliminated.
 551:HANcoder_E407_TTA_CombineModel.c ****   /* MATLAB Function: '<S144>/bit_shift' */
 552:HANcoder_E407_TTA_CombineModel.c ****   /* MATLAB Function 'Logic and Bit Operations/Bit Shift/bit_shift': '<S152>:1' */
 553:HANcoder_E407_TTA_CombineModel.c ****   /* '<S152>:1:8' */
 554:HANcoder_E407_TTA_CombineModel.c ****   localB->y = (uint8_T)((uint32_T)rtu_u >> 3);
 950              		.loc 1 554 3 view .LVU300
 951              		.loc 1 554 15 is_stmt 0 view .LVU301
 952 0000 C008     		lsrs	r0, r0, #3
 953              	.LVL63:
 954              		.loc 1 554 13 view .LVU302
 955 0002 0870     		strb	r0, [r1]
 555:HANcoder_E407_TTA_CombineModel.c **** }
 956              		.loc 1 555 1 view .LVU303
 957 0004 7047     		bx	lr
 958              		.cfi_endproc
 959              	.LFE124:
 961 0006 00BF     		.section	.text.BitShift3,"ax",%progbits
 962              		.align	1
 963              		.p2align 2,,3
 964              		.global	BitShift3
 965              		.syntax unified
 966              		.thumb
 967              		.thumb_func
 969              	BitShift3:
 970              	.LVL64:
 971              	.LFB125:
 556:HANcoder_E407_TTA_CombineModel.c **** 
 557:HANcoder_E407_TTA_CombineModel.c **** /*
 558:HANcoder_E407_TTA_CombineModel.c ****  * Output and update for atomic system:
 559:HANcoder_E407_TTA_CombineModel.c ****  *    '<S136>/Bit Shift3'
 560:HANcoder_E407_TTA_CombineModel.c ****  *    '<S205>/Bit Shift3'
 561:HANcoder_E407_TTA_CombineModel.c ****  *    '<S252>/Bit Shift3'
 562:HANcoder_E407_TTA_CombineModel.c ****  *    '<S277>/Bit Shift3'
 563:HANcoder_E407_TTA_CombineModel.c ****  *    '<S324>/Bit Shift3'
 564:HANcoder_E407_TTA_CombineModel.c ****  */
 565:HANcoder_E407_TTA_CombineModel.c **** void BitShift3(uint8_T rtu_u, rtB_BitShift3 *localB)
 566:HANcoder_E407_TTA_CombineModel.c **** {
 972              		.loc 1 566 1 is_stmt 1 view -0
 973              		.cfi_startproc
 974              		@ args = 0, pretend = 0, frame = 0
 975              		@ frame_needed = 0, uses_anonymous_args = 0
 976              		@ link register save eliminated.
 567:HANcoder_E407_TTA_CombineModel.c ****   /* MATLAB Function: '<S145>/bit_shift' */
 568:HANcoder_E407_TTA_CombineModel.c ****   /* MATLAB Function 'Logic and Bit Operations/Bit Shift/bit_shift': '<S153>:1' */
 569:HANcoder_E407_TTA_CombineModel.c ****   /* '<S153>:1:8' */
 570:HANcoder_E407_TTA_CombineModel.c ****   localB->y = (uint8_T)((uint32_T)rtu_u >> 4);
 977              		.loc 1 570 3 view .LVU305
 978              		.loc 1 570 15 is_stmt 0 view .LVU306
 979 0000 0009     		lsrs	r0, r0, #4
 980              	.LVL65:
 981              		.loc 1 570 13 view .LVU307
 982 0002 0870     		strb	r0, [r1]
 571:HANcoder_E407_TTA_CombineModel.c **** }
 983              		.loc 1 571 1 view .LVU308
 984 0004 7047     		bx	lr
 985              		.cfi_endproc
 986              	.LFE125:
 988 0006 00BF     		.section	.text.BitShift4,"ax",%progbits
 989              		.align	1
 990              		.p2align 2,,3
 991              		.global	BitShift4
 992              		.syntax unified
 993              		.thumb
 994              		.thumb_func
 996              	BitShift4:
 997              	.LVL66:
 998              	.LFB126:
 572:HANcoder_E407_TTA_CombineModel.c **** 
 573:HANcoder_E407_TTA_CombineModel.c **** /*
 574:HANcoder_E407_TTA_CombineModel.c ****  * Output and update for atomic system:
 575:HANcoder_E407_TTA_CombineModel.c ****  *    '<S136>/Bit Shift4'
 576:HANcoder_E407_TTA_CombineModel.c ****  *    '<S205>/Bit Shift4'
 577:HANcoder_E407_TTA_CombineModel.c ****  *    '<S252>/Bit Shift4'
 578:HANcoder_E407_TTA_CombineModel.c ****  *    '<S277>/Bit Shift4'
 579:HANcoder_E407_TTA_CombineModel.c ****  *    '<S324>/Bit Shift4'
 580:HANcoder_E407_TTA_CombineModel.c ****  */
 581:HANcoder_E407_TTA_CombineModel.c **** void BitShift4(uint8_T rtu_u, rtB_BitShift4 *localB)
 582:HANcoder_E407_TTA_CombineModel.c **** {
 999              		.loc 1 582 1 is_stmt 1 view -0
 1000              		.cfi_startproc
 1001              		@ args = 0, pretend = 0, frame = 0
 1002              		@ frame_needed = 0, uses_anonymous_args = 0
 1003              		@ link register save eliminated.
 583:HANcoder_E407_TTA_CombineModel.c ****   /* MATLAB Function: '<S146>/bit_shift' */
 584:HANcoder_E407_TTA_CombineModel.c ****   /* MATLAB Function 'Logic and Bit Operations/Bit Shift/bit_shift': '<S154>:1' */
 585:HANcoder_E407_TTA_CombineModel.c ****   /* '<S154>:1:8' */
 586:HANcoder_E407_TTA_CombineModel.c ****   localB->y = (uint8_T)((uint32_T)rtu_u >> 5);
 1004              		.loc 1 586 3 view .LVU310
 1005              		.loc 1 586 15 is_stmt 0 view .LVU311
 1006 0000 4009     		lsrs	r0, r0, #5
 1007              	.LVL67:
 1008              		.loc 1 586 13 view .LVU312
 1009 0002 0870     		strb	r0, [r1]
 587:HANcoder_E407_TTA_CombineModel.c **** }
 1010              		.loc 1 587 1 view .LVU313
 1011 0004 7047     		bx	lr
 1012              		.cfi_endproc
 1013              	.LFE126:
 1015 0006 00BF     		.section	.text.BitShift5,"ax",%progbits
 1016              		.align	1
 1017              		.p2align 2,,3
 1018              		.global	BitShift5
 1019              		.syntax unified
 1020              		.thumb
 1021              		.thumb_func
 1023              	BitShift5:
 1024              	.LVL68:
 1025              	.LFB127:
 588:HANcoder_E407_TTA_CombineModel.c **** 
 589:HANcoder_E407_TTA_CombineModel.c **** /*
 590:HANcoder_E407_TTA_CombineModel.c ****  * Output and update for atomic system:
 591:HANcoder_E407_TTA_CombineModel.c ****  *    '<S136>/Bit Shift5'
 592:HANcoder_E407_TTA_CombineModel.c ****  *    '<S205>/Bit Shift5'
 593:HANcoder_E407_TTA_CombineModel.c ****  *    '<S252>/Bit Shift5'
 594:HANcoder_E407_TTA_CombineModel.c ****  *    '<S277>/Bit Shift5'
 595:HANcoder_E407_TTA_CombineModel.c ****  *    '<S324>/Bit Shift5'
 596:HANcoder_E407_TTA_CombineModel.c ****  */
 597:HANcoder_E407_TTA_CombineModel.c **** void BitShift5(uint8_T rtu_u, rtB_BitShift5 *localB)
 598:HANcoder_E407_TTA_CombineModel.c **** {
 1026              		.loc 1 598 1 is_stmt 1 view -0
 1027              		.cfi_startproc
 1028              		@ args = 0, pretend = 0, frame = 0
 1029              		@ frame_needed = 0, uses_anonymous_args = 0
 1030              		@ link register save eliminated.
 599:HANcoder_E407_TTA_CombineModel.c ****   /* MATLAB Function: '<S147>/bit_shift' */
 600:HANcoder_E407_TTA_CombineModel.c ****   /* MATLAB Function 'Logic and Bit Operations/Bit Shift/bit_shift': '<S155>:1' */
 601:HANcoder_E407_TTA_CombineModel.c ****   /* '<S155>:1:8' */
 602:HANcoder_E407_TTA_CombineModel.c ****   localB->y = (uint8_T)((uint32_T)rtu_u >> 6);
 1031              		.loc 1 602 3 view .LVU315
 1032              		.loc 1 602 15 is_stmt 0 view .LVU316
 1033 0000 8009     		lsrs	r0, r0, #6
 1034              	.LVL69:
 1035              		.loc 1 602 13 view .LVU317
 1036 0002 0870     		strb	r0, [r1]
 603:HANcoder_E407_TTA_CombineModel.c **** }
 1037              		.loc 1 603 1 view .LVU318
 1038 0004 7047     		bx	lr
 1039              		.cfi_endproc
 1040              	.LFE127:
 1042 0006 00BF     		.section	.text.BitShift6,"ax",%progbits
 1043              		.align	1
 1044              		.p2align 2,,3
 1045              		.global	BitShift6
 1046              		.syntax unified
 1047              		.thumb
 1048              		.thumb_func
 1050              	BitShift6:
 1051              	.LVL70:
 1052              	.LFB128:
 604:HANcoder_E407_TTA_CombineModel.c **** 
 605:HANcoder_E407_TTA_CombineModel.c **** /*
 606:HANcoder_E407_TTA_CombineModel.c ****  * Output and update for atomic system:
 607:HANcoder_E407_TTA_CombineModel.c ****  *    '<S136>/Bit Shift6'
 608:HANcoder_E407_TTA_CombineModel.c ****  *    '<S205>/Bit Shift6'
 609:HANcoder_E407_TTA_CombineModel.c ****  *    '<S252>/Bit Shift6'
 610:HANcoder_E407_TTA_CombineModel.c ****  *    '<S277>/Bit Shift6'
 611:HANcoder_E407_TTA_CombineModel.c ****  *    '<S324>/Bit Shift6'
 612:HANcoder_E407_TTA_CombineModel.c ****  */
 613:HANcoder_E407_TTA_CombineModel.c **** void BitShift6(uint8_T rtu_u, rtB_BitShift6 *localB)
 614:HANcoder_E407_TTA_CombineModel.c **** {
 1053              		.loc 1 614 1 is_stmt 1 view -0
 1054              		.cfi_startproc
 1055              		@ args = 0, pretend = 0, frame = 0
 1056              		@ frame_needed = 0, uses_anonymous_args = 0
 1057              		@ link register save eliminated.
 615:HANcoder_E407_TTA_CombineModel.c ****   /* MATLAB Function: '<S148>/bit_shift' */
 616:HANcoder_E407_TTA_CombineModel.c ****   /* MATLAB Function 'Logic and Bit Operations/Bit Shift/bit_shift': '<S156>:1' */
 617:HANcoder_E407_TTA_CombineModel.c ****   /* '<S156>:1:8' */
 618:HANcoder_E407_TTA_CombineModel.c ****   localB->y = (uint8_T)((uint32_T)rtu_u >> 7);
 1058              		.loc 1 618 3 view .LVU320
 1059              		.loc 1 618 15 is_stmt 0 view .LVU321
 1060 0000 C009     		lsrs	r0, r0, #7
 1061              	.LVL71:
 1062              		.loc 1 618 13 view .LVU322
 1063 0002 0870     		strb	r0, [r1]
 619:HANcoder_E407_TTA_CombineModel.c **** }
 1064              		.loc 1 619 1 view .LVU323
 1065 0004 7047     		bx	lr
 1066              		.cfi_endproc
 1067              	.LFE128:
 1069 0006 00BF     		.section	.text.BitShift_gy,"ax",%progbits
 1070              		.align	1
 1071              		.p2align 2,,3
 1072              		.global	BitShift_gy
 1073              		.syntax unified
 1074              		.thumb
 1075              		.thumb_func
 1077              	BitShift_gy:
 1078              	.LVL72:
 1079              	.LFB129:
 620:HANcoder_E407_TTA_CombineModel.c **** 
 621:HANcoder_E407_TTA_CombineModel.c **** /*
 622:HANcoder_E407_TTA_CombineModel.c ****  * Output and update for atomic system:
 623:HANcoder_E407_TTA_CombineModel.c ****  *    '<S159>/Bit Shift'
 624:HANcoder_E407_TTA_CombineModel.c ****  *    '<S181>/Bit Shift'
 625:HANcoder_E407_TTA_CombineModel.c ****  *    '<S228>/Bit Shift'
 626:HANcoder_E407_TTA_CombineModel.c ****  *    '<S300>/Bit Shift'
 627:HANcoder_E407_TTA_CombineModel.c ****  *    '<S347>/Bit Shift'
 628:HANcoder_E407_TTA_CombineModel.c ****  */
 629:HANcoder_E407_TTA_CombineModel.c **** void BitShift_gy(uint8_T rtu_u, rtB_BitShift_o *localB)
 630:HANcoder_E407_TTA_CombineModel.c **** {
 1080              		.loc 1 630 1 is_stmt 1 view -0
 1081              		.cfi_startproc
 1082              		@ args = 0, pretend = 0, frame = 0
 1083              		@ frame_needed = 0, uses_anonymous_args = 0
 1084              		@ link register save eliminated.
 631:HANcoder_E407_TTA_CombineModel.c ****   /* MATLAB Function: '<S162>/bit_shift' */
 632:HANcoder_E407_TTA_CombineModel.c ****   /* MATLAB Function 'Logic and Bit Operations/Bit Shift/bit_shift': '<S169>:1' */
 633:HANcoder_E407_TTA_CombineModel.c ****   /* '<S169>:1:6' */
 634:HANcoder_E407_TTA_CombineModel.c ****   localB->y = (uint8_T)(rtu_u << 2);
 1085              		.loc 1 634 3 view .LVU325
 1086              		.loc 1 634 15 is_stmt 0 view .LVU326
 1087 0000 8000     		lsls	r0, r0, #2
 1088              	.LVL73:
 1089              		.loc 1 634 13 view .LVU327
 1090 0002 0870     		strb	r0, [r1]
 635:HANcoder_E407_TTA_CombineModel.c **** }
 1091              		.loc 1 635 1 view .LVU328
 1092 0004 7047     		bx	lr
 1093              		.cfi_endproc
 1094              	.LFE129:
 1096 0006 00BF     		.section	.text.BitShift1_b,"ax",%progbits
 1097              		.align	1
 1098              		.p2align 2,,3
 1099              		.global	BitShift1_b
 1100              		.syntax unified
 1101              		.thumb
 1102              		.thumb_func
 1104              	BitShift1_b:
 1105              	.LVL74:
 1106              	.LFB130:
 636:HANcoder_E407_TTA_CombineModel.c **** 
 637:HANcoder_E407_TTA_CombineModel.c **** /*
 638:HANcoder_E407_TTA_CombineModel.c ****  * Output and update for atomic system:
 639:HANcoder_E407_TTA_CombineModel.c ****  *    '<S159>/Bit Shift1'
 640:HANcoder_E407_TTA_CombineModel.c ****  *    '<S181>/Bit Shift1'
 641:HANcoder_E407_TTA_CombineModel.c ****  *    '<S228>/Bit Shift1'
 642:HANcoder_E407_TTA_CombineModel.c ****  *    '<S300>/Bit Shift1'
 643:HANcoder_E407_TTA_CombineModel.c ****  *    '<S347>/Bit Shift1'
 644:HANcoder_E407_TTA_CombineModel.c ****  */
 645:HANcoder_E407_TTA_CombineModel.c **** void BitShift1_b(uint8_T rtu_u, rtB_BitShift1_j *localB)
 646:HANcoder_E407_TTA_CombineModel.c **** {
 1107              		.loc 1 646 1 is_stmt 1 view -0
 1108              		.cfi_startproc
 1109              		@ args = 0, pretend = 0, frame = 0
 1110              		@ frame_needed = 0, uses_anonymous_args = 0
 1111              		@ link register save eliminated.
 647:HANcoder_E407_TTA_CombineModel.c ****   /* MATLAB Function: '<S163>/bit_shift' */
 648:HANcoder_E407_TTA_CombineModel.c ****   /* MATLAB Function 'Logic and Bit Operations/Bit Shift/bit_shift': '<S170>:1' */
 649:HANcoder_E407_TTA_CombineModel.c ****   /* '<S170>:1:6' */
 650:HANcoder_E407_TTA_CombineModel.c ****   localB->y = (uint8_T)(rtu_u << 1);
 1112              		.loc 1 650 3 view .LVU330
 1113              		.loc 1 650 15 is_stmt 0 view .LVU331
 1114 0000 4000     		lsls	r0, r0, #1
 1115              	.LVL75:
 1116              		.loc 1 650 13 view .LVU332
 1117 0002 0870     		strb	r0, [r1]
 651:HANcoder_E407_TTA_CombineModel.c **** }
 1118              		.loc 1 651 1 view .LVU333
 1119 0004 7047     		bx	lr
 1120              		.cfi_endproc
 1121              	.LFE130:
 1123 0006 00BF     		.section	.text.BitShift2_p,"ax",%progbits
 1124              		.align	1
 1125              		.p2align 2,,3
 1126              		.global	BitShift2_p
 1127              		.syntax unified
 1128              		.thumb
 1129              		.thumb_func
 1131              	BitShift2_p:
 1132              	.LVL76:
 1133              	.LFB131:
 652:HANcoder_E407_TTA_CombineModel.c **** 
 653:HANcoder_E407_TTA_CombineModel.c **** /*
 654:HANcoder_E407_TTA_CombineModel.c ****  * Output and update for atomic system:
 655:HANcoder_E407_TTA_CombineModel.c ****  *    '<S159>/Bit Shift2'
 656:HANcoder_E407_TTA_CombineModel.c ****  *    '<S181>/Bit Shift2'
 657:HANcoder_E407_TTA_CombineModel.c ****  *    '<S228>/Bit Shift2'
 658:HANcoder_E407_TTA_CombineModel.c ****  *    '<S300>/Bit Shift2'
 659:HANcoder_E407_TTA_CombineModel.c ****  *    '<S347>/Bit Shift2'
 660:HANcoder_E407_TTA_CombineModel.c ****  */
 661:HANcoder_E407_TTA_CombineModel.c **** void BitShift2_p(uint8_T rtu_u, rtB_BitShift2_e *localB)
 662:HANcoder_E407_TTA_CombineModel.c **** {
 1134              		.loc 1 662 1 is_stmt 1 view -0
 1135              		.cfi_startproc
 1136              		@ args = 0, pretend = 0, frame = 0
 1137              		@ frame_needed = 0, uses_anonymous_args = 0
 1138              		@ link register save eliminated.
 663:HANcoder_E407_TTA_CombineModel.c ****   /* MATLAB Function: '<S164>/bit_shift' */
 664:HANcoder_E407_TTA_CombineModel.c ****   /* MATLAB Function 'Logic and Bit Operations/Bit Shift/bit_shift': '<S171>:1' */
 665:HANcoder_E407_TTA_CombineModel.c ****   /* '<S171>:1:6' */
 666:HANcoder_E407_TTA_CombineModel.c ****   localB->y = (uint8_T)(rtu_u << 3);
 1139              		.loc 1 666 3 view .LVU335
 1140              		.loc 1 666 15 is_stmt 0 view .LVU336
 1141 0000 C000     		lsls	r0, r0, #3
 1142              	.LVL77:
 1143              		.loc 1 666 13 view .LVU337
 1144 0002 0870     		strb	r0, [r1]
 667:HANcoder_E407_TTA_CombineModel.c **** }
 1145              		.loc 1 667 1 view .LVU338
 1146 0004 7047     		bx	lr
 1147              		.cfi_endproc
 1148              	.LFE131:
 1150 0006 00BF     		.section	.text.BitShift3_l,"ax",%progbits
 1151              		.align	1
 1152              		.p2align 2,,3
 1153              		.global	BitShift3_l
 1154              		.syntax unified
 1155              		.thumb
 1156              		.thumb_func
 1158              	BitShift3_l:
 1159              	.LVL78:
 1160              	.LFB132:
 668:HANcoder_E407_TTA_CombineModel.c **** 
 669:HANcoder_E407_TTA_CombineModel.c **** /*
 670:HANcoder_E407_TTA_CombineModel.c ****  * Output and update for atomic system:
 671:HANcoder_E407_TTA_CombineModel.c ****  *    '<S159>/Bit Shift3'
 672:HANcoder_E407_TTA_CombineModel.c ****  *    '<S181>/Bit Shift3'
 673:HANcoder_E407_TTA_CombineModel.c ****  *    '<S228>/Bit Shift3'
 674:HANcoder_E407_TTA_CombineModel.c ****  *    '<S300>/Bit Shift3'
 675:HANcoder_E407_TTA_CombineModel.c ****  *    '<S347>/Bit Shift3'
 676:HANcoder_E407_TTA_CombineModel.c ****  */
 677:HANcoder_E407_TTA_CombineModel.c **** void BitShift3_l(uint8_T rtu_u, rtB_BitShift3_g *localB)
 678:HANcoder_E407_TTA_CombineModel.c **** {
 1161              		.loc 1 678 1 is_stmt 1 view -0
 1162              		.cfi_startproc
 1163              		@ args = 0, pretend = 0, frame = 0
 1164              		@ frame_needed = 0, uses_anonymous_args = 0
 1165              		@ link register save eliminated.
 679:HANcoder_E407_TTA_CombineModel.c ****   /* MATLAB Function: '<S165>/bit_shift' */
 680:HANcoder_E407_TTA_CombineModel.c ****   /* MATLAB Function 'Logic and Bit Operations/Bit Shift/bit_shift': '<S172>:1' */
 681:HANcoder_E407_TTA_CombineModel.c ****   /* '<S172>:1:6' */
 682:HANcoder_E407_TTA_CombineModel.c ****   localB->y = (uint8_T)(rtu_u << 4);
 1166              		.loc 1 682 3 view .LVU340
 1167              		.loc 1 682 15 is_stmt 0 view .LVU341
 1168 0000 0001     		lsls	r0, r0, #4
 1169              	.LVL79:
 1170              		.loc 1 682 13 view .LVU342
 1171 0002 0870     		strb	r0, [r1]
 683:HANcoder_E407_TTA_CombineModel.c **** }
 1172              		.loc 1 683 1 view .LVU343
 1173 0004 7047     		bx	lr
 1174              		.cfi_endproc
 1175              	.LFE132:
 1177 0006 00BF     		.section	.text.BitShift4_g,"ax",%progbits
 1178              		.align	1
 1179              		.p2align 2,,3
 1180              		.global	BitShift4_g
 1181              		.syntax unified
 1182              		.thumb
 1183              		.thumb_func
 1185              	BitShift4_g:
 1186              	.LVL80:
 1187              	.LFB133:
 684:HANcoder_E407_TTA_CombineModel.c **** 
 685:HANcoder_E407_TTA_CombineModel.c **** /*
 686:HANcoder_E407_TTA_CombineModel.c ****  * Output and update for atomic system:
 687:HANcoder_E407_TTA_CombineModel.c ****  *    '<S159>/Bit Shift4'
 688:HANcoder_E407_TTA_CombineModel.c ****  *    '<S181>/Bit Shift4'
 689:HANcoder_E407_TTA_CombineModel.c ****  *    '<S228>/Bit Shift4'
 690:HANcoder_E407_TTA_CombineModel.c ****  *    '<S300>/Bit Shift4'
 691:HANcoder_E407_TTA_CombineModel.c ****  *    '<S347>/Bit Shift4'
 692:HANcoder_E407_TTA_CombineModel.c ****  */
 693:HANcoder_E407_TTA_CombineModel.c **** void BitShift4_g(uint8_T rtu_u, rtB_BitShift4_g *localB)
 694:HANcoder_E407_TTA_CombineModel.c **** {
 1188              		.loc 1 694 1 is_stmt 1 view -0
 1189              		.cfi_startproc
 1190              		@ args = 0, pretend = 0, frame = 0
 1191              		@ frame_needed = 0, uses_anonymous_args = 0
 1192              		@ link register save eliminated.
 695:HANcoder_E407_TTA_CombineModel.c ****   /* MATLAB Function: '<S166>/bit_shift' */
 696:HANcoder_E407_TTA_CombineModel.c ****   /* MATLAB Function 'Logic and Bit Operations/Bit Shift/bit_shift': '<S173>:1' */
 697:HANcoder_E407_TTA_CombineModel.c ****   /* '<S173>:1:6' */
 698:HANcoder_E407_TTA_CombineModel.c ****   localB->y = (uint8_T)(rtu_u << 5);
 1193              		.loc 1 698 3 view .LVU345
 1194              		.loc 1 698 15 is_stmt 0 view .LVU346
 1195 0000 4001     		lsls	r0, r0, #5
 1196              	.LVL81:
 1197              		.loc 1 698 13 view .LVU347
 1198 0002 0870     		strb	r0, [r1]
 699:HANcoder_E407_TTA_CombineModel.c **** }
 1199              		.loc 1 699 1 view .LVU348
 1200 0004 7047     		bx	lr
 1201              		.cfi_endproc
 1202              	.LFE133:
 1204 0006 00BF     		.section	.text.BitShift5_n,"ax",%progbits
 1205              		.align	1
 1206              		.p2align 2,,3
 1207              		.global	BitShift5_n
 1208              		.syntax unified
 1209              		.thumb
 1210              		.thumb_func
 1212              	BitShift5_n:
 1213              	.LVL82:
 1214              	.LFB134:
 700:HANcoder_E407_TTA_CombineModel.c **** 
 701:HANcoder_E407_TTA_CombineModel.c **** /*
 702:HANcoder_E407_TTA_CombineModel.c ****  * Output and update for atomic system:
 703:HANcoder_E407_TTA_CombineModel.c ****  *    '<S159>/Bit Shift5'
 704:HANcoder_E407_TTA_CombineModel.c ****  *    '<S181>/Bit Shift5'
 705:HANcoder_E407_TTA_CombineModel.c ****  *    '<S228>/Bit Shift5'
 706:HANcoder_E407_TTA_CombineModel.c ****  *    '<S300>/Bit Shift5'
 707:HANcoder_E407_TTA_CombineModel.c ****  *    '<S347>/Bit Shift5'
 708:HANcoder_E407_TTA_CombineModel.c ****  */
 709:HANcoder_E407_TTA_CombineModel.c **** void BitShift5_n(uint8_T rtu_u, rtB_BitShift5_e *localB)
 710:HANcoder_E407_TTA_CombineModel.c **** {
 1215              		.loc 1 710 1 is_stmt 1 view -0
 1216              		.cfi_startproc
 1217              		@ args = 0, pretend = 0, frame = 0
 1218              		@ frame_needed = 0, uses_anonymous_args = 0
 1219              		@ link register save eliminated.
 711:HANcoder_E407_TTA_CombineModel.c ****   /* MATLAB Function: '<S167>/bit_shift' */
 712:HANcoder_E407_TTA_CombineModel.c ****   /* MATLAB Function 'Logic and Bit Operations/Bit Shift/bit_shift': '<S174>:1' */
 713:HANcoder_E407_TTA_CombineModel.c ****   /* '<S174>:1:6' */
 714:HANcoder_E407_TTA_CombineModel.c ****   localB->y = (uint8_T)(rtu_u << 6);
 1220              		.loc 1 714 3 view .LVU350
 1221              		.loc 1 714 15 is_stmt 0 view .LVU351
 1222 0000 8001     		lsls	r0, r0, #6
 1223              	.LVL83:
 1224              		.loc 1 714 13 view .LVU352
 1225 0002 0870     		strb	r0, [r1]
 715:HANcoder_E407_TTA_CombineModel.c **** }
 1226              		.loc 1 715 1 view .LVU353
 1227 0004 7047     		bx	lr
 1228              		.cfi_endproc
 1229              	.LFE134:
 1231 0006 00BF     		.section	.text.BitShift6_d,"ax",%progbits
 1232              		.align	1
 1233              		.p2align 2,,3
 1234              		.global	BitShift6_d
 1235              		.syntax unified
 1236              		.thumb
 1237              		.thumb_func
 1239              	BitShift6_d:
 1240              	.LVL84:
 1241              	.LFB135:
 716:HANcoder_E407_TTA_CombineModel.c **** 
 717:HANcoder_E407_TTA_CombineModel.c **** /*
 718:HANcoder_E407_TTA_CombineModel.c ****  * Output and update for atomic system:
 719:HANcoder_E407_TTA_CombineModel.c ****  *    '<S159>/Bit Shift6'
 720:HANcoder_E407_TTA_CombineModel.c ****  *    '<S181>/Bit Shift6'
 721:HANcoder_E407_TTA_CombineModel.c ****  *    '<S228>/Bit Shift6'
 722:HANcoder_E407_TTA_CombineModel.c ****  *    '<S300>/Bit Shift6'
 723:HANcoder_E407_TTA_CombineModel.c ****  *    '<S347>/Bit Shift6'
 724:HANcoder_E407_TTA_CombineModel.c ****  */
 725:HANcoder_E407_TTA_CombineModel.c **** void BitShift6_d(uint8_T rtu_u, rtB_BitShift6_b *localB)
 726:HANcoder_E407_TTA_CombineModel.c **** {
 1242              		.loc 1 726 1 is_stmt 1 view -0
 1243              		.cfi_startproc
 1244              		@ args = 0, pretend = 0, frame = 0
 1245              		@ frame_needed = 0, uses_anonymous_args = 0
 1246              		@ link register save eliminated.
 727:HANcoder_E407_TTA_CombineModel.c ****   /* MATLAB Function: '<S168>/bit_shift' */
 728:HANcoder_E407_TTA_CombineModel.c ****   /* MATLAB Function 'Logic and Bit Operations/Bit Shift/bit_shift': '<S175>:1' */
 729:HANcoder_E407_TTA_CombineModel.c ****   /* '<S175>:1:6' */
 730:HANcoder_E407_TTA_CombineModel.c ****   localB->y = (uint8_T)(rtu_u << 7);
 1247              		.loc 1 730 3 view .LVU355
 1248              		.loc 1 730 15 is_stmt 0 view .LVU356
 1249 0000 C001     		lsls	r0, r0, #7
 1250              	.LVL85:
 1251              		.loc 1 730 13 view .LVU357
 1252 0002 0870     		strb	r0, [r1]
 731:HANcoder_E407_TTA_CombineModel.c **** }
 1253              		.loc 1 731 1 view .LVU358
 1254 0004 7047     		bx	lr
 1255              		.cfi_endproc
 1256              	.LFE135:
 1258 0006 00BF     		.section	.text.BitShift_o,"ax",%progbits
 1259              		.align	1
 1260              		.p2align 2,,3
 1261              		.global	BitShift_o
 1262              		.syntax unified
 1263              		.thumb
 1264              		.thumb_func
 1266              	BitShift_o:
 1267              	.LVL86:
 1268              	.LFB136:
 732:HANcoder_E407_TTA_CombineModel.c **** 
 733:HANcoder_E407_TTA_CombineModel.c **** /*
 734:HANcoder_E407_TTA_CombineModel.c ****  * Output and update for atomic system:
 735:HANcoder_E407_TTA_CombineModel.c ****  *    '<S160>/Bit Shift'
 736:HANcoder_E407_TTA_CombineModel.c ****  *    '<S161>/Bit Shift'
 737:HANcoder_E407_TTA_CombineModel.c ****  *    '<S182>/Bit Shift'
 738:HANcoder_E407_TTA_CombineModel.c ****  *    '<S183>/Bit Shift'
 739:HANcoder_E407_TTA_CombineModel.c ****  *    '<S229>/Bit Shift'
 740:HANcoder_E407_TTA_CombineModel.c ****  *    '<S230>/Bit Shift'
 741:HANcoder_E407_TTA_CombineModel.c ****  *    '<S301>/Bit Shift'
 742:HANcoder_E407_TTA_CombineModel.c ****  *    '<S302>/Bit Shift'
 743:HANcoder_E407_TTA_CombineModel.c ****  *    '<S348>/Bit Shift'
 744:HANcoder_E407_TTA_CombineModel.c ****  *    '<S349>/Bit Shift'
 745:HANcoder_E407_TTA_CombineModel.c ****  */
 746:HANcoder_E407_TTA_CombineModel.c **** void BitShift_o(uint16_T rtu_u, rtB_BitShift_c *localB)
 747:HANcoder_E407_TTA_CombineModel.c **** {
 1269              		.loc 1 747 1 is_stmt 1 view -0
 1270              		.cfi_startproc
 1271              		@ args = 0, pretend = 0, frame = 0
 1272              		@ frame_needed = 0, uses_anonymous_args = 0
 1273              		@ link register save eliminated.
 748:HANcoder_E407_TTA_CombineModel.c ****   /* MATLAB Function: '<S176>/bit_shift' */
 749:HANcoder_E407_TTA_CombineModel.c ****   /* MATLAB Function 'Logic and Bit Operations/Bit Shift/bit_shift': '<S177>:1' */
 750:HANcoder_E407_TTA_CombineModel.c ****   /* '<S177>:1:8' */
 751:HANcoder_E407_TTA_CombineModel.c ****   localB->y = (uint16_T)((uint32_T)rtu_u >> 8);
 1274              		.loc 1 751 3 view .LVU360
 1275              		.loc 1 751 15 is_stmt 0 view .LVU361
 1276 0000 000A     		lsrs	r0, r0, #8
 1277              	.LVL87:
 1278              		.loc 1 751 13 view .LVU362
 1279 0002 0880     		strh	r0, [r1]	@ movhi
 752:HANcoder_E407_TTA_CombineModel.c **** }
 1280              		.loc 1 752 1 view .LVU363
 1281 0004 7047     		bx	lr
 1282              		.cfi_endproc
 1283              	.LFE136:
 1285              		.global	__aeabi_dcmpeq
 1286              		.global	__aeabi_ui2d
 1287              		.global	__aeabi_dmul
 1288              		.global	__aeabi_dadd
 1289              		.global	__aeabi_dsub
 1290              		.global	__aeabi_dcmplt
 1291              		.global	__aeabi_dcmpgt
 1292              		.global	__aeabi_ddiv
 1293              		.global	__aeabi_d2f
 1294              		.global	__aeabi_f2d
 1295              		.global	__aeabi_i2d
 1296              		.global	__aeabi_dcmpge
 1297              		.global	__aeabi_dcmple
 1298 0006 00BF     		.section	.rodata.HANcoder_E407_TTA_CombineModel_step.str1.4,"aMS",%progbits,1
 1299              		.align	2
 1300              	.LC0:
 1301 0000 41707043 		.ascii	"AppCtrlTask\000"
 1301      74726C54 
 1301      61736B00 
 1302              		.section	.text.HANcoder_E407_TTA_CombineModel_step,"ax",%progbits
 1303              		.align	1
 1304              		.p2align 2,,3
 1305              		.global	HANcoder_E407_TTA_CombineModel_step
 1306              		.syntax unified
 1307              		.thumb
 1308              		.thumb_func
 1310              	HANcoder_E407_TTA_CombineModel_step:
 1311              	.LFB137:
 753:HANcoder_E407_TTA_CombineModel.c **** 
 754:HANcoder_E407_TTA_CombineModel.c **** /* Model step function */
 755:HANcoder_E407_TTA_CombineModel.c **** void HANcoder_E407_TTA_CombineModel_step(void)
 756:HANcoder_E407_TTA_CombineModel.c **** {
 1312              		.loc 1 756 1 is_stmt 1 view -0
 1313              		.cfi_startproc
 1314              		@ args = 0, pretend = 0, frame = 24
 1315              		@ frame_needed = 0, uses_anonymous_args = 0
 757:HANcoder_E407_TTA_CombineModel.c ****   /* local block i/o variables */
 758:HANcoder_E407_TTA_CombineModel.c ****   real32_T rtb_Cast_m;
 1316              		.loc 1 758 3 view .LVU365
 759:HANcoder_E407_TTA_CombineModel.c ****   real32_T rtb_Cast3;
 1317              		.loc 1 759 3 view .LVU366
 760:HANcoder_E407_TTA_CombineModel.c ****   uint8_T rtb_Level2MfileSFunction_o2;
 1318              		.loc 1 760 3 view .LVU367
 761:HANcoder_E407_TTA_CombineModel.c ****   uint8_T rtb_SFunction_o2;
 1319              		.loc 1 761 3 view .LVU368
 762:HANcoder_E407_TTA_CombineModel.c ****   uint8_T rtb_SFunction_o3;
 1320              		.loc 1 762 3 view .LVU369
 763:HANcoder_E407_TTA_CombineModel.c ****   uint8_T rtb_SFunction_o4;
 1321              		.loc 1 763 3 view .LVU370
 764:HANcoder_E407_TTA_CombineModel.c ****   uint8_T rtb_SFunction_o5;
 1322              		.loc 1 764 3 view .LVU371
 765:HANcoder_E407_TTA_CombineModel.c ****   uint8_T rtb_SFunction_o6;
 1323              		.loc 1 765 3 view .LVU372
 766:HANcoder_E407_TTA_CombineModel.c ****   uint8_T rtb_SFunction_o7;
 1324              		.loc 1 766 3 view .LVU373
 767:HANcoder_E407_TTA_CombineModel.c ****   uint8_T rtb_SFunction_o8;
 1325              		.loc 1 767 3 view .LVU374
 768:HANcoder_E407_TTA_CombineModel.c ****   uint8_T rtb_SFunction_o9;
 1326              		.loc 1 768 3 view .LVU375
 769:HANcoder_E407_TTA_CombineModel.c ****   uint8_T rtb_SFunction_o2_l;
 1327              		.loc 1 769 3 view .LVU376
 770:HANcoder_E407_TTA_CombineModel.c ****   uint8_T rtb_SFunction_o3_m;
 1328              		.loc 1 770 3 view .LVU377
 771:HANcoder_E407_TTA_CombineModel.c ****   uint8_T rtb_SFunction_o4_b;
 1329              		.loc 1 771 3 view .LVU378
 772:HANcoder_E407_TTA_CombineModel.c ****   uint8_T rtb_SFunction_o5_o;
 1330              		.loc 1 772 3 view .LVU379
 773:HANcoder_E407_TTA_CombineModel.c ****   uint8_T rtb_SFunction_o6_i;
 1331              		.loc 1 773 3 view .LVU380
 774:HANcoder_E407_TTA_CombineModel.c ****   uint8_T rtb_SFunction_o7_f;
 1332              		.loc 1 774 3 view .LVU381
 775:HANcoder_E407_TTA_CombineModel.c ****   uint8_T rtb_SFunction_o8_p;
 1333              		.loc 1 775 3 view .LVU382
 776:HANcoder_E407_TTA_CombineModel.c ****   uint8_T rtb_SFunction_o9_l;
 1334              		.loc 1 776 3 view .LVU383
 777:HANcoder_E407_TTA_CombineModel.c ****   uint8_T rtb_SFunction_o2_e;
 1335              		.loc 1 777 3 view .LVU384
 778:HANcoder_E407_TTA_CombineModel.c ****   uint8_T rtb_SFunction_o3_p;
 1336              		.loc 1 778 3 view .LVU385
 779:HANcoder_E407_TTA_CombineModel.c ****   uint8_T rtb_SFunction_o4_c;
 1337              		.loc 1 779 3 view .LVU386
 780:HANcoder_E407_TTA_CombineModel.c ****   uint8_T rtb_SFunction_o5_c;
 1338              		.loc 1 780 3 view .LVU387
 781:HANcoder_E407_TTA_CombineModel.c ****   uint8_T rtb_SFunction_o6_e;
 1339              		.loc 1 781 3 view .LVU388
 782:HANcoder_E407_TTA_CombineModel.c ****   uint8_T rtb_SFunction_o7_l;
 1340              		.loc 1 782 3 view .LVU389
 783:HANcoder_E407_TTA_CombineModel.c ****   uint8_T rtb_SFunction_o8_f;
 1341              		.loc 1 783 3 view .LVU390
 784:HANcoder_E407_TTA_CombineModel.c ****   uint8_T rtb_SFunction_o9_h;
 1342              		.loc 1 784 3 view .LVU391
 785:HANcoder_E407_TTA_CombineModel.c ****   uint8_T rtb_SFunction_o2_j;
 1343              		.loc 1 785 3 view .LVU392
 786:HANcoder_E407_TTA_CombineModel.c ****   uint8_T rtb_SFunction_o3_a;
 1344              		.loc 1 786 3 view .LVU393
 787:HANcoder_E407_TTA_CombineModel.c ****   uint8_T rtb_SFunction_o4_i;
 1345              		.loc 1 787 3 view .LVU394
 788:HANcoder_E407_TTA_CombineModel.c ****   uint8_T rtb_SFunction_o5_k;
 1346              		.loc 1 788 3 view .LVU395
 789:HANcoder_E407_TTA_CombineModel.c ****   uint8_T rtb_SFunction_o6_c;
 1347              		.loc 1 789 3 view .LVU396
 790:HANcoder_E407_TTA_CombineModel.c ****   uint8_T rtb_SFunction_o7_d;
 1348              		.loc 1 790 3 view .LVU397
 791:HANcoder_E407_TTA_CombineModel.c ****   uint8_T rtb_SFunction_o8_h;
 1349              		.loc 1 791 3 view .LVU398
 792:HANcoder_E407_TTA_CombineModel.c ****   uint8_T rtb_SFunction_o9_b;
 1350              		.loc 1 792 3 view .LVU399
 793:HANcoder_E407_TTA_CombineModel.c ****   uint8_T rtb_SFunction_o2_i;
 1351              		.loc 1 793 3 view .LVU400
 794:HANcoder_E407_TTA_CombineModel.c ****   uint8_T rtb_SFunction_o3_i;
 1352              		.loc 1 794 3 view .LVU401
 795:HANcoder_E407_TTA_CombineModel.c ****   uint8_T rtb_SFunction_o4_n;
 1353              		.loc 1 795 3 view .LVU402
 796:HANcoder_E407_TTA_CombineModel.c ****   uint8_T rtb_SFunction_o5_p;
 1354              		.loc 1 796 3 view .LVU403
 797:HANcoder_E407_TTA_CombineModel.c ****   uint8_T rtb_SFunction_o6_g;
 1355              		.loc 1 797 3 view .LVU404
 798:HANcoder_E407_TTA_CombineModel.c ****   uint8_T rtb_SFunction_o7_fg;
 1356              		.loc 1 798 3 view .LVU405
 799:HANcoder_E407_TTA_CombineModel.c ****   uint8_T rtb_SFunction_o8_i;
 1357              		.loc 1 799 3 view .LVU406
 800:HANcoder_E407_TTA_CombineModel.c ****   uint8_T rtb_SFunction_o9_o;
 1358              		.loc 1 800 3 view .LVU407
 801:HANcoder_E407_TTA_CombineModel.c ****   uint8_T rtb_SFunction_o2_n;
 1359              		.loc 1 801 3 view .LVU408
 802:HANcoder_E407_TTA_CombineModel.c ****   uint8_T rtb_SFunction_o3_l;
 1360              		.loc 1 802 3 view .LVU409
 803:HANcoder_E407_TTA_CombineModel.c ****   uint8_T rtb_SFunction_o4_m;
 1361              		.loc 1 803 3 view .LVU410
 804:HANcoder_E407_TTA_CombineModel.c ****   uint8_T rtb_SFunction_o5_i;
 1362              		.loc 1 804 3 view .LVU411
 805:HANcoder_E407_TTA_CombineModel.c ****   uint8_T rtb_SFunction_o6_o;
 1363              		.loc 1 805 3 view .LVU412
 806:HANcoder_E407_TTA_CombineModel.c ****   uint8_T rtb_SFunction_o7_j;
 1364              		.loc 1 806 3 view .LVU413
 807:HANcoder_E407_TTA_CombineModel.c ****   uint8_T rtb_SFunction_o8_d;
 1365              		.loc 1 807 3 view .LVU414
 808:HANcoder_E407_TTA_CombineModel.c ****   uint8_T rtb_SFunction_o9_lv;
 1366              		.loc 1 808 3 view .LVU415
 809:HANcoder_E407_TTA_CombineModel.c ****   uint8_T rtb_SFunction_o2_ib;
 1367              		.loc 1 809 3 view .LVU416
 810:HANcoder_E407_TTA_CombineModel.c ****   uint8_T rtb_SFunction_o3_g;
 1368              		.loc 1 810 3 view .LVU417
 811:HANcoder_E407_TTA_CombineModel.c ****   uint8_T rtb_SFunction_o4_j;
 1369              		.loc 1 811 3 view .LVU418
 812:HANcoder_E407_TTA_CombineModel.c ****   uint8_T rtb_SFunction_o5_f;
 1370              		.loc 1 812 3 view .LVU419
 813:HANcoder_E407_TTA_CombineModel.c ****   uint8_T rtb_SFunction_o6_gy;
 1371              		.loc 1 813 3 view .LVU420
 814:HANcoder_E407_TTA_CombineModel.c ****   uint8_T rtb_SFunction_o7_k;
 1372              		.loc 1 814 3 view .LVU421
 815:HANcoder_E407_TTA_CombineModel.c ****   uint8_T rtb_SFunction_o8_n;
 1373              		.loc 1 815 3 view .LVU422
 816:HANcoder_E407_TTA_CombineModel.c ****   uint8_T rtb_SFunction_o9_b1;
 1374              		.loc 1 816 3 view .LVU423
 817:HANcoder_E407_TTA_CombineModel.c ****   uint8_T rtb_SFunction_o2_c;
 1375              		.loc 1 817 3 view .LVU424
 818:HANcoder_E407_TTA_CombineModel.c ****   uint8_T rtb_SFunction_o3_f;
 1376              		.loc 1 818 3 view .LVU425
 819:HANcoder_E407_TTA_CombineModel.c ****   uint8_T rtb_SFunction_o4_k;
 1377              		.loc 1 819 3 view .LVU426
 820:HANcoder_E407_TTA_CombineModel.c ****   uint8_T rtb_SFunction_o5_h;
 1378              		.loc 1 820 3 view .LVU427
 821:HANcoder_E407_TTA_CombineModel.c ****   uint8_T rtb_SFunction_o6_k;
 1379              		.loc 1 821 3 view .LVU428
 822:HANcoder_E407_TTA_CombineModel.c ****   uint8_T rtb_SFunction_o7_e;
 1380              		.loc 1 822 3 view .LVU429
 823:HANcoder_E407_TTA_CombineModel.c ****   uint8_T rtb_SFunction_o8_pe;
 1381              		.loc 1 823 3 view .LVU430
 824:HANcoder_E407_TTA_CombineModel.c ****   uint8_T rtb_SFunction_o9_f;
 1382              		.loc 1 824 3 view .LVU431
 825:HANcoder_E407_TTA_CombineModel.c ****   uint8_T rtb_SFunction_o2_n2;
 1383              		.loc 1 825 3 view .LVU432
 826:HANcoder_E407_TTA_CombineModel.c ****   uint8_T rtb_SFunction_o3_b;
 1384              		.loc 1 826 3 view .LVU433
 827:HANcoder_E407_TTA_CombineModel.c ****   uint8_T rtb_SFunction_o4_l;
 1385              		.loc 1 827 3 view .LVU434
 828:HANcoder_E407_TTA_CombineModel.c ****   uint8_T rtb_SFunction_o5_e;
 1386              		.loc 1 828 3 view .LVU435
 829:HANcoder_E407_TTA_CombineModel.c ****   uint8_T rtb_SFunction_o6_k1;
 1387              		.loc 1 829 3 view .LVU436
 830:HANcoder_E407_TTA_CombineModel.c ****   uint8_T rtb_SFunction_o7_dj;
 1388              		.loc 1 830 3 view .LVU437
 831:HANcoder_E407_TTA_CombineModel.c ****   uint8_T rtb_SFunction_o8_n1;
 1389              		.loc 1 831 3 view .LVU438
 832:HANcoder_E407_TTA_CombineModel.c ****   uint8_T rtb_SFunction_o9_ok;
 1390              		.loc 1 832 3 view .LVU439
 833:HANcoder_E407_TTA_CombineModel.c ****   int8_T rtb_SFunction_o1;
 1391              		.loc 1 833 3 view .LVU440
 834:HANcoder_E407_TTA_CombineModel.c ****   int8_T rtb_SFunction_o1_n;
 1392              		.loc 1 834 3 view .LVU441
 835:HANcoder_E407_TTA_CombineModel.c ****   int8_T rtb_SFunction_o1_k;
 1393              		.loc 1 835 3 view .LVU442
 836:HANcoder_E407_TTA_CombineModel.c ****   int8_T rtb_SFunction_o1_k1;
 1394              		.loc 1 836 3 view .LVU443
 837:HANcoder_E407_TTA_CombineModel.c ****   int8_T rtb_SFunction_o1_ns;
 1395              		.loc 1 837 3 view .LVU444
 838:HANcoder_E407_TTA_CombineModel.c ****   int8_T rtb_SFunction_o1_p;
 1396              		.loc 1 838 3 view .LVU445
 839:HANcoder_E407_TTA_CombineModel.c ****   int8_T rtb_SFunction_o1_h;
 1397              		.loc 1 839 3 view .LVU446
 840:HANcoder_E407_TTA_CombineModel.c ****   int8_T rtb_SFunction_o1_b;
 1398              		.loc 1 840 3 view .LVU447
 841:HANcoder_E407_TTA_CombineModel.c ****   int8_T rtb_SFunction_o1_g;
 1399              		.loc 1 841 3 view .LVU448
 842:HANcoder_E407_TTA_CombineModel.c ****   boolean_T rtb_Logic[2];
 1400              		.loc 1 842 3 view .LVU449
 843:HANcoder_E407_TTA_CombineModel.c ****   boolean_T rtb_Level2MfileSFunction_h;
 1401              		.loc 1 843 3 view .LVU450
 844:HANcoder_E407_TTA_CombineModel.c ****   boolean_T rtb_Level2MfileSFunction_d;
 1402              		.loc 1 844 3 view .LVU451
 845:HANcoder_E407_TTA_CombineModel.c ****   boolean_T rtb_Memory_m;
 1403              		.loc 1 845 3 view .LVU452
 846:HANcoder_E407_TTA_CombineModel.c ****   real_T rtb_IntegralGain;
 1404              		.loc 1 846 3 view .LVU453
 847:HANcoder_E407_TTA_CombineModel.c ****   real_T rtb_Integrator;
 1405              		.loc 1 847 3 view .LVU454
 848:HANcoder_E407_TTA_CombineModel.c ****   real_T rtb_Integrator_tmp;
 1406              		.loc 1 848 3 view .LVU455
 849:HANcoder_E407_TTA_CombineModel.c ****   real_T rtb_Uk1;
 1407              		.loc 1 849 3 view .LVU456
 850:HANcoder_E407_TTA_CombineModel.c ****   real_T tmp;
 1408              		.loc 1 850 3 view .LVU457
 851:HANcoder_E407_TTA_CombineModel.c ****   int32_T rtb_DataStoreRead7;
 1409              		.loc 1 851 3 view .LVU458
 852:HANcoder_E407_TTA_CombineModel.c ****   int_T idxDelay;
 1410              		.loc 1 852 3 view .LVU459
 853:HANcoder_E407_TTA_CombineModel.c ****   int16_T u;
 1411              		.loc 1 853 3 view .LVU460
 854:HANcoder_E407_TTA_CombineModel.c ****   uint16_T rtb_Cast_b0;
 1412              		.loc 1 854 3 view .LVU461
 855:HANcoder_E407_TTA_CombineModel.c ****   uint16_T rtb_Cast_c;
 1413              		.loc 1 855 3 view .LVU462
 856:HANcoder_E407_TTA_CombineModel.c ****   uint16_T rtb_Cast_ci;
 1414              		.loc 1 856 3 view .LVU463
 857:HANcoder_E407_TTA_CombineModel.c ****   uint16_T rtb_Cast_d1;
 1415              		.loc 1 857 3 view .LVU464
 858:HANcoder_E407_TTA_CombineModel.c ****   uint16_T rtb_Cast_gr;
 1416              		.loc 1 858 3 view .LVU465
 859:HANcoder_E407_TTA_CombineModel.c ****   uint16_T rtb_Cast_i;
 1417              		.loc 1 859 3 view .LVU466
 860:HANcoder_E407_TTA_CombineModel.c ****   uint16_T rtb_Cast_i1;
 1418              		.loc 1 860 3 view .LVU467
 861:HANcoder_E407_TTA_CombineModel.c ****   uint16_T rtb_Cast_k;
 1419              		.loc 1 861 3 view .LVU468
 862:HANcoder_E407_TTA_CombineModel.c ****   uint16_T rtb_Cast_o;
 1420              		.loc 1 862 3 view .LVU469
 863:HANcoder_E407_TTA_CombineModel.c ****   uint16_T rtb_Cast_p;
 1421              		.loc 1 863 3 view .LVU470
 864:HANcoder_E407_TTA_CombineModel.c ****   uint16_T rtb_DataStoreRead8;
 1422              		.loc 1 864 3 view .LVU471
 865:HANcoder_E407_TTA_CombineModel.c ****   int8_T rtAction;
 1423              		.loc 1 865 3 view .LVU472
 866:HANcoder_E407_TTA_CombineModel.c ****   int8_T rtPrevAction;
 1424              		.loc 1 866 3 view .LVU473
 867:HANcoder_E407_TTA_CombineModel.c ****   uint8_T rtb_Cast1_j;
 1425              		.loc 1 867 3 view .LVU474
 868:HANcoder_E407_TTA_CombineModel.c ****   uint8_T rtb_Cast1_j5;
 1426              		.loc 1 868 3 view .LVU475
 869:HANcoder_E407_TTA_CombineModel.c ****   uint8_T rtb_Cast1_jh;
 1427              		.loc 1 869 3 view .LVU476
 870:HANcoder_E407_TTA_CombineModel.c ****   uint8_T rtb_Cast1_n;
 1428              		.loc 1 870 3 view .LVU477
 871:HANcoder_E407_TTA_CombineModel.c ****   uint8_T rtb_Cast1_o;
 1429              		.loc 1 871 3 view .LVU478
 872:HANcoder_E407_TTA_CombineModel.c ****   uint8_T rtb_Multiply;
 1430              		.loc 1 872 3 view .LVU479
 873:HANcoder_E407_TTA_CombineModel.c ****   uint8_T rtb_Multiply1;
 1431              		.loc 1 873 3 view .LVU480
 874:HANcoder_E407_TTA_CombineModel.c ****   boolean_T rtb_AND;
 1432              		.loc 1 874 3 view .LVU481
 875:HANcoder_E407_TTA_CombineModel.c ****   boolean_T rtb_AND13;
 1433              		.loc 1 875 3 view .LVU482
 876:HANcoder_E407_TTA_CombineModel.c ****   boolean_T rtb_AND15;
 1434              		.loc 1 876 3 view .LVU483
 877:HANcoder_E407_TTA_CombineModel.c ****   boolean_T rtb_AND1_k;
 1435              		.loc 1 877 3 view .LVU484
 878:HANcoder_E407_TTA_CombineModel.c ****   boolean_T rtb_AND3;
 1436              		.loc 1 878 3 view .LVU485
 879:HANcoder_E407_TTA_CombineModel.c ****   boolean_T rtb_AND5;
 1437              		.loc 1 879 3 view .LVU486
 880:HANcoder_E407_TTA_CombineModel.c ****   boolean_T rtb_AND7;
 1438              		.loc 1 880 3 view .LVU487
 881:HANcoder_E407_TTA_CombineModel.c ****   boolean_T rtb_AND9;
 1439              		.loc 1 881 3 view .LVU488
 882:HANcoder_E407_TTA_CombineModel.c ****   boolean_T rtb_AND_du;
 1440              		.loc 1 882 3 view .LVU489
 883:HANcoder_E407_TTA_CombineModel.c ****   boolean_T rtb_DataStoreRead11;
 1441              		.loc 1 883 3 view .LVU490
 884:HANcoder_E407_TTA_CombineModel.c ****   boolean_T rtb_Logic_c_idx_0;
 1442              		.loc 1 884 3 view .LVU491
 885:HANcoder_E407_TTA_CombineModel.c ****   boolean_T rtb_Logic_f_idx_0;
 1443              		.loc 1 885 3 view .LVU492
 886:HANcoder_E407_TTA_CombineModel.c ****   boolean_T rtb_OR;
 1444              		.loc 1 886 3 view .LVU493
 887:HANcoder_E407_TTA_CombineModel.c ****   boolean_T rtb_OR1;
 1445              		.loc 1 887 3 view .LVU494
 888:HANcoder_E407_TTA_CombineModel.c ****   ZCEventType zcEvent;
 1446              		.loc 1 888 3 view .LVU495
 889:HANcoder_E407_TTA_CombineModel.c **** 
 890:HANcoder_E407_TTA_CombineModel.c ****   /* Outputs for Enabled SubSystem: '<S1>/Initialize Clock Schedule' incorporates:
 891:HANcoder_E407_TTA_CombineModel.c ****    *  EnablePort: '<S8>/Enable'
 892:HANcoder_E407_TTA_CombineModel.c ****    */
 893:HANcoder_E407_TTA_CombineModel.c ****   /* Logic: '<S1>/NOT' incorporates:
 894:HANcoder_E407_TTA_CombineModel.c ****    *  DataStoreRead: '<S1>/If 1 -> Clock initialized '
 895:HANcoder_E407_TTA_CombineModel.c ****    */
 896:HANcoder_E407_TTA_CombineModel.c ****   if (rtDWork.init_clock == 0.0) {
 1447              		.loc 1 896 3 view .LVU496
 756:HANcoder_E407_TTA_CombineModel.c ****   /* local block i/o variables */
 1448              		.loc 1 756 1 is_stmt 0 view .LVU497
 1449 0000 2DE9F04F 		push	{r4, r5, r6, r7, r8, r9, r10, fp, lr}
 1450              		.cfi_def_cfa_offset 36
 1451              		.cfi_offset 4, -36
 1452              		.cfi_offset 5, -32
 1453              		.cfi_offset 6, -28
 1454              		.cfi_offset 7, -24
 1455              		.cfi_offset 8, -20
 1456              		.cfi_offset 9, -16
 1457              		.cfi_offset 10, -12
 1458              		.cfi_offset 11, -8
 1459              		.cfi_offset 14, -4
 1460 0004 2DED088B 		vpush.64	{d8, d9, d10, d11}
 1461              		.cfi_def_cfa_offset 68
 1462              		.cfi_offset 80, -68
 1463              		.cfi_offset 81, -64
 1464              		.cfi_offset 82, -60
 1465              		.cfi_offset 83, -56
 1466              		.cfi_offset 84, -52
 1467              		.cfi_offset 85, -48
 1468              		.cfi_offset 86, -44
 1469              		.cfi_offset 87, -40
 1470              		.loc 1 896 14 view .LVU498
 1471 0008 C84C     		ldr	r4, .L448
 756:HANcoder_E407_TTA_CombineModel.c ****   /* local block i/o variables */
 1472              		.loc 1 756 1 view .LVU499
 1473 000a 89B0     		sub	sp, sp, #36
 1474              		.cfi_def_cfa_offset 104
 1475              		.loc 1 896 6 view .LVU500
 1476 000c 0023     		movs	r3, #0
 1477 000e D4E90801 		ldrd	r0, [r4, #32]
 1478 0012 0022     		movs	r2, #0
 1479 0014 FFF7FEFF 		bl	__aeabi_dcmpeq
 1480              	.LVL88:
 756:HANcoder_E407_TTA_CombineModel.c ****   /* local block i/o variables */
 1481              		.loc 1 756 1 view .LVU501
 1482 0018 0023     		movs	r3, #0
 1483 001a 0293     		str	r3, [sp, #8]
 1484              		.loc 1 896 6 view .LVU502
 1485 001c 0028     		cmp	r0, #0
 1486 001e 40F06687 		bne	.L414
 897:HANcoder_E407_TTA_CombineModel.c ****     rtDWork.InitializeClockSchedule_MODE = true;
 898:HANcoder_E407_TTA_CombineModel.c **** 
 899:HANcoder_E407_TTA_CombineModel.c ****     /* DataStoreWrite: '<S8>/Data Store Write' incorporates:
 900:HANcoder_E407_TTA_CombineModel.c ****      *  Constant: '<S8>/Constant2'
 901:HANcoder_E407_TTA_CombineModel.c ****      */
 902:HANcoder_E407_TTA_CombineModel.c ****     rtDWork.init_clock = 1.0;
 903:HANcoder_E407_TTA_CombineModel.c **** 
 904:HANcoder_E407_TTA_CombineModel.c ****     /* Update for M-S-Function: '<S98>/Level-2 M-file S-Function' incorporates:
 905:HANcoder_E407_TTA_CombineModel.c ****      *  Constant: '<S8>/Constant'
 906:HANcoder_E407_TTA_CombineModel.c ****      *  Constant: '<S8>/Constant1'
 907:HANcoder_E407_TTA_CombineModel.c ****      */
 908:HANcoder_E407_TTA_CombineModel.c ****     /* schedule the next output compare event */
 909:HANcoder_E407_TTA_CombineModel.c ****     TimeoutScheduleCompareEvent(TIMEOUT_TIM4_PIN_PD12, ((uint16_T)1U),
 910:HANcoder_E407_TTA_CombineModel.c ****       (tTimeoutAction)((uint8_T)3U));
 911:HANcoder_E407_TTA_CombineModel.c ****   } else if (rtDWork.InitializeClockSchedule_MODE) {
 1487              		.loc 1 911 10 is_stmt 1 view .LVU503
 1488              		.loc 1 911 13 is_stmt 0 view .LVU504
 1489 0022 94F80631 		ldrb	r3, [r4, #262]	@ zero_extendqisi2
 1490 0026 002B     		cmp	r3, #0
 1491 0028 40F03A87 		bne	.L415
 1492              	.L78:
 912:HANcoder_E407_TTA_CombineModel.c ****     rtDWork.InitializeClockSchedule_MODE = false;
 913:HANcoder_E407_TTA_CombineModel.c ****   }
 914:HANcoder_E407_TTA_CombineModel.c **** 
 915:HANcoder_E407_TTA_CombineModel.c ****   /* End of Logic: '<S1>/NOT' */
 916:HANcoder_E407_TTA_CombineModel.c ****   /* End of Outputs for SubSystem: '<S1>/Initialize Clock Schedule' */
 917:HANcoder_E407_TTA_CombineModel.c **** 
 918:HANcoder_E407_TTA_CombineModel.c ****   /* If: '<S1>/If1' incorporates:
 919:HANcoder_E407_TTA_CombineModel.c ****    *  DataStoreRead: '<S1>/Data Store Read2'
 920:HANcoder_E407_TTA_CombineModel.c ****    */
 921:HANcoder_E407_TTA_CombineModel.c ****   rtPrevAction = rtDWork.If1_ActiveSubsystem;
 1493              		.loc 1 921 3 is_stmt 1 view .LVU505
 1494              	.LVL89:
 922:HANcoder_E407_TTA_CombineModel.c ****   rtAction = -1;
 1495              		.loc 1 922 3 view .LVU506
 923:HANcoder_E407_TTA_CombineModel.c ****   if (rtDWork.Board_ID == 0) {
 1496              		.loc 1 923 3 view .LVU507
 1497              		.loc 1 923 6 is_stmt 0 view .LVU508
 1498 002c 94F8DE30 		ldrb	r3, [r4, #222]	@ zero_extendqisi2
 1499 0030 002B     		cmp	r3, #0
 1500 0032 00F03D87 		beq	.L79
 1501              	.L436:
 924:HANcoder_E407_TTA_CombineModel.c ****     rtAction = 0;
 925:HANcoder_E407_TTA_CombineModel.c ****   }
 926:HANcoder_E407_TTA_CombineModel.c **** 
 927:HANcoder_E407_TTA_CombineModel.c ****   rtDWork.If1_ActiveSubsystem = rtAction;
 1502              		.loc 1 927 3 is_stmt 1 view .LVU509
 928:HANcoder_E407_TTA_CombineModel.c ****   if ((rtPrevAction != rtAction) && (rtPrevAction == 0)) {
 929:HANcoder_E407_TTA_CombineModel.c ****   }
 930:HANcoder_E407_TTA_CombineModel.c **** 
 931:HANcoder_E407_TTA_CombineModel.c ****   if (rtAction == 0) {
 932:HANcoder_E407_TTA_CombineModel.c ****     /* Outputs for IfAction SubSystem: '<S1>/Setting ID' incorporates:
 933:HANcoder_E407_TTA_CombineModel.c ****      *  ActionPort: '<S13>/Action Port'
 934:HANcoder_E407_TTA_CombineModel.c ****      */
 935:HANcoder_E407_TTA_CombineModel.c ****     /* M-S-Function: '<S373>/Level-2 M-file S-Function' */
 936:HANcoder_E407_TTA_CombineModel.c ****     /* read from digital input */
 937:HANcoder_E407_TTA_CombineModel.c ****     rtb_Level2MfileSFunction_d = DiginGet(DIGIN_PORTG_PIN12);
 938:HANcoder_E407_TTA_CombineModel.c **** 
 939:HANcoder_E407_TTA_CombineModel.c ****     /* Product: '<S13>/Multiply' incorporates:
 940:HANcoder_E407_TTA_CombineModel.c ****      *  Constant: '<S13>/Constant1'
 941:HANcoder_E407_TTA_CombineModel.c ****      */
 942:HANcoder_E407_TTA_CombineModel.c ****     rtb_Multiply = (uint8_T)(rtb_Level2MfileSFunction_d ? (int32_T)((uint8_T)1U)
 943:HANcoder_E407_TTA_CombineModel.c ****       : 0);
 944:HANcoder_E407_TTA_CombineModel.c **** 
 945:HANcoder_E407_TTA_CombineModel.c ****     /* M-S-Function: '<S374>/Level-2 M-file S-Function' */
 946:HANcoder_E407_TTA_CombineModel.c ****     /* read from digital input */
 947:HANcoder_E407_TTA_CombineModel.c ****     rtb_Level2MfileSFunction_d = DiginGet(DIGIN_PORTG_PIN15);
 948:HANcoder_E407_TTA_CombineModel.c **** 
 949:HANcoder_E407_TTA_CombineModel.c ****     /* Product: '<S13>/Multiply1' incorporates:
 950:HANcoder_E407_TTA_CombineModel.c ****      *  Constant: '<S13>/Constant4'
 951:HANcoder_E407_TTA_CombineModel.c ****      */
 952:HANcoder_E407_TTA_CombineModel.c ****     rtb_Multiply1 = (uint8_T)(rtb_Level2MfileSFunction_d ? (int32_T)((uint8_T)2U)
 953:HANcoder_E407_TTA_CombineModel.c ****       : 0);
 954:HANcoder_E407_TTA_CombineModel.c **** 
 955:HANcoder_E407_TTA_CombineModel.c ****     /* M-S-Function: '<S375>/Level-2 M-file S-Function' */
 956:HANcoder_E407_TTA_CombineModel.c ****     /* read from digital input */
 957:HANcoder_E407_TTA_CombineModel.c ****     rtb_Level2MfileSFunction_d = DiginGet(DIGIN_PORTA_PIN4);
 958:HANcoder_E407_TTA_CombineModel.c **** 
 959:HANcoder_E407_TTA_CombineModel.c ****     /* Sum: '<S13>/Add' incorporates:
 960:HANcoder_E407_TTA_CombineModel.c ****      *  Constant: '<S13>/Constant6'
 961:HANcoder_E407_TTA_CombineModel.c ****      *  Product: '<S13>/Multiply2'
 962:HANcoder_E407_TTA_CombineModel.c ****      */
 963:HANcoder_E407_TTA_CombineModel.c ****     rtB.Add_i = (uint8_T)((uint8_T)((uint32_T)rtb_Multiply + rtb_Multiply1) +
 964:HANcoder_E407_TTA_CombineModel.c ****                           (uint32_T)(rtb_Level2MfileSFunction_d ? (int32_T)
 965:HANcoder_E407_TTA_CombineModel.c ****       ((uint8_T)4U) : 0));
 966:HANcoder_E407_TTA_CombineModel.c **** 
 967:HANcoder_E407_TTA_CombineModel.c ****     /* End of Outputs for SubSystem: '<S1>/Setting ID' */
 968:HANcoder_E407_TTA_CombineModel.c ****   }
 969:HANcoder_E407_TTA_CombineModel.c **** 
 970:HANcoder_E407_TTA_CombineModel.c ****   /* End of If: '<S1>/If1' */
 971:HANcoder_E407_TTA_CombineModel.c **** 
 972:HANcoder_E407_TTA_CombineModel.c ****   /* DataStoreWrite: '<S1>/Data Store Write1' */
 973:HANcoder_E407_TTA_CombineModel.c ****   rtDWork.Board_ID = rtB.Add_i;
 1503              		.loc 1 973 25 is_stmt 0 view .LVU510
 1504 0036 BE4D     		ldr	r5, .L448+4
 927:HANcoder_E407_TTA_CombineModel.c ****   if ((rtPrevAction != rtAction) && (rtPrevAction == 0)) {
 1505              		.loc 1 927 31 view .LVU511
 1506 0038 FF23     		movs	r3, #255
 1507              		.loc 1 973 25 view .LVU512
 1508 003a 95F830B0 		ldrb	fp, [r5, #48]	@ zero_extendqisi2
 927:HANcoder_E407_TTA_CombineModel.c ****   if ((rtPrevAction != rtAction) && (rtPrevAction == 0)) {
 1509              		.loc 1 927 31 view .LVU513
 1510 003e 84F8DB30 		strb	r3, [r4, #219]
 1511              	.LVL90:
 928:HANcoder_E407_TTA_CombineModel.c ****   if ((rtPrevAction != rtAction) && (rtPrevAction == 0)) {
 1512              		.loc 1 928 3 is_stmt 1 view .LVU514
 929:HANcoder_E407_TTA_CombineModel.c **** 
 1513              		.loc 1 929 3 view .LVU515
 931:HANcoder_E407_TTA_CombineModel.c ****     /* Outputs for IfAction SubSystem: '<S1>/Setting ID' incorporates:
 1514              		.loc 1 931 3 view .LVU516
 1515              	.L80:
 1516              		.loc 1 973 3 view .LVU517
 974:HANcoder_E407_TTA_CombineModel.c **** 
 975:HANcoder_E407_TTA_CombineModel.c ****   /* Logic: '<S12>/AND' incorporates:
 976:HANcoder_E407_TTA_CombineModel.c ****    *  Constant: '<S12>/Constant'
 977:HANcoder_E407_TTA_CombineModel.c ****    *  Constant: '<S12>/Constant4'
 978:HANcoder_E407_TTA_CombineModel.c ****    *  DataStoreRead: '<S1>/Data Store Read3'
 979:HANcoder_E407_TTA_CombineModel.c ****    *  RelationalOperator: '<S12>/Less Than'
 980:HANcoder_E407_TTA_CombineModel.c ****    */
 981:HANcoder_E407_TTA_CombineModel.c ****   rtb_AND = ((ClockOn != 0.0) && (rtDWork.Board_ID == ((uint8_T)1U)));
 1517              		.loc 1 981 23 is_stmt 0 view .LVU518
 1518 0042 BC4B     		ldr	r3, .L448+8
 973:HANcoder_E407_TTA_CombineModel.c **** 
 1519              		.loc 1 973 20 view .LVU519
 1520 0044 84F8DEB0 		strb	fp, [r4, #222]
 1521              		.loc 1 981 3 is_stmt 1 view .LVU520
 1522              		.loc 1 981 31 is_stmt 0 view .LVU521
 1523 0048 D3E90001 		ldrd	r0, [r3]
 1524 004c 0022     		movs	r2, #0
 1525 004e 0023     		movs	r3, #0
 1526 0050 FFF7FEFF 		bl	__aeabi_dcmpeq
 1527              	.LVL91:
 1528 0054 18B9     		cbnz	r0, .L83
 1529              		.loc 1 981 31 discriminator 1 view .LVU522
 1530 0056 BBF1010F 		cmp	fp, #1
 1531 005a 00F08A87 		beq	.L416
 1532              	.L83:
 1533              	.LVL92:
 982:HANcoder_E407_TTA_CombineModel.c **** 
 983:HANcoder_E407_TTA_CombineModel.c ****   /* Logic: '<S12>/OR' incorporates:
 984:HANcoder_E407_TTA_CombineModel.c ****    *  DataStoreRead: '<S12>/Data Store Read2'
 985:HANcoder_E407_TTA_CombineModel.c ****    */
 986:HANcoder_E407_TTA_CombineModel.c ****   rtB.OR = (rtb_AND || rtDWork.slaveClockOn);
 1534              		.loc 1 986 3 is_stmt 1 view .LVU523
 1535              		.loc 1 986 21 is_stmt 0 view .LVU524
 1536 005e 94F8EA30 		ldrb	r3, [r4, #234]	@ zero_extendqisi2
 981:HANcoder_E407_TTA_CombineModel.c **** 
 1537              		.loc 1 981 11 view .LVU525
 1538 0062 0022     		movs	r2, #0
 981:HANcoder_E407_TTA_CombineModel.c **** 
 1539              		.loc 1 981 31 view .LVU526
 1540 0064 CDE90322 		strd	r2, r2, [sp, #12]
 1541              		.loc 1 986 10 view .LVU527
 1542 0068 003B     		subs	r3, r3, #0
 1543 006a 18BF     		it	ne
 1544 006c 0123     		movne	r3, #1
 1545              	.LVL93:
 1546              	.L252:
 1547              		.loc 1 986 10 discriminator 6 view .LVU528
 1548 006e 85F83730 		strb	r3, [r5, #55]
 987:HANcoder_E407_TTA_CombineModel.c **** 
 988:HANcoder_E407_TTA_CombineModel.c ****   /* End of Outputs for S-Function (sfcn_timeout_event_irq): '<S4>/S-Function' */
 989:HANcoder_E407_TTA_CombineModel.c **** 
 990:HANcoder_E407_TTA_CombineModel.c ****   /* Logic: '<S14>/OR1' incorporates:
 991:HANcoder_E407_TTA_CombineModel.c ****    *  Constant: '<S14>/Constant27'
 992:HANcoder_E407_TTA_CombineModel.c ****    *  Constant: '<S14>/Constant4'
 993:HANcoder_E407_TTA_CombineModel.c ****    *  RelationalOperator: '<S14>/Equal19'
 994:HANcoder_E407_TTA_CombineModel.c ****    *  RelationalOperator: '<S14>/Equal4'
 995:HANcoder_E407_TTA_CombineModel.c ****    */
 996:HANcoder_E407_TTA_CombineModel.c ****   rtb_OR1 = ((slotSelected == 5.0) || (slotSelected == 10.0));
 1549              		.loc 1 996 3 is_stmt 1 discriminator 6 view .LVU529
 1550              		.loc 1 996 28 is_stmt 0 discriminator 6 view .LVU530
 1551 0072 B14B     		ldr	r3, .L448+12
 1552 0074 1B78     		ldrb	r3, [r3]	@ zero_extendqisi2
 1553 0076 07EE903A 		vmov	s15, r3	@ int
 1554 007a F8EEE77A 		vcvt.f32.s32	s15, s15
 1555              		.loc 1 996 36 discriminator 6 view .LVU531
 1556 007e B1EE047A 		vmov.f32	s14, #5.0e+0
 1557 0082 F4EE477A 		vcmp.f32	s15, s14
 1558 0086 F1EE10FA 		vmrs	APSR_nzcv, FPSCR
 1559 008a 00F06182 		beq	.L85
 1560              		.loc 1 996 36 discriminator 2 view .LVU532
 1561 008e B2EE047A 		vmov.f32	s14, #1.0e+1
 1562 0092 F4EE477A 		vcmp.f32	s15, s14
 1563 0096 F1EE10FA 		vmrs	APSR_nzcv, FPSCR
 1564 009a 00F05982 		beq	.L85
 1565              	.LVL94:
 997:HANcoder_E407_TTA_CombineModel.c **** 
 998:HANcoder_E407_TTA_CombineModel.c ****   /* Outputs for Triggered SubSystem: '<S1>/Control execution' incorporates:
 999:HANcoder_E407_TTA_CombineModel.c ****    *  TriggerPort: '<S5>/Trigger'
1000:HANcoder_E407_TTA_CombineModel.c ****    */
1001:HANcoder_E407_TTA_CombineModel.c ****   if (rtb_OR1 && (rtPrevZCSigState.Controlexecution_Trig_ZCE != POS_ZCSIG)) {
 1566              		.loc 1 1001 3 is_stmt 1 view .LVU533
1002:HANcoder_E407_TTA_CombineModel.c ****     /* DataStoreRead: '<S5>/Data Store Read' */
1003:HANcoder_E407_TTA_CombineModel.c ****     reqAngle = rtDWork.requestedAngle;
1004:HANcoder_E407_TTA_CombineModel.c **** 
1005:HANcoder_E407_TTA_CombineModel.c ****     /* Product: '<S74>/Product' incorporates:
1006:HANcoder_E407_TTA_CombineModel.c ****      *  Constant: '<S20>/TrailUnitWheelbase'
1007:HANcoder_E407_TTA_CombineModel.c ****      *  DataStoreRead: '<S5>/Data Store Read'
1008:HANcoder_E407_TTA_CombineModel.c ****      *  DataTypeConversion: '<S5>/Cast'
1009:HANcoder_E407_TTA_CombineModel.c ****      *  Trigonometry: '<S74>/tan '
1010:HANcoder_E407_TTA_CombineModel.c ****      */
1011:HANcoder_E407_TTA_CombineModel.c ****     rtb_Uk1 = tan((real_T)reqAngle * 2.384185791015625E-7) * rtConstB.Abs / 4.0;
1012:HANcoder_E407_TTA_CombineModel.c **** 
1013:HANcoder_E407_TTA_CombineModel.c ****     /* DataStoreRead: '<S5>/Data Store Read2' */
1014:HANcoder_E407_TTA_CombineModel.c ****     t2Angle = rtDWork.trailerTwoAngle;
1015:HANcoder_E407_TTA_CombineModel.c **** 
1016:HANcoder_E407_TTA_CombineModel.c ****     /* DataStoreRead: '<S5>/Data Store Read1' */
1017:HANcoder_E407_TTA_CombineModel.c ****     t1Angle = rtDWork.trailerOneAngle;
1018:HANcoder_E407_TTA_CombineModel.c **** 
1019:HANcoder_E407_TTA_CombineModel.c ****     /* Sum: '<S20>/Sum2' */
1020:HANcoder_E407_TTA_CombineModel.c ****     Gamma2 = (uint16_T)(t1Angle - t2Angle);
1021:HANcoder_E407_TTA_CombineModel.c **** 
1022:HANcoder_E407_TTA_CombineModel.c ****     /* Trigonometry: '<S72>/tan 1' incorporates:
1023:HANcoder_E407_TTA_CombineModel.c ****      *  DataTypeConversion: '<S72>/Cast'
1024:HANcoder_E407_TTA_CombineModel.c ****      *  Trigonometry: '<S73>/tan '
1025:HANcoder_E407_TTA_CombineModel.c ****      */
1026:HANcoder_E407_TTA_CombineModel.c ****     rtb_IntegralGain = sin(Gamma2);
1027:HANcoder_E407_TTA_CombineModel.c **** 
1028:HANcoder_E407_TTA_CombineModel.c ****     /* Trigonometry: '<S72>/tan 2' incorporates:
1029:HANcoder_E407_TTA_CombineModel.c ****      *  DataTypeConversion: '<S72>/Cast'
1030:HANcoder_E407_TTA_CombineModel.c ****      *  Trigonometry: '<S73>/tan 1'
1031:HANcoder_E407_TTA_CombineModel.c ****      */
1032:HANcoder_E407_TTA_CombineModel.c ****     rtb_Integrator_tmp = cos(Gamma2);
1033:HANcoder_E407_TTA_CombineModel.c **** 
1034:HANcoder_E407_TTA_CombineModel.c ****     /* Sum: '<S72>/Add' incorporates:
1035:HANcoder_E407_TTA_CombineModel.c ****      *  Constant: '<S20>/TrailUnitWheelbase'
1036:HANcoder_E407_TTA_CombineModel.c ****      *  Constant: '<S5>/Constant'
1037:HANcoder_E407_TTA_CombineModel.c ****      *  Product: '<S72>/Product1'
1038:HANcoder_E407_TTA_CombineModel.c ****      *  Product: '<S72>/Product2'
1039:HANcoder_E407_TTA_CombineModel.c ****      *  Trigonometry: '<S72>/tan 1'
1040:HANcoder_E407_TTA_CombineModel.c ****      *  Trigonometry: '<S72>/tan 2'
1041:HANcoder_E407_TTA_CombineModel.c ****      */
1042:HANcoder_E407_TTA_CombineModel.c ****     rtb_Integrator = rtb_Uk1 * 4.0 * rtb_IntegralGain + rtb_Integrator_tmp * 0.5;
1043:HANcoder_E407_TTA_CombineModel.c **** 
1044:HANcoder_E407_TTA_CombineModel.c ****     /* Sum: '<S20>/Sum1' incorporates:
1045:HANcoder_E407_TTA_CombineModel.c ****      *  Constant: '<S5>/Constant1'
1046:HANcoder_E407_TTA_CombineModel.c ****      */
1047:HANcoder_E407_TTA_CombineModel.c ****     Gamma1 = 0.0 - (real_T)t1Angle;
1048:HANcoder_E407_TTA_CombineModel.c **** 
1049:HANcoder_E407_TTA_CombineModel.c ****     /* Product: '<S73>/Product' incorporates:
1050:HANcoder_E407_TTA_CombineModel.c ****      *  Constant: '<S20>/RearAxleToHitch'
1051:HANcoder_E407_TTA_CombineModel.c ****      *  Constant: '<S20>/TrailUnitWheelbase'
1052:HANcoder_E407_TTA_CombineModel.c ****      *  Constant: '<S5>/Constant'
1053:HANcoder_E407_TTA_CombineModel.c ****      *  Gain: '<S73>/Gain'
1054:HANcoder_E407_TTA_CombineModel.c ****      *  Product: '<S73>/Product1'
1055:HANcoder_E407_TTA_CombineModel.c ****      *  Product: '<S73>/Product3'
1056:HANcoder_E407_TTA_CombineModel.c ****      *  Sum: '<S73>/Add'
1057:HANcoder_E407_TTA_CombineModel.c ****      */
1058:HANcoder_E407_TTA_CombineModel.c ****     rtb_IntegralGain = (0.5 / 1.0 * rtb_IntegralGain * (-1.0) +
1059:HANcoder_E407_TTA_CombineModel.c ****                         rtb_Integrator_tmp / 1.0 * 4.0 * rtb_Uk1) *
1060:HANcoder_E407_TTA_CombineModel.c ****       (rtConstB.signV2 * rtConstB.signL0b);
1061:HANcoder_E407_TTA_CombineModel.c **** 
1062:HANcoder_E407_TTA_CombineModel.c ****     /* Trigonometry: '<S77>/tan ' incorporates:
1063:HANcoder_E407_TTA_CombineModel.c ****      *  DataTypeConversion: '<S77>/Cast'
1064:HANcoder_E407_TTA_CombineModel.c ****      *  Trigonometry: '<S76>/tan 1'
1065:HANcoder_E407_TTA_CombineModel.c ****      */
1066:HANcoder_E407_TTA_CombineModel.c ****     rtb_Uk1 = sin(Gamma1);
1067:HANcoder_E407_TTA_CombineModel.c **** 
1068:HANcoder_E407_TTA_CombineModel.c ****     /* Trigonometry: '<S77>/tan 1' incorporates:
1069:HANcoder_E407_TTA_CombineModel.c ****      *  DataTypeConversion: '<S77>/Cast'
1070:HANcoder_E407_TTA_CombineModel.c ****      *  Trigonometry: '<S76>/tan 2'
1071:HANcoder_E407_TTA_CombineModel.c ****      */
1072:HANcoder_E407_TTA_CombineModel.c ****     rtb_Integrator_tmp = cos(Gamma1);
1073:HANcoder_E407_TTA_CombineModel.c **** 
1074:HANcoder_E407_TTA_CombineModel.c ****     /* Signum: '<S77>/Sign' */
1075:HANcoder_E407_TTA_CombineModel.c ****     if (rtb_Integrator < 0.0) {
1076:HANcoder_E407_TTA_CombineModel.c ****       tmp = -1.0;
1077:HANcoder_E407_TTA_CombineModel.c ****     } else {
1078:HANcoder_E407_TTA_CombineModel.c ****       tmp = (rtb_Integrator > 0.0);
1079:HANcoder_E407_TTA_CombineModel.c ****     }
1080:HANcoder_E407_TTA_CombineModel.c **** 
1081:HANcoder_E407_TTA_CombineModel.c ****     /* Trigonometry: '<S75>/tan 1' incorporates:
1082:HANcoder_E407_TTA_CombineModel.c ****      *  Constant: '<S20>/RearAxleToHitch'
1083:HANcoder_E407_TTA_CombineModel.c ****      *  Constant: '<S20>/TractorWheelbase'
1084:HANcoder_E407_TTA_CombineModel.c ****      *  Constant: '<S20>/TrailUnitWheelbase'
1085:HANcoder_E407_TTA_CombineModel.c ****      *  DataTypeConversion: '<S75>/Cast'
1086:HANcoder_E407_TTA_CombineModel.c ****      *  Gain: '<S77>/Gain'
1087:HANcoder_E407_TTA_CombineModel.c ****      *  Product: '<S75>/Product1'
1088:HANcoder_E407_TTA_CombineModel.c ****      *  Product: '<S76>/Product1'
1089:HANcoder_E407_TTA_CombineModel.c ****      *  Product: '<S76>/Product2'
1090:HANcoder_E407_TTA_CombineModel.c ****      *  Product: '<S77>/Product'
1091:HANcoder_E407_TTA_CombineModel.c ****      *  Product: '<S77>/Product1'
1092:HANcoder_E407_TTA_CombineModel.c ****      *  Product: '<S77>/Product3'
1093:HANcoder_E407_TTA_CombineModel.c ****      *  Signum: '<S77>/Sign'
1094:HANcoder_E407_TTA_CombineModel.c ****      *  Sum: '<S76>/Add'
1095:HANcoder_E407_TTA_CombineModel.c ****      *  Sum: '<S77>/Add'
1096:HANcoder_E407_TTA_CombineModel.c ****      *  Trigonometry: '<S77>/tan '
1097:HANcoder_E407_TTA_CombineModel.c ****      *  Trigonometry: '<S77>/tan 1'
1098:HANcoder_E407_TTA_CombineModel.c ****      */
1099:HANcoder_E407_TTA_CombineModel.c ****     delta12K = (real32_T)atan((real32_T)((rtb_Integrator / 1.0 * rtb_Uk1 * (-1.0)
1100:HANcoder_E407_TTA_CombineModel.c ****       + rtb_Integrator_tmp / 1.0 * 4.0 * rtb_IntegralGain) * (tmp *
1101:HANcoder_E407_TTA_CombineModel.c ****       rtConstB.signL0b_o) * 3.0 / (rtb_IntegralGain * 4.0 * rtb_Uk1 +
1102:HANcoder_E407_TTA_CombineModel.c ****       rtb_Integrator_tmp * rtb_Integrator)));
1103:HANcoder_E407_TTA_CombineModel.c **** 
1104:HANcoder_E407_TTA_CombineModel.c ****     /* Gain: '<S19>/Gain2' incorporates:
1105:HANcoder_E407_TTA_CombineModel.c ****      *  DataTypeConversion: '<S19>/Cast3'
1106:HANcoder_E407_TTA_CombineModel.c ****      */
1107:HANcoder_E407_TTA_CombineModel.c ****     steering = 45.6 * delta12K;
1108:HANcoder_E407_TTA_CombineModel.c **** 
1109:HANcoder_E407_TTA_CombineModel.c ****     /* Gain: '<S19>/Gain1' incorporates:
1110:HANcoder_E407_TTA_CombineModel.c ****      *  DataStoreRead: '<S19>/Data Store Read'
1111:HANcoder_E407_TTA_CombineModel.c ****      */
1112:HANcoder_E407_TTA_CombineModel.c ****     position = (real_T)1717986918 * 5.8207660913467407E-11 * (real_T)
1113:HANcoder_E407_TTA_CombineModel.c ****       rtDWork.encoderPosition;
1114:HANcoder_E407_TTA_CombineModel.c **** 
1115:HANcoder_E407_TTA_CombineModel.c ****     /* Sum: '<S19>/Sum' incorporates:
1116:HANcoder_E407_TTA_CombineModel.c ****      *  Rounding: '<S19>/Round'
1117:HANcoder_E407_TTA_CombineModel.c ****      *  Rounding: '<S19>/Round1'
1118:HANcoder_E407_TTA_CombineModel.c ****      */
1119:HANcoder_E407_TTA_CombineModel.c ****     control = floor(steering) - floor(position);
1120:HANcoder_E407_TTA_CombineModel.c **** 
1121:HANcoder_E407_TTA_CombineModel.c ****     /* Abs: '<S19>/Abs' */
1122:HANcoder_E407_TTA_CombineModel.c ****     rtb_IntegralGain = fabs(control);
1123:HANcoder_E407_TTA_CombineModel.c **** 
1124:HANcoder_E407_TTA_CombineModel.c ****     /* Sum: '<S64>/Sum' incorporates:
1125:HANcoder_E407_TTA_CombineModel.c ****      *  DiscreteIntegrator: '<S55>/Integrator'
1126:HANcoder_E407_TTA_CombineModel.c ****      *  Gain: '<S60>/Proportional Gain'
1127:HANcoder_E407_TTA_CombineModel.c ****      */
1128:HANcoder_E407_TTA_CombineModel.c ****     rtb_Uk1 = propVal * rtb_IntegralGain + rtDWork.Integrator_DSTATE;
1129:HANcoder_E407_TTA_CombineModel.c **** 
1130:HANcoder_E407_TTA_CombineModel.c ****     /* Saturate: '<S62>/Saturation' */
1131:HANcoder_E407_TTA_CombineModel.c ****     if (rtb_Uk1 > 300.0) {
1132:HANcoder_E407_TTA_CombineModel.c ****       tmp = 300.0;
1133:HANcoder_E407_TTA_CombineModel.c ****     } else if (rtb_Uk1 < 0.0) {
1134:HANcoder_E407_TTA_CombineModel.c ****       tmp = 0.0;
1135:HANcoder_E407_TTA_CombineModel.c ****     } else {
1136:HANcoder_E407_TTA_CombineModel.c ****       tmp = rtb_Uk1;
1137:HANcoder_E407_TTA_CombineModel.c ****     }
1138:HANcoder_E407_TTA_CombineModel.c **** 
1139:HANcoder_E407_TTA_CombineModel.c ****     /* Sum: '<S19>/Add' incorporates:
1140:HANcoder_E407_TTA_CombineModel.c ****      *  Constant: '<S19>/Motor dead zone'
1141:HANcoder_E407_TTA_CombineModel.c ****      *  DataTypeConversion: '<S19>/Cast'
1142:HANcoder_E407_TTA_CombineModel.c ****      *  Saturate: '<S62>/Saturation'
1143:HANcoder_E407_TTA_CombineModel.c ****      */
1144:HANcoder_E407_TTA_CombineModel.c ****     mospeed = (uint16_T)((uint32_T)((uint16_T)500U) + (uint16_T)tmp);
1145:HANcoder_E407_TTA_CombineModel.c **** 
1146:HANcoder_E407_TTA_CombineModel.c ****     /* DataStoreWrite: '<S5>/Data Store Write' */
1147:HANcoder_E407_TTA_CombineModel.c ****     rtDWork.pwmMotor = mospeed;
1148:HANcoder_E407_TTA_CombineModel.c **** 
1149:HANcoder_E407_TTA_CombineModel.c ****     /* Memory: '<S122>/Memory' incorporates:
1150:HANcoder_E407_TTA_CombineModel.c ****      *  Constant: '<S19>/Constant'
1151:HANcoder_E407_TTA_CombineModel.c ****      *  RelationalOperator: '<S19>/GreaterThan1'
1152:HANcoder_E407_TTA_CombineModel.c ****      */
1153:HANcoder_E407_TTA_CombineModel.c ****     rtb_Memory_m = (rtb_IntegralGain > controlWidth);
1154:HANcoder_E407_TTA_CombineModel.c **** 
1155:HANcoder_E407_TTA_CombineModel.c ****     /* DataTypeConversion: '<S19>/Cast1' incorporates:
1156:HANcoder_E407_TTA_CombineModel.c ****      *  Constant: '<S19>/Constant1'
1157:HANcoder_E407_TTA_CombineModel.c ****      *  RelationalOperator: '<S19>/GreaterThan'
1158:HANcoder_E407_TTA_CombineModel.c ****      */
1159:HANcoder_E407_TTA_CombineModel.c ****     cw = (control > 0.0);
1160:HANcoder_E407_TTA_CombineModel.c **** 
1161:HANcoder_E407_TTA_CombineModel.c ****     /* Logic: '<S19>/AND' incorporates:
1162:HANcoder_E407_TTA_CombineModel.c ****      *  DataStoreWrite: '<S5>/Data Store Write1'
1163:HANcoder_E407_TTA_CombineModel.c ****      */
1164:HANcoder_E407_TTA_CombineModel.c ****     rtDWork.cwMotor = (rtb_Memory_m && cw);
1165:HANcoder_E407_TTA_CombineModel.c **** 
1166:HANcoder_E407_TTA_CombineModel.c ****     /* Logic: '<S19>/NOT' */
1167:HANcoder_E407_TTA_CombineModel.c ****     ccw = !cw;
1168:HANcoder_E407_TTA_CombineModel.c **** 
1169:HANcoder_E407_TTA_CombineModel.c ****     /* Logic: '<S19>/AND1' incorporates:
1170:HANcoder_E407_TTA_CombineModel.c ****      *  DataStoreWrite: '<S5>/Data Store Write8'
1171:HANcoder_E407_TTA_CombineModel.c ****      */
1172:HANcoder_E407_TTA_CombineModel.c ****     rtDWork.ccwMotor = (rtb_Memory_m && ccw);
1173:HANcoder_E407_TTA_CombineModel.c **** 
1174:HANcoder_E407_TTA_CombineModel.c ****     /* DeadZone: '<S48>/DeadZone' */
1175:HANcoder_E407_TTA_CombineModel.c ****     if (rtb_Uk1 > 300.0) {
1176:HANcoder_E407_TTA_CombineModel.c ****       rtb_Uk1 -= 300.0;
1177:HANcoder_E407_TTA_CombineModel.c ****     } else if (rtb_Uk1 >= 0.0) {
1178:HANcoder_E407_TTA_CombineModel.c ****       rtb_Uk1 = 0.0;
1179:HANcoder_E407_TTA_CombineModel.c ****     } else {
1180:HANcoder_E407_TTA_CombineModel.c ****       rtb_Uk1 -= 0.0;
1181:HANcoder_E407_TTA_CombineModel.c ****     }
1182:HANcoder_E407_TTA_CombineModel.c **** 
1183:HANcoder_E407_TTA_CombineModel.c ****     /* End of DeadZone: '<S48>/DeadZone' */
1184:HANcoder_E407_TTA_CombineModel.c **** 
1185:HANcoder_E407_TTA_CombineModel.c ****     /* Gain: '<S52>/Integral Gain' */
1186:HANcoder_E407_TTA_CombineModel.c ****     rtb_IntegralGain *= intVal;
1187:HANcoder_E407_TTA_CombineModel.c **** 
1188:HANcoder_E407_TTA_CombineModel.c ****     /* Switch: '<S46>/Switch1' incorporates:
1189:HANcoder_E407_TTA_CombineModel.c ****      *  Constant: '<S46>/Clamping_zero'
1190:HANcoder_E407_TTA_CombineModel.c ****      *  Constant: '<S46>/Constant'
1191:HANcoder_E407_TTA_CombineModel.c ****      *  Constant: '<S46>/Constant2'
1192:HANcoder_E407_TTA_CombineModel.c ****      *  RelationalOperator: '<S46>/fix for DT propagation issue'
1193:HANcoder_E407_TTA_CombineModel.c ****      */
1194:HANcoder_E407_TTA_CombineModel.c ****     if (rtb_Uk1 > 0.0) {
1195:HANcoder_E407_TTA_CombineModel.c ****       rtPrevAction = 1;
1196:HANcoder_E407_TTA_CombineModel.c ****     } else {
1197:HANcoder_E407_TTA_CombineModel.c ****       rtPrevAction = (-1);
1198:HANcoder_E407_TTA_CombineModel.c ****     }
1199:HANcoder_E407_TTA_CombineModel.c **** 
1200:HANcoder_E407_TTA_CombineModel.c ****     /* Switch: '<S46>/Switch2' incorporates:
1201:HANcoder_E407_TTA_CombineModel.c ****      *  Constant: '<S46>/Clamping_zero'
1202:HANcoder_E407_TTA_CombineModel.c ****      *  Constant: '<S46>/Constant3'
1203:HANcoder_E407_TTA_CombineModel.c ****      *  Constant: '<S46>/Constant4'
1204:HANcoder_E407_TTA_CombineModel.c ****      *  RelationalOperator: '<S46>/fix for DT propagation issue1'
1205:HANcoder_E407_TTA_CombineModel.c ****      */
1206:HANcoder_E407_TTA_CombineModel.c ****     if (rtb_IntegralGain > 0.0) {
1207:HANcoder_E407_TTA_CombineModel.c ****       rtAction = 1;
1208:HANcoder_E407_TTA_CombineModel.c ****     } else {
1209:HANcoder_E407_TTA_CombineModel.c ****       rtAction = (-1);
1210:HANcoder_E407_TTA_CombineModel.c ****     }
1211:HANcoder_E407_TTA_CombineModel.c **** 
1212:HANcoder_E407_TTA_CombineModel.c ****     /* Switch: '<S46>/Switch' incorporates:
1213:HANcoder_E407_TTA_CombineModel.c ****      *  Constant: '<S46>/Clamping_zero'
1214:HANcoder_E407_TTA_CombineModel.c ****      *  Constant: '<S46>/Constant1'
1215:HANcoder_E407_TTA_CombineModel.c ****      *  Logic: '<S46>/AND3'
1216:HANcoder_E407_TTA_CombineModel.c ****      *  RelationalOperator: '<S46>/Equal1'
1217:HANcoder_E407_TTA_CombineModel.c ****      *  RelationalOperator: '<S46>/Relational Operator'
1218:HANcoder_E407_TTA_CombineModel.c ****      *  Switch: '<S46>/Switch1'
1219:HANcoder_E407_TTA_CombineModel.c ****      *  Switch: '<S46>/Switch2'
1220:HANcoder_E407_TTA_CombineModel.c ****      */
1221:HANcoder_E407_TTA_CombineModel.c ****     if ((0.0 != rtb_Uk1) && (rtPrevAction == rtAction)) {
1222:HANcoder_E407_TTA_CombineModel.c ****       rtb_IntegralGain = 0.0;
1223:HANcoder_E407_TTA_CombineModel.c ****     }
1224:HANcoder_E407_TTA_CombineModel.c **** 
1225:HANcoder_E407_TTA_CombineModel.c ****     /* Update for DiscreteIntegrator: '<S55>/Integrator' incorporates:
1226:HANcoder_E407_TTA_CombineModel.c ****      *  Switch: '<S46>/Switch'
1227:HANcoder_E407_TTA_CombineModel.c ****      */
1228:HANcoder_E407_TTA_CombineModel.c ****     rtDWork.Integrator_DSTATE += 1.0 * rtb_IntegralGain;
1229:HANcoder_E407_TTA_CombineModel.c ****     if (rtDWork.Integrator_DSTATE >= 100.0) {
1230:HANcoder_E407_TTA_CombineModel.c ****       rtDWork.Integrator_DSTATE = 100.0;
1231:HANcoder_E407_TTA_CombineModel.c ****     } else if (rtDWork.Integrator_DSTATE <= 0.0) {
1232:HANcoder_E407_TTA_CombineModel.c ****       rtDWork.Integrator_DSTATE = 0.0;
1233:HANcoder_E407_TTA_CombineModel.c ****     }
1234:HANcoder_E407_TTA_CombineModel.c **** 
1235:HANcoder_E407_TTA_CombineModel.c ****     /* End of Update for DiscreteIntegrator: '<S55>/Integrator' */
1236:HANcoder_E407_TTA_CombineModel.c ****   }
1237:HANcoder_E407_TTA_CombineModel.c **** 
1238:HANcoder_E407_TTA_CombineModel.c ****   rtPrevZCSigState.Controlexecution_Trig_ZCE = rtb_OR1;
 1567              		.loc 1 1238 3 view .LVU534
 1568              		.loc 1 1238 46 is_stmt 0 view .LVU535
 1569 009e DFF8B4A2 		ldr	r10, .L448+40
 1570 00a2 0023     		movs	r3, #0
 1571 00a4 8AF80C30 		strb	r3, [r10, #12]
 1572              	.LVL95:
 1573              	.L406:
1239:HANcoder_E407_TTA_CombineModel.c **** 
1240:HANcoder_E407_TTA_CombineModel.c ****   /* End of Outputs for SubSystem: '<S1>/Control execution' */
1241:HANcoder_E407_TTA_CombineModel.c **** 
1242:HANcoder_E407_TTA_CombineModel.c ****   /* Outputs for Triggered SubSystem: '<S1>/IO execution' incorporates:
1243:HANcoder_E407_TTA_CombineModel.c ****    *  TriggerPort: '<S7>/Trigger'
1244:HANcoder_E407_TTA_CombineModel.c ****    */
1245:HANcoder_E407_TTA_CombineModel.c ****   if (rtb_OR1 && (rtPrevZCSigState.IOexecution_Trig_ZCE != POS_ZCSIG)) {
 1574              		.loc 1 1245 3 is_stmt 1 view .LVU536
1246:HANcoder_E407_TTA_CombineModel.c ****     /* Delay: '<S80>/Delay' */
1247:HANcoder_E407_TTA_CombineModel.c ****     mf1 = rtDWork.Delay_DSTATE_m[0];
1248:HANcoder_E407_TTA_CombineModel.c **** 
1249:HANcoder_E407_TTA_CombineModel.c ****     /* Delay: '<S80>/Delay1' */
1250:HANcoder_E407_TTA_CombineModel.c ****     mf2 = rtDWork.Delay1_DSTATE[0];
1251:HANcoder_E407_TTA_CombineModel.c **** 
1252:HANcoder_E407_TTA_CombineModel.c ****     /* Delay: '<S80>/Delay2' */
1253:HANcoder_E407_TTA_CombineModel.c ****     mf3 = rtDWork.Delay2_DSTATE[0];
1254:HANcoder_E407_TTA_CombineModel.c **** 
1255:HANcoder_E407_TTA_CombineModel.c ****     /* Delay: '<S80>/Delay4' */
1256:HANcoder_E407_TTA_CombineModel.c ****     mf4 = rtDWork.Delay4_DSTATE[0];
1257:HANcoder_E407_TTA_CombineModel.c **** 
1258:HANcoder_E407_TTA_CombineModel.c ****     /* Delay: '<S80>/Delay3' */
1259:HANcoder_E407_TTA_CombineModel.c ****     mf5 = rtDWork.Delay3_DSTATE[0];
1260:HANcoder_E407_TTA_CombineModel.c **** 
1261:HANcoder_E407_TTA_CombineModel.c ****     /* Memory: '<S122>/Memory' incorporates:
1262:HANcoder_E407_TTA_CombineModel.c ****      *  Logic: '<S80>/AND1'
1263:HANcoder_E407_TTA_CombineModel.c ****      */
1264:HANcoder_E407_TTA_CombineModel.c ****     rtb_Memory_m = (mf1 && mf2 && mf3 && mf4 && mf5);
1265:HANcoder_E407_TTA_CombineModel.c **** 
1266:HANcoder_E407_TTA_CombineModel.c ****     /* CombinatorialLogic: '<S92>/Logic' incorporates:
1267:HANcoder_E407_TTA_CombineModel.c ****      *  Memory: '<S92>/Memory'
1268:HANcoder_E407_TTA_CombineModel.c ****      */
1269:HANcoder_E407_TTA_CombineModel.c ****     rtb_Logic_c_idx_0 = rtConstP.pooled23[((((uint32_T)rtb_Memory_m << 1) +
1270:HANcoder_E407_TTA_CombineModel.c ****       false) << 1) + rtDWork.Memory_PreviousInput_d1];
1271:HANcoder_E407_TTA_CombineModel.c **** 
1272:HANcoder_E407_TTA_CombineModel.c ****     /* Memory: '<S122>/Memory' incorporates:
1273:HANcoder_E407_TTA_CombineModel.c ****      *  Constant: '<S80>/Constant2'
1274:HANcoder_E407_TTA_CombineModel.c ****      *  DataStoreRead: '<S1>/Data Store Read1'
1275:HANcoder_E407_TTA_CombineModel.c ****      *  RelationalOperator: '<S80>/Equal1'
1276:HANcoder_E407_TTA_CombineModel.c ****      */
1277:HANcoder_E407_TTA_CombineModel.c ****     rtb_Memory_m = (rtDWork.Board_ID == ((uint8_T)1U));
1278:HANcoder_E407_TTA_CombineModel.c **** 
1279:HANcoder_E407_TTA_CombineModel.c ****     /* Logic: '<S80>/AND2' */
1280:HANcoder_E407_TTA_CombineModel.c ****     motorFaultDetected = (rtb_Logic_c_idx_0 && rtb_Memory_m);
1281:HANcoder_E407_TTA_CombineModel.c **** 
1282:HANcoder_E407_TTA_CombineModel.c ****     /* DataStoreWrite: '<S80>/Data Store Write' */
1283:HANcoder_E407_TTA_CombineModel.c ****     rtDWork.motorFailed = motorFaultDetected;
1284:HANcoder_E407_TTA_CombineModel.c **** 
1285:HANcoder_E407_TTA_CombineModel.c ****     /* DataStoreRead: '<S80>/Data Store Read5' */
1286:HANcoder_E407_TTA_CombineModel.c ****     potRaw = rtDWork.potentiometer1Raw;
1287:HANcoder_E407_TTA_CombineModel.c **** 
1288:HANcoder_E407_TTA_CombineModel.c ****     /* DataStoreRead: '<S80>/Data Store Read6' */
1289:HANcoder_E407_TTA_CombineModel.c ****     lastPot = rtDWork.lastPot1;
1290:HANcoder_E407_TTA_CombineModel.c **** 
1291:HANcoder_E407_TTA_CombineModel.c ****     /* Sum: '<S80>/Add' incorporates:
1292:HANcoder_E407_TTA_CombineModel.c ****      *  DataTypeConversion: '<S80>/Cast'
1293:HANcoder_E407_TTA_CombineModel.c ****      *  DataTypeConversion: '<S80>/Cast1'
1294:HANcoder_E407_TTA_CombineModel.c ****      */
1295:HANcoder_E407_TTA_CombineModel.c ****     u = (int16_T)((int16_T)potRaw - (int16_T)lastPot);
1296:HANcoder_E407_TTA_CombineModel.c **** 
1297:HANcoder_E407_TTA_CombineModel.c ****     /* Abs: '<S80>/Abs' */
1298:HANcoder_E407_TTA_CombineModel.c ****     if (u < 0) {
1299:HANcoder_E407_TTA_CombineModel.c ****       u = (int16_T)-u;
1300:HANcoder_E407_TTA_CombineModel.c ****     }
1301:HANcoder_E407_TTA_CombineModel.c **** 
1302:HANcoder_E407_TTA_CombineModel.c ****     /* Memory: '<S122>/Memory' incorporates:
1303:HANcoder_E407_TTA_CombineModel.c ****      *  Abs: '<S80>/Abs'
1304:HANcoder_E407_TTA_CombineModel.c ****      *  Constant: '<S80>/Constant1'
1305:HANcoder_E407_TTA_CombineModel.c ****      *  Delay: '<S80>/Delay6'
1306:HANcoder_E407_TTA_CombineModel.c ****      *  Logic: '<S80>/AND3'
1307:HANcoder_E407_TTA_CombineModel.c ****      *  RelationalOperator: '<S80>/GreaterThan1'
1308:HANcoder_E407_TTA_CombineModel.c ****      */
1309:HANcoder_E407_TTA_CombineModel.c ****     rtb_Memory_m = ((u > 1000) && rtDWork.Delay6_DSTATE[0]);
1310:HANcoder_E407_TTA_CombineModel.c **** 
1311:HANcoder_E407_TTA_CombineModel.c ****     /* CombinatorialLogic: '<S93>/Logic' incorporates:
1312:HANcoder_E407_TTA_CombineModel.c ****      *  Memory: '<S93>/Memory'
1313:HANcoder_E407_TTA_CombineModel.c ****      */
1314:HANcoder_E407_TTA_CombineModel.c ****     rtb_Logic_f_idx_0 = rtConstP.pooled23[((((uint32_T)rtb_Memory_m << 1) +
1315:HANcoder_E407_TTA_CombineModel.c ****       false) << 1) + rtDWork.Memory_PreviousInput_a];
1316:HANcoder_E407_TTA_CombineModel.c **** 
1317:HANcoder_E407_TTA_CombineModel.c ****     /* DataStoreWrite: '<S80>/Data Store Write2' */
1318:HANcoder_E407_TTA_CombineModel.c ****     rtDWork.potFault = rtb_Logic_f_idx_0;
1319:HANcoder_E407_TTA_CombineModel.c **** 
1320:HANcoder_E407_TTA_CombineModel.c ****     /* Gain: '<S80>/Gain' incorporates:
1321:HANcoder_E407_TTA_CombineModel.c ****      *  DataStoreRead: '<S80>/Data Store Read12'
1322:HANcoder_E407_TTA_CombineModel.c ****      *  DataStoreWrite: '<S80>/Data Store Write4'
1323:HANcoder_E407_TTA_CombineModel.c ****      */
1324:HANcoder_E407_TTA_CombineModel.c ****     rtDWork.requestedAngle = (uint32_T)((uint16_T)62602U) *
1325:HANcoder_E407_TTA_CombineModel.c ****       rtDWork.potentiometer1;
1326:HANcoder_E407_TTA_CombineModel.c **** 
1327:HANcoder_E407_TTA_CombineModel.c ****     /* Delay: '<S80>/Delay7' incorporates:
1328:HANcoder_E407_TTA_CombineModel.c ****      *  DataStoreWrite: '<S80>/Data Store Write1'
1329:HANcoder_E407_TTA_CombineModel.c ****      */
1330:HANcoder_E407_TTA_CombineModel.c ****     rtDWork.lastPot1 = rtDWork.Delay7_DSTATE[0];
1331:HANcoder_E407_TTA_CombineModel.c **** 
1332:HANcoder_E407_TTA_CombineModel.c ****     /* Logic: '<S80>/AND' incorporates:
1333:HANcoder_E407_TTA_CombineModel.c ****      *  Constant: '<S80>/Constant'
1334:HANcoder_E407_TTA_CombineModel.c ****      *  DataStoreRead: '<S80>/Data Store Read2'
1335:HANcoder_E407_TTA_CombineModel.c ****      *  DataStoreRead: '<S80>/Data Store Read4'
1336:HANcoder_E407_TTA_CombineModel.c ****      *  Delay: '<S80>/Delay5'
1337:HANcoder_E407_TTA_CombineModel.c ****      *  RelationalOperator: '<S80>/Equal'
1338:HANcoder_E407_TTA_CombineModel.c ****      *  RelationalOperator: '<S80>/GreaterThan'
1339:HANcoder_E407_TTA_CombineModel.c ****      */
1340:HANcoder_E407_TTA_CombineModel.c ****     rtb_AND_du = ((rtDWork.Delay5_DSTATE[0] == rtDWork.encoderPosition) &&
1341:HANcoder_E407_TTA_CombineModel.c ****                   (rtDWork.pwmMotor > ((uint16_T)700U)));
1342:HANcoder_E407_TTA_CombineModel.c **** 
1343:HANcoder_E407_TTA_CombineModel.c ****     /* DataStoreRead: '<S80>/Data Store Read11' */
1344:HANcoder_E407_TTA_CombineModel.c ****     rtb_DataStoreRead11 = rtDWork.ioInitialized;
1345:HANcoder_E407_TTA_CombineModel.c **** 
1346:HANcoder_E407_TTA_CombineModel.c ****     /* Outputs for Enabled SubSystem: '<S80>/Triggered Subsystem' incorporates:
1347:HANcoder_E407_TTA_CombineModel.c ****      *  EnablePort: '<S94>/Enable'
1348:HANcoder_E407_TTA_CombineModel.c ****      */
1349:HANcoder_E407_TTA_CombineModel.c ****     /* Logic: '<S80>/NOT' incorporates:
1350:HANcoder_E407_TTA_CombineModel.c ****      *  DataStoreRead: '<S80>/Data Store Read1'
1351:HANcoder_E407_TTA_CombineModel.c ****      *  DataStoreRead: '<S80>/Data Store Read9'
1352:HANcoder_E407_TTA_CombineModel.c ****      *  Logic: '<S80>/OR'
1353:HANcoder_E407_TTA_CombineModel.c ****      */
1354:HANcoder_E407_TTA_CombineModel.c ****     if ((!rtDWork.node4Active) && (!rtDWork.potReadNode4Fail)) {
1355:HANcoder_E407_TTA_CombineModel.c ****       /* Gain: '<S94>/Gain' incorporates:
1356:HANcoder_E407_TTA_CombineModel.c ****        *  DataStoreRead: '<S94>/Data Store Read'
1357:HANcoder_E407_TTA_CombineModel.c ****        *  DataStoreWrite: '<S94>/Data Store Write1'
1358:HANcoder_E407_TTA_CombineModel.c ****        */
1359:HANcoder_E407_TTA_CombineModel.c ****       rtDWork.trailerOneAngle = (uint16_T)(((uint32_T)((uint16_T)62602U) *
1360:HANcoder_E407_TTA_CombineModel.c ****         rtDWork.potentiometer2) >> 22);
1361:HANcoder_E407_TTA_CombineModel.c ****     } else {
1362:HANcoder_E407_TTA_CombineModel.c ****       /* Outputs for Enabled SubSystem: '<S80>/Triggered Subsystem1' incorporates:
1363:HANcoder_E407_TTA_CombineModel.c ****        *  EnablePort: '<S95>/Enable'
1364:HANcoder_E407_TTA_CombineModel.c ****        */
1365:HANcoder_E407_TTA_CombineModel.c ****       /* Gain: '<S95>/Gain' incorporates:
1366:HANcoder_E407_TTA_CombineModel.c ****        *  DataStoreRead: '<S95>/Data Store Read12'
1367:HANcoder_E407_TTA_CombineModel.c ****        *  DataStoreWrite: '<S95>/Data Store Write4'
1368:HANcoder_E407_TTA_CombineModel.c ****        */
1369:HANcoder_E407_TTA_CombineModel.c ****       rtDWork.trailerOneAngle = (uint16_T)(((uint32_T)((uint16_T)62602U) *
1370:HANcoder_E407_TTA_CombineModel.c ****         rtDWork.pot4_1) >> 22);
1371:HANcoder_E407_TTA_CombineModel.c **** 
1372:HANcoder_E407_TTA_CombineModel.c ****       /* End of Outputs for SubSystem: '<S80>/Triggered Subsystem1' */
1373:HANcoder_E407_TTA_CombineModel.c ****     }
1374:HANcoder_E407_TTA_CombineModel.c **** 
1375:HANcoder_E407_TTA_CombineModel.c ****     /* End of Logic: '<S80>/NOT' */
1376:HANcoder_E407_TTA_CombineModel.c ****     /* End of Outputs for SubSystem: '<S80>/Triggered Subsystem' */
1377:HANcoder_E407_TTA_CombineModel.c **** 
1378:HANcoder_E407_TTA_CombineModel.c ****     /* Outputs for Enabled SubSystem: '<S80>/Triggered Subsystem2' incorporates:
1379:HANcoder_E407_TTA_CombineModel.c ****      *  EnablePort: '<S96>/Enable'
1380:HANcoder_E407_TTA_CombineModel.c ****      */
1381:HANcoder_E407_TTA_CombineModel.c ****     /* Logic: '<S80>/NOT1' incorporates:
1382:HANcoder_E407_TTA_CombineModel.c ****      *  DataStoreRead: '<S80>/Data Store Read10'
1383:HANcoder_E407_TTA_CombineModel.c ****      *  DataStoreRead: '<S80>/Data Store Read3'
1384:HANcoder_E407_TTA_CombineModel.c ****      *  Logic: '<S80>/OR1'
1385:HANcoder_E407_TTA_CombineModel.c ****      */
1386:HANcoder_E407_TTA_CombineModel.c ****     if ((!rtDWork.node5Active) && (!rtDWork.potReadNode5Fail)) {
1387:HANcoder_E407_TTA_CombineModel.c ****       /* Gain: '<S96>/Gain' incorporates:
1388:HANcoder_E407_TTA_CombineModel.c ****        *  DataStoreRead: '<S96>/Data Store Read'
1389:HANcoder_E407_TTA_CombineModel.c ****        *  DataStoreWrite: '<S96>/Data Store Write1'
1390:HANcoder_E407_TTA_CombineModel.c ****        */
1391:HANcoder_E407_TTA_CombineModel.c ****       rtDWork.trailerOneAngle = (uint16_T)(((uint32_T)((uint16_T)62602U) *
1392:HANcoder_E407_TTA_CombineModel.c ****         rtDWork.pot4_2) >> 22);
1393:HANcoder_E407_TTA_CombineModel.c ****     } else {
1394:HANcoder_E407_TTA_CombineModel.c ****       /* Outputs for Enabled SubSystem: '<S80>/Triggered Subsystem3' incorporates:
1395:HANcoder_E407_TTA_CombineModel.c ****        *  EnablePort: '<S97>/Enable'
1396:HANcoder_E407_TTA_CombineModel.c ****        */
1397:HANcoder_E407_TTA_CombineModel.c ****       /* Gain: '<S97>/Gain1' incorporates:
1398:HANcoder_E407_TTA_CombineModel.c ****        *  DataStoreRead: '<S97>/Data Store Read13'
1399:HANcoder_E407_TTA_CombineModel.c ****        *  DataStoreWrite: '<S97>/Data Store Write5'
1400:HANcoder_E407_TTA_CombineModel.c ****        */
1401:HANcoder_E407_TTA_CombineModel.c ****       rtDWork.trailerTwoAngle = (uint16_T)(((uint32_T)((uint16_T)62602U) *
1402:HANcoder_E407_TTA_CombineModel.c ****         rtDWork.pot5_1) >> 22);
1403:HANcoder_E407_TTA_CombineModel.c **** 
1404:HANcoder_E407_TTA_CombineModel.c ****       /* End of Outputs for SubSystem: '<S80>/Triggered Subsystem3' */
1405:HANcoder_E407_TTA_CombineModel.c ****     }
1406:HANcoder_E407_TTA_CombineModel.c **** 
1407:HANcoder_E407_TTA_CombineModel.c ****     /* End of Logic: '<S80>/NOT1' */
1408:HANcoder_E407_TTA_CombineModel.c ****     /* End of Outputs for SubSystem: '<S80>/Triggered Subsystem2' */
1409:HANcoder_E407_TTA_CombineModel.c **** 
1410:HANcoder_E407_TTA_CombineModel.c ****     /* DataStoreRead: '<S80>/Data Store Read7' */
1411:HANcoder_E407_TTA_CombineModel.c ****     rtb_DataStoreRead7 = rtDWork.encoderPosition;
1412:HANcoder_E407_TTA_CombineModel.c **** 
1413:HANcoder_E407_TTA_CombineModel.c ****     /* DataStoreRead: '<S80>/Data Store Read8' */
1414:HANcoder_E407_TTA_CombineModel.c ****     rtb_DataStoreRead8 = rtDWork.potentiometer1Raw;
1415:HANcoder_E407_TTA_CombineModel.c **** 
1416:HANcoder_E407_TTA_CombineModel.c ****     /* M-S-Function: '<S83>/Level-2 M-file S-Function' */
1417:HANcoder_E407_TTA_CombineModel.c ****     /* read from analog input for filtered inputs*/
1418:HANcoder_E407_TTA_CombineModel.c ****     analogPot1 = AninGet(ANIN_PORTF_PIN7,0);
1419:HANcoder_E407_TTA_CombineModel.c **** 
1420:HANcoder_E407_TTA_CombineModel.c ****     /* DataTypeConversion: '<S78>/Cast' */
1421:HANcoder_E407_TTA_CombineModel.c ****     rtb_Cast_m = analogPot1;
1422:HANcoder_E407_TTA_CombineModel.c ****     MovingAverage(rtb_Cast_m, &rtB.MovingAverage_p, &rtDWork.MovingAverage_p);
1423:HANcoder_E407_TTA_CombineModel.c **** 
1424:HANcoder_E407_TTA_CombineModel.c ****     /* DataTypeConversion: '<S78>/Cast1' */
1425:HANcoder_E407_TTA_CombineModel.c ****     pot1 = (uint16_T)rtB.MovingAverage_p.MovingAverage_n;
1426:HANcoder_E407_TTA_CombineModel.c **** 
1427:HANcoder_E407_TTA_CombineModel.c ****     /* DataStoreWrite: '<S78>/Data Store Write1' */
1428:HANcoder_E407_TTA_CombineModel.c ****     rtDWork.potentiometer1 = pot1;
1429:HANcoder_E407_TTA_CombineModel.c **** 
1430:HANcoder_E407_TTA_CombineModel.c ****     /* DataStoreWrite: '<S78>/Data Store Write4' */
1431:HANcoder_E407_TTA_CombineModel.c ****     rtDWork.potentiometer1Raw = analogPot1;
1432:HANcoder_E407_TTA_CombineModel.c **** 
1433:HANcoder_E407_TTA_CombineModel.c ****     /* M-S-Function: '<S84>/Level-2 M-file S-Function' */
1434:HANcoder_E407_TTA_CombineModel.c ****     /* read from analog input for filtered inputs*/
1435:HANcoder_E407_TTA_CombineModel.c ****     analogPot2 = AninGet(ANIN_PORTF_PIN8,0);
1436:HANcoder_E407_TTA_CombineModel.c **** 
1437:HANcoder_E407_TTA_CombineModel.c ****     /* DataTypeConversion: '<S78>/Cast3' */
1438:HANcoder_E407_TTA_CombineModel.c ****     rtb_Cast3 = analogPot2;
1439:HANcoder_E407_TTA_CombineModel.c ****     MovingAverage(rtb_Cast3, &rtB.MovingAverage1, &rtDWork.MovingAverage1);
1440:HANcoder_E407_TTA_CombineModel.c **** 
1441:HANcoder_E407_TTA_CombineModel.c ****     /* DataTypeConversion: '<S78>/Cast2' */
1442:HANcoder_E407_TTA_CombineModel.c ****     pot2 = (uint16_T)rtB.MovingAverage1.MovingAverage_n;
1443:HANcoder_E407_TTA_CombineModel.c **** 
1444:HANcoder_E407_TTA_CombineModel.c ****     /* DataStoreWrite: '<S78>/Data Store Write3' */
1445:HANcoder_E407_TTA_CombineModel.c ****     rtDWork.potentiometer2 = pot2;
1446:HANcoder_E407_TTA_CombineModel.c **** 
1447:HANcoder_E407_TTA_CombineModel.c ****     /* M-S-Function: '<S81>/Level-2 M-file S-Function' */
1448:HANcoder_E407_TTA_CombineModel.c ****     /* read from digital input */
1449:HANcoder_E407_TTA_CombineModel.c ****     rtb_Memory_m = DiginGet(DIGIN_PORTA_PIN0);
1450:HANcoder_E407_TTA_CombineModel.c **** 
1451:HANcoder_E407_TTA_CombineModel.c ****     /* DataTypeConversion: '<S78>/Cast4' incorporates:
1452:HANcoder_E407_TTA_CombineModel.c ****      *  DataStoreWrite: '<S78>/Data Store Write6'
1453:HANcoder_E407_TTA_CombineModel.c ****      */
1454:HANcoder_E407_TTA_CombineModel.c ****     rtDWork.buttonPress = rtb_Memory_m;
1455:HANcoder_E407_TTA_CombineModel.c **** 
1456:HANcoder_E407_TTA_CombineModel.c ****     /* DataStoreWrite: '<S78>/Data Store Write5' */
1457:HANcoder_E407_TTA_CombineModel.c ****     rtDWork.ioInitialized = ioInit;
1458:HANcoder_E407_TTA_CombineModel.c **** 
1459:HANcoder_E407_TTA_CombineModel.c ****     /* M-S-Function: '<S82>/Level-2 M-file S-Function' */
1460:HANcoder_E407_TTA_CombineModel.c ****     /* determine if the counter needs a reset  */
1461:HANcoder_E407_TTA_CombineModel.c ****     if (rtB.DataTypeConversion > 0) {
1462:HANcoder_E407_TTA_CombineModel.c ****       QuadEncResetCounter(QUADENC_TIM3_PA6_PB5);
1463:HANcoder_E407_TTA_CombineModel.c ****     }
1464:HANcoder_E407_TTA_CombineModel.c **** 
1465:HANcoder_E407_TTA_CombineModel.c ****     /* read counter from the quadrature encoder module */
1466:HANcoder_E407_TTA_CombineModel.c ****     motorPos = QuadEncGetCounter(QUADENC_TIM3_PA6_PB5);
1467:HANcoder_E407_TTA_CombineModel.c **** 
1468:HANcoder_E407_TTA_CombineModel.c ****     /* DataStoreWrite: '<S78>/Data Store Write' */
1469:HANcoder_E407_TTA_CombineModel.c ****     rtDWork.encoderPosition = motorPos;
1470:HANcoder_E407_TTA_CombineModel.c **** 
1471:HANcoder_E407_TTA_CombineModel.c ****     /* DataTypeConversion: '<S82>/Data Type Conversion' incorporates:
1472:HANcoder_E407_TTA_CombineModel.c ****      *  RelationalOperator: '<S85>/FixPt Relational Operator'
1473:HANcoder_E407_TTA_CombineModel.c ****      *  UnitDelay: '<S85>/Delay Input1'
1474:HANcoder_E407_TTA_CombineModel.c ****      *
1475:HANcoder_E407_TTA_CombineModel.c ****      * Block description for '<S85>/Delay Input1':
1476:HANcoder_E407_TTA_CombineModel.c ****      *
1477:HANcoder_E407_TTA_CombineModel.c ****      *  Store in Global RAM
1478:HANcoder_E407_TTA_CombineModel.c ****      */
1479:HANcoder_E407_TTA_CombineModel.c ****     rtB.DataTypeConversion = (rtDWork.DelayInput1_DSTATE < 0.0);
1480:HANcoder_E407_TTA_CombineModel.c **** 
1481:HANcoder_E407_TTA_CombineModel.c ****     /* Logic: '<S79>/AND1' incorporates:
1482:HANcoder_E407_TTA_CombineModel.c ****      *  DataStoreRead: '<S79>/Data Store Read1'
1483:HANcoder_E407_TTA_CombineModel.c ****      */
1484:HANcoder_E407_TTA_CombineModel.c ****     rtb_OR = (canActive && rtDWork.truck2CommActive);
1485:HANcoder_E407_TTA_CombineModel.c **** 
1486:HANcoder_E407_TTA_CombineModel.c ****     /* Logic: '<S79>/NOT' incorporates:
1487:HANcoder_E407_TTA_CombineModel.c ****      *  Constant: '<S79>/Constant'
1488:HANcoder_E407_TTA_CombineModel.c ****      *  Constant: '<S79>/Constant2'
1489:HANcoder_E407_TTA_CombineModel.c ****      *  DataStoreRead: '<S1>/Data Store Read1'
1490:HANcoder_E407_TTA_CombineModel.c ****      *  DataStoreRead: '<S79>/Data Store Read'
1491:HANcoder_E407_TTA_CombineModel.c ****      *  Logic: '<S79>/AND'
1492:HANcoder_E407_TTA_CombineModel.c ****      *  Logic: '<S79>/AND2'
1493:HANcoder_E407_TTA_CombineModel.c ****      *  Logic: '<S79>/OR'
1494:HANcoder_E407_TTA_CombineModel.c ****      *  RelationalOperator: '<S79>/NotEqual'
1495:HANcoder_E407_TTA_CombineModel.c ****      *  RelationalOperator: '<S79>/NotEqual1'
1496:HANcoder_E407_TTA_CombineModel.c ****      */
1497:HANcoder_E407_TTA_CombineModel.c ****     rtB.NOT = ((!rtb_OR) || ((rtDWork.Board_ID != ((uint8_T)1U)) &&
1498:HANcoder_E407_TTA_CombineModel.c ****                 ((!rtDWork.node1CanFailed) || (rtDWork.Board_ID != ((uint8_T)2U)))));
1499:HANcoder_E407_TTA_CombineModel.c **** 
1500:HANcoder_E407_TTA_CombineModel.c ****     /* Memory: '<S122>/Memory' incorporates:
1501:HANcoder_E407_TTA_CombineModel.c ****      *  Constant: '<S91>/Constant3'
1502:HANcoder_E407_TTA_CombineModel.c ****      *  DataStoreRead: '<S1>/Data Store Read1'
1503:HANcoder_E407_TTA_CombineModel.c ****      *  DataStoreRead: '<S91>/Data Store Read2'
1504:HANcoder_E407_TTA_CombineModel.c ****      *  Logic: '<S91>/OR1'
1505:HANcoder_E407_TTA_CombineModel.c ****      *  RelationalOperator: '<S91>/Equal'
1506:HANcoder_E407_TTA_CombineModel.c ****      */
1507:HANcoder_E407_TTA_CombineModel.c ****     rtb_Memory_m = ((rtDWork.Board_ID == ((uint8_T)1U)) ||
1508:HANcoder_E407_TTA_CombineModel.c ****                     rtDWork.node1CanFailed);
1509:HANcoder_E407_TTA_CombineModel.c **** 
1510:HANcoder_E407_TTA_CombineModel.c ****     /* Switch: '<S79>/Switch3' incorporates:
1511:HANcoder_E407_TTA_CombineModel.c ****      *  Switch: '<S79>/Switch4'
1512:HANcoder_E407_TTA_CombineModel.c ****      *  Switch: '<S79>/Switch5'
1513:HANcoder_E407_TTA_CombineModel.c ****      */
1514:HANcoder_E407_TTA_CombineModel.c ****     if (rtb_Memory_m) {
1515:HANcoder_E407_TTA_CombineModel.c ****       /* Switch: '<S79>/Switch' incorporates:
1516:HANcoder_E407_TTA_CombineModel.c ****        *  Switch: '<S79>/Switch1'
1517:HANcoder_E407_TTA_CombineModel.c ****        *  Switch: '<S79>/Switch2'
1518:HANcoder_E407_TTA_CombineModel.c ****        */
1519:HANcoder_E407_TTA_CombineModel.c ****       if (rtb_OR) {
1520:HANcoder_E407_TTA_CombineModel.c ****         /* Switch: '<S79>/Switch3' incorporates:
1521:HANcoder_E407_TTA_CombineModel.c ****          *  DataStoreRead: '<S7>/Data Store Read'
1522:HANcoder_E407_TTA_CombineModel.c ****          */
1523:HANcoder_E407_TTA_CombineModel.c ****         rtB.Switch3 = rtDWork.pwmMotor;
1524:HANcoder_E407_TTA_CombineModel.c **** 
1525:HANcoder_E407_TTA_CombineModel.c ****         /* Switch: '<S79>/Switch4' incorporates:
1526:HANcoder_E407_TTA_CombineModel.c ****          *  DataStoreRead: '<S7>/Data Store Read1'
1527:HANcoder_E407_TTA_CombineModel.c ****          */
1528:HANcoder_E407_TTA_CombineModel.c ****         rtB.Switch4 = rtDWork.cwMotor;
1529:HANcoder_E407_TTA_CombineModel.c **** 
1530:HANcoder_E407_TTA_CombineModel.c ****         /* Switch: '<S79>/Switch5' incorporates:
1531:HANcoder_E407_TTA_CombineModel.c ****          *  DataStoreRead: '<S7>/Data Store Read3'
1532:HANcoder_E407_TTA_CombineModel.c ****          */
1533:HANcoder_E407_TTA_CombineModel.c ****         rtB.Switch5 = rtDWork.ccwMotor;
1534:HANcoder_E407_TTA_CombineModel.c ****       } else {
1535:HANcoder_E407_TTA_CombineModel.c ****         /* Switch: '<S79>/Switch3' */
1536:HANcoder_E407_TTA_CombineModel.c ****         rtB.Switch3 = rtConstB.Cast;
1537:HANcoder_E407_TTA_CombineModel.c **** 
1538:HANcoder_E407_TTA_CombineModel.c ****         /* Switch: '<S79>/Switch4' */
1539:HANcoder_E407_TTA_CombineModel.c ****         rtB.Switch4 = rtConstB.Cast1;
1540:HANcoder_E407_TTA_CombineModel.c **** 
1541:HANcoder_E407_TTA_CombineModel.c ****         /* Switch: '<S79>/Switch5' */
1542:HANcoder_E407_TTA_CombineModel.c ****         rtB.Switch5 = rtConstB.Cast2_pq;
1543:HANcoder_E407_TTA_CombineModel.c ****       }
1544:HANcoder_E407_TTA_CombineModel.c **** 
1545:HANcoder_E407_TTA_CombineModel.c ****       /* End of Switch: '<S79>/Switch' */
1546:HANcoder_E407_TTA_CombineModel.c ****     } else {
1547:HANcoder_E407_TTA_CombineModel.c ****       /* Switch: '<S79>/Switch3' */
1548:HANcoder_E407_TTA_CombineModel.c ****       rtB.Switch3 = rtConstB.Cast;
1549:HANcoder_E407_TTA_CombineModel.c **** 
1550:HANcoder_E407_TTA_CombineModel.c ****       /* Switch: '<S79>/Switch4' */
1551:HANcoder_E407_TTA_CombineModel.c ****       rtB.Switch4 = rtConstB.Cast1;
1552:HANcoder_E407_TTA_CombineModel.c **** 
1553:HANcoder_E407_TTA_CombineModel.c ****       /* Switch: '<S79>/Switch5' */
1554:HANcoder_E407_TTA_CombineModel.c ****       rtB.Switch5 = rtConstB.Cast2_pq;
1555:HANcoder_E407_TTA_CombineModel.c ****     }
1556:HANcoder_E407_TTA_CombineModel.c **** 
1557:HANcoder_E407_TTA_CombineModel.c ****     /* End of Switch: '<S79>/Switch3' */
1558:HANcoder_E407_TTA_CombineModel.c ****     /* Update for Delay: '<S80>/Delay' */
1559:HANcoder_E407_TTA_CombineModel.c ****     rtDWork.Delay_DSTATE_m[0] = rtDWork.Delay_DSTATE_m[1];
1560:HANcoder_E407_TTA_CombineModel.c ****     rtDWork.Delay_DSTATE_m[1] = rtb_AND_du;
1561:HANcoder_E407_TTA_CombineModel.c **** 
1562:HANcoder_E407_TTA_CombineModel.c ****     /* Update for Delay: '<S80>/Delay1' */
1563:HANcoder_E407_TTA_CombineModel.c ****     for (idxDelay = 0; idxDelay < 8; idxDelay++) {
1564:HANcoder_E407_TTA_CombineModel.c ****       rtDWork.Delay1_DSTATE[idxDelay] = rtDWork.Delay1_DSTATE[idxDelay + 1];
1565:HANcoder_E407_TTA_CombineModel.c ****     }
1566:HANcoder_E407_TTA_CombineModel.c **** 
1567:HANcoder_E407_TTA_CombineModel.c ****     rtDWork.Delay1_DSTATE[8] = rtb_AND_du;
1568:HANcoder_E407_TTA_CombineModel.c **** 
1569:HANcoder_E407_TTA_CombineModel.c ****     /* End of Update for Delay: '<S80>/Delay1' */
1570:HANcoder_E407_TTA_CombineModel.c **** 
1571:HANcoder_E407_TTA_CombineModel.c ****     /* Update for Delay: '<S80>/Delay2' */
1572:HANcoder_E407_TTA_CombineModel.c ****     for (idxDelay = 0; idxDelay < 15; idxDelay++) {
1573:HANcoder_E407_TTA_CombineModel.c ****       rtDWork.Delay2_DSTATE[idxDelay] = rtDWork.Delay2_DSTATE[idxDelay + 1];
1574:HANcoder_E407_TTA_CombineModel.c ****     }
1575:HANcoder_E407_TTA_CombineModel.c **** 
1576:HANcoder_E407_TTA_CombineModel.c ****     rtDWork.Delay2_DSTATE[15] = rtb_AND_du;
1577:HANcoder_E407_TTA_CombineModel.c **** 
1578:HANcoder_E407_TTA_CombineModel.c ****     /* End of Update for Delay: '<S80>/Delay2' */
1579:HANcoder_E407_TTA_CombineModel.c **** 
1580:HANcoder_E407_TTA_CombineModel.c ****     /* Update for Delay: '<S80>/Delay4' */
1581:HANcoder_E407_TTA_CombineModel.c ****     for (idxDelay = 0; idxDelay < 24; idxDelay++) {
1582:HANcoder_E407_TTA_CombineModel.c ****       rtDWork.Delay4_DSTATE[idxDelay] = rtDWork.Delay4_DSTATE[idxDelay + 1];
1583:HANcoder_E407_TTA_CombineModel.c ****     }
1584:HANcoder_E407_TTA_CombineModel.c **** 
1585:HANcoder_E407_TTA_CombineModel.c ****     rtDWork.Delay4_DSTATE[24] = rtb_AND_du;
1586:HANcoder_E407_TTA_CombineModel.c **** 
1587:HANcoder_E407_TTA_CombineModel.c ****     /* End of Update for Delay: '<S80>/Delay4' */
1588:HANcoder_E407_TTA_CombineModel.c **** 
1589:HANcoder_E407_TTA_CombineModel.c ****     /* Update for Delay: '<S80>/Delay3' */
1590:HANcoder_E407_TTA_CombineModel.c ****     for (idxDelay = 0; idxDelay < 34; idxDelay++) {
1591:HANcoder_E407_TTA_CombineModel.c ****       rtDWork.Delay3_DSTATE[idxDelay] = rtDWork.Delay3_DSTATE[idxDelay + 1];
1592:HANcoder_E407_TTA_CombineModel.c ****     }
1593:HANcoder_E407_TTA_CombineModel.c **** 
1594:HANcoder_E407_TTA_CombineModel.c ****     rtDWork.Delay3_DSTATE[34] = rtb_AND_du;
1595:HANcoder_E407_TTA_CombineModel.c **** 
1596:HANcoder_E407_TTA_CombineModel.c ****     /* End of Update for Delay: '<S80>/Delay3' */
1597:HANcoder_E407_TTA_CombineModel.c **** 
1598:HANcoder_E407_TTA_CombineModel.c ****     /* Update for Memory: '<S92>/Memory' */
1599:HANcoder_E407_TTA_CombineModel.c ****     rtDWork.Memory_PreviousInput_d1 = rtb_Logic_c_idx_0;
1600:HANcoder_E407_TTA_CombineModel.c **** 
1601:HANcoder_E407_TTA_CombineModel.c ****     /* Update for Delay: '<S80>/Delay6' */
1602:HANcoder_E407_TTA_CombineModel.c ****     for (idxDelay = 0; idxDelay < 9; idxDelay++) {
1603:HANcoder_E407_TTA_CombineModel.c ****       rtDWork.Delay6_DSTATE[idxDelay] = rtDWork.Delay6_DSTATE[idxDelay + 1];
1604:HANcoder_E407_TTA_CombineModel.c ****     }
1605:HANcoder_E407_TTA_CombineModel.c **** 
1606:HANcoder_E407_TTA_CombineModel.c ****     rtDWork.Delay6_DSTATE[9] = rtb_DataStoreRead11;
1607:HANcoder_E407_TTA_CombineModel.c **** 
1608:HANcoder_E407_TTA_CombineModel.c ****     /* End of Update for Delay: '<S80>/Delay6' */
1609:HANcoder_E407_TTA_CombineModel.c **** 
1610:HANcoder_E407_TTA_CombineModel.c ****     /* Update for Memory: '<S93>/Memory' */
1611:HANcoder_E407_TTA_CombineModel.c ****     rtDWork.Memory_PreviousInput_a = rtb_Logic_f_idx_0;
1612:HANcoder_E407_TTA_CombineModel.c **** 
1613:HANcoder_E407_TTA_CombineModel.c ****     /* Update for Delay: '<S80>/Delay5' */
1614:HANcoder_E407_TTA_CombineModel.c ****     for (idxDelay = 0; idxDelay < 6; idxDelay++) {
1615:HANcoder_E407_TTA_CombineModel.c ****       rtDWork.Delay5_DSTATE[idxDelay] = rtDWork.Delay5_DSTATE[idxDelay + 1];
1616:HANcoder_E407_TTA_CombineModel.c ****     }
1617:HANcoder_E407_TTA_CombineModel.c **** 
1618:HANcoder_E407_TTA_CombineModel.c ****     rtDWork.Delay5_DSTATE[6] = rtb_DataStoreRead7;
1619:HANcoder_E407_TTA_CombineModel.c **** 
1620:HANcoder_E407_TTA_CombineModel.c ****     /* End of Update for Delay: '<S80>/Delay5' */
1621:HANcoder_E407_TTA_CombineModel.c **** 
1622:HANcoder_E407_TTA_CombineModel.c ****     /* Update for Delay: '<S80>/Delay7' */
1623:HANcoder_E407_TTA_CombineModel.c ****     rtDWork.Delay7_DSTATE[0] = rtDWork.Delay7_DSTATE[1];
1624:HANcoder_E407_TTA_CombineModel.c ****     rtDWork.Delay7_DSTATE[1] = rtb_DataStoreRead8;
1625:HANcoder_E407_TTA_CombineModel.c **** 
1626:HANcoder_E407_TTA_CombineModel.c ****     /* Update for UnitDelay: '<S85>/Delay Input1'
1627:HANcoder_E407_TTA_CombineModel.c ****      *
1628:HANcoder_E407_TTA_CombineModel.c ****      * Block description for '<S85>/Delay Input1':
1629:HANcoder_E407_TTA_CombineModel.c ****      *
1630:HANcoder_E407_TTA_CombineModel.c ****      *  Store in Global RAM
1631:HANcoder_E407_TTA_CombineModel.c ****      */
1632:HANcoder_E407_TTA_CombineModel.c ****     rtDWork.DelayInput1_DSTATE = 0.0;
1633:HANcoder_E407_TTA_CombineModel.c **** 
1634:HANcoder_E407_TTA_CombineModel.c ****     /* Update for M-S-Function: '<S86>/Level-2 M-file S-Function' */
1635:HANcoder_E407_TTA_CombineModel.c ****     /* update digital output */
1636:HANcoder_E407_TTA_CombineModel.c ****     if (rtB.Switch4 == 0) {
1637:HANcoder_E407_TTA_CombineModel.c ****       DigoutSet(DIGOUT_PORTE_PIN5, DIGOUT_LOW);
1638:HANcoder_E407_TTA_CombineModel.c ****     } else {
1639:HANcoder_E407_TTA_CombineModel.c ****       DigoutSet(DIGOUT_PORTE_PIN5, DIGOUT_HIGH);
1640:HANcoder_E407_TTA_CombineModel.c ****     }
1641:HANcoder_E407_TTA_CombineModel.c **** 
1642:HANcoder_E407_TTA_CombineModel.c ****     /* Update for M-S-Function: '<S87>/Level-2 M-file S-Function' */
1643:HANcoder_E407_TTA_CombineModel.c ****     /* update digital output */
1644:HANcoder_E407_TTA_CombineModel.c ****     if (rtB.Switch5 == 0) {
1645:HANcoder_E407_TTA_CombineModel.c ****       DigoutSet(DIGOUT_PORTE_PIN6, DIGOUT_LOW);
1646:HANcoder_E407_TTA_CombineModel.c ****     } else {
1647:HANcoder_E407_TTA_CombineModel.c ****       DigoutSet(DIGOUT_PORTE_PIN6, DIGOUT_HIGH);
1648:HANcoder_E407_TTA_CombineModel.c ****     }
1649:HANcoder_E407_TTA_CombineModel.c **** 
1650:HANcoder_E407_TTA_CombineModel.c ****     /* Update for M-S-Function: '<S88>/Level-2 M-file S-Function' */
1651:HANcoder_E407_TTA_CombineModel.c ****     /* update digital output */
1652:HANcoder_E407_TTA_CombineModel.c ****     if (rtB.NOT == 0) {
1653:HANcoder_E407_TTA_CombineModel.c ****       DigoutSet(DIGOUT_PORTC_PIN13, DIGOUT_LOW);
1654:HANcoder_E407_TTA_CombineModel.c ****     } else {
1655:HANcoder_E407_TTA_CombineModel.c ****       DigoutSet(DIGOUT_PORTC_PIN13, DIGOUT_HIGH);
1656:HANcoder_E407_TTA_CombineModel.c ****     }
1657:HANcoder_E407_TTA_CombineModel.c **** 
1658:HANcoder_E407_TTA_CombineModel.c ****     /* Update for M-S-Function: '<S89>/Level-2 M-file S-Function' */
1659:HANcoder_E407_TTA_CombineModel.c ****     /* set the new duty cycle */
1660:HANcoder_E407_TTA_CombineModel.c ****     PwmoutSet(PWMOUT_TIM14_PIN_PF9, rtB.Switch3);
1661:HANcoder_E407_TTA_CombineModel.c ****   }
1662:HANcoder_E407_TTA_CombineModel.c **** 
1663:HANcoder_E407_TTA_CombineModel.c ****   /* Outputs for Triggered SubSystem: '<S1>/Control execution' incorporates:
1664:HANcoder_E407_TTA_CombineModel.c ****    *  TriggerPort: '<S5>/Trigger'
1665:HANcoder_E407_TTA_CombineModel.c ****    */
1666:HANcoder_E407_TTA_CombineModel.c ****   rtPrevZCSigState.IOexecution_Trig_ZCE = rtb_OR1;
 1575              		.loc 1 1666 3 view .LVU537
 1576 00a8 A44E     		ldr	r6, .L448+16
 1577              		.loc 1 1666 41 is_stmt 0 view .LVU538
 1578 00aa 8AF80B30 		strb	r3, [r10, #11]
1667:HANcoder_E407_TTA_CombineModel.c **** 
1668:HANcoder_E407_TTA_CombineModel.c ****   /* End of Outputs for SubSystem: '<S1>/Control execution' */
1669:HANcoder_E407_TTA_CombineModel.c ****   /* End of Outputs for SubSystem: '<S1>/IO execution' */
1670:HANcoder_E407_TTA_CombineModel.c **** 
1671:HANcoder_E407_TTA_CombineModel.c ****   /* Outputs for Enabled SubSystem: '<S1>/Message selector' incorporates:
1672:HANcoder_E407_TTA_CombineModel.c ****    *  EnablePort: '<S10>/Enable'
1673:HANcoder_E407_TTA_CombineModel.c ****    *
1674:HANcoder_E407_TTA_CombineModel.c ****    * Block description for '<S1>/Message selector':
1675:HANcoder_E407_TTA_CombineModel.c ****    *  Truck 1
1676:HANcoder_E407_TTA_CombineModel.c ****    */
1677:HANcoder_E407_TTA_CombineModel.c ****   if (canActive) {
 1579              		.loc 1 1677 3 is_stmt 1 view .LVU539
 1580              		.loc 1 1677 6 is_stmt 0 view .LVU540
 1581 00ae 3378     		ldrb	r3, [r6]	@ zero_extendqisi2
 1582 00b0 002B     		cmp	r3, #0
 1583 00b2 00F03286 		beq	.L130
 1584              	.L432:
1678:HANcoder_E407_TTA_CombineModel.c ****     rtDWork.Messageselector_MODE = true;
 1585              		.loc 1 1678 5 is_stmt 1 view .LVU541
1679:HANcoder_E407_TTA_CombineModel.c **** 
1680:HANcoder_E407_TTA_CombineModel.c ****     /* RelationalOperator: '<S10>/Equal1' incorporates:
1681:HANcoder_E407_TTA_CombineModel.c ****      *  Constant: '<S10>/Constant1'
1682:HANcoder_E407_TTA_CombineModel.c ****      */
1683:HANcoder_E407_TTA_CombineModel.c ****     rtb_AND_du = (slotSelected == 2.0);
 1586              		.loc 1 1683 32 is_stmt 0 view .LVU542
 1587 00b6 A04B     		ldr	r3, .L448+12
 1588 00b8 1B78     		ldrb	r3, [r3]	@ zero_extendqisi2
 1589 00ba 07EE903A 		vmov	s15, r3	@ int
1678:HANcoder_E407_TTA_CombineModel.c ****     rtDWork.Messageselector_MODE = true;
 1590              		.loc 1 1678 34 view .LVU543
 1591 00be 0126     		movs	r6, #1
1684:HANcoder_E407_TTA_CombineModel.c **** 
1685:HANcoder_E407_TTA_CombineModel.c ****     /* Logic: '<S102>/AND16' incorporates:
1686:HANcoder_E407_TTA_CombineModel.c ****      *  Constant: '<S102>/Constant4'
1687:HANcoder_E407_TTA_CombineModel.c ****      *  DataStoreRead: '<S1>/Data Store Read1'
1688:HANcoder_E407_TTA_CombineModel.c ****      *  Delay: '<S102>/Delay'
1689:HANcoder_E407_TTA_CombineModel.c ****      *  RelationalOperator: '<S102>/Equal4'
1690:HANcoder_E407_TTA_CombineModel.c ****      */
1691:HANcoder_E407_TTA_CombineModel.c ****     rtb_OR1 = ((rtDWork.Board_ID == ((uint8_T)2U)) && rtDWork.Delay_DSTATE[0]);
 1592              		.loc 1 1691 52 view .LVU544
 1593 00c0 BBF1020F 		cmp	fp, #2
1683:HANcoder_E407_TTA_CombineModel.c **** 
 1594              		.loc 1 1683 32 view .LVU545
 1595 00c4 B8EEE77A 		vcvt.f32.s32	s14, s15
1678:HANcoder_E407_TTA_CombineModel.c **** 
 1596              		.loc 1 1678 34 view .LVU546
 1597 00c8 84F8FD60 		strb	r6, [r4, #253]
1683:HANcoder_E407_TTA_CombineModel.c **** 
 1598              		.loc 1 1683 5 is_stmt 1 view .LVU547
 1599              	.LVL96:
 1600              		.loc 1 1691 5 view .LVU548
 1601              		.loc 1 1691 52 is_stmt 0 view .LVU549
 1602 00cc 00F03987 		beq	.L417
 1603              	.LVL97:
1692:HANcoder_E407_TTA_CombineModel.c **** 
1693:HANcoder_E407_TTA_CombineModel.c ****     /* Logic: '<S10>/OR' incorporates:
1694:HANcoder_E407_TTA_CombineModel.c ****      *  Constant: '<S10>/Constant13'
1695:HANcoder_E407_TTA_CombineModel.c ****      *  DataStoreRead: '<S1>/Data Store Read1'
1696:HANcoder_E407_TTA_CombineModel.c ****      *  RelationalOperator: '<S10>/Equal11'
1697:HANcoder_E407_TTA_CombineModel.c ****      */
1698:HANcoder_E407_TTA_CombineModel.c ****     rtb_DataStoreRead11 = ((rtDWork.Board_ID == 1.0) || rtb_OR1);
 1604              		.loc 1 1698 5 is_stmt 1 discriminator 6 view .LVU550
 1605              		.loc 1 1698 46 is_stmt 0 discriminator 6 view .LVU551
 1606 00d0 07EE90BA 		vmov	s15, fp	@ int
 1607 00d4 F8EEE77A 		vcvt.f32.s32	s15, s15
 1608              		.loc 1 1698 54 discriminator 6 view .LVU552
 1609 00d8 F7EE006A 		vmov.f32	s13, #1.0e+0
 1610 00dc F4EE667A 		vcmp.f32	s15, s13
 1611 00e0 F1EE10FA 		vmrs	APSR_nzcv, FPSCR
 1612 00e4 41F0FB82 		bne	.L132
 1613              	.LVL98:
1699:HANcoder_E407_TTA_CombineModel.c **** 
1700:HANcoder_E407_TTA_CombineModel.c ****     /* Logic: '<S10>/AND3' incorporates:
1701:HANcoder_E407_TTA_CombineModel.c ****      *  Logic: '<S10>/NOT1'
1702:HANcoder_E407_TTA_CombineModel.c ****      */
1703:HANcoder_E407_TTA_CombineModel.c ****     rtb_AND3 = (rtb_AND_du && (!rtb_DataStoreRead11));
1704:HANcoder_E407_TTA_CombineModel.c **** 
1705:HANcoder_E407_TTA_CombineModel.c ****     /* Outputs for Enabled SubSystem: '<S10>/MMBS1_RX' incorporates:
1706:HANcoder_E407_TTA_CombineModel.c ****      *  EnablePort: '<S103>/Enable'
1707:HANcoder_E407_TTA_CombineModel.c ****      */
1708:HANcoder_E407_TTA_CombineModel.c ****     if (rtb_AND3) {
 1614              		.loc 1 1708 5 is_stmt 1 view .LVU553
1709:HANcoder_E407_TTA_CombineModel.c ****       rtDWork.MMBS1_RX_MODE = true;
1710:HANcoder_E407_TTA_CombineModel.c **** 
1711:HANcoder_E407_TTA_CombineModel.c ****       /* DataStoreRead: '<S103>/Data Store Read1' */
1712:HANcoder_E407_TTA_CombineModel.c ****       missedMasterMessages = rtDWork.missedMessages;
1713:HANcoder_E407_TTA_CombineModel.c **** 
1714:HANcoder_E407_TTA_CombineModel.c ****       /* RelationalOperator: '<S103>/GreaterThan' incorporates:
1715:HANcoder_E407_TTA_CombineModel.c ****        *  Constant: '<S103>/Constant1'
1716:HANcoder_E407_TTA_CombineModel.c ****        */
1717:HANcoder_E407_TTA_CombineModel.c ****       masterCanFail = (missedMasterMessages > maxMissedMessages);
1718:HANcoder_E407_TTA_CombineModel.c **** 
1719:HANcoder_E407_TTA_CombineModel.c ****       /* Memory: '<S122>/Memory' */
1720:HANcoder_E407_TTA_CombineModel.c ****       rtb_Memory_m = rtDWork.Memory_PreviousInput;
1721:HANcoder_E407_TTA_CombineModel.c **** 
1722:HANcoder_E407_TTA_CombineModel.c ****       /* CombinatorialLogic: '<S122>/Logic' incorporates:
1723:HANcoder_E407_TTA_CombineModel.c ****        *  Constant: '<S103>/Constant3'
1724:HANcoder_E407_TTA_CombineModel.c ****        *  DataStoreRead: '<S103>/Data Store Read2'
1725:HANcoder_E407_TTA_CombineModel.c ****        *  RelationalOperator: '<S103>/GreaterThan1'
1726:HANcoder_E407_TTA_CombineModel.c ****        */
1727:HANcoder_E407_TTA_CombineModel.c ****       rtb_DataStoreRead7 = (int32_T)(((((uint32_T)(rtDWork.initCounter >
1728:HANcoder_E407_TTA_CombineModel.c ****         ((uint8_T)100U)) << 1) + false) << 1) + rtb_Memory_m);
1729:HANcoder_E407_TTA_CombineModel.c ****       rtb_Logic[0U] = rtConstP.pooled23[(uint32_T)rtb_DataStoreRead7];
1730:HANcoder_E407_TTA_CombineModel.c ****       rtb_Logic[1U] = rtConstP.pooled23[(uint32_T)rtb_DataStoreRead7 + 8U];
1731:HANcoder_E407_TTA_CombineModel.c **** 
1732:HANcoder_E407_TTA_CombineModel.c ****       /* Logic: '<S103>/AND' incorporates:
1733:HANcoder_E407_TTA_CombineModel.c ****        *  DataStoreWrite: '<S103>/Data Store Write'
1734:HANcoder_E407_TTA_CombineModel.c ****        */
1735:HANcoder_E407_TTA_CombineModel.c ****       rtDWork.node1CanFailed = (masterCanFail && rtb_Logic[0]);
1736:HANcoder_E407_TTA_CombineModel.c **** 
1737:HANcoder_E407_TTA_CombineModel.c ****       /* DataStoreWrite: '<S103>/Data Store Write1' incorporates:
1738:HANcoder_E407_TTA_CombineModel.c ****        *  Constant: '<S103>/Constant2'
1739:HANcoder_E407_TTA_CombineModel.c ****        *  DataStoreRead: '<S103>/Data Store Read2'
1740:HANcoder_E407_TTA_CombineModel.c ****        *  Sum: '<S103>/Add'
1741:HANcoder_E407_TTA_CombineModel.c ****        */
1742:HANcoder_E407_TTA_CombineModel.c ****       rtDWork.initCounter = (uint8_T)((uint32_T)rtDWork.initCounter + ((uint8_T)
1743:HANcoder_E407_TTA_CombineModel.c ****         1U));
1744:HANcoder_E407_TTA_CombineModel.c **** 
1745:HANcoder_E407_TTA_CombineModel.c ****       /* M-S-Function: '<S119>/S-Function' incorporates:
1746:HANcoder_E407_TTA_CombineModel.c ****        *  Constant: '<S10>/Constant12'
1747:HANcoder_E407_TTA_CombineModel.c ****        */
1748:HANcoder_E407_TTA_CombineModel.c **** 
1749:HANcoder_E407_TTA_CombineModel.c ****       /* read the message data and store the new parameter */
1750:HANcoder_E407_TTA_CombineModel.c ****       rtb_SFunction_o1_g = CanIoGetMessage(0, MMBS1_ID, NULL,
1751:HANcoder_E407_TTA_CombineModel.c ****         &canRxData_0_MMBS1_ID.uint8_T_info[0], NULL);
1752:HANcoder_E407_TTA_CombineModel.c **** 
1753:HANcoder_E407_TTA_CombineModel.c ****       /* process the message data */
1754:HANcoder_E407_TTA_CombineModel.c ****       if (rtb_SFunction_o1_g > 0) {
1755:HANcoder_E407_TTA_CombineModel.c ****         /* read the data */
1756:HANcoder_E407_TTA_CombineModel.c ****         rtb_SFunction_o2_n2 = canRxData_0_MMBS1_ID.uint8_T_info[0];
1757:HANcoder_E407_TTA_CombineModel.c ****         rtb_SFunction_o3_b = canRxData_0_MMBS1_ID.uint8_T_info[1];
1758:HANcoder_E407_TTA_CombineModel.c ****         rtb_SFunction_o4_l = canRxData_0_MMBS1_ID.uint8_T_info[2];
1759:HANcoder_E407_TTA_CombineModel.c ****         rtb_SFunction_o5_e = canRxData_0_MMBS1_ID.uint8_T_info[3];
1760:HANcoder_E407_TTA_CombineModel.c ****         rtb_SFunction_o6_k1 = canRxData_0_MMBS1_ID.uint8_T_info[4];
1761:HANcoder_E407_TTA_CombineModel.c ****         rtb_SFunction_o7_dj = canRxData_0_MMBS1_ID.uint8_T_info[5];
1762:HANcoder_E407_TTA_CombineModel.c ****         rtb_SFunction_o8_n1 = canRxData_0_MMBS1_ID.uint8_T_info[6];
1763:HANcoder_E407_TTA_CombineModel.c ****         rtb_SFunction_o9_ok = canRxData_0_MMBS1_ID.uint8_T_info[7];
1764:HANcoder_E407_TTA_CombineModel.c ****       }
1765:HANcoder_E407_TTA_CombineModel.c **** 
1766:HANcoder_E407_TTA_CombineModel.c ****       /* Outputs for Enabled SubSystem: '<S119>/Enabled Subsystem' */
1767:HANcoder_E407_TTA_CombineModel.c ****       EnabledSubsystem(rtb_SFunction_o1_g, rtb_SFunction_o2_n2,
1768:HANcoder_E407_TTA_CombineModel.c ****                        rtb_SFunction_o3_b, rtb_SFunction_o4_l,
1769:HANcoder_E407_TTA_CombineModel.c ****                        rtb_SFunction_o5_e, rtb_SFunction_o6_k1,
1770:HANcoder_E407_TTA_CombineModel.c ****                        rtb_SFunction_o7_dj, rtb_SFunction_o8_n1,
1771:HANcoder_E407_TTA_CombineModel.c ****                        rtb_SFunction_o9_ok, &rtB.EnabledSubsystem_k);
1772:HANcoder_E407_TTA_CombineModel.c **** 
1773:HANcoder_E407_TTA_CombineModel.c ****       /* End of Outputs for SubSystem: '<S119>/Enabled Subsystem' */
1774:HANcoder_E407_TTA_CombineModel.c **** 
1775:HANcoder_E407_TTA_CombineModel.c ****       /* Outputs for Enabled SubSystem: '<S103>/Enabled Subsystem' incorporates:
1776:HANcoder_E407_TTA_CombineModel.c ****        *  EnablePort: '<S120>/Enable'
1777:HANcoder_E407_TTA_CombineModel.c ****        */
1778:HANcoder_E407_TTA_CombineModel.c ****       /* Logic: '<S103>/NOT' incorporates:
1779:HANcoder_E407_TTA_CombineModel.c ****        *  Constant: '<S103>/Constant'
1780:HANcoder_E407_TTA_CombineModel.c ****        *  DataStoreRead: '<S103>/Data Store Read'
1781:HANcoder_E407_TTA_CombineModel.c ****        *  RelationalOperator: '<S103>/Equal'
1782:HANcoder_E407_TTA_CombineModel.c ****        */
1783:HANcoder_E407_TTA_CombineModel.c ****       if (rtDWork.receiveSync != true) {
1784:HANcoder_E407_TTA_CombineModel.c ****         /* DataStoreWrite: '<S120>/Data Store Write' incorporates:
1785:HANcoder_E407_TTA_CombineModel.c ****          *  Constant: '<S120>/Constant'
1786:HANcoder_E407_TTA_CombineModel.c ****          *  DataStoreRead: '<S120>/Data Store Read'
1787:HANcoder_E407_TTA_CombineModel.c ****          *  Sum: '<S120>/Add'
1788:HANcoder_E407_TTA_CombineModel.c ****          */
1789:HANcoder_E407_TTA_CombineModel.c ****         rtDWork.missedMessages = (uint8_T)((uint32_T)rtDWork.missedMessages +
1790:HANcoder_E407_TTA_CombineModel.c ****           ((uint8_T)1U));
1791:HANcoder_E407_TTA_CombineModel.c ****       } else {
1792:HANcoder_E407_TTA_CombineModel.c ****         /* Outputs for Enabled SubSystem: '<S103>/Enabled Subsystem1' incorporates:
1793:HANcoder_E407_TTA_CombineModel.c ****          *  EnablePort: '<S121>/Enable'
1794:HANcoder_E407_TTA_CombineModel.c ****          */
1795:HANcoder_E407_TTA_CombineModel.c ****         /* DataStoreWrite: '<S121>/Data Store Write' incorporates:
1796:HANcoder_E407_TTA_CombineModel.c ****          *  Constant: '<S121>/Constant'
1797:HANcoder_E407_TTA_CombineModel.c ****          */
1798:HANcoder_E407_TTA_CombineModel.c ****         rtDWork.missedMessages = ((uint8_T)0U);
1799:HANcoder_E407_TTA_CombineModel.c **** 
1800:HANcoder_E407_TTA_CombineModel.c ****         /* End of Outputs for SubSystem: '<S103>/Enabled Subsystem1' */
1801:HANcoder_E407_TTA_CombineModel.c ****       }
1802:HANcoder_E407_TTA_CombineModel.c **** 
1803:HANcoder_E407_TTA_CombineModel.c ****       /* End of Logic: '<S103>/NOT' */
1804:HANcoder_E407_TTA_CombineModel.c ****       /* End of Outputs for SubSystem: '<S103>/Enabled Subsystem' */
1805:HANcoder_E407_TTA_CombineModel.c ****     } else if (rtDWork.MMBS1_RX_MODE) {
 1615              		.loc 1 1805 12 view .LVU554
 1616              		.loc 1 1805 23 is_stmt 0 view .LVU555
 1617 00e8 94F80561 		ldrb	r6, [r4, #261]	@ zero_extendqisi2
 1618              		.loc 1 1805 15 view .LVU556
 1619 00ec 002E     		cmp	r6, #0
 1620 00ee 40F05D87 		bne	.L139
 1621              	.LVL99:
1806:HANcoder_E407_TTA_CombineModel.c ****       rtDWork.MMBS1_RX_MODE = false;
1807:HANcoder_E407_TTA_CombineModel.c ****     }
1808:HANcoder_E407_TTA_CombineModel.c **** 
1809:HANcoder_E407_TTA_CombineModel.c ****     /* End of Outputs for SubSystem: '<S10>/MMBS1_RX' */
1810:HANcoder_E407_TTA_CombineModel.c **** 
1811:HANcoder_E407_TTA_CombineModel.c ****     /* Logic: '<S10>/AND2' */
1812:HANcoder_E407_TTA_CombineModel.c ****     rtb_AND_du = (rtb_AND_du && rtb_DataStoreRead11);
 1622              		.loc 1 1812 5 is_stmt 1 view .LVU557
 1623              		.loc 1 1812 30 is_stmt 0 view .LVU558
 1624 00f2 F0EE007A 		vmov.f32	s15, #2.0e+0
 1625 00f6 B4EE677A 		vcmp.f32	s14, s15
 1626 00fa F1EE10FA 		vmrs	APSR_nzcv, FPSCR
 1627 00fe 00F05F87 		beq	.L138
 1628              	.LVL100:
1813:HANcoder_E407_TTA_CombineModel.c **** 
1814:HANcoder_E407_TTA_CombineModel.c ****     /* Outputs for Triggered SubSystem: '<S10>/MMBS1_TX' incorporates:
1815:HANcoder_E407_TTA_CombineModel.c ****      *  TriggerPort: '<S104>/Trigger'
1816:HANcoder_E407_TTA_CombineModel.c ****      */
1817:HANcoder_E407_TTA_CombineModel.c ****     if (rtb_AND_du && (rtPrevZCSigState.MMBS1_TX_Trig_ZCE != POS_ZCSIG)) {
 1629              		.loc 1 1817 5 is_stmt 1 view .LVU559
1818:HANcoder_E407_TTA_CombineModel.c ****       /* DataStoreRead: '<S104>/Data Store Read' */
1819:HANcoder_E407_TTA_CombineModel.c ****       rtB.DataStoreRead_i = rtDWork.Board_ID;
1820:HANcoder_E407_TTA_CombineModel.c **** 
1821:HANcoder_E407_TTA_CombineModel.c ****       /* DataStoreRead: '<S104>/Data Store Read1' */
1822:HANcoder_E407_TTA_CombineModel.c ****       rtB.DataStoreRead1 = rtDWork.amountOfTrailers;
1823:HANcoder_E407_TTA_CombineModel.c **** 
1824:HANcoder_E407_TTA_CombineModel.c ****       /* Update for M-S-Function: '<S124>/S-Function' incorporates:
1825:HANcoder_E407_TTA_CombineModel.c ****        *  Constant: '<S10>/Constant12'
1826:HANcoder_E407_TTA_CombineModel.c ****        */
1827:HANcoder_E407_TTA_CombineModel.c ****       {
1828:HANcoder_E407_TTA_CombineModel.c ****         /* prepare the data */
1829:HANcoder_E407_TTA_CombineModel.c ****         canTxData.uint8_T_info[0] = rtB.DataStoreRead_i;
1830:HANcoder_E407_TTA_CombineModel.c ****         canTxData.uint8_T_info[1] = rtB.DataStoreRead1;
1831:HANcoder_E407_TTA_CombineModel.c **** 
1832:HANcoder_E407_TTA_CombineModel.c ****         /* send the data */
1833:HANcoder_E407_TTA_CombineModel.c ****         CanTransmit(0, MMBS1_ID, 2, &canTxData.uint8_T_info[0]);
1834:HANcoder_E407_TTA_CombineModel.c ****       }
1835:HANcoder_E407_TTA_CombineModel.c ****     }
1836:HANcoder_E407_TTA_CombineModel.c **** 
1837:HANcoder_E407_TTA_CombineModel.c ****     rtPrevZCSigState.MMBS1_TX_Trig_ZCE = rtb_AND_du;
 1630              		.loc 1 1837 5 view .LVU560
 1631              		.loc 1 1837 40 is_stmt 0 view .LVU561
 1632 0102 8AF80A60 		strb	r6, [r10, #10]
1838:HANcoder_E407_TTA_CombineModel.c **** 
1839:HANcoder_E407_TTA_CombineModel.c ****     /* End of Outputs for SubSystem: '<S10>/MMBS1_TX' */
1840:HANcoder_E407_TTA_CombineModel.c **** 
1841:HANcoder_E407_TTA_CombineModel.c ****     /* RelationalOperator: '<S10>/Equal2' incorporates:
1842:HANcoder_E407_TTA_CombineModel.c ****      *  Constant: '<S10>/Constant2'
1843:HANcoder_E407_TTA_CombineModel.c ****      */
1844:HANcoder_E407_TTA_CombineModel.c ****     rtb_AND_du = (slotSelected == 3.0);
 1633              		.loc 1 1844 5 is_stmt 1 view .LVU562
 1634              	.LVL101:
1845:HANcoder_E407_TTA_CombineModel.c **** 
1846:HANcoder_E407_TTA_CombineModel.c ****     /* Logic: '<S10>/OR2' incorporates:
1847:HANcoder_E407_TTA_CombineModel.c ****      *  Constant: '<S10>/Constant15'
1848:HANcoder_E407_TTA_CombineModel.c ****      *  DataStoreRead: '<S1>/Data Store Read1'
1849:HANcoder_E407_TTA_CombineModel.c ****      *  RelationalOperator: '<S10>/Equal12'
1850:HANcoder_E407_TTA_CombineModel.c ****      */
1851:HANcoder_E407_TTA_CombineModel.c ****     rtb_DataStoreRead11 = ((rtDWork.Board_ID == 1.0) || rtb_OR1);
 1635              		.loc 1 1851 5 view .LVU563
 1636              	.L145:
1852:HANcoder_E407_TTA_CombineModel.c **** 
1853:HANcoder_E407_TTA_CombineModel.c ****     /* Logic: '<S10>/AND5' incorporates:
1854:HANcoder_E407_TTA_CombineModel.c ****      *  Logic: '<S10>/NOT2'
1855:HANcoder_E407_TTA_CombineModel.c ****      */
1856:HANcoder_E407_TTA_CombineModel.c ****     rtb_AND5 = (rtb_AND_du && (!rtb_DataStoreRead11));
1857:HANcoder_E407_TTA_CombineModel.c **** 
1858:HANcoder_E407_TTA_CombineModel.c ****     /* Outputs for Enabled SubSystem: '<S10>/SSTM1_RX' incorporates:
1859:HANcoder_E407_TTA_CombineModel.c ****      *  EnablePort: '<S105>/Enable'
1860:HANcoder_E407_TTA_CombineModel.c ****      */
1861:HANcoder_E407_TTA_CombineModel.c ****     if (rtb_AND5) {
 1637              		.loc 1 1861 5 view .LVU564
1862:HANcoder_E407_TTA_CombineModel.c ****       rtDWork.SSTM1_RX_MODE = true;
1863:HANcoder_E407_TTA_CombineModel.c **** 
1864:HANcoder_E407_TTA_CombineModel.c ****       /* M-S-Function: '<S125>/S-Function' incorporates:
1865:HANcoder_E407_TTA_CombineModel.c ****        *  Constant: '<S10>/Constant14'
1866:HANcoder_E407_TTA_CombineModel.c ****        */
1867:HANcoder_E407_TTA_CombineModel.c **** 
1868:HANcoder_E407_TTA_CombineModel.c ****       /* read the message data and store the new parameter */
1869:HANcoder_E407_TTA_CombineModel.c ****       rtb_SFunction_o1_b = CanIoGetMessage(0, SSTM1_ID, NULL,
1870:HANcoder_E407_TTA_CombineModel.c ****         &canRxData_0_SSTM1_ID.uint8_T_info[0], NULL);
1871:HANcoder_E407_TTA_CombineModel.c **** 
1872:HANcoder_E407_TTA_CombineModel.c ****       /* process the message data */
1873:HANcoder_E407_TTA_CombineModel.c ****       if (rtb_SFunction_o1_b > 0) {
1874:HANcoder_E407_TTA_CombineModel.c ****         /* read the data */
1875:HANcoder_E407_TTA_CombineModel.c ****         rtb_SFunction_o2_c = canRxData_0_SSTM1_ID.uint8_T_info[0];
1876:HANcoder_E407_TTA_CombineModel.c ****         rtb_SFunction_o3_f = canRxData_0_SSTM1_ID.uint8_T_info[1];
1877:HANcoder_E407_TTA_CombineModel.c ****         rtb_SFunction_o4_k = canRxData_0_SSTM1_ID.uint8_T_info[2];
1878:HANcoder_E407_TTA_CombineModel.c ****         rtb_SFunction_o5_h = canRxData_0_SSTM1_ID.uint8_T_info[3];
1879:HANcoder_E407_TTA_CombineModel.c ****         rtb_SFunction_o6_k = canRxData_0_SSTM1_ID.uint8_T_info[4];
1880:HANcoder_E407_TTA_CombineModel.c ****         rtb_SFunction_o7_e = canRxData_0_SSTM1_ID.uint8_T_info[5];
1881:HANcoder_E407_TTA_CombineModel.c ****         rtb_SFunction_o8_pe = canRxData_0_SSTM1_ID.uint8_T_info[6];
1882:HANcoder_E407_TTA_CombineModel.c ****         rtb_SFunction_o9_f = canRxData_0_SSTM1_ID.uint8_T_info[7];
1883:HANcoder_E407_TTA_CombineModel.c ****       }
1884:HANcoder_E407_TTA_CombineModel.c **** 
1885:HANcoder_E407_TTA_CombineModel.c ****       /* Outputs for Enabled SubSystem: '<S125>/Enabled Subsystem' */
1886:HANcoder_E407_TTA_CombineModel.c ****       EnabledSubsystem(rtb_SFunction_o1_b, rtb_SFunction_o2_c,
1887:HANcoder_E407_TTA_CombineModel.c ****                        rtb_SFunction_o3_f, rtb_SFunction_o4_k,
1888:HANcoder_E407_TTA_CombineModel.c ****                        rtb_SFunction_o5_h, rtb_SFunction_o6_k,
1889:HANcoder_E407_TTA_CombineModel.c ****                        rtb_SFunction_o7_e, rtb_SFunction_o8_pe,
1890:HANcoder_E407_TTA_CombineModel.c ****                        rtb_SFunction_o9_f, &rtB.EnabledSubsystem_h);
1891:HANcoder_E407_TTA_CombineModel.c **** 
1892:HANcoder_E407_TTA_CombineModel.c ****       /* End of Outputs for SubSystem: '<S125>/Enabled Subsystem' */
1893:HANcoder_E407_TTA_CombineModel.c ****     } else if (rtDWork.SSTM1_RX_MODE) {
 1638              		.loc 1 1893 12 view .LVU565
 1639              		.loc 1 1893 15 is_stmt 0 view .LVU566
 1640 0106 94F80421 		ldrb	r2, [r4, #260]	@ zero_extendqisi2
1894:HANcoder_E407_TTA_CombineModel.c ****       rtDWork.SSTM1_RX_MODE = false;
1895:HANcoder_E407_TTA_CombineModel.c ****     }
1896:HANcoder_E407_TTA_CombineModel.c **** 
1897:HANcoder_E407_TTA_CombineModel.c ****     /* End of Outputs for SubSystem: '<S10>/SSTM1_RX' */
1898:HANcoder_E407_TTA_CombineModel.c **** 
1899:HANcoder_E407_TTA_CombineModel.c ****     /* Logic: '<S10>/AND4' */
1900:HANcoder_E407_TTA_CombineModel.c ****     rtb_AND_du = (rtb_AND_du && rtb_DataStoreRead11);
 1641              		.loc 1 1900 30 view .LVU567
 1642 010a F0EE087A 		vmov.f32	s15, #3.0e+0
1893:HANcoder_E407_TTA_CombineModel.c ****       rtDWork.SSTM1_RX_MODE = false;
 1643              		.loc 1 1893 15 view .LVU568
 1644 010e 12B1     		cbz	r2, .L412
1894:HANcoder_E407_TTA_CombineModel.c ****       rtDWork.SSTM1_RX_MODE = false;
 1645              		.loc 1 1894 7 is_stmt 1 view .LVU569
1894:HANcoder_E407_TTA_CombineModel.c ****       rtDWork.SSTM1_RX_MODE = false;
 1646              		.loc 1 1894 29 is_stmt 0 view .LVU570
 1647 0110 0022     		movs	r2, #0
 1648 0112 84F80421 		strb	r2, [r4, #260]
 1649              	.L412:
 1650              		.loc 1 1900 5 is_stmt 1 view .LVU571
 1651              		.loc 1 1900 30 is_stmt 0 view .LVU572
 1652 0116 B4EE677A 		vcmp.f32	s14, s15
 1653 011a F1EE10FA 		vmrs	APSR_nzcv, FPSCR
 1654 011e 40F07087 		bne	.L151
 1655              	.LVL102:
 1656              	.L149:
1901:HANcoder_E407_TTA_CombineModel.c **** 
1902:HANcoder_E407_TTA_CombineModel.c ****     /* Outputs for Triggered SubSystem: '<S10>/SSTM1_TX' incorporates:
1903:HANcoder_E407_TTA_CombineModel.c ****      *  TriggerPort: '<S106>/Trigger'
1904:HANcoder_E407_TTA_CombineModel.c ****      */
1905:HANcoder_E407_TTA_CombineModel.c ****     if (rtb_AND_du && (rtPrevZCSigState.SSTM1_TX_Trig_ZCE != POS_ZCSIG)) {
 1657              		.loc 1 1905 5 is_stmt 1 view .LVU573
 1658              		.loc 1 1905 40 is_stmt 0 view .LVU574
 1659 0122 9AF80920 		ldrb	r2, [r10, #9]	@ zero_extendqisi2
 1660              		.loc 1 1905 20 view .LVU575
 1661 0126 012A     		cmp	r2, #1
 1662 0128 0CD0     		beq	.L240
1906:HANcoder_E407_TTA_CombineModel.c ****       /* Update for M-S-Function: '<S127>/S-Function' incorporates:
1907:HANcoder_E407_TTA_CombineModel.c ****        *  Constant: '<S10>/Constant14'
1908:HANcoder_E407_TTA_CombineModel.c ****        */
1909:HANcoder_E407_TTA_CombineModel.c ****       {
1910:HANcoder_E407_TTA_CombineModel.c ****         /* prepare the data */
1911:HANcoder_E407_TTA_CombineModel.c ****         canTxData.uint8_T_info[0] = 0U;
 1663              		.loc 1 1911 9 is_stmt 1 view .LVU576
 1664              		.loc 1 1911 35 is_stmt 0 view .LVU577
 1665 012a 854B     		ldr	r3, .L448+20
1912:HANcoder_E407_TTA_CombineModel.c **** 
1913:HANcoder_E407_TTA_CombineModel.c ****         /* send the data */
1914:HANcoder_E407_TTA_CombineModel.c ****         CanTransmit(0, SSTM1_ID, 1, &canTxData.uint8_T_info[0]);
 1666              		.loc 1 1914 9 view .LVU578
 1667 012c 854A     		ldr	r2, .L448+24
1911:HANcoder_E407_TTA_CombineModel.c **** 
 1668              		.loc 1 1911 35 view .LVU579
 1669 012e 0020     		movs	r0, #0
 1670              		.loc 1 1914 9 view .LVU580
 1671 0130 1168     		ldr	r1, [r2]
1911:HANcoder_E407_TTA_CombineModel.c **** 
 1672              		.loc 1 1911 35 view .LVU581
 1673 0132 1870     		strb	r0, [r3]
 1674              		.loc 1 1914 9 is_stmt 1 view .LVU582
 1675 0134 0122     		movs	r2, #1
 1676 0136 FFF7FEFF 		bl	CanTransmit
 1677              	.LVL103:
1915:HANcoder_E407_TTA_CombineModel.c ****       }
1916:HANcoder_E407_TTA_CombineModel.c ****     }
1917:HANcoder_E407_TTA_CombineModel.c **** 
1918:HANcoder_E407_TTA_CombineModel.c ****     rtPrevZCSigState.SSTM1_TX_Trig_ZCE = rtb_AND_du;
1919:HANcoder_E407_TTA_CombineModel.c **** 
1920:HANcoder_E407_TTA_CombineModel.c ****     /* End of Outputs for SubSystem: '<S10>/SSTM1_TX' */
1921:HANcoder_E407_TTA_CombineModel.c **** 
1922:HANcoder_E407_TTA_CombineModel.c ****     /* RelationalOperator: '<S10>/Equal' incorporates:
1923:HANcoder_E407_TTA_CombineModel.c ****      *  Constant: '<S10>/Constant'
1924:HANcoder_E407_TTA_CombineModel.c ****      */
1925:HANcoder_E407_TTA_CombineModel.c ****     rtb_AND_du = (slotSelected == ((uint8_T)1U));
 1678              		.loc 1 1925 32 is_stmt 0 view .LVU583
 1679 013a 7F4B     		ldr	r3, .L448+12
1926:HANcoder_E407_TTA_CombineModel.c **** 
1927:HANcoder_E407_TTA_CombineModel.c ****     /* Logic: '<S10>/OR1' incorporates:
1928:HANcoder_E407_TTA_CombineModel.c ****      *  Constant: '<S10>/Constant11'
1929:HANcoder_E407_TTA_CombineModel.c ****      *  DataStoreRead: '<S1>/Data Store Read1'
1930:HANcoder_E407_TTA_CombineModel.c ****      *  RelationalOperator: '<S10>/Equal10'
1931:HANcoder_E407_TTA_CombineModel.c ****      */
1932:HANcoder_E407_TTA_CombineModel.c ****     rtb_OR1 = ((rtDWork.Board_ID == ((uint8_T)1U)) || rtb_OR1);
 1680              		.loc 1 1932 24 view .LVU584
 1681 013c 94F8DEB0 		ldrb	fp, [r4, #222]	@ zero_extendqisi2
1925:HANcoder_E407_TTA_CombineModel.c **** 
 1682              		.loc 1 1925 32 view .LVU585
 1683 0140 1B78     		ldrb	r3, [r3]	@ zero_extendqisi2
1900:HANcoder_E407_TTA_CombineModel.c **** 
 1684              		.loc 1 1900 16 view .LVU586
 1685 0142 0122     		movs	r2, #1
 1686              	.L240:
 1687              	.LVL104:
1918:HANcoder_E407_TTA_CombineModel.c **** 
 1688              		.loc 1 1918 5 is_stmt 1 view .LVU587
 1689              		.loc 1 1932 52 is_stmt 0 view .LVU588
 1690 0144 BBF1010F 		cmp	fp, #1
1918:HANcoder_E407_TTA_CombineModel.c **** 
 1691              		.loc 1 1918 40 view .LVU589
 1692 0148 8AF80920 		strb	r2, [r10, #9]
1925:HANcoder_E407_TTA_CombineModel.c **** 
 1693              		.loc 1 1925 5 is_stmt 1 view .LVU590
 1694              	.LVL105:
 1695              		.loc 1 1932 5 view .LVU591
 1696              		.loc 1 1932 52 is_stmt 0 view .LVU592
 1697 014c 00F06087 		beq	.L153
 1698              	.LVL106:
 1699              	.L439:
1933:HANcoder_E407_TTA_CombineModel.c **** 
1934:HANcoder_E407_TTA_CombineModel.c ****     /* Logic: '<S10>/AND1' incorporates:
1935:HANcoder_E407_TTA_CombineModel.c ****      *  Logic: '<S10>/NOT'
1936:HANcoder_E407_TTA_CombineModel.c ****      */
1937:HANcoder_E407_TTA_CombineModel.c ****     rtb_AND1_k = (rtb_AND_du && (!rtb_OR1));
 1700              		.loc 1 1937 5 is_stmt 1 discriminator 6 view .LVU593
 1701              		.loc 1 1937 30 is_stmt 0 discriminator 6 view .LVU594
 1702 0150 012B     		cmp	r3, #1
 1703 0152 01F09483 		beq	.L418
 1704              	.LVL107:
1938:HANcoder_E407_TTA_CombineModel.c **** 
1939:HANcoder_E407_TTA_CombineModel.c ****     /* Outputs for Enabled SubSystem: '<S10>/SYNC1_RX' incorporates:
1940:HANcoder_E407_TTA_CombineModel.c ****      *  EnablePort: '<S107>/Enable'
1941:HANcoder_E407_TTA_CombineModel.c ****      */
1942:HANcoder_E407_TTA_CombineModel.c ****     if (rtb_AND1_k) {
 1705              		.loc 1 1942 5 is_stmt 1 discriminator 4 view .LVU595
1943:HANcoder_E407_TTA_CombineModel.c ****       rtDWork.SYNC1_RX_MODE = true;
1944:HANcoder_E407_TTA_CombineModel.c **** 
1945:HANcoder_E407_TTA_CombineModel.c ****       /* M-S-Function: '<S128>/S-Function' incorporates:
1946:HANcoder_E407_TTA_CombineModel.c ****        *  Constant: '<S10>/Constant10'
1947:HANcoder_E407_TTA_CombineModel.c ****        */
1948:HANcoder_E407_TTA_CombineModel.c **** 
1949:HANcoder_E407_TTA_CombineModel.c ****       /* read the message data and store the new parameter */
1950:HANcoder_E407_TTA_CombineModel.c ****       rtb_SFunction_o1_h = CanIoGetMessage(0, SYNC1_ID, NULL,
1951:HANcoder_E407_TTA_CombineModel.c ****         &canRxData_0_SYNC1_ID.uint8_T_info[0], NULL);
1952:HANcoder_E407_TTA_CombineModel.c **** 
1953:HANcoder_E407_TTA_CombineModel.c ****       /* process the message data */
1954:HANcoder_E407_TTA_CombineModel.c ****       if (rtb_SFunction_o1_h > 0) {
1955:HANcoder_E407_TTA_CombineModel.c ****         /* read the data */
1956:HANcoder_E407_TTA_CombineModel.c ****         rtb_SFunction_o2_ib = canRxData_0_SYNC1_ID.uint8_T_info[0];
1957:HANcoder_E407_TTA_CombineModel.c ****         rtb_SFunction_o3_g = canRxData_0_SYNC1_ID.uint8_T_info[1];
1958:HANcoder_E407_TTA_CombineModel.c ****         rtb_SFunction_o4_j = canRxData_0_SYNC1_ID.uint8_T_info[2];
1959:HANcoder_E407_TTA_CombineModel.c ****         rtb_SFunction_o5_f = canRxData_0_SYNC1_ID.uint8_T_info[3];
1960:HANcoder_E407_TTA_CombineModel.c ****         rtb_SFunction_o6_gy = canRxData_0_SYNC1_ID.uint8_T_info[4];
1961:HANcoder_E407_TTA_CombineModel.c ****         rtb_SFunction_o7_k = canRxData_0_SYNC1_ID.uint8_T_info[5];
1962:HANcoder_E407_TTA_CombineModel.c ****         rtb_SFunction_o8_n = canRxData_0_SYNC1_ID.uint8_T_info[6];
1963:HANcoder_E407_TTA_CombineModel.c ****         rtb_SFunction_o9_b1 = canRxData_0_SYNC1_ID.uint8_T_info[7];
1964:HANcoder_E407_TTA_CombineModel.c ****       }
1965:HANcoder_E407_TTA_CombineModel.c **** 
1966:HANcoder_E407_TTA_CombineModel.c ****       /* Outputs for Enabled SubSystem: '<S128>/Enabled Subsystem' */
1967:HANcoder_E407_TTA_CombineModel.c ****       EnabledSubsystem(rtb_SFunction_o1_h, rtb_SFunction_o2_ib,
1968:HANcoder_E407_TTA_CombineModel.c ****                        rtb_SFunction_o3_g, rtb_SFunction_o4_j,
1969:HANcoder_E407_TTA_CombineModel.c ****                        rtb_SFunction_o5_f, rtb_SFunction_o6_gy,
1970:HANcoder_E407_TTA_CombineModel.c ****                        rtb_SFunction_o7_k, rtb_SFunction_o8_n,
1971:HANcoder_E407_TTA_CombineModel.c ****                        rtb_SFunction_o9_b1, &rtB.EnabledSubsystem_c);
1972:HANcoder_E407_TTA_CombineModel.c **** 
1973:HANcoder_E407_TTA_CombineModel.c ****       /* End of Outputs for SubSystem: '<S128>/Enabled Subsystem' */
1974:HANcoder_E407_TTA_CombineModel.c **** 
1975:HANcoder_E407_TTA_CombineModel.c ****       /* Outputs for Triggered SubSystem: '<S107>/Subsystem' incorporates:
1976:HANcoder_E407_TTA_CombineModel.c ****        *  TriggerPort: '<S129>/Trigger'
1977:HANcoder_E407_TTA_CombineModel.c ****        */
1978:HANcoder_E407_TTA_CombineModel.c ****       zcEvent = rt_I32ZCFcn(RISING_ZERO_CROSSING,
1979:HANcoder_E407_TTA_CombineModel.c ****                             &rtPrevZCSigState.Subsystem_Trig_ZCE_h,
1980:HANcoder_E407_TTA_CombineModel.c ****                             (rtb_SFunction_o1_h));
1981:HANcoder_E407_TTA_CombineModel.c ****       if (zcEvent != NO_ZCEVENT) {
1982:HANcoder_E407_TTA_CombineModel.c ****         /* DataStoreWrite: '<S129>/Data Store Write' */
1983:HANcoder_E407_TTA_CombineModel.c ****         rtDWork.SlotTime = rtB.EnabledSubsystem_c.In1;
1984:HANcoder_E407_TTA_CombineModel.c **** 
1985:HANcoder_E407_TTA_CombineModel.c ****         /* DataStoreWrite: '<S129>/Data Store Write1' incorporates:
1986:HANcoder_E407_TTA_CombineModel.c ****          *  Constant: '<S129>/Constant'
1987:HANcoder_E407_TTA_CombineModel.c ****          */
1988:HANcoder_E407_TTA_CombineModel.c ****         rtDWork.Local_Ticks = ((uint8_T)1U);
1989:HANcoder_E407_TTA_CombineModel.c **** 
1990:HANcoder_E407_TTA_CombineModel.c ****         /* DataStoreWrite: '<S129>/Data Store Write2' incorporates:
1991:HANcoder_E407_TTA_CombineModel.c ****          *  Constant: '<S129>/Constant1'
1992:HANcoder_E407_TTA_CombineModel.c ****          */
1993:HANcoder_E407_TTA_CombineModel.c ****         rtDWork.slot = ((uint8_T)1U);
1994:HANcoder_E407_TTA_CombineModel.c **** 
1995:HANcoder_E407_TTA_CombineModel.c ****         /* DataStoreWrite: '<S129>/Data Store Write3' incorporates:
1996:HANcoder_E407_TTA_CombineModel.c ****          *  Constant: '<S129>/Constant2'
1997:HANcoder_E407_TTA_CombineModel.c ****          */
1998:HANcoder_E407_TTA_CombineModel.c ****         rtDWork.receiveSync = true;
1999:HANcoder_E407_TTA_CombineModel.c ****       }
2000:HANcoder_E407_TTA_CombineModel.c **** 
2001:HANcoder_E407_TTA_CombineModel.c ****       /* End of Outputs for SubSystem: '<S107>/Subsystem' */
2002:HANcoder_E407_TTA_CombineModel.c ****     } else if (rtDWork.SYNC1_RX_MODE) {
 1706              		.loc 1 2002 12 discriminator 4 view .LVU596
 1707              		.loc 1 2002 15 is_stmt 0 discriminator 4 view .LVU597
 1708 0156 94F80321 		ldrb	r2, [r4, #259]	@ zero_extendqisi2
 1709 015a 12B1     		cbz	r2, .L159
2003:HANcoder_E407_TTA_CombineModel.c ****       rtDWork.SYNC1_RX_MODE = false;
 1710              		.loc 1 2003 7 is_stmt 1 view .LVU598
 1711              		.loc 1 2003 29 is_stmt 0 view .LVU599
 1712 015c 0022     		movs	r2, #0
 1713 015e 84F80321 		strb	r2, [r4, #259]
2004:HANcoder_E407_TTA_CombineModel.c ****     }
2005:HANcoder_E407_TTA_CombineModel.c **** 
2006:HANcoder_E407_TTA_CombineModel.c ****     /* End of Outputs for SubSystem: '<S10>/SYNC1_RX' */
2007:HANcoder_E407_TTA_CombineModel.c **** 
2008:HANcoder_E407_TTA_CombineModel.c ****     /* Logic: '<S10>/AND' */
2009:HANcoder_E407_TTA_CombineModel.c ****     boolCan = (rtb_AND_du && rtb_OR1);
 1714              		.loc 1 2009 5 is_stmt 1 view .LVU600
 1715              	.LVL108:
 1716              	.L159:
 1717              		.loc 1 2009 13 is_stmt 0 view .LVU601
 1718 0162 7949     		ldr	r1, .L448+28
 1719 0164 0022     		movs	r2, #0
 1720 0166 0A70     		strb	r2, [r1]
2010:HANcoder_E407_TTA_CombineModel.c **** 
2011:HANcoder_E407_TTA_CombineModel.c ****     /* Outputs for Triggered SubSystem: '<S10>/SYNC1_TX' incorporates:
2012:HANcoder_E407_TTA_CombineModel.c ****      *  TriggerPort: '<S108>/Trigger'
2013:HANcoder_E407_TTA_CombineModel.c ****      */
2014:HANcoder_E407_TTA_CombineModel.c ****     if (boolCan && (rtPrevZCSigState.SYNC1_TX_Trig_ZCE != POS_ZCSIG)) {
 1721              		.loc 1 2014 5 is_stmt 1 view .LVU602
 1722              	.L237:
2015:HANcoder_E407_TTA_CombineModel.c ****       /* DataStoreRead: '<S108>/Data Store Read1' */
2016:HANcoder_E407_TTA_CombineModel.c ****       testCounter = rtDWork.testCount;
2017:HANcoder_E407_TTA_CombineModel.c **** 
2018:HANcoder_E407_TTA_CombineModel.c ****       /* Sum: '<S108>/Add' incorporates:
2019:HANcoder_E407_TTA_CombineModel.c ****        *  Constant: '<S108>/Constant7'
2020:HANcoder_E407_TTA_CombineModel.c ****        *  DataStoreWrite: '<S108>/Data Store Write'
2021:HANcoder_E407_TTA_CombineModel.c ****        */
2022:HANcoder_E407_TTA_CombineModel.c ****       rtDWork.testCount = (uint16_T)((uint32_T)testCounter + ((uint16_T)1U));
2023:HANcoder_E407_TTA_CombineModel.c **** 
2024:HANcoder_E407_TTA_CombineModel.c ****       /* DataStoreRead: '<S108>/Data Store Read' */
2025:HANcoder_E407_TTA_CombineModel.c ****       rtB.DataStoreRead = rtDWork.SlotTime;
2026:HANcoder_E407_TTA_CombineModel.c **** 
2027:HANcoder_E407_TTA_CombineModel.c ****       /* Update for M-S-Function: '<S131>/S-Function' incorporates:
2028:HANcoder_E407_TTA_CombineModel.c ****        *  Constant: '<S108>/Constant'
2029:HANcoder_E407_TTA_CombineModel.c ****        *  Constant: '<S108>/Constant1'
2030:HANcoder_E407_TTA_CombineModel.c ****        *  Constant: '<S108>/Constant2'
2031:HANcoder_E407_TTA_CombineModel.c ****        *  Constant: '<S108>/Constant3'
2032:HANcoder_E407_TTA_CombineModel.c ****        *  Constant: '<S108>/Constant4'
2033:HANcoder_E407_TTA_CombineModel.c ****        *  Constant: '<S108>/Constant5'
2034:HANcoder_E407_TTA_CombineModel.c ****        *  Constant: '<S108>/Constant6'
2035:HANcoder_E407_TTA_CombineModel.c ****        *  Constant: '<S10>/Constant10'
2036:HANcoder_E407_TTA_CombineModel.c ****        */
2037:HANcoder_E407_TTA_CombineModel.c ****       {
2038:HANcoder_E407_TTA_CombineModel.c ****         /* prepare the data */
2039:HANcoder_E407_TTA_CombineModel.c ****         canTxData.uint8_T_info[0] = rtB.DataStoreRead;
2040:HANcoder_E407_TTA_CombineModel.c ****         canTxData.uint8_T_info[1] = ((uint8_T)1U);
2041:HANcoder_E407_TTA_CombineModel.c ****         canTxData.uint8_T_info[2] = ((uint8_T)0U);
2042:HANcoder_E407_TTA_CombineModel.c ****         canTxData.uint8_T_info[3] = ((uint8_T)0U);
2043:HANcoder_E407_TTA_CombineModel.c ****         canTxData.uint8_T_info[4] = ((uint8_T)0U);
2044:HANcoder_E407_TTA_CombineModel.c ****         canTxData.uint8_T_info[5] = ((uint8_T)0U);
2045:HANcoder_E407_TTA_CombineModel.c ****         canTxData.uint8_T_info[6] = ((uint8_T)0U);
2046:HANcoder_E407_TTA_CombineModel.c ****         canTxData.uint8_T_info[7] = ((uint8_T)1U);
2047:HANcoder_E407_TTA_CombineModel.c **** 
2048:HANcoder_E407_TTA_CombineModel.c ****         /* send the data */
2049:HANcoder_E407_TTA_CombineModel.c ****         CanTransmit(0, SYNC1_ID, 8, &canTxData.uint8_T_info[0]);
2050:HANcoder_E407_TTA_CombineModel.c ****       }
2051:HANcoder_E407_TTA_CombineModel.c ****     }
2052:HANcoder_E407_TTA_CombineModel.c **** 
2053:HANcoder_E407_TTA_CombineModel.c ****     rtPrevZCSigState.SYNC1_TX_Trig_ZCE = boolCan;
 1723              		.loc 1 2053 5 view .LVU603
2054:HANcoder_E407_TTA_CombineModel.c **** 
2055:HANcoder_E407_TTA_CombineModel.c ****     /* End of Outputs for SubSystem: '<S10>/SYNC1_TX' */
2056:HANcoder_E407_TTA_CombineModel.c **** 
2057:HANcoder_E407_TTA_CombineModel.c ****     /* RelationalOperator: '<S10>/Equal6' incorporates:
2058:HANcoder_E407_TTA_CombineModel.c ****      *  Constant: '<S10>/Constant7'
2059:HANcoder_E407_TTA_CombineModel.c ****      */
2060:HANcoder_E407_TTA_CombineModel.c ****     rtb_OR1 = (slotSelected == 6.0);
 1724              		.loc 1 2060 29 is_stmt 0 view .LVU604
 1725 0168 07EE903A 		vmov	s15, r3	@ int
 1726 016c B8EEE78A 		vcvt.f32.s32	s16, s15
2061:HANcoder_E407_TTA_CombineModel.c **** 
2062:HANcoder_E407_TTA_CombineModel.c ****     /* RelationalOperator: '<S10>/Equal5' incorporates:
2063:HANcoder_E407_TTA_CombineModel.c ****      *  Constant: '<S10>/Constant6'
2064:HANcoder_E407_TTA_CombineModel.c ****      *  DataStoreRead: '<S1>/Data Store Read1'
2065:HANcoder_E407_TTA_CombineModel.c ****      */
2066:HANcoder_E407_TTA_CombineModel.c ****     rtb_AND_du = (rtDWork.Board_ID == 2.0);
 1727              		.loc 1 2066 36 view .LVU605
 1728 0170 07EE90BA 		vmov	s15, fp	@ int
 1729 0174 F8EEE78A 		vcvt.f32.s32	s17, s15
2067:HANcoder_E407_TTA_CombineModel.c **** 
2068:HANcoder_E407_TTA_CombineModel.c ****     /* Logic: '<S10>/AND9' incorporates:
2069:HANcoder_E407_TTA_CombineModel.c ****      *  Logic: '<S10>/NOT4'
2070:HANcoder_E407_TTA_CombineModel.c ****      */
2071:HANcoder_E407_TTA_CombineModel.c ****     rtb_AND9 = (rtb_OR1 && (!rtb_AND_du));
 1730              		.loc 1 2071 25 view .LVU606
 1731 0178 F1EE087A 		vmov.f32	s15, #6.0e+0
 1732 017c B4EE678A 		vcmp.f32	s16, s15
 1733 0180 F1EE10FA 		vmrs	APSR_nzcv, FPSCR
2053:HANcoder_E407_TTA_CombineModel.c **** 
 1734              		.loc 1 2053 40 view .LVU607
 1735 0184 8AF80720 		strb	r2, [r10, #7]
2060:HANcoder_E407_TTA_CombineModel.c **** 
 1736              		.loc 1 2060 5 is_stmt 1 view .LVU608
 1737              	.LVL109:
2066:HANcoder_E407_TTA_CombineModel.c **** 
 1738              		.loc 1 2066 5 view .LVU609
 1739              		.loc 1 2071 5 view .LVU610
 1740              		.loc 1 2071 25 is_stmt 0 view .LVU611
 1741 0188 41F00C81 		bne	.L162
 1742              		.loc 1 2071 25 discriminator 1 view .LVU612
 1743 018c F0EE007A 		vmov.f32	s15, #2.0e+0
 1744 0190 F4EE678A 		vcmp.f32	s17, s15
 1745 0194 F1EE10FA 		vmrs	APSR_nzcv, FPSCR
 1746 0198 41F04081 		bne	.L163
 1747              	.LVL110:
2072:HANcoder_E407_TTA_CombineModel.c **** 
2073:HANcoder_E407_TTA_CombineModel.c ****     /* Outputs for Enabled SubSystem: '<S10>/TRCK1_ID2_RX' incorporates:
2074:HANcoder_E407_TTA_CombineModel.c ****      *  EnablePort: '<S109>/Enable'
2075:HANcoder_E407_TTA_CombineModel.c ****      */
2076:HANcoder_E407_TTA_CombineModel.c ****     if (rtb_AND9) {
 1748              		.loc 1 2076 5 is_stmt 1 view .LVU613
2077:HANcoder_E407_TTA_CombineModel.c ****       rtDWork.TRCK1_ID2_RX_MODE = true;
2078:HANcoder_E407_TTA_CombineModel.c **** 
2079:HANcoder_E407_TTA_CombineModel.c ****       /* M-S-Function: '<S134>/S-Function' incorporates:
2080:HANcoder_E407_TTA_CombineModel.c ****        *  Constant: '<S10>/Constant5'
2081:HANcoder_E407_TTA_CombineModel.c ****        */
2082:HANcoder_E407_TTA_CombineModel.c **** 
2083:HANcoder_E407_TTA_CombineModel.c ****       /* read the message data and store the new parameter */
2084:HANcoder_E407_TTA_CombineModel.c ****       rtb_SFunction_o1_p = CanIoGetMessage(0, TRCK1_ID2, NULL,
2085:HANcoder_E407_TTA_CombineModel.c ****         &canRxData_0_TRCK1_ID2.uint8_T_info[0], NULL);
2086:HANcoder_E407_TTA_CombineModel.c **** 
2087:HANcoder_E407_TTA_CombineModel.c ****       /* process the message data */
2088:HANcoder_E407_TTA_CombineModel.c ****       if (rtb_SFunction_o1_p > 0) {
2089:HANcoder_E407_TTA_CombineModel.c ****         /* read the data */
2090:HANcoder_E407_TTA_CombineModel.c ****         rtb_SFunction_o2_n = canRxData_0_TRCK1_ID2.uint8_T_info[0];
2091:HANcoder_E407_TTA_CombineModel.c ****         rtb_SFunction_o3_l = canRxData_0_TRCK1_ID2.uint8_T_info[1];
2092:HANcoder_E407_TTA_CombineModel.c ****         rtb_SFunction_o4_m = canRxData_0_TRCK1_ID2.uint8_T_info[2];
2093:HANcoder_E407_TTA_CombineModel.c ****         rtb_SFunction_o5_i = canRxData_0_TRCK1_ID2.uint8_T_info[3];
2094:HANcoder_E407_TTA_CombineModel.c ****         rtb_SFunction_o6_o = canRxData_0_TRCK1_ID2.uint8_T_info[4];
2095:HANcoder_E407_TTA_CombineModel.c ****         rtb_SFunction_o7_j = canRxData_0_TRCK1_ID2.uint8_T_info[5];
2096:HANcoder_E407_TTA_CombineModel.c ****         rtb_SFunction_o8_d = canRxData_0_TRCK1_ID2.uint8_T_info[6];
2097:HANcoder_E407_TTA_CombineModel.c ****         rtb_SFunction_o9_lv = canRxData_0_TRCK1_ID2.uint8_T_info[7];
2098:HANcoder_E407_TTA_CombineModel.c ****       }
2099:HANcoder_E407_TTA_CombineModel.c **** 
2100:HANcoder_E407_TTA_CombineModel.c ****       /* Outputs for Enabled SubSystem: '<S134>/Enabled Subsystem' */
2101:HANcoder_E407_TTA_CombineModel.c ****       EnabledSubsystem(rtb_SFunction_o1_p, rtb_SFunction_o2_n,
2102:HANcoder_E407_TTA_CombineModel.c ****                        rtb_SFunction_o3_l, rtb_SFunction_o4_m,
2103:HANcoder_E407_TTA_CombineModel.c ****                        rtb_SFunction_o5_i, rtb_SFunction_o6_o,
2104:HANcoder_E407_TTA_CombineModel.c ****                        rtb_SFunction_o7_j, rtb_SFunction_o8_d,
2105:HANcoder_E407_TTA_CombineModel.c ****                        rtb_SFunction_o9_lv, &rtB.EnabledSubsystem_b);
2106:HANcoder_E407_TTA_CombineModel.c **** 
2107:HANcoder_E407_TTA_CombineModel.c ****       /* End of Outputs for SubSystem: '<S134>/Enabled Subsystem' */
2108:HANcoder_E407_TTA_CombineModel.c **** 
2109:HANcoder_E407_TTA_CombineModel.c ****       /* DataTypeConversion: '<S133>/Cast' */
2110:HANcoder_E407_TTA_CombineModel.c ****       rtb_Cast_i = rtB.EnabledSubsystem_b.In1;
2111:HANcoder_E407_TTA_CombineModel.c **** 
2112:HANcoder_E407_TTA_CombineModel.c ****       /* Outputs for Atomic SubSystem: '<S133>/Bit Shift' */
2113:HANcoder_E407_TTA_CombineModel.c ****       BitShift(rtb_Cast_i, &rtB.BitShift_gvk);
2114:HANcoder_E407_TTA_CombineModel.c **** 
2115:HANcoder_E407_TTA_CombineModel.c ****       /* End of Outputs for SubSystem: '<S133>/Bit Shift' */
2116:HANcoder_E407_TTA_CombineModel.c **** 
2117:HANcoder_E407_TTA_CombineModel.c ****       /* Sum: '<S133>/Add' incorporates:
2118:HANcoder_E407_TTA_CombineModel.c ****        *  DataTypeConversion: '<S133>/Cast1'
2119:HANcoder_E407_TTA_CombineModel.c ****        */
2120:HANcoder_E407_TTA_CombineModel.c ****       pot21 = (uint16_T)((uint32_T)rtB.BitShift_gvk.y +
2121:HANcoder_E407_TTA_CombineModel.c ****                          rtB.EnabledSubsystem_b.In2);
2122:HANcoder_E407_TTA_CombineModel.c **** 
2123:HANcoder_E407_TTA_CombineModel.c ****       /* DataTypeConversion: '<S132>/Cast' */
2124:HANcoder_E407_TTA_CombineModel.c ****       rtb_Cast_b0 = rtB.EnabledSubsystem_b.In3;
2125:HANcoder_E407_TTA_CombineModel.c **** 
2126:HANcoder_E407_TTA_CombineModel.c ****       /* Outputs for Atomic SubSystem: '<S132>/Bit Shift' */
2127:HANcoder_E407_TTA_CombineModel.c ****       BitShift(rtb_Cast_b0, &rtB.BitShift_gv);
2128:HANcoder_E407_TTA_CombineModel.c **** 
2129:HANcoder_E407_TTA_CombineModel.c ****       /* End of Outputs for SubSystem: '<S132>/Bit Shift' */
2130:HANcoder_E407_TTA_CombineModel.c **** 
2131:HANcoder_E407_TTA_CombineModel.c ****       /* Sum: '<S132>/Add' incorporates:
2132:HANcoder_E407_TTA_CombineModel.c ****        *  DataTypeConversion: '<S132>/Cast1'
2133:HANcoder_E407_TTA_CombineModel.c ****        */
2134:HANcoder_E407_TTA_CombineModel.c ****       pot22 = (uint16_T)((uint32_T)rtB.BitShift_gv.y +
2135:HANcoder_E407_TTA_CombineModel.c ****                          rtB.EnabledSubsystem_b.In4);
2136:HANcoder_E407_TTA_CombineModel.c **** 
2137:HANcoder_E407_TTA_CombineModel.c ****       /* Outputs for Enabled SubSystem: '<S109>/Enabled Subsystem' incorporates:
2138:HANcoder_E407_TTA_CombineModel.c ****        *  EnablePort: '<S135>/Enable'
2139:HANcoder_E407_TTA_CombineModel.c ****        */
2140:HANcoder_E407_TTA_CombineModel.c ****       if (rtb_SFunction_o1_p > 0) {
2141:HANcoder_E407_TTA_CombineModel.c ****         /* DataStoreWrite: '<S135>/Data Store Write' incorporates:
2142:HANcoder_E407_TTA_CombineModel.c ****          *  Constant: '<S135>/Constant'
2143:HANcoder_E407_TTA_CombineModel.c ****          */
2144:HANcoder_E407_TTA_CombineModel.c ****         rtDWork.truck2CommActive = true;
2145:HANcoder_E407_TTA_CombineModel.c ****       }
2146:HANcoder_E407_TTA_CombineModel.c **** 
2147:HANcoder_E407_TTA_CombineModel.c ****       /* End of Outputs for SubSystem: '<S109>/Enabled Subsystem' */
2148:HANcoder_E407_TTA_CombineModel.c **** 
2149:HANcoder_E407_TTA_CombineModel.c ****       /* Outputs for Atomic SubSystem: '<S136>/Bit Shift' */
2150:HANcoder_E407_TTA_CombineModel.c ****       BitShift_g(rtB.EnabledSubsystem_b.In7, &rtB.BitShift_gy3);
2151:HANcoder_E407_TTA_CombineModel.c **** 
2152:HANcoder_E407_TTA_CombineModel.c ****       /* End of Outputs for SubSystem: '<S136>/Bit Shift' */
2153:HANcoder_E407_TTA_CombineModel.c **** 
2154:HANcoder_E407_TTA_CombineModel.c ****       /* Outputs for Atomic SubSystem: '<S136>/Bit Shift1' */
2155:HANcoder_E407_TTA_CombineModel.c ****       BitShift1(rtB.EnabledSubsystem_b.In7, &rtB.BitShift1_g);
2156:HANcoder_E407_TTA_CombineModel.c **** 
2157:HANcoder_E407_TTA_CombineModel.c ****       /* End of Outputs for SubSystem: '<S136>/Bit Shift1' */
2158:HANcoder_E407_TTA_CombineModel.c **** 
2159:HANcoder_E407_TTA_CombineModel.c ****       /* Outputs for Atomic SubSystem: '<S136>/Bit Shift2' */
2160:HANcoder_E407_TTA_CombineModel.c ****       BitShift2(rtB.EnabledSubsystem_b.In7, &rtB.BitShift2_i);
2161:HANcoder_E407_TTA_CombineModel.c **** 
2162:HANcoder_E407_TTA_CombineModel.c ****       /* End of Outputs for SubSystem: '<S136>/Bit Shift2' */
2163:HANcoder_E407_TTA_CombineModel.c **** 
2164:HANcoder_E407_TTA_CombineModel.c ****       /* Outputs for Atomic SubSystem: '<S136>/Bit Shift3' */
2165:HANcoder_E407_TTA_CombineModel.c ****       BitShift3(rtB.EnabledSubsystem_b.In7, &rtB.BitShift3_c);
2166:HANcoder_E407_TTA_CombineModel.c **** 
2167:HANcoder_E407_TTA_CombineModel.c ****       /* End of Outputs for SubSystem: '<S136>/Bit Shift3' */
2168:HANcoder_E407_TTA_CombineModel.c **** 
2169:HANcoder_E407_TTA_CombineModel.c ****       /* Outputs for Atomic SubSystem: '<S136>/Bit Shift4' */
2170:HANcoder_E407_TTA_CombineModel.c ****       BitShift4(rtB.EnabledSubsystem_b.In7, &rtB.BitShift4_e);
2171:HANcoder_E407_TTA_CombineModel.c **** 
2172:HANcoder_E407_TTA_CombineModel.c ****       /* End of Outputs for SubSystem: '<S136>/Bit Shift4' */
2173:HANcoder_E407_TTA_CombineModel.c **** 
2174:HANcoder_E407_TTA_CombineModel.c ****       /* Outputs for Atomic SubSystem: '<S136>/Bit Shift5' */
2175:HANcoder_E407_TTA_CombineModel.c ****       BitShift5(rtB.EnabledSubsystem_b.In7, &rtB.BitShift5_b);
2176:HANcoder_E407_TTA_CombineModel.c **** 
2177:HANcoder_E407_TTA_CombineModel.c ****       /* End of Outputs for SubSystem: '<S136>/Bit Shift5' */
2178:HANcoder_E407_TTA_CombineModel.c **** 
2179:HANcoder_E407_TTA_CombineModel.c ****       /* Outputs for Atomic SubSystem: '<S136>/Bit Shift6' */
2180:HANcoder_E407_TTA_CombineModel.c ****       BitShift6(rtB.EnabledSubsystem_b.In7, &rtB.BitShift6_o);
2181:HANcoder_E407_TTA_CombineModel.c **** 
2182:HANcoder_E407_TTA_CombineModel.c ****       /* End of Outputs for SubSystem: '<S136>/Bit Shift6' */
2183:HANcoder_E407_TTA_CombineModel.c **** 
2184:HANcoder_E407_TTA_CombineModel.c ****       /* Outputs for Atomic SubSystem: '<S136>/Bit Shift7' */
2185:HANcoder_E407_TTA_CombineModel.c ****       BitShift_g(rtB.EnabledSubsystem_b.In7, &rtB.BitShift7);
2186:HANcoder_E407_TTA_CombineModel.c **** 
2187:HANcoder_E407_TTA_CombineModel.c ****       /* End of Outputs for SubSystem: '<S136>/Bit Shift7' */
2188:HANcoder_E407_TTA_CombineModel.c ****     } else if (rtDWork.TRCK1_ID2_RX_MODE) {
 1749              		.loc 1 2188 12 view .LVU614
 1750              		.loc 1 2188 15 is_stmt 0 view .LVU615
 1751 019c 94F80231 		ldrb	r3, [r4, #258]	@ zero_extendqisi2
 1752 01a0 002B     		cmp	r3, #0
 1753 01a2 41F0C784 		bne	.L419
 1754              	.L267:
 1755              	.LVL111:
2189:HANcoder_E407_TTA_CombineModel.c ****       rtDWork.TRCK1_ID2_RX_MODE = false;
2190:HANcoder_E407_TTA_CombineModel.c ****     }
2191:HANcoder_E407_TTA_CombineModel.c **** 
2192:HANcoder_E407_TTA_CombineModel.c ****     /* End of Outputs for SubSystem: '<S10>/TRCK1_ID2_RX' */
2193:HANcoder_E407_TTA_CombineModel.c **** 
2194:HANcoder_E407_TTA_CombineModel.c ****     /* Logic: '<S10>/AND8' */
2195:HANcoder_E407_TTA_CombineModel.c ****     rtb_OR1 = (rtb_OR1 && rtb_AND_du);
2196:HANcoder_E407_TTA_CombineModel.c **** 
2197:HANcoder_E407_TTA_CombineModel.c ****     /* Outputs for Triggered SubSystem: '<S10>/TRCK1_ID2_TX' incorporates:
2198:HANcoder_E407_TTA_CombineModel.c ****      *  TriggerPort: '<S110>/Trigger'
2199:HANcoder_E407_TTA_CombineModel.c ****      */
2200:HANcoder_E407_TTA_CombineModel.c ****     if (rtb_OR1 && (rtPrevZCSigState.TRCK1_ID2_TX_Trig_ZCE != POS_ZCSIG)) {
 1756              		.loc 1 2200 5 is_stmt 1 view .LVU616
 1757              		.loc 1 2200 37 is_stmt 0 view .LVU617
 1758 01a6 9AF80630 		ldrb	r3, [r10, #6]	@ zero_extendqisi2
 1759              		.loc 1 2200 17 view .LVU618
 1760 01aa 012B     		cmp	r3, #1
 1761 01ac 6ED0     		beq	.L233
2201:HANcoder_E407_TTA_CombineModel.c ****       /* DataStoreWrite: '<S110>/Data Store Write1' incorporates:
2202:HANcoder_E407_TTA_CombineModel.c ****        *  Constant: '<S110>/Constant2'
2203:HANcoder_E407_TTA_CombineModel.c ****        */
2204:HANcoder_E407_TTA_CombineModel.c ****       rtDWork.receiveSync = false;
 1762              		.loc 1 2204 7 is_stmt 1 view .LVU619
2205:HANcoder_E407_TTA_CombineModel.c **** 
2206:HANcoder_E407_TTA_CombineModel.c ****       /* DataStoreRead: '<S110>/Data Store Read2' */
2207:HANcoder_E407_TTA_CombineModel.c ****       rtB.DataStoreRead2_n = rtDWork.Local_Ticks;
2208:HANcoder_E407_TTA_CombineModel.c **** 
2209:HANcoder_E407_TTA_CombineModel.c ****       /* DataTypeConversion: '<S159>/Cast1' incorporates:
2210:HANcoder_E407_TTA_CombineModel.c ****        *  DataStoreRead: '<S110>/Data Store Read4'
2211:HANcoder_E407_TTA_CombineModel.c ****        */
2212:HANcoder_E407_TTA_CombineModel.c ****       rtb_Cast1_j = rtDWork.potFault;
2213:HANcoder_E407_TTA_CombineModel.c **** 
2214:HANcoder_E407_TTA_CombineModel.c ****       /* Outputs for Atomic SubSystem: '<S159>/Bit Shift1' */
2215:HANcoder_E407_TTA_CombineModel.c ****       BitShift1_b(rtb_Cast1_j, &rtB.BitShift1_b0);
2216:HANcoder_E407_TTA_CombineModel.c **** 
2217:HANcoder_E407_TTA_CombineModel.c ****       /* End of Outputs for SubSystem: '<S159>/Bit Shift1' */
2218:HANcoder_E407_TTA_CombineModel.c **** 
2219:HANcoder_E407_TTA_CombineModel.c ****       /* Outputs for Atomic SubSystem: '<S159>/Bit Shift' */
2220:HANcoder_E407_TTA_CombineModel.c ****       BitShift_gy(rtConstB.Cast_a, &rtB.BitShift_gyk);
 1763              		.loc 1 2220 7 is_stmt 0 view .LVU620
 1764 01ae 674A     		ldr	r2, .L448+32
 1765              	.LBB232:
 1766              	.LBB233:
 650:HANcoder_E407_TTA_CombineModel.c **** }
 1767              		.loc 1 650 15 view .LVU621
 1768 01b0 94F8F010 		ldrb	r1, [r4, #240]	@ zero_extendqisi2
 1769              	.LBE233:
 1770              	.LBE232:
 1771              	.LBB238:
 1772              	.LBB239:
 634:HANcoder_E407_TTA_CombineModel.c **** }
 1773              		.loc 1 634 15 view .LVU622
 1774 01b4 92F83C30 		ldrb	r3, [r2, #60]	@ zero_extendqisi2
 1775              	.LBE239:
 1776              	.LBE238:
2221:HANcoder_E407_TTA_CombineModel.c **** 
2222:HANcoder_E407_TTA_CombineModel.c ****       /* End of Outputs for SubSystem: '<S159>/Bit Shift' */
2223:HANcoder_E407_TTA_CombineModel.c **** 
2224:HANcoder_E407_TTA_CombineModel.c ****       /* Outputs for Atomic SubSystem: '<S159>/Bit Shift2' */
2225:HANcoder_E407_TTA_CombineModel.c ****       BitShift2_p(rtConstB.Cast2_p, &rtB.BitShift2_pw);
2226:HANcoder_E407_TTA_CombineModel.c **** 
2227:HANcoder_E407_TTA_CombineModel.c ****       /* End of Outputs for SubSystem: '<S159>/Bit Shift2' */
2228:HANcoder_E407_TTA_CombineModel.c **** 
2229:HANcoder_E407_TTA_CombineModel.c ****       /* Outputs for Atomic SubSystem: '<S159>/Bit Shift3' */
2230:HANcoder_E407_TTA_CombineModel.c ****       BitShift3_l(rtConstB.Cast3_l, &rtB.BitShift3_lh);
2231:HANcoder_E407_TTA_CombineModel.c **** 
2232:HANcoder_E407_TTA_CombineModel.c ****       /* End of Outputs for SubSystem: '<S159>/Bit Shift3' */
2233:HANcoder_E407_TTA_CombineModel.c **** 
2234:HANcoder_E407_TTA_CombineModel.c ****       /* Outputs for Atomic SubSystem: '<S159>/Bit Shift4' */
2235:HANcoder_E407_TTA_CombineModel.c ****       BitShift4_g(rtConstB.Cast4_f, &rtB.BitShift4_g2);
2236:HANcoder_E407_TTA_CombineModel.c **** 
2237:HANcoder_E407_TTA_CombineModel.c ****       /* End of Outputs for SubSystem: '<S159>/Bit Shift4' */
2238:HANcoder_E407_TTA_CombineModel.c **** 
2239:HANcoder_E407_TTA_CombineModel.c ****       /* Outputs for Atomic SubSystem: '<S159>/Bit Shift5' */
2240:HANcoder_E407_TTA_CombineModel.c ****       BitShift5_n(rtConstB.Cast5_e, &rtB.BitShift5_nr);
2241:HANcoder_E407_TTA_CombineModel.c **** 
2242:HANcoder_E407_TTA_CombineModel.c ****       /* End of Outputs for SubSystem: '<S159>/Bit Shift5' */
2243:HANcoder_E407_TTA_CombineModel.c **** 
2244:HANcoder_E407_TTA_CombineModel.c ****       /* Outputs for Atomic SubSystem: '<S159>/Bit Shift6' */
2245:HANcoder_E407_TTA_CombineModel.c ****       BitShift6_d(rtConstB.Cast6_iq, &rtB.BitShift6_dc);
2246:HANcoder_E407_TTA_CombineModel.c **** 
2247:HANcoder_E407_TTA_CombineModel.c ****       /* End of Outputs for SubSystem: '<S159>/Bit Shift6' */
2248:HANcoder_E407_TTA_CombineModel.c **** 
2249:HANcoder_E407_TTA_CombineModel.c ****       /* Sum: '<S159>/Add' incorporates:
2250:HANcoder_E407_TTA_CombineModel.c ****        *  DataStoreRead: '<S110>/Data Store Read3'
2251:HANcoder_E407_TTA_CombineModel.c ****        *  DataTypeConversion: '<S159>/Cast7'
2252:HANcoder_E407_TTA_CombineModel.c ****        */
2253:HANcoder_E407_TTA_CombineModel.c ****       rtB.Add_h = (uint8_T)((uint32_T)(uint8_T)((uint32_T)(uint8_T)((uint32_T)
2254:HANcoder_E407_TTA_CombineModel.c ****         (uint8_T)((uint32_T)(uint8_T)((uint32_T)(uint8_T)((uint32_T)(uint8_T)
 1777              		.loc 1 2254 49 view .LVU623
 1778 01b8 94F8EF60 		ldrb	r6, [r4, #239]	@ zero_extendqisi2
 1779              	.LBB244:
 1780              	.LBB234:
 650:HANcoder_E407_TTA_CombineModel.c **** }
 1781              		.loc 1 650 15 view .LVU624
 1782 01bc 4900     		lsls	r1, r1, #1
 1783              	.LBE234:
 1784              	.LBE244:
 1785              	.LBB245:
 1786              	.LBB240:
 634:HANcoder_E407_TTA_CombineModel.c **** }
 1787              		.loc 1 634 15 view .LVU625
 1788 01be 9B00     		lsls	r3, r3, #2
 1789              	.LBE240:
 1790              	.LBE245:
 1791              	.LBB246:
 1792              	.LBB235:
 650:HANcoder_E407_TTA_CombineModel.c **** }
 1793              		.loc 1 650 15 view .LVU626
 1794 01c0 C9B2     		uxtb	r1, r1
 1795              	.LBE235:
 1796              	.LBE246:
 1797              	.LBB247:
 1798              	.LBB241:
 634:HANcoder_E407_TTA_CombineModel.c **** }
 1799              		.loc 1 634 15 view .LVU627
 1800 01c2 DBB2     		uxtb	r3, r3
 1801              	.LBE241:
 1802              	.LBE247:
 1803              		.loc 1 2254 49 view .LVU628
 1804 01c4 5818     		adds	r0, r3, r1
 1805              	.LBB248:
 1806              	.LBB236:
 650:HANcoder_E407_TTA_CombineModel.c **** }
 1807              		.loc 1 650 13 view .LVU629
 1808 01c6 85F8B510 		strb	r1, [r5, #181]
 1809              	.LBE236:
 1810              	.LBE248:
 1811              	.LBB249:
 1812              	.LBB250:
 666:HANcoder_E407_TTA_CombineModel.c **** }
 1813              		.loc 1 666 15 view .LVU630
 1814 01ca 92F83D10 		ldrb	r1, [r2, #61]	@ zero_extendqisi2
 1815              	.LBE250:
 1816              	.LBE249:
 1817              	.LBB255:
 1818              	.LBB242:
 634:HANcoder_E407_TTA_CombineModel.c **** }
 1819              		.loc 1 634 13 view .LVU631
 1820 01ce 85F8B630 		strb	r3, [r5, #182]
 1821              	.LBE242:
 1822              	.LBE255:
 1823              	.LBB256:
 1824              	.LBB257:
 682:HANcoder_E407_TTA_CombineModel.c **** }
 1825              		.loc 1 682 15 view .LVU632
 1826 01d2 92F83E30 		ldrb	r3, [r2, #62]	@ zero_extendqisi2
 1827              	.LBE257:
 1828              	.LBE256:
 1829              	.LBB262:
 1830              	.LBB251:
 666:HANcoder_E407_TTA_CombineModel.c **** }
 1831              		.loc 1 666 15 view .LVU633
 1832 01d6 C900     		lsls	r1, r1, #3
 1833              	.LBE251:
 1834              	.LBE262:
 1835              		.loc 1 2254 49 view .LVU634
 1836 01d8 3044     		add	r0, r0, r6
 1837              	.LBB263:
 1838              	.LBB252:
 666:HANcoder_E407_TTA_CombineModel.c **** }
 1839              		.loc 1 666 15 view .LVU635
 1840 01da C9B2     		uxtb	r1, r1
 1841              	.LBE252:
 1842              	.LBE263:
 1843              	.LBB264:
 1844              	.LBB258:
 682:HANcoder_E407_TTA_CombineModel.c **** }
 1845              		.loc 1 682 15 view .LVU636
 1846 01dc 1B01     		lsls	r3, r3, #4
 1847              	.LBE258:
 1848              	.LBE264:
 1849              	.LBB265:
 1850              	.LBB253:
 666:HANcoder_E407_TTA_CombineModel.c **** }
 1851              		.loc 1 666 13 view .LVU637
 1852 01de 85F8B410 		strb	r1, [r5, #180]
 1853              	.LBE253:
 1854              	.LBE265:
 1855              	.LBB266:
 1856              	.LBB259:
 682:HANcoder_E407_TTA_CombineModel.c **** }
 1857              		.loc 1 682 15 view .LVU638
 1858 01e2 DBB2     		uxtb	r3, r3
 1859              	.LBE259:
 1860              	.LBE266:
 1861              		.loc 1 2254 29 view .LVU639
 1862 01e4 0144     		add	r1, r1, r0
 1863              	.LBB267:
 1864              	.LBB260:
 682:HANcoder_E407_TTA_CombineModel.c **** }
 1865              		.loc 1 682 13 view .LVU640
 1866 01e6 85F8B330 		strb	r3, [r5, #179]
 1867              	.LBE260:
 1868              	.LBE267:
 1869              		.loc 1 2254 9 view .LVU641
 1870 01ea 0B44     		add	r3, r3, r1
 1871              	.LBB268:
 1872              	.LBB269:
 698:HANcoder_E407_TTA_CombineModel.c **** }
 1873              		.loc 1 698 15 view .LVU642
 1874 01ec 92F83F10 		ldrb	r1, [r2, #63]	@ zero_extendqisi2
 1875 01f0 B4F85000 		ldrh	r0, [r4, #80]
 1876              	.LBE269:
 1877              	.LBE268:
2255:HANcoder_E407_TTA_CombineModel.c ****         ((uint32_T)rtDWork.motorFailed + rtB.BitShift1_b0.y) +
2256:HANcoder_E407_TTA_CombineModel.c ****         rtB.BitShift_gyk.y) + rtB.BitShift2_pw.y) + rtB.BitShift3_lh.y) +
2257:HANcoder_E407_TTA_CombineModel.c ****         rtB.BitShift4_g2.y) + rtB.BitShift5_nr.y) + rtB.BitShift6_dc.y);
2258:HANcoder_E407_TTA_CombineModel.c **** 
2259:HANcoder_E407_TTA_CombineModel.c ****       /* Outputs for Atomic SubSystem: '<S160>/Bit Shift' */
2260:HANcoder_E407_TTA_CombineModel.c ****       /* DataStoreRead: '<S110>/Data Store Read1' */
2261:HANcoder_E407_TTA_CombineModel.c ****       BitShift_o(rtDWork.potentiometer2, &rtB.BitShift_of);
2262:HANcoder_E407_TTA_CombineModel.c **** 
2263:HANcoder_E407_TTA_CombineModel.c ****       /* End of Outputs for SubSystem: '<S160>/Bit Shift' */
2264:HANcoder_E407_TTA_CombineModel.c **** 
2265:HANcoder_E407_TTA_CombineModel.c ****       /* DataTypeConversion: '<S160>/Cast' */
2266:HANcoder_E407_TTA_CombineModel.c ****       rtB.Cast_c = (uint8_T)rtB.BitShift_of.y;
2267:HANcoder_E407_TTA_CombineModel.c **** 
2268:HANcoder_E407_TTA_CombineModel.c ****       /* DataTypeConversion: '<S160>/Cast1' incorporates:
2269:HANcoder_E407_TTA_CombineModel.c ****        *  DataStoreRead: '<S110>/Data Store Read1'
2270:HANcoder_E407_TTA_CombineModel.c ****        */
2271:HANcoder_E407_TTA_CombineModel.c ****       rtB.Cast1_ib = (uint8_T)rtDWork.potentiometer2;
2272:HANcoder_E407_TTA_CombineModel.c **** 
2273:HANcoder_E407_TTA_CombineModel.c ****       /* Outputs for Atomic SubSystem: '<S161>/Bit Shift' */
2274:HANcoder_E407_TTA_CombineModel.c ****       /* DataStoreRead: '<S110>/Data Store Read' */
2275:HANcoder_E407_TTA_CombineModel.c ****       BitShift_o(rtDWork.potentiometer1, &rtB.BitShift_h);
2276:HANcoder_E407_TTA_CombineModel.c **** 
2277:HANcoder_E407_TTA_CombineModel.c ****       /* End of Outputs for SubSystem: '<S161>/Bit Shift' */
2278:HANcoder_E407_TTA_CombineModel.c **** 
2279:HANcoder_E407_TTA_CombineModel.c ****       /* DataTypeConversion: '<S161>/Cast' */
2280:HANcoder_E407_TTA_CombineModel.c ****       rtB.Cast_k = (uint8_T)rtB.BitShift_h.y;
2281:HANcoder_E407_TTA_CombineModel.c **** 
2282:HANcoder_E407_TTA_CombineModel.c ****       /* DataTypeConversion: '<S161>/Cast1' incorporates:
2283:HANcoder_E407_TTA_CombineModel.c ****        *  DataStoreRead: '<S110>/Data Store Read'
2284:HANcoder_E407_TTA_CombineModel.c ****        */
2285:HANcoder_E407_TTA_CombineModel.c ****       rtB.Cast1_i0 = (uint8_T)rtDWork.potentiometer1;
2286:HANcoder_E407_TTA_CombineModel.c **** 
2287:HANcoder_E407_TTA_CombineModel.c ****       /* Update for M-S-Function: '<S158>/S-Function' incorporates:
2288:HANcoder_E407_TTA_CombineModel.c ****        *  Constant: '<S10>/Constant5'
2289:HANcoder_E407_TTA_CombineModel.c ****        *  Constant: '<S110>/Constant'
2290:HANcoder_E407_TTA_CombineModel.c ****        *  Constant: '<S110>/Constant1'
2291:HANcoder_E407_TTA_CombineModel.c ****        */
2292:HANcoder_E407_TTA_CombineModel.c ****       {
2293:HANcoder_E407_TTA_CombineModel.c ****         /* prepare the data */
2294:HANcoder_E407_TTA_CombineModel.c ****         canTxData.uint8_T_info[0] = rtB.Cast_k;
2295:HANcoder_E407_TTA_CombineModel.c ****         canTxData.uint8_T_info[1] = rtB.Cast1_i0;
2296:HANcoder_E407_TTA_CombineModel.c ****         canTxData.uint8_T_info[2] = rtB.Cast_c;
2297:HANcoder_E407_TTA_CombineModel.c ****         canTxData.uint8_T_info[3] = rtB.Cast1_ib;
2298:HANcoder_E407_TTA_CombineModel.c ****         canTxData.uint8_T_info[4] = rtB.DataStoreRead2_n;
2299:HANcoder_E407_TTA_CombineModel.c ****         canTxData.uint8_T_info[5] = ((uint8_T)0U);
2300:HANcoder_E407_TTA_CombineModel.c ****         canTxData.uint8_T_info[6] = rtB.Add_h;
2301:HANcoder_E407_TTA_CombineModel.c ****         canTxData.uint8_T_info[7] = ((uint8_T)0U);
2302:HANcoder_E407_TTA_CombineModel.c **** 
2303:HANcoder_E407_TTA_CombineModel.c ****         /* send the data */
2304:HANcoder_E407_TTA_CombineModel.c ****         CanTransmit(0, TRCK1_ID2, 8, &canTxData.uint8_T_info[0]);
 1878              		.loc 1 2304 9 view .LVU643
 1879 01f4 564E     		ldr	r6, .L448+36
 1880              	.LBB273:
 1881              	.LBB270:
 698:HANcoder_E407_TTA_CombineModel.c **** }
 1882              		.loc 1 698 15 view .LVU644
 1883 01f6 4901     		lsls	r1, r1, #5
 1884 01f8 C9B2     		uxtb	r1, r1
 1885              	.LBE270:
 1886              	.LBE273:
2253:HANcoder_E407_TTA_CombineModel.c ****         (uint8_T)((uint32_T)(uint8_T)((uint32_T)(uint8_T)((uint32_T)(uint8_T)
 1887              		.loc 1 2253 59 view .LVU645
 1888 01fa 0B44     		add	r3, r3, r1
 1889              	.LBB274:
 1890              	.LBB271:
 698:HANcoder_E407_TTA_CombineModel.c **** }
 1891              		.loc 1 698 13 view .LVU646
 1892 01fc 85F8B210 		strb	r1, [r5, #178]
 1893              	.LBE271:
 1894              	.LBE274:
 1895              	.LBB275:
 1896              	.LBB276:
 714:HANcoder_E407_TTA_CombineModel.c **** }
 1897              		.loc 1 714 15 view .LVU647
 1898 0200 92F84010 		ldrb	r1, [r2, #64]	@ zero_extendqisi2
 1899              	.LBE276:
 1900              	.LBE275:
 1901              	.LBB280:
 1902              	.LBB281:
 730:HANcoder_E407_TTA_CombineModel.c **** }
 1903              		.loc 1 730 15 view .LVU648
 1904 0204 92F84120 		ldrb	r2, [r2, #65]	@ zero_extendqisi2
 1905              	.LBE281:
 1906              	.LBE280:
 1907              	.LBB285:
 1908              	.LBB277:
 714:HANcoder_E407_TTA_CombineModel.c **** }
 1909              		.loc 1 714 15 view .LVU649
 1910 0208 8901     		lsls	r1, r1, #6
 1911 020a C9B2     		uxtb	r1, r1
 1912              	.LBE277:
 1913              	.LBE285:
 1914              	.LBB286:
 1915              	.LBB282:
 730:HANcoder_E407_TTA_CombineModel.c **** }
 1916              		.loc 1 730 15 view .LVU650
 1917 020c D201     		lsls	r2, r2, #7
 1918 020e D2B2     		uxtb	r2, r2
 1919              	.LBE282:
 1920              	.LBE286:
2253:HANcoder_E407_TTA_CombineModel.c ****         (uint8_T)((uint32_T)(uint8_T)((uint32_T)(uint8_T)((uint32_T)(uint8_T)
 1921              		.loc 1 2253 39 view .LVU651
 1922 0210 0B44     		add	r3, r3, r1
2253:HANcoder_E407_TTA_CombineModel.c ****         (uint8_T)((uint32_T)(uint8_T)((uint32_T)(uint8_T)((uint32_T)(uint8_T)
 1923              		.loc 1 2253 19 view .LVU652
 1924 0212 1344     		add	r3, r3, r2
 1925              	.LBB287:
 1926              	.LBB283:
 730:HANcoder_E407_TTA_CombineModel.c **** }
 1927              		.loc 1 730 13 view .LVU653
 1928 0214 85F8B020 		strb	r2, [r5, #176]
 1929              	.LBE283:
 1930              	.LBE287:
2253:HANcoder_E407_TTA_CombineModel.c ****         (uint8_T)((uint32_T)(uint8_T)((uint32_T)(uint8_T)((uint32_T)(uint8_T)
 1931              		.loc 1 2253 19 view .LVU654
 1932 0218 DAB2     		uxtb	r2, r3
2261:HANcoder_E407_TTA_CombineModel.c **** 
 1933              		.loc 1 2261 7 view .LVU655
 1934 021a B4F85E30 		ldrh	r3, [r4, #94]
2271:HANcoder_E407_TTA_CombineModel.c **** 
 1935              		.loc 1 2271 22 view .LVU656
 1936 021e 85F82A30 		strb	r3, [r5, #42]
 1937              	.LBB288:
 1938              	.LBB289:
 751:HANcoder_E407_TTA_CombineModel.c **** }
 1939              		.loc 1 751 15 view .LVU657
 1940 0222 1B0A     		lsrs	r3, r3, #8
 751:HANcoder_E407_TTA_CombineModel.c **** }
 1941              		.loc 1 751 13 view .LVU658
 1942 0224 A5F8AE30 		strh	r3, [r5, #174]	@ movhi
 1943              	.LBE289:
 1944              	.LBE288:
2266:HANcoder_E407_TTA_CombineModel.c **** 
 1945              		.loc 1 2266 20 view .LVU659
 1946 0228 85F82930 		strb	r3, [r5, #41]
2275:HANcoder_E407_TTA_CombineModel.c **** 
 1947              		.loc 1 2275 7 view .LVU660
 1948 022c B4F85030 		ldrh	r3, [r4, #80]
 1949              	.LBB291:
 1950              	.LBB278:
 714:HANcoder_E407_TTA_CombineModel.c **** }
 1951              		.loc 1 714 13 view .LVU661
 1952 0230 85F8B110 		strb	r1, [r5, #177]
 1953              	.LBE278:
 1954              	.LBE291:
2285:HANcoder_E407_TTA_CombineModel.c **** 
 1955              		.loc 1 2285 22 view .LVU662
 1956 0234 85F82C30 		strb	r3, [r5, #44]
 1957 0238 B4F85E10 		ldrh	r1, [r4, #94]
2253:HANcoder_E407_TTA_CombineModel.c ****         (uint8_T)((uint32_T)(uint8_T)((uint32_T)(uint8_T)((uint32_T)(uint8_T)
 1958              		.loc 1 2253 17 view .LVU663
 1959 023c 85F82820 		strb	r2, [r5, #40]
 1960              	.LBB292:
 1961              	.LBB293:
 751:HANcoder_E407_TTA_CombineModel.c **** }
 1962              		.loc 1 751 15 view .LVU664
 1963 0240 1B0A     		lsrs	r3, r3, #8
 751:HANcoder_E407_TTA_CombineModel.c **** }
 1964              		.loc 1 751 13 view .LVU665
 1965 0242 A5F8AC30 		strh	r3, [r5, #172]	@ movhi
 1966              	.LBE293:
 1967              	.LBE292:
2280:HANcoder_E407_TTA_CombineModel.c **** 
 1968              		.loc 1 2280 20 view .LVU666
 1969 0246 85F82B30 		strb	r3, [r5, #43]
2294:HANcoder_E407_TTA_CombineModel.c ****         canTxData.uint8_T_info[1] = rtB.Cast1_i0;
 1970              		.loc 1 2294 35 view .LVU667
 1971 024a 3D4B     		ldr	r3, .L448+20
 1972 024c 49BA     		rev16	r1, r1
 1973 024e 40BA     		rev16	r0, r0
 1974 0250 1880     		strh	r0, [r3]	@ movhi
2296:HANcoder_E407_TTA_CombineModel.c ****         canTxData.uint8_T_info[3] = rtB.Cast1_ib;
 1975              		.loc 1 2296 35 view .LVU668
 1976 0252 5980     		strh	r1, [r3, #2]	@ movhi
2204:HANcoder_E407_TTA_CombineModel.c **** 
 1977              		.loc 1 2204 27 view .LVU669
 1978 0254 0020     		movs	r0, #0
2207:HANcoder_E407_TTA_CombineModel.c **** 
 1979              		.loc 1 2207 37 view .LVU670
 1980 0256 94F8DF10 		ldrb	r1, [r4, #223]	@ zero_extendqisi2
2298:HANcoder_E407_TTA_CombineModel.c ****         canTxData.uint8_T_info[5] = ((uint8_T)0U);
 1981              		.loc 1 2298 35 view .LVU671
 1982 025a 1971     		strb	r1, [r3, #4]
2204:HANcoder_E407_TTA_CombineModel.c **** 
 1983              		.loc 1 2204 27 view .LVU672
 1984 025c 84F8F300 		strb	r0, [r4, #243]
2207:HANcoder_E407_TTA_CombineModel.c **** 
 1985              		.loc 1 2207 7 is_stmt 1 view .LVU673
2207:HANcoder_E407_TTA_CombineModel.c **** 
 1986              		.loc 1 2207 28 is_stmt 0 view .LVU674
 1987 0260 85F82710 		strb	r1, [r5, #39]
2212:HANcoder_E407_TTA_CombineModel.c **** 
 1988              		.loc 1 2212 7 is_stmt 1 view .LVU675
 1989              	.LVL112:
2215:HANcoder_E407_TTA_CombineModel.c **** 
 1990              		.loc 1 2215 7 view .LVU676
 1991              	.LBB295:
 1992              	.LBI232:
 645:HANcoder_E407_TTA_CombineModel.c **** {
 1993              		.loc 1 645 6 view .LVU677
 1994              	.LBB237:
 650:HANcoder_E407_TTA_CombineModel.c **** }
 1995              		.loc 1 650 3 view .LVU678
 650:HANcoder_E407_TTA_CombineModel.c **** }
 1996              		.loc 1 650 3 is_stmt 0 view .LVU679
 1997              	.LBE237:
 1998              	.LBE295:
2220:HANcoder_E407_TTA_CombineModel.c **** 
 1999              		.loc 1 2220 7 is_stmt 1 view .LVU680
 2000              	.LBB296:
 2001              	.LBI238:
 629:HANcoder_E407_TTA_CombineModel.c **** {
 2002              		.loc 1 629 6 view .LVU681
 2003              	.LBB243:
 634:HANcoder_E407_TTA_CombineModel.c **** }
 2004              		.loc 1 634 3 view .LVU682
 634:HANcoder_E407_TTA_CombineModel.c **** }
 2005              		.loc 1 634 3 is_stmt 0 view .LVU683
 2006              	.LBE243:
 2007              	.LBE296:
2225:HANcoder_E407_TTA_CombineModel.c **** 
 2008              		.loc 1 2225 7 is_stmt 1 view .LVU684
 2009              	.LBB297:
 2010              	.LBI249:
 661:HANcoder_E407_TTA_CombineModel.c **** {
 2011              		.loc 1 661 6 view .LVU685
 2012              	.LBB254:
 666:HANcoder_E407_TTA_CombineModel.c **** }
 2013              		.loc 1 666 3 view .LVU686
 666:HANcoder_E407_TTA_CombineModel.c **** }
 2014              		.loc 1 666 3 is_stmt 0 view .LVU687
 2015              	.LBE254:
 2016              	.LBE297:
2230:HANcoder_E407_TTA_CombineModel.c **** 
 2017              		.loc 1 2230 7 is_stmt 1 view .LVU688
 2018              	.LBB298:
 2019              	.LBI256:
 677:HANcoder_E407_TTA_CombineModel.c **** {
 2020              		.loc 1 677 6 view .LVU689
 2021              	.LBB261:
 682:HANcoder_E407_TTA_CombineModel.c **** }
 2022              		.loc 1 682 3 view .LVU690
 682:HANcoder_E407_TTA_CombineModel.c **** }
 2023              		.loc 1 682 3 is_stmt 0 view .LVU691
 2024              	.LBE261:
 2025              	.LBE298:
2235:HANcoder_E407_TTA_CombineModel.c **** 
 2026              		.loc 1 2235 7 is_stmt 1 view .LVU692
 2027              	.LBB299:
 2028              	.LBI268:
 693:HANcoder_E407_TTA_CombineModel.c **** {
 2029              		.loc 1 693 6 view .LVU693
 2030              	.LBB272:
 698:HANcoder_E407_TTA_CombineModel.c **** }
 2031              		.loc 1 698 3 view .LVU694
 698:HANcoder_E407_TTA_CombineModel.c **** }
 2032              		.loc 1 698 3 is_stmt 0 view .LVU695
 2033              	.LBE272:
 2034              	.LBE299:
2240:HANcoder_E407_TTA_CombineModel.c **** 
 2035              		.loc 1 2240 7 is_stmt 1 view .LVU696
 2036              	.LBB300:
 2037              	.LBI275:
 709:HANcoder_E407_TTA_CombineModel.c **** {
 2038              		.loc 1 709 6 view .LVU697
 2039              	.LBB279:
 714:HANcoder_E407_TTA_CombineModel.c **** }
 2040              		.loc 1 714 3 view .LVU698
 714:HANcoder_E407_TTA_CombineModel.c **** }
 2041              		.loc 1 714 3 is_stmt 0 view .LVU699
 2042              	.LBE279:
 2043              	.LBE300:
2245:HANcoder_E407_TTA_CombineModel.c **** 
 2044              		.loc 1 2245 7 is_stmt 1 view .LVU700
 2045              	.LBB301:
 2046              	.LBI280:
 725:HANcoder_E407_TTA_CombineModel.c **** {
 2047              		.loc 1 725 6 view .LVU701
 2048              	.LBB284:
 730:HANcoder_E407_TTA_CombineModel.c **** }
 2049              		.loc 1 730 3 view .LVU702
 730:HANcoder_E407_TTA_CombineModel.c **** }
 2050              		.loc 1 730 3 is_stmt 0 view .LVU703
 2051              	.LBE284:
 2052              	.LBE301:
2253:HANcoder_E407_TTA_CombineModel.c ****         (uint8_T)((uint32_T)(uint8_T)((uint32_T)(uint8_T)((uint32_T)(uint8_T)
 2053              		.loc 1 2253 7 is_stmt 1 view .LVU704
2261:HANcoder_E407_TTA_CombineModel.c **** 
 2054              		.loc 1 2261 7 view .LVU705
 2055              	.LBB302:
 2056              	.LBI288:
 746:HANcoder_E407_TTA_CombineModel.c **** {
 2057              		.loc 1 746 6 view .LVU706
 2058              	.LBB290:
 751:HANcoder_E407_TTA_CombineModel.c **** }
 2059              		.loc 1 751 3 view .LVU707
 751:HANcoder_E407_TTA_CombineModel.c **** }
 2060              		.loc 1 751 3 is_stmt 0 view .LVU708
 2061              	.LBE290:
 2062              	.LBE302:
2266:HANcoder_E407_TTA_CombineModel.c **** 
 2063              		.loc 1 2266 7 is_stmt 1 view .LVU709
2271:HANcoder_E407_TTA_CombineModel.c **** 
 2064              		.loc 1 2271 7 view .LVU710
2275:HANcoder_E407_TTA_CombineModel.c **** 
 2065              		.loc 1 2275 7 view .LVU711
 2066              	.LBB303:
 2067              	.LBI292:
 746:HANcoder_E407_TTA_CombineModel.c **** {
 2068              		.loc 1 746 6 view .LVU712
 2069              	.LBB294:
 751:HANcoder_E407_TTA_CombineModel.c **** }
 2070              		.loc 1 751 3 view .LVU713
 751:HANcoder_E407_TTA_CombineModel.c **** }
 2071              		.loc 1 751 3 is_stmt 0 view .LVU714
 2072              	.LBE294:
 2073              	.LBE303:
2280:HANcoder_E407_TTA_CombineModel.c **** 
 2074              		.loc 1 2280 7 is_stmt 1 view .LVU715
2285:HANcoder_E407_TTA_CombineModel.c **** 
 2075              		.loc 1 2285 7 view .LVU716
2294:HANcoder_E407_TTA_CombineModel.c ****         canTxData.uint8_T_info[1] = rtB.Cast1_i0;
 2076              		.loc 1 2294 9 view .LVU717
2295:HANcoder_E407_TTA_CombineModel.c ****         canTxData.uint8_T_info[2] = rtB.Cast_c;
 2077              		.loc 1 2295 9 view .LVU718
2296:HANcoder_E407_TTA_CombineModel.c ****         canTxData.uint8_T_info[3] = rtB.Cast1_ib;
 2078              		.loc 1 2296 9 view .LVU719
2297:HANcoder_E407_TTA_CombineModel.c ****         canTxData.uint8_T_info[4] = rtB.DataStoreRead2_n;
 2079              		.loc 1 2297 9 view .LVU720
2298:HANcoder_E407_TTA_CombineModel.c ****         canTxData.uint8_T_info[5] = ((uint8_T)0U);
 2080              		.loc 1 2298 9 view .LVU721
2299:HANcoder_E407_TTA_CombineModel.c ****         canTxData.uint8_T_info[6] = rtB.Add_h;
 2081              		.loc 1 2299 9 view .LVU722
2299:HANcoder_E407_TTA_CombineModel.c ****         canTxData.uint8_T_info[6] = rtB.Add_h;
 2082              		.loc 1 2299 35 is_stmt 0 view .LVU723
 2083 0264 5871     		strb	r0, [r3, #5]
2300:HANcoder_E407_TTA_CombineModel.c ****         canTxData.uint8_T_info[7] = ((uint8_T)0U);
 2084              		.loc 1 2300 9 is_stmt 1 view .LVU724
2300:HANcoder_E407_TTA_CombineModel.c ****         canTxData.uint8_T_info[7] = ((uint8_T)0U);
 2085              		.loc 1 2300 35 is_stmt 0 view .LVU725
 2086 0266 9A71     		strb	r2, [r3, #6]
2301:HANcoder_E407_TTA_CombineModel.c **** 
 2087              		.loc 1 2301 9 is_stmt 1 view .LVU726
2301:HANcoder_E407_TTA_CombineModel.c **** 
 2088              		.loc 1 2301 35 is_stmt 0 view .LVU727
 2089 0268 D871     		strb	r0, [r3, #7]
 2090              		.loc 1 2304 9 is_stmt 1 view .LVU728
 2091 026a 3168     		ldr	r1, [r6]
 2092 026c 0822     		movs	r2, #8
 2093 026e FFF7FEFF 		bl	CanTransmit
 2094              	.LVL113:
2305:HANcoder_E407_TTA_CombineModel.c ****       }
2306:HANcoder_E407_TTA_CombineModel.c ****     }
2307:HANcoder_E407_TTA_CombineModel.c **** 
2308:HANcoder_E407_TTA_CombineModel.c ****     rtPrevZCSigState.TRCK1_ID2_TX_Trig_ZCE = rtb_OR1;
2309:HANcoder_E407_TTA_CombineModel.c **** 
2310:HANcoder_E407_TTA_CombineModel.c ****     /* End of Outputs for SubSystem: '<S10>/TRCK1_ID2_TX' */
2311:HANcoder_E407_TTA_CombineModel.c **** 
2312:HANcoder_E407_TTA_CombineModel.c ****     /* RelationalOperator: '<S10>/Equal14' incorporates:
2313:HANcoder_E407_TTA_CombineModel.c ****      *  Constant: '<S10>/Constant20'
2314:HANcoder_E407_TTA_CombineModel.c ****      */
2315:HANcoder_E407_TTA_CombineModel.c ****     rtb_OR1 = (slotSelected == 7.0);
 2095              		.loc 1 2315 29 is_stmt 0 view .LVU729
 2096 0272 314B     		ldr	r3, .L448+12
 2097 0274 1B78     		ldrb	r3, [r3]	@ zero_extendqisi2
 2098 0276 08EE103A 		vmov	s16, r3	@ int
2316:HANcoder_E407_TTA_CombineModel.c **** 
2317:HANcoder_E407_TTA_CombineModel.c ****     /* RelationalOperator: '<S10>/Equal7' incorporates:
2318:HANcoder_E407_TTA_CombineModel.c ****      *  Constant: '<S10>/Constant19'
2319:HANcoder_E407_TTA_CombineModel.c ****      *  DataStoreRead: '<S1>/Data Store Read1'
2320:HANcoder_E407_TTA_CombineModel.c ****      */
2321:HANcoder_E407_TTA_CombineModel.c ****     rtb_AND_du = (rtDWork.Board_ID == 3.0);
 2099              		.loc 1 2321 26 view .LVU730
 2100 027a 94F8DE30 		ldrb	r3, [r4, #222]	@ zero_extendqisi2
 2101 027e 08EE903A 		vmov	s17, r3	@ int
 2102              	.LVL114:
2315:HANcoder_E407_TTA_CombineModel.c **** 
 2103              		.loc 1 2315 29 view .LVU731
 2104 0282 B8EEC88A 		vcvt.f32.s32	s16, s16
 2105              		.loc 1 2321 36 view .LVU732
 2106 0286 F8EEE88A 		vcvt.f32.s32	s17, s17
2195:HANcoder_E407_TTA_CombineModel.c **** 
 2107              		.loc 1 2195 13 view .LVU733
 2108 028a 0123     		movs	r3, #1
 2109              	.LVL115:
 2110              	.L233:
2308:HANcoder_E407_TTA_CombineModel.c **** 
 2111              		.loc 1 2308 5 is_stmt 1 view .LVU734
2322:HANcoder_E407_TTA_CombineModel.c **** 
2323:HANcoder_E407_TTA_CombineModel.c ****     /* Logic: '<S10>/AND10' */
2324:HANcoder_E407_TTA_CombineModel.c ****     rtb_DataStoreRead11 = (rtb_OR1 && rtb_AND_du);
 2112              		.loc 1 2324 36 is_stmt 0 view .LVU735
 2113 028c F1EE0C7A 		vmov.f32	s15, #7.0e+0
 2114 0290 B4EE678A 		vcmp.f32	s16, s15
 2115 0294 F1EE10FA 		vmrs	APSR_nzcv, FPSCR
2308:HANcoder_E407_TTA_CombineModel.c **** 
 2116              		.loc 1 2308 44 view .LVU736
 2117 0298 8AF80630 		strb	r3, [r10, #6]
2315:HANcoder_E407_TTA_CombineModel.c **** 
 2118              		.loc 1 2315 5 is_stmt 1 view .LVU737
 2119              	.LVL116:
2321:HANcoder_E407_TTA_CombineModel.c **** 
 2120              		.loc 1 2321 5 view .LVU738
 2121              		.loc 1 2324 5 view .LVU739
 2122              		.loc 1 2324 36 is_stmt 0 view .LVU740
 2123 029c 41F07C80 		bne	.L293
 2124              		.loc 1 2324 36 discriminator 1 view .LVU741
 2125 02a0 F0EE087A 		vmov.f32	s15, #3.0e+0
 2126 02a4 F4EE678A 		vcmp.f32	s17, s15
 2127 02a8 F1EE10FA 		vmrs	APSR_nzcv, FPSCR
 2128 02ac 00F08587 		beq	.L167
 2129              		.loc 1 2324 25 view .LVU742
 2130 02b0 0023     		movs	r3, #0
 2131              	.L168:
2325:HANcoder_E407_TTA_CombineModel.c **** 
2326:HANcoder_E407_TTA_CombineModel.c ****     /* Outputs for Triggered SubSystem: '<S10>/TRCK1_ID3_TX' incorporates:
2327:HANcoder_E407_TTA_CombineModel.c ****      *  TriggerPort: '<S111>/Trigger'
2328:HANcoder_E407_TTA_CombineModel.c ****      */
2329:HANcoder_E407_TTA_CombineModel.c ****     if (rtb_DataStoreRead11 && (rtPrevZCSigState.TRCK1_ID3_TX_Trig_ZCE !=
2330:HANcoder_E407_TTA_CombineModel.c ****          POS_ZCSIG)) {
2331:HANcoder_E407_TTA_CombineModel.c ****       /* DataStoreRead: '<S111>/Data Store Read2' */
2332:HANcoder_E407_TTA_CombineModel.c ****       rtB.DataStoreRead2_l = rtDWork.Local_Ticks;
2333:HANcoder_E407_TTA_CombineModel.c **** 
2334:HANcoder_E407_TTA_CombineModel.c ****       /* DataTypeConversion: '<S181>/Cast1' incorporates:
2335:HANcoder_E407_TTA_CombineModel.c ****        *  DataStoreRead: '<S111>/Data Store Read4'
2336:HANcoder_E407_TTA_CombineModel.c ****        */
2337:HANcoder_E407_TTA_CombineModel.c ****       rtb_Cast1_o = rtDWork.potFault;
2338:HANcoder_E407_TTA_CombineModel.c **** 
2339:HANcoder_E407_TTA_CombineModel.c ****       /* Outputs for Atomic SubSystem: '<S181>/Bit Shift1' */
2340:HANcoder_E407_TTA_CombineModel.c ****       BitShift1_b(rtb_Cast1_o, &rtB.BitShift1_k);
2341:HANcoder_E407_TTA_CombineModel.c **** 
2342:HANcoder_E407_TTA_CombineModel.c ****       /* End of Outputs for SubSystem: '<S181>/Bit Shift1' */
2343:HANcoder_E407_TTA_CombineModel.c **** 
2344:HANcoder_E407_TTA_CombineModel.c ****       /* Outputs for Atomic SubSystem: '<S181>/Bit Shift' */
2345:HANcoder_E407_TTA_CombineModel.c ****       BitShift_gy(rtConstB.Cast_e, &rtB.BitShift_p);
2346:HANcoder_E407_TTA_CombineModel.c **** 
2347:HANcoder_E407_TTA_CombineModel.c ****       /* End of Outputs for SubSystem: '<S181>/Bit Shift' */
2348:HANcoder_E407_TTA_CombineModel.c **** 
2349:HANcoder_E407_TTA_CombineModel.c ****       /* Outputs for Atomic SubSystem: '<S181>/Bit Shift2' */
2350:HANcoder_E407_TTA_CombineModel.c ****       BitShift2_p(rtConstB.Cast2_f, &rtB.BitShift2_h);
2351:HANcoder_E407_TTA_CombineModel.c **** 
2352:HANcoder_E407_TTA_CombineModel.c ****       /* End of Outputs for SubSystem: '<S181>/Bit Shift2' */
2353:HANcoder_E407_TTA_CombineModel.c **** 
2354:HANcoder_E407_TTA_CombineModel.c ****       /* Outputs for Atomic SubSystem: '<S181>/Bit Shift3' */
2355:HANcoder_E407_TTA_CombineModel.c ****       BitShift3_l(rtConstB.Cast3_kx, &rtB.BitShift3_d);
2356:HANcoder_E407_TTA_CombineModel.c **** 
2357:HANcoder_E407_TTA_CombineModel.c ****       /* End of Outputs for SubSystem: '<S181>/Bit Shift3' */
2358:HANcoder_E407_TTA_CombineModel.c **** 
2359:HANcoder_E407_TTA_CombineModel.c ****       /* Outputs for Atomic SubSystem: '<S181>/Bit Shift4' */
2360:HANcoder_E407_TTA_CombineModel.c ****       BitShift4_g(rtConstB.Cast4_d, &rtB.BitShift4_k);
2361:HANcoder_E407_TTA_CombineModel.c **** 
2362:HANcoder_E407_TTA_CombineModel.c ****       /* End of Outputs for SubSystem: '<S181>/Bit Shift4' */
2363:HANcoder_E407_TTA_CombineModel.c **** 
2364:HANcoder_E407_TTA_CombineModel.c ****       /* Outputs for Atomic SubSystem: '<S181>/Bit Shift5' */
2365:HANcoder_E407_TTA_CombineModel.c ****       BitShift5_n(rtConstB.Cast5_a, &rtB.BitShift5_j);
2366:HANcoder_E407_TTA_CombineModel.c **** 
2367:HANcoder_E407_TTA_CombineModel.c ****       /* End of Outputs for SubSystem: '<S181>/Bit Shift5' */
2368:HANcoder_E407_TTA_CombineModel.c **** 
2369:HANcoder_E407_TTA_CombineModel.c ****       /* Outputs for Atomic SubSystem: '<S181>/Bit Shift6' */
2370:HANcoder_E407_TTA_CombineModel.c ****       BitShift6_d(rtConstB.Cast6_a, &rtB.BitShift6_a);
2371:HANcoder_E407_TTA_CombineModel.c **** 
2372:HANcoder_E407_TTA_CombineModel.c ****       /* End of Outputs for SubSystem: '<S181>/Bit Shift6' */
2373:HANcoder_E407_TTA_CombineModel.c **** 
2374:HANcoder_E407_TTA_CombineModel.c ****       /* Sum: '<S181>/Add' incorporates:
2375:HANcoder_E407_TTA_CombineModel.c ****        *  DataStoreRead: '<S111>/Data Store Read3'
2376:HANcoder_E407_TTA_CombineModel.c ****        *  DataTypeConversion: '<S181>/Cast7'
2377:HANcoder_E407_TTA_CombineModel.c ****        */
2378:HANcoder_E407_TTA_CombineModel.c ****       rtB.Add_jr = (uint8_T)((uint32_T)(uint8_T)((uint32_T)(uint8_T)((uint32_T)
2379:HANcoder_E407_TTA_CombineModel.c ****         (uint8_T)((uint32_T)(uint8_T)((uint32_T)(uint8_T)((uint32_T)(uint8_T)
2380:HANcoder_E407_TTA_CombineModel.c ****         ((uint32_T)rtDWork.motorFailed + rtB.BitShift1_k.y) + rtB.BitShift_p.y)
2381:HANcoder_E407_TTA_CombineModel.c ****         + rtB.BitShift2_h.y) + rtB.BitShift3_d.y) + rtB.BitShift4_k.y) +
2382:HANcoder_E407_TTA_CombineModel.c ****         rtB.BitShift5_j.y) + rtB.BitShift6_a.y);
2383:HANcoder_E407_TTA_CombineModel.c **** 
2384:HANcoder_E407_TTA_CombineModel.c ****       /* Outputs for Atomic SubSystem: '<S182>/Bit Shift' */
2385:HANcoder_E407_TTA_CombineModel.c ****       /* DataStoreRead: '<S111>/Data Store Read1' */
2386:HANcoder_E407_TTA_CombineModel.c ****       BitShift_o(rtDWork.potentiometer2, &rtB.BitShift_e);
2387:HANcoder_E407_TTA_CombineModel.c **** 
2388:HANcoder_E407_TTA_CombineModel.c ****       /* End of Outputs for SubSystem: '<S182>/Bit Shift' */
2389:HANcoder_E407_TTA_CombineModel.c **** 
2390:HANcoder_E407_TTA_CombineModel.c ****       /* DataTypeConversion: '<S182>/Cast' */
2391:HANcoder_E407_TTA_CombineModel.c ****       rtB.Cast_o = (uint8_T)rtB.BitShift_e.y;
2392:HANcoder_E407_TTA_CombineModel.c **** 
2393:HANcoder_E407_TTA_CombineModel.c ****       /* DataTypeConversion: '<S182>/Cast1' incorporates:
2394:HANcoder_E407_TTA_CombineModel.c ****        *  DataStoreRead: '<S111>/Data Store Read1'
2395:HANcoder_E407_TTA_CombineModel.c ****        */
2396:HANcoder_E407_TTA_CombineModel.c ****       rtB.Cast1_nt = (uint8_T)rtDWork.potentiometer2;
2397:HANcoder_E407_TTA_CombineModel.c **** 
2398:HANcoder_E407_TTA_CombineModel.c ****       /* Outputs for Atomic SubSystem: '<S183>/Bit Shift' */
2399:HANcoder_E407_TTA_CombineModel.c ****       /* DataStoreRead: '<S111>/Data Store Read' */
2400:HANcoder_E407_TTA_CombineModel.c ****       BitShift_o(rtDWork.potentiometer1, &rtB.BitShift_ph);
2401:HANcoder_E407_TTA_CombineModel.c **** 
2402:HANcoder_E407_TTA_CombineModel.c ****       /* End of Outputs for SubSystem: '<S183>/Bit Shift' */
2403:HANcoder_E407_TTA_CombineModel.c **** 
2404:HANcoder_E407_TTA_CombineModel.c ****       /* DataTypeConversion: '<S183>/Cast' */
2405:HANcoder_E407_TTA_CombineModel.c ****       rtB.Cast_j = (uint8_T)rtB.BitShift_ph.y;
2406:HANcoder_E407_TTA_CombineModel.c **** 
2407:HANcoder_E407_TTA_CombineModel.c ****       /* DataTypeConversion: '<S183>/Cast1' incorporates:
2408:HANcoder_E407_TTA_CombineModel.c ****        *  DataStoreRead: '<S111>/Data Store Read'
2409:HANcoder_E407_TTA_CombineModel.c ****        */
2410:HANcoder_E407_TTA_CombineModel.c ****       rtB.Cast1_ig = (uint8_T)rtDWork.potentiometer1;
2411:HANcoder_E407_TTA_CombineModel.c **** 
2412:HANcoder_E407_TTA_CombineModel.c ****       /* Update for M-S-Function: '<S180>/S-Function' incorporates:
2413:HANcoder_E407_TTA_CombineModel.c ****        *  Constant: '<S10>/Constant26'
2414:HANcoder_E407_TTA_CombineModel.c ****        *  Constant: '<S111>/Constant'
2415:HANcoder_E407_TTA_CombineModel.c ****        *  Constant: '<S111>/Constant1'
2416:HANcoder_E407_TTA_CombineModel.c ****        */
2417:HANcoder_E407_TTA_CombineModel.c ****       {
2418:HANcoder_E407_TTA_CombineModel.c ****         /* prepare the data */
2419:HANcoder_E407_TTA_CombineModel.c ****         canTxData.uint8_T_info[0] = rtB.Cast_j;
2420:HANcoder_E407_TTA_CombineModel.c ****         canTxData.uint8_T_info[1] = rtB.Cast1_ig;
2421:HANcoder_E407_TTA_CombineModel.c ****         canTxData.uint8_T_info[2] = rtB.Cast_o;
2422:HANcoder_E407_TTA_CombineModel.c ****         canTxData.uint8_T_info[3] = rtB.Cast1_nt;
2423:HANcoder_E407_TTA_CombineModel.c ****         canTxData.uint8_T_info[4] = rtB.DataStoreRead2_l;
2424:HANcoder_E407_TTA_CombineModel.c ****         canTxData.uint8_T_info[5] = ((uint8_T)0U);
2425:HANcoder_E407_TTA_CombineModel.c ****         canTxData.uint8_T_info[6] = rtB.Add_jr;
2426:HANcoder_E407_TTA_CombineModel.c ****         canTxData.uint8_T_info[7] = ((uint8_T)0U);
2427:HANcoder_E407_TTA_CombineModel.c **** 
2428:HANcoder_E407_TTA_CombineModel.c ****         /* send the data */
2429:HANcoder_E407_TTA_CombineModel.c ****         CanTransmit(0, TRCK1_ID3, 8, &canTxData.uint8_T_info[0]);
2430:HANcoder_E407_TTA_CombineModel.c ****       }
2431:HANcoder_E407_TTA_CombineModel.c ****     }
2432:HANcoder_E407_TTA_CombineModel.c **** 
2433:HANcoder_E407_TTA_CombineModel.c ****     rtPrevZCSigState.TRCK1_ID3_TX_Trig_ZCE = rtb_DataStoreRead11;
 2132              		.loc 1 2433 5 is_stmt 1 view .LVU743
 2133              		.loc 1 2433 44 is_stmt 0 view .LVU744
 2134 02b2 8AF80530 		strb	r3, [r10, #5]
2434:HANcoder_E407_TTA_CombineModel.c **** 
2435:HANcoder_E407_TTA_CombineModel.c ****     /* End of Outputs for SubSystem: '<S10>/TRCK1_ID3_TX' */
2436:HANcoder_E407_TTA_CombineModel.c **** 
2437:HANcoder_E407_TTA_CombineModel.c ****     /* RelationalOperator: '<S10>/Equal13' incorporates:
2438:HANcoder_E407_TTA_CombineModel.c ****      *  Constant: '<S10>/Constant17'
2439:HANcoder_E407_TTA_CombineModel.c ****      */
2440:HANcoder_E407_TTA_CombineModel.c ****     rtb_DataStoreRead11 = (slotSelected == 4.0);
 2135              		.loc 1 2440 5 is_stmt 1 view .LVU745
 2136              	.LVL117:
2441:HANcoder_E407_TTA_CombineModel.c **** 
2442:HANcoder_E407_TTA_CombineModel.c ****     /* RelationalOperator: '<S10>/Equal3' incorporates:
2443:HANcoder_E407_TTA_CombineModel.c ****      *  Constant: '<S10>/Constant16'
2444:HANcoder_E407_TTA_CombineModel.c ****      *  DataStoreRead: '<S1>/Data Store Read1'
2445:HANcoder_E407_TTA_CombineModel.c ****      */
2446:HANcoder_E407_TTA_CombineModel.c ****     rtb_OR = (rtDWork.Board_ID == 1.0);
 2137              		.loc 1 2446 5 view .LVU746
2447:HANcoder_E407_TTA_CombineModel.c **** 
2448:HANcoder_E407_TTA_CombineModel.c ****     /* Logic: '<S10>/AND7' incorporates:
2449:HANcoder_E407_TTA_CombineModel.c ****      *  Logic: '<S10>/NOT3'
2450:HANcoder_E407_TTA_CombineModel.c ****      */
2451:HANcoder_E407_TTA_CombineModel.c ****     rtb_AND7 = (rtb_DataStoreRead11 && (!rtb_OR));
 2138              		.loc 1 2451 5 view .LVU747
 2139              	.L169:
2452:HANcoder_E407_TTA_CombineModel.c **** 
2453:HANcoder_E407_TTA_CombineModel.c ****     /* Outputs for Enabled SubSystem: '<S10>/TRCK1_RX' incorporates:
2454:HANcoder_E407_TTA_CombineModel.c ****      *  EnablePort: '<S112>/Enable'
2455:HANcoder_E407_TTA_CombineModel.c ****      */
2456:HANcoder_E407_TTA_CombineModel.c ****     if (rtb_AND7) {
 2140              		.loc 1 2456 5 view .LVU748
2457:HANcoder_E407_TTA_CombineModel.c ****       rtDWork.TRCK1_RX_MODE = true;
2458:HANcoder_E407_TTA_CombineModel.c **** 
2459:HANcoder_E407_TTA_CombineModel.c ****       /* M-S-Function: '<S204>/S-Function' incorporates:
2460:HANcoder_E407_TTA_CombineModel.c ****        *  Constant: '<S10>/Constant3'
2461:HANcoder_E407_TTA_CombineModel.c ****        */
2462:HANcoder_E407_TTA_CombineModel.c **** 
2463:HANcoder_E407_TTA_CombineModel.c ****       /* read the message data and store the new parameter */
2464:HANcoder_E407_TTA_CombineModel.c ****       rtb_SFunction_o1_ns = CanIoGetMessage(0, TRCK1_ID1, NULL,
2465:HANcoder_E407_TTA_CombineModel.c ****         &canRxData_0_TRCK1_ID1.uint8_T_info[0], NULL);
2466:HANcoder_E407_TTA_CombineModel.c **** 
2467:HANcoder_E407_TTA_CombineModel.c ****       /* process the message data */
2468:HANcoder_E407_TTA_CombineModel.c ****       if (rtb_SFunction_o1_ns > 0) {
2469:HANcoder_E407_TTA_CombineModel.c ****         /* read the data */
2470:HANcoder_E407_TTA_CombineModel.c ****         rtb_SFunction_o2_i = canRxData_0_TRCK1_ID1.uint8_T_info[0];
2471:HANcoder_E407_TTA_CombineModel.c ****         rtb_SFunction_o3_i = canRxData_0_TRCK1_ID1.uint8_T_info[1];
2472:HANcoder_E407_TTA_CombineModel.c ****         rtb_SFunction_o4_n = canRxData_0_TRCK1_ID1.uint8_T_info[2];
2473:HANcoder_E407_TTA_CombineModel.c ****         rtb_SFunction_o5_p = canRxData_0_TRCK1_ID1.uint8_T_info[3];
2474:HANcoder_E407_TTA_CombineModel.c ****         rtb_SFunction_o6_g = canRxData_0_TRCK1_ID1.uint8_T_info[4];
2475:HANcoder_E407_TTA_CombineModel.c ****         rtb_SFunction_o7_fg = canRxData_0_TRCK1_ID1.uint8_T_info[5];
2476:HANcoder_E407_TTA_CombineModel.c ****         rtb_SFunction_o8_i = canRxData_0_TRCK1_ID1.uint8_T_info[6];
2477:HANcoder_E407_TTA_CombineModel.c ****         rtb_SFunction_o9_o = canRxData_0_TRCK1_ID1.uint8_T_info[7];
2478:HANcoder_E407_TTA_CombineModel.c ****       }
2479:HANcoder_E407_TTA_CombineModel.c **** 
2480:HANcoder_E407_TTA_CombineModel.c ****       /* Outputs for Enabled SubSystem: '<S204>/Enabled Subsystem' */
2481:HANcoder_E407_TTA_CombineModel.c ****       EnabledSubsystem(rtb_SFunction_o1_ns, rtb_SFunction_o2_i,
2482:HANcoder_E407_TTA_CombineModel.c ****                        rtb_SFunction_o3_i, rtb_SFunction_o4_n,
2483:HANcoder_E407_TTA_CombineModel.c ****                        rtb_SFunction_o5_p, rtb_SFunction_o6_g,
2484:HANcoder_E407_TTA_CombineModel.c ****                        rtb_SFunction_o7_fg, rtb_SFunction_o8_i,
2485:HANcoder_E407_TTA_CombineModel.c ****                        rtb_SFunction_o9_o, &rtB.EnabledSubsystem_hn);
2486:HANcoder_E407_TTA_CombineModel.c **** 
2487:HANcoder_E407_TTA_CombineModel.c ****       /* End of Outputs for SubSystem: '<S204>/Enabled Subsystem' */
2488:HANcoder_E407_TTA_CombineModel.c **** 
2489:HANcoder_E407_TTA_CombineModel.c ****       /* DataTypeConversion: '<S203>/Cast' */
2490:HANcoder_E407_TTA_CombineModel.c ****       rtb_Cast_ci = rtB.EnabledSubsystem_hn.In1;
2491:HANcoder_E407_TTA_CombineModel.c **** 
2492:HANcoder_E407_TTA_CombineModel.c ****       /* Outputs for Atomic SubSystem: '<S203>/Bit Shift' */
2493:HANcoder_E407_TTA_CombineModel.c ****       BitShift(rtb_Cast_ci, &rtB.BitShift_j);
2494:HANcoder_E407_TTA_CombineModel.c **** 
2495:HANcoder_E407_TTA_CombineModel.c ****       /* End of Outputs for SubSystem: '<S203>/Bit Shift' */
2496:HANcoder_E407_TTA_CombineModel.c **** 
2497:HANcoder_E407_TTA_CombineModel.c ****       /* Sum: '<S203>/Add' incorporates:
2498:HANcoder_E407_TTA_CombineModel.c ****        *  DataTypeConversion: '<S203>/Cast1'
2499:HANcoder_E407_TTA_CombineModel.c ****        */
2500:HANcoder_E407_TTA_CombineModel.c ****       pot11 = (uint16_T)((uint32_T)rtB.BitShift_j.y +
2501:HANcoder_E407_TTA_CombineModel.c ****                          rtB.EnabledSubsystem_hn.In2);
2502:HANcoder_E407_TTA_CombineModel.c **** 
2503:HANcoder_E407_TTA_CombineModel.c ****       /* DataTypeConversion: '<S202>/Cast' */
2504:HANcoder_E407_TTA_CombineModel.c ****       rtb_Cast_o = rtB.EnabledSubsystem_hn.In3;
2505:HANcoder_E407_TTA_CombineModel.c **** 
2506:HANcoder_E407_TTA_CombineModel.c ****       /* Outputs for Atomic SubSystem: '<S202>/Bit Shift' */
2507:HANcoder_E407_TTA_CombineModel.c ****       BitShift(rtb_Cast_o, &rtB.BitShift_k);
2508:HANcoder_E407_TTA_CombineModel.c **** 
2509:HANcoder_E407_TTA_CombineModel.c ****       /* End of Outputs for SubSystem: '<S202>/Bit Shift' */
2510:HANcoder_E407_TTA_CombineModel.c **** 
2511:HANcoder_E407_TTA_CombineModel.c ****       /* Sum: '<S202>/Add' incorporates:
2512:HANcoder_E407_TTA_CombineModel.c ****        *  DataTypeConversion: '<S202>/Cast1'
2513:HANcoder_E407_TTA_CombineModel.c ****        */
2514:HANcoder_E407_TTA_CombineModel.c ****       pot12 = (uint16_T)((uint32_T)rtB.BitShift_k.y +
2515:HANcoder_E407_TTA_CombineModel.c ****                          rtB.EnabledSubsystem_hn.In4);
2516:HANcoder_E407_TTA_CombineModel.c **** 
2517:HANcoder_E407_TTA_CombineModel.c ****       /* Outputs for Atomic SubSystem: '<S205>/Bit Shift' */
2518:HANcoder_E407_TTA_CombineModel.c ****       BitShift_g(rtB.EnabledSubsystem_hn.In7, &rtB.BitShift_c);
2519:HANcoder_E407_TTA_CombineModel.c **** 
2520:HANcoder_E407_TTA_CombineModel.c ****       /* End of Outputs for SubSystem: '<S205>/Bit Shift' */
2521:HANcoder_E407_TTA_CombineModel.c **** 
2522:HANcoder_E407_TTA_CombineModel.c ****       /* Outputs for Atomic SubSystem: '<S205>/Bit Shift7' */
2523:HANcoder_E407_TTA_CombineModel.c ****       BitShift_g(rtB.EnabledSubsystem_hn.In7, &rtB.BitShift7_e);
2524:HANcoder_E407_TTA_CombineModel.c **** 
2525:HANcoder_E407_TTA_CombineModel.c ****       /* End of Outputs for SubSystem: '<S205>/Bit Shift7' */
2526:HANcoder_E407_TTA_CombineModel.c **** 
2527:HANcoder_E407_TTA_CombineModel.c ****       /* Outputs for Atomic SubSystem: '<S205>/Bit Shift1' */
2528:HANcoder_E407_TTA_CombineModel.c ****       BitShift1(rtB.EnabledSubsystem_hn.In7, &rtB.BitShift1_l);
2529:HANcoder_E407_TTA_CombineModel.c **** 
2530:HANcoder_E407_TTA_CombineModel.c ****       /* End of Outputs for SubSystem: '<S205>/Bit Shift1' */
2531:HANcoder_E407_TTA_CombineModel.c **** 
2532:HANcoder_E407_TTA_CombineModel.c ****       /* Outputs for Atomic SubSystem: '<S205>/Bit Shift2' */
2533:HANcoder_E407_TTA_CombineModel.c ****       BitShift2(rtB.EnabledSubsystem_hn.In7, &rtB.BitShift2_c);
2534:HANcoder_E407_TTA_CombineModel.c **** 
2535:HANcoder_E407_TTA_CombineModel.c ****       /* End of Outputs for SubSystem: '<S205>/Bit Shift2' */
2536:HANcoder_E407_TTA_CombineModel.c **** 
2537:HANcoder_E407_TTA_CombineModel.c ****       /* Outputs for Atomic SubSystem: '<S205>/Bit Shift3' */
2538:HANcoder_E407_TTA_CombineModel.c ****       BitShift3(rtB.EnabledSubsystem_hn.In7, &rtB.BitShift3_lj);
2539:HANcoder_E407_TTA_CombineModel.c **** 
2540:HANcoder_E407_TTA_CombineModel.c ****       /* End of Outputs for SubSystem: '<S205>/Bit Shift3' */
2541:HANcoder_E407_TTA_CombineModel.c **** 
2542:HANcoder_E407_TTA_CombineModel.c ****       /* Outputs for Atomic SubSystem: '<S205>/Bit Shift4' */
2543:HANcoder_E407_TTA_CombineModel.c ****       BitShift4(rtB.EnabledSubsystem_hn.In7, &rtB.BitShift4_a);
2544:HANcoder_E407_TTA_CombineModel.c **** 
2545:HANcoder_E407_TTA_CombineModel.c ****       /* End of Outputs for SubSystem: '<S205>/Bit Shift4' */
2546:HANcoder_E407_TTA_CombineModel.c **** 
2547:HANcoder_E407_TTA_CombineModel.c ****       /* Outputs for Atomic SubSystem: '<S205>/Bit Shift5' */
2548:HANcoder_E407_TTA_CombineModel.c ****       BitShift5(rtB.EnabledSubsystem_hn.In7, &rtB.BitShift5_bs);
2549:HANcoder_E407_TTA_CombineModel.c **** 
2550:HANcoder_E407_TTA_CombineModel.c ****       /* End of Outputs for SubSystem: '<S205>/Bit Shift5' */
2551:HANcoder_E407_TTA_CombineModel.c **** 
2552:HANcoder_E407_TTA_CombineModel.c ****       /* Outputs for Atomic SubSystem: '<S205>/Bit Shift6' */
2553:HANcoder_E407_TTA_CombineModel.c ****       BitShift6(rtB.EnabledSubsystem_hn.In7, &rtB.BitShift6_i);
2554:HANcoder_E407_TTA_CombineModel.c **** 
2555:HANcoder_E407_TTA_CombineModel.c ****       /* End of Outputs for SubSystem: '<S205>/Bit Shift6' */
2556:HANcoder_E407_TTA_CombineModel.c ****     } else if (rtDWork.TRCK1_RX_MODE) {
 2141              		.loc 1 2556 12 view .LVU749
 2142              		.loc 1 2556 15 is_stmt 0 view .LVU750
 2143 02b6 94F80131 		ldrb	r3, [r4, #257]	@ zero_extendqisi2
 2144 02ba 13B1     		cbz	r3, .L172
2557:HANcoder_E407_TTA_CombineModel.c ****       rtDWork.TRCK1_RX_MODE = false;
 2145              		.loc 1 2557 7 is_stmt 1 view .LVU751
 2146              		.loc 1 2557 29 is_stmt 0 view .LVU752
 2147 02bc 0023     		movs	r3, #0
 2148 02be 84F80131 		strb	r3, [r4, #257]
2558:HANcoder_E407_TTA_CombineModel.c ****     }
2559:HANcoder_E407_TTA_CombineModel.c **** 
2560:HANcoder_E407_TTA_CombineModel.c ****     /* End of Outputs for SubSystem: '<S10>/TRCK1_RX' */
2561:HANcoder_E407_TTA_CombineModel.c **** 
2562:HANcoder_E407_TTA_CombineModel.c ****     /* Logic: '<S10>/AND6' */
2563:HANcoder_E407_TTA_CombineModel.c ****     rtb_DataStoreRead11 = (rtb_DataStoreRead11 && rtb_OR);
 2149              		.loc 1 2563 5 is_stmt 1 view .LVU753
 2150              	.LVL118:
 2151              	.L172:
2564:HANcoder_E407_TTA_CombineModel.c **** 
2565:HANcoder_E407_TTA_CombineModel.c ****     /* Outputs for Triggered SubSystem: '<S10>/TRCK1_TX' incorporates:
2566:HANcoder_E407_TTA_CombineModel.c ****      *  TriggerPort: '<S113>/Trigger'
2567:HANcoder_E407_TTA_CombineModel.c ****      */
2568:HANcoder_E407_TTA_CombineModel.c ****     if (rtb_DataStoreRead11 && (rtPrevZCSigState.TRCK1_TX_Trig_ZCE != POS_ZCSIG))
 2152              		.loc 1 2568 5 view .LVU754
2563:HANcoder_E407_TTA_CombineModel.c **** 
 2153              		.loc 1 2563 25 is_stmt 0 view .LVU755
 2154 02c2 0023     		movs	r3, #0
 2155              	.LVL119:
 2156              	.L227:
2569:HANcoder_E407_TTA_CombineModel.c ****     {
2570:HANcoder_E407_TTA_CombineModel.c ****       /* DataStoreRead: '<S113>/Data Store Read2' */
2571:HANcoder_E407_TTA_CombineModel.c ****       rtB.DataStoreRead2_h = rtDWork.Local_Ticks;
2572:HANcoder_E407_TTA_CombineModel.c **** 
2573:HANcoder_E407_TTA_CombineModel.c ****       /* DataStoreRead: '<S113>/Data Store Read4' */
2574:HANcoder_E407_TTA_CombineModel.c ****       potFaultDetected = rtDWork.potFault;
2575:HANcoder_E407_TTA_CombineModel.c **** 
2576:HANcoder_E407_TTA_CombineModel.c ****       /* DataTypeConversion: '<S228>/Cast1' */
2577:HANcoder_E407_TTA_CombineModel.c ****       rtb_Cast1_n = potFaultDetected;
2578:HANcoder_E407_TTA_CombineModel.c **** 
2579:HANcoder_E407_TTA_CombineModel.c ****       /* Outputs for Atomic SubSystem: '<S228>/Bit Shift1' */
2580:HANcoder_E407_TTA_CombineModel.c ****       BitShift1_b(rtb_Cast1_n, &rtB.BitShift1_n);
2581:HANcoder_E407_TTA_CombineModel.c **** 
2582:HANcoder_E407_TTA_CombineModel.c ****       /* End of Outputs for SubSystem: '<S228>/Bit Shift1' */
2583:HANcoder_E407_TTA_CombineModel.c **** 
2584:HANcoder_E407_TTA_CombineModel.c ****       /* Outputs for Atomic SubSystem: '<S228>/Bit Shift' */
2585:HANcoder_E407_TTA_CombineModel.c ****       BitShift_gy(rtConstB.Cast_f, &rtB.BitShift_gk);
2586:HANcoder_E407_TTA_CombineModel.c **** 
2587:HANcoder_E407_TTA_CombineModel.c ****       /* End of Outputs for SubSystem: '<S228>/Bit Shift' */
2588:HANcoder_E407_TTA_CombineModel.c **** 
2589:HANcoder_E407_TTA_CombineModel.c ****       /* Outputs for Atomic SubSystem: '<S228>/Bit Shift2' */
2590:HANcoder_E407_TTA_CombineModel.c ****       BitShift2_p(rtConstB.Cast2_i, &rtB.BitShift2_b);
2591:HANcoder_E407_TTA_CombineModel.c **** 
2592:HANcoder_E407_TTA_CombineModel.c ****       /* End of Outputs for SubSystem: '<S228>/Bit Shift2' */
2593:HANcoder_E407_TTA_CombineModel.c **** 
2594:HANcoder_E407_TTA_CombineModel.c ****       /* Outputs for Atomic SubSystem: '<S228>/Bit Shift3' */
2595:HANcoder_E407_TTA_CombineModel.c ****       BitShift3_l(rtConstB.Cast3_k, &rtB.BitShift3_b);
2596:HANcoder_E407_TTA_CombineModel.c **** 
2597:HANcoder_E407_TTA_CombineModel.c ****       /* End of Outputs for SubSystem: '<S228>/Bit Shift3' */
2598:HANcoder_E407_TTA_CombineModel.c **** 
2599:HANcoder_E407_TTA_CombineModel.c ****       /* Outputs for Atomic SubSystem: '<S228>/Bit Shift4' */
2600:HANcoder_E407_TTA_CombineModel.c ****       BitShift4_g(rtConstB.Cast4_b, &rtB.BitShift4_f);
2601:HANcoder_E407_TTA_CombineModel.c **** 
2602:HANcoder_E407_TTA_CombineModel.c ****       /* End of Outputs for SubSystem: '<S228>/Bit Shift4' */
2603:HANcoder_E407_TTA_CombineModel.c **** 
2604:HANcoder_E407_TTA_CombineModel.c ****       /* Outputs for Atomic SubSystem: '<S228>/Bit Shift5' */
2605:HANcoder_E407_TTA_CombineModel.c ****       BitShift5_n(rtConstB.Cast5_k, &rtB.BitShift5_i);
2606:HANcoder_E407_TTA_CombineModel.c **** 
2607:HANcoder_E407_TTA_CombineModel.c ****       /* End of Outputs for SubSystem: '<S228>/Bit Shift5' */
2608:HANcoder_E407_TTA_CombineModel.c **** 
2609:HANcoder_E407_TTA_CombineModel.c ****       /* Outputs for Atomic SubSystem: '<S228>/Bit Shift6' */
2610:HANcoder_E407_TTA_CombineModel.c ****       BitShift6_d(rtConstB.Cast6_i, &rtB.BitShift6_e);
2611:HANcoder_E407_TTA_CombineModel.c **** 
2612:HANcoder_E407_TTA_CombineModel.c ****       /* End of Outputs for SubSystem: '<S228>/Bit Shift6' */
2613:HANcoder_E407_TTA_CombineModel.c **** 
2614:HANcoder_E407_TTA_CombineModel.c ****       /* Sum: '<S228>/Add' incorporates:
2615:HANcoder_E407_TTA_CombineModel.c ****        *  DataStoreRead: '<S113>/Data Store Read3'
2616:HANcoder_E407_TTA_CombineModel.c ****        *  DataTypeConversion: '<S228>/Cast7'
2617:HANcoder_E407_TTA_CombineModel.c ****        */
2618:HANcoder_E407_TTA_CombineModel.c ****       rtB.Add_j = (uint8_T)((uint32_T)(uint8_T)((uint32_T)(uint8_T)((uint32_T)
2619:HANcoder_E407_TTA_CombineModel.c ****         (uint8_T)((uint32_T)(uint8_T)((uint32_T)(uint8_T)((uint32_T)(uint8_T)
2620:HANcoder_E407_TTA_CombineModel.c ****         ((uint32_T)rtDWork.motorFailed + rtB.BitShift1_n.y) + rtB.BitShift_gk.y)
2621:HANcoder_E407_TTA_CombineModel.c ****         + rtB.BitShift2_b.y) + rtB.BitShift3_b.y) + rtB.BitShift4_f.y) +
2622:HANcoder_E407_TTA_CombineModel.c ****         rtB.BitShift5_i.y) + rtB.BitShift6_e.y);
2623:HANcoder_E407_TTA_CombineModel.c **** 
2624:HANcoder_E407_TTA_CombineModel.c ****       /* Outputs for Atomic SubSystem: '<S229>/Bit Shift' */
2625:HANcoder_E407_TTA_CombineModel.c ****       /* DataStoreRead: '<S113>/Data Store Read1' */
2626:HANcoder_E407_TTA_CombineModel.c ****       BitShift_o(rtDWork.potentiometer2, &rtB.BitShift_jy);
2627:HANcoder_E407_TTA_CombineModel.c **** 
2628:HANcoder_E407_TTA_CombineModel.c ****       /* End of Outputs for SubSystem: '<S229>/Bit Shift' */
2629:HANcoder_E407_TTA_CombineModel.c **** 
2630:HANcoder_E407_TTA_CombineModel.c ****       /* DataTypeConversion: '<S229>/Cast' */
2631:HANcoder_E407_TTA_CombineModel.c ****       rtB.Cast_p = (uint8_T)rtB.BitShift_jy.y;
2632:HANcoder_E407_TTA_CombineModel.c **** 
2633:HANcoder_E407_TTA_CombineModel.c ****       /* DataTypeConversion: '<S229>/Cast1' incorporates:
2634:HANcoder_E407_TTA_CombineModel.c ****        *  DataStoreRead: '<S113>/Data Store Read1'
2635:HANcoder_E407_TTA_CombineModel.c ****        */
2636:HANcoder_E407_TTA_CombineModel.c ****       rtB.Cast1_b = (uint8_T)rtDWork.potentiometer2;
2637:HANcoder_E407_TTA_CombineModel.c **** 
2638:HANcoder_E407_TTA_CombineModel.c ****       /* Outputs for Atomic SubSystem: '<S230>/Bit Shift' */
2639:HANcoder_E407_TTA_CombineModel.c ****       /* DataStoreRead: '<S113>/Data Store Read' */
2640:HANcoder_E407_TTA_CombineModel.c ****       BitShift_o(rtDWork.potentiometer1, &rtB.BitShift_b);
2641:HANcoder_E407_TTA_CombineModel.c **** 
2642:HANcoder_E407_TTA_CombineModel.c ****       /* End of Outputs for SubSystem: '<S230>/Bit Shift' */
2643:HANcoder_E407_TTA_CombineModel.c **** 
2644:HANcoder_E407_TTA_CombineModel.c ****       /* DataTypeConversion: '<S230>/Cast' */
2645:HANcoder_E407_TTA_CombineModel.c ****       rtB.Cast_a = (uint8_T)rtB.BitShift_b.y;
2646:HANcoder_E407_TTA_CombineModel.c **** 
2647:HANcoder_E407_TTA_CombineModel.c ****       /* DataTypeConversion: '<S230>/Cast1' incorporates:
2648:HANcoder_E407_TTA_CombineModel.c ****        *  DataStoreRead: '<S113>/Data Store Read'
2649:HANcoder_E407_TTA_CombineModel.c ****        */
2650:HANcoder_E407_TTA_CombineModel.c ****       rtB.Cast1_n = (uint8_T)rtDWork.potentiometer1;
2651:HANcoder_E407_TTA_CombineModel.c **** 
2652:HANcoder_E407_TTA_CombineModel.c ****       /* Update for M-S-Function: '<S227>/S-Function' incorporates:
2653:HANcoder_E407_TTA_CombineModel.c ****        *  Constant: '<S10>/Constant3'
2654:HANcoder_E407_TTA_CombineModel.c ****        *  Constant: '<S113>/Constant'
2655:HANcoder_E407_TTA_CombineModel.c ****        *  Constant: '<S113>/Constant1'
2656:HANcoder_E407_TTA_CombineModel.c ****        */
2657:HANcoder_E407_TTA_CombineModel.c ****       {
2658:HANcoder_E407_TTA_CombineModel.c ****         /* prepare the data */
2659:HANcoder_E407_TTA_CombineModel.c ****         canTxData.uint8_T_info[0] = rtB.Cast_a;
2660:HANcoder_E407_TTA_CombineModel.c ****         canTxData.uint8_T_info[1] = rtB.Cast1_n;
2661:HANcoder_E407_TTA_CombineModel.c ****         canTxData.uint8_T_info[2] = rtB.Cast_p;
2662:HANcoder_E407_TTA_CombineModel.c ****         canTxData.uint8_T_info[3] = rtB.Cast1_b;
2663:HANcoder_E407_TTA_CombineModel.c ****         canTxData.uint8_T_info[4] = rtB.DataStoreRead2_h;
2664:HANcoder_E407_TTA_CombineModel.c ****         canTxData.uint8_T_info[5] = ((uint8_T)0U);
2665:HANcoder_E407_TTA_CombineModel.c ****         canTxData.uint8_T_info[6] = rtB.Add_j;
2666:HANcoder_E407_TTA_CombineModel.c ****         canTxData.uint8_T_info[7] = ((uint8_T)0U);
2667:HANcoder_E407_TTA_CombineModel.c **** 
2668:HANcoder_E407_TTA_CombineModel.c ****         /* send the data */
2669:HANcoder_E407_TTA_CombineModel.c ****         CanTransmit(0, TRCK1_ID1, 8, &canTxData.uint8_T_info[0]);
2670:HANcoder_E407_TTA_CombineModel.c ****       }
2671:HANcoder_E407_TTA_CombineModel.c ****     }
2672:HANcoder_E407_TTA_CombineModel.c **** 
2673:HANcoder_E407_TTA_CombineModel.c ****     rtPrevZCSigState.TRCK1_TX_Trig_ZCE = rtb_DataStoreRead11;
 2157              		.loc 1 2673 5 is_stmt 1 view .LVU756
2674:HANcoder_E407_TTA_CombineModel.c **** 
2675:HANcoder_E407_TTA_CombineModel.c ****     /* End of Outputs for SubSystem: '<S10>/TRCK1_TX' */
2676:HANcoder_E407_TTA_CombineModel.c **** 
2677:HANcoder_E407_TTA_CombineModel.c ****     /* Outputs for Enabled SubSystem: '<S10>/TRCK_ID3_RX' incorporates:
2678:HANcoder_E407_TTA_CombineModel.c ****      *  EnablePort: '<S114>/Enable'
2679:HANcoder_E407_TTA_CombineModel.c ****      */
2680:HANcoder_E407_TTA_CombineModel.c ****     /* Logic: '<S10>/AND11' incorporates:
2681:HANcoder_E407_TTA_CombineModel.c ****      *  Logic: '<S10>/NOT5'
2682:HANcoder_E407_TTA_CombineModel.c ****      */
2683:HANcoder_E407_TTA_CombineModel.c ****     if (rtb_OR1 && (!rtb_AND_du)) {
 2158              		.loc 1 2683 8 is_stmt 0 view .LVU757
 2159 02c4 F1EE0C7A 		vmov.f32	s15, #7.0e+0
 2160 02c8 B4EE678A 		vcmp.f32	s16, s15
 2161 02cc F1EE10FA 		vmrs	APSR_nzcv, FPSCR
2673:HANcoder_E407_TTA_CombineModel.c **** 
 2162              		.loc 1 2673 40 view .LVU758
 2163 02d0 8AF80430 		strb	r3, [r10, #4]
 2164              		.loc 1 2683 5 is_stmt 1 view .LVU759
 2165              		.loc 1 2683 8 is_stmt 0 view .LVU760
 2166 02d4 07D1     		bne	.L173
 2167              		.loc 1 2683 17 discriminator 1 view .LVU761
 2168 02d6 F0EE087A 		vmov.f32	s15, #3.0e+0
 2169 02da F4EE678A 		vcmp.f32	s17, s15
 2170 02de F1EE10FA 		vmrs	APSR_nzcv, FPSCR
 2171 02e2 41F02183 		bne	.L420
 2172              	.L173:
2684:HANcoder_E407_TTA_CombineModel.c ****       rtDWork.TRCK_ID3_RX_MODE = true;
2685:HANcoder_E407_TTA_CombineModel.c **** 
2686:HANcoder_E407_TTA_CombineModel.c ****       /* M-S-Function: '<S251>/S-Function' incorporates:
2687:HANcoder_E407_TTA_CombineModel.c ****        *  Constant: '<S10>/Constant26'
2688:HANcoder_E407_TTA_CombineModel.c ****        */
2689:HANcoder_E407_TTA_CombineModel.c **** 
2690:HANcoder_E407_TTA_CombineModel.c ****       /* read the message data and store the new parameter */
2691:HANcoder_E407_TTA_CombineModel.c ****       rtb_SFunction_o1_k1 = CanIoGetMessage(0, TRCK1_ID3, NULL,
2692:HANcoder_E407_TTA_CombineModel.c ****         &canRxData_0_TRCK1_ID3.uint8_T_info[0], NULL);
2693:HANcoder_E407_TTA_CombineModel.c **** 
2694:HANcoder_E407_TTA_CombineModel.c ****       /* process the message data */
2695:HANcoder_E407_TTA_CombineModel.c ****       if (rtb_SFunction_o1_k1 > 0) {
2696:HANcoder_E407_TTA_CombineModel.c ****         /* read the data */
2697:HANcoder_E407_TTA_CombineModel.c ****         rtb_SFunction_o2_j = canRxData_0_TRCK1_ID3.uint8_T_info[0];
2698:HANcoder_E407_TTA_CombineModel.c ****         rtb_SFunction_o3_a = canRxData_0_TRCK1_ID3.uint8_T_info[1];
2699:HANcoder_E407_TTA_CombineModel.c ****         rtb_SFunction_o4_i = canRxData_0_TRCK1_ID3.uint8_T_info[2];
2700:HANcoder_E407_TTA_CombineModel.c ****         rtb_SFunction_o5_k = canRxData_0_TRCK1_ID3.uint8_T_info[3];
2701:HANcoder_E407_TTA_CombineModel.c ****         rtb_SFunction_o6_c = canRxData_0_TRCK1_ID3.uint8_T_info[4];
2702:HANcoder_E407_TTA_CombineModel.c ****         rtb_SFunction_o7_d = canRxData_0_TRCK1_ID3.uint8_T_info[5];
2703:HANcoder_E407_TTA_CombineModel.c ****         rtb_SFunction_o8_h = canRxData_0_TRCK1_ID3.uint8_T_info[6];
2704:HANcoder_E407_TTA_CombineModel.c ****         rtb_SFunction_o9_b = canRxData_0_TRCK1_ID3.uint8_T_info[7];
2705:HANcoder_E407_TTA_CombineModel.c ****       }
2706:HANcoder_E407_TTA_CombineModel.c **** 
2707:HANcoder_E407_TTA_CombineModel.c ****       /* Outputs for Enabled SubSystem: '<S251>/Enabled Subsystem' */
2708:HANcoder_E407_TTA_CombineModel.c ****       EnabledSubsystem(rtb_SFunction_o1_k1, rtb_SFunction_o2_j,
2709:HANcoder_E407_TTA_CombineModel.c ****                        rtb_SFunction_o3_a, rtb_SFunction_o4_i,
2710:HANcoder_E407_TTA_CombineModel.c ****                        rtb_SFunction_o5_k, rtb_SFunction_o6_c,
2711:HANcoder_E407_TTA_CombineModel.c ****                        rtb_SFunction_o7_d, rtb_SFunction_o8_h,
2712:HANcoder_E407_TTA_CombineModel.c ****                        rtb_SFunction_o9_b, &rtB.EnabledSubsystem_bj);
2713:HANcoder_E407_TTA_CombineModel.c **** 
2714:HANcoder_E407_TTA_CombineModel.c ****       /* End of Outputs for SubSystem: '<S251>/Enabled Subsystem' */
2715:HANcoder_E407_TTA_CombineModel.c **** 
2716:HANcoder_E407_TTA_CombineModel.c ****       /* DataTypeConversion: '<S250>/Cast' */
2717:HANcoder_E407_TTA_CombineModel.c ****       rtb_Cast_k = rtB.EnabledSubsystem_bj.In1;
2718:HANcoder_E407_TTA_CombineModel.c **** 
2719:HANcoder_E407_TTA_CombineModel.c ****       /* Outputs for Atomic SubSystem: '<S250>/Bit Shift' */
2720:HANcoder_E407_TTA_CombineModel.c ****       BitShift(rtb_Cast_k, &rtB.BitShift_pe);
2721:HANcoder_E407_TTA_CombineModel.c **** 
2722:HANcoder_E407_TTA_CombineModel.c ****       /* End of Outputs for SubSystem: '<S250>/Bit Shift' */
2723:HANcoder_E407_TTA_CombineModel.c **** 
2724:HANcoder_E407_TTA_CombineModel.c ****       /* Sum: '<S250>/Add' incorporates:
2725:HANcoder_E407_TTA_CombineModel.c ****        *  DataTypeConversion: '<S250>/Cast1'
2726:HANcoder_E407_TTA_CombineModel.c ****        */
2727:HANcoder_E407_TTA_CombineModel.c ****       pot31 = (uint16_T)((uint32_T)rtB.BitShift_pe.y +
2728:HANcoder_E407_TTA_CombineModel.c ****                          rtB.EnabledSubsystem_bj.In2);
2729:HANcoder_E407_TTA_CombineModel.c **** 
2730:HANcoder_E407_TTA_CombineModel.c ****       /* DataTypeConversion: '<S249>/Cast' */
2731:HANcoder_E407_TTA_CombineModel.c ****       rtb_Cast_d1 = rtB.EnabledSubsystem_bj.In3;
2732:HANcoder_E407_TTA_CombineModel.c **** 
2733:HANcoder_E407_TTA_CombineModel.c ****       /* Outputs for Atomic SubSystem: '<S249>/Bit Shift' */
2734:HANcoder_E407_TTA_CombineModel.c ****       BitShift(rtb_Cast_d1, &rtB.BitShift_e3);
2735:HANcoder_E407_TTA_CombineModel.c **** 
2736:HANcoder_E407_TTA_CombineModel.c ****       /* End of Outputs for SubSystem: '<S249>/Bit Shift' */
2737:HANcoder_E407_TTA_CombineModel.c **** 
2738:HANcoder_E407_TTA_CombineModel.c ****       /* Sum: '<S249>/Add' incorporates:
2739:HANcoder_E407_TTA_CombineModel.c ****        *  DataTypeConversion: '<S249>/Cast1'
2740:HANcoder_E407_TTA_CombineModel.c ****        */
2741:HANcoder_E407_TTA_CombineModel.c ****       pot32 = (uint16_T)((uint32_T)rtB.BitShift_e3.y +
2742:HANcoder_E407_TTA_CombineModel.c ****                          rtB.EnabledSubsystem_bj.In4);
2743:HANcoder_E407_TTA_CombineModel.c **** 
2744:HANcoder_E407_TTA_CombineModel.c ****       /* Outputs for Atomic SubSystem: '<S252>/Bit Shift' */
2745:HANcoder_E407_TTA_CombineModel.c ****       BitShift_g(rtB.EnabledSubsystem_bj.In7, &rtB.BitShift_f);
2746:HANcoder_E407_TTA_CombineModel.c **** 
2747:HANcoder_E407_TTA_CombineModel.c ****       /* End of Outputs for SubSystem: '<S252>/Bit Shift' */
2748:HANcoder_E407_TTA_CombineModel.c **** 
2749:HANcoder_E407_TTA_CombineModel.c ****       /* Outputs for Atomic SubSystem: '<S252>/Bit Shift1' */
2750:HANcoder_E407_TTA_CombineModel.c ****       BitShift1(rtB.EnabledSubsystem_bj.In7, &rtB.BitShift1_a);
2751:HANcoder_E407_TTA_CombineModel.c **** 
2752:HANcoder_E407_TTA_CombineModel.c ****       /* End of Outputs for SubSystem: '<S252>/Bit Shift1' */
2753:HANcoder_E407_TTA_CombineModel.c **** 
2754:HANcoder_E407_TTA_CombineModel.c ****       /* Outputs for Atomic SubSystem: '<S252>/Bit Shift2' */
2755:HANcoder_E407_TTA_CombineModel.c ****       BitShift2(rtB.EnabledSubsystem_bj.In7, &rtB.BitShift2_cw);
2756:HANcoder_E407_TTA_CombineModel.c **** 
2757:HANcoder_E407_TTA_CombineModel.c ****       /* End of Outputs for SubSystem: '<S252>/Bit Shift2' */
2758:HANcoder_E407_TTA_CombineModel.c **** 
2759:HANcoder_E407_TTA_CombineModel.c ****       /* Outputs for Atomic SubSystem: '<S252>/Bit Shift3' */
2760:HANcoder_E407_TTA_CombineModel.c ****       BitShift3(rtB.EnabledSubsystem_bj.In7, &rtB.BitShift3_dg);
2761:HANcoder_E407_TTA_CombineModel.c **** 
2762:HANcoder_E407_TTA_CombineModel.c ****       /* End of Outputs for SubSystem: '<S252>/Bit Shift3' */
2763:HANcoder_E407_TTA_CombineModel.c **** 
2764:HANcoder_E407_TTA_CombineModel.c ****       /* Outputs for Atomic SubSystem: '<S252>/Bit Shift4' */
2765:HANcoder_E407_TTA_CombineModel.c ****       BitShift4(rtB.EnabledSubsystem_bj.In7, &rtB.BitShift4_d);
2766:HANcoder_E407_TTA_CombineModel.c **** 
2767:HANcoder_E407_TTA_CombineModel.c ****       /* End of Outputs for SubSystem: '<S252>/Bit Shift4' */
2768:HANcoder_E407_TTA_CombineModel.c **** 
2769:HANcoder_E407_TTA_CombineModel.c ****       /* Outputs for Atomic SubSystem: '<S252>/Bit Shift5' */
2770:HANcoder_E407_TTA_CombineModel.c ****       BitShift5(rtB.EnabledSubsystem_bj.In7, &rtB.BitShift5_c);
2771:HANcoder_E407_TTA_CombineModel.c **** 
2772:HANcoder_E407_TTA_CombineModel.c ****       /* End of Outputs for SubSystem: '<S252>/Bit Shift5' */
2773:HANcoder_E407_TTA_CombineModel.c **** 
2774:HANcoder_E407_TTA_CombineModel.c ****       /* Outputs for Atomic SubSystem: '<S252>/Bit Shift6' */
2775:HANcoder_E407_TTA_CombineModel.c ****       BitShift6(rtB.EnabledSubsystem_bj.In7, &rtB.BitShift6_b);
2776:HANcoder_E407_TTA_CombineModel.c **** 
2777:HANcoder_E407_TTA_CombineModel.c ****       /* End of Outputs for SubSystem: '<S252>/Bit Shift6' */
2778:HANcoder_E407_TTA_CombineModel.c **** 
2779:HANcoder_E407_TTA_CombineModel.c ****       /* Outputs for Atomic SubSystem: '<S252>/Bit Shift7' */
2780:HANcoder_E407_TTA_CombineModel.c ****       BitShift_g(rtB.EnabledSubsystem_bj.In7, &rtB.BitShift7_j);
2781:HANcoder_E407_TTA_CombineModel.c **** 
2782:HANcoder_E407_TTA_CombineModel.c ****       /* End of Outputs for SubSystem: '<S252>/Bit Shift7' */
2783:HANcoder_E407_TTA_CombineModel.c ****     } else if (rtDWork.TRCK_ID3_RX_MODE) {
 2173              		.loc 1 2783 12 is_stmt 1 view .LVU762
 2174              		.loc 1 2783 15 is_stmt 0 view .LVU763
 2175 02e6 94F80031 		ldrb	r3, [r4, #256]	@ zero_extendqisi2
 2176 02ea 13B1     		cbz	r3, .L176
2784:HANcoder_E407_TTA_CombineModel.c ****       rtDWork.TRCK_ID3_RX_MODE = false;
 2177              		.loc 1 2784 7 is_stmt 1 view .LVU764
 2178              		.loc 1 2784 32 is_stmt 0 view .LVU765
 2179 02ec 0023     		movs	r3, #0
 2180 02ee 84F80031 		strb	r3, [r4, #256]
 2181              	.L176:
2785:HANcoder_E407_TTA_CombineModel.c ****     }
2786:HANcoder_E407_TTA_CombineModel.c **** 
2787:HANcoder_E407_TTA_CombineModel.c ****     /* End of Logic: '<S10>/AND11' */
2788:HANcoder_E407_TTA_CombineModel.c ****     /* End of Outputs for SubSystem: '<S10>/TRCK_ID3_RX' */
2789:HANcoder_E407_TTA_CombineModel.c **** 
2790:HANcoder_E407_TTA_CombineModel.c ****     /* RelationalOperator: '<S10>/Equal15' incorporates:
2791:HANcoder_E407_TTA_CombineModel.c ****      *  Constant: '<S10>/Constant22'
2792:HANcoder_E407_TTA_CombineModel.c ****      */
2793:HANcoder_E407_TTA_CombineModel.c ****     rtb_OR = (slotSelected == 8.0);
 2182              		.loc 1 2793 5 is_stmt 1 view .LVU766
 2183              		.loc 1 2793 28 is_stmt 0 view .LVU767
 2184 02f2 114B     		ldr	r3, .L448+12
 2185 02f4 1B78     		ldrb	r3, [r3]	@ zero_extendqisi2
 2186 02f6 07EE903A 		vmov	s15, r3	@ int
2794:HANcoder_E407_TTA_CombineModel.c **** 
2795:HANcoder_E407_TTA_CombineModel.c ****     /* RelationalOperator: '<S10>/Equal8' incorporates:
2796:HANcoder_E407_TTA_CombineModel.c ****      *  Constant: '<S10>/Constant21'
2797:HANcoder_E407_TTA_CombineModel.c ****      *  DataStoreRead: '<S1>/Data Store Read1'
2798:HANcoder_E407_TTA_CombineModel.c ****      */
2799:HANcoder_E407_TTA_CombineModel.c ****     rtb_OR1 = (rtDWork.Board_ID == 4.0);
 2187              		.loc 1 2799 23 view .LVU768
 2188 02fa 94F8DE30 		ldrb	r3, [r4, #222]	@ zero_extendqisi2
2793:HANcoder_E407_TTA_CombineModel.c **** 
 2189              		.loc 1 2793 28 view .LVU769
 2190 02fe F8EEE77A 		vcvt.f32.s32	s15, s15
 2191              	.LVL120:
 2192              		.loc 1 2799 5 is_stmt 1 view .LVU770
2800:HANcoder_E407_TTA_CombineModel.c **** 
2801:HANcoder_E407_TTA_CombineModel.c ****     /* Logic: '<S10>/AND13' incorporates:
2802:HANcoder_E407_TTA_CombineModel.c ****      *  Logic: '<S10>/NOT6'
2803:HANcoder_E407_TTA_CombineModel.c ****      */
2804:HANcoder_E407_TTA_CombineModel.c ****     rtb_AND13 = (rtb_OR && (!rtb_OR1));
 2193              		.loc 1 2804 25 is_stmt 0 view .LVU771
 2194 0302 F2EE006A 		vmov.f32	s13, #8.0e+0
2799:HANcoder_E407_TTA_CombineModel.c **** 
 2195              		.loc 1 2799 23 view .LVU772
 2196 0306 07EE103A 		vmov	s14, r3	@ int
 2197              		.loc 1 2804 25 view .LVU773
 2198 030a F4EE667A 		vcmp.f32	s15, s13
 2199 030e F1EE10FA 		vmrs	APSR_nzcv, FPSCR
2799:HANcoder_E407_TTA_CombineModel.c **** 
 2200              		.loc 1 2799 33 view .LVU774
 2201 0312 B8EEC77A 		vcvt.f32.s32	s14, s14
 2202              	.LVL121:
 2203              		.loc 1 2804 5 is_stmt 1 view .LVU775
 2204              		.loc 1 2804 25 is_stmt 0 view .LVU776
 2205 0316 00F0D386 		beq	.L421
 2206              	.LVL122:
2805:HANcoder_E407_TTA_CombineModel.c **** 
2806:HANcoder_E407_TTA_CombineModel.c ****     /* Outputs for Enabled SubSystem: '<S10>/TRLS_ID4_RX' incorporates:
2807:HANcoder_E407_TTA_CombineModel.c ****      *  EnablePort: '<S115>/Enable'
2808:HANcoder_E407_TTA_CombineModel.c ****      */
2809:HANcoder_E407_TTA_CombineModel.c ****     if (rtb_AND13) {
 2207              		.loc 1 2809 5 is_stmt 1 view .LVU777
2810:HANcoder_E407_TTA_CombineModel.c ****       rtDWork.TRLS_ID4_RX_MODE = true;
2811:HANcoder_E407_TTA_CombineModel.c **** 
2812:HANcoder_E407_TTA_CombineModel.c ****       /* M-S-Function: '<S276>/S-Function' incorporates:
2813:HANcoder_E407_TTA_CombineModel.c ****        *  Constant: '<S10>/Constant8'
2814:HANcoder_E407_TTA_CombineModel.c ****        */
2815:HANcoder_E407_TTA_CombineModel.c **** 
2816:HANcoder_E407_TTA_CombineModel.c ****       /* read the message data and store the new parameter */
2817:HANcoder_E407_TTA_CombineModel.c ****       rtb_SFunction_o1_k = CanIoGetMessage(0, TRLS1_ID4, NULL,
2818:HANcoder_E407_TTA_CombineModel.c ****         &canRxData_0_TRLS1_ID4.uint8_T_info[0], NULL);
2819:HANcoder_E407_TTA_CombineModel.c **** 
2820:HANcoder_E407_TTA_CombineModel.c ****       /* process the message data */
2821:HANcoder_E407_TTA_CombineModel.c ****       if (rtb_SFunction_o1_k > 0) {
2822:HANcoder_E407_TTA_CombineModel.c ****         /* read the data */
2823:HANcoder_E407_TTA_CombineModel.c ****         rtb_SFunction_o2_e = canRxData_0_TRLS1_ID4.uint8_T_info[0];
2824:HANcoder_E407_TTA_CombineModel.c ****         rtb_SFunction_o3_p = canRxData_0_TRLS1_ID4.uint8_T_info[1];
2825:HANcoder_E407_TTA_CombineModel.c ****         rtb_SFunction_o4_c = canRxData_0_TRLS1_ID4.uint8_T_info[2];
2826:HANcoder_E407_TTA_CombineModel.c ****         rtb_SFunction_o5_c = canRxData_0_TRLS1_ID4.uint8_T_info[3];
2827:HANcoder_E407_TTA_CombineModel.c ****         rtb_SFunction_o6_e = canRxData_0_TRLS1_ID4.uint8_T_info[4];
2828:HANcoder_E407_TTA_CombineModel.c ****         rtb_SFunction_o7_l = canRxData_0_TRLS1_ID4.uint8_T_info[5];
2829:HANcoder_E407_TTA_CombineModel.c ****         rtb_SFunction_o8_f = canRxData_0_TRLS1_ID4.uint8_T_info[6];
2830:HANcoder_E407_TTA_CombineModel.c ****         rtb_SFunction_o9_h = canRxData_0_TRLS1_ID4.uint8_T_info[7];
2831:HANcoder_E407_TTA_CombineModel.c ****       }
2832:HANcoder_E407_TTA_CombineModel.c **** 
2833:HANcoder_E407_TTA_CombineModel.c ****       /* Outputs for Enabled SubSystem: '<S276>/Enabled Subsystem' incorporates:
2834:HANcoder_E407_TTA_CombineModel.c ****        *  EnablePort: '<S282>/Enable'
2835:HANcoder_E407_TTA_CombineModel.c ****        */
2836:HANcoder_E407_TTA_CombineModel.c ****       if (rtb_SFunction_o1_k > 0) {
2837:HANcoder_E407_TTA_CombineModel.c ****         /* SignalConversion generated from: '<S282>/In1' */
2838:HANcoder_E407_TTA_CombineModel.c ****         rtB.In1_e = rtb_SFunction_o2_e;
2839:HANcoder_E407_TTA_CombineModel.c **** 
2840:HANcoder_E407_TTA_CombineModel.c ****         /* SignalConversion generated from: '<S282>/In2' */
2841:HANcoder_E407_TTA_CombineModel.c ****         rtB.In2_e = rtb_SFunction_o3_p;
2842:HANcoder_E407_TTA_CombineModel.c **** 
2843:HANcoder_E407_TTA_CombineModel.c ****         /* SignalConversion generated from: '<S282>/In3' */
2844:HANcoder_E407_TTA_CombineModel.c ****         rtB.In3_g = rtb_SFunction_o4_c;
2845:HANcoder_E407_TTA_CombineModel.c **** 
2846:HANcoder_E407_TTA_CombineModel.c ****         /* SignalConversion generated from: '<S282>/In4' */
2847:HANcoder_E407_TTA_CombineModel.c ****         rtB.In4_a = rtb_SFunction_o5_c;
2848:HANcoder_E407_TTA_CombineModel.c **** 
2849:HANcoder_E407_TTA_CombineModel.c ****         /* SignalConversion generated from: '<S282>/In6' */
2850:HANcoder_E407_TTA_CombineModel.c ****         buttonpress1 = rtb_SFunction_o7_l;
2851:HANcoder_E407_TTA_CombineModel.c **** 
2852:HANcoder_E407_TTA_CombineModel.c ****         /* SignalConversion generated from: '<S282>/In7' */
2853:HANcoder_E407_TTA_CombineModel.c ****         rtB.In7_g = rtb_SFunction_o8_f;
2854:HANcoder_E407_TTA_CombineModel.c ****       }
2855:HANcoder_E407_TTA_CombineModel.c **** 
2856:HANcoder_E407_TTA_CombineModel.c ****       /* End of Outputs for SubSystem: '<S276>/Enabled Subsystem' */
2857:HANcoder_E407_TTA_CombineModel.c **** 
2858:HANcoder_E407_TTA_CombineModel.c ****       /* DataStoreWrite: '<S115>/Data Store Write' */
2859:HANcoder_E407_TTA_CombineModel.c ****       rtDWork.trailer1buttonPress = buttonpress1;
2860:HANcoder_E407_TTA_CombineModel.c **** 
2861:HANcoder_E407_TTA_CombineModel.c ****       /* DataTypeConversion: '<S275>/Cast' */
2862:HANcoder_E407_TTA_CombineModel.c ****       rtb_Cast_p = rtB.In1_e;
2863:HANcoder_E407_TTA_CombineModel.c **** 
2864:HANcoder_E407_TTA_CombineModel.c ****       /* Outputs for Atomic SubSystem: '<S275>/Bit Shift' */
2865:HANcoder_E407_TTA_CombineModel.c ****       BitShift(rtb_Cast_p, &rtB.BitShift_n);
2866:HANcoder_E407_TTA_CombineModel.c **** 
2867:HANcoder_E407_TTA_CombineModel.c ****       /* End of Outputs for SubSystem: '<S275>/Bit Shift' */
2868:HANcoder_E407_TTA_CombineModel.c **** 
2869:HANcoder_E407_TTA_CombineModel.c ****       /* Sum: '<S275>/Add' incorporates:
2870:HANcoder_E407_TTA_CombineModel.c ****        *  DataStoreWrite: '<S115>/Data Store Write1'
2871:HANcoder_E407_TTA_CombineModel.c ****        *  DataTypeConversion: '<S275>/Cast1'
2872:HANcoder_E407_TTA_CombineModel.c ****        */
2873:HANcoder_E407_TTA_CombineModel.c ****       rtDWork.pot4_1 = (uint16_T)((uint32_T)rtB.BitShift_n.y + rtB.In2_e);
2874:HANcoder_E407_TTA_CombineModel.c **** 
2875:HANcoder_E407_TTA_CombineModel.c ****       /* DataTypeConversion: '<S274>/Cast' */
2876:HANcoder_E407_TTA_CombineModel.c ****       rtb_Cast_c = rtB.In3_g;
2877:HANcoder_E407_TTA_CombineModel.c **** 
2878:HANcoder_E407_TTA_CombineModel.c ****       /* Outputs for Atomic SubSystem: '<S274>/Bit Shift' */
2879:HANcoder_E407_TTA_CombineModel.c ****       BitShift(rtb_Cast_c, &rtB.BitShift_gu);
2880:HANcoder_E407_TTA_CombineModel.c **** 
2881:HANcoder_E407_TTA_CombineModel.c ****       /* End of Outputs for SubSystem: '<S274>/Bit Shift' */
2882:HANcoder_E407_TTA_CombineModel.c **** 
2883:HANcoder_E407_TTA_CombineModel.c ****       /* Sum: '<S274>/Add' incorporates:
2884:HANcoder_E407_TTA_CombineModel.c ****        *  DataStoreWrite: '<S115>/Data Store Write2'
2885:HANcoder_E407_TTA_CombineModel.c ****        *  DataTypeConversion: '<S274>/Cast1'
2886:HANcoder_E407_TTA_CombineModel.c ****        */
2887:HANcoder_E407_TTA_CombineModel.c ****       rtDWork.pot4_2 = (uint16_T)((uint32_T)rtB.BitShift_gu.y + rtB.In4_a);
2888:HANcoder_E407_TTA_CombineModel.c **** 
2889:HANcoder_E407_TTA_CombineModel.c ****       /* Outputs for Atomic SubSystem: '<S277>/Bit Shift' */
2890:HANcoder_E407_TTA_CombineModel.c ****       BitShift_g(rtB.In7_g, &rtB.BitShift_l);
2891:HANcoder_E407_TTA_CombineModel.c **** 
2892:HANcoder_E407_TTA_CombineModel.c ****       /* End of Outputs for SubSystem: '<S277>/Bit Shift' */
2893:HANcoder_E407_TTA_CombineModel.c **** 
2894:HANcoder_E407_TTA_CombineModel.c ****       /* DataTypeConversion: '<S277>/Cast' incorporates:
2895:HANcoder_E407_TTA_CombineModel.c ****        *  DataStoreWrite: '<S115>/Data Store Write4'
2896:HANcoder_E407_TTA_CombineModel.c ****        */
2897:HANcoder_E407_TTA_CombineModel.c ****       rtDWork.potReadNode4Fail = (rtB.BitShift_l.y != 0);
2898:HANcoder_E407_TTA_CombineModel.c **** 
2899:HANcoder_E407_TTA_CombineModel.c ****       /* Outputs for Atomic SubSystem: '<S277>/Bit Shift1' */
2900:HANcoder_E407_TTA_CombineModel.c ****       BitShift1(rtB.In7_g, &rtB.BitShift1_e);
2901:HANcoder_E407_TTA_CombineModel.c **** 
2902:HANcoder_E407_TTA_CombineModel.c ****       /* End of Outputs for SubSystem: '<S277>/Bit Shift1' */
2903:HANcoder_E407_TTA_CombineModel.c **** 
2904:HANcoder_E407_TTA_CombineModel.c ****       /* Outputs for Atomic SubSystem: '<S277>/Bit Shift2' */
2905:HANcoder_E407_TTA_CombineModel.c ****       BitShift2(rtB.In7_g, &rtB.BitShift2_l);
2906:HANcoder_E407_TTA_CombineModel.c **** 
2907:HANcoder_E407_TTA_CombineModel.c ****       /* End of Outputs for SubSystem: '<S277>/Bit Shift2' */
2908:HANcoder_E407_TTA_CombineModel.c **** 
2909:HANcoder_E407_TTA_CombineModel.c ****       /* Outputs for Atomic SubSystem: '<S277>/Bit Shift3' */
2910:HANcoder_E407_TTA_CombineModel.c ****       BitShift3(rtB.In7_g, &rtB.BitShift3_f);
2911:HANcoder_E407_TTA_CombineModel.c **** 
2912:HANcoder_E407_TTA_CombineModel.c ****       /* End of Outputs for SubSystem: '<S277>/Bit Shift3' */
2913:HANcoder_E407_TTA_CombineModel.c **** 
2914:HANcoder_E407_TTA_CombineModel.c ****       /* Outputs for Atomic SubSystem: '<S277>/Bit Shift4' */
2915:HANcoder_E407_TTA_CombineModel.c ****       BitShift4(rtB.In7_g, &rtB.BitShift4_j);
2916:HANcoder_E407_TTA_CombineModel.c **** 
2917:HANcoder_E407_TTA_CombineModel.c ****       /* End of Outputs for SubSystem: '<S277>/Bit Shift4' */
2918:HANcoder_E407_TTA_CombineModel.c **** 
2919:HANcoder_E407_TTA_CombineModel.c ****       /* Outputs for Atomic SubSystem: '<S277>/Bit Shift5' */
2920:HANcoder_E407_TTA_CombineModel.c ****       BitShift5(rtB.In7_g, &rtB.BitShift5_o);
2921:HANcoder_E407_TTA_CombineModel.c **** 
2922:HANcoder_E407_TTA_CombineModel.c ****       /* End of Outputs for SubSystem: '<S277>/Bit Shift5' */
2923:HANcoder_E407_TTA_CombineModel.c **** 
2924:HANcoder_E407_TTA_CombineModel.c ****       /* Outputs for Atomic SubSystem: '<S277>/Bit Shift6' */
2925:HANcoder_E407_TTA_CombineModel.c ****       BitShift6(rtB.In7_g, &rtB.BitShift6_o5);
2926:HANcoder_E407_TTA_CombineModel.c **** 
2927:HANcoder_E407_TTA_CombineModel.c ****       /* End of Outputs for SubSystem: '<S277>/Bit Shift6' */
2928:HANcoder_E407_TTA_CombineModel.c **** 
2929:HANcoder_E407_TTA_CombineModel.c ****       /* Outputs for Atomic SubSystem: '<S277>/Bit Shift7' */
2930:HANcoder_E407_TTA_CombineModel.c ****       BitShift_g(rtB.In7_g, &rtB.BitShift7_m);
2931:HANcoder_E407_TTA_CombineModel.c **** 
2932:HANcoder_E407_TTA_CombineModel.c ****       /* End of Outputs for SubSystem: '<S277>/Bit Shift7' */
2933:HANcoder_E407_TTA_CombineModel.c ****     } else if (rtDWork.TRLS_ID4_RX_MODE) {
 2208              		.loc 1 2933 12 view .LVU778
 2209              		.loc 1 2933 15 is_stmt 0 view .LVU779
 2210 031a 94F8FF30 		ldrb	r3, [r4, #255]	@ zero_extendqisi2
 2211 031e 13B1     		cbz	r3, .L180
2934:HANcoder_E407_TTA_CombineModel.c ****       rtDWork.TRLS_ID4_RX_MODE = false;
 2212              		.loc 1 2934 7 is_stmt 1 view .LVU780
 2213              		.loc 1 2934 32 is_stmt 0 view .LVU781
 2214 0320 0023     		movs	r3, #0
 2215 0322 84F8FF30 		strb	r3, [r4, #255]
2935:HANcoder_E407_TTA_CombineModel.c ****     }
2936:HANcoder_E407_TTA_CombineModel.c **** 
2937:HANcoder_E407_TTA_CombineModel.c ****     /* End of Outputs for SubSystem: '<S10>/TRLS_ID4_RX' */
2938:HANcoder_E407_TTA_CombineModel.c **** 
2939:HANcoder_E407_TTA_CombineModel.c ****     /* Logic: '<S10>/AND12' */
2940:HANcoder_E407_TTA_CombineModel.c ****     rtb_OR1 = (rtb_OR && rtb_OR1);
 2216              		.loc 1 2940 5 is_stmt 1 view .LVU782
 2217              	.LVL123:
 2218              	.L180:
2941:HANcoder_E407_TTA_CombineModel.c **** 
2942:HANcoder_E407_TTA_CombineModel.c ****     /* Outputs for Triggered SubSystem: '<S10>/TRLS_ID4_TX' incorporates:
2943:HANcoder_E407_TTA_CombineModel.c ****      *  TriggerPort: '<S116>/Trigger'
2944:HANcoder_E407_TTA_CombineModel.c ****      */
2945:HANcoder_E407_TTA_CombineModel.c ****     if (rtb_OR1 && (rtPrevZCSigState.TRLS_ID4_TX_Trig_ZCE != POS_ZCSIG)) {
 2219              		.loc 1 2945 5 view .LVU783
2940:HANcoder_E407_TTA_CombineModel.c **** 
 2220              		.loc 1 2940 13 is_stmt 0 view .LVU784
 2221 0326 0023     		movs	r3, #0
 2222 0328 16E0     		b	.L449
 2223              	.L450:
 2224 032a 00BF     		.align	2
 2225              	.L448:
 2226 032c 00000000 		.word	.LANCHOR2
 2227 0330 00000000 		.word	.LANCHOR0
 2228 0334 00000000 		.word	.LANCHOR8
 2229 0338 00000000 		.word	.LANCHOR7
 2230 033c 00000000 		.word	.LANCHOR1
 2231 0340 00000000 		.word	.LANCHOR40
 2232 0344 00000000 		.word	.LANCHOR42
 2233 0348 00000000 		.word	.LANCHOR46
 2234 034c 00000000 		.word	rtConstB
 2235 0350 00000000 		.word	.LANCHOR50
 2236 0354 00000000 		.word	.LANCHOR5
 2237              	.L449:
 2238              	.LVL124:
 2239              	.L224:
2946:HANcoder_E407_TTA_CombineModel.c ****       /* DataStoreRead: '<S116>/Data Store Read2' */
2947:HANcoder_E407_TTA_CombineModel.c ****       rtB.DataStoreRead2 = rtDWork.Local_Ticks;
2948:HANcoder_E407_TTA_CombineModel.c **** 
2949:HANcoder_E407_TTA_CombineModel.c ****       /* DataStoreRead: '<S116>/Data Store Read3' */
2950:HANcoder_E407_TTA_CombineModel.c ****       rtB.DataStoreRead3_c = rtDWork.buttonPress;
2951:HANcoder_E407_TTA_CombineModel.c **** 
2952:HANcoder_E407_TTA_CombineModel.c ****       /* DataTypeConversion: '<S300>/Cast1' incorporates:
2953:HANcoder_E407_TTA_CombineModel.c ****        *  DataStoreRead: '<S116>/Data Store Read4'
2954:HANcoder_E407_TTA_CombineModel.c ****        */
2955:HANcoder_E407_TTA_CombineModel.c ****       rtb_Cast1_j5 = rtDWork.potFault;
2956:HANcoder_E407_TTA_CombineModel.c **** 
2957:HANcoder_E407_TTA_CombineModel.c ****       /* Outputs for Atomic SubSystem: '<S300>/Bit Shift1' */
2958:HANcoder_E407_TTA_CombineModel.c ****       BitShift1_b(rtb_Cast1_j5, &rtB.BitShift1_c);
2959:HANcoder_E407_TTA_CombineModel.c **** 
2960:HANcoder_E407_TTA_CombineModel.c ****       /* End of Outputs for SubSystem: '<S300>/Bit Shift1' */
2961:HANcoder_E407_TTA_CombineModel.c **** 
2962:HANcoder_E407_TTA_CombineModel.c ****       /* Outputs for Atomic SubSystem: '<S300>/Bit Shift' */
2963:HANcoder_E407_TTA_CombineModel.c ****       BitShift_gy(rtConstB.Cast_j, &rtB.BitShift_eg);
2964:HANcoder_E407_TTA_CombineModel.c **** 
2965:HANcoder_E407_TTA_CombineModel.c ****       /* End of Outputs for SubSystem: '<S300>/Bit Shift' */
2966:HANcoder_E407_TTA_CombineModel.c **** 
2967:HANcoder_E407_TTA_CombineModel.c ****       /* Outputs for Atomic SubSystem: '<S300>/Bit Shift2' */
2968:HANcoder_E407_TTA_CombineModel.c ****       BitShift2_p(rtConstB.Cast2_o, &rtB.BitShift2_l4);
2969:HANcoder_E407_TTA_CombineModel.c **** 
2970:HANcoder_E407_TTA_CombineModel.c ****       /* End of Outputs for SubSystem: '<S300>/Bit Shift2' */
2971:HANcoder_E407_TTA_CombineModel.c **** 
2972:HANcoder_E407_TTA_CombineModel.c ****       /* Outputs for Atomic SubSystem: '<S300>/Bit Shift3' */
2973:HANcoder_E407_TTA_CombineModel.c ****       BitShift3_l(rtConstB.Cast3_g, &rtB.BitShift3_m);
2974:HANcoder_E407_TTA_CombineModel.c **** 
2975:HANcoder_E407_TTA_CombineModel.c ****       /* End of Outputs for SubSystem: '<S300>/Bit Shift3' */
2976:HANcoder_E407_TTA_CombineModel.c **** 
2977:HANcoder_E407_TTA_CombineModel.c ****       /* Outputs for Atomic SubSystem: '<S300>/Bit Shift4' */
2978:HANcoder_E407_TTA_CombineModel.c ****       BitShift4_g(rtConstB.Cast4_l, &rtB.BitShift4_c);
2979:HANcoder_E407_TTA_CombineModel.c **** 
2980:HANcoder_E407_TTA_CombineModel.c ****       /* End of Outputs for SubSystem: '<S300>/Bit Shift4' */
2981:HANcoder_E407_TTA_CombineModel.c **** 
2982:HANcoder_E407_TTA_CombineModel.c ****       /* Outputs for Atomic SubSystem: '<S300>/Bit Shift5' */
2983:HANcoder_E407_TTA_CombineModel.c ****       BitShift5_n(rtConstB.Cast5_h, &rtB.BitShift5_og);
2984:HANcoder_E407_TTA_CombineModel.c **** 
2985:HANcoder_E407_TTA_CombineModel.c ****       /* End of Outputs for SubSystem: '<S300>/Bit Shift5' */
2986:HANcoder_E407_TTA_CombineModel.c **** 
2987:HANcoder_E407_TTA_CombineModel.c ****       /* Outputs for Atomic SubSystem: '<S300>/Bit Shift6' */
2988:HANcoder_E407_TTA_CombineModel.c ****       BitShift6_d(rtConstB.Cast6_e, &rtB.BitShift6_k);
2989:HANcoder_E407_TTA_CombineModel.c **** 
2990:HANcoder_E407_TTA_CombineModel.c ****       /* End of Outputs for SubSystem: '<S300>/Bit Shift6' */
2991:HANcoder_E407_TTA_CombineModel.c **** 
2992:HANcoder_E407_TTA_CombineModel.c ****       /* Sum: '<S300>/Add' */
2993:HANcoder_E407_TTA_CombineModel.c ****       rtB.Add_f = (uint8_T)((uint32_T)(uint8_T)((uint32_T)(uint8_T)((uint32_T)
2994:HANcoder_E407_TTA_CombineModel.c ****         (uint8_T)((uint32_T)(uint8_T)((uint32_T)(uint8_T)((uint32_T)(uint8_T)
2995:HANcoder_E407_TTA_CombineModel.c ****         ((uint32_T)rtConstB.Cast7_e + rtB.BitShift1_c.y) + rtB.BitShift_eg.y) +
2996:HANcoder_E407_TTA_CombineModel.c ****         rtB.BitShift2_l4.y) + rtB.BitShift3_m.y) + rtB.BitShift4_c.y) +
2997:HANcoder_E407_TTA_CombineModel.c ****         rtB.BitShift5_og.y) + rtB.BitShift6_k.y);
2998:HANcoder_E407_TTA_CombineModel.c **** 
2999:HANcoder_E407_TTA_CombineModel.c ****       /* Outputs for Atomic SubSystem: '<S301>/Bit Shift' */
3000:HANcoder_E407_TTA_CombineModel.c ****       /* DataStoreRead: '<S116>/Data Store Read1' */
3001:HANcoder_E407_TTA_CombineModel.c ****       BitShift_o(rtDWork.potentiometer2, &rtB.BitShift_hr);
3002:HANcoder_E407_TTA_CombineModel.c **** 
3003:HANcoder_E407_TTA_CombineModel.c ****       /* End of Outputs for SubSystem: '<S301>/Bit Shift' */
3004:HANcoder_E407_TTA_CombineModel.c **** 
3005:HANcoder_E407_TTA_CombineModel.c ****       /* DataTypeConversion: '<S301>/Cast' */
3006:HANcoder_E407_TTA_CombineModel.c ****       rtB.Cast_d = (uint8_T)rtB.BitShift_hr.y;
3007:HANcoder_E407_TTA_CombineModel.c **** 
3008:HANcoder_E407_TTA_CombineModel.c ****       /* DataTypeConversion: '<S301>/Cast1' incorporates:
3009:HANcoder_E407_TTA_CombineModel.c ****        *  DataStoreRead: '<S116>/Data Store Read1'
3010:HANcoder_E407_TTA_CombineModel.c ****        */
3011:HANcoder_E407_TTA_CombineModel.c ****       rtB.Cast1_c = (uint8_T)rtDWork.potentiometer2;
3012:HANcoder_E407_TTA_CombineModel.c **** 
3013:HANcoder_E407_TTA_CombineModel.c ****       /* Outputs for Atomic SubSystem: '<S302>/Bit Shift' */
3014:HANcoder_E407_TTA_CombineModel.c ****       /* DataStoreRead: '<S116>/Data Store Read' */
3015:HANcoder_E407_TTA_CombineModel.c ****       BitShift_o(rtDWork.potentiometer1, &rtB.BitShift_d);
3016:HANcoder_E407_TTA_CombineModel.c **** 
3017:HANcoder_E407_TTA_CombineModel.c ****       /* End of Outputs for SubSystem: '<S302>/Bit Shift' */
3018:HANcoder_E407_TTA_CombineModel.c **** 
3019:HANcoder_E407_TTA_CombineModel.c ****       /* DataTypeConversion: '<S302>/Cast' */
3020:HANcoder_E407_TTA_CombineModel.c ****       rtB.Cast_n = (uint8_T)rtB.BitShift_d.y;
3021:HANcoder_E407_TTA_CombineModel.c **** 
3022:HANcoder_E407_TTA_CombineModel.c ****       /* DataTypeConversion: '<S302>/Cast1' incorporates:
3023:HANcoder_E407_TTA_CombineModel.c ****        *  DataStoreRead: '<S116>/Data Store Read'
3024:HANcoder_E407_TTA_CombineModel.c ****        */
3025:HANcoder_E407_TTA_CombineModel.c ****       rtB.Cast1_i = (uint8_T)rtDWork.potentiometer1;
3026:HANcoder_E407_TTA_CombineModel.c **** 
3027:HANcoder_E407_TTA_CombineModel.c ****       /* Update for M-S-Function: '<S299>/S-Function' incorporates:
3028:HANcoder_E407_TTA_CombineModel.c ****        *  Constant: '<S10>/Constant8'
3029:HANcoder_E407_TTA_CombineModel.c ****        *  Constant: '<S116>/Constant1'
3030:HANcoder_E407_TTA_CombineModel.c ****        */
3031:HANcoder_E407_TTA_CombineModel.c ****       {
3032:HANcoder_E407_TTA_CombineModel.c ****         /* prepare the data */
3033:HANcoder_E407_TTA_CombineModel.c ****         canTxData.uint8_T_info[0] = rtB.Cast_n;
3034:HANcoder_E407_TTA_CombineModel.c ****         canTxData.uint8_T_info[1] = rtB.Cast1_i;
3035:HANcoder_E407_TTA_CombineModel.c ****         canTxData.uint8_T_info[2] = rtB.Cast_d;
3036:HANcoder_E407_TTA_CombineModel.c ****         canTxData.uint8_T_info[3] = rtB.Cast1_c;
3037:HANcoder_E407_TTA_CombineModel.c ****         canTxData.uint8_T_info[4] = rtB.DataStoreRead2;
3038:HANcoder_E407_TTA_CombineModel.c ****         canTxData.uint8_T_info[5] = rtB.DataStoreRead3_c;
3039:HANcoder_E407_TTA_CombineModel.c ****         canTxData.uint8_T_info[6] = rtB.Add_f;
3040:HANcoder_E407_TTA_CombineModel.c ****         canTxData.uint8_T_info[7] = ((uint8_T)0U);
3041:HANcoder_E407_TTA_CombineModel.c **** 
3042:HANcoder_E407_TTA_CombineModel.c ****         /* send the data */
3043:HANcoder_E407_TTA_CombineModel.c ****         CanTransmit(0, TRLS1_ID4, 8, &canTxData.uint8_T_info[0]);
3044:HANcoder_E407_TTA_CombineModel.c ****       }
3045:HANcoder_E407_TTA_CombineModel.c ****     }
3046:HANcoder_E407_TTA_CombineModel.c **** 
3047:HANcoder_E407_TTA_CombineModel.c ****     rtPrevZCSigState.TRLS_ID4_TX_Trig_ZCE = rtb_OR1;
 2240              		.loc 1 3047 5 is_stmt 1 view .LVU785
3048:HANcoder_E407_TTA_CombineModel.c **** 
3049:HANcoder_E407_TTA_CombineModel.c ****     /* End of Outputs for SubSystem: '<S10>/TRLS_ID4_TX' */
3050:HANcoder_E407_TTA_CombineModel.c **** 
3051:HANcoder_E407_TTA_CombineModel.c ****     /* RelationalOperator: '<S10>/Equal17' incorporates:
3052:HANcoder_E407_TTA_CombineModel.c ****      *  Constant: '<S10>/Constant25'
3053:HANcoder_E407_TTA_CombineModel.c ****      */
3054:HANcoder_E407_TTA_CombineModel.c ****     rtb_OR = (slotSelected == 9.0);
3055:HANcoder_E407_TTA_CombineModel.c **** 
3056:HANcoder_E407_TTA_CombineModel.c ****     /* RelationalOperator: '<S10>/Equal16' incorporates:
3057:HANcoder_E407_TTA_CombineModel.c ****      *  Constant: '<S10>/Constant24'
3058:HANcoder_E407_TTA_CombineModel.c ****      *  DataStoreRead: '<S1>/Data Store Read1'
3059:HANcoder_E407_TTA_CombineModel.c ****      */
3060:HANcoder_E407_TTA_CombineModel.c ****     rtb_OR1 = (rtDWork.Board_ID == 5.0);
3061:HANcoder_E407_TTA_CombineModel.c **** 
3062:HANcoder_E407_TTA_CombineModel.c ****     /* Logic: '<S10>/AND15' incorporates:
3063:HANcoder_E407_TTA_CombineModel.c ****      *  Logic: '<S10>/NOT7'
3064:HANcoder_E407_TTA_CombineModel.c ****      */
3065:HANcoder_E407_TTA_CombineModel.c ****     rtb_AND15 = (rtb_OR && (!rtb_OR1));
 2241              		.loc 1 3065 25 is_stmt 0 view .LVU786
 2242 0358 F2EE026A 		vmov.f32	s13, #9.0e+0
 2243 035c F4EE667A 		vcmp.f32	s15, s13
 2244 0360 F1EE10FA 		vmrs	APSR_nzcv, FPSCR
3047:HANcoder_E407_TTA_CombineModel.c **** 
 2245              		.loc 1 3047 43 view .LVU787
 2246 0364 8AF80330 		strb	r3, [r10, #3]
3054:HANcoder_E407_TTA_CombineModel.c **** 
 2247              		.loc 1 3054 5 is_stmt 1 view .LVU788
 2248              	.LVL125:
3060:HANcoder_E407_TTA_CombineModel.c **** 
 2249              		.loc 1 3060 5 view .LVU789
 2250              		.loc 1 3065 5 view .LVU790
 2251              		.loc 1 3065 25 is_stmt 0 view .LVU791
 2252 0368 41F02580 		bne	.L181
 2253              		.loc 1 3065 25 discriminator 1 view .LVU792
 2254 036c F1EE047A 		vmov.f32	s15, #5.0e+0
 2255 0370 B4EE677A 		vcmp.f32	s14, s15
 2256 0374 F1EE10FA 		vmrs	APSR_nzcv, FPSCR
 2257 0378 41F0A080 		bne	.L182
 2258              	.LVL126:
3066:HANcoder_E407_TTA_CombineModel.c **** 
3067:HANcoder_E407_TTA_CombineModel.c ****     /* Outputs for Enabled SubSystem: '<S10>/TRLS_ID5_RX' incorporates:
3068:HANcoder_E407_TTA_CombineModel.c ****      *  EnablePort: '<S117>/Enable'
3069:HANcoder_E407_TTA_CombineModel.c ****      */
3070:HANcoder_E407_TTA_CombineModel.c ****     if (rtb_AND15) {
 2259              		.loc 1 3070 5 is_stmt 1 view .LVU793
3071:HANcoder_E407_TTA_CombineModel.c ****       rtDWork.TRLS_ID5_RX_MODE = true;
3072:HANcoder_E407_TTA_CombineModel.c **** 
3073:HANcoder_E407_TTA_CombineModel.c ****       /* M-S-Function: '<S323>/S-Function' incorporates:
3074:HANcoder_E407_TTA_CombineModel.c ****        *  Constant: '<S10>/Constant18'
3075:HANcoder_E407_TTA_CombineModel.c ****        */
3076:HANcoder_E407_TTA_CombineModel.c **** 
3077:HANcoder_E407_TTA_CombineModel.c ****       /* read the message data and store the new parameter */
3078:HANcoder_E407_TTA_CombineModel.c ****       rtb_SFunction_o1_n = CanIoGetMessage(0, TRLS1_ID5, NULL,
3079:HANcoder_E407_TTA_CombineModel.c ****         &canRxData_0_TRLS1_ID5.uint8_T_info[0], NULL);
3080:HANcoder_E407_TTA_CombineModel.c **** 
3081:HANcoder_E407_TTA_CombineModel.c ****       /* process the message data */
3082:HANcoder_E407_TTA_CombineModel.c ****       if (rtb_SFunction_o1_n > 0) {
3083:HANcoder_E407_TTA_CombineModel.c ****         /* read the data */
3084:HANcoder_E407_TTA_CombineModel.c ****         rtb_SFunction_o2_l = canRxData_0_TRLS1_ID5.uint8_T_info[0];
3085:HANcoder_E407_TTA_CombineModel.c ****         rtb_SFunction_o3_m = canRxData_0_TRLS1_ID5.uint8_T_info[1];
3086:HANcoder_E407_TTA_CombineModel.c ****         rtb_SFunction_o4_b = canRxData_0_TRLS1_ID5.uint8_T_info[2];
3087:HANcoder_E407_TTA_CombineModel.c ****         rtb_SFunction_o5_o = canRxData_0_TRLS1_ID5.uint8_T_info[3];
3088:HANcoder_E407_TTA_CombineModel.c ****         rtb_SFunction_o6_i = canRxData_0_TRLS1_ID5.uint8_T_info[4];
3089:HANcoder_E407_TTA_CombineModel.c ****         rtb_SFunction_o7_f = canRxData_0_TRLS1_ID5.uint8_T_info[5];
3090:HANcoder_E407_TTA_CombineModel.c ****         rtb_SFunction_o8_p = canRxData_0_TRLS1_ID5.uint8_T_info[6];
3091:HANcoder_E407_TTA_CombineModel.c ****         rtb_SFunction_o9_l = canRxData_0_TRLS1_ID5.uint8_T_info[7];
3092:HANcoder_E407_TTA_CombineModel.c ****       }
3093:HANcoder_E407_TTA_CombineModel.c **** 
3094:HANcoder_E407_TTA_CombineModel.c ****       /* Outputs for Enabled SubSystem: '<S323>/Enabled Subsystem' incorporates:
3095:HANcoder_E407_TTA_CombineModel.c ****        *  EnablePort: '<S329>/Enable'
3096:HANcoder_E407_TTA_CombineModel.c ****        */
3097:HANcoder_E407_TTA_CombineModel.c ****       if (rtb_SFunction_o1_n > 0) {
3098:HANcoder_E407_TTA_CombineModel.c ****         /* SignalConversion generated from: '<S329>/In1' */
3099:HANcoder_E407_TTA_CombineModel.c ****         rtB.In1 = rtb_SFunction_o2_l;
3100:HANcoder_E407_TTA_CombineModel.c **** 
3101:HANcoder_E407_TTA_CombineModel.c ****         /* SignalConversion generated from: '<S329>/In2' */
3102:HANcoder_E407_TTA_CombineModel.c ****         rtB.In2 = rtb_SFunction_o3_m;
3103:HANcoder_E407_TTA_CombineModel.c **** 
3104:HANcoder_E407_TTA_CombineModel.c ****         /* SignalConversion generated from: '<S329>/In3' */
3105:HANcoder_E407_TTA_CombineModel.c ****         rtB.In3 = rtb_SFunction_o4_b;
3106:HANcoder_E407_TTA_CombineModel.c **** 
3107:HANcoder_E407_TTA_CombineModel.c ****         /* SignalConversion generated from: '<S329>/In6' */
3108:HANcoder_E407_TTA_CombineModel.c ****         buttonpress2 = rtb_SFunction_o7_f;
3109:HANcoder_E407_TTA_CombineModel.c **** 
3110:HANcoder_E407_TTA_CombineModel.c ****         /* SignalConversion generated from: '<S329>/In7' */
3111:HANcoder_E407_TTA_CombineModel.c ****         rtB.In7 = rtb_SFunction_o8_p;
3112:HANcoder_E407_TTA_CombineModel.c ****       }
3113:HANcoder_E407_TTA_CombineModel.c **** 
3114:HANcoder_E407_TTA_CombineModel.c ****       /* End of Outputs for SubSystem: '<S323>/Enabled Subsystem' */
3115:HANcoder_E407_TTA_CombineModel.c **** 
3116:HANcoder_E407_TTA_CombineModel.c ****       /* DataStoreWrite: '<S117>/Data Store Write' */
3117:HANcoder_E407_TTA_CombineModel.c ****       rtDWork.trailer2buttonPress = buttonpress2;
3118:HANcoder_E407_TTA_CombineModel.c **** 
3119:HANcoder_E407_TTA_CombineModel.c ****       /* DataTypeConversion: '<S322>/Cast' */
3120:HANcoder_E407_TTA_CombineModel.c ****       rtb_Cast_gr = rtB.In1;
3121:HANcoder_E407_TTA_CombineModel.c **** 
3122:HANcoder_E407_TTA_CombineModel.c ****       /* Outputs for Atomic SubSystem: '<S322>/Bit Shift' */
3123:HANcoder_E407_TTA_CombineModel.c ****       BitShift(rtb_Cast_gr, &rtB.BitShift_jx);
3124:HANcoder_E407_TTA_CombineModel.c **** 
3125:HANcoder_E407_TTA_CombineModel.c ****       /* End of Outputs for SubSystem: '<S322>/Bit Shift' */
3126:HANcoder_E407_TTA_CombineModel.c **** 
3127:HANcoder_E407_TTA_CombineModel.c ****       /* Sum: '<S322>/Add' incorporates:
3128:HANcoder_E407_TTA_CombineModel.c ****        *  DataStoreWrite: '<S117>/Data Store Write1'
3129:HANcoder_E407_TTA_CombineModel.c ****        *  DataTypeConversion: '<S322>/Cast1'
3130:HANcoder_E407_TTA_CombineModel.c ****        */
3131:HANcoder_E407_TTA_CombineModel.c ****       rtDWork.pot5_1 = (uint16_T)((uint32_T)rtB.BitShift_jx.y + rtB.In2);
3132:HANcoder_E407_TTA_CombineModel.c **** 
3133:HANcoder_E407_TTA_CombineModel.c ****       /* DataTypeConversion: '<S321>/Cast' */
3134:HANcoder_E407_TTA_CombineModel.c ****       rtb_Cast_i1 = rtB.In3;
3135:HANcoder_E407_TTA_CombineModel.c **** 
3136:HANcoder_E407_TTA_CombineModel.c ****       /* Outputs for Atomic SubSystem: '<S321>/Bit Shift' */
3137:HANcoder_E407_TTA_CombineModel.c ****       BitShift(rtb_Cast_i1, &rtB.BitShift_a);
3138:HANcoder_E407_TTA_CombineModel.c **** 
3139:HANcoder_E407_TTA_CombineModel.c ****       /* End of Outputs for SubSystem: '<S321>/Bit Shift' */
3140:HANcoder_E407_TTA_CombineModel.c **** 
3141:HANcoder_E407_TTA_CombineModel.c ****       /* Outputs for Atomic SubSystem: '<S324>/Bit Shift' */
3142:HANcoder_E407_TTA_CombineModel.c ****       BitShift_g(rtB.In7, &rtB.BitShift_dp);
3143:HANcoder_E407_TTA_CombineModel.c **** 
3144:HANcoder_E407_TTA_CombineModel.c ****       /* End of Outputs for SubSystem: '<S324>/Bit Shift' */
3145:HANcoder_E407_TTA_CombineModel.c **** 
3146:HANcoder_E407_TTA_CombineModel.c ****       /* DataTypeConversion: '<S324>/Cast' incorporates:
3147:HANcoder_E407_TTA_CombineModel.c ****        *  DataStoreWrite: '<S117>/Data Store Write5'
3148:HANcoder_E407_TTA_CombineModel.c ****        */
3149:HANcoder_E407_TTA_CombineModel.c ****       rtDWork.potReadNode5Fail = (rtB.BitShift_dp.y != 0);
3150:HANcoder_E407_TTA_CombineModel.c **** 
3151:HANcoder_E407_TTA_CombineModel.c ****       /* Outputs for Atomic SubSystem: '<S324>/Bit Shift1' */
3152:HANcoder_E407_TTA_CombineModel.c ****       BitShift1(rtB.In7, &rtB.BitShift1_au);
3153:HANcoder_E407_TTA_CombineModel.c **** 
3154:HANcoder_E407_TTA_CombineModel.c ****       /* End of Outputs for SubSystem: '<S324>/Bit Shift1' */
3155:HANcoder_E407_TTA_CombineModel.c **** 
3156:HANcoder_E407_TTA_CombineModel.c ****       /* Outputs for Atomic SubSystem: '<S324>/Bit Shift2' */
3157:HANcoder_E407_TTA_CombineModel.c ****       BitShift2(rtB.In7, &rtB.BitShift2_d);
3158:HANcoder_E407_TTA_CombineModel.c **** 
3159:HANcoder_E407_TTA_CombineModel.c ****       /* End of Outputs for SubSystem: '<S324>/Bit Shift2' */
3160:HANcoder_E407_TTA_CombineModel.c **** 
3161:HANcoder_E407_TTA_CombineModel.c ****       /* Outputs for Atomic SubSystem: '<S324>/Bit Shift3' */
3162:HANcoder_E407_TTA_CombineModel.c ****       BitShift3(rtB.In7, &rtB.BitShift3_dx);
3163:HANcoder_E407_TTA_CombineModel.c **** 
3164:HANcoder_E407_TTA_CombineModel.c ****       /* End of Outputs for SubSystem: '<S324>/Bit Shift3' */
3165:HANcoder_E407_TTA_CombineModel.c **** 
3166:HANcoder_E407_TTA_CombineModel.c ****       /* Outputs for Atomic SubSystem: '<S324>/Bit Shift4' */
3167:HANcoder_E407_TTA_CombineModel.c ****       BitShift4(rtB.In7, &rtB.BitShift4_o);
3168:HANcoder_E407_TTA_CombineModel.c **** 
3169:HANcoder_E407_TTA_CombineModel.c ****       /* End of Outputs for SubSystem: '<S324>/Bit Shift4' */
3170:HANcoder_E407_TTA_CombineModel.c **** 
3171:HANcoder_E407_TTA_CombineModel.c ****       /* Outputs for Atomic SubSystem: '<S324>/Bit Shift5' */
3172:HANcoder_E407_TTA_CombineModel.c ****       BitShift5(rtB.In7, &rtB.BitShift5_ni);
3173:HANcoder_E407_TTA_CombineModel.c **** 
3174:HANcoder_E407_TTA_CombineModel.c ****       /* End of Outputs for SubSystem: '<S324>/Bit Shift5' */
3175:HANcoder_E407_TTA_CombineModel.c **** 
3176:HANcoder_E407_TTA_CombineModel.c ****       /* Outputs for Atomic SubSystem: '<S324>/Bit Shift6' */
3177:HANcoder_E407_TTA_CombineModel.c ****       BitShift6(rtB.In7, &rtB.BitShift6_a5);
3178:HANcoder_E407_TTA_CombineModel.c **** 
3179:HANcoder_E407_TTA_CombineModel.c ****       /* End of Outputs for SubSystem: '<S324>/Bit Shift6' */
3180:HANcoder_E407_TTA_CombineModel.c **** 
3181:HANcoder_E407_TTA_CombineModel.c ****       /* Outputs for Atomic SubSystem: '<S324>/Bit Shift7' */
3182:HANcoder_E407_TTA_CombineModel.c ****       BitShift_g(rtB.In7, &rtB.BitShift7_ms);
3183:HANcoder_E407_TTA_CombineModel.c **** 
3184:HANcoder_E407_TTA_CombineModel.c ****       /* End of Outputs for SubSystem: '<S324>/Bit Shift7' */
3185:HANcoder_E407_TTA_CombineModel.c ****     } else if (rtDWork.TRLS_ID5_RX_MODE) {
 2260              		.loc 1 3185 12 view .LVU794
 2261              		.loc 1 3185 15 is_stmt 0 view .LVU795
 2262 037c 94F8FE30 		ldrb	r3, [r4, #254]	@ zero_extendqisi2
 2263 0380 002B     		cmp	r3, #0
 2264 0382 41F0D283 		bne	.L422
 2265              	.L256:
 2266              	.LVL127:
3186:HANcoder_E407_TTA_CombineModel.c ****       rtDWork.TRLS_ID5_RX_MODE = false;
3187:HANcoder_E407_TTA_CombineModel.c ****     }
3188:HANcoder_E407_TTA_CombineModel.c **** 
3189:HANcoder_E407_TTA_CombineModel.c ****     /* End of Outputs for SubSystem: '<S10>/TRLS_ID5_RX' */
3190:HANcoder_E407_TTA_CombineModel.c **** 
3191:HANcoder_E407_TTA_CombineModel.c ****     /* Logic: '<S10>/AND14' */
3192:HANcoder_E407_TTA_CombineModel.c ****     rtb_OR1 = (rtb_OR && rtb_OR1);
3193:HANcoder_E407_TTA_CombineModel.c **** 
3194:HANcoder_E407_TTA_CombineModel.c ****     /* Outputs for Triggered SubSystem: '<S10>/TRLS_ID5_TX' incorporates:
3195:HANcoder_E407_TTA_CombineModel.c ****      *  TriggerPort: '<S118>/Trigger'
3196:HANcoder_E407_TTA_CombineModel.c ****      */
3197:HANcoder_E407_TTA_CombineModel.c ****     if (rtb_OR1 && (rtPrevZCSigState.TRLS_ID5_TX_Trig_ZCE != POS_ZCSIG)) {
 2267              		.loc 1 3197 5 is_stmt 1 view .LVU796
 2268              		.loc 1 3197 37 is_stmt 0 view .LVU797
 2269 0386 9AF80230 		ldrb	r3, [r10, #2]	@ zero_extendqisi2
 2270              		.loc 1 3197 17 view .LVU798
 2271 038a 012B     		cmp	r3, #1
 2272 038c 5DD0     		beq	.L220
3198:HANcoder_E407_TTA_CombineModel.c ****       /* DataStoreRead: '<S118>/Data Store Read3' */
3199:HANcoder_E407_TTA_CombineModel.c ****       rtB.DataStoreRead3 = rtDWork.Local_Ticks;
 2273              		.loc 1 3199 7 is_stmt 1 view .LVU799
3200:HANcoder_E407_TTA_CombineModel.c **** 
3201:HANcoder_E407_TTA_CombineModel.c ****       /* DataStoreRead: '<S118>/Data Store Read4' */
3202:HANcoder_E407_TTA_CombineModel.c ****       rtB.DataStoreRead4 = rtDWork.buttonPress;
3203:HANcoder_E407_TTA_CombineModel.c **** 
3204:HANcoder_E407_TTA_CombineModel.c ****       /* DataTypeConversion: '<S347>/Cast1' incorporates:
3205:HANcoder_E407_TTA_CombineModel.c ****        *  DataStoreRead: '<S118>/Data Store Read5'
3206:HANcoder_E407_TTA_CombineModel.c ****        */
3207:HANcoder_E407_TTA_CombineModel.c ****       rtb_Cast1_jh = rtDWork.potFault;
3208:HANcoder_E407_TTA_CombineModel.c **** 
3209:HANcoder_E407_TTA_CombineModel.c ****       /* Outputs for Atomic SubSystem: '<S347>/Bit Shift1' */
3210:HANcoder_E407_TTA_CombineModel.c ****       BitShift1_b(rtb_Cast1_jh, &rtB.BitShift1_n4);
3211:HANcoder_E407_TTA_CombineModel.c **** 
3212:HANcoder_E407_TTA_CombineModel.c ****       /* End of Outputs for SubSystem: '<S347>/Bit Shift1' */
3213:HANcoder_E407_TTA_CombineModel.c **** 
3214:HANcoder_E407_TTA_CombineModel.c ****       /* Outputs for Atomic SubSystem: '<S347>/Bit Shift' */
3215:HANcoder_E407_TTA_CombineModel.c ****       BitShift_gy(rtConstB.Cast_h, &rtB.BitShift_a0);
 2274              		.loc 1 3215 7 is_stmt 0 view .LVU800
 2275 038e 6649     		ldr	r1, .L451
 2276              	.LBB304:
 2277              	.LBB305:
 650:HANcoder_E407_TTA_CombineModel.c **** }
 2278              		.loc 1 650 15 view .LVU801
 2279 0390 94F8F000 		ldrb	r0, [r4, #240]	@ zero_extendqisi2
 2280              	.LBE305:
 2281              	.LBE304:
 2282              	.LBB309:
 2283              	.LBB310:
 634:HANcoder_E407_TTA_CombineModel.c **** }
 2284              		.loc 1 634 15 view .LVU802
 2285 0394 91F82230 		ldrb	r3, [r1, #34]	@ zero_extendqisi2
 2286              	.LBE310:
 2287              	.LBE309:
 2288              	.LBB314:
 2289              	.LBB315:
 666:HANcoder_E407_TTA_CombineModel.c **** }
 2290              		.loc 1 666 15 view .LVU803
 2291 0398 91F82320 		ldrb	r2, [r1, #35]	@ zero_extendqisi2
 2292              	.LBE315:
 2293              	.LBE314:
3216:HANcoder_E407_TTA_CombineModel.c **** 
3217:HANcoder_E407_TTA_CombineModel.c ****       /* End of Outputs for SubSystem: '<S347>/Bit Shift' */
3218:HANcoder_E407_TTA_CombineModel.c **** 
3219:HANcoder_E407_TTA_CombineModel.c ****       /* Outputs for Atomic SubSystem: '<S347>/Bit Shift2' */
3220:HANcoder_E407_TTA_CombineModel.c ****       BitShift2_p(rtConstB.Cast2, &rtB.BitShift2_f);
3221:HANcoder_E407_TTA_CombineModel.c **** 
3222:HANcoder_E407_TTA_CombineModel.c ****       /* End of Outputs for SubSystem: '<S347>/Bit Shift2' */
3223:HANcoder_E407_TTA_CombineModel.c **** 
3224:HANcoder_E407_TTA_CombineModel.c ****       /* Outputs for Atomic SubSystem: '<S347>/Bit Shift3' */
3225:HANcoder_E407_TTA_CombineModel.c ****       BitShift3_l(rtConstB.Cast3, &rtB.BitShift3_a);
3226:HANcoder_E407_TTA_CombineModel.c **** 
3227:HANcoder_E407_TTA_CombineModel.c ****       /* End of Outputs for SubSystem: '<S347>/Bit Shift3' */
3228:HANcoder_E407_TTA_CombineModel.c **** 
3229:HANcoder_E407_TTA_CombineModel.c ****       /* Outputs for Atomic SubSystem: '<S347>/Bit Shift4' */
3230:HANcoder_E407_TTA_CombineModel.c ****       BitShift4_g(rtConstB.Cast4, &rtB.BitShift4_ew);
3231:HANcoder_E407_TTA_CombineModel.c **** 
3232:HANcoder_E407_TTA_CombineModel.c ****       /* End of Outputs for SubSystem: '<S347>/Bit Shift4' */
3233:HANcoder_E407_TTA_CombineModel.c **** 
3234:HANcoder_E407_TTA_CombineModel.c ****       /* Outputs for Atomic SubSystem: '<S347>/Bit Shift5' */
3235:HANcoder_E407_TTA_CombineModel.c ****       BitShift5_n(rtConstB.Cast5, &rtB.BitShift5_nm);
3236:HANcoder_E407_TTA_CombineModel.c **** 
3237:HANcoder_E407_TTA_CombineModel.c ****       /* End of Outputs for SubSystem: '<S347>/Bit Shift5' */
3238:HANcoder_E407_TTA_CombineModel.c **** 
3239:HANcoder_E407_TTA_CombineModel.c ****       /* Outputs for Atomic SubSystem: '<S347>/Bit Shift6' */
3240:HANcoder_E407_TTA_CombineModel.c ****       BitShift6_d(rtConstB.Cast6, &rtB.BitShift6_ab);
3241:HANcoder_E407_TTA_CombineModel.c **** 
3242:HANcoder_E407_TTA_CombineModel.c ****       /* End of Outputs for SubSystem: '<S347>/Bit Shift6' */
3243:HANcoder_E407_TTA_CombineModel.c **** 
3244:HANcoder_E407_TTA_CombineModel.c ****       /* Sum: '<S347>/Add' */
3245:HANcoder_E407_TTA_CombineModel.c ****       rtB.Add = (uint8_T)((uint32_T)(uint8_T)((uint32_T)(uint8_T)((uint32_T)
3246:HANcoder_E407_TTA_CombineModel.c ****         (uint8_T)((uint32_T)(uint8_T)((uint32_T)(uint8_T)((uint32_T)(uint8_T)
 2294              		.loc 1 3246 49 view .LVU804
 2295 039c 91F82860 		ldrb	r6, [r1, #40]	@ zero_extendqisi2
 2296              	.LBB320:
 2297              	.LBB306:
 650:HANcoder_E407_TTA_CombineModel.c **** }
 2298              		.loc 1 650 15 view .LVU805
 2299 03a0 4000     		lsls	r0, r0, #1
 2300              	.LBE306:
 2301              	.LBE320:
 2302              	.LBB321:
 2303              	.LBB311:
 634:HANcoder_E407_TTA_CombineModel.c **** }
 2304              		.loc 1 634 15 view .LVU806
 2305 03a2 9B00     		lsls	r3, r3, #2
 2306 03a4 DBB2     		uxtb	r3, r3
 2307              	.LBE311:
 2308              	.LBE321:
 2309              	.LBB322:
 2310              	.LBB307:
 650:HANcoder_E407_TTA_CombineModel.c **** }
 2311              		.loc 1 650 15 view .LVU807
 2312 03a6 C0B2     		uxtb	r0, r0
 650:HANcoder_E407_TTA_CombineModel.c **** }
 2313              		.loc 1 650 13 view .LVU808
 2314 03a8 85F84B00 		strb	r0, [r5, #75]
 2315              	.LBE307:
 2316              	.LBE322:
 2317              	.LBB323:
 2318              	.LBB312:
 634:HANcoder_E407_TTA_CombineModel.c **** }
 2319              		.loc 1 634 13 view .LVU809
 2320 03ac 85F84C30 		strb	r3, [r5, #76]
 2321              	.LBE312:
 2322              	.LBE323:
 2323              		.loc 1 3246 49 view .LVU810
 2324 03b0 1844     		add	r0, r0, r3
 2325              	.LBB324:
 2326              	.LBB325:
 682:HANcoder_E407_TTA_CombineModel.c **** }
 2327              		.loc 1 682 15 view .LVU811
 2328 03b2 91F82430 		ldrb	r3, [r1, #36]	@ zero_extendqisi2
 2329              	.LBE325:
 2330              	.LBE324:
 2331              	.LBB330:
 2332              	.LBB316:
 666:HANcoder_E407_TTA_CombineModel.c **** }
 2333              		.loc 1 666 15 view .LVU812
 2334 03b6 D200     		lsls	r2, r2, #3
 2335              	.LBE316:
 2336              	.LBE330:
 2337              		.loc 1 3246 49 view .LVU813
 2338 03b8 3044     		add	r0, r0, r6
 2339              	.LBB331:
 2340              	.LBB317:
 666:HANcoder_E407_TTA_CombineModel.c **** }
 2341              		.loc 1 666 15 view .LVU814
 2342 03ba D2B2     		uxtb	r2, r2
 2343              	.LBE317:
 2344              	.LBE331:
 2345              	.LBB332:
 2346              	.LBB326:
 682:HANcoder_E407_TTA_CombineModel.c **** }
 2347              		.loc 1 682 15 view .LVU815
 2348 03bc 1B01     		lsls	r3, r3, #4
 2349              	.LBE326:
 2350              	.LBE332:
 2351              	.LBB333:
 2352              	.LBB318:
 666:HANcoder_E407_TTA_CombineModel.c **** }
 2353              		.loc 1 666 13 view .LVU816
 2354 03be 85F84A20 		strb	r2, [r5, #74]
 2355              	.LBE318:
 2356              	.LBE333:
 2357              	.LBB334:
 2358              	.LBB327:
 682:HANcoder_E407_TTA_CombineModel.c **** }
 2359              		.loc 1 682 15 view .LVU817
 2360 03c2 DBB2     		uxtb	r3, r3
 2361              	.LBE327:
 2362              	.LBE334:
 2363              		.loc 1 3246 29 view .LVU818
 2364 03c4 0244     		add	r2, r2, r0
 2365              	.LBB335:
 2366              	.LBB328:
 682:HANcoder_E407_TTA_CombineModel.c **** }
 2367              		.loc 1 682 13 view .LVU819
 2368 03c6 85F84930 		strb	r3, [r5, #73]
 2369              	.LBE328:
 2370              	.LBE335:
 2371              		.loc 1 3246 9 view .LVU820
 2372 03ca 1344     		add	r3, r3, r2
 2373              	.LBB336:
 2374              	.LBB337:
 698:HANcoder_E407_TTA_CombineModel.c **** }
 2375              		.loc 1 698 15 view .LVU821
 2376 03cc 91F82520 		ldrb	r2, [r1, #37]	@ zero_extendqisi2
 2377              	.LBE337:
 2378              	.LBE336:
 2379              	.LBB341:
 2380              	.LBB342:
 714:HANcoder_E407_TTA_CombineModel.c **** }
 2381              		.loc 1 714 15 view .LVU822
 2382 03d0 91F82600 		ldrb	r0, [r1, #38]	@ zero_extendqisi2
 2383              	.LBE342:
 2384              	.LBE341:
3247:HANcoder_E407_TTA_CombineModel.c ****         ((uint32_T)rtConstB.Cast7 + rtB.BitShift1_n4.y) + rtB.BitShift_a0.y) +
3248:HANcoder_E407_TTA_CombineModel.c ****         rtB.BitShift2_f.y) + rtB.BitShift3_a.y) + rtB.BitShift4_ew.y) +
3249:HANcoder_E407_TTA_CombineModel.c ****         rtB.BitShift5_nm.y) + rtB.BitShift6_ab.y);
3250:HANcoder_E407_TTA_CombineModel.c **** 
3251:HANcoder_E407_TTA_CombineModel.c ****       /* Outputs for Atomic SubSystem: '<S348>/Bit Shift' */
3252:HANcoder_E407_TTA_CombineModel.c ****       /* DataStoreRead: '<S118>/Data Store Read2' */
3253:HANcoder_E407_TTA_CombineModel.c ****       BitShift_o(rtDWork.potentiometer2, &rtB.BitShift_g3);
3254:HANcoder_E407_TTA_CombineModel.c **** 
3255:HANcoder_E407_TTA_CombineModel.c ****       /* End of Outputs for SubSystem: '<S348>/Bit Shift' */
3256:HANcoder_E407_TTA_CombineModel.c **** 
3257:HANcoder_E407_TTA_CombineModel.c ****       /* DataTypeConversion: '<S348>/Cast' */
3258:HANcoder_E407_TTA_CombineModel.c ****       rtB.Cast = (uint8_T)rtB.BitShift_g3.y;
3259:HANcoder_E407_TTA_CombineModel.c **** 
3260:HANcoder_E407_TTA_CombineModel.c ****       /* DataTypeConversion: '<S348>/Cast1' incorporates:
3261:HANcoder_E407_TTA_CombineModel.c ****        *  DataStoreRead: '<S118>/Data Store Read2'
3262:HANcoder_E407_TTA_CombineModel.c ****        */
3263:HANcoder_E407_TTA_CombineModel.c ****       rtB.Cast1 = (uint8_T)rtDWork.potentiometer2;
3264:HANcoder_E407_TTA_CombineModel.c **** 
3265:HANcoder_E407_TTA_CombineModel.c ****       /* Outputs for Atomic SubSystem: '<S349>/Bit Shift' */
3266:HANcoder_E407_TTA_CombineModel.c ****       /* DataStoreRead: '<S118>/Data Store Read1' */
3267:HANcoder_E407_TTA_CombineModel.c ****       BitShift_o(rtDWork.potentiometer1, &rtB.BitShift_gul);
3268:HANcoder_E407_TTA_CombineModel.c **** 
3269:HANcoder_E407_TTA_CombineModel.c ****       /* End of Outputs for SubSystem: '<S349>/Bit Shift' */
3270:HANcoder_E407_TTA_CombineModel.c **** 
3271:HANcoder_E407_TTA_CombineModel.c ****       /* DataTypeConversion: '<S349>/Cast' */
3272:HANcoder_E407_TTA_CombineModel.c ****       rtB.Cast_f = (uint8_T)rtB.BitShift_gul.y;
3273:HANcoder_E407_TTA_CombineModel.c **** 
3274:HANcoder_E407_TTA_CombineModel.c ****       /* DataTypeConversion: '<S349>/Cast1' incorporates:
3275:HANcoder_E407_TTA_CombineModel.c ****        *  DataStoreRead: '<S118>/Data Store Read1'
3276:HANcoder_E407_TTA_CombineModel.c ****        */
3277:HANcoder_E407_TTA_CombineModel.c ****       rtB.Cast1_m = (uint8_T)rtDWork.potentiometer1;
3278:HANcoder_E407_TTA_CombineModel.c **** 
3279:HANcoder_E407_TTA_CombineModel.c ****       /* Update for M-S-Function: '<S346>/S-Function' incorporates:
3280:HANcoder_E407_TTA_CombineModel.c ****        *  Constant: '<S10>/Constant18'
3281:HANcoder_E407_TTA_CombineModel.c ****        *  Constant: '<S118>/Constant1'
3282:HANcoder_E407_TTA_CombineModel.c ****        */
3283:HANcoder_E407_TTA_CombineModel.c ****       {
3284:HANcoder_E407_TTA_CombineModel.c ****         /* prepare the data */
3285:HANcoder_E407_TTA_CombineModel.c ****         canTxData.uint8_T_info[0] = rtB.Cast_f;
3286:HANcoder_E407_TTA_CombineModel.c ****         canTxData.uint8_T_info[1] = rtB.Cast1_m;
3287:HANcoder_E407_TTA_CombineModel.c ****         canTxData.uint8_T_info[2] = rtB.Cast;
3288:HANcoder_E407_TTA_CombineModel.c ****         canTxData.uint8_T_info[3] = rtB.Cast1;
3289:HANcoder_E407_TTA_CombineModel.c ****         canTxData.uint8_T_info[4] = rtB.DataStoreRead3;
3290:HANcoder_E407_TTA_CombineModel.c ****         canTxData.uint8_T_info[5] = rtB.DataStoreRead4;
3291:HANcoder_E407_TTA_CombineModel.c ****         canTxData.uint8_T_info[6] = rtB.Add;
3292:HANcoder_E407_TTA_CombineModel.c ****         canTxData.uint8_T_info[7] = ((uint8_T)0U);
3293:HANcoder_E407_TTA_CombineModel.c **** 
3294:HANcoder_E407_TTA_CombineModel.c ****         /* send the data */
3295:HANcoder_E407_TTA_CombineModel.c ****         CanTransmit(0, TRLS1_ID5, 8, &canTxData.uint8_T_info[0]);
 2385              		.loc 1 3295 9 view .LVU823
 2386 03d4 554E     		ldr	r6, .L451+4
 2387              	.LBB346:
 2388              	.LBB338:
 698:HANcoder_E407_TTA_CombineModel.c **** }
 2389              		.loc 1 698 15 view .LVU824
 2390 03d6 5201     		lsls	r2, r2, #5
 2391 03d8 D2B2     		uxtb	r2, r2
 2392              	.LBE338:
 2393              	.LBE346:
3245:HANcoder_E407_TTA_CombineModel.c ****         (uint8_T)((uint32_T)(uint8_T)((uint32_T)(uint8_T)((uint32_T)(uint8_T)
 2394              		.loc 1 3245 57 view .LVU825
 2395 03da 1344     		add	r3, r3, r2
 2396              	.LBB347:
 2397              	.LBB339:
 698:HANcoder_E407_TTA_CombineModel.c **** }
 2398              		.loc 1 698 13 view .LVU826
 2399 03dc 85F84820 		strb	r2, [r5, #72]
 2400              	.LBE339:
 2401              	.LBE347:
 2402              	.LBB348:
 2403              	.LBB349:
 730:HANcoder_E407_TTA_CombineModel.c **** }
 2404              		.loc 1 730 15 view .LVU827
 2405 03e0 91F82720 		ldrb	r2, [r1, #39]	@ zero_extendqisi2
 2406              	.LBE349:
 2407              	.LBE348:
 2408              	.LBB353:
 2409              	.LBB343:
 714:HANcoder_E407_TTA_CombineModel.c **** }
 2410              		.loc 1 714 15 view .LVU828
 2411 03e4 8101     		lsls	r1, r0, #6
 2412 03e6 C9B2     		uxtb	r1, r1
 2413              	.LBE343:
 2414              	.LBE353:
 2415              	.LBB354:
 2416              	.LBB350:
 730:HANcoder_E407_TTA_CombineModel.c **** }
 2417              		.loc 1 730 15 view .LVU829
 2418 03e8 D201     		lsls	r2, r2, #7
 2419 03ea D2B2     		uxtb	r2, r2
 2420              	.LBE350:
 2421              	.LBE354:
3245:HANcoder_E407_TTA_CombineModel.c ****         (uint8_T)((uint32_T)(uint8_T)((uint32_T)(uint8_T)((uint32_T)(uint8_T)
 2422              		.loc 1 3245 37 view .LVU830
 2423 03ec 0B44     		add	r3, r3, r1
3245:HANcoder_E407_TTA_CombineModel.c ****         (uint8_T)((uint32_T)(uint8_T)((uint32_T)(uint8_T)((uint32_T)(uint8_T)
 2424              		.loc 1 3245 17 view .LVU831
 2425 03ee 1344     		add	r3, r3, r2
 2426              	.LBB355:
 2427              	.LBB351:
 730:HANcoder_E407_TTA_CombineModel.c **** }
 2428              		.loc 1 730 13 view .LVU832
 2429 03f0 85F84620 		strb	r2, [r5, #70]
 2430              	.LBE351:
 2431              	.LBE355:
3245:HANcoder_E407_TTA_CombineModel.c ****         (uint8_T)((uint32_T)(uint8_T)((uint32_T)(uint8_T)((uint32_T)(uint8_T)
 2432              		.loc 1 3245 17 view .LVU833
 2433 03f4 DAB2     		uxtb	r2, r3
3253:HANcoder_E407_TTA_CombineModel.c **** 
 2434              		.loc 1 3253 7 view .LVU834
 2435 03f6 B4F85E30 		ldrh	r3, [r4, #94]
3263:HANcoder_E407_TTA_CombineModel.c **** 
 2436              		.loc 1 3263 19 view .LVU835
 2437 03fa 2B72     		strb	r3, [r5, #8]
 2438              	.LBB356:
 2439              	.LBB357:
 751:HANcoder_E407_TTA_CombineModel.c **** }
 2440              		.loc 1 751 15 view .LVU836
 2441 03fc 1B0A     		lsrs	r3, r3, #8
 751:HANcoder_E407_TTA_CombineModel.c **** }
 2442              		.loc 1 751 13 view .LVU837
 2443 03fe A5F84430 		strh	r3, [r5, #68]	@ movhi
 2444              	.LBE357:
 2445              	.LBE356:
3258:HANcoder_E407_TTA_CombineModel.c **** 
 2446              		.loc 1 3258 18 view .LVU838
 2447 0402 EB71     		strb	r3, [r5, #7]
3267:HANcoder_E407_TTA_CombineModel.c **** 
 2448              		.loc 1 3267 7 view .LVU839
 2449 0404 B4F85030 		ldrh	r3, [r4, #80]
 2450 0408 B4F85000 		ldrh	r0, [r4, #80]
 2451              	.LBB359:
 2452              	.LBB344:
 714:HANcoder_E407_TTA_CombineModel.c **** }
 2453              		.loc 1 714 13 view .LVU840
 2454 040c 85F84710 		strb	r1, [r5, #71]
 2455              	.LBE344:
 2456              	.LBE359:
3277:HANcoder_E407_TTA_CombineModel.c **** 
 2457              		.loc 1 3277 21 view .LVU841
 2458 0410 AB72     		strb	r3, [r5, #10]
 2459 0412 B4F85E10 		ldrh	r1, [r4, #94]
3245:HANcoder_E407_TTA_CombineModel.c ****         (uint8_T)((uint32_T)(uint8_T)((uint32_T)(uint8_T)((uint32_T)(uint8_T)
 2460              		.loc 1 3245 15 view .LVU842
 2461 0416 AA71     		strb	r2, [r5, #6]
 2462              	.LBB360:
 2463              	.LBB361:
 751:HANcoder_E407_TTA_CombineModel.c **** }
 2464              		.loc 1 751 15 view .LVU843
 2465 0418 1B0A     		lsrs	r3, r3, #8
 751:HANcoder_E407_TTA_CombineModel.c **** }
 2466              		.loc 1 751 13 view .LVU844
 2467 041a A5F84230 		strh	r3, [r5, #66]	@ movhi
 2468              	.LBE361:
 2469              	.LBE360:
3272:HANcoder_E407_TTA_CombineModel.c **** 
 2470              		.loc 1 3272 20 view .LVU845
 2471 041e 6B72     		strb	r3, [r5, #9]
3285:HANcoder_E407_TTA_CombineModel.c ****         canTxData.uint8_T_info[1] = rtB.Cast1_m;
 2472              		.loc 1 3285 35 view .LVU846
 2473 0420 434B     		ldr	r3, .L451+8
 2474 0422 49BA     		rev16	r1, r1
 2475 0424 40BA     		rev16	r0, r0
 2476 0426 1880     		strh	r0, [r3]	@ movhi
3287:HANcoder_E407_TTA_CombineModel.c ****         canTxData.uint8_T_info[3] = rtB.Cast1;
 2477              		.loc 1 3287 35 view .LVU847
 2478 0428 5980     		strh	r1, [r3, #2]	@ movhi
3199:HANcoder_E407_TTA_CombineModel.c **** 
 2479              		.loc 1 3199 35 view .LVU848
 2480 042a 94F8DF00 		ldrb	r0, [r4, #223]	@ zero_extendqisi2
3202:HANcoder_E407_TTA_CombineModel.c **** 
 2481              		.loc 1 3202 35 view .LVU849
 2482 042e 94F8E010 		ldrb	r1, [r4, #224]	@ zero_extendqisi2
3202:HANcoder_E407_TTA_CombineModel.c **** 
 2483              		.loc 1 3202 26 view .LVU850
 2484 0432 6971     		strb	r1, [r5, #5]
3199:HANcoder_E407_TTA_CombineModel.c **** 
 2485              		.loc 1 3199 26 view .LVU851
 2486 0434 2871     		strb	r0, [r5, #4]
3202:HANcoder_E407_TTA_CombineModel.c **** 
 2487              		.loc 1 3202 7 is_stmt 1 view .LVU852
3207:HANcoder_E407_TTA_CombineModel.c **** 
 2488              		.loc 1 3207 7 view .LVU853
 2489              	.LVL128:
3210:HANcoder_E407_TTA_CombineModel.c **** 
 2490              		.loc 1 3210 7 view .LVU854
 2491              	.LBB363:
 2492              	.LBI304:
 645:HANcoder_E407_TTA_CombineModel.c **** {
 2493              		.loc 1 645 6 view .LVU855
 2494              	.LBB308:
 650:HANcoder_E407_TTA_CombineModel.c **** }
 2495              		.loc 1 650 3 view .LVU856
 650:HANcoder_E407_TTA_CombineModel.c **** }
 2496              		.loc 1 650 3 is_stmt 0 view .LVU857
 2497              	.LBE308:
 2498              	.LBE363:
3215:HANcoder_E407_TTA_CombineModel.c **** 
 2499              		.loc 1 3215 7 is_stmt 1 view .LVU858
 2500              	.LBB364:
 2501              	.LBI309:
 629:HANcoder_E407_TTA_CombineModel.c **** {
 2502              		.loc 1 629 6 view .LVU859
 2503              	.LBB313:
 634:HANcoder_E407_TTA_CombineModel.c **** }
 2504              		.loc 1 634 3 view .LVU860
 634:HANcoder_E407_TTA_CombineModel.c **** }
 2505              		.loc 1 634 3 is_stmt 0 view .LVU861
 2506              	.LBE313:
 2507              	.LBE364:
3220:HANcoder_E407_TTA_CombineModel.c **** 
 2508              		.loc 1 3220 7 is_stmt 1 view .LVU862
 2509              	.LBB365:
 2510              	.LBI314:
 661:HANcoder_E407_TTA_CombineModel.c **** {
 2511              		.loc 1 661 6 view .LVU863
 2512              	.LBB319:
 666:HANcoder_E407_TTA_CombineModel.c **** }
 2513              		.loc 1 666 3 view .LVU864
 666:HANcoder_E407_TTA_CombineModel.c **** }
 2514              		.loc 1 666 3 is_stmt 0 view .LVU865
 2515              	.LBE319:
 2516              	.LBE365:
3225:HANcoder_E407_TTA_CombineModel.c **** 
 2517              		.loc 1 3225 7 is_stmt 1 view .LVU866
 2518              	.LBB366:
 2519              	.LBI324:
 677:HANcoder_E407_TTA_CombineModel.c **** {
 2520              		.loc 1 677 6 view .LVU867
 2521              	.LBB329:
 682:HANcoder_E407_TTA_CombineModel.c **** }
 2522              		.loc 1 682 3 view .LVU868
 682:HANcoder_E407_TTA_CombineModel.c **** }
 2523              		.loc 1 682 3 is_stmt 0 view .LVU869
 2524              	.LBE329:
 2525              	.LBE366:
3230:HANcoder_E407_TTA_CombineModel.c **** 
 2526              		.loc 1 3230 7 is_stmt 1 view .LVU870
 2527              	.LBB367:
 2528              	.LBI336:
 693:HANcoder_E407_TTA_CombineModel.c **** {
 2529              		.loc 1 693 6 view .LVU871
 2530              	.LBB340:
 698:HANcoder_E407_TTA_CombineModel.c **** }
 2531              		.loc 1 698 3 view .LVU872
 698:HANcoder_E407_TTA_CombineModel.c **** }
 2532              		.loc 1 698 3 is_stmt 0 view .LVU873
 2533              	.LBE340:
 2534              	.LBE367:
3235:HANcoder_E407_TTA_CombineModel.c **** 
 2535              		.loc 1 3235 7 is_stmt 1 view .LVU874
 2536              	.LBB368:
 2537              	.LBI341:
 709:HANcoder_E407_TTA_CombineModel.c **** {
 2538              		.loc 1 709 6 view .LVU875
 2539              	.LBB345:
 714:HANcoder_E407_TTA_CombineModel.c **** }
 2540              		.loc 1 714 3 view .LVU876
 714:HANcoder_E407_TTA_CombineModel.c **** }
 2541              		.loc 1 714 3 is_stmt 0 view .LVU877
 2542              	.LBE345:
 2543              	.LBE368:
3240:HANcoder_E407_TTA_CombineModel.c **** 
 2544              		.loc 1 3240 7 is_stmt 1 view .LVU878
 2545              	.LBB369:
 2546              	.LBI348:
 725:HANcoder_E407_TTA_CombineModel.c **** {
 2547              		.loc 1 725 6 view .LVU879
 2548              	.LBB352:
 730:HANcoder_E407_TTA_CombineModel.c **** }
 2549              		.loc 1 730 3 view .LVU880
 730:HANcoder_E407_TTA_CombineModel.c **** }
 2550              		.loc 1 730 3 is_stmt 0 view .LVU881
 2551              	.LBE352:
 2552              	.LBE369:
3245:HANcoder_E407_TTA_CombineModel.c ****         (uint8_T)((uint32_T)(uint8_T)((uint32_T)(uint8_T)((uint32_T)(uint8_T)
 2553              		.loc 1 3245 7 is_stmt 1 view .LVU882
3253:HANcoder_E407_TTA_CombineModel.c **** 
 2554              		.loc 1 3253 7 view .LVU883
 2555              	.LBB370:
 2556              	.LBI356:
 746:HANcoder_E407_TTA_CombineModel.c **** {
 2557              		.loc 1 746 6 view .LVU884
 2558              	.LBB358:
 751:HANcoder_E407_TTA_CombineModel.c **** }
 2559              		.loc 1 751 3 view .LVU885
 751:HANcoder_E407_TTA_CombineModel.c **** }
 2560              		.loc 1 751 3 is_stmt 0 view .LVU886
 2561              	.LBE358:
 2562              	.LBE370:
3258:HANcoder_E407_TTA_CombineModel.c **** 
 2563              		.loc 1 3258 7 is_stmt 1 view .LVU887
3263:HANcoder_E407_TTA_CombineModel.c **** 
 2564              		.loc 1 3263 7 view .LVU888
3267:HANcoder_E407_TTA_CombineModel.c **** 
 2565              		.loc 1 3267 7 view .LVU889
 2566              	.LBB371:
 2567              	.LBI360:
 746:HANcoder_E407_TTA_CombineModel.c **** {
 2568              		.loc 1 746 6 view .LVU890
 2569              	.LBB362:
 751:HANcoder_E407_TTA_CombineModel.c **** }
 2570              		.loc 1 751 3 view .LVU891
 751:HANcoder_E407_TTA_CombineModel.c **** }
 2571              		.loc 1 751 3 is_stmt 0 view .LVU892
 2572              	.LBE362:
 2573              	.LBE371:
3272:HANcoder_E407_TTA_CombineModel.c **** 
 2574              		.loc 1 3272 7 is_stmt 1 view .LVU893
3277:HANcoder_E407_TTA_CombineModel.c **** 
 2575              		.loc 1 3277 7 view .LVU894
3285:HANcoder_E407_TTA_CombineModel.c ****         canTxData.uint8_T_info[1] = rtB.Cast1_m;
 2576              		.loc 1 3285 9 view .LVU895
3286:HANcoder_E407_TTA_CombineModel.c ****         canTxData.uint8_T_info[2] = rtB.Cast;
 2577              		.loc 1 3286 9 view .LVU896
3287:HANcoder_E407_TTA_CombineModel.c ****         canTxData.uint8_T_info[3] = rtB.Cast1;
 2578              		.loc 1 3287 9 view .LVU897
3288:HANcoder_E407_TTA_CombineModel.c ****         canTxData.uint8_T_info[4] = rtB.DataStoreRead3;
 2579              		.loc 1 3288 9 view .LVU898
3289:HANcoder_E407_TTA_CombineModel.c ****         canTxData.uint8_T_info[5] = rtB.DataStoreRead4;
 2580              		.loc 1 3289 9 view .LVU899
3289:HANcoder_E407_TTA_CombineModel.c ****         canTxData.uint8_T_info[5] = rtB.DataStoreRead4;
 2581              		.loc 1 3289 35 is_stmt 0 view .LVU900
 2582 0436 1871     		strb	r0, [r3, #4]
3290:HANcoder_E407_TTA_CombineModel.c ****         canTxData.uint8_T_info[6] = rtB.Add;
 2583              		.loc 1 3290 9 is_stmt 1 view .LVU901
3292:HANcoder_E407_TTA_CombineModel.c **** 
 2584              		.loc 1 3292 35 is_stmt 0 view .LVU902
 2585 0438 0020     		movs	r0, #0
3290:HANcoder_E407_TTA_CombineModel.c ****         canTxData.uint8_T_info[6] = rtB.Add;
 2586              		.loc 1 3290 35 view .LVU903
 2587 043a 5971     		strb	r1, [r3, #5]
3291:HANcoder_E407_TTA_CombineModel.c ****         canTxData.uint8_T_info[7] = ((uint8_T)0U);
 2588              		.loc 1 3291 9 is_stmt 1 view .LVU904
3291:HANcoder_E407_TTA_CombineModel.c ****         canTxData.uint8_T_info[7] = ((uint8_T)0U);
 2589              		.loc 1 3291 35 is_stmt 0 view .LVU905
 2590 043c 9A71     		strb	r2, [r3, #6]
3292:HANcoder_E407_TTA_CombineModel.c **** 
 2591              		.loc 1 3292 9 is_stmt 1 view .LVU906
3292:HANcoder_E407_TTA_CombineModel.c **** 
 2592              		.loc 1 3292 35 is_stmt 0 view .LVU907
 2593 043e D871     		strb	r0, [r3, #7]
 2594              		.loc 1 3295 9 is_stmt 1 view .LVU908
 2595 0440 3168     		ldr	r1, [r6]
 2596 0442 0822     		movs	r2, #8
 2597 0444 FFF7FEFF 		bl	CanTransmit
 2598              	.LVL129:
3192:HANcoder_E407_TTA_CombineModel.c **** 
 2599              		.loc 1 3192 13 is_stmt 0 view .LVU909
 2600 0448 0123     		movs	r3, #1
 2601              	.LVL130:
 2602              	.L220:
3296:HANcoder_E407_TTA_CombineModel.c ****       }
3297:HANcoder_E407_TTA_CombineModel.c ****     }
3298:HANcoder_E407_TTA_CombineModel.c **** 
3299:HANcoder_E407_TTA_CombineModel.c ****     rtPrevZCSigState.TRLS_ID5_TX_Trig_ZCE = rtb_OR1;
 2603              		.loc 1 3299 5 is_stmt 1 view .LVU910
3300:HANcoder_E407_TTA_CombineModel.c **** 
3301:HANcoder_E407_TTA_CombineModel.c ****     /* End of Outputs for SubSystem: '<S10>/TRLS_ID5_TX' */
3302:HANcoder_E407_TTA_CombineModel.c **** 
3303:HANcoder_E407_TTA_CombineModel.c ****     /* Update for Delay: '<S102>/Delay' incorporates:
3304:HANcoder_E407_TTA_CombineModel.c ****      *  DataStoreRead: '<S102>/Data Store Read'
3305:HANcoder_E407_TTA_CombineModel.c ****      */
3306:HANcoder_E407_TTA_CombineModel.c ****     for (idxDelay = 0; idxDelay < 19; idxDelay++) {
3307:HANcoder_E407_TTA_CombineModel.c ****       rtDWork.Delay_DSTATE[idxDelay] = rtDWork.Delay_DSTATE[idxDelay + 1];
 2604              		.loc 1 3307 38 is_stmt 0 view .LVU911
 2605 044a 3A49     		ldr	r1, .L451+12
3299:HANcoder_E407_TTA_CombineModel.c **** 
 2606              		.loc 1 3299 43 view .LVU912
 2607 044c 8AF80230 		strb	r3, [r10, #2]
3306:HANcoder_E407_TTA_CombineModel.c ****       rtDWork.Delay_DSTATE[idxDelay] = rtDWork.Delay_DSTATE[idxDelay + 1];
 2608              		.loc 1 3306 5 is_stmt 1 view .LVU913
 2609              	.LVL131:
3306:HANcoder_E407_TTA_CombineModel.c ****       rtDWork.Delay_DSTATE[idxDelay] = rtDWork.Delay_DSTATE[idxDelay + 1];
 2610              		.loc 1 3306 24 view .LVU914
 2611              		.loc 1 3307 38 is_stmt 0 view .LVU915
 2612 0450 1322     		movs	r2, #19
 2613 0452 481E     		subs	r0, r1, #1
 2614 0454 FFF7FEFF 		bl	memmove
 2615              	.LVL132:
3308:HANcoder_E407_TTA_CombineModel.c ****     }
3309:HANcoder_E407_TTA_CombineModel.c **** 
3310:HANcoder_E407_TTA_CombineModel.c ****     rtDWork.Delay_DSTATE[19] = rtDWork.node1CanFailed;
 2616              		.loc 1 3310 5 is_stmt 1 view .LVU916
3311:HANcoder_E407_TTA_CombineModel.c **** 
3312:HANcoder_E407_TTA_CombineModel.c ****     /* End of Update for Delay: '<S102>/Delay' */
3313:HANcoder_E407_TTA_CombineModel.c **** 
3314:HANcoder_E407_TTA_CombineModel.c ****     /* Update for Enabled SubSystem: '<S10>/MMBS1_RX' incorporates:
3315:HANcoder_E407_TTA_CombineModel.c ****      *  EnablePort: '<S103>/Enable'
3316:HANcoder_E407_TTA_CombineModel.c ****      */
3317:HANcoder_E407_TTA_CombineModel.c ****     if (rtDWork.MMBS1_RX_MODE) {
 2617              		.loc 1 3317 8 is_stmt 0 view .LVU917
 2618 0458 94F80531 		ldrb	r3, [r4, #261]	@ zero_extendqisi2
3310:HANcoder_E407_TTA_CombineModel.c **** 
 2619              		.loc 1 3310 30 view .LVU918
 2620 045c 94F8F420 		ldrb	r2, [r4, #244]	@ zero_extendqisi2
 2621 0460 84F87920 		strb	r2, [r4, #121]
 2622              		.loc 1 3317 5 is_stmt 1 view .LVU919
 2623              		.loc 1 3317 8 is_stmt 0 view .LVU920
 2624 0464 13B1     		cbz	r3, .L407
3318:HANcoder_E407_TTA_CombineModel.c ****       /* Update for Memory: '<S122>/Memory' */
3319:HANcoder_E407_TTA_CombineModel.c ****       rtDWork.Memory_PreviousInput = rtb_Logic[0];
 2625              		.loc 1 3319 7 is_stmt 1 view .LVU921
 2626              		.loc 1 3319 36 is_stmt 0 view .LVU922
 2627 0466 029B     		ldr	r3, [sp, #8]
 2628 0468 84F8F730 		strb	r3, [r4, #247]
 2629              	.L407:
3320:HANcoder_E407_TTA_CombineModel.c ****     }
3321:HANcoder_E407_TTA_CombineModel.c **** 
3322:HANcoder_E407_TTA_CombineModel.c ****     /* End of Update for SubSystem: '<S10>/MMBS1_RX' */
3323:HANcoder_E407_TTA_CombineModel.c ****   } else if (rtDWork.Messageselector_MODE) {
3324:HANcoder_E407_TTA_CombineModel.c ****     /* Disable for Enabled SubSystem: '<S10>/MMBS1_RX' */
3325:HANcoder_E407_TTA_CombineModel.c ****     if (rtDWork.MMBS1_RX_MODE) {
3326:HANcoder_E407_TTA_CombineModel.c ****       rtDWork.MMBS1_RX_MODE = false;
3327:HANcoder_E407_TTA_CombineModel.c ****     }
3328:HANcoder_E407_TTA_CombineModel.c **** 
3329:HANcoder_E407_TTA_CombineModel.c ****     /* End of Disable for SubSystem: '<S10>/MMBS1_RX' */
3330:HANcoder_E407_TTA_CombineModel.c ****     /* Disable for Enabled SubSystem: '<S10>/SSTM1_RX' */
3331:HANcoder_E407_TTA_CombineModel.c ****     if (rtDWork.SSTM1_RX_MODE) {
3332:HANcoder_E407_TTA_CombineModel.c ****       rtDWork.SSTM1_RX_MODE = false;
3333:HANcoder_E407_TTA_CombineModel.c ****     }
3334:HANcoder_E407_TTA_CombineModel.c **** 
3335:HANcoder_E407_TTA_CombineModel.c ****     /* End of Disable for SubSystem: '<S10>/SSTM1_RX' */
3336:HANcoder_E407_TTA_CombineModel.c ****     /* Disable for Enabled SubSystem: '<S10>/SYNC1_RX' */
3337:HANcoder_E407_TTA_CombineModel.c ****     if (rtDWork.SYNC1_RX_MODE) {
3338:HANcoder_E407_TTA_CombineModel.c ****       rtDWork.SYNC1_RX_MODE = false;
3339:HANcoder_E407_TTA_CombineModel.c ****     }
3340:HANcoder_E407_TTA_CombineModel.c **** 
3341:HANcoder_E407_TTA_CombineModel.c ****     /* End of Disable for SubSystem: '<S10>/SYNC1_RX' */
3342:HANcoder_E407_TTA_CombineModel.c ****     /* Disable for Enabled SubSystem: '<S10>/TRCK1_ID2_RX' */
3343:HANcoder_E407_TTA_CombineModel.c ****     if (rtDWork.TRCK1_ID2_RX_MODE) {
3344:HANcoder_E407_TTA_CombineModel.c ****       rtDWork.TRCK1_ID2_RX_MODE = false;
3345:HANcoder_E407_TTA_CombineModel.c ****     }
3346:HANcoder_E407_TTA_CombineModel.c **** 
3347:HANcoder_E407_TTA_CombineModel.c ****     /* End of Disable for SubSystem: '<S10>/TRCK1_ID2_RX' */
3348:HANcoder_E407_TTA_CombineModel.c ****     /* Disable for Enabled SubSystem: '<S10>/TRCK1_RX' */
3349:HANcoder_E407_TTA_CombineModel.c ****     if (rtDWork.TRCK1_RX_MODE) {
3350:HANcoder_E407_TTA_CombineModel.c ****       rtDWork.TRCK1_RX_MODE = false;
3351:HANcoder_E407_TTA_CombineModel.c ****     }
3352:HANcoder_E407_TTA_CombineModel.c **** 
3353:HANcoder_E407_TTA_CombineModel.c ****     /* End of Disable for SubSystem: '<S10>/TRCK1_RX' */
3354:HANcoder_E407_TTA_CombineModel.c ****     /* Disable for Enabled SubSystem: '<S10>/TRCK_ID3_RX' */
3355:HANcoder_E407_TTA_CombineModel.c ****     if (rtDWork.TRCK_ID3_RX_MODE) {
3356:HANcoder_E407_TTA_CombineModel.c ****       rtDWork.TRCK_ID3_RX_MODE = false;
3357:HANcoder_E407_TTA_CombineModel.c ****     }
3358:HANcoder_E407_TTA_CombineModel.c **** 
3359:HANcoder_E407_TTA_CombineModel.c ****     /* End of Disable for SubSystem: '<S10>/TRCK_ID3_RX' */
3360:HANcoder_E407_TTA_CombineModel.c **** 
3361:HANcoder_E407_TTA_CombineModel.c ****     /* Disable for Enabled SubSystem: '<S10>/TRLS_ID4_RX' */
3362:HANcoder_E407_TTA_CombineModel.c ****     if (rtDWork.TRLS_ID4_RX_MODE) {
3363:HANcoder_E407_TTA_CombineModel.c ****       rtDWork.TRLS_ID4_RX_MODE = false;
3364:HANcoder_E407_TTA_CombineModel.c ****     }
3365:HANcoder_E407_TTA_CombineModel.c **** 
3366:HANcoder_E407_TTA_CombineModel.c ****     /* End of Disable for SubSystem: '<S10>/TRLS_ID4_RX' */
3367:HANcoder_E407_TTA_CombineModel.c ****     /* Disable for Enabled SubSystem: '<S10>/TRLS_ID5_RX' */
3368:HANcoder_E407_TTA_CombineModel.c ****     if (rtDWork.TRLS_ID5_RX_MODE) {
3369:HANcoder_E407_TTA_CombineModel.c ****       rtDWork.TRLS_ID5_RX_MODE = false;
3370:HANcoder_E407_TTA_CombineModel.c ****     }
3371:HANcoder_E407_TTA_CombineModel.c **** 
3372:HANcoder_E407_TTA_CombineModel.c ****     /* End of Disable for SubSystem: '<S10>/TRLS_ID5_RX' */
3373:HANcoder_E407_TTA_CombineModel.c ****     rtDWork.Messageselector_MODE = false;
3374:HANcoder_E407_TTA_CombineModel.c ****   }
3375:HANcoder_E407_TTA_CombineModel.c **** 
3376:HANcoder_E407_TTA_CombineModel.c ****   /* End of Outputs for SubSystem: '<S1>/Message selector' */
3377:HANcoder_E407_TTA_CombineModel.c **** 
3378:HANcoder_E407_TTA_CombineModel.c ****   /* Outputs for Triggered SubSystem: '<S12>/Subsystem' incorporates:
3379:HANcoder_E407_TTA_CombineModel.c ****    *  TriggerPort: '<S368>/Trigger'
3380:HANcoder_E407_TTA_CombineModel.c ****    */
3381:HANcoder_E407_TTA_CombineModel.c ****   if (rtb_AND && (rtPrevZCSigState.Subsystem_Trig_ZCE != POS_ZCSIG)) {
3382:HANcoder_E407_TTA_CombineModel.c ****     /* DataStoreWrite: '<S368>/Data Store Write1' incorporates:
3383:HANcoder_E407_TTA_CombineModel.c ****      *  Constant: '<S368>/Constant1'
3384:HANcoder_E407_TTA_CombineModel.c ****      */
3385:HANcoder_E407_TTA_CombineModel.c ****     rtDWork.Local_Ticks = ((uint8_T)0U);
3386:HANcoder_E407_TTA_CombineModel.c **** 
3387:HANcoder_E407_TTA_CombineModel.c ****     /* DataStoreWrite: '<S368>/Data Store Write' incorporates:
3388:HANcoder_E407_TTA_CombineModel.c ****      *  Constant: '<S368>/Constant3'
3389:HANcoder_E407_TTA_CombineModel.c ****      */
3390:HANcoder_E407_TTA_CombineModel.c ****     rtDWork.SlotTime = slotTime;
3391:HANcoder_E407_TTA_CombineModel.c ****   }
3392:HANcoder_E407_TTA_CombineModel.c **** 
3393:HANcoder_E407_TTA_CombineModel.c ****   rtPrevZCSigState.Subsystem_Trig_ZCE = rtb_AND;
3394:HANcoder_E407_TTA_CombineModel.c **** 
3395:HANcoder_E407_TTA_CombineModel.c ****   /* End of Outputs for SubSystem: '<S12>/Subsystem' */
3396:HANcoder_E407_TTA_CombineModel.c **** 
3397:HANcoder_E407_TTA_CombineModel.c ****   /* Outputs for Enabled SubSystem: '<S12>/Subsystem2' incorporates:
3398:HANcoder_E407_TTA_CombineModel.c ****    *  EnablePort: '<S369>/Enable'
3399:HANcoder_E407_TTA_CombineModel.c ****    */
3400:HANcoder_E407_TTA_CombineModel.c ****   /* Logic: '<S12>/AND1' incorporates:
3401:HANcoder_E407_TTA_CombineModel.c ****    *  Constant: '<S12>/Constant1'
3402:HANcoder_E407_TTA_CombineModel.c ****    *  DataStoreRead: '<S12>/Data Store Read'
3403:HANcoder_E407_TTA_CombineModel.c ****    *  DataStoreRead: '<S1>/Data Store Read3'
3404:HANcoder_E407_TTA_CombineModel.c ****    *  Logic: '<S12>/NOT'
3405:HANcoder_E407_TTA_CombineModel.c ****    *  RelationalOperator: '<S12>/GreaterThan'
3406:HANcoder_E407_TTA_CombineModel.c ****    */
3407:HANcoder_E407_TTA_CombineModel.c ****   if ((rtDWork.Board_ID > ((uint8_T)1U)) && (!rtDWork.slaveClockOn)) {
 2630              		.loc 1 3407 15 view .LVU923
 2631 046c 94F8DEB0 		ldrb	fp, [r4, #222]	@ zero_extendqisi2
 2632              	.L186:
3381:HANcoder_E407_TTA_CombineModel.c ****     /* DataStoreWrite: '<S368>/Data Store Write1' incorporates:
 2633              		.loc 1 3381 3 is_stmt 1 view .LVU924
3381:HANcoder_E407_TTA_CombineModel.c ****     /* DataStoreWrite: '<S368>/Data Store Write1' incorporates:
 2634              		.loc 1 3381 6 is_stmt 0 view .LVU925
 2635 0470 039B     		ldr	r3, [sp, #12]
 2636 0472 53B1     		cbz	r3, .L195
3381:HANcoder_E407_TTA_CombineModel.c ****     /* DataStoreWrite: '<S368>/Data Store Write1' incorporates:
 2637              		.loc 1 3381 15 discriminator 1 view .LVU926
 2638 0474 9AF80130 		ldrb	r3, [r10, #1]	@ zero_extendqisi2
 2639 0478 012B     		cmp	r3, #1
 2640 047a 06D0     		beq	.L195
3385:HANcoder_E407_TTA_CombineModel.c **** 
 2641              		.loc 1 3385 5 is_stmt 1 view .LVU927
3390:HANcoder_E407_TTA_CombineModel.c ****   }
 2642              		.loc 1 3390 22 is_stmt 0 view .LVU928
 2643 047c 2E4B     		ldr	r3, .L451+16
 2644 047e 1B78     		ldrb	r3, [r3]	@ zero_extendqisi2
 2645 0480 84F8E230 		strb	r3, [r4, #226]
3385:HANcoder_E407_TTA_CombineModel.c **** 
 2646              		.loc 1 3385 25 view .LVU929
 2647 0484 0023     		movs	r3, #0
 2648 0486 84F8DF30 		strb	r3, [r4, #223]
3390:HANcoder_E407_TTA_CombineModel.c ****   }
 2649              		.loc 1 3390 5 is_stmt 1 view .LVU930
 2650              	.L195:
3393:HANcoder_E407_TTA_CombineModel.c **** 
 2651              		.loc 1 3393 3 view .LVU931
3393:HANcoder_E407_TTA_CombineModel.c **** 
 2652              		.loc 1 3393 39 is_stmt 0 view .LVU932
 2653 048a 049B     		ldr	r3, [sp, #16]
 2654 048c 8AF80130 		strb	r3, [r10, #1]
 2655              		.loc 1 3407 3 is_stmt 1 view .LVU933
 2656              		.loc 1 3407 6 is_stmt 0 view .LVU934
 2657 0490 BBF1010F 		cmp	fp, #1
 2658 0494 04D9     		bls	.L196
 2659              		.loc 1 3407 42 discriminator 1 view .LVU935
 2660 0496 94F8EA20 		ldrb	r2, [r4, #234]	@ zero_extendqisi2
 2661 049a 002A     		cmp	r2, #0
 2662 049c 00F03485 		beq	.L423
 2663              	.L196:
3408:HANcoder_E407_TTA_CombineModel.c ****     rtDWork.Subsystem2_MODE = true;
3409:HANcoder_E407_TTA_CombineModel.c **** 
3410:HANcoder_E407_TTA_CombineModel.c ****     /* M-S-Function: '<S370>/S-Function' incorporates:
3411:HANcoder_E407_TTA_CombineModel.c ****      *  Constant: '<S369>/Constant10'
3412:HANcoder_E407_TTA_CombineModel.c ****      */
3413:HANcoder_E407_TTA_CombineModel.c **** 
3414:HANcoder_E407_TTA_CombineModel.c ****     /* read the message data and store the new parameter */
3415:HANcoder_E407_TTA_CombineModel.c ****     rtb_SFunction_o1 = CanIoGetMessage(0, SYNC1_ID, NULL,
3416:HANcoder_E407_TTA_CombineModel.c ****       &canRxData_0_SYNC1_ID.uint8_T_info[0], NULL);
3417:HANcoder_E407_TTA_CombineModel.c **** 
3418:HANcoder_E407_TTA_CombineModel.c ****     /* process the message data */
3419:HANcoder_E407_TTA_CombineModel.c ****     if (rtb_SFunction_o1 > 0) {
3420:HANcoder_E407_TTA_CombineModel.c ****       /* read the data */
3421:HANcoder_E407_TTA_CombineModel.c ****       rtb_SFunction_o2 = canRxData_0_SYNC1_ID.uint8_T_info[0];
3422:HANcoder_E407_TTA_CombineModel.c ****       rtb_SFunction_o3 = canRxData_0_SYNC1_ID.uint8_T_info[1];
3423:HANcoder_E407_TTA_CombineModel.c ****       rtb_SFunction_o4 = canRxData_0_SYNC1_ID.uint8_T_info[2];
3424:HANcoder_E407_TTA_CombineModel.c ****       rtb_SFunction_o5 = canRxData_0_SYNC1_ID.uint8_T_info[3];
3425:HANcoder_E407_TTA_CombineModel.c ****       rtb_SFunction_o6 = canRxData_0_SYNC1_ID.uint8_T_info[4];
3426:HANcoder_E407_TTA_CombineModel.c ****       rtb_SFunction_o7 = canRxData_0_SYNC1_ID.uint8_T_info[5];
3427:HANcoder_E407_TTA_CombineModel.c ****       rtb_SFunction_o8 = canRxData_0_SYNC1_ID.uint8_T_info[6];
3428:HANcoder_E407_TTA_CombineModel.c ****       rtb_SFunction_o9 = canRxData_0_SYNC1_ID.uint8_T_info[7];
3429:HANcoder_E407_TTA_CombineModel.c ****     }
3430:HANcoder_E407_TTA_CombineModel.c **** 
3431:HANcoder_E407_TTA_CombineModel.c ****     /* Outputs for Enabled SubSystem: '<S370>/Enabled Subsystem' */
3432:HANcoder_E407_TTA_CombineModel.c ****     EnabledSubsystem(rtb_SFunction_o1, rtb_SFunction_o2, rtb_SFunction_o3,
3433:HANcoder_E407_TTA_CombineModel.c ****                      rtb_SFunction_o4, rtb_SFunction_o5, rtb_SFunction_o6,
3434:HANcoder_E407_TTA_CombineModel.c ****                      rtb_SFunction_o7, rtb_SFunction_o8, rtb_SFunction_o9,
3435:HANcoder_E407_TTA_CombineModel.c ****                      &rtB.EnabledSubsystem_i);
3436:HANcoder_E407_TTA_CombineModel.c **** 
3437:HANcoder_E407_TTA_CombineModel.c ****     /* End of Outputs for SubSystem: '<S370>/Enabled Subsystem' */
3438:HANcoder_E407_TTA_CombineModel.c **** 
3439:HANcoder_E407_TTA_CombineModel.c ****     /* Outputs for Triggered SubSystem: '<S369>/Subsystem1' incorporates:
3440:HANcoder_E407_TTA_CombineModel.c ****      *  TriggerPort: '<S371>/Trigger'
3441:HANcoder_E407_TTA_CombineModel.c ****      */
3442:HANcoder_E407_TTA_CombineModel.c ****     zcEvent = rt_I32ZCFcn(RISING_ZERO_CROSSING,
3443:HANcoder_E407_TTA_CombineModel.c ****                           &rtPrevZCSigState.Subsystem1_Trig_ZCE,
3444:HANcoder_E407_TTA_CombineModel.c ****                           (rtb_SFunction_o1));
3445:HANcoder_E407_TTA_CombineModel.c ****     if (zcEvent != NO_ZCEVENT) {
3446:HANcoder_E407_TTA_CombineModel.c ****       /* DataStoreWrite: '<S371>/Data Store Write' */
3447:HANcoder_E407_TTA_CombineModel.c ****       rtDWork.SlotTime = rtB.EnabledSubsystem_i.In1;
3448:HANcoder_E407_TTA_CombineModel.c **** 
3449:HANcoder_E407_TTA_CombineModel.c ****       /* DataStoreWrite: '<S371>/Data Store Write1' incorporates:
3450:HANcoder_E407_TTA_CombineModel.c ****        *  Constant: '<S371>/Constant'
3451:HANcoder_E407_TTA_CombineModel.c ****        */
3452:HANcoder_E407_TTA_CombineModel.c ****       rtDWork.Local_Ticks = ((uint8_T)0U);
3453:HANcoder_E407_TTA_CombineModel.c **** 
3454:HANcoder_E407_TTA_CombineModel.c ****       /* DataStoreWrite: '<S371>/Data Store Write2' incorporates:
3455:HANcoder_E407_TTA_CombineModel.c ****        *  Constant: '<S371>/Constant1'
3456:HANcoder_E407_TTA_CombineModel.c ****        */
3457:HANcoder_E407_TTA_CombineModel.c ****       rtDWork.slaveClockOn = true;
3458:HANcoder_E407_TTA_CombineModel.c **** 
3459:HANcoder_E407_TTA_CombineModel.c ****       /* DataStoreWrite: '<S371>/Data Store Write3' incorporates:
3460:HANcoder_E407_TTA_CombineModel.c ****        *  Constant: '<S371>/Constant2'
3461:HANcoder_E407_TTA_CombineModel.c ****        */
3462:HANcoder_E407_TTA_CombineModel.c ****       rtDWork.slot = ((uint8_T)1U);
3463:HANcoder_E407_TTA_CombineModel.c ****     }
3464:HANcoder_E407_TTA_CombineModel.c **** 
3465:HANcoder_E407_TTA_CombineModel.c ****     /* End of Outputs for SubSystem: '<S369>/Subsystem1' */
3466:HANcoder_E407_TTA_CombineModel.c ****   } else if (rtDWork.Subsystem2_MODE) {
 2664              		.loc 1 3466 10 is_stmt 1 view .LVU936
 2665              		.loc 1 3466 13 is_stmt 0 view .LVU937
 2666 04a0 94F8FC30 		ldrb	r3, [r4, #252]	@ zero_extendqisi2
 2667 04a4 002B     		cmp	r3, #0
 2668 04a6 40F08B84 		bne	.L424
 2669              	.L199:
3467:HANcoder_E407_TTA_CombineModel.c ****     rtDWork.Subsystem2_MODE = false;
3468:HANcoder_E407_TTA_CombineModel.c ****   }
3469:HANcoder_E407_TTA_CombineModel.c **** 
3470:HANcoder_E407_TTA_CombineModel.c ****   /* End of Logic: '<S12>/AND1' */
3471:HANcoder_E407_TTA_CombineModel.c ****   /* End of Outputs for SubSystem: '<S12>/Subsystem2' */
3472:HANcoder_E407_TTA_CombineModel.c **** 
3473:HANcoder_E407_TTA_CombineModel.c ****   /* If: '<S1>/If' incorporates:
3474:HANcoder_E407_TTA_CombineModel.c ****    *  DataStoreRead: '<S1>/Data Store Read38'
3475:HANcoder_E407_TTA_CombineModel.c ****    */
3476:HANcoder_E407_TTA_CombineModel.c ****   rtPrevAction = rtDWork.If_ActiveSubsystem;
 2670              		.loc 1 3476 3 is_stmt 1 view .LVU938
 2671              	.LVL133:
3477:HANcoder_E407_TTA_CombineModel.c ****   rtAction = -1;
 2672              		.loc 1 3477 3 view .LVU939
3478:HANcoder_E407_TTA_CombineModel.c ****   if (rtDWork.Board_ID <= 3) {
 2673              		.loc 1 3478 3 view .LVU940
 2674              		.loc 1 3478 6 is_stmt 0 view .LVU941
 2675 04aa BBF1030F 		cmp	fp, #3
 2676 04ae 40F28E84 		bls	.L425
 2677              	.L200:
3479:HANcoder_E407_TTA_CombineModel.c ****     rtAction = 0;
3480:HANcoder_E407_TTA_CombineModel.c ****   }
3481:HANcoder_E407_TTA_CombineModel.c **** 
3482:HANcoder_E407_TTA_CombineModel.c ****   rtDWork.If_ActiveSubsystem = rtAction;
 2678              		.loc 1 3482 3 is_stmt 1 view .LVU942
 2679              		.loc 1 3482 30 is_stmt 0 view .LVU943
 2680 04b2 FF23     		movs	r3, #255
 2681 04b4 84F8DC30 		strb	r3, [r4, #220]
 2682              	.LVL134:
3483:HANcoder_E407_TTA_CombineModel.c ****   if ((rtPrevAction != rtAction) && (rtPrevAction == 0)) {
 2683              		.loc 1 3483 3 is_stmt 1 view .LVU944
3484:HANcoder_E407_TTA_CombineModel.c ****   }
 2684              		.loc 1 3484 3 view .LVU945
3485:HANcoder_E407_TTA_CombineModel.c **** 
3486:HANcoder_E407_TTA_CombineModel.c ****   if (rtAction == 0) {
 2685              		.loc 1 3486 3 view .LVU946
 2686              	.L203:
3487:HANcoder_E407_TTA_CombineModel.c ****     /* Outputs for IfAction SubSystem: '<S1>/Triggered Subsystem' incorporates:
3488:HANcoder_E407_TTA_CombineModel.c ****      *  ActionPort: '<S17>/Action Port'
3489:HANcoder_E407_TTA_CombineModel.c ****      */
3490:HANcoder_E407_TTA_CombineModel.c ****     /* Saturate: '<S17>/Saturation' */
3491:HANcoder_E407_TTA_CombineModel.c ****     rtb_Multiply = ((uint8_T)1U);
3492:HANcoder_E407_TTA_CombineModel.c **** 
3493:HANcoder_E407_TTA_CombineModel.c ****     /* Saturate: '<S17>/Saturation1' */
3494:HANcoder_E407_TTA_CombineModel.c ****     rtb_Multiply1 = ((uint8_T)1U);
3495:HANcoder_E407_TTA_CombineModel.c **** 
3496:HANcoder_E407_TTA_CombineModel.c ****     /* Saturate: '<S17>/Saturation' incorporates:
3497:HANcoder_E407_TTA_CombineModel.c ****      *  DataStoreRead: '<S17>/Data Store Read46'
3498:HANcoder_E407_TTA_CombineModel.c ****      */
3499:HANcoder_E407_TTA_CombineModel.c ****     if (rtDWork.PositionID4 <= rtb_Multiply) {
3500:HANcoder_E407_TTA_CombineModel.c ****       rtb_Multiply = rtDWork.PositionID4;
3501:HANcoder_E407_TTA_CombineModel.c ****     }
3502:HANcoder_E407_TTA_CombineModel.c **** 
3503:HANcoder_E407_TTA_CombineModel.c ****     /* Saturate: '<S17>/Saturation1' incorporates:
3504:HANcoder_E407_TTA_CombineModel.c ****      *  DataStoreRead: '<S17>/Data Store Read45'
3505:HANcoder_E407_TTA_CombineModel.c ****      */
3506:HANcoder_E407_TTA_CombineModel.c ****     if (rtDWork.PositionID5 <= rtb_Multiply1) {
3507:HANcoder_E407_TTA_CombineModel.c ****       rtb_Multiply1 = rtDWork.PositionID5;
3508:HANcoder_E407_TTA_CombineModel.c ****     }
3509:HANcoder_E407_TTA_CombineModel.c **** 
3510:HANcoder_E407_TTA_CombineModel.c ****     /* Sum: '<S17>/Add' incorporates:
3511:HANcoder_E407_TTA_CombineModel.c ****      *  Saturate: '<S17>/Saturation'
3512:HANcoder_E407_TTA_CombineModel.c ****      *  Saturate: '<S17>/Saturation1'
3513:HANcoder_E407_TTA_CombineModel.c ****      */
3514:HANcoder_E407_TTA_CombineModel.c ****     amounttrailers = (uint8_T)((uint32_T)rtb_Multiply + rtb_Multiply1);
3515:HANcoder_E407_TTA_CombineModel.c **** 
3516:HANcoder_E407_TTA_CombineModel.c ****     /* DataStoreWrite: '<S17>/Data Store Write13' */
3517:HANcoder_E407_TTA_CombineModel.c ****     rtDWork.amountOfTrailers = amounttrailers;
3518:HANcoder_E407_TTA_CombineModel.c **** 
3519:HANcoder_E407_TTA_CombineModel.c ****     /* M-S-Function: '<S379>/Level-2 M-file S-Function' */
3520:HANcoder_E407_TTA_CombineModel.c ****     /* read from digital input */
3521:HANcoder_E407_TTA_CombineModel.c ****     rtb_Level2MfileSFunction_h = DiginGet(DIGIN_PORTA_PIN0);
3522:HANcoder_E407_TTA_CombineModel.c **** 
3523:HANcoder_E407_TTA_CombineModel.c ****     /* Outputs for Enabled SubSystem: '<S17>/Subsystem' incorporates:
3524:HANcoder_E407_TTA_CombineModel.c ****      *  EnablePort: '<S380>/Enable'
3525:HANcoder_E407_TTA_CombineModel.c ****      */
3526:HANcoder_E407_TTA_CombineModel.c ****     if (rtb_Level2MfileSFunction_h) {
3527:HANcoder_E407_TTA_CombineModel.c ****       /* CombinatorialLogic: '<S386>/Logic' incorporates:
3528:HANcoder_E407_TTA_CombineModel.c ****        *  Constant: '<S380>/Constant'
3529:HANcoder_E407_TTA_CombineModel.c ****        *  DataStoreRead: '<S17>/Data Store Read1'
3530:HANcoder_E407_TTA_CombineModel.c ****        *  DataTypeConversion: '<S17>/Cast'
3531:HANcoder_E407_TTA_CombineModel.c ****        *  DataTypeConversion: '<S380>/Cast2'
3532:HANcoder_E407_TTA_CombineModel.c ****        *  Memory: '<S386>/Memory'
3533:HANcoder_E407_TTA_CombineModel.c ****        */
3534:HANcoder_E407_TTA_CombineModel.c ****       rtb_AND = rtConstP.pooled23[((((uint32_T)(rtDWork.trailer2buttonPress != 0)
3535:HANcoder_E407_TTA_CombineModel.c ****         << 1) + (uint32_T)(ResetPosition != 0.0)) << 1) +
3536:HANcoder_E407_TTA_CombineModel.c ****         rtDWork.Memory_PreviousInput_g];
3537:HANcoder_E407_TTA_CombineModel.c **** 
3538:HANcoder_E407_TTA_CombineModel.c ****       /* If: '<S380>/If1' incorporates:
3539:HANcoder_E407_TTA_CombineModel.c ****        *  DataStoreRead: '<S380>/Data Store Read3'
3540:HANcoder_E407_TTA_CombineModel.c ****        */
3541:HANcoder_E407_TTA_CombineModel.c ****       if (rtDWork.PositionID4 == 1) {
3542:HANcoder_E407_TTA_CombineModel.c ****         /* Outputs for IfAction SubSystem: '<S380>/If Action Subsystem' incorporates:
3543:HANcoder_E407_TTA_CombineModel.c ****          *  ActionPort: '<S381>/Action Port'
3544:HANcoder_E407_TTA_CombineModel.c ****          */
3545:HANcoder_E407_TTA_CombineModel.c ****         /* Gain: '<S381>/Gain' */
3546:HANcoder_E407_TTA_CombineModel.c ****         rtB.Gain_n = (uint8_T)(rtb_AND ? (int32_T)((uint8_T)128U) : 0);
3547:HANcoder_E407_TTA_CombineModel.c **** 
3548:HANcoder_E407_TTA_CombineModel.c ****         /* End of Outputs for SubSystem: '<S380>/If Action Subsystem' */
3549:HANcoder_E407_TTA_CombineModel.c ****       } else {
3550:HANcoder_E407_TTA_CombineModel.c ****         /* Outputs for IfAction SubSystem: '<S380>/If Action Subsystem1' incorporates:
3551:HANcoder_E407_TTA_CombineModel.c ****          *  ActionPort: '<S382>/Action Port'
3552:HANcoder_E407_TTA_CombineModel.c ****          */
3553:HANcoder_E407_TTA_CombineModel.c ****         /* Gain: '<S382>/Gain' */
3554:HANcoder_E407_TTA_CombineModel.c ****         rtB.Gain = (uint8_T)(rtb_AND ? (int32_T)((uint8_T)128U) : 0);
3555:HANcoder_E407_TTA_CombineModel.c **** 
3556:HANcoder_E407_TTA_CombineModel.c ****         /* End of Outputs for SubSystem: '<S380>/If Action Subsystem1' */
3557:HANcoder_E407_TTA_CombineModel.c ****       }
3558:HANcoder_E407_TTA_CombineModel.c **** 
3559:HANcoder_E407_TTA_CombineModel.c ****       /* End of If: '<S380>/If1' */
3560:HANcoder_E407_TTA_CombineModel.c **** 
3561:HANcoder_E407_TTA_CombineModel.c ****       /* Sum: '<S380>/Add1' incorporates:
3562:HANcoder_E407_TTA_CombineModel.c ****        *  Gain: '<S381>/Gain'
3563:HANcoder_E407_TTA_CombineModel.c ****        *  Gain: '<S382>/Gain'
3564:HANcoder_E407_TTA_CombineModel.c ****        */
3565:HANcoder_E407_TTA_CombineModel.c ****       rtB.Add1 = (uint8_T)((((uint32_T)rtB.Gain_n << 1) + rtB.Gain) >> 1);
3566:HANcoder_E407_TTA_CombineModel.c **** 
3567:HANcoder_E407_TTA_CombineModel.c ****       /* CombinatorialLogic: '<S385>/Logic' incorporates:
3568:HANcoder_E407_TTA_CombineModel.c ****        *  Constant: '<S380>/Constant'
3569:HANcoder_E407_TTA_CombineModel.c ****        *  DataStoreRead: '<S17>/Data Store Read'
3570:HANcoder_E407_TTA_CombineModel.c ****        *  DataTypeConversion: '<S17>/Cast1'
3571:HANcoder_E407_TTA_CombineModel.c ****        *  DataTypeConversion: '<S380>/Cast2'
3572:HANcoder_E407_TTA_CombineModel.c ****        *  Memory: '<S385>/Memory'
3573:HANcoder_E407_TTA_CombineModel.c ****        */
3574:HANcoder_E407_TTA_CombineModel.c ****       rtb_OR1 = rtConstP.pooled23[((((uint32_T)(rtDWork.trailer1buttonPress != 0)
3575:HANcoder_E407_TTA_CombineModel.c ****         << 1) + (uint32_T)(ResetPosition != 0.0)) << 1) +
3576:HANcoder_E407_TTA_CombineModel.c ****         rtDWork.Memory_PreviousInput_d];
3577:HANcoder_E407_TTA_CombineModel.c **** 
3578:HANcoder_E407_TTA_CombineModel.c ****       /* If: '<S380>/If' incorporates:
3579:HANcoder_E407_TTA_CombineModel.c ****        *  DataStoreRead: '<S380>/Data Store Read2'
3580:HANcoder_E407_TTA_CombineModel.c ****        */
3581:HANcoder_E407_TTA_CombineModel.c ****       if (rtDWork.PositionID5 == 1) {
3582:HANcoder_E407_TTA_CombineModel.c ****         /* Outputs for IfAction SubSystem: '<S380>/If Action Subsystem2' incorporates:
3583:HANcoder_E407_TTA_CombineModel.c ****          *  ActionPort: '<S383>/Action Port'
3584:HANcoder_E407_TTA_CombineModel.c ****          */
3585:HANcoder_E407_TTA_CombineModel.c ****         /* Gain: '<S383>/Gain' */
3586:HANcoder_E407_TTA_CombineModel.c ****         rtB.Gain_d = (uint8_T)(rtb_OR1 ? (int32_T)((uint8_T)128U) : 0);
3587:HANcoder_E407_TTA_CombineModel.c **** 
3588:HANcoder_E407_TTA_CombineModel.c ****         /* End of Outputs for SubSystem: '<S380>/If Action Subsystem2' */
3589:HANcoder_E407_TTA_CombineModel.c ****       } else {
3590:HANcoder_E407_TTA_CombineModel.c ****         /* Outputs for IfAction SubSystem: '<S380>/If Action Subsystem3' incorporates:
3591:HANcoder_E407_TTA_CombineModel.c ****          *  ActionPort: '<S384>/Action Port'
3592:HANcoder_E407_TTA_CombineModel.c ****          */
3593:HANcoder_E407_TTA_CombineModel.c ****         /* Gain: '<S384>/Gain' */
3594:HANcoder_E407_TTA_CombineModel.c ****         rtB.Gain_j = (uint8_T)(rtb_OR1 ? (int32_T)((uint8_T)128U) : 0);
3595:HANcoder_E407_TTA_CombineModel.c **** 
3596:HANcoder_E407_TTA_CombineModel.c ****         /* End of Outputs for SubSystem: '<S380>/If Action Subsystem3' */
3597:HANcoder_E407_TTA_CombineModel.c ****       }
3598:HANcoder_E407_TTA_CombineModel.c **** 
3599:HANcoder_E407_TTA_CombineModel.c ****       /* End of If: '<S380>/If' */
3600:HANcoder_E407_TTA_CombineModel.c **** 
3601:HANcoder_E407_TTA_CombineModel.c ****       /* Sum: '<S380>/Add2' incorporates:
3602:HANcoder_E407_TTA_CombineModel.c ****        *  Gain: '<S383>/Gain'
3603:HANcoder_E407_TTA_CombineModel.c ****        *  Gain: '<S384>/Gain'
3604:HANcoder_E407_TTA_CombineModel.c ****        */
3605:HANcoder_E407_TTA_CombineModel.c ****       rtB.Add2 = (uint8_T)((((uint32_T)rtB.Gain_d << 1) + rtB.Gain_j) >> 1);
3606:HANcoder_E407_TTA_CombineModel.c **** 
3607:HANcoder_E407_TTA_CombineModel.c ****       /* Update for Memory: '<S386>/Memory' */
3608:HANcoder_E407_TTA_CombineModel.c ****       rtDWork.Memory_PreviousInput_g = rtb_AND;
3609:HANcoder_E407_TTA_CombineModel.c **** 
3610:HANcoder_E407_TTA_CombineModel.c ****       /* Update for Memory: '<S385>/Memory' */
3611:HANcoder_E407_TTA_CombineModel.c ****       rtDWork.Memory_PreviousInput_d = rtb_OR1;
3612:HANcoder_E407_TTA_CombineModel.c ****     }
3613:HANcoder_E407_TTA_CombineModel.c **** 
3614:HANcoder_E407_TTA_CombineModel.c ****     /* End of Outputs for SubSystem: '<S17>/Subsystem' */
3615:HANcoder_E407_TTA_CombineModel.c **** 
3616:HANcoder_E407_TTA_CombineModel.c ****     /* DataTypeConversion: '<S17>/Cast3' incorporates:
3617:HANcoder_E407_TTA_CombineModel.c ****      *  Sum: '<S380>/Add1'
3618:HANcoder_E407_TTA_CombineModel.c ****      */
3619:HANcoder_E407_TTA_CombineModel.c ****     positionID5 = (uint8_T)((uint32_T)rtB.Add1 >> 6);
3620:HANcoder_E407_TTA_CombineModel.c **** 
3621:HANcoder_E407_TTA_CombineModel.c ****     /* DataStoreWrite: '<S17>/Data Store Write12' */
3622:HANcoder_E407_TTA_CombineModel.c ****     rtDWork.PositionID5 = positionID5;
3623:HANcoder_E407_TTA_CombineModel.c **** 
3624:HANcoder_E407_TTA_CombineModel.c ****     /* DataTypeConversion: '<S17>/Cast2' incorporates:
3625:HANcoder_E407_TTA_CombineModel.c ****      *  Sum: '<S380>/Add2'
3626:HANcoder_E407_TTA_CombineModel.c ****      */
3627:HANcoder_E407_TTA_CombineModel.c ****     positionID4 = (uint8_T)((uint32_T)rtB.Add2 >> 6);
3628:HANcoder_E407_TTA_CombineModel.c **** 
3629:HANcoder_E407_TTA_CombineModel.c ****     /* DataStoreWrite: '<S17>/Data Store Write6' */
3630:HANcoder_E407_TTA_CombineModel.c ****     rtDWork.PositionID4 = positionID4;
3631:HANcoder_E407_TTA_CombineModel.c **** 
3632:HANcoder_E407_TTA_CombineModel.c ****     /* End of Outputs for SubSystem: '<S1>/Triggered Subsystem' */
3633:HANcoder_E407_TTA_CombineModel.c ****   }
3634:HANcoder_E407_TTA_CombineModel.c **** 
3635:HANcoder_E407_TTA_CombineModel.c ****   /* End of If: '<S1>/If' */
3636:HANcoder_E407_TTA_CombineModel.c **** 
3637:HANcoder_E407_TTA_CombineModel.c ****   /* M-S-Function: '<S16>/Level-2 M-file S-Function' */
3638:HANcoder_E407_TTA_CombineModel.c ****   {
3639:HANcoder_E407_TTA_CombineModel.c ****     /* reset use variables */
3640:HANcoder_E407_TTA_CombineModel.c ****     errCodesTotalErrors = 0;
 2687              		.loc 1 3640 5 view .LVU947
 2688              		.loc 1 3640 25 is_stmt 0 view .LVU948
 2689 04b8 DFF89090 		ldr	r9, .L451+36
3641:HANcoder_E407_TTA_CombineModel.c ****     errCodesHighestSeverity = 0;
 2690              		.loc 1 3641 29 view .LVU949
 2691 04bc 1F4F     		ldr	r7, .L451+20
3642:HANcoder_E407_TTA_CombineModel.c ****     errCodesX = 0;
 2692              		.loc 1 3642 15 view .LVU950
 2693 04be 204D     		ldr	r5, .L451+24
 2694 04c0 204E     		ldr	r6, .L451+28
3643:HANcoder_E407_TTA_CombineModel.c **** 
3644:HANcoder_E407_TTA_CombineModel.c ****     /* loop through all possible errors, in groups of 8 */
3645:HANcoder_E407_TTA_CombineModel.c ****     do {
3646:HANcoder_E407_TTA_CombineModel.c ****       /* Get 8 saved errors from RAM. */
3647:HANcoder_E407_TTA_CombineModel.c ****       errCodesNumErrors = ErrCodesGetActiveErrors(errCodesErrorBuf, errCodesX, 8);
 2695              		.loc 1 3647 27 view .LVU951
 2696 04c2 DFF88480 		ldr	r8, .L451+32
3640:HANcoder_E407_TTA_CombineModel.c ****     errCodesHighestSeverity = 0;
 2697              		.loc 1 3640 25 view .LVU952
 2698 04c6 0021     		movs	r1, #0
 2699 04c8 89F80010 		strb	r1, [r9]
3641:HANcoder_E407_TTA_CombineModel.c ****     errCodesX = 0;
 2700              		.loc 1 3641 5 is_stmt 1 view .LVU953
3641:HANcoder_E407_TTA_CombineModel.c ****     errCodesX = 0;
 2701              		.loc 1 3641 29 is_stmt 0 view .LVU954
 2702 04cc 3970     		strb	r1, [r7]
3642:HANcoder_E407_TTA_CombineModel.c **** 
 2703              		.loc 1 3642 5 is_stmt 1 view .LVU955
3642:HANcoder_E407_TTA_CombineModel.c **** 
 2704              		.loc 1 3642 15 is_stmt 0 view .LVU956
 2705 04ce 2970     		strb	r1, [r5]
 2706              	.L254:
3645:HANcoder_E407_TTA_CombineModel.c ****       /* Get 8 saved errors from RAM. */
 2707              		.loc 1 3645 5 is_stmt 1 view .LVU957
 2708              		.loc 1 3647 7 view .LVU958
 2709              		.loc 1 3647 27 is_stmt 0 view .LVU959
 2710 04d0 0822     		movs	r2, #8
 2711 04d2 4046     		mov	r0, r8
 2712 04d4 FFF7FEFF 		bl	ErrCodesGetActiveErrors
 2713              	.LVL135:
3648:HANcoder_E407_TTA_CombineModel.c ****       for (errCodesY = 0; errCodesY < errCodesNumErrors; errCodesY++) {
 2714              		.loc 1 3648 22 view .LVU960
 2715 04d8 4FF0000C 		mov	ip, #0
3647:HANcoder_E407_TTA_CombineModel.c ****       for (errCodesY = 0; errCodesY < errCodesNumErrors; errCodesY++) {
 2716              		.loc 1 3647 27 view .LVU961
 2717 04dc 84B2     		uxth	r4, r0
 2718              		.loc 1 3648 7 is_stmt 1 view .LVU962
 2719              		.loc 1 3648 22 is_stmt 0 view .LVU963
 2720 04de 86F800C0 		strb	ip, [r6]
 2721              		.loc 1 3648 27 is_stmt 1 view .LVU964
 2722              		.loc 1 3648 7 is_stmt 0 view .LVU965
 2723 04e2 002C     		cmp	r4, #0
 2724 04e4 00F05284 		beq	.L215
 2725 04e8 174B     		ldr	r3, .L451+32
 2726 04ea 3978     		ldrb	r1, [r7]	@ zero_extendqisi2
 2727 04ec 99F800E0 		ldrb	lr, [r9]	@ zero_extendqisi2
 2728 04f0 013C     		subs	r4, r4, #1
 2729 04f2 A2B2     		uxth	r2, r4
 2730 04f4 03F10804 		add	r4, r3, #8
 2731 04f8 04EBC204 		add	r4, r4, r2, lsl #3
 2732              	.L217:
3649:HANcoder_E407_TTA_CombineModel.c ****         /* set the current severity as highest if it is higher as the last highest severity */
3650:HANcoder_E407_TTA_CombineModel.c ****         if (errCodesHighestSeverity < errCodesErrorBuf[errCodesY].param) {
 2733              		.loc 1 3650 9 is_stmt 1 view .LVU966
3651:HANcoder_E407_TTA_CombineModel.c ****           errCodesHighestSeverity = errCodesErrorBuf[errCodesY].param;
3652:HANcoder_E407_TTA_CombineModel.c ****         }
3653:HANcoder_E407_TTA_CombineModel.c **** 
3654:HANcoder_E407_TTA_CombineModel.c ****         errCodesTotalErrors++;
 2734              		.loc 1 3654 9 view .LVU967
3648:HANcoder_E407_TTA_CombineModel.c ****         /* set the current severity as highest if it is higher as the last highest severity */
 2735              		.loc 1 3648 58 view .LVU968
3648:HANcoder_E407_TTA_CombineModel.c ****         /* set the current severity as highest if it is higher as the last highest severity */
 2736              		.loc 1 3648 27 view .LVU969
3650:HANcoder_E407_TTA_CombineModel.c ****           errCodesHighestSeverity = errCodesErrorBuf[errCodesY].param;
 2737              		.loc 1 3650 66 is_stmt 0 view .LVU970
 2738 04fc 9A78     		ldrb	r2, [r3, #2]	@ zero_extendqisi2
3648:HANcoder_E407_TTA_CombineModel.c ****         /* set the current severity as highest if it is higher as the last highest severity */
 2739              		.loc 1 3648 7 view .LVU971
 2740 04fe 0833     		adds	r3, r3, #8
3650:HANcoder_E407_TTA_CombineModel.c ****           errCodesHighestSeverity = errCodesErrorBuf[errCodesY].param;
 2741              		.loc 1 3650 12 view .LVU972
 2742 0500 8A42     		cmp	r2, r1
 2743 0502 84BF     		itt	hi
 2744 0504 1146     		movhi	r1, r2
 2745 0506 4FF0010C 		movhi	ip, #1
3648:HANcoder_E407_TTA_CombineModel.c ****         /* set the current severity as highest if it is higher as the last highest severity */
 2746              		.loc 1 3648 7 view .LVU973
 2747 050a A342     		cmp	r3, r4
 2748 050c F6D1     		bne	.L217
 2749              		.loc 1 3654 28 view .LVU974
 2750 050e 8644     		add	lr, lr, r0
 2751 0510 89F800E0 		strb	lr, [r9]
 2752 0514 3070     		strb	r0, [r6]
 2753 0516 BCF1000F 		cmp	ip, #0
 2754 051a 00D0     		beq	.L253
 2755 051c 3970     		strb	r1, [r7]
 2756              	.L253:
3655:HANcoder_E407_TTA_CombineModel.c ****       }
3656:HANcoder_E407_TTA_CombineModel.c **** 
3657:HANcoder_E407_TTA_CombineModel.c ****       /* increment errCodesX for the next batch of 8 errors */
3658:HANcoder_E407_TTA_CombineModel.c ****       errCodesX += 8;
 2757              		.loc 1 3658 7 is_stmt 1 view .LVU975
 2758              		.loc 1 3658 17 is_stmt 0 view .LVU976
 2759 051e 2978     		ldrb	r1, [r5]	@ zero_extendqisi2
 2760 0520 0831     		adds	r1, r1, #8
 2761 0522 C9B2     		uxtb	r1, r1
 2762 0524 2970     		strb	r1, [r5]
3659:HANcoder_E407_TTA_CombineModel.c ****     } while (errCodesNumErrors > 0);
 2763              		.loc 1 3659 13 is_stmt 1 view .LVU977
 2764 0526 D3E7     		b	.L254
 2765              	.L452:
 2766              		.align	2
 2767              	.L451:
 2768 0528 00000000 		.word	rtConstB
 2769 052c 00000000 		.word	.LANCHOR65
 2770 0530 00000000 		.word	.LANCHOR40
 2771 0534 67000000 		.word	.LANCHOR2+103
 2772 0538 00000000 		.word	.LANCHOR66
 2773 053c 00000000 		.word	.LANCHOR72
 2774 0540 00000000 		.word	.LANCHOR73
 2775 0544 00000000 		.word	.LANCHOR75
 2776 0548 00000000 		.word	.LANCHOR74
 2777 054c 00000000 		.word	.LANCHOR71
 2778              	.L85:
 2779              	.LVL136:
1001:HANcoder_E407_TTA_CombineModel.c ****     /* DataStoreRead: '<S5>/Data Store Read' */
 2780              		.loc 1 1001 3 view .LVU978
1001:HANcoder_E407_TTA_CombineModel.c ****     /* DataStoreRead: '<S5>/Data Store Read' */
 2781              		.loc 1 1001 35 is_stmt 0 view .LVU979
 2782 0550 DFF8C8A3 		ldr	r10, .L453+100
1001:HANcoder_E407_TTA_CombineModel.c ****     /* DataStoreRead: '<S5>/Data Store Read' */
 2783              		.loc 1 1001 15 view .LVU980
 2784 0554 9AF80C30 		ldrb	r3, [r10, #12]	@ zero_extendqisi2
 2785 0558 012B     		cmp	r3, #1
 2786 055a 00F02A82 		beq	.L104
1003:HANcoder_E407_TTA_CombineModel.c **** 
 2787              		.loc 1 1003 5 is_stmt 1 view .LVU981
1003:HANcoder_E407_TTA_CombineModel.c **** 
 2788              		.loc 1 1003 14 is_stmt 0 view .LVU982
 2789 055e DA4B     		ldr	r3, .L453+16
1003:HANcoder_E407_TTA_CombineModel.c **** 
 2790              		.loc 1 1003 23 view .LVU983
 2791 0560 A06C     		ldr	r0, [r4, #72]
1003:HANcoder_E407_TTA_CombineModel.c **** 
 2792              		.loc 1 1003 14 view .LVU984
 2793 0562 1860     		str	r0, [r3]
1011:HANcoder_E407_TTA_CombineModel.c **** 
 2794              		.loc 1 1011 5 is_stmt 1 view .LVU985
1011:HANcoder_E407_TTA_CombineModel.c **** 
 2795              		.loc 1 1011 19 is_stmt 0 view .LVU986
 2796 0564 FFF7FEFF 		bl	__aeabi_ui2d
 2797              	.LVL137:
1011:HANcoder_E407_TTA_CombineModel.c **** 
 2798              		.loc 1 1011 15 view .LVU987
 2799 0568 D84B     		ldr	r3, .L453+20
 2800 056a 0022     		movs	r2, #0
 2801 056c FFF7FEFF 		bl	__aeabi_dmul
 2802              	.LVL138:
 2803 0570 FFF7FEFF 		bl	tan
 2804              	.LVL139:
1011:HANcoder_E407_TTA_CombineModel.c **** 
 2805              		.loc 1 1011 60 view .LVU988
 2806 0574 D64B     		ldr	r3, .L453+24
 2807 0576 D3E90423 		ldrd	r2, [r3, #16]
 2808 057a FFF7FEFF 		bl	__aeabi_dmul
 2809              	.LVL140:
1011:HANcoder_E407_TTA_CombineModel.c **** 
 2810              		.loc 1 1011 13 view .LVU989
 2811 057e D54B     		ldr	r3, .L453+28
 2812 0580 0022     		movs	r2, #0
 2813 0582 FFF7FEFF 		bl	__aeabi_dmul
 2814              	.LVL141:
1017:HANcoder_E407_TTA_CombineModel.c **** 
 2815              		.loc 1 1017 22 view .LVU990
 2816 0586 B4F86060 		ldrh	r6, [r4, #96]
1014:HANcoder_E407_TTA_CombineModel.c **** 
 2817              		.loc 1 1014 13 view .LVU991
 2818 058a D34A     		ldr	r2, .L453+32
1014:HANcoder_E407_TTA_CombineModel.c **** 
 2819              		.loc 1 1014 22 view .LVU992
 2820 058c B4F86230 		ldrh	r3, [r4, #98]
1014:HANcoder_E407_TTA_CombineModel.c **** 
 2821              		.loc 1 1014 13 view .LVU993
 2822 0590 1380     		strh	r3, [r2]	@ movhi
1020:HANcoder_E407_TTA_CombineModel.c **** 
 2823              		.loc 1 1020 14 view .LVU994
 2824 0592 F31A     		subs	r3, r6, r3
1011:HANcoder_E407_TTA_CombineModel.c **** 
 2825              		.loc 1 1011 13 view .LVU995
 2826 0594 41EC1B0B 		vmov	d11, r0, r1
 2827              	.LVL142:
1014:HANcoder_E407_TTA_CombineModel.c **** 
 2828              		.loc 1 1014 5 is_stmt 1 view .LVU996
1017:HANcoder_E407_TTA_CombineModel.c **** 
 2829              		.loc 1 1017 5 view .LVU997
1020:HANcoder_E407_TTA_CombineModel.c **** 
 2830              		.loc 1 1020 14 is_stmt 0 view .LVU998
 2831 0598 98B2     		uxth	r0, r3
 2832              	.LVL143:
1017:HANcoder_E407_TTA_CombineModel.c **** 
 2833              		.loc 1 1017 13 view .LVU999
 2834 059a D04B     		ldr	r3, .L453+36
 2835 059c 1E80     		strh	r6, [r3]	@ movhi
1020:HANcoder_E407_TTA_CombineModel.c **** 
 2836              		.loc 1 1020 5 is_stmt 1 view .LVU1000
1020:HANcoder_E407_TTA_CombineModel.c **** 
 2837              		.loc 1 1020 12 is_stmt 0 view .LVU1001
 2838 059e D04B     		ldr	r3, .L453+40
 2839 05a0 1880     		strh	r0, [r3]	@ movhi
1026:HANcoder_E407_TTA_CombineModel.c **** 
 2840              		.loc 1 1026 5 is_stmt 1 view .LVU1002
1026:HANcoder_E407_TTA_CombineModel.c **** 
 2841              		.loc 1 1026 24 is_stmt 0 view .LVU1003
 2842 05a2 FFF7FEFF 		bl	__aeabi_ui2d
 2843              	.LVL144:
 2844 05a6 8046     		mov	r8, r0
 2845 05a8 8946     		mov	r9, r1
 2846 05aa FFF7FEFF 		bl	sin
 2847              	.LVL145:
 2848 05ae 0246     		mov	r2, r0
 2849 05b0 0B46     		mov	r3, r1
1032:HANcoder_E407_TTA_CombineModel.c **** 
 2850              		.loc 1 1032 26 view .LVU1004
 2851 05b2 4046     		mov	r0, r8
 2852 05b4 4946     		mov	r1, r9
1026:HANcoder_E407_TTA_CombineModel.c **** 
 2853              		.loc 1 1026 24 view .LVU1005
 2854 05b6 43EC1A2B 		vmov	d10, r2, r3
 2855              	.LVL146:
1032:HANcoder_E407_TTA_CombineModel.c **** 
 2856              		.loc 1 1032 5 is_stmt 1 view .LVU1006
1032:HANcoder_E407_TTA_CombineModel.c **** 
 2857              		.loc 1 1032 26 is_stmt 0 view .LVU1007
 2858 05ba FFF7FEFF 		bl	cos
 2859              	.LVL147:
1042:HANcoder_E407_TTA_CombineModel.c **** 
 2860              		.loc 1 1042 30 view .LVU1008
 2861 05be C94B     		ldr	r3, .L453+44
1032:HANcoder_E407_TTA_CombineModel.c **** 
 2862              		.loc 1 1032 26 view .LVU1009
 2863 05c0 41EC190B 		vmov	d9, r0, r1
 2864              	.LVL148:
1042:HANcoder_E407_TTA_CombineModel.c **** 
 2865              		.loc 1 1042 5 is_stmt 1 view .LVU1010
1042:HANcoder_E407_TTA_CombineModel.c **** 
 2866              		.loc 1 1042 30 is_stmt 0 view .LVU1011
 2867 05c4 0022     		movs	r2, #0
 2868 05c6 51EC1B0B 		vmov	r0, r1, d11
 2869              	.LVL149:
1042:HANcoder_E407_TTA_CombineModel.c **** 
 2870              		.loc 1 1042 30 view .LVU1012
 2871 05ca FFF7FEFF 		bl	__aeabi_dmul
 2872              	.LVL150:
1042:HANcoder_E407_TTA_CombineModel.c **** 
 2873              		.loc 1 1042 36 view .LVU1013
 2874 05ce 53EC1A2B 		vmov	r2, r3, d10
 2875 05d2 FFF7FEFF 		bl	__aeabi_dmul
 2876              	.LVL151:
1042:HANcoder_E407_TTA_CombineModel.c **** 
 2877              		.loc 1 1042 76 view .LVU1014
 2878 05d6 C44B     		ldr	r3, .L453+48
1042:HANcoder_E407_TTA_CombineModel.c **** 
 2879              		.loc 1 1042 36 view .LVU1015
 2880 05d8 8046     		mov	r8, r0
 2881 05da 8946     		mov	r9, r1
1042:HANcoder_E407_TTA_CombineModel.c **** 
 2882              		.loc 1 1042 76 view .LVU1016
 2883 05dc 0022     		movs	r2, #0
 2884 05de 51EC190B 		vmov	r0, r1, d9
 2885 05e2 FFF7FEFF 		bl	__aeabi_dmul
 2886              	.LVL152:
 2887 05e6 0246     		mov	r2, r0
 2888 05e8 0B46     		mov	r3, r1
1042:HANcoder_E407_TTA_CombineModel.c **** 
 2889              		.loc 1 1042 20 view .LVU1017
 2890 05ea 4046     		mov	r0, r8
 2891 05ec 4946     		mov	r1, r9
 2892 05ee FFF7FEFF 		bl	__aeabi_dadd
 2893              	.LVL153:
 2894 05f2 0246     		mov	r2, r0
 2895 05f4 0B46     		mov	r3, r1
1047:HANcoder_E407_TTA_CombineModel.c **** 
 2896              		.loc 1 1047 20 view .LVU1018
 2897 05f6 3046     		mov	r0, r6
1042:HANcoder_E407_TTA_CombineModel.c **** 
 2898              		.loc 1 1042 20 view .LVU1019
 2899 05f8 43EC182B 		vmov	d8, r2, r3
 2900              	.LVL154:
1047:HANcoder_E407_TTA_CombineModel.c **** 
 2901              		.loc 1 1047 5 is_stmt 1 view .LVU1020
1047:HANcoder_E407_TTA_CombineModel.c **** 
 2902              		.loc 1 1047 20 is_stmt 0 view .LVU1021
 2903 05fc FFF7FEFF 		bl	__aeabi_ui2d
 2904              	.LVL155:
1047:HANcoder_E407_TTA_CombineModel.c **** 
 2905              		.loc 1 1047 20 view .LVU1022
 2906 0600 0246     		mov	r2, r0
 2907 0602 0B46     		mov	r3, r1
1047:HANcoder_E407_TTA_CombineModel.c **** 
 2908              		.loc 1 1047 18 view .LVU1023
 2909 0604 0020     		movs	r0, #0
 2910 0606 0021     		movs	r1, #0
 2911 0608 FFF7FEFF 		bl	__aeabi_dsub
 2912              	.LVL156:
1047:HANcoder_E407_TTA_CombineModel.c **** 
 2913              		.loc 1 1047 12 view .LVU1024
 2914 060c B74B     		ldr	r3, .L453+52
1047:HANcoder_E407_TTA_CombineModel.c **** 
 2915              		.loc 1 1047 18 view .LVU1025
 2916 060e 8046     		mov	r8, r0
 2917 0610 8946     		mov	r9, r1
1047:HANcoder_E407_TTA_CombineModel.c **** 
 2918              		.loc 1 1047 12 view .LVU1026
 2919 0612 C3E90089 		strd	r8, [r3]
1058:HANcoder_E407_TTA_CombineModel.c ****                         rtb_Integrator_tmp / 1.0 * 4.0 * rtb_Uk1) *
 2920              		.loc 1 1058 5 is_stmt 1 view .LVU1027
1059:HANcoder_E407_TTA_CombineModel.c ****       (rtConstB.signV2 * rtConstB.signL0b);
 2921              		.loc 1 1059 50 is_stmt 0 view .LVU1028
 2922 0616 51EC190B 		vmov	r0, r1, d9
 2923 061a B24B     		ldr	r3, .L453+44
 2924 061c 0022     		movs	r2, #0
 2925 061e FFF7FEFF 		bl	__aeabi_dmul
 2926              	.LVL157:
1059:HANcoder_E407_TTA_CombineModel.c ****       (rtConstB.signV2 * rtConstB.signL0b);
 2927              		.loc 1 1059 56 view .LVU1029
 2928 0622 53EC1B2B 		vmov	r2, r3, d11
 2929 0626 FFF7FEFF 		bl	__aeabi_dmul
 2930              	.LVL158:
1058:HANcoder_E407_TTA_CombineModel.c ****                         rtb_Integrator_tmp / 1.0 * 4.0 * rtb_Uk1) *
 2931              		.loc 1 1058 35 view .LVU1030
 2932 062a AF4B     		ldr	r3, .L453+48
1059:HANcoder_E407_TTA_CombineModel.c ****       (rtConstB.signV2 * rtConstB.signL0b);
 2933              		.loc 1 1059 56 view .LVU1031
 2934 062c 0646     		mov	r6, r0
 2935 062e 0F46     		mov	r7, r1
1058:HANcoder_E407_TTA_CombineModel.c ****                         rtb_Integrator_tmp / 1.0 * 4.0 * rtb_Uk1) *
 2936              		.loc 1 1058 35 view .LVU1032
 2937 0630 0022     		movs	r2, #0
 2938 0632 51EC1A0B 		vmov	r0, r1, d10
 2939 0636 FFF7FEFF 		bl	__aeabi_dmul
 2940              	.LVL159:
 2941 063a 0246     		mov	r2, r0
 2942 063c 0B46     		mov	r3, r1
1058:HANcoder_E407_TTA_CombineModel.c ****                         rtb_Integrator_tmp / 1.0 * 4.0 * rtb_Uk1) *
 2943              		.loc 1 1058 63 view .LVU1033
 2944 063e 3046     		mov	r0, r6
 2945 0640 3946     		mov	r1, r7
 2946 0642 FFF7FEFF 		bl	__aeabi_dsub
 2947              	.LVL160:
1060:HANcoder_E407_TTA_CombineModel.c **** 
 2948              		.loc 1 1060 24 view .LVU1034
 2949 0646 A24B     		ldr	r3, .L453+24
1058:HANcoder_E407_TTA_CombineModel.c ****                         rtb_Integrator_tmp / 1.0 * 4.0 * rtb_Uk1) *
 2950              		.loc 1 1058 63 view .LVU1035
 2951 0648 0F46     		mov	r7, r1
1060:HANcoder_E407_TTA_CombineModel.c **** 
 2952              		.loc 1 1060 24 view .LVU1036
 2953 064a 1946     		mov	r1, r3
1058:HANcoder_E407_TTA_CombineModel.c ****                         rtb_Integrator_tmp / 1.0 * 4.0 * rtb_Uk1) *
 2954              		.loc 1 1058 63 view .LVU1037
 2955 064c 0646     		mov	r6, r0
1060:HANcoder_E407_TTA_CombineModel.c **** 
 2956              		.loc 1 1060 24 view .LVU1038
 2957 064e D3E90223 		ldrd	r2, [r3, #8]
 2958 0652 D1E90001 		ldrd	r0, [r1]
 2959 0656 FFF7FEFF 		bl	__aeabi_dmul
 2960              	.LVL161:
1058:HANcoder_E407_TTA_CombineModel.c ****                         rtb_Integrator_tmp / 1.0 * 4.0 * rtb_Uk1) *
 2961              		.loc 1 1058 22 view .LVU1039
 2962 065a 3246     		mov	r2, r6
 2963 065c 3B46     		mov	r3, r7
 2964 065e FFF7FEFF 		bl	__aeabi_dmul
 2965              	.LVL162:
 2966 0662 0646     		mov	r6, r0
 2967 0664 0F46     		mov	r7, r1
 2968              	.LVL163:
1066:HANcoder_E407_TTA_CombineModel.c **** 
 2969              		.loc 1 1066 5 is_stmt 1 view .LVU1040
1066:HANcoder_E407_TTA_CombineModel.c **** 
 2970              		.loc 1 1066 15 is_stmt 0 view .LVU1041
 2971 0666 4046     		mov	r0, r8
 2972 0668 4946     		mov	r1, r9
 2973 066a FFF7FEFF 		bl	sin
 2974              	.LVL164:
 2975 066e 0246     		mov	r2, r0
 2976 0670 0B46     		mov	r3, r1
1072:HANcoder_E407_TTA_CombineModel.c **** 
 2977              		.loc 1 1072 26 view .LVU1042
 2978 0672 4046     		mov	r0, r8
 2979 0674 4946     		mov	r1, r9
1066:HANcoder_E407_TTA_CombineModel.c **** 
 2980              		.loc 1 1066 15 view .LVU1043
 2981 0676 43EC192B 		vmov	d9, r2, r3
 2982              	.LVL165:
1072:HANcoder_E407_TTA_CombineModel.c **** 
 2983              		.loc 1 1072 5 is_stmt 1 view .LVU1044
1072:HANcoder_E407_TTA_CombineModel.c **** 
 2984              		.loc 1 1072 26 is_stmt 0 view .LVU1045
 2985 067a FFF7FEFF 		bl	cos
 2986              	.LVL166:
1075:HANcoder_E407_TTA_CombineModel.c ****       tmp = -1.0;
 2987              		.loc 1 1075 8 view .LVU1046
 2988 067e 0022     		movs	r2, #0
1072:HANcoder_E407_TTA_CombineModel.c **** 
 2989              		.loc 1 1072 26 view .LVU1047
 2990 0680 41EC1A0B 		vmov	d10, r0, r1
 2991              	.LVL167:
1075:HANcoder_E407_TTA_CombineModel.c ****       tmp = -1.0;
 2992              		.loc 1 1075 5 is_stmt 1 view .LVU1048
1075:HANcoder_E407_TTA_CombineModel.c ****       tmp = -1.0;
 2993              		.loc 1 1075 8 is_stmt 0 view .LVU1049
 2994 0684 0023     		movs	r3, #0
 2995 0686 51EC180B 		vmov	r0, r1, d8
 2996              	.LVL168:
1075:HANcoder_E407_TTA_CombineModel.c ****       tmp = -1.0;
 2997              		.loc 1 1075 8 view .LVU1050
 2998 068a FFF7FEFF 		bl	__aeabi_dcmplt
 2999              	.LVL169:
 3000 068e 0028     		cmp	r0, #0
 3001 0690 40F08684 		bne	.L276
1078:HANcoder_E407_TTA_CombineModel.c ****     }
 3002              		.loc 1 1078 7 is_stmt 1 view .LVU1051
1078:HANcoder_E407_TTA_CombineModel.c ****     }
 3003              		.loc 1 1078 11 is_stmt 0 view .LVU1052
 3004 0694 51EC180B 		vmov	r0, r1, d8
 3005 0698 0022     		movs	r2, #0
 3006 069a 0023     		movs	r3, #0
 3007 069c FFF7FEFF 		bl	__aeabi_dcmpgt
 3008              	.LVL170:
 3009 06a0 4FF00008 		mov	r8, #0
 3010 06a4 0028     		cmp	r0, #0
 3011 06a6 01F08281 		beq	.L426
 3012 06aa DFF87492 		ldr	r9, .L453+104
 3013              	.L87:
 3014              	.LVL171:
1099:HANcoder_E407_TTA_CombineModel.c ****       + rtb_Integrator_tmp / 1.0 * 4.0 * rtb_IntegralGain) * (tmp *
 3015              		.loc 1 1099 5 is_stmt 1 view .LVU1053
1100:HANcoder_E407_TTA_CombineModel.c ****       rtConstB.signL0b_o) * 3.0 / (rtb_IntegralGain * 4.0 * rtb_Uk1 +
 3016              		.loc 1 1100 34 is_stmt 0 view .LVU1054
 3017 06ae 8D4B     		ldr	r3, .L453+44
 3018 06b0 B0EE4ABA 		vmov.f32	s22, s20
 3019 06b4 F0EE6ABA 		vmov.f32	s23, s21
 3020 06b8 51EC1A0B 		vmov	r0, r1, d10
 3021 06bc 0022     		movs	r2, #0
 3022 06be FFF7FEFF 		bl	__aeabi_dmul
 3023              	.LVL172:
1100:HANcoder_E407_TTA_CombineModel.c ****       rtConstB.signL0b_o) * 3.0 / (rtb_IntegralGain * 4.0 * rtb_Uk1 +
 3024              		.loc 1 1100 40 view .LVU1055
 3025 06c2 3246     		mov	r2, r6
 3026 06c4 3B46     		mov	r3, r7
 3027 06c6 FFF7FEFF 		bl	__aeabi_dmul
 3028              	.LVL173:
 3029 06ca 47EC1A6B 		vmov	d10, r6, r7
 3030              	.LVL174:
1099:HANcoder_E407_TTA_CombineModel.c ****       + rtb_Integrator_tmp / 1.0 * 4.0 * rtb_IntegralGain) * (tmp *
 3031              		.loc 1 1099 64 view .LVU1056
 3032 06ce 53EC192B 		vmov	r2, r3, d9
1100:HANcoder_E407_TTA_CombineModel.c ****       rtConstB.signL0b_o) * 3.0 / (rtb_IntegralGain * 4.0 * rtb_Uk1 +
 3033              		.loc 1 1100 40 view .LVU1057
 3034 06d2 0646     		mov	r6, r0
 3035              	.LVL175:
1100:HANcoder_E407_TTA_CombineModel.c ****       rtConstB.signL0b_o) * 3.0 / (rtb_IntegralGain * 4.0 * rtb_Uk1 +
 3036              		.loc 1 1100 40 view .LVU1058
 3037 06d4 0F46     		mov	r7, r1
1099:HANcoder_E407_TTA_CombineModel.c ****       + rtb_Integrator_tmp / 1.0 * 4.0 * rtb_IntegralGain) * (tmp *
 3038              		.loc 1 1099 64 view .LVU1059
 3039 06d6 51EC180B 		vmov	r0, r1, d8
 3040 06da FFF7FEFF 		bl	__aeabi_dmul
 3041              	.LVL176:
 3042 06de 0246     		mov	r2, r0
 3043 06e0 0B46     		mov	r3, r1
1100:HANcoder_E407_TTA_CombineModel.c ****       rtConstB.signL0b_o) * 3.0 / (rtb_IntegralGain * 4.0 * rtb_Uk1 +
 3044              		.loc 1 1100 7 view .LVU1060
 3045 06e2 3046     		mov	r0, r6
 3046 06e4 3946     		mov	r1, r7
 3047 06e6 FFF7FEFF 		bl	__aeabi_dsub
 3048              	.LVL177:
1100:HANcoder_E407_TTA_CombineModel.c ****       rtConstB.signL0b_o) * 3.0 / (rtb_IntegralGain * 4.0 * rtb_Uk1 +
 3049              		.loc 1 1100 67 view .LVU1061
 3050 06ea 794B     		ldr	r3, .L453+24
1100:HANcoder_E407_TTA_CombineModel.c ****       rtConstB.signL0b_o) * 3.0 / (rtb_IntegralGain * 4.0 * rtb_Uk1 +
 3051              		.loc 1 1100 7 view .LVU1062
 3052 06ec 0646     		mov	r6, r0
1100:HANcoder_E407_TTA_CombineModel.c ****       rtConstB.signL0b_o) * 3.0 / (rtb_IntegralGain * 4.0 * rtb_Uk1 +
 3053              		.loc 1 1100 67 view .LVU1063
 3054 06ee D3E90623 		ldrd	r2, [r3, #24]
1100:HANcoder_E407_TTA_CombineModel.c ****       rtConstB.signL0b_o) * 3.0 / (rtb_IntegralGain * 4.0 * rtb_Uk1 +
 3055              		.loc 1 1100 7 view .LVU1064
 3056 06f2 0F46     		mov	r7, r1
1100:HANcoder_E407_TTA_CombineModel.c ****       rtConstB.signL0b_o) * 3.0 / (rtb_IntegralGain * 4.0 * rtb_Uk1 +
 3057              		.loc 1 1100 67 view .LVU1065
 3058 06f4 4046     		mov	r0, r8
 3059 06f6 4946     		mov	r1, r9
 3060 06f8 FFF7FEFF 		bl	__aeabi_dmul
 3061              	.LVL178:
 3062 06fc 0246     		mov	r2, r0
 3063 06fe 0B46     		mov	r3, r1
1100:HANcoder_E407_TTA_CombineModel.c ****       rtConstB.signL0b_o) * 3.0 / (rtb_IntegralGain * 4.0 * rtb_Uk1 +
 3064              		.loc 1 1100 60 view .LVU1066
 3065 0700 3046     		mov	r0, r6
 3066 0702 3946     		mov	r1, r7
 3067 0704 FFF7FEFF 		bl	__aeabi_dmul
 3068              	.LVL179:
1101:HANcoder_E407_TTA_CombineModel.c ****       rtb_Integrator_tmp * rtb_Integrator)));
 3069              		.loc 1 1101 27 view .LVU1067
 3070 0708 794B     		ldr	r3, .L453+56
 3071 070a 0022     		movs	r2, #0
 3072 070c FFF7FEFF 		bl	__aeabi_dmul
 3073              	.LVL180:
1101:HANcoder_E407_TTA_CombineModel.c ****       rtb_Integrator_tmp * rtb_Integrator)));
 3074              		.loc 1 1101 53 view .LVU1068
 3075 0710 744B     		ldr	r3, .L453+44
1101:HANcoder_E407_TTA_CombineModel.c ****       rtb_Integrator_tmp * rtb_Integrator)));
 3076              		.loc 1 1101 27 view .LVU1069
 3077 0712 8046     		mov	r8, r0
 3078              	.LVL181:
1101:HANcoder_E407_TTA_CombineModel.c ****       rtb_Integrator_tmp * rtb_Integrator)));
 3079              		.loc 1 1101 27 view .LVU1070
 3080 0714 8946     		mov	r9, r1
1101:HANcoder_E407_TTA_CombineModel.c ****       rtb_Integrator_tmp * rtb_Integrator)));
 3081              		.loc 1 1101 53 view .LVU1071
 3082 0716 0022     		movs	r2, #0
 3083 0718 51EC1A0B 		vmov	r0, r1, d10
 3084 071c FFF7FEFF 		bl	__aeabi_dmul
 3085              	.LVL182:
1101:HANcoder_E407_TTA_CombineModel.c ****       rtb_Integrator_tmp * rtb_Integrator)));
 3086              		.loc 1 1101 59 view .LVU1072
 3087 0720 53EC192B 		vmov	r2, r3, d9
 3088 0724 FFF7FEFF 		bl	__aeabi_dmul
 3089              	.LVL183:
1102:HANcoder_E407_TTA_CombineModel.c **** 
 3090              		.loc 1 1102 26 view .LVU1073
 3091 0728 53EC1B2B 		vmov	r2, r3, d11
1101:HANcoder_E407_TTA_CombineModel.c ****       rtb_Integrator_tmp * rtb_Integrator)));
 3092              		.loc 1 1101 59 view .LVU1074
 3093 072c 0646     		mov	r6, r0
 3094 072e 0F46     		mov	r7, r1
1102:HANcoder_E407_TTA_CombineModel.c **** 
 3095              		.loc 1 1102 26 view .LVU1075
 3096 0730 51EC180B 		vmov	r0, r1, d8
 3097 0734 FFF7FEFF 		bl	__aeabi_dmul
 3098              	.LVL184:
 3099 0738 0246     		mov	r2, r0
 3100 073a 0B46     		mov	r3, r1
1101:HANcoder_E407_TTA_CombineModel.c ****       rtb_Integrator_tmp * rtb_Integrator)));
 3101              		.loc 1 1101 69 view .LVU1076
 3102 073c 3046     		mov	r0, r6
 3103 073e 3946     		mov	r1, r7
 3104 0740 FFF7FEFF 		bl	__aeabi_dadd
 3105              	.LVL185:
 3106 0744 0246     		mov	r2, r0
 3107 0746 0B46     		mov	r3, r1
1101:HANcoder_E407_TTA_CombineModel.c ****       rtb_Integrator_tmp * rtb_Integrator)));
 3108              		.loc 1 1101 33 view .LVU1077
 3109 0748 4046     		mov	r0, r8
 3110 074a 4946     		mov	r1, r9
 3111 074c FFF7FEFF 		bl	__aeabi_ddiv
 3112              	.LVL186:
1099:HANcoder_E407_TTA_CombineModel.c ****       + rtb_Integrator_tmp / 1.0 * 4.0 * rtb_IntegralGain) * (tmp *
 3113              		.loc 1 1099 31 view .LVU1078
 3114 0750 FFF7FEFF 		bl	__aeabi_d2f
 3115              	.LVL187:
1099:HANcoder_E407_TTA_CombineModel.c ****       + rtb_Integrator_tmp / 1.0 * 4.0 * rtb_IntegralGain) * (tmp *
 3116              		.loc 1 1099 26 view .LVU1079
 3117 0754 FFF7FEFF 		bl	__aeabi_f2d
 3118              	.LVL188:
 3119 0758 FFF7FEFF 		bl	atan
 3120              	.LVL189:
1099:HANcoder_E407_TTA_CombineModel.c ****       + rtb_Integrator_tmp / 1.0 * 4.0 * rtb_IntegralGain) * (tmp *
 3121              		.loc 1 1099 16 view .LVU1080
 3122 075c FFF7FEFF 		bl	__aeabi_d2f
 3123              	.LVL190:
1107:HANcoder_E407_TTA_CombineModel.c **** 
 3124              		.loc 1 1107 21 view .LVU1081
 3125 0760 9FED647A 		vldr.32	s14, .L453+60
1099:HANcoder_E407_TTA_CombineModel.c ****       + rtb_Integrator_tmp / 1.0 * 4.0 * rtb_IntegralGain) * (tmp *
 3126              		.loc 1 1099 14 view .LVU1082
 3127 0764 644B     		ldr	r3, .L453+64
1099:HANcoder_E407_TTA_CombineModel.c ****       + rtb_Integrator_tmp / 1.0 * 4.0 * rtb_IntegralGain) * (tmp *
 3128              		.loc 1 1099 16 view .LVU1083
 3129 0766 07EE900A 		vmov	s15, r0
1107:HANcoder_E407_TTA_CombineModel.c **** 
 3130              		.loc 1 1107 21 view .LVU1084
 3131 076a 67EE877A 		vmul.f32	s15, s15, s14
1099:HANcoder_E407_TTA_CombineModel.c ****       + rtb_Integrator_tmp / 1.0 * 4.0 * rtb_IntegralGain) * (tmp *
 3132              		.loc 1 1099 14 view .LVU1085
 3133 076e 1860     		str	r0, [r3]	@ float
1107:HANcoder_E407_TTA_CombineModel.c **** 
 3134              		.loc 1 1107 5 is_stmt 1 view .LVU1086
1107:HANcoder_E407_TTA_CombineModel.c **** 
 3135              		.loc 1 1107 21 is_stmt 0 view .LVU1087
 3136 0770 17EE900A 		vmov	r0, s15
 3137 0774 FFF7FEFF 		bl	__aeabi_f2d
 3138              	.LVL191:
1107:HANcoder_E407_TTA_CombineModel.c **** 
 3139              		.loc 1 1107 14 view .LVU1088
 3140 0778 604B     		ldr	r3, .L453+68
1107:HANcoder_E407_TTA_CombineModel.c **** 
 3141              		.loc 1 1107 21 view .LVU1089
 3142 077a 8046     		mov	r8, r0
 3143 077c 8946     		mov	r9, r1
1107:HANcoder_E407_TTA_CombineModel.c **** 
 3144              		.loc 1 1107 14 view .LVU1090
 3145 077e C3E90089 		strd	r8, [r3]
1112:HANcoder_E407_TTA_CombineModel.c ****       rtDWork.encoderPosition;
 3146              		.loc 1 1112 5 is_stmt 1 view .LVU1091
1112:HANcoder_E407_TTA_CombineModel.c ****       rtDWork.encoderPosition;
 3147              		.loc 1 1112 62 is_stmt 0 view .LVU1092
 3148 0782 606C     		ldr	r0, [r4, #68]
 3149 0784 FFF7FEFF 		bl	__aeabi_i2d
 3150              	.LVL192:
1112:HANcoder_E407_TTA_CombineModel.c ****       rtDWork.encoderPosition;
 3151              		.loc 1 1112 60 view .LVU1093
 3152 0788 4BA3     		adr	r3, .L453
 3153 078a D3E90023 		ldrd	r2, [r3]
 3154 078e FFF7FEFF 		bl	__aeabi_dmul
 3155              	.LVL193:
1112:HANcoder_E407_TTA_CombineModel.c ****       rtDWork.encoderPosition;
 3156              		.loc 1 1112 14 view .LVU1094
 3157 0792 5B4B     		ldr	r3, .L453+72
1112:HANcoder_E407_TTA_CombineModel.c ****       rtDWork.encoderPosition;
 3158              		.loc 1 1112 60 view .LVU1095
 3159 0794 0646     		mov	r6, r0
 3160 0796 0F46     		mov	r7, r1
1119:HANcoder_E407_TTA_CombineModel.c **** 
 3161              		.loc 1 1119 15 view .LVU1096
 3162 0798 4046     		mov	r0, r8
 3163 079a 4946     		mov	r1, r9
1112:HANcoder_E407_TTA_CombineModel.c ****       rtDWork.encoderPosition;
 3164              		.loc 1 1112 14 view .LVU1097
 3165 079c C3E90067 		strd	r6, [r3]
1119:HANcoder_E407_TTA_CombineModel.c **** 
 3166              		.loc 1 1119 5 is_stmt 1 view .LVU1098
1119:HANcoder_E407_TTA_CombineModel.c **** 
 3167              		.loc 1 1119 15 is_stmt 0 view .LVU1099
 3168 07a0 FFF7FEFF 		bl	floor
 3169              	.LVL194:
 3170 07a4 0246     		mov	r2, r0
 3171 07a6 0B46     		mov	r3, r1
1119:HANcoder_E407_TTA_CombineModel.c **** 
 3172              		.loc 1 1119 33 view .LVU1100
 3173 07a8 3046     		mov	r0, r6
 3174 07aa 3946     		mov	r1, r7
1119:HANcoder_E407_TTA_CombineModel.c **** 
 3175              		.loc 1 1119 15 view .LVU1101
 3176 07ac 1646     		mov	r6, r2
 3177 07ae 1F46     		mov	r7, r3
1119:HANcoder_E407_TTA_CombineModel.c **** 
 3178              		.loc 1 1119 33 view .LVU1102
 3179 07b0 FFF7FEFF 		bl	floor
 3180              	.LVL195:
 3181 07b4 0246     		mov	r2, r0
 3182 07b6 0B46     		mov	r3, r1
1119:HANcoder_E407_TTA_CombineModel.c **** 
 3183              		.loc 1 1119 31 view .LVU1103
 3184 07b8 3046     		mov	r0, r6
 3185 07ba 3946     		mov	r1, r7
 3186 07bc FFF7FEFF 		bl	__aeabi_dsub
 3187              	.LVL196:
1128:HANcoder_E407_TTA_CombineModel.c **** 
 3188              		.loc 1 1128 51 view .LVU1104
 3189 07c0 94ED027B 		vldr.64	d7, [r4, #8]
1119:HANcoder_E407_TTA_CombineModel.c **** 
 3190              		.loc 1 1119 13 view .LVU1105
 3191 07c4 4F4A     		ldr	r2, .L453+76
1128:HANcoder_E407_TTA_CombineModel.c **** 
 3192              		.loc 1 1128 23 view .LVU1106
 3193 07c6 504B     		ldr	r3, .L453+80
1128:HANcoder_E407_TTA_CombineModel.c **** 
 3194              		.loc 1 1128 51 view .LVU1107
 3195 07c8 B0EE478A 		vmov.f32	s16, s14
 3196 07cc F0EE678A 		vmov.f32	s17, s15
 3197              	.LVL197:
1119:HANcoder_E407_TTA_CombineModel.c **** 
 3198              		.loc 1 1119 31 view .LVU1108
 3199 07d0 8046     		mov	r8, r0
 3200 07d2 8946     		mov	r9, r1
1122:HANcoder_E407_TTA_CombineModel.c **** 
 3201              		.loc 1 1122 22 view .LVU1109
 3202 07d4 21F00047 		bic	r7, r1, #-2147483648
1119:HANcoder_E407_TTA_CombineModel.c **** 
 3203              		.loc 1 1119 13 view .LVU1110
 3204 07d8 C2E90089 		strd	r8, [r2]
1122:HANcoder_E407_TTA_CombineModel.c **** 
 3205              		.loc 1 1122 5 is_stmt 1 view .LVU1111
1128:HANcoder_E407_TTA_CombineModel.c **** 
 3206              		.loc 1 1128 51 is_stmt 0 view .LVU1112
 3207 07dc B0EE47AA 		vmov.f32	s20, s14
 3208 07e0 F0EE67AA 		vmov.f32	s21, s15
 3209              	.LVL198:
1128:HANcoder_E407_TTA_CombineModel.c **** 
 3210              		.loc 1 1128 23 view .LVU1113
 3211 07e4 D3E90023 		ldrd	r2, [r3]
 3212 07e8 3946     		mov	r1, r7
1122:HANcoder_E407_TTA_CombineModel.c **** 
 3213              		.loc 1 1122 22 view .LVU1114
 3214 07ea 0646     		mov	r6, r0
 3215              	.LVL199:
1128:HANcoder_E407_TTA_CombineModel.c **** 
 3216              		.loc 1 1128 5 is_stmt 1 view .LVU1115
1128:HANcoder_E407_TTA_CombineModel.c **** 
 3217              		.loc 1 1128 23 is_stmt 0 view .LVU1116
 3218 07ec FFF7FEFF 		bl	__aeabi_dmul
 3219              	.LVL200:
1128:HANcoder_E407_TTA_CombineModel.c **** 
 3220              		.loc 1 1128 13 view .LVU1117
 3221 07f0 53EC182B 		vmov	r2, r3, d8
 3222 07f4 FFF7FEFF 		bl	__aeabi_dadd
 3223              	.LVL201:
 3224 07f8 0246     		mov	r2, r0
 3225 07fa 0B46     		mov	r3, r1
 3226 07fc 43EC182B 		vmov	d8, r2, r3
1131:HANcoder_E407_TTA_CombineModel.c ****       tmp = 300.0;
 3227              		.loc 1 1131 8 view .LVU1118
 3228 0800 2FA3     		adr	r3, .L453+8
 3229 0802 D3E90023 		ldrd	r2, [r3]
1128:HANcoder_E407_TTA_CombineModel.c **** 
 3230              		.loc 1 1128 13 view .LVU1119
 3231 0806 B0EE489A 		vmov.f32	s18, s16
 3232 080a F0EE689A 		vmov.f32	s19, s17
 3233              	.LVL202:
1131:HANcoder_E407_TTA_CombineModel.c ****       tmp = 300.0;
 3234              		.loc 1 1131 5 is_stmt 1 view .LVU1120
1131:HANcoder_E407_TTA_CombineModel.c ****       tmp = 300.0;
 3235              		.loc 1 1131 8 is_stmt 0 view .LVU1121
 3236 080e FFF7FEFF 		bl	__aeabi_dcmpgt
 3237              	.LVL203:
 3238 0812 0028     		cmp	r0, #0
 3239 0814 40F0AC86 		bne	.L278
1133:HANcoder_E407_TTA_CombineModel.c ****       tmp = 0.0;
 3240              		.loc 1 1133 12 is_stmt 1 view .LVU1122
1133:HANcoder_E407_TTA_CombineModel.c ****       tmp = 0.0;
 3241              		.loc 1 1133 15 is_stmt 0 view .LVU1123
 3242 0818 51EC180B 		vmov	r0, r1, d8
 3243 081c 0022     		movs	r2, #0
 3244 081e 0023     		movs	r3, #0
 3245 0820 FFF7FEFF 		bl	__aeabi_dcmplt
 3246              	.LVL204:
 3247 0824 0028     		cmp	r0, #0
 3248 0826 41F00681 		bne	.L279
1136:HANcoder_E407_TTA_CombineModel.c ****     }
 3249              		.loc 1 1136 7 is_stmt 1 view .LVU1124
 3250              	.LVL205:
1144:HANcoder_E407_TTA_CombineModel.c **** 
 3251              		.loc 1 1144 55 is_stmt 0 view .LVU1125
 3252 082a 51EC180B 		vmov	r0, r1, d8
 3253 082e FFF7FEFF 		bl	__aeabi_d2uiz
 3254              	.LVL206:
1144:HANcoder_E407_TTA_CombineModel.c **** 
 3255              		.loc 1 1144 15 view .LVU1126
 3256 0832 00F5FA70 		add	r0, r0, #500
 3257 0836 83B2     		uxth	r3, r0
 3258              	.LVL207:
 3259              	.L88:
1144:HANcoder_E407_TTA_CombineModel.c **** 
 3260              		.loc 1 1144 5 is_stmt 1 view .LVU1127
1153:HANcoder_E407_TTA_CombineModel.c **** 
 3261              		.loc 1 1153 38 is_stmt 0 view .LVU1128
 3262 0838 344A     		ldr	r2, .L453+84
1144:HANcoder_E407_TTA_CombineModel.c **** 
 3263              		.loc 1 1144 13 view .LVU1129
 3264 083a 3549     		ldr	r1, .L453+88
1147:HANcoder_E407_TTA_CombineModel.c **** 
 3265              		.loc 1 1147 22 view .LVU1130
 3266 083c A4F85230 		strh	r3, [r4, #82]	@ movhi
1144:HANcoder_E407_TTA_CombineModel.c **** 
 3267              		.loc 1 1144 13 view .LVU1131
 3268 0840 0B80     		strh	r3, [r1]	@ movhi
1147:HANcoder_E407_TTA_CombineModel.c **** 
 3269              		.loc 1 1147 5 is_stmt 1 view .LVU1132
1153:HANcoder_E407_TTA_CombineModel.c **** 
 3270              		.loc 1 1153 5 view .LVU1133
1153:HANcoder_E407_TTA_CombineModel.c **** 
 3271              		.loc 1 1153 38 is_stmt 0 view .LVU1134
 3272 0842 92ED008B 		vldr.64	d8, [r2]
 3273              	.LVL208:
1159:HANcoder_E407_TTA_CombineModel.c **** 
 3274              		.loc 1 1159 5 is_stmt 1 view .LVU1135
1159:HANcoder_E407_TTA_CombineModel.c **** 
 3275              		.loc 1 1159 19 is_stmt 0 view .LVU1136
 3276 0846 0023     		movs	r3, #0
 3277 0848 0022     		movs	r2, #0
 3278 084a 4946     		mov	r1, r9
 3279 084c 4046     		mov	r0, r8
 3280 084e FFF7FEFF 		bl	__aeabi_dcmpgt
 3281              	.LVL209:
1159:HANcoder_E407_TTA_CombineModel.c **** 
 3282              		.loc 1 1159 8 view .LVU1137
 3283 0852 304B     		ldr	r3, .L453+92
1159:HANcoder_E407_TTA_CombineModel.c **** 
 3284              		.loc 1 1159 19 view .LVU1138
 3285 0854 021E     		subs	r2, r0, #0
 3286 0856 18BF     		it	ne
 3287 0858 0122     		movne	r2, #1
1159:HANcoder_E407_TTA_CombineModel.c **** 
 3288              		.loc 1 1159 8 view .LVU1139
 3289 085a 1A70     		strb	r2, [r3]
1164:HANcoder_E407_TTA_CombineModel.c **** 
 3290              		.loc 1 1164 5 is_stmt 1 view .LVU1140
1159:HANcoder_E407_TTA_CombineModel.c **** 
 3291              		.loc 1 1159 19 is_stmt 0 view .LVU1141
 3292 085c 0592     		str	r2, [sp, #20]
1164:HANcoder_E407_TTA_CombineModel.c **** 
 3293              		.loc 1 1164 37 view .LVU1142
 3294 085e 51EC180B 		vmov	r0, r1, d8
 3295 0862 3246     		mov	r2, r6
 3296 0864 3B46     		mov	r3, r7
 3297 0866 FFF7FEFF 		bl	__aeabi_dcmplt
 3298              	.LVL210:
 3299 086a 0028     		cmp	r0, #0
 3300 086c 00F06B86 		beq	.L386
1164:HANcoder_E407_TTA_CombineModel.c **** 
 3301              		.loc 1 1164 37 discriminator 1 view .LVU1143
 3302 0870 4046     		mov	r0, r8
 3303 0872 4946     		mov	r1, r9
 3304 0874 0022     		movs	r2, #0
 3305 0876 0023     		movs	r3, #0
 3306 0878 FFF7FEFF 		bl	__aeabi_dcmpgt
 3307              	.LVL211:
 3308 087c 0028     		cmp	r0, #0
 3309 087e 01F09A80 		beq	.L427
1167:HANcoder_E407_TTA_CombineModel.c **** 
 3310              		.loc 1 1167 9 view .LVU1144
 3311 0882 254B     		ldr	r3, .L453+96
 3312 0884 4FF00008 		mov	r8, #0
 3313 0888 83F80080 		strb	r8, [r3]
1164:HANcoder_E407_TTA_CombineModel.c **** 
 3314              		.loc 1 1164 21 view .LVU1145
 3315 088c 0123     		movs	r3, #1
 3316 088e 84F8EB30 		strb	r3, [r4, #235]
1167:HANcoder_E407_TTA_CombineModel.c **** 
 3317              		.loc 1 1167 5 is_stmt 1 view .LVU1146
1172:HANcoder_E407_TTA_CombineModel.c **** 
 3318              		.loc 1 1172 5 view .LVU1147
 3319              	.L94:
1172:HANcoder_E407_TTA_CombineModel.c **** 
 3320              		.loc 1 1172 22 is_stmt 0 discriminator 6 view .LVU1148
 3321 0892 84F8EC80 		strb	r8, [r4, #236]
1175:HANcoder_E407_TTA_CombineModel.c ****       rtb_Uk1 -= 300.0;
 3322              		.loc 1 1175 5 is_stmt 1 discriminator 6 view .LVU1149
1175:HANcoder_E407_TTA_CombineModel.c ****       rtb_Uk1 -= 300.0;
 3323              		.loc 1 1175 8 is_stmt 0 discriminator 6 view .LVU1150
 3324 0896 59EC198B 		vmov	r8, r9, d9
 3325 089a 09A3     		adr	r3, .L453+8
 3326 089c D3E90023 		ldrd	r2, [r3]
 3327 08a0 19EE100A 		vmov	r0, s18	@ int
 3328 08a4 4946     		mov	r1, r9
 3329 08a6 FFF7FEFF 		bl	__aeabi_dcmpgt
 3330              	.LVL212:
 3331 08aa 0028     		cmp	r0, #0
 3332 08ac 00F06486 		beq	.L388
 3333 08b0 38E0     		b	.L454
 3334              	.L455:
 3335 08b2 00BFAFF3 		.align	3
 3335      0080
 3336              	.L453:
 3337 08b8 00008099 		.word	-1719664640
 3338 08bc 9999B93F 		.word	1069128089
 3339 08c0 00000000 		.word	0
 3340 08c4 00C07240 		.word	1081262080
 3341 08c8 00000000 		.word	.LANCHOR9
 3342 08cc 0000903E 		.word	1049624576
 3343 08d0 00000000 		.word	rtConstB
 3344 08d4 0000D03F 		.word	1070596096
 3345 08d8 00000000 		.word	.LANCHOR10
 3346 08dc 00000000 		.word	.LANCHOR11
 3347 08e0 00000000 		.word	.LANCHOR12
 3348 08e4 00001040 		.word	1074790400
 3349 08e8 0000E03F 		.word	1071644672
 3350 08ec 00000000 		.word	.LANCHOR13
 3351 08f0 00000840 		.word	1074266112
 3352 08f4 66663642 		.word	1110861414
 3353 08f8 00000000 		.word	.LANCHOR14
 3354 08fc 00000000 		.word	.LANCHOR15
 3355 0900 00000000 		.word	.LANCHOR16
 3356 0904 00000000 		.word	.LANCHOR17
 3357 0908 00000000 		.word	.LANCHOR18
 3358 090c 00000000 		.word	.LANCHOR20
 3359 0910 00000000 		.word	.LANCHOR19
 3360 0914 00000000 		.word	.LANCHOR21
 3361 0918 00000000 		.word	.LANCHOR22
 3362 091c 00000000 		.word	.LANCHOR5
 3363 0920 0000F03F 		.word	1072693248
 3364              	.L454:
 3365              	.LVL213:
1176:HANcoder_E407_TTA_CombineModel.c ****     } else if (rtb_Uk1 >= 0.0) {
 3366              		.loc 1 1176 7 is_stmt 1 view .LVU1151
1176:HANcoder_E407_TTA_CombineModel.c ****     } else if (rtb_Uk1 >= 0.0) {
 3367              		.loc 1 1176 15 is_stmt 0 view .LVU1152
 3368 0924 19EE100A 		vmov	r0, s18	@ int
 3369 0928 EDA3     		adr	r3, .L456+112
 3370 092a D3E90023 		ldrd	r2, [r3]
 3371 092e 4946     		mov	r1, r9
 3372 0930 FFF7FEFF 		bl	__aeabi_dsub
 3373              	.LVL214:
 3374 0934 41EC190B 		vmov	d9, r0, r1
 3375              	.LVL215:
 3376              	.L98:
1186:HANcoder_E407_TTA_CombineModel.c **** 
 3377              		.loc 1 1186 5 is_stmt 1 view .LVU1153
1186:HANcoder_E407_TTA_CombineModel.c **** 
 3378              		.loc 1 1186 22 is_stmt 0 view .LVU1154
 3379 0938 CD4B     		ldr	r3, .L456
 3380 093a 3046     		mov	r0, r6
 3381 093c D3E90023 		ldrd	r2, [r3]
 3382 0940 3946     		mov	r1, r7
 3383 0942 FFF7FEFF 		bl	__aeabi_dmul
 3384              	.LVL216:
1194:HANcoder_E407_TTA_CombineModel.c ****       rtPrevAction = 1;
 3385              		.loc 1 1194 8 view .LVU1155
 3386 0946 0022     		movs	r2, #0
 3387 0948 0023     		movs	r3, #0
1186:HANcoder_E407_TTA_CombineModel.c **** 
 3388              		.loc 1 1186 22 view .LVU1156
 3389 094a 0646     		mov	r6, r0
 3390              	.LVL217:
1186:HANcoder_E407_TTA_CombineModel.c **** 
 3391              		.loc 1 1186 22 view .LVU1157
 3392 094c 0F46     		mov	r7, r1
 3393              	.LVL218:
1194:HANcoder_E407_TTA_CombineModel.c ****       rtPrevAction = 1;
 3394              		.loc 1 1194 5 is_stmt 1 view .LVU1158
1194:HANcoder_E407_TTA_CombineModel.c ****       rtPrevAction = 1;
 3395              		.loc 1 1194 8 is_stmt 0 view .LVU1159
 3396 094e 51EC190B 		vmov	r0, r1, d9
 3397 0952 FFF7FEFF 		bl	__aeabi_dcmpgt
 3398              	.LVL219:
1206:HANcoder_E407_TTA_CombineModel.c ****       rtAction = 1;
 3399              		.loc 1 1206 8 view .LVU1160
 3400 0956 0022     		movs	r2, #0
 3401 0958 0023     		movs	r3, #0
1194:HANcoder_E407_TTA_CombineModel.c ****       rtPrevAction = 1;
 3402              		.loc 1 1194 8 view .LVU1161
 3403 095a 0028     		cmp	r0, #0
 3404 095c 01F0BB80 		beq	.L428
 3405              	.LVL220:
1206:HANcoder_E407_TTA_CombineModel.c ****       rtAction = 1;
 3406              		.loc 1 1206 5 is_stmt 1 view .LVU1162
1206:HANcoder_E407_TTA_CombineModel.c ****       rtAction = 1;
 3407              		.loc 1 1206 8 is_stmt 0 view .LVU1163
 3408 0960 3046     		mov	r0, r6
 3409 0962 3946     		mov	r1, r7
 3410 0964 FFF7FEFF 		bl	__aeabi_dcmpgt
 3411              	.LVL221:
 3412 0968 0028     		cmp	r0, #0
 3413 096a 41F0C480 		bne	.L403
 3414              	.LVL222:
 3415              	.L101:
1228:HANcoder_E407_TTA_CombineModel.c ****     if (rtDWork.Integrator_DSTATE >= 100.0) {
 3416              		.loc 1 1228 5 is_stmt 1 view .LVU1164
1228:HANcoder_E407_TTA_CombineModel.c ****     if (rtDWork.Integrator_DSTATE >= 100.0) {
 3417              		.loc 1 1228 31 is_stmt 0 view .LVU1165
 3418 096e 3246     		mov	r2, r6
 3419 0970 3B46     		mov	r3, r7
 3420 0972 51EC1A0B 		vmov	r0, r1, d10
 3421 0976 FFF7FEFF 		bl	__aeabi_dadd
 3422              	.LVL223:
1229:HANcoder_E407_TTA_CombineModel.c ****       rtDWork.Integrator_DSTATE = 100.0;
 3423              		.loc 1 1229 8 view .LVU1166
 3424 097a DFF86C93 		ldr	r9, .L456+120
 3425 097e 4FF00008 		mov	r8, #0
 3426 0982 4246     		mov	r2, r8
 3427 0984 4B46     		mov	r3, r9
1228:HANcoder_E407_TTA_CombineModel.c ****     if (rtDWork.Integrator_DSTATE >= 100.0) {
 3428              		.loc 1 1228 31 view .LVU1167
 3429 0986 0646     		mov	r6, r0
 3430              	.LVL224:
1228:HANcoder_E407_TTA_CombineModel.c ****     if (rtDWork.Integrator_DSTATE >= 100.0) {
 3431              		.loc 1 1228 31 view .LVU1168
 3432 0988 0F46     		mov	r7, r1
1229:HANcoder_E407_TTA_CombineModel.c ****       rtDWork.Integrator_DSTATE = 100.0;
 3433              		.loc 1 1229 5 is_stmt 1 view .LVU1169
1229:HANcoder_E407_TTA_CombineModel.c ****       rtDWork.Integrator_DSTATE = 100.0;
 3434              		.loc 1 1229 8 is_stmt 0 view .LVU1170
 3435 098a FFF7FEFF 		bl	__aeabi_dcmpge
 3436              	.LVL225:
 3437 098e 0028     		cmp	r0, #0
 3438 0990 40F02A85 		bne	.L413
1231:HANcoder_E407_TTA_CombineModel.c ****       rtDWork.Integrator_DSTATE = 0.0;
 3439              		.loc 1 1231 12 is_stmt 1 view .LVU1171
1231:HANcoder_E407_TTA_CombineModel.c ****       rtDWork.Integrator_DSTATE = 0.0;
 3440              		.loc 1 1231 15 is_stmt 0 view .LVU1172
 3441 0994 4FF00008 		mov	r8, #0
 3442 0998 4FF00009 		mov	r9, #0
 3443 099c 3046     		mov	r0, r6
 3444 099e 3946     		mov	r1, r7
 3445 09a0 4246     		mov	r2, r8
 3446 09a2 4B46     		mov	r3, r9
 3447 09a4 FFF7FEFF 		bl	__aeabi_dcmple
 3448              	.LVL226:
 3449 09a8 0028     		cmp	r0, #0
 3450 09aa 40F01D85 		bne	.L413
1228:HANcoder_E407_TTA_CombineModel.c ****     if (rtDWork.Integrator_DSTATE >= 100.0) {
 3451              		.loc 1 1228 31 view .LVU1173
 3452 09ae C4E90267 		strd	r6, [r4, #8]
 3453              	.LVL227:
 3454              	.L104:
1238:HANcoder_E407_TTA_CombineModel.c **** 
 3455              		.loc 1 1238 3 is_stmt 1 view .LVU1174
1245:HANcoder_E407_TTA_CombineModel.c ****     /* Delay: '<S80>/Delay' */
 3456              		.loc 1 1245 35 is_stmt 0 view .LVU1175
 3457 09b2 9AF80B30 		ldrb	r3, [r10, #11]	@ zero_extendqisi2
1238:HANcoder_E407_TTA_CombineModel.c **** 
 3458              		.loc 1 1238 46 view .LVU1176
 3459 09b6 0122     		movs	r2, #1
1245:HANcoder_E407_TTA_CombineModel.c ****     /* Delay: '<S80>/Delay' */
 3460              		.loc 1 1245 15 view .LVU1177
 3461 09b8 9342     		cmp	r3, r2
1238:HANcoder_E407_TTA_CombineModel.c **** 
 3462              		.loc 1 1238 46 view .LVU1178
 3463 09ba 8AF80C20 		strb	r2, [r10, #12]
1245:HANcoder_E407_TTA_CombineModel.c ****     /* Delay: '<S80>/Delay' */
 3464              		.loc 1 1245 3 is_stmt 1 view .LVU1179
1245:HANcoder_E407_TTA_CombineModel.c ****     /* Delay: '<S80>/Delay' */
 3465              		.loc 1 1245 15 is_stmt 0 view .LVU1180
 3466 09be 3FF473AB 		beq	.L406
 3467              	.L248:
1247:HANcoder_E407_TTA_CombineModel.c **** 
 3468              		.loc 1 1247 5 is_stmt 1 view .LVU1181
1247:HANcoder_E407_TTA_CombineModel.c **** 
 3469              		.loc 1 1247 9 is_stmt 0 view .LVU1182
 3470 09c2 AC4A     		ldr	r2, .L456+4
1250:HANcoder_E407_TTA_CombineModel.c **** 
 3471              		.loc 1 1250 9 view .LVU1183
 3472 09c4 AC48     		ldr	r0, .L456+8
1247:HANcoder_E407_TTA_CombineModel.c **** 
 3473              		.loc 1 1247 33 view .LVU1184
 3474 09c6 94F87A30 		ldrb	r3, [r4, #122]	@ zero_extendqisi2
1253:HANcoder_E407_TTA_CombineModel.c **** 
 3475              		.loc 1 1253 9 view .LVU1185
 3476 09ca AC49     		ldr	r1, .L456+12
1247:HANcoder_E407_TTA_CombineModel.c **** 
 3477              		.loc 1 1247 9 view .LVU1186
 3478 09cc 1370     		strb	r3, [r2]
1250:HANcoder_E407_TTA_CombineModel.c **** 
 3479              		.loc 1 1250 5 is_stmt 1 view .LVU1187
1250:HANcoder_E407_TTA_CombineModel.c **** 
 3480              		.loc 1 1250 32 is_stmt 0 view .LVU1188
 3481 09ce 94F87C20 		ldrb	r2, [r4, #124]	@ zero_extendqisi2
1256:HANcoder_E407_TTA_CombineModel.c **** 
 3482              		.loc 1 1256 9 view .LVU1189
 3483 09d2 AB4E     		ldr	r6, .L456+16
1250:HANcoder_E407_TTA_CombineModel.c **** 
 3484              		.loc 1 1250 9 view .LVU1190
 3485 09d4 0270     		strb	r2, [r0]
1253:HANcoder_E407_TTA_CombineModel.c **** 
 3486              		.loc 1 1253 5 is_stmt 1 view .LVU1191
1253:HANcoder_E407_TTA_CombineModel.c **** 
 3487              		.loc 1 1253 32 is_stmt 0 view .LVU1192
 3488 09d6 94F88500 		ldrb	r0, [r4, #133]	@ zero_extendqisi2
1259:HANcoder_E407_TTA_CombineModel.c **** 
 3489              		.loc 1 1259 9 view .LVU1193
 3490 09da AA4F     		ldr	r7, .L456+20
1253:HANcoder_E407_TTA_CombineModel.c **** 
 3491              		.loc 1 1253 9 view .LVU1194
 3492 09dc 0870     		strb	r0, [r1]
1256:HANcoder_E407_TTA_CombineModel.c **** 
 3493              		.loc 1 1256 5 is_stmt 1 view .LVU1195
1256:HANcoder_E407_TTA_CombineModel.c **** 
 3494              		.loc 1 1256 32 is_stmt 0 view .LVU1196
 3495 09de 94F89510 		ldrb	r1, [r4, #149]	@ zero_extendqisi2
1256:HANcoder_E407_TTA_CombineModel.c **** 
 3496              		.loc 1 1256 9 view .LVU1197
 3497 09e2 3170     		strb	r1, [r6]
1259:HANcoder_E407_TTA_CombineModel.c **** 
 3498              		.loc 1 1259 5 is_stmt 1 view .LVU1198
1259:HANcoder_E407_TTA_CombineModel.c **** 
 3499              		.loc 1 1259 32 is_stmt 0 view .LVU1199
 3500 09e4 94F8AE60 		ldrb	r6, [r4, #174]	@ zero_extendqisi2
1259:HANcoder_E407_TTA_CombineModel.c **** 
 3501              		.loc 1 1259 9 view .LVU1200
 3502 09e8 3E70     		strb	r6, [r7]
1264:HANcoder_E407_TTA_CombineModel.c **** 
 3503              		.loc 1 1264 5 is_stmt 1 view .LVU1201
1264:HANcoder_E407_TTA_CombineModel.c **** 
 3504              		.loc 1 1264 46 is_stmt 0 view .LVU1202
 3505 09ea 63B1     		cbz	r3, .L107
1264:HANcoder_E407_TTA_CombineModel.c **** 
 3506              		.loc 1 1264 25 discriminator 1 view .LVU1203
 3507 09ec 002A     		cmp	r2, #0
 3508 09ee 00F08787 		beq	.L283
1264:HANcoder_E407_TTA_CombineModel.c **** 
 3509              		.loc 1 1264 32 discriminator 3 view .LVU1204
 3510 09f2 0028     		cmp	r0, #0
 3511 09f4 01F0A380 		beq	.L284
1264:HANcoder_E407_TTA_CombineModel.c **** 
 3512              		.loc 1 1264 39 discriminator 5 view .LVU1205
 3513 09f8 0029     		cmp	r1, #0
 3514 09fa 01F0D080 		beq	.L285
1264:HANcoder_E407_TTA_CombineModel.c **** 
 3515              		.loc 1 1264 46 discriminator 7 view .LVU1206
 3516 09fe 002E     		cmp	r6, #0
 3517 0a00 0CBF     		ite	eq
 3518 0a02 0023     		moveq	r3, #0
 3519 0a04 0423     		movne	r3, #4
 3520              	.L107:
1269:HANcoder_E407_TTA_CombineModel.c ****       false) << 1) + rtDWork.Memory_PreviousInput_d1];
 3521              		.loc 1 1269 5 is_stmt 1 discriminator 12 view .LVU1207
1269:HANcoder_E407_TTA_CombineModel.c ****       false) << 1) + rtDWork.Memory_PreviousInput_d1];
 3522              		.loc 1 1269 23 is_stmt 0 discriminator 12 view .LVU1208
 3523 0a06 A049     		ldr	r1, .L456+24
1270:HANcoder_E407_TTA_CombineModel.c **** 
 3524              		.loc 1 1270 29 discriminator 12 view .LVU1209
 3525 0a08 94F8FA20 		ldrb	r2, [r4, #250]	@ zero_extendqisi2
1269:HANcoder_E407_TTA_CombineModel.c ****       false) << 1) + rtDWork.Memory_PreviousInput_d1];
 3526              		.loc 1 1269 23 discriminator 12 view .LVU1210
 3527 0a0c 0B44     		add	r3, r3, r1
 3528 0a0e 13F80290 		ldrb	r9, [r3, r2]	@ zero_extendqisi2
 3529              	.LVL228:
1277:HANcoder_E407_TTA_CombineModel.c **** 
 3530              		.loc 1 1277 5 is_stmt 1 discriminator 12 view .LVU1211
1280:HANcoder_E407_TTA_CombineModel.c **** 
 3531              		.loc 1 1280 5 discriminator 12 view .LVU1212
1280:HANcoder_E407_TTA_CombineModel.c **** 
 3532              		.loc 1 1280 45 is_stmt 0 discriminator 12 view .LVU1213
 3533 0a12 B9F1000F 		cmp	r9, #0
 3534 0a16 00F0C182 		beq	.L287
 3535 0a1a ABF1010B 		sub	fp, fp, #1
 3536 0a1e BBFA8BFB 		clz	fp, fp
 3537 0a22 4FEA5B1B 		lsr	fp, fp, #5
 3538              	.L108:
1280:HANcoder_E407_TTA_CombineModel.c **** 
 3539              		.loc 1 1280 24 discriminator 6 view .LVU1214
 3540 0a26 994B     		ldr	r3, .L456+28
1286:HANcoder_E407_TTA_CombineModel.c **** 
 3541              		.loc 1 1286 21 discriminator 6 view .LVU1215
 3542 0a28 B4F85C80 		ldrh	r8, [r4, #92]
1280:HANcoder_E407_TTA_CombineModel.c **** 
 3543              		.loc 1 1280 24 discriminator 6 view .LVU1216
 3544 0a2c 83F800B0 		strb	fp, [r3]
1283:HANcoder_E407_TTA_CombineModel.c **** 
 3545              		.loc 1 1283 5 is_stmt 1 discriminator 6 view .LVU1217
1286:HANcoder_E407_TTA_CombineModel.c **** 
 3546              		.loc 1 1286 5 discriminator 6 view .LVU1218
1286:HANcoder_E407_TTA_CombineModel.c **** 
 3547              		.loc 1 1286 12 is_stmt 0 discriminator 6 view .LVU1219
 3548 0a30 974B     		ldr	r3, .L456+32
1289:HANcoder_E407_TTA_CombineModel.c **** 
 3549              		.loc 1 1289 22 discriminator 6 view .LVU1220
 3550 0a32 B4F85A20 		ldrh	r2, [r4, #90]
1286:HANcoder_E407_TTA_CombineModel.c **** 
 3551              		.loc 1 1286 12 discriminator 6 view .LVU1221
 3552 0a36 A3F80080 		strh	r8, [r3]	@ movhi
1289:HANcoder_E407_TTA_CombineModel.c **** 
 3553              		.loc 1 1289 5 is_stmt 1 discriminator 6 view .LVU1222
1289:HANcoder_E407_TTA_CombineModel.c **** 
 3554              		.loc 1 1289 13 is_stmt 0 discriminator 6 view .LVU1223
 3555 0a3a 964B     		ldr	r3, .L456+36
1283:HANcoder_E407_TTA_CombineModel.c **** 
 3556              		.loc 1 1283 25 discriminator 6 view .LVU1224
 3557 0a3c 84F8EFB0 		strb	fp, [r4, #239]
1289:HANcoder_E407_TTA_CombineModel.c **** 
 3558              		.loc 1 1289 13 discriminator 6 view .LVU1225
 3559 0a40 1A80     		strh	r2, [r3]	@ movhi
1295:HANcoder_E407_TTA_CombineModel.c **** 
 3560              		.loc 1 1295 5 is_stmt 1 discriminator 6 view .LVU1226
1295:HANcoder_E407_TTA_CombineModel.c **** 
 3561              		.loc 1 1295 35 is_stmt 0 discriminator 6 view .LVU1227
 3562 0a42 A8EB0203 		sub	r3, r8, r2
1295:HANcoder_E407_TTA_CombineModel.c **** 
 3563              		.loc 1 1295 7 discriminator 6 view .LVU1228
 3564 0a46 1BB2     		sxth	r3, r3
 3565              	.LVL229:
1298:HANcoder_E407_TTA_CombineModel.c ****       u = (int16_T)-u;
 3566              		.loc 1 1298 5 is_stmt 1 discriminator 6 view .LVU1229
1298:HANcoder_E407_TTA_CombineModel.c ****       u = (int16_T)-u;
 3567              		.loc 1 1298 8 is_stmt 0 discriminator 6 view .LVU1230
 3568 0a48 002B     		cmp	r3, #0
1299:HANcoder_E407_TTA_CombineModel.c ****     }
 3569              		.loc 1 1299 7 is_stmt 1 discriminator 6 view .LVU1231
1299:HANcoder_E407_TTA_CombineModel.c ****     }
 3570              		.loc 1 1299 11 is_stmt 0 discriminator 6 view .LVU1232
 3571 0a4a BCBF     		itt	lt
 3572 0a4c A2EB0803 		sublt	r3, r2, r8
 3573              	.LVL230:
1299:HANcoder_E407_TTA_CombineModel.c ****     }
 3574              		.loc 1 1299 9 discriminator 6 view .LVU1233
 3575 0a50 1BB2     		sxthlt	r3, r3
 3576              	.LVL231:
1309:HANcoder_E407_TTA_CombineModel.c **** 
 3577              		.loc 1 1309 5 is_stmt 1 discriminator 6 view .LVU1234
1309:HANcoder_E407_TTA_CombineModel.c **** 
 3578              		.loc 1 1309 32 is_stmt 0 discriminator 6 view .LVU1235
 3579 0a52 B3F57A7F 		cmp	r3, #1000
 3580 0a56 40F37385 		ble	.L288
1309:HANcoder_E407_TTA_CombineModel.c **** 
 3581              		.loc 1 1309 32 discriminator 1 view .LVU1236
 3582 0a5a 94F8D130 		ldrb	r3, [r4, #209]	@ zero_extendqisi2
 3583              	.LVL232:
1309:HANcoder_E407_TTA_CombineModel.c **** 
 3584              		.loc 1 1309 32 discriminator 1 view .LVU1237
 3585 0a5e 002B     		cmp	r3, #0
 3586 0a60 0CBF     		ite	eq
 3587 0a62 0023     		moveq	r3, #0
 3588 0a64 0423     		movne	r3, #4
 3589              	.L110:
1314:HANcoder_E407_TTA_CombineModel.c ****       false) << 1) + rtDWork.Memory_PreviousInput_a];
 3590              		.loc 1 1314 5 is_stmt 1 discriminator 6 view .LVU1238
1314:HANcoder_E407_TTA_CombineModel.c ****       false) << 1) + rtDWork.Memory_PreviousInput_a];
 3591              		.loc 1 1314 23 is_stmt 0 discriminator 6 view .LVU1239
 3592 0a66 1944     		add	r1, r1, r3
1315:HANcoder_E407_TTA_CombineModel.c **** 
 3593              		.loc 1 1315 29 discriminator 6 view .LVU1240
 3594 0a68 94F8FB30 		ldrb	r3, [r4, #251]	@ zero_extendqisi2
1314:HANcoder_E407_TTA_CombineModel.c ****       false) << 1) + rtDWork.Memory_PreviousInput_a];
 3595              		.loc 1 1314 23 discriminator 6 view .LVU1241
 3596 0a6c 11F803B0 		ldrb	fp, [r1, r3]	@ zero_extendqisi2
 3597              	.LVL233:
1318:HANcoder_E407_TTA_CombineModel.c **** 
 3598              		.loc 1 1318 5 is_stmt 1 discriminator 6 view .LVU1242
1325:HANcoder_E407_TTA_CombineModel.c **** 
 3599              		.loc 1 1325 14 is_stmt 0 discriminator 6 view .LVU1243
 3600 0a70 B4F85030 		ldrh	r3, [r4, #80]
1318:HANcoder_E407_TTA_CombineModel.c **** 
 3601              		.loc 1 1318 22 discriminator 6 view .LVU1244
 3602 0a74 84F8F0B0 		strb	fp, [r4, #240]
1324:HANcoder_E407_TTA_CombineModel.c ****       rtDWork.potentiometer1;
 3603              		.loc 1 1324 5 is_stmt 1 discriminator 6 view .LVU1245
1324:HANcoder_E407_TTA_CombineModel.c ****       rtDWork.potentiometer1;
 3604              		.loc 1 1324 59 is_stmt 0 discriminator 6 view .LVU1246
 3605 0a78 4FF28A42 		movw	r2, #62602
 3606              	.LVL234:
1324:HANcoder_E407_TTA_CombineModel.c ****       rtDWork.potentiometer1;
 3607              		.loc 1 1324 59 discriminator 6 view .LVU1247
 3608 0a7c 02FB03F3 		mul	r3, r2, r3
1324:HANcoder_E407_TTA_CombineModel.c ****       rtDWork.potentiometer1;
 3609              		.loc 1 1324 28 discriminator 6 view .LVU1248
 3610 0a80 A364     		str	r3, [r4, #72]
1330:HANcoder_E407_TTA_CombineModel.c **** 
 3611              		.loc 1 1330 5 is_stmt 1 discriminator 6 view .LVU1249
1340:HANcoder_E407_TTA_CombineModel.c ****                   (rtDWork.pwmMotor > ((uint16_T)700U)));
 3612              		.loc 1 1340 55 is_stmt 0 discriminator 6 view .LVU1250
 3613 0a82 636C     		ldr	r3, [r4, #68]
 3614 0a84 0593     		str	r3, [sp, #20]
 3615 0a86 1946     		mov	r1, r3
1340:HANcoder_E407_TTA_CombineModel.c ****                   (rtDWork.pwmMotor > ((uint16_T)700U)));
 3616              		.loc 1 1340 73 discriminator 6 view .LVU1251
 3617 0a88 A36A     		ldr	r3, [r4, #40]
1330:HANcoder_E407_TTA_CombineModel.c **** 
 3618              		.loc 1 1330 22 discriminator 6 view .LVU1252
 3619 0a8a B4F84C20 		ldrh	r2, [r4, #76]
 3620 0a8e A4F85A20 		strh	r2, [r4, #90]	@ movhi
 3621              	.LVL235:
1340:HANcoder_E407_TTA_CombineModel.c ****                   (rtDWork.pwmMotor > ((uint16_T)700U)));
 3622              		.loc 1 1340 5 is_stmt 1 discriminator 6 view .LVU1253
1340:HANcoder_E407_TTA_CombineModel.c ****                   (rtDWork.pwmMotor > ((uint16_T)700U)));
 3623              		.loc 1 1340 73 is_stmt 0 discriminator 6 view .LVU1254
 3624 0a92 8B42     		cmp	r3, r1
 3625 0a94 00F0EA86 		beq	.L429
 3626 0a98 0027     		movs	r7, #0
 3627              	.L111:
1344:HANcoder_E407_TTA_CombineModel.c **** 
 3628              		.loc 1 1344 5 is_stmt 1 discriminator 6 view .LVU1255
1354:HANcoder_E407_TTA_CombineModel.c ****       /* Gain: '<S94>/Gain' incorporates:
 3629              		.loc 1 1354 32 is_stmt 0 discriminator 6 view .LVU1256
 3630 0a9a 94F8F130 		ldrb	r3, [r4, #241]	@ zero_extendqisi2
 3631 0a9e 94F8ED20 		ldrb	r2, [r4, #237]	@ zero_extendqisi2
1344:HANcoder_E407_TTA_CombineModel.c **** 
 3632              		.loc 1 1344 25 discriminator 6 view .LVU1257
 3633 0aa2 94F8F510 		ldrb	r1, [r4, #245]	@ zero_extendqisi2
 3634 0aa6 0691     		str	r1, [sp, #24]
 3635              	.LVL236:
1354:HANcoder_E407_TTA_CombineModel.c ****       /* Gain: '<S94>/Gain' incorporates:
 3636              		.loc 1 1354 5 is_stmt 1 discriminator 6 view .LVU1258
1359:HANcoder_E407_TTA_CombineModel.c ****         rtDWork.potentiometer2) >> 22);
 3637              		.loc 1 1359 7 discriminator 6 view .LVU1259
1369:HANcoder_E407_TTA_CombineModel.c ****         rtDWork.pot4_1) >> 22);
 3638              		.loc 1 1369 7 discriminator 6 view .LVU1260
1354:HANcoder_E407_TTA_CombineModel.c ****       /* Gain: '<S94>/Gain' incorporates:
 3639              		.loc 1 1354 32 is_stmt 0 discriminator 6 view .LVU1261
 3640 0aa8 1343     		orrs	r3, r2, r3
1360:HANcoder_E407_TTA_CombineModel.c ****     } else {
 3641              		.loc 1 1360 16 discriminator 6 view .LVU1262
 3642 0aaa 0CBF     		ite	eq
 3643 0aac B4F85E30 		ldrheq	r3, [r4, #94]
1370:HANcoder_E407_TTA_CombineModel.c **** 
 3644              		.loc 1 1370 16 discriminator 6 view .LVU1263
 3645 0ab0 B4F85630 		ldrhne	r3, [r4, #86]
1369:HANcoder_E407_TTA_CombineModel.c ****         rtDWork.pot4_1) >> 22);
 3646              		.loc 1 1369 74 discriminator 6 view .LVU1264
 3647 0ab4 4FF28A42 		movw	r2, #62602
 3648 0ab8 02FB03F3 		mul	r3, r2, r3
1369:HANcoder_E407_TTA_CombineModel.c ****         rtDWork.pot4_1) >> 22);
 3649              		.loc 1 1369 33 discriminator 6 view .LVU1265
 3650 0abc 9B0D     		lsrs	r3, r3, #22
1386:HANcoder_E407_TTA_CombineModel.c ****       /* Gain: '<S96>/Gain' incorporates:
 3651              		.loc 1 1386 32 discriminator 6 view .LVU1266
 3652 0abe 94F8EE20 		ldrb	r2, [r4, #238]	@ zero_extendqisi2
 3653 0ac2 A4F86030 		strh	r3, [r4, #96]	@ movhi
1386:HANcoder_E407_TTA_CombineModel.c ****       /* Gain: '<S96>/Gain' incorporates:
 3654              		.loc 1 1386 5 is_stmt 1 discriminator 6 view .LVU1267
1386:HANcoder_E407_TTA_CombineModel.c ****       /* Gain: '<S96>/Gain' incorporates:
 3655              		.loc 1 1386 32 is_stmt 0 discriminator 6 view .LVU1268
 3656 0ac6 94F8F230 		ldrb	r3, [r4, #242]	@ zero_extendqisi2
 3657 0aca 1343     		orrs	r3, r2, r3
 3658 0acc 40F07C84 		bne	.L114
1391:HANcoder_E407_TTA_CombineModel.c ****         rtDWork.pot4_2) >> 22);
 3659              		.loc 1 1391 7 is_stmt 1 view .LVU1269
1392:HANcoder_E407_TTA_CombineModel.c ****     } else {
 3660              		.loc 1 1392 16 is_stmt 0 view .LVU1270
 3661 0ad0 B4F85830 		ldrh	r3, [r4, #88]
1391:HANcoder_E407_TTA_CombineModel.c ****         rtDWork.pot4_2) >> 22);
 3662              		.loc 1 1391 74 view .LVU1271
 3663 0ad4 4FF28A42 		movw	r2, #62602
 3664 0ad8 02FB03F3 		mul	r3, r2, r3
1392:HANcoder_E407_TTA_CombineModel.c ****     } else {
 3665              		.loc 1 1392 25 view .LVU1272
 3666 0adc 9B0D     		lsrs	r3, r3, #22
1391:HANcoder_E407_TTA_CombineModel.c ****         rtDWork.pot4_2) >> 22);
 3667              		.loc 1 1391 33 view .LVU1273
 3668 0ade A4F86030 		strh	r3, [r4, #96]	@ movhi
 3669              	.L115:
1411:HANcoder_E407_TTA_CombineModel.c **** 
 3670              		.loc 1 1411 5 is_stmt 1 view .LVU1274
 3671              	.LVL237:
1414:HANcoder_E407_TTA_CombineModel.c **** 
 3672              		.loc 1 1414 5 view .LVU1275
1418:HANcoder_E407_TTA_CombineModel.c **** 
 3673              		.loc 1 1418 5 view .LVU1276
1418:HANcoder_E407_TTA_CombineModel.c **** 
 3674              		.loc 1 1418 18 is_stmt 0 view .LVU1277
 3675 0ae2 0021     		movs	r1, #0
 3676 0ae4 0420     		movs	r0, #4
 3677 0ae6 FFF7FEFF 		bl	AninGet
 3678              	.LVL238:
1422:HANcoder_E407_TTA_CombineModel.c **** 
 3679              		.loc 1 1422 5 view .LVU1278
 3680 0aea 07EE900A 		vmov	s15, r0	@ int
1418:HANcoder_E407_TTA_CombineModel.c **** 
 3681              		.loc 1 1418 16 view .LVU1279
 3682 0aee 6A4E     		ldr	r6, .L456+40
1422:HANcoder_E407_TTA_CombineModel.c **** 
 3683              		.loc 1 1422 5 view .LVU1280
 3684 0af0 6A4A     		ldr	r2, .L456+44
 3685 0af2 6B49     		ldr	r1, .L456+48
1418:HANcoder_E407_TTA_CombineModel.c **** 
 3686              		.loc 1 1418 16 view .LVU1281
 3687 0af4 3080     		strh	r0, [r6]	@ movhi
1421:HANcoder_E407_TTA_CombineModel.c ****     MovingAverage(rtb_Cast_m, &rtB.MovingAverage_p, &rtDWork.MovingAverage_p);
 3688              		.loc 1 1421 5 is_stmt 1 view .LVU1282
 3689              	.LVL239:
1422:HANcoder_E407_TTA_CombineModel.c **** 
 3690              		.loc 1 1422 5 view .LVU1283
 3691 0af6 F8EE677A 		vcvt.f32.u32	s15, s15
 3692 0afa 17EE900A 		vmov	r0, s15
 3693              	.LVL240:
1422:HANcoder_E407_TTA_CombineModel.c **** 
 3694              		.loc 1 1422 5 is_stmt 0 view .LVU1284
 3695 0afe FFF7FEFF 		bl	MovingAverage
 3696              	.LVL241:
1425:HANcoder_E407_TTA_CombineModel.c **** 
 3697              		.loc 1 1425 5 is_stmt 1 view .LVU1285
1425:HANcoder_E407_TTA_CombineModel.c **** 
 3698              		.loc 1 1425 12 is_stmt 0 view .LVU1286
 3699 0b02 D5ED377A 		vldr.32	s15, [r5, #220]
1431:HANcoder_E407_TTA_CombineModel.c **** 
 3700              		.loc 1 1431 31 view .LVU1287
 3701 0b06 3388     		ldrh	r3, [r6]
 3702 0b08 A4F85C30 		strh	r3, [r4, #92]	@ movhi
1425:HANcoder_E407_TTA_CombineModel.c **** 
 3703              		.loc 1 1425 12 view .LVU1288
 3704 0b0c FCEEE77A 		vcvt.u32.f32	s15, s15
1425:HANcoder_E407_TTA_CombineModel.c **** 
 3705              		.loc 1 1425 10 view .LVU1289
 3706 0b10 644A     		ldr	r2, .L456+52
1425:HANcoder_E407_TTA_CombineModel.c **** 
 3707              		.loc 1 1425 12 view .LVU1290
 3708 0b12 17EE903A 		vmov	r3, s15	@ int
1435:HANcoder_E407_TTA_CombineModel.c **** 
 3709              		.loc 1 1435 18 view .LVU1291
 3710 0b16 0021     		movs	r1, #0
1425:HANcoder_E407_TTA_CombineModel.c **** 
 3711              		.loc 1 1425 12 view .LVU1292
 3712 0b18 9BB2     		uxth	r3, r3
1435:HANcoder_E407_TTA_CombineModel.c **** 
 3713              		.loc 1 1435 18 view .LVU1293
 3714 0b1a 0520     		movs	r0, #5
1425:HANcoder_E407_TTA_CombineModel.c **** 
 3715              		.loc 1 1425 10 view .LVU1294
 3716 0b1c 1380     		strh	r3, [r2]	@ movhi
1428:HANcoder_E407_TTA_CombineModel.c **** 
 3717              		.loc 1 1428 5 is_stmt 1 view .LVU1295
1428:HANcoder_E407_TTA_CombineModel.c **** 
 3718              		.loc 1 1428 28 is_stmt 0 view .LVU1296
 3719 0b1e A4F85030 		strh	r3, [r4, #80]	@ movhi
1431:HANcoder_E407_TTA_CombineModel.c **** 
 3720              		.loc 1 1431 5 is_stmt 1 view .LVU1297
1435:HANcoder_E407_TTA_CombineModel.c **** 
 3721              		.loc 1 1435 5 view .LVU1298
1435:HANcoder_E407_TTA_CombineModel.c **** 
 3722              		.loc 1 1435 18 is_stmt 0 view .LVU1299
 3723 0b22 FFF7FEFF 		bl	AninGet
 3724              	.LVL242:
1439:HANcoder_E407_TTA_CombineModel.c **** 
 3725              		.loc 1 1439 5 view .LVU1300
 3726 0b26 07EE900A 		vmov	s15, r0	@ int
1435:HANcoder_E407_TTA_CombineModel.c **** 
 3727              		.loc 1 1435 16 view .LVU1301
 3728 0b2a 5F4B     		ldr	r3, .L456+56
1439:HANcoder_E407_TTA_CombineModel.c **** 
 3729              		.loc 1 1439 5 view .LVU1302
 3730 0b2c 5F4A     		ldr	r2, .L456+60
1435:HANcoder_E407_TTA_CombineModel.c **** 
 3731              		.loc 1 1435 16 view .LVU1303
 3732 0b2e 1880     		strh	r0, [r3]	@ movhi
1438:HANcoder_E407_TTA_CombineModel.c ****     MovingAverage(rtb_Cast3, &rtB.MovingAverage1, &rtDWork.MovingAverage1);
 3733              		.loc 1 1438 5 is_stmt 1 view .LVU1304
 3734              	.LVL243:
1439:HANcoder_E407_TTA_CombineModel.c **** 
 3735              		.loc 1 1439 5 view .LVU1305
 3736 0b30 F8EE677A 		vcvt.f32.u32	s15, s15
 3737 0b34 5E49     		ldr	r1, .L456+64
 3738 0b36 17EE900A 		vmov	r0, s15
 3739              	.LVL244:
1439:HANcoder_E407_TTA_CombineModel.c **** 
 3740              		.loc 1 1439 5 is_stmt 0 view .LVU1306
 3741 0b3a FFF7FEFF 		bl	MovingAverage
 3742              	.LVL245:
1442:HANcoder_E407_TTA_CombineModel.c **** 
 3743              		.loc 1 1442 5 is_stmt 1 view .LVU1307
1442:HANcoder_E407_TTA_CombineModel.c **** 
 3744              		.loc 1 1442 12 is_stmt 0 view .LVU1308
 3745 0b3e D5ED367A 		vldr.32	s15, [r5, #216]
1442:HANcoder_E407_TTA_CombineModel.c **** 
 3746              		.loc 1 1442 10 view .LVU1309
 3747 0b42 5C4A     		ldr	r2, .L456+68
1442:HANcoder_E407_TTA_CombineModel.c **** 
 3748              		.loc 1 1442 12 view .LVU1310
 3749 0b44 FCEEE77A 		vcvt.u32.f32	s15, s15
1449:HANcoder_E407_TTA_CombineModel.c **** 
 3750              		.loc 1 1449 20 view .LVU1311
 3751 0b48 4720     		movs	r0, #71
1442:HANcoder_E407_TTA_CombineModel.c **** 
 3752              		.loc 1 1442 12 view .LVU1312
 3753 0b4a 17EE903A 		vmov	r3, s15	@ int
 3754 0b4e 9BB2     		uxth	r3, r3
1442:HANcoder_E407_TTA_CombineModel.c **** 
 3755              		.loc 1 1442 10 view .LVU1313
 3756 0b50 1380     		strh	r3, [r2]	@ movhi
1445:HANcoder_E407_TTA_CombineModel.c **** 
 3757              		.loc 1 1445 5 is_stmt 1 view .LVU1314
1445:HANcoder_E407_TTA_CombineModel.c **** 
 3758              		.loc 1 1445 28 is_stmt 0 view .LVU1315
 3759 0b52 A4F85E30 		strh	r3, [r4, #94]	@ movhi
1449:HANcoder_E407_TTA_CombineModel.c **** 
 3760              		.loc 1 1449 5 is_stmt 1 view .LVU1316
1449:HANcoder_E407_TTA_CombineModel.c **** 
 3761              		.loc 1 1449 20 is_stmt 0 view .LVU1317
 3762 0b56 FFF7FEFF 		bl	DiginGet
 3763              	.LVL246:
1454:HANcoder_E407_TTA_CombineModel.c **** 
 3764              		.loc 1 1454 5 is_stmt 1 view .LVU1318
1457:HANcoder_E407_TTA_CombineModel.c **** 
 3765              		.loc 1 1457 27 is_stmt 0 view .LVU1319
 3766 0b5a 574B     		ldr	r3, .L456+72
1454:HANcoder_E407_TTA_CombineModel.c **** 
 3767              		.loc 1 1454 25 view .LVU1320
 3768 0b5c 84F8E000 		strb	r0, [r4, #224]
1457:HANcoder_E407_TTA_CombineModel.c **** 
 3769              		.loc 1 1457 5 is_stmt 1 view .LVU1321
1457:HANcoder_E407_TTA_CombineModel.c **** 
 3770              		.loc 1 1457 27 is_stmt 0 view .LVU1322
 3771 0b60 1B78     		ldrb	r3, [r3]	@ zero_extendqisi2
 3772 0b62 84F8F530 		strb	r3, [r4, #245]
1461:HANcoder_E407_TTA_CombineModel.c ****       QuadEncResetCounter(QUADENC_TIM3_PA6_PB5);
 3773              		.loc 1 1461 5 is_stmt 1 view .LVU1323
1461:HANcoder_E407_TTA_CombineModel.c ****       QuadEncResetCounter(QUADENC_TIM3_PA6_PB5);
 3774              		.loc 1 1461 8 is_stmt 0 view .LVU1324
 3775 0b66 95F83830 		ldrb	r3, [r5, #56]	@ zero_extendqisi2
 3776 0b6a 002B     		cmp	r3, #0
 3777 0b6c 40F0B386 		bne	.L430
 3778              	.LVL247:
 3779              	.L116:
1466:HANcoder_E407_TTA_CombineModel.c **** 
 3780              		.loc 1 1466 5 is_stmt 1 view .LVU1325
1466:HANcoder_E407_TTA_CombineModel.c **** 
 3781              		.loc 1 1466 16 is_stmt 0 view .LVU1326
 3782 0b70 0120     		movs	r0, #1
 3783 0b72 FFF7FEFF 		bl	QuadEncGetCounter
 3784              	.LVL248:
1466:HANcoder_E407_TTA_CombineModel.c **** 
 3785              		.loc 1 1466 14 view .LVU1327
 3786 0b76 514B     		ldr	r3, .L456+76
1469:HANcoder_E407_TTA_CombineModel.c **** 
 3787              		.loc 1 1469 29 view .LVU1328
 3788 0b78 6064     		str	r0, [r4, #68]
1466:HANcoder_E407_TTA_CombineModel.c **** 
 3789              		.loc 1 1466 14 view .LVU1329
 3790 0b7a 1860     		str	r0, [r3]
1469:HANcoder_E407_TTA_CombineModel.c **** 
 3791              		.loc 1 1469 5 is_stmt 1 view .LVU1330
1479:HANcoder_E407_TTA_CombineModel.c **** 
 3792              		.loc 1 1479 5 view .LVU1331
1479:HANcoder_E407_TTA_CombineModel.c **** 
 3793              		.loc 1 1479 58 is_stmt 0 view .LVU1332
 3794 0b7c 0022     		movs	r2, #0
 3795 0b7e 0023     		movs	r3, #0
 3796 0b80 D4E90001 		ldrd	r0, [r4]
 3797 0b84 FFF7FEFF 		bl	__aeabi_dcmplt
 3798              	.LVL249:
1484:HANcoder_E407_TTA_CombineModel.c **** 
 3799              		.loc 1 1484 15 view .LVU1333
 3800 0b88 4D4E     		ldr	r6, .L456+80
1479:HANcoder_E407_TTA_CombineModel.c **** 
 3801              		.loc 1 1479 58 view .LVU1334
 3802 0b8a 0038     		subs	r0, r0, #0
1484:HANcoder_E407_TTA_CombineModel.c **** 
 3803              		.loc 1 1484 25 view .LVU1335
 3804 0b8c 3378     		ldrb	r3, [r6]	@ zero_extendqisi2
1479:HANcoder_E407_TTA_CombineModel.c **** 
 3805              		.loc 1 1479 58 view .LVU1336
 3806 0b8e 18BF     		it	ne
 3807 0b90 0120     		movne	r0, #1
1479:HANcoder_E407_TTA_CombineModel.c **** 
 3808              		.loc 1 1479 28 view .LVU1337
 3809 0b92 85F83800 		strb	r0, [r5, #56]
1484:HANcoder_E407_TTA_CombineModel.c **** 
 3810              		.loc 1 1484 5 is_stmt 1 view .LVU1338
1484:HANcoder_E407_TTA_CombineModel.c **** 
 3811              		.loc 1 1484 25 is_stmt 0 view .LVU1339
 3812 0b96 002B     		cmp	r3, #0
 3813 0b98 00F02184 		beq	.L118
1484:HANcoder_E407_TTA_CombineModel.c **** 
 3814              		.loc 1 1484 25 discriminator 1 view .LVU1340
 3815 0b9c 94F8F630 		ldrb	r3, [r4, #246]	@ zero_extendqisi2
 3816 0ba0 002B     		cmp	r3, #0
 3817 0ba2 00F01C84 		beq	.L118
 3818              	.LVL250:
1497:HANcoder_E407_TTA_CombineModel.c ****                 ((!rtDWork.node1CanFailed) || (rtDWork.Board_ID != ((uint8_T)2U)))));
 3819              		.loc 1 1497 5 is_stmt 1 view .LVU1341
1497:HANcoder_E407_TTA_CombineModel.c ****                 ((!rtDWork.node1CanFailed) || (rtDWork.Board_ID != ((uint8_T)2U)))));
 3820              		.loc 1 1497 38 is_stmt 0 view .LVU1342
 3821 0ba6 94F8DE30 		ldrb	r3, [r4, #222]	@ zero_extendqisi2
1497:HANcoder_E407_TTA_CombineModel.c ****                 ((!rtDWork.node1CanFailed) || (rtDWork.Board_ID != ((uint8_T)2U)))));
 3822              		.loc 1 1497 26 view .LVU1343
 3823 0baa 012B     		cmp	r3, #1
 3824 0bac 00F0DF87 		beq	.L399
1497:HANcoder_E407_TTA_CombineModel.c ****                 ((!rtDWork.node1CanFailed) || (rtDWork.Board_ID != ((uint8_T)2U)))));
 3825              		.loc 1 1497 66 discriminator 3 view .LVU1344
 3826 0bb0 94F8F420 		ldrb	r2, [r4, #244]	@ zero_extendqisi2
 3827 0bb4 002A     		cmp	r2, #0
 3828 0bb6 40F06D87 		bne	.L431
 3829              	.LVL251:
1497:HANcoder_E407_TTA_CombineModel.c ****                 ((!rtDWork.node1CanFailed) || (rtDWork.Board_ID != ((uint8_T)2U)))));
 3830              		.loc 1 1497 13 view .LVU1345
 3831 0bba 0123     		movs	r3, #1
 3832 0bbc 85F83930 		strb	r3, [r5, #57]
1507:HANcoder_E407_TTA_CombineModel.c ****                     rtDWork.node1CanFailed);
 3833              		.loc 1 1507 5 is_stmt 1 view .LVU1346
 3834              	.L269:
 3835              	.LVL252:
1536:HANcoder_E407_TTA_CombineModel.c **** 
 3836              		.loc 1 1536 9 view .LVU1347
1536:HANcoder_E407_TTA_CombineModel.c **** 
 3837              		.loc 1 1536 31 is_stmt 0 view .LVU1348
 3838 0bc0 404B     		ldr	r3, .L456+84
1536:HANcoder_E407_TTA_CombineModel.c **** 
 3839              		.loc 1 1536 21 view .LVU1349
 3840 0bc2 1A8C     		ldrh	r2, [r3, #32]
 3841 0bc4 2A80     		strh	r2, [r5]	@ movhi
1539:HANcoder_E407_TTA_CombineModel.c **** 
 3842              		.loc 1 1539 9 is_stmt 1 view .LVU1350
1539:HANcoder_E407_TTA_CombineModel.c **** 
 3843              		.loc 1 1539 21 is_stmt 0 view .LVU1351
 3844 0bc6 B3F84220 		ldrh	r2, [r3, #66]
1539:HANcoder_E407_TTA_CombineModel.c **** 
 3845              		.loc 1 1539 31 view .LVU1352
 3846 0bca 93F84230 		ldrb	r3, [r3, #66]	@ zero_extendqisi2
1542:HANcoder_E407_TTA_CombineModel.c ****       }
 3847              		.loc 1 1542 9 is_stmt 1 view .LVU1353
1539:HANcoder_E407_TTA_CombineModel.c **** 
 3848              		.loc 1 1539 21 is_stmt 0 view .LVU1354
 3849 0bce 6A87     		strh	r2, [r5, #58]	@ movhi
 3850              	.L123:
1559:HANcoder_E407_TTA_CombineModel.c ****     rtDWork.Delay_DSTATE_m[1] = rtb_AND_du;
 3851              		.loc 1 1559 5 is_stmt 1 view .LVU1355
1564:HANcoder_E407_TTA_CombineModel.c ****     }
 3852              		.loc 1 1564 39 is_stmt 0 view .LVU1356
 3853 0bd0 3D49     		ldr	r1, .L456+88
1559:HANcoder_E407_TTA_CombineModel.c ****     rtDWork.Delay_DSTATE_m[1] = rtb_AND_du;
 3854              		.loc 1 1559 31 view .LVU1357
 3855 0bd2 94F87B20 		ldrb	r2, [r4, #123]	@ zero_extendqisi2
 3856 0bd6 84F87A20 		strb	r2, [r4, #122]
1560:HANcoder_E407_TTA_CombineModel.c **** 
 3857              		.loc 1 1560 5 is_stmt 1 view .LVU1358
1564:HANcoder_E407_TTA_CombineModel.c ****     }
 3858              		.loc 1 1564 39 is_stmt 0 view .LVU1359
 3859 0bda 481E     		subs	r0, r1, #1
 3860 0bdc 0822     		movs	r2, #8
1560:HANcoder_E407_TTA_CombineModel.c **** 
 3861              		.loc 1 1560 31 view .LVU1360
 3862 0bde 84F87B70 		strb	r7, [r4, #123]
1563:HANcoder_E407_TTA_CombineModel.c ****       rtDWork.Delay1_DSTATE[idxDelay] = rtDWork.Delay1_DSTATE[idxDelay + 1];
 3863              		.loc 1 1563 5 is_stmt 1 view .LVU1361
 3864              	.LVL253:
1563:HANcoder_E407_TTA_CombineModel.c ****       rtDWork.Delay1_DSTATE[idxDelay] = rtDWork.Delay1_DSTATE[idxDelay + 1];
 3865              		.loc 1 1563 24 view .LVU1362
 3866 0be2 0793     		str	r3, [sp, #28]
1564:HANcoder_E407_TTA_CombineModel.c ****     }
 3867              		.loc 1 1564 39 is_stmt 0 view .LVU1363
 3868 0be4 FFF7FEFF 		bl	memmove
 3869              	.LVL254:
1567:HANcoder_E407_TTA_CombineModel.c **** 
 3870              		.loc 1 1567 5 is_stmt 1 view .LVU1364
1573:HANcoder_E407_TTA_CombineModel.c ****     }
 3871              		.loc 1 1573 39 is_stmt 0 view .LVU1365
 3872 0be8 3849     		ldr	r1, .L456+92
1567:HANcoder_E407_TTA_CombineModel.c **** 
 3873              		.loc 1 1567 30 view .LVU1366
 3874 0bea 84F88470 		strb	r7, [r4, #132]
1572:HANcoder_E407_TTA_CombineModel.c ****       rtDWork.Delay2_DSTATE[idxDelay] = rtDWork.Delay2_DSTATE[idxDelay + 1];
 3875              		.loc 1 1572 5 is_stmt 1 view .LVU1367
 3876              	.LVL255:
1572:HANcoder_E407_TTA_CombineModel.c ****       rtDWork.Delay2_DSTATE[idxDelay] = rtDWork.Delay2_DSTATE[idxDelay + 1];
 3877              		.loc 1 1572 24 view .LVU1368
1573:HANcoder_E407_TTA_CombineModel.c ****     }
 3878              		.loc 1 1573 39 is_stmt 0 view .LVU1369
 3879 0bee 0F22     		movs	r2, #15
 3880 0bf0 481E     		subs	r0, r1, #1
 3881 0bf2 FFF7FEFF 		bl	memmove
 3882              	.LVL256:
1576:HANcoder_E407_TTA_CombineModel.c **** 
 3883              		.loc 1 1576 5 is_stmt 1 view .LVU1370
1582:HANcoder_E407_TTA_CombineModel.c ****     }
 3884              		.loc 1 1582 39 is_stmt 0 view .LVU1371
 3885 0bf6 3649     		ldr	r1, .L456+96
1576:HANcoder_E407_TTA_CombineModel.c **** 
 3886              		.loc 1 1576 31 view .LVU1372
 3887 0bf8 84F89470 		strb	r7, [r4, #148]
1581:HANcoder_E407_TTA_CombineModel.c ****       rtDWork.Delay4_DSTATE[idxDelay] = rtDWork.Delay4_DSTATE[idxDelay + 1];
 3888              		.loc 1 1581 5 is_stmt 1 view .LVU1373
 3889              	.LVL257:
1581:HANcoder_E407_TTA_CombineModel.c ****       rtDWork.Delay4_DSTATE[idxDelay] = rtDWork.Delay4_DSTATE[idxDelay + 1];
 3890              		.loc 1 1581 24 view .LVU1374
1582:HANcoder_E407_TTA_CombineModel.c ****     }
 3891              		.loc 1 1582 39 is_stmt 0 view .LVU1375
 3892 0bfc 1822     		movs	r2, #24
 3893 0bfe 481E     		subs	r0, r1, #1
 3894 0c00 FFF7FEFF 		bl	memmove
 3895              	.LVL258:
1585:HANcoder_E407_TTA_CombineModel.c **** 
 3896              		.loc 1 1585 5 is_stmt 1 view .LVU1376
1591:HANcoder_E407_TTA_CombineModel.c ****     }
 3897              		.loc 1 1591 39 is_stmt 0 view .LVU1377
 3898 0c04 3349     		ldr	r1, .L456+100
1585:HANcoder_E407_TTA_CombineModel.c **** 
 3899              		.loc 1 1585 31 view .LVU1378
 3900 0c06 84F8AD70 		strb	r7, [r4, #173]
1590:HANcoder_E407_TTA_CombineModel.c ****       rtDWork.Delay3_DSTATE[idxDelay] = rtDWork.Delay3_DSTATE[idxDelay + 1];
 3901              		.loc 1 1590 5 is_stmt 1 view .LVU1379
 3902              	.LVL259:
1590:HANcoder_E407_TTA_CombineModel.c ****       rtDWork.Delay3_DSTATE[idxDelay] = rtDWork.Delay3_DSTATE[idxDelay + 1];
 3903              		.loc 1 1590 24 view .LVU1380
1591:HANcoder_E407_TTA_CombineModel.c ****     }
 3904              		.loc 1 1591 39 is_stmt 0 view .LVU1381
 3905 0c0a 2222     		movs	r2, #34
 3906 0c0c 481E     		subs	r0, r1, #1
 3907 0c0e FFF7FEFF 		bl	memmove
 3908              	.LVL260:
1594:HANcoder_E407_TTA_CombineModel.c **** 
 3909              		.loc 1 1594 5 is_stmt 1 view .LVU1382
1603:HANcoder_E407_TTA_CombineModel.c ****     }
 3910              		.loc 1 1603 39 is_stmt 0 view .LVU1383
 3911 0c12 3149     		ldr	r1, .L456+104
1594:HANcoder_E407_TTA_CombineModel.c **** 
 3912              		.loc 1 1594 31 view .LVU1384
 3913 0c14 84F8D070 		strb	r7, [r4, #208]
1599:HANcoder_E407_TTA_CombineModel.c **** 
 3914              		.loc 1 1599 5 is_stmt 1 view .LVU1385
1603:HANcoder_E407_TTA_CombineModel.c ****     }
 3915              		.loc 1 1603 39 is_stmt 0 view .LVU1386
 3916 0c18 0922     		movs	r2, #9
 3917 0c1a 481E     		subs	r0, r1, #1
1599:HANcoder_E407_TTA_CombineModel.c **** 
 3918              		.loc 1 1599 37 view .LVU1387
 3919 0c1c 84F8FA90 		strb	r9, [r4, #250]
1602:HANcoder_E407_TTA_CombineModel.c ****       rtDWork.Delay6_DSTATE[idxDelay] = rtDWork.Delay6_DSTATE[idxDelay + 1];
 3920              		.loc 1 1602 5 is_stmt 1 view .LVU1388
 3921              	.LVL261:
1602:HANcoder_E407_TTA_CombineModel.c ****       rtDWork.Delay6_DSTATE[idxDelay] = rtDWork.Delay6_DSTATE[idxDelay + 1];
 3922              		.loc 1 1602 24 view .LVU1389
1603:HANcoder_E407_TTA_CombineModel.c ****     }
 3923              		.loc 1 1603 39 is_stmt 0 view .LVU1390
 3924 0c20 FFF7FEFF 		bl	memmove
 3925              	.LVL262:
1606:HANcoder_E407_TTA_CombineModel.c **** 
 3926              		.loc 1 1606 5 is_stmt 1 view .LVU1391
1615:HANcoder_E407_TTA_CombineModel.c ****     }
 3927              		.loc 1 1615 39 is_stmt 0 view .LVU1392
 3928 0c24 2D49     		ldr	r1, .L456+108
1606:HANcoder_E407_TTA_CombineModel.c **** 
 3929              		.loc 1 1606 30 view .LVU1393
 3930 0c26 069B     		ldr	r3, [sp, #24]
 3931 0c28 84F8DA30 		strb	r3, [r4, #218]
1611:HANcoder_E407_TTA_CombineModel.c **** 
 3932              		.loc 1 1611 5 is_stmt 1 view .LVU1394
1615:HANcoder_E407_TTA_CombineModel.c ****     }
 3933              		.loc 1 1615 39 is_stmt 0 view .LVU1395
 3934 0c2c 1822     		movs	r2, #24
 3935 0c2e 081F     		subs	r0, r1, #4
1611:HANcoder_E407_TTA_CombineModel.c **** 
 3936              		.loc 1 1611 36 view .LVU1396
 3937 0c30 84F8FBB0 		strb	fp, [r4, #251]
1614:HANcoder_E407_TTA_CombineModel.c ****       rtDWork.Delay5_DSTATE[idxDelay] = rtDWork.Delay5_DSTATE[idxDelay + 1];
 3938              		.loc 1 1614 5 is_stmt 1 view .LVU1397
 3939              	.LVL263:
1614:HANcoder_E407_TTA_CombineModel.c ****       rtDWork.Delay5_DSTATE[idxDelay] = rtDWork.Delay5_DSTATE[idxDelay + 1];
 3940              		.loc 1 1614 24 view .LVU1398
1615:HANcoder_E407_TTA_CombineModel.c ****     }
 3941              		.loc 1 1615 39 is_stmt 0 view .LVU1399
 3942 0c34 FFF7FEFF 		bl	memmove
 3943              	.LVL264:
1618:HANcoder_E407_TTA_CombineModel.c **** 
 3944              		.loc 1 1618 5 is_stmt 1 view .LVU1400
1618:HANcoder_E407_TTA_CombineModel.c **** 
 3945              		.loc 1 1618 30 is_stmt 0 view .LVU1401
 3946 0c38 059B     		ldr	r3, [sp, #20]
 3947 0c3a 2364     		str	r3, [r4, #64]
1623:HANcoder_E407_TTA_CombineModel.c ****     rtDWork.Delay7_DSTATE[1] = rtb_DataStoreRead8;
 3948              		.loc 1 1623 5 is_stmt 1 view .LVU1402
1636:HANcoder_E407_TTA_CombineModel.c ****       DigoutSet(DIGOUT_PORTE_PIN5, DIGOUT_LOW);
 3949              		.loc 1 1636 8 is_stmt 0 view .LVU1403
 3950 0c3c 079B     		ldr	r3, [sp, #28]
1623:HANcoder_E407_TTA_CombineModel.c ****     rtDWork.Delay7_DSTATE[1] = rtb_DataStoreRead8;
 3951              		.loc 1 1623 30 view .LVU1404
 3952 0c3e B4F84E20 		ldrh	r2, [r4, #78]
 3953 0c42 A4F84C20 		strh	r2, [r4, #76]	@ movhi
1624:HANcoder_E407_TTA_CombineModel.c **** 
 3954              		.loc 1 1624 5 is_stmt 1 view .LVU1405
1632:HANcoder_E407_TTA_CombineModel.c **** 
 3955              		.loc 1 1632 32 is_stmt 0 view .LVU1406
 3956 0c46 0020     		movs	r0, #0
 3957 0c48 0021     		movs	r1, #0
 3958 0c4a C4E90001 		strd	r0, [r4]
1624:HANcoder_E407_TTA_CombineModel.c **** 
 3959              		.loc 1 1624 30 view .LVU1407
 3960 0c4e A4F84E80 		strh	r8, [r4, #78]	@ movhi
1632:HANcoder_E407_TTA_CombineModel.c **** 
 3961              		.loc 1 1632 5 is_stmt 1 view .LVU1408
1636:HANcoder_E407_TTA_CombineModel.c ****       DigoutSet(DIGOUT_PORTE_PIN5, DIGOUT_LOW);
 3962              		.loc 1 1636 5 view .LVU1409
1636:HANcoder_E407_TTA_CombineModel.c ****       DigoutSet(DIGOUT_PORTE_PIN5, DIGOUT_LOW);
 3963              		.loc 1 1636 8 is_stmt 0 view .LVU1410
 3964 0c52 002B     		cmp	r3, #0
 3965 0c54 40F03D85 		bne	.L124
1637:HANcoder_E407_TTA_CombineModel.c ****     } else {
 3966              		.loc 1 1637 7 is_stmt 1 view .LVU1411
 3967 0c58 1946     		mov	r1, r3
 3968 0c5a 0A20     		movs	r0, #10
 3969 0c5c FFF7FEFF 		bl	DigoutSet
 3970              	.LVL265:
 3971              	.L125:
1644:HANcoder_E407_TTA_CombineModel.c ****       DigoutSet(DIGOUT_PORTE_PIN6, DIGOUT_LOW);
 3972              		.loc 1 1644 5 view .LVU1412
1644:HANcoder_E407_TTA_CombineModel.c ****       DigoutSet(DIGOUT_PORTE_PIN6, DIGOUT_LOW);
 3973              		.loc 1 1644 8 is_stmt 0 view .LVU1413
 3974 0c60 95F83B10 		ldrb	r1, [r5, #59]	@ zero_extendqisi2
 3975 0c64 0029     		cmp	r1, #0
 3976 0c66 41D0     		beq	.L404
1647:HANcoder_E407_TTA_CombineModel.c ****     }
 3977              		.loc 1 1647 7 is_stmt 1 view .LVU1414
 3978 0c68 0121     		movs	r1, #1
 3979 0c6a 3FE0     		b	.L457
 3980              	.L458:
 3981 0c6c AFF30080 		.align	3
 3982              	.L456:
 3983 0c70 00000000 		.word	.LANCHOR23
 3984 0c74 00000000 		.word	.LANCHOR24
 3985 0c78 00000000 		.word	.LANCHOR25
 3986 0c7c 00000000 		.word	.LANCHOR26
 3987 0c80 00000000 		.word	.LANCHOR27
 3988 0c84 00000000 		.word	.LANCHOR28
 3989 0c88 00000000 		.word	rtConstP
 3990 0c8c 00000000 		.word	.LANCHOR29
 3991 0c90 00000000 		.word	.LANCHOR30
 3992 0c94 00000000 		.word	.LANCHOR31
 3993 0c98 00000000 		.word	.LANCHOR32
 3994 0c9c 7C010000 		.word	.LANCHOR2+380
 3995 0ca0 DC000000 		.word	.LANCHOR0+220
 3996 0ca4 00000000 		.word	.LANCHOR33
 3997 0ca8 00000000 		.word	.LANCHOR34
 3998 0cac 08010000 		.word	.LANCHOR2+264
 3999 0cb0 D8000000 		.word	.LANCHOR0+216
 4000 0cb4 00000000 		.word	.LANCHOR35
 4001 0cb8 00000000 		.word	.LANCHOR36
 4002 0cbc 00000000 		.word	.LANCHOR37
 4003 0cc0 00000000 		.word	.LANCHOR1
 4004 0cc4 00000000 		.word	rtConstB
 4005 0cc8 7D000000 		.word	.LANCHOR2+125
 4006 0ccc 86000000 		.word	.LANCHOR2+134
 4007 0cd0 96000000 		.word	.LANCHOR2+150
 4008 0cd4 AF000000 		.word	.LANCHOR2+175
 4009 0cd8 D2000000 		.word	.LANCHOR2+210
 4010 0cdc 2C000000 		.word	.LANCHOR2+44
 4011 0ce0 00000000 		.word	0
 4012 0ce4 00C07240 		.word	1081262080
 4013 0ce8 00005940 		.word	1079574528
 4014              	.L457:
 4015              	.L404:
 4016 0cec 0B20     		movs	r0, #11
 4017 0cee FFF7FEFF 		bl	DigoutSet
 4018              	.LVL266:
1652:HANcoder_E407_TTA_CombineModel.c ****       DigoutSet(DIGOUT_PORTC_PIN13, DIGOUT_LOW);
 4019              		.loc 1 1652 5 view .LVU1415
1652:HANcoder_E407_TTA_CombineModel.c ****       DigoutSet(DIGOUT_PORTC_PIN13, DIGOUT_LOW);
 4020              		.loc 1 1652 8 is_stmt 0 view .LVU1416
 4021 0cf2 95F83910 		ldrb	r1, [r5, #57]	@ zero_extendqisi2
 4022 0cf6 01B1     		cbz	r1, .L405
1655:HANcoder_E407_TTA_CombineModel.c ****     }
 4023              		.loc 1 1655 7 is_stmt 1 view .LVU1417
 4024 0cf8 0121     		movs	r1, #1
 4025              	.L405:
 4026 0cfa 4720     		movs	r0, #71
 4027 0cfc FFF7FEFF 		bl	DigoutSet
 4028              	.LVL267:
1660:HANcoder_E407_TTA_CombineModel.c ****   }
 4029              		.loc 1 1660 5 view .LVU1418
 4030 0d00 2988     		ldrh	r1, [r5]
 4031 0d02 1020     		movs	r0, #16
 4032 0d04 FFF7FEFF 		bl	PwmoutSet
 4033              	.LVL268:
 996:HANcoder_E407_TTA_CombineModel.c **** 
 4034              		.loc 1 996 11 is_stmt 0 view .LVU1419
 4035 0d08 0123     		movs	r3, #1
1666:HANcoder_E407_TTA_CombineModel.c **** 
 4036              		.loc 1 1666 3 is_stmt 1 view .LVU1420
1666:HANcoder_E407_TTA_CombineModel.c **** 
 4037              		.loc 1 1666 41 is_stmt 0 view .LVU1421
 4038 0d0a 8AF80B30 		strb	r3, [r10, #11]
1677:HANcoder_E407_TTA_CombineModel.c ****     rtDWork.Messageselector_MODE = true;
 4039              		.loc 1 1677 3 is_stmt 1 view .LVU1422
1677:HANcoder_E407_TTA_CombineModel.c ****     rtDWork.Messageselector_MODE = true;
 4040              		.loc 1 1677 6 is_stmt 0 view .LVU1423
 4041 0d0e 3378     		ldrb	r3, [r6]	@ zero_extendqisi2
1691:HANcoder_E407_TTA_CombineModel.c **** 
 4042              		.loc 1 1691 24 view .LVU1424
 4043 0d10 94F8DEB0 		ldrb	fp, [r4, #222]	@ zero_extendqisi2
 4044              	.LVL269:
1677:HANcoder_E407_TTA_CombineModel.c ****     rtDWork.Messageselector_MODE = true;
 4045              		.loc 1 1677 6 view .LVU1425
 4046 0d14 002B     		cmp	r3, #0
 4047 0d16 7FF4CEA9 		bne	.L432
 4048              	.LVL270:
 4049              	.L130:
3323:HANcoder_E407_TTA_CombineModel.c ****     /* Disable for Enabled SubSystem: '<S10>/MMBS1_RX' */
 4050              		.loc 1 3323 10 is_stmt 1 view .LVU1426
3323:HANcoder_E407_TTA_CombineModel.c ****     /* Disable for Enabled SubSystem: '<S10>/MMBS1_RX' */
 4051              		.loc 1 3323 13 is_stmt 0 view .LVU1427
 4052 0d1a 94F8FD20 		ldrb	r2, [r4, #253]	@ zero_extendqisi2
 4053 0d1e 002A     		cmp	r2, #0
 4054 0d20 3FF4A6AB 		beq	.L186
3325:HANcoder_E407_TTA_CombineModel.c ****       rtDWork.MMBS1_RX_MODE = false;
 4055              		.loc 1 3325 5 is_stmt 1 view .LVU1428
3325:HANcoder_E407_TTA_CombineModel.c ****       rtDWork.MMBS1_RX_MODE = false;
 4056              		.loc 1 3325 8 is_stmt 0 view .LVU1429
 4057 0d24 94F80521 		ldrb	r2, [r4, #261]	@ zero_extendqisi2
 4058 0d28 0AB1     		cbz	r2, .L187
3326:HANcoder_E407_TTA_CombineModel.c ****     }
 4059              		.loc 1 3326 7 is_stmt 1 view .LVU1430
3326:HANcoder_E407_TTA_CombineModel.c ****     }
 4060              		.loc 1 3326 29 is_stmt 0 view .LVU1431
 4061 0d2a 84F80531 		strb	r3, [r4, #261]
 4062              	.L187:
3331:HANcoder_E407_TTA_CombineModel.c ****       rtDWork.SSTM1_RX_MODE = false;
 4063              		.loc 1 3331 5 is_stmt 1 view .LVU1432
3331:HANcoder_E407_TTA_CombineModel.c ****       rtDWork.SSTM1_RX_MODE = false;
 4064              		.loc 1 3331 8 is_stmt 0 view .LVU1433
 4065 0d2e 94F80431 		ldrb	r3, [r4, #260]	@ zero_extendqisi2
 4066 0d32 13B1     		cbz	r3, .L188
3332:HANcoder_E407_TTA_CombineModel.c ****     }
 4067              		.loc 1 3332 7 is_stmt 1 view .LVU1434
3332:HANcoder_E407_TTA_CombineModel.c ****     }
 4068              		.loc 1 3332 29 is_stmt 0 view .LVU1435
 4069 0d34 0023     		movs	r3, #0
 4070 0d36 84F80431 		strb	r3, [r4, #260]
 4071              	.L188:
3337:HANcoder_E407_TTA_CombineModel.c ****       rtDWork.SYNC1_RX_MODE = false;
 4072              		.loc 1 3337 5 is_stmt 1 view .LVU1436
3337:HANcoder_E407_TTA_CombineModel.c ****       rtDWork.SYNC1_RX_MODE = false;
 4073              		.loc 1 3337 8 is_stmt 0 view .LVU1437
 4074 0d3a 94F80331 		ldrb	r3, [r4, #259]	@ zero_extendqisi2
 4075 0d3e 13B1     		cbz	r3, .L189
3338:HANcoder_E407_TTA_CombineModel.c ****     }
 4076              		.loc 1 3338 7 is_stmt 1 view .LVU1438
3338:HANcoder_E407_TTA_CombineModel.c ****     }
 4077              		.loc 1 3338 29 is_stmt 0 view .LVU1439
 4078 0d40 0023     		movs	r3, #0
 4079 0d42 84F80331 		strb	r3, [r4, #259]
 4080              	.L189:
3343:HANcoder_E407_TTA_CombineModel.c ****       rtDWork.TRCK1_ID2_RX_MODE = false;
 4081              		.loc 1 3343 5 is_stmt 1 view .LVU1440
3343:HANcoder_E407_TTA_CombineModel.c ****       rtDWork.TRCK1_ID2_RX_MODE = false;
 4082              		.loc 1 3343 8 is_stmt 0 view .LVU1441
 4083 0d46 94F80231 		ldrb	r3, [r4, #258]	@ zero_extendqisi2
 4084 0d4a 13B1     		cbz	r3, .L190
3344:HANcoder_E407_TTA_CombineModel.c ****     }
 4085              		.loc 1 3344 7 is_stmt 1 view .LVU1442
3344:HANcoder_E407_TTA_CombineModel.c ****     }
 4086              		.loc 1 3344 33 is_stmt 0 view .LVU1443
 4087 0d4c 0023     		movs	r3, #0
 4088 0d4e 84F80231 		strb	r3, [r4, #258]
 4089              	.L190:
3349:HANcoder_E407_TTA_CombineModel.c ****       rtDWork.TRCK1_RX_MODE = false;
 4090              		.loc 1 3349 5 is_stmt 1 view .LVU1444
3349:HANcoder_E407_TTA_CombineModel.c ****       rtDWork.TRCK1_RX_MODE = false;
 4091              		.loc 1 3349 8 is_stmt 0 view .LVU1445
 4092 0d52 94F80131 		ldrb	r3, [r4, #257]	@ zero_extendqisi2
 4093 0d56 13B1     		cbz	r3, .L191
3350:HANcoder_E407_TTA_CombineModel.c ****     }
 4094              		.loc 1 3350 7 is_stmt 1 view .LVU1446
3350:HANcoder_E407_TTA_CombineModel.c ****     }
 4095              		.loc 1 3350 29 is_stmt 0 view .LVU1447
 4096 0d58 0023     		movs	r3, #0
 4097 0d5a 84F80131 		strb	r3, [r4, #257]
 4098              	.L191:
3355:HANcoder_E407_TTA_CombineModel.c ****       rtDWork.TRCK_ID3_RX_MODE = false;
 4099              		.loc 1 3355 5 is_stmt 1 view .LVU1448
3355:HANcoder_E407_TTA_CombineModel.c ****       rtDWork.TRCK_ID3_RX_MODE = false;
 4100              		.loc 1 3355 8 is_stmt 0 view .LVU1449
 4101 0d5e 94F80031 		ldrb	r3, [r4, #256]	@ zero_extendqisi2
 4102 0d62 13B1     		cbz	r3, .L192
3356:HANcoder_E407_TTA_CombineModel.c ****     }
 4103              		.loc 1 3356 7 is_stmt 1 view .LVU1450
3356:HANcoder_E407_TTA_CombineModel.c ****     }
 4104              		.loc 1 3356 32 is_stmt 0 view .LVU1451
 4105 0d64 0023     		movs	r3, #0
 4106 0d66 84F80031 		strb	r3, [r4, #256]
 4107              	.L192:
3362:HANcoder_E407_TTA_CombineModel.c ****       rtDWork.TRLS_ID4_RX_MODE = false;
 4108              		.loc 1 3362 5 is_stmt 1 view .LVU1452
3362:HANcoder_E407_TTA_CombineModel.c ****       rtDWork.TRLS_ID4_RX_MODE = false;
 4109              		.loc 1 3362 8 is_stmt 0 view .LVU1453
 4110 0d6a 94F8FF30 		ldrb	r3, [r4, #255]	@ zero_extendqisi2
 4111 0d6e 13B1     		cbz	r3, .L193
3363:HANcoder_E407_TTA_CombineModel.c ****     }
 4112              		.loc 1 3363 7 is_stmt 1 view .LVU1454
3363:HANcoder_E407_TTA_CombineModel.c ****     }
 4113              		.loc 1 3363 32 is_stmt 0 view .LVU1455
 4114 0d70 0023     		movs	r3, #0
 4115 0d72 84F8FF30 		strb	r3, [r4, #255]
 4116              	.L193:
3368:HANcoder_E407_TTA_CombineModel.c ****       rtDWork.TRLS_ID5_RX_MODE = false;
 4117              		.loc 1 3368 5 is_stmt 1 view .LVU1456
3368:HANcoder_E407_TTA_CombineModel.c ****       rtDWork.TRLS_ID5_RX_MODE = false;
 4118              		.loc 1 3368 8 is_stmt 0 view .LVU1457
 4119 0d76 94F8FE30 		ldrb	r3, [r4, #254]	@ zero_extendqisi2
 4120 0d7a 13B1     		cbz	r3, .L194
3369:HANcoder_E407_TTA_CombineModel.c ****     }
 4121              		.loc 1 3369 7 is_stmt 1 view .LVU1458
3369:HANcoder_E407_TTA_CombineModel.c ****     }
 4122              		.loc 1 3369 32 is_stmt 0 view .LVU1459
 4123 0d7c 0023     		movs	r3, #0
 4124 0d7e 84F8FE30 		strb	r3, [r4, #254]
 4125              	.L194:
3373:HANcoder_E407_TTA_CombineModel.c ****   }
 4126              		.loc 1 3373 5 is_stmt 1 view .LVU1460
3373:HANcoder_E407_TTA_CombineModel.c ****   }
 4127              		.loc 1 3373 34 is_stmt 0 view .LVU1461
 4128 0d82 0023     		movs	r3, #0
 4129 0d84 84F8FD30 		strb	r3, [r4, #253]
 4130 0d88 FFF772BB 		b	.L186
 4131              	.L215:
3658:HANcoder_E407_TTA_CombineModel.c ****     } while (errCodesNumErrors > 0);
 4132              		.loc 1 3658 7 is_stmt 1 view .LVU1462
3658:HANcoder_E407_TTA_CombineModel.c ****     } while (errCodesNumErrors > 0);
 4133              		.loc 1 3658 17 is_stmt 0 view .LVU1463
 4134 0d8c 2B78     		ldrb	r3, [r5]	@ zero_extendqisi2
3660:HANcoder_E407_TTA_CombineModel.c **** 
3661:HANcoder_E407_TTA_CombineModel.c ****     /* set the number of errors */
3662:HANcoder_E407_TTA_CombineModel.c ****     errors = errCodesTotalErrors;
 4135              		.loc 1 3662 12 view .LVU1464
 4136 0d8e B84A     		ldr	r2, .L459
 4137 0d90 99F80010 		ldrb	r1, [r9]	@ zero_extendqisi2
 4138 0d94 1170     		strb	r1, [r2]
3658:HANcoder_E407_TTA_CombineModel.c ****     } while (errCodesNumErrors > 0);
 4139              		.loc 1 3658 17 view .LVU1465
 4140 0d96 0833     		adds	r3, r3, #8
 4141 0d98 2B70     		strb	r3, [r5]
3659:HANcoder_E407_TTA_CombineModel.c **** 
 4142              		.loc 1 3659 13 is_stmt 1 view .LVU1466
 4143              		.loc 1 3662 5 view .LVU1467
3663:HANcoder_E407_TTA_CombineModel.c **** 
3664:HANcoder_E407_TTA_CombineModel.c ****     /* set the highest severity if needed */
3665:HANcoder_E407_TTA_CombineModel.c ****     rtb_Level2MfileSFunction_o2 = errCodesHighestSeverity;
 4144              		.loc 1 3665 5 view .LVU1468
 4145              	.LVL271:
3666:HANcoder_E407_TTA_CombineModel.c ****   }
3667:HANcoder_E407_TTA_CombineModel.c **** 
3668:HANcoder_E407_TTA_CombineModel.c ****   /* M-S-Function: '<S376>/Level-2 M-file S-Function' */
3669:HANcoder_E407_TTA_CombineModel.c ****   /* read the current CPU load */
3670:HANcoder_E407_TTA_CombineModel.c ****   SI_CPUload = OsGetCpuLoad();
 4146              		.loc 1 3670 3 view .LVU1469
 4147              		.loc 1 3670 16 is_stmt 0 view .LVU1470
 4148 0d9a FFF7FEFF 		bl	OsGetCpuLoad
 4149              	.LVL272:
 4150              		.loc 1 3670 14 view .LVU1471
 4151 0d9e B54B     		ldr	r3, .L459+4
 4152 0da0 1870     		strb	r0, [r3]
3671:HANcoder_E407_TTA_CombineModel.c **** 
3672:HANcoder_E407_TTA_CombineModel.c ****   /* M-S-Function: '<S377>/Level-2 M-file S-Function' */
3673:HANcoder_E407_TTA_CombineModel.c ****   /* read the free heap size */
3674:HANcoder_E407_TTA_CombineModel.c ****   SI_FreeHeap = OsGetFreeHeapSize();
 4153              		.loc 1 3674 3 is_stmt 1 view .LVU1472
 4154              		.loc 1 3674 17 is_stmt 0 view .LVU1473
 4155 0da2 FFF7FEFF 		bl	OsGetFreeHeapSize
 4156              	.LVL273:
 4157              		.loc 1 3674 15 view .LVU1474
 4158 0da6 B44B     		ldr	r3, .L459+8
 4159              		.loc 1 3674 17 view .LVU1475
 4160 0da8 0246     		mov	r2, r0
3675:HANcoder_E407_TTA_CombineModel.c **** 
3676:HANcoder_E407_TTA_CombineModel.c ****   /* M-S-Function: '<S378>/Level-2 M-file S-Function' */
3677:HANcoder_E407_TTA_CombineModel.c ****   /* read the task's free stack size */
3678:HANcoder_E407_TTA_CombineModel.c ****   SI_FreeStack = OsGetTaskFreeStackSize("AppCtrlTask");
 4161              		.loc 1 3678 18 view .LVU1476
 4162 0daa B448     		ldr	r0, .L459+12
3674:HANcoder_E407_TTA_CombineModel.c **** 
 4163              		.loc 1 3674 15 view .LVU1477
 4164 0dac 1A60     		str	r2, [r3]
 4165              		.loc 1 3678 3 is_stmt 1 view .LVU1478
 4166              		.loc 1 3678 18 is_stmt 0 view .LVU1479
 4167 0dae FFF7FEFF 		bl	OsGetTaskFreeStackSize
 4168              	.LVL274:
 4169              		.loc 1 3678 16 view .LVU1480
 4170 0db2 B34B     		ldr	r3, .L459+16
 4171 0db4 1860     		str	r0, [r3]
3679:HANcoder_E407_TTA_CombineModel.c **** }
 4172              		.loc 1 3679 1 view .LVU1481
 4173 0db6 09B0     		add	sp, sp, #36
 4174              		.cfi_remember_state
 4175              		.cfi_def_cfa_offset 68
 4176              		@ sp needed
 4177 0db8 BDEC088B 		vldm	sp!, {d8-d11}
 4178              		.cfi_restore 86
 4179              		.cfi_restore 87
 4180              		.cfi_restore 84
 4181              		.cfi_restore 85
 4182              		.cfi_restore 82
 4183              		.cfi_restore 83
 4184              		.cfi_restore 80
 4185              		.cfi_restore 81
 4186              		.cfi_def_cfa_offset 36
 4187 0dbc BDE8F08F 		pop	{r4, r5, r6, r7, r8, r9, r10, fp, pc}
 4188              	.L424:
 4189              		.cfi_restore_state
3467:HANcoder_E407_TTA_CombineModel.c ****   }
 4190              		.loc 1 3467 5 is_stmt 1 view .LVU1482
3467:HANcoder_E407_TTA_CombineModel.c ****   }
 4191              		.loc 1 3467 29 is_stmt 0 view .LVU1483
 4192 0dc0 0023     		movs	r3, #0
3478:HANcoder_E407_TTA_CombineModel.c ****     rtAction = 0;
 4193              		.loc 1 3478 6 view .LVU1484
 4194 0dc2 BBF1030F 		cmp	fp, #3
3467:HANcoder_E407_TTA_CombineModel.c ****   }
 4195              		.loc 1 3467 29 view .LVU1485
 4196 0dc6 84F8FC30 		strb	r3, [r4, #252]
3476:HANcoder_E407_TTA_CombineModel.c ****   rtAction = -1;
 4197              		.loc 1 3476 3 is_stmt 1 view .LVU1486
 4198              	.LVL275:
3477:HANcoder_E407_TTA_CombineModel.c ****   if (rtDWork.Board_ID <= 3) {
 4199              		.loc 1 3477 3 view .LVU1487
3478:HANcoder_E407_TTA_CombineModel.c ****     rtAction = 0;
 4200              		.loc 1 3478 3 view .LVU1488
3478:HANcoder_E407_TTA_CombineModel.c ****     rtAction = 0;
 4201              		.loc 1 3478 6 is_stmt 0 view .LVU1489
 4202 0dca 3FF672AB 		bhi	.L200
 4203              	.L425:
3479:HANcoder_E407_TTA_CombineModel.c ****   }
 4204              		.loc 1 3479 5 is_stmt 1 view .LVU1490
 4205              	.LVL276:
3482:HANcoder_E407_TTA_CombineModel.c ****   if ((rtPrevAction != rtAction) && (rtPrevAction == 0)) {
 4206              		.loc 1 3482 3 view .LVU1491
3514:HANcoder_E407_TTA_CombineModel.c **** 
 4207              		.loc 1 3514 22 is_stmt 0 view .LVU1492
 4208 0dce 94F8E330 		ldrb	r3, [r4, #227]	@ zero_extendqisi2
 4209 0dd2 94F8E420 		ldrb	r2, [r4, #228]	@ zero_extendqisi2
3514:HANcoder_E407_TTA_CombineModel.c **** 
 4210              		.loc 1 3514 20 view .LVU1493
 4211 0dd6 AB49     		ldr	r1, .L459+20
3514:HANcoder_E407_TTA_CombineModel.c **** 
 4212              		.loc 1 3514 22 view .LVU1494
 4213 0dd8 012B     		cmp	r3, #1
 4214 0dda 28BF     		it	cs
 4215 0ddc 0123     		movcs	r3, #1
 4216 0dde 012A     		cmp	r2, #1
 4217 0de0 94BF     		ite	ls
 4218 0de2 9B18     		addls	r3, r3, r2
 4219 0de4 0133     		addhi	r3, r3, #1
 4220 0de6 DBB2     		uxtb	r3, r3
3482:HANcoder_E407_TTA_CombineModel.c ****   if ((rtPrevAction != rtAction) && (rtPrevAction == 0)) {
 4221              		.loc 1 3482 30 view .LVU1495
 4222 0de8 0022     		movs	r2, #0
3521:HANcoder_E407_TTA_CombineModel.c **** 
 4223              		.loc 1 3521 34 view .LVU1496
 4224 0dea 4720     		movs	r0, #71
3514:HANcoder_E407_TTA_CombineModel.c **** 
 4225              		.loc 1 3514 20 view .LVU1497
 4226 0dec 0B70     		strb	r3, [r1]
3482:HANcoder_E407_TTA_CombineModel.c ****   if ((rtPrevAction != rtAction) && (rtPrevAction == 0)) {
 4227              		.loc 1 3482 30 view .LVU1498
 4228 0dee 84F8DC20 		strb	r2, [r4, #220]
 4229              	.LVL277:
3483:HANcoder_E407_TTA_CombineModel.c ****   }
 4230              		.loc 1 3483 3 is_stmt 1 view .LVU1499
3484:HANcoder_E407_TTA_CombineModel.c **** 
 4231              		.loc 1 3484 3 view .LVU1500
3486:HANcoder_E407_TTA_CombineModel.c ****     /* Outputs for IfAction SubSystem: '<S1>/Triggered Subsystem' incorporates:
 4232              		.loc 1 3486 3 view .LVU1501
3491:HANcoder_E407_TTA_CombineModel.c **** 
 4233              		.loc 1 3491 5 view .LVU1502
3494:HANcoder_E407_TTA_CombineModel.c **** 
 4234              		.loc 1 3494 5 view .LVU1503
3499:HANcoder_E407_TTA_CombineModel.c ****       rtb_Multiply = rtDWork.PositionID4;
 4235              		.loc 1 3499 5 view .LVU1504
3506:HANcoder_E407_TTA_CombineModel.c ****       rtb_Multiply1 = rtDWork.PositionID5;
 4236              		.loc 1 3506 5 view .LVU1505
3514:HANcoder_E407_TTA_CombineModel.c **** 
 4237              		.loc 1 3514 5 view .LVU1506
3517:HANcoder_E407_TTA_CombineModel.c **** 
 4238              		.loc 1 3517 5 view .LVU1507
3517:HANcoder_E407_TTA_CombineModel.c **** 
 4239              		.loc 1 3517 30 is_stmt 0 view .LVU1508
 4240 0df2 84F8E830 		strb	r3, [r4, #232]
3521:HANcoder_E407_TTA_CombineModel.c **** 
 4241              		.loc 1 3521 5 is_stmt 1 view .LVU1509
3521:HANcoder_E407_TTA_CombineModel.c **** 
 4242              		.loc 1 3521 34 is_stmt 0 view .LVU1510
 4243 0df6 FFF7FEFF 		bl	DiginGet
 4244              	.LVL278:
3526:HANcoder_E407_TTA_CombineModel.c ****       /* CombinatorialLogic: '<S386>/Logic' incorporates:
 4245              		.loc 1 3526 5 is_stmt 1 view .LVU1511
3526:HANcoder_E407_TTA_CombineModel.c ****       /* CombinatorialLogic: '<S386>/Logic' incorporates:
 4246              		.loc 1 3526 8 is_stmt 0 view .LVU1512
 4247 0dfa 0028     		cmp	r0, #0
 4248 0dfc 00F0BE80 		beq	.L433
3534:HANcoder_E407_TTA_CombineModel.c ****         << 1) + (uint32_T)(ResetPosition != 0.0)) << 1) +
 4249              		.loc 1 3534 7 is_stmt 1 view .LVU1513
3535:HANcoder_E407_TTA_CombineModel.c ****         rtDWork.Memory_PreviousInput_g];
 4250              		.loc 1 3535 9 is_stmt 0 view .LVU1514
 4251 0e00 94F8E530 		ldrb	r3, [r4, #229]	@ zero_extendqisi2
3535:HANcoder_E407_TTA_CombineModel.c ****         rtDWork.Memory_PreviousInput_g];
 4252              		.loc 1 3535 17 view .LVU1515
 4253 0e04 A049     		ldr	r1, .L459+24
3535:HANcoder_E407_TTA_CombineModel.c ****         rtDWork.Memory_PreviousInput_g];
 4254              		.loc 1 3535 9 view .LVU1516
 4255 0e06 002B     		cmp	r3, #0
3535:HANcoder_E407_TTA_CombineModel.c ****         rtDWork.Memory_PreviousInput_g];
 4256              		.loc 1 3535 17 view .LVU1517
 4257 0e08 D1E90001 		ldrd	r0, [r1]
 4258              	.LVL279:
3535:HANcoder_E407_TTA_CombineModel.c ****         rtDWork.Memory_PreviousInput_g];
 4259              		.loc 1 3535 17 view .LVU1518
 4260 0e0c 4FF00002 		mov	r2, #0
 4261 0e10 4FF00003 		mov	r3, #0
3535:HANcoder_E407_TTA_CombineModel.c ****         rtDWork.Memory_PreviousInput_g];
 4262              		.loc 1 3535 9 view .LVU1519
 4263 0e14 14BF     		ite	ne
 4264 0e16 0226     		movne	r6, #2
 4265 0e18 0026     		moveq	r6, #0
3535:HANcoder_E407_TTA_CombineModel.c ****         rtDWork.Memory_PreviousInput_g];
 4266              		.loc 1 3535 17 view .LVU1520
 4267 0e1a FFF7FEFF 		bl	__aeabi_dcmpeq
 4268              	.LVL280:
 4269 0e1e B0FA80F0 		clz	r0, r0
 4270 0e22 4009     		lsrs	r0, r0, #5
3534:HANcoder_E407_TTA_CombineModel.c ****         << 1) + (uint32_T)(ResetPosition != 0.0)) << 1) +
 4271              		.loc 1 3534 15 view .LVU1521
 4272 0e24 9949     		ldr	r1, .L459+28
3536:HANcoder_E407_TTA_CombineModel.c **** 
 4273              		.loc 1 3536 16 view .LVU1522
 4274 0e26 94F8F820 		ldrb	r2, [r4, #248]	@ zero_extendqisi2
3535:HANcoder_E407_TTA_CombineModel.c ****         rtDWork.Memory_PreviousInput_g];
 4275              		.loc 1 3535 15 view .LVU1523
 4276 0e2a 8319     		adds	r3, r0, r6
3534:HANcoder_E407_TTA_CombineModel.c ****         << 1) + (uint32_T)(ResetPosition != 0.0)) << 1) +
 4277              		.loc 1 3534 15 view .LVU1524
 4278 0e2c 01EB4303 		add	r3, r1, r3, lsl #1
3535:HANcoder_E407_TTA_CombineModel.c ****         rtDWork.Memory_PreviousInput_g];
 4279              		.loc 1 3535 17 view .LVU1525
 4280 0e30 0746     		mov	r7, r0
3534:HANcoder_E407_TTA_CombineModel.c ****         << 1) + (uint32_T)(ResetPosition != 0.0)) << 1) +
 4281              		.loc 1 3534 15 view .LVU1526
 4282 0e32 9E5C     		ldrb	r6, [r3, r2]	@ zero_extendqisi2
 4283              	.LVL281:
3541:HANcoder_E407_TTA_CombineModel.c ****         /* Outputs for IfAction SubSystem: '<S380>/If Action Subsystem' incorporates:
 4284              		.loc 1 3541 7 is_stmt 1 view .LVU1527
3541:HANcoder_E407_TTA_CombineModel.c ****         /* Outputs for IfAction SubSystem: '<S380>/If Action Subsystem' incorporates:
 4285              		.loc 1 3541 10 is_stmt 0 view .LVU1528
 4286 0e34 94F8E430 		ldrb	r3, [r4, #228]	@ zero_extendqisi2
 4287 0e38 012B     		cmp	r3, #1
 4288 0e3a 00F03D86 		beq	.L434
3554:HANcoder_E407_TTA_CombineModel.c **** 
 4289              		.loc 1 3554 9 is_stmt 1 view .LVU1529
3554:HANcoder_E407_TTA_CombineModel.c **** 
 4290              		.loc 1 3554 20 is_stmt 0 view .LVU1530
 4291 0e3e 002E     		cmp	r6, #0
 4292 0e40 40F05D86 		bne	.L296
 4293 0e44 3246     		mov	r2, r6
 4294 0e46 3346     		mov	r3, r6
 4295              	.L209:
3554:HANcoder_E407_TTA_CombineModel.c **** 
 4296              		.loc 1 3554 18 discriminator 4 view .LVU1531
 4297 0e48 85F83120 		strb	r2, [r5, #49]
3565:HANcoder_E407_TTA_CombineModel.c **** 
 4298              		.loc 1 3565 30 discriminator 4 view .LVU1532
 4299 0e4c 95F83520 		ldrb	r2, [r5, #53]	@ zero_extendqisi2
3565:HANcoder_E407_TTA_CombineModel.c **** 
 4300              		.loc 1 3565 51 discriminator 4 view .LVU1533
 4301 0e50 5200     		lsls	r2, r2, #1
 4302              	.L208:
3565:HANcoder_E407_TTA_CombineModel.c **** 
 4303              		.loc 1 3565 7 is_stmt 1 view .LVU1534
3565:HANcoder_E407_TTA_CombineModel.c **** 
 4304              		.loc 1 3565 57 is_stmt 0 view .LVU1535
 4305 0e52 1A44     		add	r2, r2, r3
3575:HANcoder_E407_TTA_CombineModel.c ****         rtDWork.Memory_PreviousInput_d];
 4306              		.loc 1 3575 9 view .LVU1536
 4307 0e54 94F8E630 		ldrb	r3, [r4, #230]	@ zero_extendqisi2
3565:HANcoder_E407_TTA_CombineModel.c **** 
 4308              		.loc 1 3565 18 view .LVU1537
 4309 0e58 C2F34702 		ubfx	r2, r2, #1, #8
3565:HANcoder_E407_TTA_CombineModel.c **** 
 4310              		.loc 1 3565 16 view .LVU1538
 4311 0e5c 85F83320 		strb	r2, [r5, #51]
3574:HANcoder_E407_TTA_CombineModel.c ****         << 1) + (uint32_T)(ResetPosition != 0.0)) << 1) +
 4312              		.loc 1 3574 7 is_stmt 1 view .LVU1539
3575:HANcoder_E407_TTA_CombineModel.c ****         rtDWork.Memory_PreviousInput_d];
 4313              		.loc 1 3575 9 is_stmt 0 view .LVU1540
 4314 0e60 03B1     		cbz	r3, .L210
3575:HANcoder_E407_TTA_CombineModel.c ****         rtDWork.Memory_PreviousInput_d];
 4315              		.loc 1 3575 15 view .LVU1541
 4316 0e62 871C     		adds	r7, r0, #2
 4317              	.L210:
3576:HANcoder_E407_TTA_CombineModel.c **** 
 4318              		.loc 1 3576 16 discriminator 4 view .LVU1542
 4319 0e64 94F8F930 		ldrb	r3, [r4, #249]	@ zero_extendqisi2
3574:HANcoder_E407_TTA_CombineModel.c ****         << 1) + (uint32_T)(ResetPosition != 0.0)) << 1) +
 4320              		.loc 1 3574 15 discriminator 4 view .LVU1543
 4321 0e68 01EB4701 		add	r1, r1, r7, lsl #1
 4322 0e6c C95C     		ldrb	r1, [r1, r3]	@ zero_extendqisi2
 4323              	.LVL282:
3581:HANcoder_E407_TTA_CombineModel.c ****         /* Outputs for IfAction SubSystem: '<S380>/If Action Subsystem2' incorporates:
 4324              		.loc 1 3581 7 is_stmt 1 discriminator 4 view .LVU1544
3581:HANcoder_E407_TTA_CombineModel.c ****         /* Outputs for IfAction SubSystem: '<S380>/If Action Subsystem2' incorporates:
 4325              		.loc 1 3581 10 is_stmt 0 discriminator 4 view .LVU1545
 4326 0e6e 94F8E330 		ldrb	r3, [r4, #227]	@ zero_extendqisi2
 4327 0e72 012B     		cmp	r3, #1
 4328 0e74 00F04B86 		beq	.L435
3594:HANcoder_E407_TTA_CombineModel.c **** 
 4329              		.loc 1 3594 9 is_stmt 1 view .LVU1546
3594:HANcoder_E407_TTA_CombineModel.c **** 
 4330              		.loc 1 3594 22 is_stmt 0 view .LVU1547
 4331 0e78 0029     		cmp	r1, #0
 4332 0e7a 40F04486 		bne	.L298
 4333 0e7e 0B46     		mov	r3, r1
 4334 0e80 0846     		mov	r0, r1
 4335              	.L214:
3594:HANcoder_E407_TTA_CombineModel.c **** 
 4336              		.loc 1 3594 20 discriminator 4 view .LVU1548
 4337 0e82 85F83230 		strb	r3, [r5, #50]
3605:HANcoder_E407_TTA_CombineModel.c **** 
 4338              		.loc 1 3605 30 discriminator 4 view .LVU1549
 4339 0e86 95F83630 		ldrb	r3, [r5, #54]	@ zero_extendqisi2
3605:HANcoder_E407_TTA_CombineModel.c **** 
 4340              		.loc 1 3605 51 discriminator 4 view .LVU1550
 4341 0e8a 5B00     		lsls	r3, r3, #1
 4342              	.L213:
3605:HANcoder_E407_TTA_CombineModel.c **** 
 4343              		.loc 1 3605 7 is_stmt 1 view .LVU1551
3605:HANcoder_E407_TTA_CombineModel.c **** 
 4344              		.loc 1 3605 57 is_stmt 0 view .LVU1552
 4345 0e8c 0344     		add	r3, r3, r0
3605:HANcoder_E407_TTA_CombineModel.c **** 
 4346              		.loc 1 3605 18 view .LVU1553
 4347 0e8e C3F34703 		ubfx	r3, r3, #1, #8
3608:HANcoder_E407_TTA_CombineModel.c **** 
 4348              		.loc 1 3608 38 view .LVU1554
 4349 0e92 84F8F860 		strb	r6, [r4, #248]
3605:HANcoder_E407_TTA_CombineModel.c **** 
 4350              		.loc 1 3605 16 view .LVU1555
 4351 0e96 85F83430 		strb	r3, [r5, #52]
3608:HANcoder_E407_TTA_CombineModel.c **** 
 4352              		.loc 1 3608 7 is_stmt 1 view .LVU1556
3611:HANcoder_E407_TTA_CombineModel.c ****     }
 4353              		.loc 1 3611 7 view .LVU1557
3611:HANcoder_E407_TTA_CombineModel.c ****     }
 4354              		.loc 1 3611 38 is_stmt 0 view .LVU1558
 4355 0e9a 84F8F910 		strb	r1, [r4, #249]
 4356 0e9e 71E0     		b	.L202
 4357              	.LVL283:
 4358              	.L415:
 912:HANcoder_E407_TTA_CombineModel.c ****   }
 4359              		.loc 1 912 5 is_stmt 1 view .LVU1559
 912:HANcoder_E407_TTA_CombineModel.c ****   }
 4360              		.loc 1 912 42 is_stmt 0 view .LVU1560
 4361 0ea0 029B     		ldr	r3, [sp, #8]
 4362 0ea2 84F80631 		strb	r3, [r4, #262]
 921:HANcoder_E407_TTA_CombineModel.c ****   rtAction = -1;
 4363              		.loc 1 921 3 is_stmt 1 view .LVU1561
 4364              	.LVL284:
 922:HANcoder_E407_TTA_CombineModel.c ****   if (rtDWork.Board_ID == 0) {
 4365              		.loc 1 922 3 view .LVU1562
 923:HANcoder_E407_TTA_CombineModel.c ****     rtAction = 0;
 4366              		.loc 1 923 3 view .LVU1563
 923:HANcoder_E407_TTA_CombineModel.c ****     rtAction = 0;
 4367              		.loc 1 923 6 is_stmt 0 view .LVU1564
 4368 0ea6 94F8DE30 		ldrb	r3, [r4, #222]	@ zero_extendqisi2
 4369 0eaa 002B     		cmp	r3, #0
 4370 0eac 7FF4C3A8 		bne	.L436
 4371              	.L79:
 924:HANcoder_E407_TTA_CombineModel.c ****   }
 4372              		.loc 1 924 5 is_stmt 1 view .LVU1565
 4373              	.LVL285:
 927:HANcoder_E407_TTA_CombineModel.c ****   if ((rtPrevAction != rtAction) && (rtPrevAction == 0)) {
 4374              		.loc 1 927 3 view .LVU1566
 937:HANcoder_E407_TTA_CombineModel.c **** 
 4375              		.loc 1 937 34 is_stmt 0 view .LVU1567
 4376 0eb0 0E20     		movs	r0, #14
 927:HANcoder_E407_TTA_CombineModel.c ****   if ((rtPrevAction != rtAction) && (rtPrevAction == 0)) {
 4377              		.loc 1 927 31 view .LVU1568
 4378 0eb2 84F8DB30 		strb	r3, [r4, #219]
 4379              	.LVL286:
 928:HANcoder_E407_TTA_CombineModel.c ****   }
 4380              		.loc 1 928 3 is_stmt 1 view .LVU1569
 929:HANcoder_E407_TTA_CombineModel.c **** 
 4381              		.loc 1 929 3 view .LVU1570
 931:HANcoder_E407_TTA_CombineModel.c ****     /* Outputs for IfAction SubSystem: '<S1>/Setting ID' incorporates:
 4382              		.loc 1 931 3 view .LVU1571
 937:HANcoder_E407_TTA_CombineModel.c **** 
 4383              		.loc 1 937 5 view .LVU1572
 937:HANcoder_E407_TTA_CombineModel.c **** 
 4384              		.loc 1 937 34 is_stmt 0 view .LVU1573
 4385 0eb6 FFF7FEFF 		bl	DiginGet
 4386              	.LVL287:
 4387 0eba 8346     		mov	fp, r0
 4388              	.LVL288:
 942:HANcoder_E407_TTA_CombineModel.c ****       : 0);
 4389              		.loc 1 942 5 is_stmt 1 view .LVU1574
 942:HANcoder_E407_TTA_CombineModel.c ****       : 0);
 4390              		.loc 1 942 20 is_stmt 0 view .LVU1575
 4391 0ebc BBF1000B 		subs	fp, fp, #0
 4392              	.LVL289:
 947:HANcoder_E407_TTA_CombineModel.c **** 
 4393              		.loc 1 947 34 view .LVU1576
 4394 0ec0 4FF00F00 		mov	r0, #15
 942:HANcoder_E407_TTA_CombineModel.c ****       : 0);
 4395              		.loc 1 942 20 view .LVU1577
 4396 0ec4 18BF     		it	ne
 4397 0ec6 4FF0010B 		movne	fp, #1
 4398              	.LVL290:
 947:HANcoder_E407_TTA_CombineModel.c **** 
 4399              		.loc 1 947 5 is_stmt 1 view .LVU1578
 947:HANcoder_E407_TTA_CombineModel.c **** 
 4400              		.loc 1 947 34 is_stmt 0 view .LVU1579
 4401 0eca FFF7FEFF 		bl	DiginGet
 4402              	.LVL291:
 952:HANcoder_E407_TTA_CombineModel.c ****       : 0);
 4403              		.loc 1 952 5 is_stmt 1 view .LVU1580
 952:HANcoder_E407_TTA_CombineModel.c ****       : 0);
 4404              		.loc 1 952 21 is_stmt 0 view .LVU1581
 4405 0ece 08B1     		cbz	r0, .L81
 963:HANcoder_E407_TTA_CombineModel.c ****                           (uint32_T)(rtb_Level2MfileSFunction_d ? (int32_T)
 4406              		.loc 1 963 27 view .LVU1582
 4407 0ed0 0BF1020B 		add	fp, fp, #2
 4408              	.LVL292:
 4409              	.L81:
 957:HANcoder_E407_TTA_CombineModel.c **** 
 4410              		.loc 1 957 5 is_stmt 1 discriminator 4 view .LVU1583
 957:HANcoder_E407_TTA_CombineModel.c **** 
 4411              		.loc 1 957 34 is_stmt 0 discriminator 4 view .LVU1584
 4412 0ed4 1020     		movs	r0, #16
 4413              	.LVL293:
 957:HANcoder_E407_TTA_CombineModel.c **** 
 4414              		.loc 1 957 34 discriminator 4 view .LVU1585
 4415 0ed6 FFF7FEFF 		bl	DiginGet
 4416              	.LVL294:
 963:HANcoder_E407_TTA_CombineModel.c ****                           (uint32_T)(rtb_Level2MfileSFunction_d ? (int32_T)
 4417              		.loc 1 963 5 is_stmt 1 discriminator 4 view .LVU1586
 963:HANcoder_E407_TTA_CombineModel.c ****                           (uint32_T)(rtb_Level2MfileSFunction_d ? (int32_T)
 4418              		.loc 1 963 17 is_stmt 0 discriminator 4 view .LVU1587
 4419 0eda 18B1     		cbz	r0, .L82
 963:HANcoder_E407_TTA_CombineModel.c ****                           (uint32_T)(rtb_Level2MfileSFunction_d ? (int32_T)
 4420              		.loc 1 963 17 view .LVU1588
 4421 0edc 0BF1040B 		add	fp, fp, #4
 4422 0ee0 5FFA8BFB 		uxtb	fp, fp
 4423              	.L82:
 963:HANcoder_E407_TTA_CombineModel.c ****                           (uint32_T)(rtb_Level2MfileSFunction_d ? (int32_T)
 4424              		.loc 1 963 15 discriminator 4 view .LVU1589
 4425 0ee4 6A4D     		ldr	r5, .L459+32
 4426 0ee6 85F830B0 		strb	fp, [r5, #48]
 4427 0eea FFF7AAB8 		b	.L80
 4428              	.LVL295:
 4429              	.L414:
 897:HANcoder_E407_TTA_CombineModel.c **** 
 4430              		.loc 1 897 5 is_stmt 1 view .LVU1590
 902:HANcoder_E407_TTA_CombineModel.c **** 
 4431              		.loc 1 902 24 is_stmt 0 view .LVU1591
 4432 0eee 694B     		ldr	r3, .L459+36
 4433 0ef0 0022     		movs	r2, #0
 4434 0ef2 C4E90823 		strd	r2, [r4, #32]
 897:HANcoder_E407_TTA_CombineModel.c **** 
 4435              		.loc 1 897 42 view .LVU1592
 4436 0ef6 0121     		movs	r1, #1
 909:HANcoder_E407_TTA_CombineModel.c ****       (tTimeoutAction)((uint8_T)3U));
 4437              		.loc 1 909 5 view .LVU1593
 4438 0ef8 0322     		movs	r2, #3
 4439 0efa 0720     		movs	r0, #7
 897:HANcoder_E407_TTA_CombineModel.c **** 
 4440              		.loc 1 897 42 view .LVU1594
 4441 0efc 84F80611 		strb	r1, [r4, #262]
 902:HANcoder_E407_TTA_CombineModel.c **** 
 4442              		.loc 1 902 5 is_stmt 1 view .LVU1595
 909:HANcoder_E407_TTA_CombineModel.c ****       (tTimeoutAction)((uint8_T)3U));
 4443              		.loc 1 909 5 view .LVU1596
 4444 0f00 FFF7FEFF 		bl	TimeoutScheduleCompareEvent
 4445              	.LVL296:
 4446 0f04 FFF792B8 		b	.L78
 4447              	.L423:
3408:HANcoder_E407_TTA_CombineModel.c **** 
 4448              		.loc 1 3408 5 view .LVU1597
3415:HANcoder_E407_TTA_CombineModel.c ****       &canRxData_0_SYNC1_ID.uint8_T_info[0], NULL);
 4449              		.loc 1 3415 24 is_stmt 0 view .LVU1598
 4450 0f08 634B     		ldr	r3, .L459+40
 4451 0f0a 644E     		ldr	r6, .L459+44
3408:HANcoder_E407_TTA_CombineModel.c **** 
 4452              		.loc 1 3408 29 view .LVU1599
 4453 0f0c 0121     		movs	r1, #1
 4454 0f0e 84F8FC10 		strb	r1, [r4, #252]
3415:HANcoder_E407_TTA_CombineModel.c ****       &canRxData_0_SYNC1_ID.uint8_T_info[0], NULL);
 4455              		.loc 1 3415 5 is_stmt 1 view .LVU1600
3415:HANcoder_E407_TTA_CombineModel.c ****       &canRxData_0_SYNC1_ID.uint8_T_info[0], NULL);
 4456              		.loc 1 3415 24 is_stmt 0 view .LVU1601
 4457 0f12 1046     		mov	r0, r2
 4458 0f14 1968     		ldr	r1, [r3]
 4459 0f16 0092     		str	r2, [sp]
 4460 0f18 3346     		mov	r3, r6
 4461 0f1a FFF7FEFF 		bl	CanIoGetMessage
 4462              	.LVL297:
3419:HANcoder_E407_TTA_CombineModel.c ****       /* read the data */
 4463              		.loc 1 3419 5 is_stmt 1 view .LVU1602
3419:HANcoder_E407_TTA_CombineModel.c ****       /* read the data */
 4464              		.loc 1 3419 8 is_stmt 0 view .LVU1603
 4465 0f1e 021E     		subs	r2, r0, #0
 4466 0f20 04DD     		ble	.L197
3421:HANcoder_E407_TTA_CombineModel.c ****       rtb_SFunction_o3 = canRxData_0_SYNC1_ID.uint8_T_info[1];
 4467              		.loc 1 3421 7 is_stmt 1 view .LVU1604
 4468              	.LVL298:
3422:HANcoder_E407_TTA_CombineModel.c ****       rtb_SFunction_o4 = canRxData_0_SYNC1_ID.uint8_T_info[2];
 4469              		.loc 1 3422 7 view .LVU1605
3423:HANcoder_E407_TTA_CombineModel.c ****       rtb_SFunction_o5 = canRxData_0_SYNC1_ID.uint8_T_info[3];
 4470              		.loc 1 3423 7 view .LVU1606
3424:HANcoder_E407_TTA_CombineModel.c ****       rtb_SFunction_o6 = canRxData_0_SYNC1_ID.uint8_T_info[4];
 4471              		.loc 1 3424 7 view .LVU1607
3425:HANcoder_E407_TTA_CombineModel.c ****       rtb_SFunction_o7 = canRxData_0_SYNC1_ID.uint8_T_info[5];
 4472              		.loc 1 3425 7 view .LVU1608
3426:HANcoder_E407_TTA_CombineModel.c ****       rtb_SFunction_o8 = canRxData_0_SYNC1_ID.uint8_T_info[6];
 4473              		.loc 1 3426 7 view .LVU1609
3427:HANcoder_E407_TTA_CombineModel.c ****       rtb_SFunction_o9 = canRxData_0_SYNC1_ID.uint8_T_info[7];
 4474              		.loc 1 3427 7 view .LVU1610
3427:HANcoder_E407_TTA_CombineModel.c ****       rtb_SFunction_o9 = canRxData_0_SYNC1_ID.uint8_T_info[7];
 4475              		.loc 1 3427 24 is_stmt 0 view .LVU1611
 4476 0f22 B379     		ldrb	r3, [r6, #6]	@ zero_extendqisi2
 4477              	.LVL299:
3428:HANcoder_E407_TTA_CombineModel.c ****     }
 4478              		.loc 1 3428 7 is_stmt 1 view .LVU1612
3432:HANcoder_E407_TTA_CombineModel.c ****                      rtb_SFunction_o4, rtb_SFunction_o5, rtb_SFunction_o6,
 4479              		.loc 1 3432 5 view .LVU1613
 4480              	.LBB372:
 4481              	.LBI372:
 442:HANcoder_E407_TTA_CombineModel.c ****                       uint8_T rtu_In3, uint8_T rtu_In4, uint8_T rtu_In5, uint8_T
 4482              		.loc 1 442 6 view .LVU1614
 4483              	.LBB373:
 447:HANcoder_E407_TTA_CombineModel.c ****   uint8_T rtb_In6;
 4484              		.loc 1 447 3 view .LVU1615
 448:HANcoder_E407_TTA_CombineModel.c ****   uint8_T rtb_In8_m;
 4485              		.loc 1 448 3 view .LVU1616
 449:HANcoder_E407_TTA_CombineModel.c **** 
 4486              		.loc 1 449 3 view .LVU1617
 454:HANcoder_E407_TTA_CombineModel.c ****     /* SignalConversion generated from: '<S123>/In1' */
 4487              		.loc 1 454 3 view .LVU1618
 456:HANcoder_E407_TTA_CombineModel.c **** 
 4488              		.loc 1 456 5 view .LVU1619
 459:HANcoder_E407_TTA_CombineModel.c **** 
 4489              		.loc 1 459 5 view .LVU1620
 462:HANcoder_E407_TTA_CombineModel.c **** 
 4490              		.loc 1 462 5 view .LVU1621
 465:HANcoder_E407_TTA_CombineModel.c **** 
 4491              		.loc 1 465 5 view .LVU1622
 474:HANcoder_E407_TTA_CombineModel.c **** 
 4492              		.loc 1 474 17 is_stmt 0 view .LVU1623
 4493 0f24 85F84030 		strb	r3, [r5, #64]
 456:HANcoder_E407_TTA_CombineModel.c **** 
 4494              		.loc 1 456 17 view .LVU1624
 4495 0f28 3368     		ldr	r3, [r6]
 4496              	.LVL300:
 456:HANcoder_E407_TTA_CombineModel.c **** 
 4497              		.loc 1 456 17 view .LVU1625
 4498 0f2a EB63     		str	r3, [r5, #60]
 468:HANcoder_E407_TTA_CombineModel.c **** 
 4499              		.loc 1 468 5 is_stmt 1 view .LVU1626
 471:HANcoder_E407_TTA_CombineModel.c **** 
 4500              		.loc 1 471 5 view .LVU1627
 474:HANcoder_E407_TTA_CombineModel.c **** 
 4501              		.loc 1 474 5 view .LVU1628
 477:HANcoder_E407_TTA_CombineModel.c ****   }
 4502              		.loc 1 477 5 view .LVU1629
 4503              	.LVL301:
 4504              	.L197:
 477:HANcoder_E407_TTA_CombineModel.c ****   }
 4505              		.loc 1 477 5 is_stmt 0 view .LVU1630
 4506              	.LBE373:
 4507              	.LBE372:
3442:HANcoder_E407_TTA_CombineModel.c ****                           &rtPrevZCSigState.Subsystem1_Trig_ZCE,
 4508              		.loc 1 3442 5 is_stmt 1 view .LVU1631
3442:HANcoder_E407_TTA_CombineModel.c ****                           &rtPrevZCSigState.Subsystem1_Trig_ZCE,
 4509              		.loc 1 3442 15 is_stmt 0 view .LVU1632
 4510 0f2c 5C49     		ldr	r1, .L459+48
 4511 0f2e 0120     		movs	r0, #1
 4512              	.LVL302:
3442:HANcoder_E407_TTA_CombineModel.c ****                           &rtPrevZCSigState.Subsystem1_Trig_ZCE,
 4513              		.loc 1 3442 15 view .LVU1633
 4514 0f30 FFF7FEFF 		bl	rt_I32ZCFcn
 4515              	.LVL303:
3445:HANcoder_E407_TTA_CombineModel.c ****       /* DataStoreWrite: '<S371>/Data Store Write' */
 4516              		.loc 1 3445 5 is_stmt 1 view .LVU1634
3445:HANcoder_E407_TTA_CombineModel.c ****       /* DataStoreWrite: '<S371>/Data Store Write' */
 4517              		.loc 1 3445 8 is_stmt 0 view .LVU1635
 4518 0f34 0028     		cmp	r0, #0
 4519 0f36 40F0D384 		bne	.L198
3478:HANcoder_E407_TTA_CombineModel.c ****     rtAction = 0;
 4520              		.loc 1 3478 14 view .LVU1636
 4521 0f3a 94F8DEB0 		ldrb	fp, [r4, #222]	@ zero_extendqisi2
 4522 0f3e FFF7B4BA 		b	.L199
 4523              	.LVL304:
 4524              	.L417:
1691:HANcoder_E407_TTA_CombineModel.c **** 
 4525              		.loc 1 1691 52 discriminator 1 view .LVU1637
 4526 0f42 94F86620 		ldrb	r2, [r4, #102]	@ zero_extendqisi2
 4527 0f46 002A     		cmp	r2, #0
 4528 0f48 00F0C983 		beq	.L132
 4529              	.LVL305:
1703:HANcoder_E407_TTA_CombineModel.c **** 
 4530              		.loc 1 1703 5 is_stmt 1 view .LVU1638
1703:HANcoder_E407_TTA_CombineModel.c **** 
 4531              		.loc 1 1703 28 is_stmt 0 view .LVU1639
 4532 0f4c F0EE007A 		vmov.f32	s15, #2.0e+0
 4533 0f50 B4EE677A 		vcmp.f32	s14, s15
 4534 0f54 F1EE10FA 		vmrs	APSR_nzcv, FPSCR
 4535 0f58 00F0F485 		beq	.L133
 4536              	.LVL306:
 4537              	.L134:
1708:HANcoder_E407_TTA_CombineModel.c ****       rtDWork.MMBS1_RX_MODE = true;
 4538              		.loc 1 1708 5 is_stmt 1 view .LVU1640
1805:HANcoder_E407_TTA_CombineModel.c ****       rtDWork.MMBS1_RX_MODE = false;
 4539              		.loc 1 1805 12 view .LVU1641
1805:HANcoder_E407_TTA_CombineModel.c ****       rtDWork.MMBS1_RX_MODE = false;
 4540              		.loc 1 1805 15 is_stmt 0 view .LVU1642
 4541 0f5c 94F80521 		ldrb	r2, [r4, #261]	@ zero_extendqisi2
 4542 0f60 002A     		cmp	r2, #0
 4543 0f62 40F01F86 		bne	.L437
1851:HANcoder_E407_TTA_CombineModel.c **** 
 4544              		.loc 1 1851 46 view .LVU1643
 4545 0f66 07EE90BA 		vmov	s15, fp	@ int
 4546 0f6a F8EEE77A 		vcvt.f32.s32	s15, s15
 4547              	.LVL307:
 4548              	.L141:
1817:HANcoder_E407_TTA_CombineModel.c ****       /* DataStoreRead: '<S104>/Data Store Read' */
 4549              		.loc 1 1817 5 is_stmt 1 view .LVU1644
1812:HANcoder_E407_TTA_CombineModel.c **** 
 4550              		.loc 1 1812 16 is_stmt 0 view .LVU1645
 4551 0f6e 0022     		movs	r2, #0
 4552 0f70 2FE0     		b	.L244
 4553              	.LVL308:
 4554              	.L416:
 981:HANcoder_E407_TTA_CombineModel.c **** 
 4555              		.loc 1 981 31 view .LVU1646
 4556 0f72 CDE903BB 		strd	fp, fp, [sp, #12]
 4557 0f76 5B46     		mov	r3, fp
 4558 0f78 FFF779B8 		b	.L252
 4559              	.LVL309:
 4560              	.L433:
3619:HANcoder_E407_TTA_CombineModel.c **** 
 4561              		.loc 1 3619 42 view .LVU1647
 4562 0f7c 95F83320 		ldrb	r2, [r5, #51]	@ zero_extendqisi2
3627:HANcoder_E407_TTA_CombineModel.c **** 
 4563              		.loc 1 3627 42 view .LVU1648
 4564 0f80 95F83430 		ldrb	r3, [r5, #52]	@ zero_extendqisi2
 4565              	.LVL310:
 4566              	.L202:
3619:HANcoder_E407_TTA_CombineModel.c **** 
 4567              		.loc 1 3619 5 is_stmt 1 view .LVU1649
3619:HANcoder_E407_TTA_CombineModel.c **** 
 4568              		.loc 1 3619 17 is_stmt 0 view .LVU1650
 4569 0f84 4748     		ldr	r0, .L459+52
3627:HANcoder_E407_TTA_CombineModel.c **** 
 4570              		.loc 1 3627 17 view .LVU1651
 4571 0f86 4849     		ldr	r1, .L459+56
3619:HANcoder_E407_TTA_CombineModel.c **** 
 4572              		.loc 1 3619 19 view .LVU1652
 4573 0f88 9209     		lsrs	r2, r2, #6
3627:HANcoder_E407_TTA_CombineModel.c **** 
 4574              		.loc 1 3627 19 view .LVU1653
 4575 0f8a 9B09     		lsrs	r3, r3, #6
3619:HANcoder_E407_TTA_CombineModel.c **** 
 4576              		.loc 1 3619 17 view .LVU1654
 4577 0f8c 0270     		strb	r2, [r0]
3622:HANcoder_E407_TTA_CombineModel.c **** 
 4578              		.loc 1 3622 5 is_stmt 1 view .LVU1655
3622:HANcoder_E407_TTA_CombineModel.c **** 
 4579              		.loc 1 3622 25 is_stmt 0 view .LVU1656
 4580 0f8e 84F8E320 		strb	r2, [r4, #227]
3627:HANcoder_E407_TTA_CombineModel.c **** 
 4581              		.loc 1 3627 5 is_stmt 1 view .LVU1657
3627:HANcoder_E407_TTA_CombineModel.c **** 
 4582              		.loc 1 3627 17 is_stmt 0 view .LVU1658
 4583 0f92 0B70     		strb	r3, [r1]
3630:HANcoder_E407_TTA_CombineModel.c **** 
 4584              		.loc 1 3630 5 is_stmt 1 view .LVU1659
3630:HANcoder_E407_TTA_CombineModel.c **** 
 4585              		.loc 1 3630 25 is_stmt 0 view .LVU1660
 4586 0f94 84F8E430 		strb	r3, [r4, #228]
 4587 0f98 FFF78EBA 		b	.L203
 4588              	.LVL311:
 4589              	.L287:
3630:HANcoder_E407_TTA_CombineModel.c **** 
 4590              		.loc 1 3630 25 view .LVU1661
 4591 0f9c CB46     		mov	fp, r9
 4592 0f9e 42E5     		b	.L108
 4593              	.LVL312:
 4594              	.L276:
1076:HANcoder_E407_TTA_CombineModel.c ****     } else {
 4595              		.loc 1 1076 11 view .LVU1662
 4596 0fa0 DFF81891 		ldr	r9, .L459+76
 4597 0fa4 4FF00008 		mov	r8, #0
 4598 0fa8 FFF781BB 		b	.L87
 4599              	.LVL313:
 4600              	.L139:
1806:HANcoder_E407_TTA_CombineModel.c ****     }
 4601              		.loc 1 1806 7 is_stmt 1 view .LVU1663
1812:HANcoder_E407_TTA_CombineModel.c **** 
 4602              		.loc 1 1812 30 is_stmt 0 view .LVU1664
 4603 0fac F0EE006A 		vmov.f32	s13, #2.0e+0
 4604 0fb0 B4EE667A 		vcmp.f32	s14, s13
1806:HANcoder_E407_TTA_CombineModel.c ****     }
 4605              		.loc 1 1806 29 view .LVU1665
 4606 0fb4 0026     		movs	r6, #0
1812:HANcoder_E407_TTA_CombineModel.c **** 
 4607              		.loc 1 1812 30 view .LVU1666
 4608 0fb6 F1EE10FA 		vmrs	APSR_nzcv, FPSCR
1806:HANcoder_E407_TTA_CombineModel.c ****     }
 4609              		.loc 1 1806 29 view .LVU1667
 4610 0fba 84F80561 		strb	r6, [r4, #261]
 4611              	.LVL314:
1812:HANcoder_E407_TTA_CombineModel.c **** 
 4612              		.loc 1 1812 5 is_stmt 1 view .LVU1668
1812:HANcoder_E407_TTA_CombineModel.c **** 
 4613              		.loc 1 1812 30 is_stmt 0 view .LVU1669
 4614 0fbe D6D1     		bne	.L141
 4615              	.LVL315:
 4616              	.L138:
1817:HANcoder_E407_TTA_CombineModel.c ****       /* DataStoreRead: '<S104>/Data Store Read' */
 4617              		.loc 1 1817 5 is_stmt 1 view .LVU1670
1817:HANcoder_E407_TTA_CombineModel.c ****       /* DataStoreRead: '<S104>/Data Store Read' */
 4618              		.loc 1 1817 40 is_stmt 0 view .LVU1671
 4619 0fc0 9AF80A20 		ldrb	r2, [r10, #10]	@ zero_extendqisi2
1817:HANcoder_E407_TTA_CombineModel.c ****       /* DataStoreRead: '<S104>/Data Store Read' */
 4620              		.loc 1 1817 20 view .LVU1672
 4621 0fc4 012A     		cmp	r2, #1
 4622 0fc6 40F03284 		bne	.L243
1851:HANcoder_E407_TTA_CombineModel.c **** 
 4623              		.loc 1 1851 46 view .LVU1673
 4624 0fca 07EE90BA 		vmov	s15, fp	@ int
 4625 0fce F8EEE77A 		vcvt.f32.s32	s15, s15
 4626              	.LVL316:
 4627              	.L244:
1837:HANcoder_E407_TTA_CombineModel.c **** 
 4628              		.loc 1 1837 5 is_stmt 1 view .LVU1674
1851:HANcoder_E407_TTA_CombineModel.c **** 
 4629              		.loc 1 1851 54 is_stmt 0 view .LVU1675
 4630 0fd2 F7EE006A 		vmov.f32	s13, #1.0e+0
 4631 0fd6 F4EE667A 		vcmp.f32	s15, s13
 4632 0fda F1EE10FA 		vmrs	APSR_nzcv, FPSCR
1837:HANcoder_E407_TTA_CombineModel.c **** 
 4633              		.loc 1 1837 40 view .LVU1676
 4634 0fde 8AF80A20 		strb	r2, [r10, #10]
1844:HANcoder_E407_TTA_CombineModel.c **** 
 4635              		.loc 1 1844 5 is_stmt 1 view .LVU1677
 4636              	.LVL317:
1851:HANcoder_E407_TTA_CombineModel.c **** 
 4637              		.loc 1 1851 5 view .LVU1678
1851:HANcoder_E407_TTA_CombineModel.c **** 
 4638              		.loc 1 1851 54 is_stmt 0 view .LVU1679
 4639 0fe2 3FF490A8 		beq	.L145
 4640              	.LVL318:
1856:HANcoder_E407_TTA_CombineModel.c **** 
 4641              		.loc 1 1856 5 is_stmt 1 discriminator 6 view .LVU1680
1856:HANcoder_E407_TTA_CombineModel.c **** 
 4642              		.loc 1 1856 28 is_stmt 0 discriminator 6 view .LVU1681
 4643 0fe6 F0EE087A 		vmov.f32	s15, #3.0e+0
 4644 0fea B4EE677A 		vcmp.f32	s14, s15
 4645 0fee F1EE10FA 		vmrs	APSR_nzcv, FPSCR
 4646 0ff2 00F0F583 		beq	.L438
 4647              	.LVL319:
1861:HANcoder_E407_TTA_CombineModel.c ****       rtDWork.SSTM1_RX_MODE = true;
 4648              		.loc 1 1861 5 is_stmt 1 discriminator 4 view .LVU1682
1893:HANcoder_E407_TTA_CombineModel.c ****       rtDWork.SSTM1_RX_MODE = false;
 4649              		.loc 1 1893 12 discriminator 4 view .LVU1683
1893:HANcoder_E407_TTA_CombineModel.c ****       rtDWork.SSTM1_RX_MODE = false;
 4650              		.loc 1 1893 15 is_stmt 0 discriminator 4 view .LVU1684
 4651 0ff6 94F80421 		ldrb	r2, [r4, #260]	@ zero_extendqisi2
 4652 0ffa 12B1     		cbz	r2, .L151
1894:HANcoder_E407_TTA_CombineModel.c ****     }
 4653              		.loc 1 1894 7 is_stmt 1 view .LVU1685
1894:HANcoder_E407_TTA_CombineModel.c ****     }
 4654              		.loc 1 1894 29 is_stmt 0 view .LVU1686
 4655 0ffc 0022     		movs	r2, #0
 4656 0ffe 84F80421 		strb	r2, [r4, #260]
1900:HANcoder_E407_TTA_CombineModel.c **** 
 4657              		.loc 1 1900 5 is_stmt 1 view .LVU1687
 4658              	.LVL320:
 4659              	.L151:
1905:HANcoder_E407_TTA_CombineModel.c ****       /* Update for M-S-Function: '<S127>/S-Function' incorporates:
 4660              		.loc 1 1905 5 view .LVU1688
1900:HANcoder_E407_TTA_CombineModel.c **** 
 4661              		.loc 1 1900 16 is_stmt 0 view .LVU1689
 4662 1002 0022     		movs	r2, #0
 4663              	.LVL321:
1918:HANcoder_E407_TTA_CombineModel.c **** 
 4664              		.loc 1 1918 5 is_stmt 1 view .LVU1690
1932:HANcoder_E407_TTA_CombineModel.c **** 
 4665              		.loc 1 1932 52 is_stmt 0 view .LVU1691
 4666 1004 BBF1010F 		cmp	fp, #1
1918:HANcoder_E407_TTA_CombineModel.c **** 
 4667              		.loc 1 1918 40 view .LVU1692
 4668 1008 8AF80920 		strb	r2, [r10, #9]
1925:HANcoder_E407_TTA_CombineModel.c **** 
 4669              		.loc 1 1925 5 is_stmt 1 view .LVU1693
 4670              	.LVL322:
1932:HANcoder_E407_TTA_CombineModel.c **** 
 4671              		.loc 1 1932 5 view .LVU1694
1932:HANcoder_E407_TTA_CombineModel.c **** 
 4672              		.loc 1 1932 52 is_stmt 0 view .LVU1695
 4673 100c 7FF4A0A8 		bne	.L439
 4674              	.LVL323:
 4675              	.L153:
1942:HANcoder_E407_TTA_CombineModel.c ****       rtDWork.SYNC1_RX_MODE = true;
 4676              		.loc 1 1942 5 is_stmt 1 view .LVU1696
2002:HANcoder_E407_TTA_CombineModel.c ****       rtDWork.SYNC1_RX_MODE = false;
 4677              		.loc 1 2002 12 view .LVU1697
2002:HANcoder_E407_TTA_CombineModel.c ****       rtDWork.SYNC1_RX_MODE = false;
 4678              		.loc 1 2002 15 is_stmt 0 view .LVU1698
 4679 1010 94F80321 		ldrb	r2, [r4, #259]	@ zero_extendqisi2
 4680 1014 12B1     		cbz	r2, .L409
2003:HANcoder_E407_TTA_CombineModel.c ****     }
 4681              		.loc 1 2003 7 is_stmt 1 view .LVU1699
2003:HANcoder_E407_TTA_CombineModel.c ****     }
 4682              		.loc 1 2003 29 is_stmt 0 view .LVU1700
 4683 1016 0022     		movs	r2, #0
 4684 1018 84F80321 		strb	r2, [r4, #259]
 4685              	.L409:
2009:HANcoder_E407_TTA_CombineModel.c **** 
 4686              		.loc 1 2009 5 is_stmt 1 view .LVU1701
2009:HANcoder_E407_TTA_CombineModel.c **** 
 4687              		.loc 1 2009 27 is_stmt 0 view .LVU1702
 4688 101c 012B     		cmp	r3, #1
 4689 101e 7FF4A0A8 		bne	.L159
 4690              	.L157:
2014:HANcoder_E407_TTA_CombineModel.c ****       /* DataStoreRead: '<S108>/Data Store Read1' */
 4691              		.loc 1 2014 37 view .LVU1703
 4692 1022 9AF80720 		ldrb	r2, [r10, #7]	@ zero_extendqisi2
2009:HANcoder_E407_TTA_CombineModel.c **** 
 4693              		.loc 1 2009 13 view .LVU1704
 4694 1026 214E     		ldr	r6, .L459+60
 4695 1028 0121     		movs	r1, #1
2014:HANcoder_E407_TTA_CombineModel.c ****       /* DataStoreRead: '<S108>/Data Store Read1' */
 4696              		.loc 1 2014 17 view .LVU1705
 4697 102a 8A42     		cmp	r2, r1
2009:HANcoder_E407_TTA_CombineModel.c **** 
 4698              		.loc 1 2009 13 view .LVU1706
 4699 102c 3170     		strb	r1, [r6]
2014:HANcoder_E407_TTA_CombineModel.c ****       /* DataStoreRead: '<S108>/Data Store Read1' */
 4700              		.loc 1 2014 5 is_stmt 1 view .LVU1707
2014:HANcoder_E407_TTA_CombineModel.c ****       /* DataStoreRead: '<S108>/Data Store Read1' */
 4701              		.loc 1 2014 17 is_stmt 0 view .LVU1708
 4702 102e 3FF49BA8 		beq	.L237
2016:HANcoder_E407_TTA_CombineModel.c **** 
 4703              		.loc 1 2016 7 is_stmt 1 view .LVU1709
2016:HANcoder_E407_TTA_CombineModel.c **** 
 4704              		.loc 1 2016 28 is_stmt 0 view .LVU1710
 4705 1032 B4F86420 		ldrh	r2, [r4, #100]
2016:HANcoder_E407_TTA_CombineModel.c **** 
 4706              		.loc 1 2016 19 view .LVU1711
 4707 1036 1E4F     		ldr	r7, .L459+64
2039:HANcoder_E407_TTA_CombineModel.c ****         canTxData.uint8_T_info[1] = ((uint8_T)1U);
 4708              		.loc 1 2039 35 view .LVU1712
 4709 1038 1E4B     		ldr	r3, .L459+68
2016:HANcoder_E407_TTA_CombineModel.c **** 
 4710              		.loc 1 2016 19 view .LVU1713
 4711 103a 3A80     		strh	r2, [r7]	@ movhi
2022:HANcoder_E407_TTA_CombineModel.c **** 
 4712              		.loc 1 2022 7 is_stmt 1 view .LVU1714
2022:HANcoder_E407_TTA_CombineModel.c **** 
 4713              		.loc 1 2022 27 is_stmt 0 view .LVU1715
 4714 103c 0132     		adds	r2, r2, #1
2040:HANcoder_E407_TTA_CombineModel.c ****         canTxData.uint8_T_info[2] = ((uint8_T)0U);
 4715              		.loc 1 2040 35 view .LVU1716
 4716 103e 5970     		strb	r1, [r3, #1]
2022:HANcoder_E407_TTA_CombineModel.c **** 
 4717              		.loc 1 2022 25 view .LVU1717
 4718 1040 A4F86420 		strh	r2, [r4, #100]	@ movhi
2025:HANcoder_E407_TTA_CombineModel.c **** 
 4719              		.loc 1 2025 7 is_stmt 1 view .LVU1718
2049:HANcoder_E407_TTA_CombineModel.c ****       }
 4720              		.loc 1 2049 9 is_stmt 0 view .LVU1719
 4721 1044 1449     		ldr	r1, .L459+40
2025:HANcoder_E407_TTA_CombineModel.c **** 
 4722              		.loc 1 2025 34 view .LVU1720
 4723 1046 94F8E220 		ldrb	r2, [r4, #226]	@ zero_extendqisi2
2039:HANcoder_E407_TTA_CombineModel.c ****         canTxData.uint8_T_info[1] = ((uint8_T)1U);
 4724              		.loc 1 2039 35 view .LVU1721
 4725 104a 1A70     		strb	r2, [r3]
2041:HANcoder_E407_TTA_CombineModel.c ****         canTxData.uint8_T_info[3] = ((uint8_T)0U);
 4726              		.loc 1 2041 35 view .LVU1722
 4727 104c 0020     		movs	r0, #0
2025:HANcoder_E407_TTA_CombineModel.c **** 
 4728              		.loc 1 2025 25 view .LVU1723
 4729 104e 85F82D20 		strb	r2, [r5, #45]
2039:HANcoder_E407_TTA_CombineModel.c ****         canTxData.uint8_T_info[1] = ((uint8_T)1U);
 4730              		.loc 1 2039 9 is_stmt 1 view .LVU1724
2040:HANcoder_E407_TTA_CombineModel.c ****         canTxData.uint8_T_info[2] = ((uint8_T)0U);
 4731              		.loc 1 2040 9 view .LVU1725
2041:HANcoder_E407_TTA_CombineModel.c ****         canTxData.uint8_T_info[3] = ((uint8_T)0U);
 4732              		.loc 1 2041 9 view .LVU1726
2042:HANcoder_E407_TTA_CombineModel.c ****         canTxData.uint8_T_info[4] = ((uint8_T)0U);
 4733              		.loc 1 2042 9 view .LVU1727
2043:HANcoder_E407_TTA_CombineModel.c ****         canTxData.uint8_T_info[5] = ((uint8_T)0U);
 4734              		.loc 1 2043 9 view .LVU1728
2044:HANcoder_E407_TTA_CombineModel.c ****         canTxData.uint8_T_info[6] = ((uint8_T)0U);
 4735              		.loc 1 2044 9 view .LVU1729
2045:HANcoder_E407_TTA_CombineModel.c ****         canTxData.uint8_T_info[7] = ((uint8_T)1U);
 4736              		.loc 1 2045 9 view .LVU1730
2046:HANcoder_E407_TTA_CombineModel.c **** 
 4737              		.loc 1 2046 9 view .LVU1731
2043:HANcoder_E407_TTA_CombineModel.c ****         canTxData.uint8_T_info[5] = ((uint8_T)0U);
 4738              		.loc 1 2043 35 is_stmt 0 view .LVU1732
 4739 1052 4FF08072 		mov	r2, #16777216
 4740 1056 5A60     		str	r2, [r3, #4]
2049:HANcoder_E407_TTA_CombineModel.c ****       }
 4741              		.loc 1 2049 9 is_stmt 1 view .LVU1733
2041:HANcoder_E407_TTA_CombineModel.c ****         canTxData.uint8_T_info[3] = ((uint8_T)0U);
 4742              		.loc 1 2041 35 is_stmt 0 view .LVU1734
 4743 1058 5880     		strh	r0, [r3, #2]	@ movhi
2049:HANcoder_E407_TTA_CombineModel.c ****       }
 4744              		.loc 1 2049 9 view .LVU1735
 4745 105a 0822     		movs	r2, #8
 4746 105c 0968     		ldr	r1, [r1]
 4747 105e FFF7FEFF 		bl	CanTransmit
 4748              	.LVL324:
2060:HANcoder_E407_TTA_CombineModel.c **** 
 4749              		.loc 1 2060 29 view .LVU1736
 4750 1062 154B     		ldr	r3, .L459+72
2053:HANcoder_E407_TTA_CombineModel.c **** 
 4751              		.loc 1 2053 40 view .LVU1737
 4752 1064 3278     		ldrb	r2, [r6]	@ zero_extendqisi2
2060:HANcoder_E407_TTA_CombineModel.c **** 
 4753              		.loc 1 2060 29 view .LVU1738
 4754 1066 1B78     		ldrb	r3, [r3]	@ zero_extendqisi2
2066:HANcoder_E407_TTA_CombineModel.c **** 
 4755              		.loc 1 2066 26 view .LVU1739
 4756 1068 94F8DEB0 		ldrb	fp, [r4, #222]	@ zero_extendqisi2
 4757 106c FFF77CB8 		b	.L237
 4758              	.L460:
 4759              		.align	2
 4760              	.L459:
 4761 1070 00000000 		.word	.LANCHOR79
 4762 1074 00000000 		.word	.LANCHOR80
 4763 1078 00000000 		.word	.LANCHOR81
 4764 107c 00000000 		.word	.LC0
 4765 1080 00000000 		.word	.LANCHOR82
 4766 1084 00000000 		.word	.LANCHOR67
 4767 1088 00000000 		.word	.LANCHOR68
 4768 108c 00000000 		.word	rtConstP
 4769 1090 00000000 		.word	.LANCHOR0
 4770 1094 0000F03F 		.word	1072693248
 4771 1098 00000000 		.word	.LANCHOR45
 4772 109c 00000000 		.word	.LANCHOR43
 4773 10a0 00000000 		.word	.LANCHOR5
 4774 10a4 00000000 		.word	.LANCHOR69
 4775 10a8 00000000 		.word	.LANCHOR70
 4776 10ac 00000000 		.word	.LANCHOR46
 4777 10b0 00000000 		.word	.LANCHOR44
 4778 10b4 00000000 		.word	.LANCHOR40
 4779 10b8 00000000 		.word	.LANCHOR7
 4780 10bc 0000F0BF 		.word	-1074790400
 4781              	.LVL325:
 4782              	.L421:
2804:HANcoder_E407_TTA_CombineModel.c **** 
 4783              		.loc 1 2804 25 discriminator 1 view .LVU1740
 4784 10c0 F1EE006A 		vmov.f32	s13, #4.0e+0
 4785 10c4 B4EE667A 		vcmp.f32	s14, s13
 4786 10c8 F1EE10FA 		vmrs	APSR_nzcv, FPSCR
 4787 10cc 40F0AB82 		bne	.L178
 4788              	.LVL326:
2809:HANcoder_E407_TTA_CombineModel.c ****       rtDWork.TRLS_ID4_RX_MODE = true;
 4789              		.loc 1 2809 5 is_stmt 1 view .LVU1741
2933:HANcoder_E407_TTA_CombineModel.c ****       rtDWork.TRLS_ID4_RX_MODE = false;
 4790              		.loc 1 2933 12 view .LVU1742
2933:HANcoder_E407_TTA_CombineModel.c ****       rtDWork.TRLS_ID4_RX_MODE = false;
 4791              		.loc 1 2933 15 is_stmt 0 view .LVU1743
 4792 10d0 94F8FF30 		ldrb	r3, [r4, #255]	@ zero_extendqisi2
 4793 10d4 13B1     		cbz	r3, .L261
2934:HANcoder_E407_TTA_CombineModel.c ****     }
 4794              		.loc 1 2934 7 is_stmt 1 view .LVU1744
2934:HANcoder_E407_TTA_CombineModel.c ****     }
 4795              		.loc 1 2934 32 is_stmt 0 view .LVU1745
 4796 10d6 0023     		movs	r3, #0
 4797 10d8 84F8FF30 		strb	r3, [r4, #255]
2940:HANcoder_E407_TTA_CombineModel.c **** 
 4798              		.loc 1 2940 5 is_stmt 1 view .LVU1746
 4799              	.L261:
 4800              	.LVL327:
2945:HANcoder_E407_TTA_CombineModel.c ****       /* DataStoreRead: '<S116>/Data Store Read2' */
 4801              		.loc 1 2945 5 view .LVU1747
2945:HANcoder_E407_TTA_CombineModel.c ****       /* DataStoreRead: '<S116>/Data Store Read2' */
 4802              		.loc 1 2945 37 is_stmt 0 view .LVU1748
 4803 10dc 9AF80330 		ldrb	r3, [r10, #3]	@ zero_extendqisi2
2945:HANcoder_E407_TTA_CombineModel.c ****       /* DataStoreRead: '<S116>/Data Store Read2' */
 4804              		.loc 1 2945 17 view .LVU1749
 4805 10e0 012B     		cmp	r3, #1
 4806 10e2 3FF439A9 		beq	.L224
2947:HANcoder_E407_TTA_CombineModel.c **** 
 4807              		.loc 1 2947 7 is_stmt 1 view .LVU1750
2963:HANcoder_E407_TTA_CombineModel.c **** 
 4808              		.loc 1 2963 7 is_stmt 0 view .LVU1751
 4809 10e6 C64A     		ldr	r2, .L461
 4810              	.LBB374:
 4811              	.LBB375:
 650:HANcoder_E407_TTA_CombineModel.c **** }
 4812              		.loc 1 650 15 view .LVU1752
 4813 10e8 94F8F010 		ldrb	r1, [r4, #240]	@ zero_extendqisi2
 4814              	.LBE375:
 4815              	.LBE374:
 4816              	.LBB380:
 4817              	.LBB381:
 634:HANcoder_E407_TTA_CombineModel.c **** }
 4818              		.loc 1 634 15 view .LVU1753
 4819 10ec 92F82930 		ldrb	r3, [r2, #41]	@ zero_extendqisi2
 4820              	.LBE381:
 4821              	.LBE380:
2994:HANcoder_E407_TTA_CombineModel.c ****         ((uint32_T)rtConstB.Cast7_e + rtB.BitShift1_c.y) + rtB.BitShift_eg.y) +
 4822              		.loc 1 2994 49 view .LVU1754
 4823 10f0 92F82F60 		ldrb	r6, [r2, #47]	@ zero_extendqisi2
 4824              	.LBB386:
 4825              	.LBB376:
 650:HANcoder_E407_TTA_CombineModel.c **** }
 4826              		.loc 1 650 15 view .LVU1755
 4827 10f4 4900     		lsls	r1, r1, #1
 4828              	.LBE376:
 4829              	.LBE386:
 4830              	.LBB387:
 4831              	.LBB382:
 634:HANcoder_E407_TTA_CombineModel.c **** }
 4832              		.loc 1 634 15 view .LVU1756
 4833 10f6 9B00     		lsls	r3, r3, #2
 4834              	.LBE382:
 4835              	.LBE387:
 4836              	.LBB388:
 4837              	.LBB377:
 650:HANcoder_E407_TTA_CombineModel.c **** }
 4838              		.loc 1 650 15 view .LVU1757
 4839 10f8 C9B2     		uxtb	r1, r1
 4840              	.LBE377:
 4841              	.LBE388:
 4842              	.LBB389:
 4843              	.LBB383:
 634:HANcoder_E407_TTA_CombineModel.c **** }
 4844              		.loc 1 634 15 view .LVU1758
 4845 10fa DBB2     		uxtb	r3, r3
 4846              	.LBE383:
 4847              	.LBE389:
2994:HANcoder_E407_TTA_CombineModel.c ****         ((uint32_T)rtConstB.Cast7_e + rtB.BitShift1_c.y) + rtB.BitShift_eg.y) +
 4848              		.loc 1 2994 49 view .LVU1759
 4849 10fc 5818     		adds	r0, r3, r1
 4850              	.LBB390:
 4851              	.LBB378:
 650:HANcoder_E407_TTA_CombineModel.c **** }
 4852              		.loc 1 650 13 view .LVU1760
 4853 10fe 85F86310 		strb	r1, [r5, #99]
 4854              	.LBE378:
 4855              	.LBE390:
 4856              	.LBB391:
 4857              	.LBB392:
 666:HANcoder_E407_TTA_CombineModel.c **** }
 4858              		.loc 1 666 15 view .LVU1761
 4859 1102 92F82A10 		ldrb	r1, [r2, #42]	@ zero_extendqisi2
 4860              	.LBE392:
 4861              	.LBE391:
 4862              	.LBB396:
 4863              	.LBB384:
 634:HANcoder_E407_TTA_CombineModel.c **** }
 4864              		.loc 1 634 13 view .LVU1762
 4865 1106 85F86430 		strb	r3, [r5, #100]
 4866              	.LBE384:
 4867              	.LBE396:
 4868              	.LBB397:
 4869              	.LBB398:
 682:HANcoder_E407_TTA_CombineModel.c **** }
 4870              		.loc 1 682 15 view .LVU1763
 4871 110a 92F82B30 		ldrb	r3, [r2, #43]	@ zero_extendqisi2
 4872              	.LBE398:
 4873              	.LBE397:
 4874              	.LBB403:
 4875              	.LBB393:
 666:HANcoder_E407_TTA_CombineModel.c **** }
 4876              		.loc 1 666 15 view .LVU1764
 4877 110e C900     		lsls	r1, r1, #3
 4878 1110 C9B2     		uxtb	r1, r1
 4879              	.LBE393:
 4880              	.LBE403:
2994:HANcoder_E407_TTA_CombineModel.c ****         ((uint32_T)rtConstB.Cast7_e + rtB.BitShift1_c.y) + rtB.BitShift_eg.y) +
 4881              		.loc 1 2994 49 view .LVU1765
 4882 1112 3044     		add	r0, r0, r6
 4883              	.LBB404:
 4884              	.LBB399:
 682:HANcoder_E407_TTA_CombineModel.c **** }
 4885              		.loc 1 682 15 view .LVU1766
 4886 1114 1B01     		lsls	r3, r3, #4
 4887              	.LBE399:
 4888              	.LBE404:
 4889              	.LBB405:
 4890              	.LBB394:
 666:HANcoder_E407_TTA_CombineModel.c **** }
 4891              		.loc 1 666 13 view .LVU1767
 4892 1116 85F86210 		strb	r1, [r5, #98]
 4893              	.LBE394:
 4894              	.LBE405:
 4895              	.LBB406:
 4896              	.LBB400:
 682:HANcoder_E407_TTA_CombineModel.c **** }
 4897              		.loc 1 682 15 view .LVU1768
 4898 111a DBB2     		uxtb	r3, r3
 4899              	.LBE400:
 4900              	.LBE406:
2994:HANcoder_E407_TTA_CombineModel.c ****         ((uint32_T)rtConstB.Cast7_e + rtB.BitShift1_c.y) + rtB.BitShift_eg.y) +
 4901              		.loc 1 2994 29 view .LVU1769
 4902 111c 0144     		add	r1, r1, r0
 4903              	.LBB407:
 4904              	.LBB401:
 682:HANcoder_E407_TTA_CombineModel.c **** }
 4905              		.loc 1 682 13 view .LVU1770
 4906 111e 85F86130 		strb	r3, [r5, #97]
 4907              	.LBE401:
 4908              	.LBE407:
2994:HANcoder_E407_TTA_CombineModel.c ****         ((uint32_T)rtConstB.Cast7_e + rtB.BitShift1_c.y) + rtB.BitShift_eg.y) +
 4909              		.loc 1 2994 9 view .LVU1771
 4910 1122 0B44     		add	r3, r3, r1
 4911              	.LBB408:
 4912              	.LBB409:
 698:HANcoder_E407_TTA_CombineModel.c **** }
 4913              		.loc 1 698 15 view .LVU1772
 4914 1124 92F82C10 		ldrb	r1, [r2, #44]	@ zero_extendqisi2
 4915 1128 B4F85E00 		ldrh	r0, [r4, #94]
 4916 112c 4901     		lsls	r1, r1, #5
 4917 112e C9B2     		uxtb	r1, r1
 4918              	.LBE409:
 4919              	.LBE408:
2993:HANcoder_E407_TTA_CombineModel.c ****         (uint8_T)((uint32_T)(uint8_T)((uint32_T)(uint8_T)((uint32_T)(uint8_T)
 4920              		.loc 1 2993 59 view .LVU1773
 4921 1130 0B44     		add	r3, r3, r1
 4922              	.LBB412:
 4923              	.LBB410:
 698:HANcoder_E407_TTA_CombineModel.c **** }
 4924              		.loc 1 698 13 view .LVU1774
 4925 1132 85F86010 		strb	r1, [r5, #96]
 4926              	.LBE410:
 4927              	.LBE412:
 4928              	.LBB413:
 4929              	.LBB414:
 714:HANcoder_E407_TTA_CombineModel.c **** }
 4930              		.loc 1 714 15 view .LVU1775
 4931 1136 92F82D10 		ldrb	r1, [r2, #45]	@ zero_extendqisi2
 4932              	.LBE414:
 4933              	.LBE413:
 4934              	.LBB418:
 4935              	.LBB419:
 730:HANcoder_E407_TTA_CombineModel.c **** }
 4936              		.loc 1 730 15 view .LVU1776
 4937 113a 92F82E20 		ldrb	r2, [r2, #46]	@ zero_extendqisi2
 4938              	.LBE419:
 4939              	.LBE418:
 4940              	.LBB423:
 4941              	.LBB415:
 714:HANcoder_E407_TTA_CombineModel.c **** }
 4942              		.loc 1 714 15 view .LVU1777
 4943 113e 8901     		lsls	r1, r1, #6
 4944 1140 C9B2     		uxtb	r1, r1
 4945              	.LBE415:
 4946              	.LBE423:
 4947              	.LBB424:
 4948              	.LBB420:
 730:HANcoder_E407_TTA_CombineModel.c **** }
 4949              		.loc 1 730 15 view .LVU1778
 4950 1142 D201     		lsls	r2, r2, #7
 4951 1144 D2B2     		uxtb	r2, r2
 4952              	.LBE420:
 4953              	.LBE424:
2993:HANcoder_E407_TTA_CombineModel.c ****         (uint8_T)((uint32_T)(uint8_T)((uint32_T)(uint8_T)((uint32_T)(uint8_T)
 4954              		.loc 1 2993 39 view .LVU1779
 4955 1146 0B44     		add	r3, r3, r1
2993:HANcoder_E407_TTA_CombineModel.c ****         (uint8_T)((uint32_T)(uint8_T)((uint32_T)(uint8_T)((uint32_T)(uint8_T)
 4956              		.loc 1 2993 19 view .LVU1780
 4957 1148 1344     		add	r3, r3, r2
 4958              	.LBB425:
 4959              	.LBB416:
 714:HANcoder_E407_TTA_CombineModel.c **** }
 4960              		.loc 1 714 13 view .LVU1781
 4961 114a 85F85F10 		strb	r1, [r5, #95]
 4962              	.LBE416:
 4963              	.LBE425:
2993:HANcoder_E407_TTA_CombineModel.c ****         (uint8_T)((uint32_T)(uint8_T)((uint32_T)(uint8_T)((uint32_T)(uint8_T)
 4964              		.loc 1 2993 19 view .LVU1782
 4965 114e D9B2     		uxtb	r1, r3
 4966              	.LBB426:
 4967              	.LBB427:
 751:HANcoder_E407_TTA_CombineModel.c **** }
 4968              		.loc 1 751 15 view .LVU1783
 4969 1150 B4F85E30 		ldrh	r3, [r4, #94]
 4970              	.LBE427:
 4971              	.LBE426:
 4972              	.LBB430:
 4973              	.LBB421:
 730:HANcoder_E407_TTA_CombineModel.c **** }
 4974              		.loc 1 730 13 view .LVU1784
 4975 1154 85F85E20 		strb	r2, [r5, #94]
 4976              	.LBE421:
 4977              	.LBE430:
 4978              	.LBB431:
 4979              	.LBB428:
 751:HANcoder_E407_TTA_CombineModel.c **** }
 4980              		.loc 1 751 15 view .LVU1785
 4981 1158 1B0A     		lsrs	r3, r3, #8
 751:HANcoder_E407_TTA_CombineModel.c **** }
 4982              		.loc 1 751 13 view .LVU1786
 4983 115a A5F85C30 		strh	r3, [r5, #92]	@ movhi
 4984              	.LBE428:
 4985              	.LBE431:
 4986              	.LBB432:
 4987              	.LBB433:
 751:HANcoder_E407_TTA_CombineModel.c **** }
 4988              		.loc 1 751 15 view .LVU1787
 4989 115e B4F85030 		ldrh	r3, [r4, #80]
 4990 1162 B4F85020 		ldrh	r2, [r4, #80]
 4991              	.LBE433:
 4992              	.LBE432:
2993:HANcoder_E407_TTA_CombineModel.c ****         (uint8_T)((uint32_T)(uint8_T)((uint32_T)(uint8_T)((uint32_T)(uint8_T)
 4993              		.loc 1 2993 17 view .LVU1788
 4994 1166 6974     		strb	r1, [r5, #17]
 4995              	.LBB436:
 4996              	.LBB434:
 751:HANcoder_E407_TTA_CombineModel.c **** }
 4997              		.loc 1 751 15 view .LVU1789
 4998 1168 1B0A     		lsrs	r3, r3, #8
 751:HANcoder_E407_TTA_CombineModel.c **** }
 4999              		.loc 1 751 13 view .LVU1790
 5000 116a A5F85A30 		strh	r3, [r5, #90]	@ movhi
 5001              	.LBE434:
 5002              	.LBE436:
3033:HANcoder_E407_TTA_CombineModel.c ****         canTxData.uint8_T_info[1] = rtB.Cast1_i;
 5003              		.loc 1 3033 35 view .LVU1791
 5004 116e A54B     		ldr	r3, .L461+4
 5005 1170 40BA     		rev16	r0, r0
 5006 1172 52BA     		rev16	r2, r2
 5007 1174 1A80     		strh	r2, [r3]	@ movhi
3035:HANcoder_E407_TTA_CombineModel.c ****         canTxData.uint8_T_info[3] = rtB.Cast1_c;
 5008              		.loc 1 3035 35 view .LVU1792
 5009 1176 5880     		strh	r0, [r3, #2]	@ movhi
3006:HANcoder_E407_TTA_CombineModel.c **** 
 5010              		.loc 1 3006 18 view .LVU1793
 5011 1178 6882     		strh	r0, [r5, #18]	@ movhi
3020:HANcoder_E407_TTA_CombineModel.c **** 
 5012              		.loc 1 3020 18 view .LVU1794
 5013 117a AA82     		strh	r2, [r5, #20]	@ movhi
3043:HANcoder_E407_TTA_CombineModel.c ****       }
 5014              		.loc 1 3043 9 view .LVU1795
 5015 117c A248     		ldr	r0, .L461+8
2947:HANcoder_E407_TTA_CombineModel.c **** 
 5016              		.loc 1 2947 35 view .LVU1796
 5017 117e 94F8DF20 		ldrb	r2, [r4, #223]	@ zero_extendqisi2
3037:HANcoder_E407_TTA_CombineModel.c ****         canTxData.uint8_T_info[5] = rtB.DataStoreRead3_c;
 5018              		.loc 1 3037 35 view .LVU1797
 5019 1182 1A71     		strb	r2, [r3, #4]
2947:HANcoder_E407_TTA_CombineModel.c **** 
 5020              		.loc 1 2947 26 view .LVU1798
 5021 1184 EA73     		strb	r2, [r5, #15]
2950:HANcoder_E407_TTA_CombineModel.c **** 
 5022              		.loc 1 2950 7 is_stmt 1 view .LVU1799
2950:HANcoder_E407_TTA_CombineModel.c **** 
 5023              		.loc 1 2950 37 is_stmt 0 view .LVU1800
 5024 1186 94F8E020 		ldrb	r2, [r4, #224]	@ zero_extendqisi2
3038:HANcoder_E407_TTA_CombineModel.c ****         canTxData.uint8_T_info[6] = rtB.Add_f;
 5025              		.loc 1 3038 35 view .LVU1801
 5026 118a 5A71     		strb	r2, [r3, #5]
2950:HANcoder_E407_TTA_CombineModel.c **** 
 5027              		.loc 1 2950 28 view .LVU1802
 5028 118c 2A74     		strb	r2, [r5, #16]
2955:HANcoder_E407_TTA_CombineModel.c **** 
 5029              		.loc 1 2955 7 is_stmt 1 view .LVU1803
 5030              	.LVL328:
2958:HANcoder_E407_TTA_CombineModel.c **** 
 5031              		.loc 1 2958 7 view .LVU1804
 5032              	.LBB437:
 5033              	.LBI374:
 645:HANcoder_E407_TTA_CombineModel.c **** {
 5034              		.loc 1 645 6 view .LVU1805
 5035              	.LBB379:
 650:HANcoder_E407_TTA_CombineModel.c **** }
 5036              		.loc 1 650 3 view .LVU1806
 650:HANcoder_E407_TTA_CombineModel.c **** }
 5037              		.loc 1 650 3 is_stmt 0 view .LVU1807
 5038              	.LBE379:
 5039              	.LBE437:
2963:HANcoder_E407_TTA_CombineModel.c **** 
 5040              		.loc 1 2963 7 is_stmt 1 view .LVU1808
 5041              	.LBB438:
 5042              	.LBI380:
 629:HANcoder_E407_TTA_CombineModel.c **** {
 5043              		.loc 1 629 6 view .LVU1809
 5044              	.LBB385:
 634:HANcoder_E407_TTA_CombineModel.c **** }
 5045              		.loc 1 634 3 view .LVU1810
 634:HANcoder_E407_TTA_CombineModel.c **** }
 5046              		.loc 1 634 3 is_stmt 0 view .LVU1811
 5047              	.LBE385:
 5048              	.LBE438:
2968:HANcoder_E407_TTA_CombineModel.c **** 
 5049              		.loc 1 2968 7 is_stmt 1 view .LVU1812
 5050              	.LBB439:
 5051              	.LBI391:
 661:HANcoder_E407_TTA_CombineModel.c **** {
 5052              		.loc 1 661 6 view .LVU1813
 5053              	.LBB395:
 666:HANcoder_E407_TTA_CombineModel.c **** }
 5054              		.loc 1 666 3 view .LVU1814
 666:HANcoder_E407_TTA_CombineModel.c **** }
 5055              		.loc 1 666 3 is_stmt 0 view .LVU1815
 5056              	.LBE395:
 5057              	.LBE439:
2973:HANcoder_E407_TTA_CombineModel.c **** 
 5058              		.loc 1 2973 7 is_stmt 1 view .LVU1816
 5059              	.LBB440:
 5060              	.LBI397:
 677:HANcoder_E407_TTA_CombineModel.c **** {
 5061              		.loc 1 677 6 view .LVU1817
 5062              	.LBB402:
 682:HANcoder_E407_TTA_CombineModel.c **** }
 5063              		.loc 1 682 3 view .LVU1818
 682:HANcoder_E407_TTA_CombineModel.c **** }
 5064              		.loc 1 682 3 is_stmt 0 view .LVU1819
 5065              	.LBE402:
 5066              	.LBE440:
2978:HANcoder_E407_TTA_CombineModel.c **** 
 5067              		.loc 1 2978 7 is_stmt 1 view .LVU1820
 5068              	.LBB441:
 5069              	.LBI408:
 693:HANcoder_E407_TTA_CombineModel.c **** {
 5070              		.loc 1 693 6 view .LVU1821
 5071              	.LBB411:
 698:HANcoder_E407_TTA_CombineModel.c **** }
 5072              		.loc 1 698 3 view .LVU1822
 698:HANcoder_E407_TTA_CombineModel.c **** }
 5073              		.loc 1 698 3 is_stmt 0 view .LVU1823
 5074              	.LBE411:
 5075              	.LBE441:
2983:HANcoder_E407_TTA_CombineModel.c **** 
 5076              		.loc 1 2983 7 is_stmt 1 view .LVU1824
 5077              	.LBB442:
 5078              	.LBI413:
 709:HANcoder_E407_TTA_CombineModel.c **** {
 5079              		.loc 1 709 6 view .LVU1825
 5080              	.LBB417:
 714:HANcoder_E407_TTA_CombineModel.c **** }
 5081              		.loc 1 714 3 view .LVU1826
 714:HANcoder_E407_TTA_CombineModel.c **** }
 5082              		.loc 1 714 3 is_stmt 0 view .LVU1827
 5083              	.LBE417:
 5084              	.LBE442:
2988:HANcoder_E407_TTA_CombineModel.c **** 
 5085              		.loc 1 2988 7 is_stmt 1 view .LVU1828
 5086              	.LBB443:
 5087              	.LBI418:
 725:HANcoder_E407_TTA_CombineModel.c **** {
 5088              		.loc 1 725 6 view .LVU1829
 5089              	.LBB422:
 730:HANcoder_E407_TTA_CombineModel.c **** }
 5090              		.loc 1 730 3 view .LVU1830
 730:HANcoder_E407_TTA_CombineModel.c **** }
 5091              		.loc 1 730 3 is_stmt 0 view .LVU1831
 5092              	.LBE422:
 5093              	.LBE443:
2993:HANcoder_E407_TTA_CombineModel.c ****         (uint8_T)((uint32_T)(uint8_T)((uint32_T)(uint8_T)((uint32_T)(uint8_T)
 5094              		.loc 1 2993 7 is_stmt 1 view .LVU1832
3001:HANcoder_E407_TTA_CombineModel.c **** 
 5095              		.loc 1 3001 7 view .LVU1833
 5096              	.LBB444:
 5097              	.LBI426:
 746:HANcoder_E407_TTA_CombineModel.c **** {
 5098              		.loc 1 746 6 view .LVU1834
 5099              	.LBB429:
 751:HANcoder_E407_TTA_CombineModel.c **** }
 5100              		.loc 1 751 3 view .LVU1835
 751:HANcoder_E407_TTA_CombineModel.c **** }
 5101              		.loc 1 751 3 is_stmt 0 view .LVU1836
 5102              	.LBE429:
 5103              	.LBE444:
3006:HANcoder_E407_TTA_CombineModel.c **** 
 5104              		.loc 1 3006 7 is_stmt 1 view .LVU1837
3011:HANcoder_E407_TTA_CombineModel.c **** 
 5105              		.loc 1 3011 7 view .LVU1838
3015:HANcoder_E407_TTA_CombineModel.c **** 
 5106              		.loc 1 3015 7 view .LVU1839
 5107              	.LBB445:
 5108              	.LBI432:
 746:HANcoder_E407_TTA_CombineModel.c **** {
 5109              		.loc 1 746 6 view .LVU1840
 5110              	.LBB435:
 751:HANcoder_E407_TTA_CombineModel.c **** }
 5111              		.loc 1 751 3 view .LVU1841
 751:HANcoder_E407_TTA_CombineModel.c **** }
 5112              		.loc 1 751 3 is_stmt 0 view .LVU1842
 5113              	.LBE435:
 5114              	.LBE445:
3020:HANcoder_E407_TTA_CombineModel.c **** 
 5115              		.loc 1 3020 7 is_stmt 1 view .LVU1843
3025:HANcoder_E407_TTA_CombineModel.c **** 
 5116              		.loc 1 3025 7 view .LVU1844
3033:HANcoder_E407_TTA_CombineModel.c ****         canTxData.uint8_T_info[1] = rtB.Cast1_i;
 5117              		.loc 1 3033 9 view .LVU1845
3034:HANcoder_E407_TTA_CombineModel.c ****         canTxData.uint8_T_info[2] = rtB.Cast_d;
 5118              		.loc 1 3034 9 view .LVU1846
3035:HANcoder_E407_TTA_CombineModel.c ****         canTxData.uint8_T_info[3] = rtB.Cast1_c;
 5119              		.loc 1 3035 9 view .LVU1847
3036:HANcoder_E407_TTA_CombineModel.c ****         canTxData.uint8_T_info[4] = rtB.DataStoreRead2;
 5120              		.loc 1 3036 9 view .LVU1848
3037:HANcoder_E407_TTA_CombineModel.c ****         canTxData.uint8_T_info[5] = rtB.DataStoreRead3_c;
 5121              		.loc 1 3037 9 view .LVU1849
3038:HANcoder_E407_TTA_CombineModel.c ****         canTxData.uint8_T_info[6] = rtB.Add_f;
 5122              		.loc 1 3038 9 view .LVU1850
3039:HANcoder_E407_TTA_CombineModel.c ****         canTxData.uint8_T_info[7] = ((uint8_T)0U);
 5123              		.loc 1 3039 9 view .LVU1851
3039:HANcoder_E407_TTA_CombineModel.c ****         canTxData.uint8_T_info[7] = ((uint8_T)0U);
 5124              		.loc 1 3039 35 is_stmt 0 view .LVU1852
 5125 118e 9971     		strb	r1, [r3, #6]
3040:HANcoder_E407_TTA_CombineModel.c **** 
 5126              		.loc 1 3040 9 is_stmt 1 view .LVU1853
3043:HANcoder_E407_TTA_CombineModel.c ****       }
 5127              		.loc 1 3043 9 is_stmt 0 view .LVU1854
 5128 1190 0168     		ldr	r1, [r0]
3040:HANcoder_E407_TTA_CombineModel.c **** 
 5129              		.loc 1 3040 35 view .LVU1855
 5130 1192 0020     		movs	r0, #0
 5131 1194 D871     		strb	r0, [r3, #7]
3043:HANcoder_E407_TTA_CombineModel.c ****       }
 5132              		.loc 1 3043 9 is_stmt 1 view .LVU1856
 5133 1196 0822     		movs	r2, #8
 5134 1198 FFF7FEFF 		bl	CanTransmit
 5135              	.LVL329:
3054:HANcoder_E407_TTA_CombineModel.c **** 
 5136              		.loc 1 3054 28 is_stmt 0 view .LVU1857
 5137 119c 9B4B     		ldr	r3, .L461+12
 5138 119e 1B78     		ldrb	r3, [r3]	@ zero_extendqisi2
 5139 11a0 07EE903A 		vmov	s15, r3	@ int
3060:HANcoder_E407_TTA_CombineModel.c **** 
 5140              		.loc 1 3060 23 view .LVU1858
 5141 11a4 94F8DE30 		ldrb	r3, [r4, #222]	@ zero_extendqisi2
 5142 11a8 07EE103A 		vmov	s14, r3	@ int
3054:HANcoder_E407_TTA_CombineModel.c **** 
 5143              		.loc 1 3054 28 view .LVU1859
 5144 11ac F8EEE77A 		vcvt.f32.s32	s15, s15
3060:HANcoder_E407_TTA_CombineModel.c **** 
 5145              		.loc 1 3060 33 view .LVU1860
 5146 11b0 B8EEC77A 		vcvt.f32.s32	s14, s14
2940:HANcoder_E407_TTA_CombineModel.c **** 
 5147              		.loc 1 2940 13 view .LVU1861
 5148 11b4 0123     		movs	r3, #1
 5149 11b6 FFF7CFB8 		b	.L224
 5150              	.LVL330:
 5151              	.L167:
2329:HANcoder_E407_TTA_CombineModel.c ****          POS_ZCSIG)) {
 5152              		.loc 1 2329 5 is_stmt 1 view .LVU1862
2329:HANcoder_E407_TTA_CombineModel.c ****          POS_ZCSIG)) {
 5153              		.loc 1 2329 49 is_stmt 0 view .LVU1863
 5154 11ba 9AF80530 		ldrb	r3, [r10, #5]	@ zero_extendqisi2
2329:HANcoder_E407_TTA_CombineModel.c ****          POS_ZCSIG)) {
 5155              		.loc 1 2329 29 view .LVU1864
 5156 11be 012B     		cmp	r3, #1
 5157 11c0 3FF477A8 		beq	.L168
2332:HANcoder_E407_TTA_CombineModel.c **** 
 5158              		.loc 1 2332 7 is_stmt 1 view .LVU1865
2345:HANcoder_E407_TTA_CombineModel.c **** 
 5159              		.loc 1 2345 7 is_stmt 0 view .LVU1866
 5160 11c4 8E4A     		ldr	r2, .L461
 5161              	.LBB446:
 5162              	.LBB447:
 650:HANcoder_E407_TTA_CombineModel.c **** }
 5163              		.loc 1 650 15 view .LVU1867
 5164 11c6 94F8F010 		ldrb	r1, [r4, #240]	@ zero_extendqisi2
 5165              	.LBE447:
 5166              	.LBE446:
 5167              	.LBB452:
 5168              	.LBB453:
 634:HANcoder_E407_TTA_CombineModel.c **** }
 5169              		.loc 1 634 15 view .LVU1868
 5170 11ca 92F83630 		ldrb	r3, [r2, #54]	@ zero_extendqisi2
 5171              	.LBE453:
 5172              	.LBE452:
2379:HANcoder_E407_TTA_CombineModel.c ****         ((uint32_T)rtDWork.motorFailed + rtB.BitShift1_k.y) + rtB.BitShift_p.y)
 5173              		.loc 1 2379 49 view .LVU1869
 5174 11ce 94F8EF60 		ldrb	r6, [r4, #239]	@ zero_extendqisi2
 5175              	.LBB458:
 5176              	.LBB448:
 650:HANcoder_E407_TTA_CombineModel.c **** }
 5177              		.loc 1 650 15 view .LVU1870
 5178 11d2 4900     		lsls	r1, r1, #1
 5179              	.LBE448:
 5180              	.LBE458:
 5181              	.LBB459:
 5182              	.LBB454:
 634:HANcoder_E407_TTA_CombineModel.c **** }
 5183              		.loc 1 634 15 view .LVU1871
 5184 11d4 9B00     		lsls	r3, r3, #2
 5185              	.LBE454:
 5186              	.LBE459:
 5187              	.LBB460:
 5188              	.LBB449:
 650:HANcoder_E407_TTA_CombineModel.c **** }
 5189              		.loc 1 650 15 view .LVU1872
 5190 11d6 C9B2     		uxtb	r1, r1
 5191              	.LBE449:
 5192              	.LBE460:
 5193              	.LBB461:
 5194              	.LBB455:
 634:HANcoder_E407_TTA_CombineModel.c **** }
 5195              		.loc 1 634 15 view .LVU1873
 5196 11d8 DBB2     		uxtb	r3, r3
 5197              	.LBE455:
 5198              	.LBE461:
2379:HANcoder_E407_TTA_CombineModel.c ****         ((uint32_T)rtDWork.motorFailed + rtB.BitShift1_k.y) + rtB.BitShift_p.y)
 5199              		.loc 1 2379 49 view .LVU1874
 5200 11da 5818     		adds	r0, r3, r1
 5201              	.LBB462:
 5202              	.LBB450:
 650:HANcoder_E407_TTA_CombineModel.c **** }
 5203              		.loc 1 650 13 view .LVU1875
 5204 11dc 85F8A910 		strb	r1, [r5, #169]
 5205              	.LBE450:
 5206              	.LBE462:
 5207              	.LBB463:
 5208              	.LBB464:
 666:HANcoder_E407_TTA_CombineModel.c **** }
 5209              		.loc 1 666 15 view .LVU1876
 5210 11e0 92F83710 		ldrb	r1, [r2, #55]	@ zero_extendqisi2
 5211              	.LBE464:
 5212              	.LBE463:
 5213              	.LBB469:
 5214              	.LBB456:
 634:HANcoder_E407_TTA_CombineModel.c **** }
 5215              		.loc 1 634 13 view .LVU1877
 5216 11e4 85F8AA30 		strb	r3, [r5, #170]
 5217              	.LBE456:
 5218              	.LBE469:
 5219              	.LBB470:
 5220              	.LBB471:
 682:HANcoder_E407_TTA_CombineModel.c **** }
 5221              		.loc 1 682 15 view .LVU1878
 5222 11e8 92F83830 		ldrb	r3, [r2, #56]	@ zero_extendqisi2
 5223              	.LBE471:
 5224              	.LBE470:
 5225              	.LBB476:
 5226              	.LBB465:
 666:HANcoder_E407_TTA_CombineModel.c **** }
 5227              		.loc 1 666 15 view .LVU1879
 5228 11ec C900     		lsls	r1, r1, #3
 5229              	.LBE465:
 5230              	.LBE476:
2379:HANcoder_E407_TTA_CombineModel.c ****         ((uint32_T)rtDWork.motorFailed + rtB.BitShift1_k.y) + rtB.BitShift_p.y)
 5231              		.loc 1 2379 49 view .LVU1880
 5232 11ee 3044     		add	r0, r0, r6
 5233              	.LBB477:
 5234              	.LBB466:
 666:HANcoder_E407_TTA_CombineModel.c **** }
 5235              		.loc 1 666 15 view .LVU1881
 5236 11f0 C9B2     		uxtb	r1, r1
 5237              	.LBE466:
 5238              	.LBE477:
 5239              	.LBB478:
 5240              	.LBB472:
 682:HANcoder_E407_TTA_CombineModel.c **** }
 5241              		.loc 1 682 15 view .LVU1882
 5242 11f2 1B01     		lsls	r3, r3, #4
 5243              	.LBE472:
 5244              	.LBE478:
 5245              	.LBB479:
 5246              	.LBB467:
 666:HANcoder_E407_TTA_CombineModel.c **** }
 5247              		.loc 1 666 13 view .LVU1883
 5248 11f4 85F8A810 		strb	r1, [r5, #168]
 5249              	.LBE467:
 5250              	.LBE479:
 5251              	.LBB480:
 5252              	.LBB473:
 682:HANcoder_E407_TTA_CombineModel.c **** }
 5253              		.loc 1 682 15 view .LVU1884
 5254 11f8 DBB2     		uxtb	r3, r3
 5255              	.LBE473:
 5256              	.LBE480:
2379:HANcoder_E407_TTA_CombineModel.c ****         ((uint32_T)rtDWork.motorFailed + rtB.BitShift1_k.y) + rtB.BitShift_p.y)
 5257              		.loc 1 2379 29 view .LVU1885
 5258 11fa 0144     		add	r1, r1, r0
 5259              	.LBB481:
 5260              	.LBB474:
 682:HANcoder_E407_TTA_CombineModel.c **** }
 5261              		.loc 1 682 13 view .LVU1886
 5262 11fc 85F8A730 		strb	r3, [r5, #167]
 5263              	.LBE474:
 5264              	.LBE481:
2379:HANcoder_E407_TTA_CombineModel.c ****         ((uint32_T)rtDWork.motorFailed + rtB.BitShift1_k.y) + rtB.BitShift_p.y)
 5265              		.loc 1 2379 9 view .LVU1887
 5266 1200 0B44     		add	r3, r3, r1
 5267              	.LBB482:
 5268              	.LBB483:
 698:HANcoder_E407_TTA_CombineModel.c **** }
 5269              		.loc 1 698 15 view .LVU1888
 5270 1202 92F83910 		ldrb	r1, [r2, #57]	@ zero_extendqisi2
 5271 1206 B4F85000 		ldrh	r0, [r4, #80]
 5272              	.LBE483:
 5273              	.LBE482:
2429:HANcoder_E407_TTA_CombineModel.c ****       }
 5274              		.loc 1 2429 9 view .LVU1889
 5275 120a 814E     		ldr	r6, .L461+16
 5276              	.LBB487:
 5277              	.LBB484:
 698:HANcoder_E407_TTA_CombineModel.c **** }
 5278              		.loc 1 698 15 view .LVU1890
 5279 120c 4901     		lsls	r1, r1, #5
 5280 120e C9B2     		uxtb	r1, r1
 5281              	.LBE484:
 5282              	.LBE487:
2378:HANcoder_E407_TTA_CombineModel.c ****         (uint8_T)((uint32_T)(uint8_T)((uint32_T)(uint8_T)((uint32_T)(uint8_T)
 5283              		.loc 1 2378 60 view .LVU1891
 5284 1210 0B44     		add	r3, r3, r1
 5285              	.LBB488:
 5286              	.LBB485:
 698:HANcoder_E407_TTA_CombineModel.c **** }
 5287              		.loc 1 698 13 view .LVU1892
 5288 1212 85F8A610 		strb	r1, [r5, #166]
 5289              	.LBE485:
 5290              	.LBE488:
 5291              	.LBB489:
 5292              	.LBB490:
 714:HANcoder_E407_TTA_CombineModel.c **** }
 5293              		.loc 1 714 15 view .LVU1893
 5294 1216 92F83A10 		ldrb	r1, [r2, #58]	@ zero_extendqisi2
 5295              	.LBE490:
 5296              	.LBE489:
 5297              	.LBB494:
 5298              	.LBB495:
 730:HANcoder_E407_TTA_CombineModel.c **** }
 5299              		.loc 1 730 15 view .LVU1894
 5300 121a 92F83B20 		ldrb	r2, [r2, #59]	@ zero_extendqisi2
 5301              	.LBE495:
 5302              	.LBE494:
 5303              	.LBB499:
 5304              	.LBB491:
 714:HANcoder_E407_TTA_CombineModel.c **** }
 5305              		.loc 1 714 15 view .LVU1895
 5306 121e 8901     		lsls	r1, r1, #6
 5307 1220 C9B2     		uxtb	r1, r1
 5308              	.LBE491:
 5309              	.LBE499:
 5310              	.LBB500:
 5311              	.LBB496:
 730:HANcoder_E407_TTA_CombineModel.c **** }
 5312              		.loc 1 730 15 view .LVU1896
 5313 1222 D201     		lsls	r2, r2, #7
 5314 1224 D2B2     		uxtb	r2, r2
 5315              	.LBE496:
 5316              	.LBE500:
2378:HANcoder_E407_TTA_CombineModel.c ****         (uint8_T)((uint32_T)(uint8_T)((uint32_T)(uint8_T)((uint32_T)(uint8_T)
 5317              		.loc 1 2378 40 view .LVU1897
 5318 1226 0B44     		add	r3, r3, r1
2378:HANcoder_E407_TTA_CombineModel.c ****         (uint8_T)((uint32_T)(uint8_T)((uint32_T)(uint8_T)((uint32_T)(uint8_T)
 5319              		.loc 1 2378 20 view .LVU1898
 5320 1228 1344     		add	r3, r3, r2
 5321              	.LBB501:
 5322              	.LBB497:
 730:HANcoder_E407_TTA_CombineModel.c **** }
 5323              		.loc 1 730 13 view .LVU1899
 5324 122a 85F8A420 		strb	r2, [r5, #164]
 5325              	.LBE497:
 5326              	.LBE501:
2378:HANcoder_E407_TTA_CombineModel.c ****         (uint8_T)((uint32_T)(uint8_T)((uint32_T)(uint8_T)((uint32_T)(uint8_T)
 5327              		.loc 1 2378 20 view .LVU1900
 5328 122e DAB2     		uxtb	r2, r3
2386:HANcoder_E407_TTA_CombineModel.c **** 
 5329              		.loc 1 2386 7 view .LVU1901
 5330 1230 B4F85E30 		ldrh	r3, [r4, #94]
2396:HANcoder_E407_TTA_CombineModel.c **** 
 5331              		.loc 1 2396 22 view .LVU1902
 5332 1234 85F82430 		strb	r3, [r5, #36]
 5333              	.LBB502:
 5334              	.LBB503:
 751:HANcoder_E407_TTA_CombineModel.c **** }
 5335              		.loc 1 751 15 view .LVU1903
 5336 1238 1B0A     		lsrs	r3, r3, #8
 751:HANcoder_E407_TTA_CombineModel.c **** }
 5337              		.loc 1 751 13 view .LVU1904
 5338 123a A5F8A230 		strh	r3, [r5, #162]	@ movhi
 5339              	.LBE503:
 5340              	.LBE502:
2391:HANcoder_E407_TTA_CombineModel.c **** 
 5341              		.loc 1 2391 20 view .LVU1905
 5342 123e 85F82330 		strb	r3, [r5, #35]
2400:HANcoder_E407_TTA_CombineModel.c **** 
 5343              		.loc 1 2400 7 view .LVU1906
 5344 1242 B4F85030 		ldrh	r3, [r4, #80]
 5345              	.LBB505:
 5346              	.LBB492:
 714:HANcoder_E407_TTA_CombineModel.c **** }
 5347              		.loc 1 714 13 view .LVU1907
 5348 1246 85F8A510 		strb	r1, [r5, #165]
 5349              	.LBE492:
 5350              	.LBE505:
2410:HANcoder_E407_TTA_CombineModel.c **** 
 5351              		.loc 1 2410 22 view .LVU1908
 5352 124a 85F82630 		strb	r3, [r5, #38]
 5353 124e B4F85E10 		ldrh	r1, [r4, #94]
2378:HANcoder_E407_TTA_CombineModel.c ****         (uint8_T)((uint32_T)(uint8_T)((uint32_T)(uint8_T)((uint32_T)(uint8_T)
 5354              		.loc 1 2378 18 view .LVU1909
 5355 1252 85F82220 		strb	r2, [r5, #34]
 5356              	.LBB506:
 5357              	.LBB507:
 751:HANcoder_E407_TTA_CombineModel.c **** }
 5358              		.loc 1 751 15 view .LVU1910
 5359 1256 1B0A     		lsrs	r3, r3, #8
 751:HANcoder_E407_TTA_CombineModel.c **** }
 5360              		.loc 1 751 13 view .LVU1911
 5361 1258 A5F8A030 		strh	r3, [r5, #160]	@ movhi
 5362              	.LBE507:
 5363              	.LBE506:
2405:HANcoder_E407_TTA_CombineModel.c **** 
 5364              		.loc 1 2405 20 view .LVU1912
 5365 125c 85F82530 		strb	r3, [r5, #37]
2419:HANcoder_E407_TTA_CombineModel.c ****         canTxData.uint8_T_info[1] = rtB.Cast1_ig;
 5366              		.loc 1 2419 35 view .LVU1913
 5367 1260 684B     		ldr	r3, .L461+4
 5368 1262 49BA     		rev16	r1, r1
 5369 1264 40BA     		rev16	r0, r0
 5370 1266 1880     		strh	r0, [r3]	@ movhi
2421:HANcoder_E407_TTA_CombineModel.c ****         canTxData.uint8_T_info[3] = rtB.Cast1_nt;
 5371              		.loc 1 2421 35 view .LVU1914
 5372 1268 5980     		strh	r1, [r3, #2]	@ movhi
2424:HANcoder_E407_TTA_CombineModel.c ****         canTxData.uint8_T_info[6] = rtB.Add_jr;
 5373              		.loc 1 2424 35 view .LVU1915
 5374 126a 0020     		movs	r0, #0
2332:HANcoder_E407_TTA_CombineModel.c **** 
 5375              		.loc 1 2332 37 view .LVU1916
 5376 126c 94F8DF10 		ldrb	r1, [r4, #223]	@ zero_extendqisi2
2423:HANcoder_E407_TTA_CombineModel.c ****         canTxData.uint8_T_info[5] = ((uint8_T)0U);
 5377              		.loc 1 2423 35 view .LVU1917
 5378 1270 1971     		strb	r1, [r3, #4]
2424:HANcoder_E407_TTA_CombineModel.c ****         canTxData.uint8_T_info[6] = rtB.Add_jr;
 5379              		.loc 1 2424 35 view .LVU1918
 5380 1272 5871     		strb	r0, [r3, #5]
2332:HANcoder_E407_TTA_CombineModel.c **** 
 5381              		.loc 1 2332 28 view .LVU1919
 5382 1274 85F82110 		strb	r1, [r5, #33]
2337:HANcoder_E407_TTA_CombineModel.c **** 
 5383              		.loc 1 2337 7 is_stmt 1 view .LVU1920
 5384              	.LVL331:
2340:HANcoder_E407_TTA_CombineModel.c **** 
 5385              		.loc 1 2340 7 view .LVU1921
 5386              	.LBB509:
 5387              	.LBI446:
 645:HANcoder_E407_TTA_CombineModel.c **** {
 5388              		.loc 1 645 6 view .LVU1922
 5389              	.LBB451:
 650:HANcoder_E407_TTA_CombineModel.c **** }
 5390              		.loc 1 650 3 view .LVU1923
 650:HANcoder_E407_TTA_CombineModel.c **** }
 5391              		.loc 1 650 3 is_stmt 0 view .LVU1924
 5392              	.LBE451:
 5393              	.LBE509:
2345:HANcoder_E407_TTA_CombineModel.c **** 
 5394              		.loc 1 2345 7 is_stmt 1 view .LVU1925
 5395              	.LBB510:
 5396              	.LBI452:
 629:HANcoder_E407_TTA_CombineModel.c **** {
 5397              		.loc 1 629 6 view .LVU1926
 5398              	.LBB457:
 634:HANcoder_E407_TTA_CombineModel.c **** }
 5399              		.loc 1 634 3 view .LVU1927
 634:HANcoder_E407_TTA_CombineModel.c **** }
 5400              		.loc 1 634 3 is_stmt 0 view .LVU1928
 5401              	.LBE457:
 5402              	.LBE510:
2350:HANcoder_E407_TTA_CombineModel.c **** 
 5403              		.loc 1 2350 7 is_stmt 1 view .LVU1929
 5404              	.LBB511:
 5405              	.LBI463:
 661:HANcoder_E407_TTA_CombineModel.c **** {
 5406              		.loc 1 661 6 view .LVU1930
 5407              	.LBB468:
 666:HANcoder_E407_TTA_CombineModel.c **** }
 5408              		.loc 1 666 3 view .LVU1931
 666:HANcoder_E407_TTA_CombineModel.c **** }
 5409              		.loc 1 666 3 is_stmt 0 view .LVU1932
 5410              	.LBE468:
 5411              	.LBE511:
2355:HANcoder_E407_TTA_CombineModel.c **** 
 5412              		.loc 1 2355 7 is_stmt 1 view .LVU1933
 5413              	.LBB512:
 5414              	.LBI470:
 677:HANcoder_E407_TTA_CombineModel.c **** {
 5415              		.loc 1 677 6 view .LVU1934
 5416              	.LBB475:
 682:HANcoder_E407_TTA_CombineModel.c **** }
 5417              		.loc 1 682 3 view .LVU1935
 682:HANcoder_E407_TTA_CombineModel.c **** }
 5418              		.loc 1 682 3 is_stmt 0 view .LVU1936
 5419              	.LBE475:
 5420              	.LBE512:
2360:HANcoder_E407_TTA_CombineModel.c **** 
 5421              		.loc 1 2360 7 is_stmt 1 view .LVU1937
 5422              	.LBB513:
 5423              	.LBI482:
 693:HANcoder_E407_TTA_CombineModel.c **** {
 5424              		.loc 1 693 6 view .LVU1938
 5425              	.LBB486:
 698:HANcoder_E407_TTA_CombineModel.c **** }
 5426              		.loc 1 698 3 view .LVU1939
 698:HANcoder_E407_TTA_CombineModel.c **** }
 5427              		.loc 1 698 3 is_stmt 0 view .LVU1940
 5428              	.LBE486:
 5429              	.LBE513:
2365:HANcoder_E407_TTA_CombineModel.c **** 
 5430              		.loc 1 2365 7 is_stmt 1 view .LVU1941
 5431              	.LBB514:
 5432              	.LBI489:
 709:HANcoder_E407_TTA_CombineModel.c **** {
 5433              		.loc 1 709 6 view .LVU1942
 5434              	.LBB493:
 714:HANcoder_E407_TTA_CombineModel.c **** }
 5435              		.loc 1 714 3 view .LVU1943
 714:HANcoder_E407_TTA_CombineModel.c **** }
 5436              		.loc 1 714 3 is_stmt 0 view .LVU1944
 5437              	.LBE493:
 5438              	.LBE514:
2370:HANcoder_E407_TTA_CombineModel.c **** 
 5439              		.loc 1 2370 7 is_stmt 1 view .LVU1945
 5440              	.LBB515:
 5441              	.LBI494:
 725:HANcoder_E407_TTA_CombineModel.c **** {
 5442              		.loc 1 725 6 view .LVU1946
 5443              	.LBB498:
 730:HANcoder_E407_TTA_CombineModel.c **** }
 5444              		.loc 1 730 3 view .LVU1947
 730:HANcoder_E407_TTA_CombineModel.c **** }
 5445              		.loc 1 730 3 is_stmt 0 view .LVU1948
 5446              	.LBE498:
 5447              	.LBE515:
2378:HANcoder_E407_TTA_CombineModel.c ****         (uint8_T)((uint32_T)(uint8_T)((uint32_T)(uint8_T)((uint32_T)(uint8_T)
 5448              		.loc 1 2378 7 is_stmt 1 view .LVU1949
2386:HANcoder_E407_TTA_CombineModel.c **** 
 5449              		.loc 1 2386 7 view .LVU1950
 5450              	.LBB516:
 5451              	.LBI502:
 746:HANcoder_E407_TTA_CombineModel.c **** {
 5452              		.loc 1 746 6 view .LVU1951
 5453              	.LBB504:
 751:HANcoder_E407_TTA_CombineModel.c **** }
 5454              		.loc 1 751 3 view .LVU1952
 751:HANcoder_E407_TTA_CombineModel.c **** }
 5455              		.loc 1 751 3 is_stmt 0 view .LVU1953
 5456              	.LBE504:
 5457              	.LBE516:
2391:HANcoder_E407_TTA_CombineModel.c **** 
 5458              		.loc 1 2391 7 is_stmt 1 view .LVU1954
2396:HANcoder_E407_TTA_CombineModel.c **** 
 5459              		.loc 1 2396 7 view .LVU1955
2400:HANcoder_E407_TTA_CombineModel.c **** 
 5460              		.loc 1 2400 7 view .LVU1956
 5461              	.LBB517:
 5462              	.LBI506:
 746:HANcoder_E407_TTA_CombineModel.c **** {
 5463              		.loc 1 746 6 view .LVU1957
 5464              	.LBB508:
 751:HANcoder_E407_TTA_CombineModel.c **** }
 5465              		.loc 1 751 3 view .LVU1958
 751:HANcoder_E407_TTA_CombineModel.c **** }
 5466              		.loc 1 751 3 is_stmt 0 view .LVU1959
 5467              	.LBE508:
 5468              	.LBE517:
2405:HANcoder_E407_TTA_CombineModel.c **** 
 5469              		.loc 1 2405 7 is_stmt 1 view .LVU1960
2410:HANcoder_E407_TTA_CombineModel.c **** 
 5470              		.loc 1 2410 7 view .LVU1961
2419:HANcoder_E407_TTA_CombineModel.c ****         canTxData.uint8_T_info[1] = rtB.Cast1_ig;
 5471              		.loc 1 2419 9 view .LVU1962
2420:HANcoder_E407_TTA_CombineModel.c ****         canTxData.uint8_T_info[2] = rtB.Cast_o;
 5472              		.loc 1 2420 9 view .LVU1963
2421:HANcoder_E407_TTA_CombineModel.c ****         canTxData.uint8_T_info[3] = rtB.Cast1_nt;
 5473              		.loc 1 2421 9 view .LVU1964
2422:HANcoder_E407_TTA_CombineModel.c ****         canTxData.uint8_T_info[4] = rtB.DataStoreRead2_l;
 5474              		.loc 1 2422 9 view .LVU1965
2423:HANcoder_E407_TTA_CombineModel.c ****         canTxData.uint8_T_info[5] = ((uint8_T)0U);
 5475              		.loc 1 2423 9 view .LVU1966
2424:HANcoder_E407_TTA_CombineModel.c ****         canTxData.uint8_T_info[6] = rtB.Add_jr;
 5476              		.loc 1 2424 9 view .LVU1967
2425:HANcoder_E407_TTA_CombineModel.c ****         canTxData.uint8_T_info[7] = ((uint8_T)0U);
 5477              		.loc 1 2425 9 view .LVU1968
2425:HANcoder_E407_TTA_CombineModel.c ****         canTxData.uint8_T_info[7] = ((uint8_T)0U);
 5478              		.loc 1 2425 35 is_stmt 0 view .LVU1969
 5479 1278 9A71     		strb	r2, [r3, #6]
2426:HANcoder_E407_TTA_CombineModel.c **** 
 5480              		.loc 1 2426 9 is_stmt 1 view .LVU1970
2426:HANcoder_E407_TTA_CombineModel.c **** 
 5481              		.loc 1 2426 35 is_stmt 0 view .LVU1971
 5482 127a D871     		strb	r0, [r3, #7]
2429:HANcoder_E407_TTA_CombineModel.c ****       }
 5483              		.loc 1 2429 9 is_stmt 1 view .LVU1972
 5484 127c 3168     		ldr	r1, [r6]
 5485 127e 0822     		movs	r2, #8
 5486 1280 FFF7FEFF 		bl	CanTransmit
 5487              	.LVL332:
2440:HANcoder_E407_TTA_CombineModel.c **** 
 5488              		.loc 1 2440 41 is_stmt 0 view .LVU1973
 5489 1284 614B     		ldr	r3, .L461+12
 5490 1286 1B78     		ldrb	r3, [r3]	@ zero_extendqisi2
 5491 1288 07EE103A 		vmov	s14, r3	@ int
2446:HANcoder_E407_TTA_CombineModel.c **** 
 5492              		.loc 1 2446 22 view .LVU1974
 5493 128c 94F8DE30 		ldrb	r3, [r4, #222]	@ zero_extendqisi2
 5494 1290 07EE903A 		vmov	s15, r3	@ int
2440:HANcoder_E407_TTA_CombineModel.c **** 
 5495              		.loc 1 2440 41 view .LVU1975
 5496 1294 B8EEC77A 		vcvt.f32.s32	s14, s14
2446:HANcoder_E407_TTA_CombineModel.c **** 
 5497              		.loc 1 2446 32 view .LVU1976
 5498 1298 F8EEE77A 		vcvt.f32.s32	s15, s15
2324:HANcoder_E407_TTA_CombineModel.c **** 
 5499              		.loc 1 2324 25 view .LVU1977
 5500 129c 0123     		movs	r3, #1
 5501              	.LVL333:
 5502              	.L166:
2433:HANcoder_E407_TTA_CombineModel.c **** 
 5503              		.loc 1 2433 5 is_stmt 1 view .LVU1978
2451:HANcoder_E407_TTA_CombineModel.c **** 
 5504              		.loc 1 2451 37 is_stmt 0 view .LVU1979
 5505 129e F1EE006A 		vmov.f32	s13, #4.0e+0
 5506 12a2 B4EE667A 		vcmp.f32	s14, s13
 5507 12a6 F1EE10FA 		vmrs	APSR_nzcv, FPSCR
2433:HANcoder_E407_TTA_CombineModel.c **** 
 5508              		.loc 1 2433 44 view .LVU1980
 5509 12aa 8AF80530 		strb	r3, [r10, #5]
2440:HANcoder_E407_TTA_CombineModel.c **** 
 5510              		.loc 1 2440 5 is_stmt 1 view .LVU1981
 5511              	.LVL334:
2446:HANcoder_E407_TTA_CombineModel.c **** 
 5512              		.loc 1 2446 5 view .LVU1982
2451:HANcoder_E407_TTA_CombineModel.c **** 
 5513              		.loc 1 2451 5 view .LVU1983
2451:HANcoder_E407_TTA_CombineModel.c **** 
 5514              		.loc 1 2451 37 is_stmt 0 view .LVU1984
 5515 12ae 7FF402A8 		bne	.L169
2451:HANcoder_E407_TTA_CombineModel.c **** 
 5516              		.loc 1 2451 37 discriminator 1 view .LVU1985
 5517 12b2 B7EE007A 		vmov.f32	s14, #1.0e+0
 5518 12b6 F4EE477A 		vcmp.f32	s15, s14
 5519 12ba F1EE10FA 		vmrs	APSR_nzcv, FPSCR
 5520 12be 40F06F81 		bne	.L170
 5521              	.LVL335:
2456:HANcoder_E407_TTA_CombineModel.c ****       rtDWork.TRCK1_RX_MODE = true;
 5522              		.loc 1 2456 5 is_stmt 1 view .LVU1986
2556:HANcoder_E407_TTA_CombineModel.c ****       rtDWork.TRCK1_RX_MODE = false;
 5523              		.loc 1 2556 12 view .LVU1987
2556:HANcoder_E407_TTA_CombineModel.c ****       rtDWork.TRCK1_RX_MODE = false;
 5524              		.loc 1 2556 15 is_stmt 0 view .LVU1988
 5525 12c2 94F80131 		ldrb	r3, [r4, #257]	@ zero_extendqisi2
 5526 12c6 13B1     		cbz	r3, .L265
2557:HANcoder_E407_TTA_CombineModel.c ****     }
 5527              		.loc 1 2557 7 is_stmt 1 view .LVU1989
2557:HANcoder_E407_TTA_CombineModel.c ****     }
 5528              		.loc 1 2557 29 is_stmt 0 view .LVU1990
 5529 12c8 0023     		movs	r3, #0
 5530 12ca 84F80131 		strb	r3, [r4, #257]
2563:HANcoder_E407_TTA_CombineModel.c **** 
 5531              		.loc 1 2563 5 is_stmt 1 view .LVU1991
 5532              	.L265:
 5533              	.LVL336:
2568:HANcoder_E407_TTA_CombineModel.c ****     {
 5534              		.loc 1 2568 5 view .LVU1992
2568:HANcoder_E407_TTA_CombineModel.c ****     {
 5535              		.loc 1 2568 49 is_stmt 0 view .LVU1993
 5536 12ce 9AF80430 		ldrb	r3, [r10, #4]	@ zero_extendqisi2
2568:HANcoder_E407_TTA_CombineModel.c ****     {
 5537              		.loc 1 2568 29 view .LVU1994
 5538 12d2 012B     		cmp	r3, #1
 5539 12d4 3EF4F6AF 		beq	.L227
2571:HANcoder_E407_TTA_CombineModel.c **** 
 5540              		.loc 1 2571 7 is_stmt 1 view .LVU1995
2585:HANcoder_E407_TTA_CombineModel.c **** 
 5541              		.loc 1 2585 7 is_stmt 0 view .LVU1996
 5542 12d8 494E     		ldr	r6, .L461
2574:HANcoder_E407_TTA_CombineModel.c **** 
 5543              		.loc 1 2574 33 view .LVU1997
 5544 12da 94F8F000 		ldrb	r0, [r4, #240]	@ zero_extendqisi2
 5545              	.LBB518:
 5546              	.LBB519:
 634:HANcoder_E407_TTA_CombineModel.c **** }
 5547              		.loc 1 634 15 view .LVU1998
 5548 12de 96F83010 		ldrb	r1, [r6, #48]	@ zero_extendqisi2
 5549              	.LBE519:
 5550              	.LBE518:
 5551              	.LBB523:
 5552              	.LBB524:
 666:HANcoder_E407_TTA_CombineModel.c **** }
 5553              		.loc 1 666 15 view .LVU1999
 5554 12e2 96F83130 		ldrb	r3, [r6, #49]	@ zero_extendqisi2
 5555              	.LBE524:
 5556              	.LBE523:
2619:HANcoder_E407_TTA_CombineModel.c ****         ((uint32_T)rtDWork.motorFailed + rtB.BitShift1_n.y) + rtB.BitShift_gk.y)
 5557              		.loc 1 2619 49 view .LVU2000
 5558 12e6 94F8EF70 		ldrb	r7, [r4, #239]	@ zero_extendqisi2
 5559              	.LBB528:
 5560              	.LBB529:
 650:HANcoder_E407_TTA_CombineModel.c **** }
 5561              		.loc 1 650 15 view .LVU2001
 5562 12ea 4200     		lsls	r2, r0, #1
 5563              	.LBE529:
 5564              	.LBE528:
 5565              	.LBB533:
 5566              	.LBB520:
 634:HANcoder_E407_TTA_CombineModel.c **** }
 5567              		.loc 1 634 15 view .LVU2002
 5568 12ec 8900     		lsls	r1, r1, #2
 5569              	.LBE520:
 5570              	.LBE533:
 5571              	.LBB534:
 5572              	.LBB530:
 650:HANcoder_E407_TTA_CombineModel.c **** }
 5573              		.loc 1 650 15 view .LVU2003
 5574 12ee D2B2     		uxtb	r2, r2
 5575              	.LBE530:
 5576              	.LBE534:
 5577              	.LBB535:
 5578              	.LBB521:
 634:HANcoder_E407_TTA_CombineModel.c **** }
 5579              		.loc 1 634 15 view .LVU2004
 5580 12f0 C9B2     		uxtb	r1, r1
 634:HANcoder_E407_TTA_CombineModel.c **** }
 5581              		.loc 1 634 13 view .LVU2005
 5582 12f2 85F88E10 		strb	r1, [r5, #142]
 5583              	.LBE521:
 5584              	.LBE535:
 5585              	.LBB536:
 5586              	.LBB531:
 650:HANcoder_E407_TTA_CombineModel.c **** }
 5587              		.loc 1 650 13 view .LVU2006
 5588 12f6 85F88D20 		strb	r2, [r5, #141]
 5589              	.LBE531:
 5590              	.LBE536:
2619:HANcoder_E407_TTA_CombineModel.c ****         ((uint32_T)rtDWork.motorFailed + rtB.BitShift1_n.y) + rtB.BitShift_gk.y)
 5591              		.loc 1 2619 49 view .LVU2007
 5592 12fa 1144     		add	r1, r1, r2
 5593              	.LBB537:
 5594              	.LBB538:
 682:HANcoder_E407_TTA_CombineModel.c **** }
 5595              		.loc 1 682 15 view .LVU2008
 5596 12fc 96F83220 		ldrb	r2, [r6, #50]	@ zero_extendqisi2
 5597              	.LBE538:
 5598              	.LBE537:
 5599              	.LBB542:
 5600              	.LBB525:
 666:HANcoder_E407_TTA_CombineModel.c **** }
 5601              		.loc 1 666 15 view .LVU2009
 5602 1300 DB00     		lsls	r3, r3, #3
 5603 1302 DBB2     		uxtb	r3, r3
 5604              	.LBE525:
 5605              	.LBE542:
2619:HANcoder_E407_TTA_CombineModel.c ****         ((uint32_T)rtDWork.motorFailed + rtB.BitShift1_n.y) + rtB.BitShift_gk.y)
 5606              		.loc 1 2619 49 view .LVU2010
 5607 1304 3944     		add	r1, r1, r7
 5608              	.LBB543:
 5609              	.LBB539:
 682:HANcoder_E407_TTA_CombineModel.c **** }
 5610              		.loc 1 682 15 view .LVU2011
 5611 1306 1201     		lsls	r2, r2, #4
 5612 1308 D2B2     		uxtb	r2, r2
 5613              	.LBE539:
 5614              	.LBE543:
 5615              	.LBB544:
 5616              	.LBB526:
 666:HANcoder_E407_TTA_CombineModel.c **** }
 5617              		.loc 1 666 13 view .LVU2012
 5618 130a 85F88C30 		strb	r3, [r5, #140]
 5619              	.LBE526:
 5620              	.LBE544:
2619:HANcoder_E407_TTA_CombineModel.c ****         ((uint32_T)rtDWork.motorFailed + rtB.BitShift1_n.y) + rtB.BitShift_gk.y)
 5621              		.loc 1 2619 29 view .LVU2013
 5622 130e 0B44     		add	r3, r3, r1
 5623              	.LBB545:
 5624              	.LBB540:
 682:HANcoder_E407_TTA_CombineModel.c **** }
 5625              		.loc 1 682 13 view .LVU2014
 5626 1310 85F88B20 		strb	r2, [r5, #139]
 5627              	.LBE540:
 5628              	.LBE545:
2619:HANcoder_E407_TTA_CombineModel.c ****         ((uint32_T)rtDWork.motorFailed + rtB.BitShift1_n.y) + rtB.BitShift_gk.y)
 5629              		.loc 1 2619 9 view .LVU2015
 5630 1314 1344     		add	r3, r3, r2
 5631              	.LBB546:
 5632              	.LBB547:
 698:HANcoder_E407_TTA_CombineModel.c **** }
 5633              		.loc 1 698 15 view .LVU2016
 5634 1316 96F83320 		ldrb	r2, [r6, #51]	@ zero_extendqisi2
 5635              	.LBE547:
 5636              	.LBE546:
 5637              	.LBB551:
 5638              	.LBB552:
 714:HANcoder_E407_TTA_CombineModel.c **** }
 5639              		.loc 1 714 15 view .LVU2017
 5640 131a 96F83410 		ldrb	r1, [r6, #52]	@ zero_extendqisi2
 5641              	.LBE552:
 5642              	.LBE551:
 5643              	.LBB556:
 5644              	.LBB548:
 698:HANcoder_E407_TTA_CombineModel.c **** }
 5645              		.loc 1 698 15 view .LVU2018
 5646 131e 5201     		lsls	r2, r2, #5
 5647 1320 D2B2     		uxtb	r2, r2
 5648              	.LBE548:
 5649              	.LBE556:
2618:HANcoder_E407_TTA_CombineModel.c ****         (uint8_T)((uint32_T)(uint8_T)((uint32_T)(uint8_T)((uint32_T)(uint8_T)
 5650              		.loc 1 2618 59 view .LVU2019
 5651 1322 1344     		add	r3, r3, r2
 5652              	.LBB557:
 5653              	.LBB549:
 698:HANcoder_E407_TTA_CombineModel.c **** }
 5654              		.loc 1 698 13 view .LVU2020
 5655 1324 85F88A20 		strb	r2, [r5, #138]
 5656              	.LBE549:
 5657              	.LBE557:
 5658              	.LBB558:
 5659              	.LBB559:
 730:HANcoder_E407_TTA_CombineModel.c **** }
 5660              		.loc 1 730 15 view .LVU2021
 5661 1328 96F83520 		ldrb	r2, [r6, #53]	@ zero_extendqisi2
 5662 132c B4F85060 		ldrh	r6, [r4, #80]
 5663              	.LBE559:
 5664              	.LBE558:
 5665              	.LBB563:
 5666              	.LBB553:
 714:HANcoder_E407_TTA_CombineModel.c **** }
 5667              		.loc 1 714 15 view .LVU2022
 5668 1330 8901     		lsls	r1, r1, #6
 5669 1332 C9B2     		uxtb	r1, r1
 5670              	.LBE553:
 5671              	.LBE563:
 5672              	.LBB564:
 5673              	.LBB560:
 730:HANcoder_E407_TTA_CombineModel.c **** }
 5674              		.loc 1 730 15 view .LVU2023
 5675 1334 D201     		lsls	r2, r2, #7
 5676 1336 D2B2     		uxtb	r2, r2
 5677              	.LBE560:
 5678              	.LBE564:
2618:HANcoder_E407_TTA_CombineModel.c ****         (uint8_T)((uint32_T)(uint8_T)((uint32_T)(uint8_T)((uint32_T)(uint8_T)
 5679              		.loc 1 2618 39 view .LVU2024
 5680 1338 0B44     		add	r3, r3, r1
2618:HANcoder_E407_TTA_CombineModel.c ****         (uint8_T)((uint32_T)(uint8_T)((uint32_T)(uint8_T)((uint32_T)(uint8_T)
 5681              		.loc 1 2618 19 view .LVU2025
 5682 133a 1344     		add	r3, r3, r2
 5683              	.LBB565:
 5684              	.LBB561:
 730:HANcoder_E407_TTA_CombineModel.c **** }
 5685              		.loc 1 730 13 view .LVU2026
 5686 133c 85F88820 		strb	r2, [r5, #136]
 5687              	.LBE561:
 5688              	.LBE565:
2618:HANcoder_E407_TTA_CombineModel.c ****         (uint8_T)((uint32_T)(uint8_T)((uint32_T)(uint8_T)((uint32_T)(uint8_T)
 5689              		.loc 1 2618 19 view .LVU2027
 5690 1340 DAB2     		uxtb	r2, r3
2626:HANcoder_E407_TTA_CombineModel.c **** 
 5691              		.loc 1 2626 7 view .LVU2028
 5692 1342 B4F85E30 		ldrh	r3, [r4, #94]
2636:HANcoder_E407_TTA_CombineModel.c **** 
 5693              		.loc 1 2636 21 view .LVU2029
 5694 1346 AB77     		strb	r3, [r5, #30]
 5695              	.LBB566:
 5696              	.LBB567:
 751:HANcoder_E407_TTA_CombineModel.c **** }
 5697              		.loc 1 751 15 view .LVU2030
 5698 1348 1B0A     		lsrs	r3, r3, #8
 751:HANcoder_E407_TTA_CombineModel.c **** }
 5699              		.loc 1 751 13 view .LVU2031
 5700 134a A5F88630 		strh	r3, [r5, #134]	@ movhi
 5701              	.LBE567:
 5702              	.LBE566:
2631:HANcoder_E407_TTA_CombineModel.c **** 
 5703              		.loc 1 2631 20 view .LVU2032
 5704 134e 6B77     		strb	r3, [r5, #29]
2640:HANcoder_E407_TTA_CombineModel.c **** 
 5705              		.loc 1 2640 7 view .LVU2033
 5706 1350 B4F85030 		ldrh	r3, [r4, #80]
 5707              	.LBB569:
 5708              	.LBB554:
 714:HANcoder_E407_TTA_CombineModel.c **** }
 5709              		.loc 1 714 13 view .LVU2034
 5710 1354 85F88910 		strb	r1, [r5, #137]
 5711              	.LBE554:
 5712              	.LBE569:
2650:HANcoder_E407_TTA_CombineModel.c **** 
 5713              		.loc 1 2650 21 view .LVU2035
 5714 1358 85F82030 		strb	r3, [r5, #32]
 5715 135c B4F85E10 		ldrh	r1, [r4, #94]
2618:HANcoder_E407_TTA_CombineModel.c ****         (uint8_T)((uint32_T)(uint8_T)((uint32_T)(uint8_T)((uint32_T)(uint8_T)
 5716              		.loc 1 2618 17 view .LVU2036
 5717 1360 2A77     		strb	r2, [r5, #28]
 5718              	.LBB570:
 5719              	.LBB571:
 751:HANcoder_E407_TTA_CombineModel.c **** }
 5720              		.loc 1 751 15 view .LVU2037
 5721 1362 1B0A     		lsrs	r3, r3, #8
 751:HANcoder_E407_TTA_CombineModel.c **** }
 5722              		.loc 1 751 13 view .LVU2038
 5723 1364 A5F88430 		strh	r3, [r5, #132]	@ movhi
 5724              	.LBE571:
 5725              	.LBE570:
2645:HANcoder_E407_TTA_CombineModel.c **** 
 5726              		.loc 1 2645 20 view .LVU2039
 5727 1368 EB77     		strb	r3, [r5, #31]
2659:HANcoder_E407_TTA_CombineModel.c ****         canTxData.uint8_T_info[1] = rtB.Cast1_n;
 5728              		.loc 1 2659 35 view .LVU2040
 5729 136a 264B     		ldr	r3, .L461+4
 5730 136c 49BA     		rev16	r1, r1
2661:HANcoder_E407_TTA_CombineModel.c ****         canTxData.uint8_T_info[3] = rtB.Cast1_b;
 5731              		.loc 1 2661 35 view .LVU2041
 5732 136e 5980     		strh	r1, [r3, #2]	@ movhi
 5733 1370 76BA     		rev16	r6, r6
2574:HANcoder_E407_TTA_CombineModel.c **** 
 5734              		.loc 1 2574 24 view .LVU2042
 5735 1372 2849     		ldr	r1, .L461+20
2659:HANcoder_E407_TTA_CombineModel.c ****         canTxData.uint8_T_info[1] = rtB.Cast1_n;
 5736              		.loc 1 2659 35 view .LVU2043
 5737 1374 1E80     		strh	r6, [r3]	@ movhi
2669:HANcoder_E407_TTA_CombineModel.c ****       }
 5738              		.loc 1 2669 9 view .LVU2044
 5739 1376 284E     		ldr	r6, .L461+24
2574:HANcoder_E407_TTA_CombineModel.c **** 
 5740              		.loc 1 2574 24 view .LVU2045
 5741 1378 0870     		strb	r0, [r1]
2571:HANcoder_E407_TTA_CombineModel.c **** 
 5742              		.loc 1 2571 37 view .LVU2046
 5743 137a 94F8DF10 		ldrb	r1, [r4, #223]	@ zero_extendqisi2
2663:HANcoder_E407_TTA_CombineModel.c ****         canTxData.uint8_T_info[5] = ((uint8_T)0U);
 5744              		.loc 1 2663 35 view .LVU2047
 5745 137e 1971     		strb	r1, [r3, #4]
2664:HANcoder_E407_TTA_CombineModel.c ****         canTxData.uint8_T_info[6] = rtB.Add_j;
 5746              		.loc 1 2664 35 view .LVU2048
 5747 1380 0020     		movs	r0, #0
2571:HANcoder_E407_TTA_CombineModel.c **** 
 5748              		.loc 1 2571 28 view .LVU2049
 5749 1382 E976     		strb	r1, [r5, #27]
2574:HANcoder_E407_TTA_CombineModel.c **** 
 5750              		.loc 1 2574 7 is_stmt 1 view .LVU2050
2577:HANcoder_E407_TTA_CombineModel.c **** 
 5751              		.loc 1 2577 7 view .LVU2051
 5752              	.LVL337:
2580:HANcoder_E407_TTA_CombineModel.c **** 
 5753              		.loc 1 2580 7 view .LVU2052
 5754              	.LBB573:
 5755              	.LBI528:
 645:HANcoder_E407_TTA_CombineModel.c **** {
 5756              		.loc 1 645 6 view .LVU2053
 5757              	.LBB532:
 650:HANcoder_E407_TTA_CombineModel.c **** }
 5758              		.loc 1 650 3 view .LVU2054
 650:HANcoder_E407_TTA_CombineModel.c **** }
 5759              		.loc 1 650 3 is_stmt 0 view .LVU2055
 5760              	.LBE532:
 5761              	.LBE573:
2585:HANcoder_E407_TTA_CombineModel.c **** 
 5762              		.loc 1 2585 7 is_stmt 1 view .LVU2056
 5763              	.LBB574:
 5764              	.LBI518:
 629:HANcoder_E407_TTA_CombineModel.c **** {
 5765              		.loc 1 629 6 view .LVU2057
 5766              	.LBB522:
 634:HANcoder_E407_TTA_CombineModel.c **** }
 5767              		.loc 1 634 3 view .LVU2058
 634:HANcoder_E407_TTA_CombineModel.c **** }
 5768              		.loc 1 634 3 is_stmt 0 view .LVU2059
 5769              	.LBE522:
 5770              	.LBE574:
2590:HANcoder_E407_TTA_CombineModel.c **** 
 5771              		.loc 1 2590 7 is_stmt 1 view .LVU2060
 5772              	.LBB575:
 5773              	.LBI523:
 661:HANcoder_E407_TTA_CombineModel.c **** {
 5774              		.loc 1 661 6 view .LVU2061
 5775              	.LBB527:
 666:HANcoder_E407_TTA_CombineModel.c **** }
 5776              		.loc 1 666 3 view .LVU2062
 666:HANcoder_E407_TTA_CombineModel.c **** }
 5777              		.loc 1 666 3 is_stmt 0 view .LVU2063
 5778              	.LBE527:
 5779              	.LBE575:
2595:HANcoder_E407_TTA_CombineModel.c **** 
 5780              		.loc 1 2595 7 is_stmt 1 view .LVU2064
 5781              	.LBB576:
 5782              	.LBI537:
 677:HANcoder_E407_TTA_CombineModel.c **** {
 5783              		.loc 1 677 6 view .LVU2065
 5784              	.LBB541:
 682:HANcoder_E407_TTA_CombineModel.c **** }
 5785              		.loc 1 682 3 view .LVU2066
 682:HANcoder_E407_TTA_CombineModel.c **** }
 5786              		.loc 1 682 3 is_stmt 0 view .LVU2067
 5787              	.LBE541:
 5788              	.LBE576:
2600:HANcoder_E407_TTA_CombineModel.c **** 
 5789              		.loc 1 2600 7 is_stmt 1 view .LVU2068
 5790              	.LBB577:
 5791              	.LBI546:
 693:HANcoder_E407_TTA_CombineModel.c **** {
 5792              		.loc 1 693 6 view .LVU2069
 5793              	.LBB550:
 698:HANcoder_E407_TTA_CombineModel.c **** }
 5794              		.loc 1 698 3 view .LVU2070
 698:HANcoder_E407_TTA_CombineModel.c **** }
 5795              		.loc 1 698 3 is_stmt 0 view .LVU2071
 5796              	.LBE550:
 5797              	.LBE577:
2605:HANcoder_E407_TTA_CombineModel.c **** 
 5798              		.loc 1 2605 7 is_stmt 1 view .LVU2072
 5799              	.LBB578:
 5800              	.LBI551:
 709:HANcoder_E407_TTA_CombineModel.c **** {
 5801              		.loc 1 709 6 view .LVU2073
 5802              	.LBB555:
 714:HANcoder_E407_TTA_CombineModel.c **** }
 5803              		.loc 1 714 3 view .LVU2074
 714:HANcoder_E407_TTA_CombineModel.c **** }
 5804              		.loc 1 714 3 is_stmt 0 view .LVU2075
 5805              	.LBE555:
 5806              	.LBE578:
2610:HANcoder_E407_TTA_CombineModel.c **** 
 5807              		.loc 1 2610 7 is_stmt 1 view .LVU2076
 5808              	.LBB579:
 5809              	.LBI558:
 725:HANcoder_E407_TTA_CombineModel.c **** {
 5810              		.loc 1 725 6 view .LVU2077
 5811              	.LBB562:
 730:HANcoder_E407_TTA_CombineModel.c **** }
 5812              		.loc 1 730 3 view .LVU2078
 730:HANcoder_E407_TTA_CombineModel.c **** }
 5813              		.loc 1 730 3 is_stmt 0 view .LVU2079
 5814              	.LBE562:
 5815              	.LBE579:
2618:HANcoder_E407_TTA_CombineModel.c ****         (uint8_T)((uint32_T)(uint8_T)((uint32_T)(uint8_T)((uint32_T)(uint8_T)
 5816              		.loc 1 2618 7 is_stmt 1 view .LVU2080
2626:HANcoder_E407_TTA_CombineModel.c **** 
 5817              		.loc 1 2626 7 view .LVU2081
 5818              	.LBB580:
 5819              	.LBI566:
 746:HANcoder_E407_TTA_CombineModel.c **** {
 5820              		.loc 1 746 6 view .LVU2082
 5821              	.LBB568:
 751:HANcoder_E407_TTA_CombineModel.c **** }
 5822              		.loc 1 751 3 view .LVU2083
 751:HANcoder_E407_TTA_CombineModel.c **** }
 5823              		.loc 1 751 3 is_stmt 0 view .LVU2084
 5824              	.LBE568:
 5825              	.LBE580:
2631:HANcoder_E407_TTA_CombineModel.c **** 
 5826              		.loc 1 2631 7 is_stmt 1 view .LVU2085
2636:HANcoder_E407_TTA_CombineModel.c **** 
 5827              		.loc 1 2636 7 view .LVU2086
2640:HANcoder_E407_TTA_CombineModel.c **** 
 5828              		.loc 1 2640 7 view .LVU2087
 5829              	.LBB581:
 5830              	.LBI570:
 746:HANcoder_E407_TTA_CombineModel.c **** {
 5831              		.loc 1 746 6 view .LVU2088
 5832              	.LBB572:
 751:HANcoder_E407_TTA_CombineModel.c **** }
 5833              		.loc 1 751 3 view .LVU2089
 751:HANcoder_E407_TTA_CombineModel.c **** }
 5834              		.loc 1 751 3 is_stmt 0 view .LVU2090
 5835              	.LBE572:
 5836              	.LBE581:
2645:HANcoder_E407_TTA_CombineModel.c **** 
 5837              		.loc 1 2645 7 is_stmt 1 view .LVU2091
2650:HANcoder_E407_TTA_CombineModel.c **** 
 5838              		.loc 1 2650 7 view .LVU2092
2659:HANcoder_E407_TTA_CombineModel.c ****         canTxData.uint8_T_info[1] = rtB.Cast1_n;
 5839              		.loc 1 2659 9 view .LVU2093
2660:HANcoder_E407_TTA_CombineModel.c ****         canTxData.uint8_T_info[2] = rtB.Cast_p;
 5840              		.loc 1 2660 9 view .LVU2094
2661:HANcoder_E407_TTA_CombineModel.c ****         canTxData.uint8_T_info[3] = rtB.Cast1_b;
 5841              		.loc 1 2661 9 view .LVU2095
2662:HANcoder_E407_TTA_CombineModel.c ****         canTxData.uint8_T_info[4] = rtB.DataStoreRead2_h;
 5842              		.loc 1 2662 9 view .LVU2096
2663:HANcoder_E407_TTA_CombineModel.c ****         canTxData.uint8_T_info[5] = ((uint8_T)0U);
 5843              		.loc 1 2663 9 view .LVU2097
2664:HANcoder_E407_TTA_CombineModel.c ****         canTxData.uint8_T_info[6] = rtB.Add_j;
 5844              		.loc 1 2664 9 view .LVU2098
2664:HANcoder_E407_TTA_CombineModel.c ****         canTxData.uint8_T_info[6] = rtB.Add_j;
 5845              		.loc 1 2664 35 is_stmt 0 view .LVU2099
 5846 1384 5871     		strb	r0, [r3, #5]
2665:HANcoder_E407_TTA_CombineModel.c ****         canTxData.uint8_T_info[7] = ((uint8_T)0U);
 5847              		.loc 1 2665 9 is_stmt 1 view .LVU2100
2665:HANcoder_E407_TTA_CombineModel.c ****         canTxData.uint8_T_info[7] = ((uint8_T)0U);
 5848              		.loc 1 2665 35 is_stmt 0 view .LVU2101
 5849 1386 9A71     		strb	r2, [r3, #6]
2666:HANcoder_E407_TTA_CombineModel.c **** 
 5850              		.loc 1 2666 9 is_stmt 1 view .LVU2102
2666:HANcoder_E407_TTA_CombineModel.c **** 
 5851              		.loc 1 2666 35 is_stmt 0 view .LVU2103
 5852 1388 D871     		strb	r0, [r3, #7]
2669:HANcoder_E407_TTA_CombineModel.c ****       }
 5853              		.loc 1 2669 9 is_stmt 1 view .LVU2104
 5854 138a 3168     		ldr	r1, [r6]
 5855 138c 0822     		movs	r2, #8
 5856 138e FFF7FEFF 		bl	CanTransmit
 5857              	.LVL338:
2563:HANcoder_E407_TTA_CombineModel.c **** 
 5858              		.loc 1 2563 25 is_stmt 0 view .LVU2105
 5859 1392 0123     		movs	r3, #1
 5860 1394 FEF796BF 		b	.L227
 5861              	.LVL339:
 5862              	.L293:
2563:HANcoder_E407_TTA_CombineModel.c **** 
 5863              		.loc 1 2563 25 view .LVU2106
 5864 1398 F0EE687A 		vmov.f32	s15, s17
 5865 139c B0EE487A 		vmov.f32	s14, s16
2324:HANcoder_E407_TTA_CombineModel.c **** 
 5866              		.loc 1 2324 25 view .LVU2107
 5867 13a0 0023     		movs	r3, #0
 5868 13a2 7CE7     		b	.L166
 5869              	.LVL340:
 5870              	.L162:
2076:HANcoder_E407_TTA_CombineModel.c ****       rtDWork.TRCK1_ID2_RX_MODE = true;
 5871              		.loc 1 2076 5 is_stmt 1 view .LVU2108
2188:HANcoder_E407_TTA_CombineModel.c ****       rtDWork.TRCK1_ID2_RX_MODE = false;
 5872              		.loc 1 2188 12 view .LVU2109
2188:HANcoder_E407_TTA_CombineModel.c ****       rtDWork.TRCK1_ID2_RX_MODE = false;
 5873              		.loc 1 2188 15 is_stmt 0 view .LVU2110
 5874 13a4 94F80231 		ldrb	r3, [r4, #258]	@ zero_extendqisi2
 5875 13a8 13B1     		cbz	r3, .L165
2189:HANcoder_E407_TTA_CombineModel.c ****     }
 5876              		.loc 1 2189 7 is_stmt 1 view .LVU2111
2189:HANcoder_E407_TTA_CombineModel.c ****     }
 5877              		.loc 1 2189 33 is_stmt 0 view .LVU2112
 5878 13aa 0023     		movs	r3, #0
 5879 13ac 84F80231 		strb	r3, [r4, #258]
2195:HANcoder_E407_TTA_CombineModel.c **** 
 5880              		.loc 1 2195 5 is_stmt 1 view .LVU2113
 5881              	.LVL341:
 5882              	.L165:
2200:HANcoder_E407_TTA_CombineModel.c ****       /* DataStoreWrite: '<S110>/Data Store Write1' incorporates:
 5883              		.loc 1 2200 5 view .LVU2114
2195:HANcoder_E407_TTA_CombineModel.c **** 
 5884              		.loc 1 2195 13 is_stmt 0 view .LVU2115
 5885 13b0 0023     		movs	r3, #0
 5886 13b2 FEF76BBF 		b	.L233
 5887              	.LVL342:
 5888              	.L181:
3070:HANcoder_E407_TTA_CombineModel.c ****       rtDWork.TRLS_ID5_RX_MODE = true;
 5889              		.loc 1 3070 5 is_stmt 1 view .LVU2116
3185:HANcoder_E407_TTA_CombineModel.c ****       rtDWork.TRLS_ID5_RX_MODE = false;
 5890              		.loc 1 3185 12 view .LVU2117
3185:HANcoder_E407_TTA_CombineModel.c ****       rtDWork.TRLS_ID5_RX_MODE = false;
 5891              		.loc 1 3185 15 is_stmt 0 view .LVU2118
 5892 13b6 94F8FE30 		ldrb	r3, [r4, #254]	@ zero_extendqisi2
 5893 13ba 13B1     		cbz	r3, .L184
3186:HANcoder_E407_TTA_CombineModel.c ****     }
 5894              		.loc 1 3186 7 is_stmt 1 view .LVU2119
3186:HANcoder_E407_TTA_CombineModel.c ****     }
 5895              		.loc 1 3186 32 is_stmt 0 view .LVU2120
 5896 13bc 0023     		movs	r3, #0
 5897 13be 84F8FE30 		strb	r3, [r4, #254]
3192:HANcoder_E407_TTA_CombineModel.c **** 
 5898              		.loc 1 3192 5 is_stmt 1 view .LVU2121
 5899              	.LVL343:
 5900              	.L184:
3197:HANcoder_E407_TTA_CombineModel.c ****       /* DataStoreRead: '<S118>/Data Store Read3' */
 5901              		.loc 1 3197 5 view .LVU2122
3192:HANcoder_E407_TTA_CombineModel.c **** 
 5902              		.loc 1 3192 13 is_stmt 0 view .LVU2123
 5903 13c2 0023     		movs	r3, #0
 5904 13c4 FFF741B8 		b	.L220
 5905              	.LVL344:
 5906              	.L114:
1401:HANcoder_E407_TTA_CombineModel.c ****         rtDWork.pot5_1) >> 22);
 5907              		.loc 1 1401 7 is_stmt 1 view .LVU2124
1402:HANcoder_E407_TTA_CombineModel.c **** 
 5908              		.loc 1 1402 16 is_stmt 0 view .LVU2125
 5909 13c8 B4F85430 		ldrh	r3, [r4, #84]
1401:HANcoder_E407_TTA_CombineModel.c ****         rtDWork.pot5_1) >> 22);
 5910              		.loc 1 1401 74 view .LVU2126
 5911 13cc 4FF28A42 		movw	r2, #62602
 5912 13d0 02FB03F3 		mul	r3, r2, r3
1402:HANcoder_E407_TTA_CombineModel.c **** 
 5913              		.loc 1 1402 25 view .LVU2127
 5914 13d4 9B0D     		lsrs	r3, r3, #22
1401:HANcoder_E407_TTA_CombineModel.c ****         rtDWork.pot5_1) >> 22);
 5915              		.loc 1 1401 33 view .LVU2128
 5916 13d6 A4F86230 		strh	r3, [r4, #98]	@ movhi
 5917 13da FFF782BB 		b	.L115
 5918              	.LVL345:
 5919              	.L118:
1497:HANcoder_E407_TTA_CombineModel.c ****                 ((!rtDWork.node1CanFailed) || (rtDWork.Board_ID != ((uint8_T)2U)))));
 5920              		.loc 1 1497 13 view .LVU2129
 5921 13de 0122     		movs	r2, #1
 5922 13e0 85F83920 		strb	r2, [r5, #57]
1507:HANcoder_E407_TTA_CombineModel.c ****                     rtDWork.node1CanFailed);
 5923              		.loc 1 1507 5 is_stmt 1 view .LVU2130
 5924 13e4 FFF7ECBB 		b	.L269
 5925              	.LVL346:
 5926              	.L413:
1232:HANcoder_E407_TTA_CombineModel.c ****     }
 5927              		.loc 1 1232 7 view .LVU2131
1245:HANcoder_E407_TTA_CombineModel.c ****     /* Delay: '<S80>/Delay' */
 5928              		.loc 1 1245 35 is_stmt 0 view .LVU2132
 5929 13e8 9AF80B30 		ldrb	r3, [r10, #11]	@ zero_extendqisi2
1238:HANcoder_E407_TTA_CombineModel.c **** 
 5930              		.loc 1 1238 46 view .LVU2133
 5931 13ec 0122     		movs	r2, #1
1245:HANcoder_E407_TTA_CombineModel.c ****     /* Delay: '<S80>/Delay' */
 5932              		.loc 1 1245 15 view .LVU2134
 5933 13ee 9342     		cmp	r3, r2
1232:HANcoder_E407_TTA_CombineModel.c ****     }
 5934              		.loc 1 1232 33 view .LVU2135
 5935 13f0 C4E90289 		strd	r8, [r4, #8]
1238:HANcoder_E407_TTA_CombineModel.c **** 
 5936              		.loc 1 1238 3 is_stmt 1 view .LVU2136
1238:HANcoder_E407_TTA_CombineModel.c **** 
 5937              		.loc 1 1238 46 is_stmt 0 view .LVU2137
 5938 13f4 8AF80C20 		strb	r2, [r10, #12]
1245:HANcoder_E407_TTA_CombineModel.c ****     /* Delay: '<S80>/Delay' */
 5939              		.loc 1 1245 3 is_stmt 1 view .LVU2138
1245:HANcoder_E407_TTA_CombineModel.c ****     /* Delay: '<S80>/Delay' */
 5940              		.loc 1 1245 15 is_stmt 0 view .LVU2139
 5941 13f8 7FF4E3AA 		bne	.L248
 5942 13fc FEF754BE 		b	.L406
 5943              	.L462:
 5944              		.align	2
 5945              	.L461:
 5946 1400 00000000 		.word	rtConstB
 5947 1404 00000000 		.word	.LANCHOR40
 5948 1408 00000000 		.word	.LANCHOR62
 5949 140c 00000000 		.word	.LANCHOR7
 5950 1410 00000000 		.word	.LANCHOR51
 5951 1414 00000000 		.word	.LANCHOR55
 5952 1418 00000000 		.word	.LANCHOR56
 5953              	.LVL347:
 5954              	.L163:
2076:HANcoder_E407_TTA_CombineModel.c ****       rtDWork.TRCK1_ID2_RX_MODE = true;
 5955              		.loc 1 2076 5 is_stmt 1 view .LVU2140
2077:HANcoder_E407_TTA_CombineModel.c **** 
 5956              		.loc 1 2077 7 view .LVU2141
2084:HANcoder_E407_TTA_CombineModel.c ****         &canRxData_0_TRCK1_ID2.uint8_T_info[0], NULL);
 5957              		.loc 1 2084 28 is_stmt 0 view .LVU2142
 5958 141c B44B     		ldr	r3, .L463
 5959 141e B54F     		ldr	r7, .L463+4
 5960 1420 1968     		ldr	r1, [r3]
 5961 1422 0022     		movs	r2, #0
2077:HANcoder_E407_TTA_CombineModel.c **** 
 5962              		.loc 1 2077 33 view .LVU2143
 5963 1424 0126     		movs	r6, #1
2084:HANcoder_E407_TTA_CombineModel.c ****         &canRxData_0_TRCK1_ID2.uint8_T_info[0], NULL);
 5964              		.loc 1 2084 28 view .LVU2144
 5965 1426 0092     		str	r2, [sp]
 5966 1428 3B46     		mov	r3, r7
2077:HANcoder_E407_TTA_CombineModel.c **** 
 5967              		.loc 1 2077 33 view .LVU2145
 5968 142a 84F80261 		strb	r6, [r4, #258]
2084:HANcoder_E407_TTA_CombineModel.c ****         &canRxData_0_TRCK1_ID2.uint8_T_info[0], NULL);
 5969              		.loc 1 2084 7 is_stmt 1 view .LVU2146
2084:HANcoder_E407_TTA_CombineModel.c ****         &canRxData_0_TRCK1_ID2.uint8_T_info[0], NULL);
 5970              		.loc 1 2084 28 is_stmt 0 view .LVU2147
 5971 142e 1046     		mov	r0, r2
 5972 1430 FFF7FEFF 		bl	CanIoGetMessage
 5973              	.LVL348:
2088:HANcoder_E407_TTA_CombineModel.c ****         /* read the data */
 5974              		.loc 1 2088 7 is_stmt 1 view .LVU2148
2088:HANcoder_E407_TTA_CombineModel.c ****         /* read the data */
 5975              		.loc 1 2088 10 is_stmt 0 view .LVU2149
 5976 1434 0028     		cmp	r0, #0
 5977 1436 40F3E782 		ble	.L440
2090:HANcoder_E407_TTA_CombineModel.c ****         rtb_SFunction_o3_l = canRxData_0_TRCK1_ID2.uint8_T_info[1];
 5978              		.loc 1 2090 9 is_stmt 1 view .LVU2150
2092:HANcoder_E407_TTA_CombineModel.c ****         rtb_SFunction_o5_i = canRxData_0_TRCK1_ID2.uint8_T_info[3];
 5979              		.loc 1 2092 28 is_stmt 0 view .LVU2151
 5980 143a BA78     		ldrb	r2, [r7, #2]	@ zero_extendqisi2
2093:HANcoder_E407_TTA_CombineModel.c ****         rtb_SFunction_o6_o = canRxData_0_TRCK1_ID2.uint8_T_info[4];
 5981              		.loc 1 2093 28 view .LVU2152
 5982 143c F878     		ldrb	r0, [r7, #3]	@ zero_extendqisi2
 5983              	.LVL349:
2090:HANcoder_E407_TTA_CombineModel.c ****         rtb_SFunction_o3_l = canRxData_0_TRCK1_ID2.uint8_T_info[1];
 5984              		.loc 1 2090 28 view .LVU2153
 5985 143e 3B78     		ldrb	r3, [r7]	@ zero_extendqisi2
 5986              	.LVL350:
2091:HANcoder_E407_TTA_CombineModel.c ****         rtb_SFunction_o4_m = canRxData_0_TRCK1_ID2.uint8_T_info[2];
 5987              		.loc 1 2091 9 is_stmt 1 view .LVU2154
2091:HANcoder_E407_TTA_CombineModel.c ****         rtb_SFunction_o4_m = canRxData_0_TRCK1_ID2.uint8_T_info[2];
 5988              		.loc 1 2091 28 is_stmt 0 view .LVU2155
 5989 1440 7978     		ldrb	r1, [r7, #1]	@ zero_extendqisi2
 5990              	.LBB582:
 5991              	.LBB583:
 462:HANcoder_E407_TTA_CombineModel.c **** 
 5992              		.loc 1 462 17 view .LVU2156
 5993 1442 85F8C120 		strb	r2, [r5, #193]
 5994              	.LBE583:
 5995              	.LBE582:
 5996              	.LBB589:
 5997              	.LBB590:
 501:HANcoder_E407_TTA_CombineModel.c **** }
 5998              		.loc 1 501 15 view .LVU2157
 5999 1446 1202     		lsls	r2, r2, #8
 6000              	.LBE590:
 6001              	.LBE589:
 6002              	.LBB595:
 6003              	.LBB584:
 456:HANcoder_E407_TTA_CombineModel.c **** 
 6004              		.loc 1 456 17 view .LVU2158
 6005 1448 85F8BF30 		strb	r3, [r5, #191]
 6006              	.LVL351:
 456:HANcoder_E407_TTA_CombineModel.c **** 
 6007              		.loc 1 456 17 view .LVU2159
 6008              	.LBE584:
 6009              	.LBE595:
2092:HANcoder_E407_TTA_CombineModel.c ****         rtb_SFunction_o5_i = canRxData_0_TRCK1_ID2.uint8_T_info[3];
 6010              		.loc 1 2092 9 is_stmt 1 view .LVU2160
2093:HANcoder_E407_TTA_CombineModel.c ****         rtb_SFunction_o6_o = canRxData_0_TRCK1_ID2.uint8_T_info[4];
 6011              		.loc 1 2093 9 view .LVU2161
 6012              	.LBB596:
 6013              	.LBB591:
 501:HANcoder_E407_TTA_CombineModel.c **** }
 6014              		.loc 1 501 13 is_stmt 0 view .LVU2162
 6015 144c A5F8C620 		strh	r2, [r5, #198]	@ movhi
 6016              	.LBE591:
 6017              	.LBE596:
 6018              	.LBB597:
 6019              	.LBB598:
 501:HANcoder_E407_TTA_CombineModel.c **** }
 6020              		.loc 1 501 15 view .LVU2163
 6021 1450 1B02     		lsls	r3, r3, #8
 6022              	.LVL352:
 501:HANcoder_E407_TTA_CombineModel.c **** }
 6023              		.loc 1 501 15 view .LVU2164
 6024              	.LBE598:
 6025              	.LBE597:
2134:HANcoder_E407_TTA_CombineModel.c ****                          rtB.EnabledSubsystem_b.In4);
 6026              		.loc 1 2134 15 view .LVU2165
 6027 1452 0244     		add	r2, r2, r0
 6028              	.LBB603:
 6029              	.LBB585:
 465:HANcoder_E407_TTA_CombineModel.c **** 
 6030              		.loc 1 465 17 view .LVU2166
 6031 1454 85F8C200 		strb	r0, [r5, #194]
 6032              	.LBE585:
 6033              	.LBE603:
2120:HANcoder_E407_TTA_CombineModel.c ****                          rtB.EnabledSubsystem_b.In2);
 6034              		.loc 1 2120 13 view .LVU2167
 6035 1458 A748     		ldr	r0, .L463+8
 6036              	.LBB604:
 6037              	.LBB586:
 459:HANcoder_E407_TTA_CombineModel.c **** 
 6038              		.loc 1 459 17 view .LVU2168
 6039 145a 85F8C010 		strb	r1, [r5, #192]
 6040              	.LBE586:
 6041              	.LBE604:
2094:HANcoder_E407_TTA_CombineModel.c ****         rtb_SFunction_o7_j = canRxData_0_TRCK1_ID2.uint8_T_info[5];
 6042              		.loc 1 2094 9 is_stmt 1 view .LVU2169
 6043              	.LVL353:
2095:HANcoder_E407_TTA_CombineModel.c ****         rtb_SFunction_o8_d = canRxData_0_TRCK1_ID2.uint8_T_info[6];
 6044              		.loc 1 2095 9 view .LVU2170
2096:HANcoder_E407_TTA_CombineModel.c ****         rtb_SFunction_o9_lv = canRxData_0_TRCK1_ID2.uint8_T_info[7];
 6045              		.loc 1 2096 9 view .LVU2171
2120:HANcoder_E407_TTA_CombineModel.c ****                          rtB.EnabledSubsystem_b.In2);
 6046              		.loc 1 2120 15 is_stmt 0 view .LVU2172
 6047 145e 1944     		add	r1, r1, r3
 6048              	.LVL354:
2120:HANcoder_E407_TTA_CombineModel.c ****                          rtB.EnabledSubsystem_b.In2);
 6049              		.loc 1 2120 13 view .LVU2173
 6050 1460 0180     		strh	r1, [r0]	@ movhi
2134:HANcoder_E407_TTA_CombineModel.c ****                          rtB.EnabledSubsystem_b.In4);
 6051              		.loc 1 2134 13 view .LVU2174
 6052 1462 A649     		ldr	r1, .L463+12
 6053              	.LBB605:
 6054              	.LBB599:
 501:HANcoder_E407_TTA_CombineModel.c **** }
 6055              		.loc 1 501 13 view .LVU2175
 6056 1464 A5F8C430 		strh	r3, [r5, #196]	@ movhi
 6057              	.LBE599:
 6058              	.LBE605:
2096:HANcoder_E407_TTA_CombineModel.c ****         rtb_SFunction_o9_lv = canRxData_0_TRCK1_ID2.uint8_T_info[7];
 6059              		.loc 1 2096 28 view .LVU2176
 6060 1468 BB79     		ldrb	r3, [r7, #6]	@ zero_extendqisi2
 6061              	.LVL355:
2097:HANcoder_E407_TTA_CombineModel.c ****       }
 6062              		.loc 1 2097 9 is_stmt 1 view .LVU2177
2101:HANcoder_E407_TTA_CombineModel.c ****                        rtb_SFunction_o3_l, rtb_SFunction_o4_m,
 6063              		.loc 1 2101 7 view .LVU2178
 6064              	.LBB606:
 6065              	.LBI582:
 442:HANcoder_E407_TTA_CombineModel.c ****                       uint8_T rtu_In3, uint8_T rtu_In4, uint8_T rtu_In5, uint8_T
 6066              		.loc 1 442 6 view .LVU2179
 6067              	.LBB587:
 447:HANcoder_E407_TTA_CombineModel.c ****   uint8_T rtb_In6;
 6068              		.loc 1 447 3 view .LVU2180
 448:HANcoder_E407_TTA_CombineModel.c ****   uint8_T rtb_In8_m;
 6069              		.loc 1 448 3 view .LVU2181
 449:HANcoder_E407_TTA_CombineModel.c **** 
 6070              		.loc 1 449 3 view .LVU2182
 454:HANcoder_E407_TTA_CombineModel.c ****     /* SignalConversion generated from: '<S123>/In1' */
 6071              		.loc 1 454 3 view .LVU2183
 456:HANcoder_E407_TTA_CombineModel.c **** 
 6072              		.loc 1 456 5 view .LVU2184
 459:HANcoder_E407_TTA_CombineModel.c **** 
 6073              		.loc 1 459 5 view .LVU2185
 462:HANcoder_E407_TTA_CombineModel.c **** 
 6074              		.loc 1 462 5 view .LVU2186
 465:HANcoder_E407_TTA_CombineModel.c **** 
 6075              		.loc 1 465 5 view .LVU2187
 468:HANcoder_E407_TTA_CombineModel.c **** 
 6076              		.loc 1 468 5 view .LVU2188
 471:HANcoder_E407_TTA_CombineModel.c **** 
 6077              		.loc 1 471 5 view .LVU2189
 474:HANcoder_E407_TTA_CombineModel.c **** 
 6078              		.loc 1 474 5 view .LVU2190
 6079              	.LBE587:
 6080              	.LBE606:
2144:HANcoder_E407_TTA_CombineModel.c ****       }
 6081              		.loc 1 2144 34 is_stmt 0 view .LVU2191
 6082 146a 84F8F660 		strb	r6, [r4, #246]
 6083              	.LBB607:
 6084              	.LBB588:
 474:HANcoder_E407_TTA_CombineModel.c **** 
 6085              		.loc 1 474 17 view .LVU2192
 6086 146e 85F8C330 		strb	r3, [r5, #195]
 477:HANcoder_E407_TTA_CombineModel.c ****   }
 6087              		.loc 1 477 5 is_stmt 1 view .LVU2193
 6088              	.LVL356:
 477:HANcoder_E407_TTA_CombineModel.c ****   }
 6089              		.loc 1 477 5 is_stmt 0 view .LVU2194
 6090              	.LBE588:
 6091              	.LBE607:
2110:HANcoder_E407_TTA_CombineModel.c **** 
 6092              		.loc 1 2110 7 is_stmt 1 view .LVU2195
2113:HANcoder_E407_TTA_CombineModel.c **** 
 6093              		.loc 1 2113 7 view .LVU2196
 6094              	.LBB608:
 6095              	.LBI597:
 496:HANcoder_E407_TTA_CombineModel.c **** {
 6096              		.loc 1 496 6 view .LVU2197
 6097              	.LBB600:
 501:HANcoder_E407_TTA_CombineModel.c **** }
 6098              		.loc 1 501 3 view .LVU2198
 501:HANcoder_E407_TTA_CombineModel.c **** }
 6099              		.loc 1 501 3 is_stmt 0 view .LVU2199
 6100              	.LBE600:
 6101              	.LBE608:
2120:HANcoder_E407_TTA_CombineModel.c ****                          rtB.EnabledSubsystem_b.In2);
 6102              		.loc 1 2120 7 is_stmt 1 view .LVU2200
2124:HANcoder_E407_TTA_CombineModel.c **** 
 6103              		.loc 1 2124 7 view .LVU2201
2127:HANcoder_E407_TTA_CombineModel.c **** 
 6104              		.loc 1 2127 7 view .LVU2202
 6105              	.LBB609:
 6106              	.LBI589:
 496:HANcoder_E407_TTA_CombineModel.c **** {
 6107              		.loc 1 496 6 view .LVU2203
 6108              	.LBB592:
 501:HANcoder_E407_TTA_CombineModel.c **** }
 6109              		.loc 1 501 3 view .LVU2204
 501:HANcoder_E407_TTA_CombineModel.c **** }
 6110              		.loc 1 501 3 is_stmt 0 view .LVU2205
 6111              	.LBE592:
 6112              	.LBE609:
2134:HANcoder_E407_TTA_CombineModel.c ****                          rtB.EnabledSubsystem_b.In4);
 6113              		.loc 1 2134 7 is_stmt 1 view .LVU2206
2134:HANcoder_E407_TTA_CombineModel.c ****                          rtB.EnabledSubsystem_b.In4);
 6114              		.loc 1 2134 13 is_stmt 0 view .LVU2207
 6115 1472 0A80     		strh	r2, [r1]	@ movhi
2140:HANcoder_E407_TTA_CombineModel.c ****         /* DataStoreWrite: '<S135>/Data Store Write' incorporates:
 6116              		.loc 1 2140 7 is_stmt 1 view .LVU2208
2144:HANcoder_E407_TTA_CombineModel.c ****       }
 6117              		.loc 1 2144 9 view .LVU2209
 6118              	.LVL357:
 6119              	.L235:
2150:HANcoder_E407_TTA_CombineModel.c **** 
 6120              		.loc 1 2150 7 view .LVU2210
 6121              	.LBB610:
 6122              	.LBI610:
 517:HANcoder_E407_TTA_CombineModel.c **** {
 6123              		.loc 1 517 6 view .LVU2211
 6124              	.LBB611:
 522:HANcoder_E407_TTA_CombineModel.c **** }
 6125              		.loc 1 522 3 view .LVU2212
 6126              	.LBE611:
 6127              	.LBE610:
2315:HANcoder_E407_TTA_CombineModel.c **** 
 6128              		.loc 1 2315 29 is_stmt 0 view .LVU2213
 6129 1474 A24A     		ldr	r2, .L463+16
 6130 1476 1278     		ldrb	r2, [r2]	@ zero_extendqisi2
 6131 1478 08EE102A 		vmov	s16, r2	@ int
 6132              	.LVL358:
2321:HANcoder_E407_TTA_CombineModel.c **** 
 6133              		.loc 1 2321 26 view .LVU2214
 6134 147c 94F8DE20 		ldrb	r2, [r4, #222]	@ zero_extendqisi2
 6135 1480 08EE902A 		vmov	s17, r2	@ int
 6136              	.LVL359:
 6137              	.LBB613:
 6138              	.LBB612:
 522:HANcoder_E407_TTA_CombineModel.c **** }
 6139              		.loc 1 522 15 view .LVU2215
 6140 1484 5A08     		lsrs	r2, r3, #1
 522:HANcoder_E407_TTA_CombineModel.c **** }
 6141              		.loc 1 522 13 view .LVU2216
 6142 1486 85F8BE20 		strb	r2, [r5, #190]
 6143              	.LVL360:
 522:HANcoder_E407_TTA_CombineModel.c **** }
 6144              		.loc 1 522 13 view .LVU2217
 6145              	.LBE612:
 6146              	.LBE613:
2155:HANcoder_E407_TTA_CombineModel.c **** 
 6147              		.loc 1 2155 7 is_stmt 1 view .LVU2218
 6148              	.LBB614:
 6149              	.LBI614:
 533:HANcoder_E407_TTA_CombineModel.c **** {
 6150              		.loc 1 533 6 view .LVU2219
 6151              	.LBB615:
 538:HANcoder_E407_TTA_CombineModel.c **** }
 6152              		.loc 1 538 3 view .LVU2220
 6153              	.LBE615:
 6154              	.LBE614:
 6155              	.LBB617:
 6156              	.LBB618:
 522:HANcoder_E407_TTA_CombineModel.c **** }
 6157              		.loc 1 522 13 is_stmt 0 view .LVU2221
 6158 148a 85F8B720 		strb	r2, [r5, #183]
 6159              	.LBE618:
 6160              	.LBE617:
 6161              	.LBB620:
 6162              	.LBB616:
 538:HANcoder_E407_TTA_CombineModel.c **** }
 6163              		.loc 1 538 15 view .LVU2222
 6164 148e 9A08     		lsrs	r2, r3, #2
 538:HANcoder_E407_TTA_CombineModel.c **** }
 6165              		.loc 1 538 13 view .LVU2223
 6166 1490 85F8BD20 		strb	r2, [r5, #189]
 6167              	.LVL361:
 538:HANcoder_E407_TTA_CombineModel.c **** }
 6168              		.loc 1 538 13 view .LVU2224
 6169              	.LBE616:
 6170              	.LBE620:
2160:HANcoder_E407_TTA_CombineModel.c **** 
 6171              		.loc 1 2160 7 is_stmt 1 view .LVU2225
 6172              	.LBB621:
 6173              	.LBI621:
 549:HANcoder_E407_TTA_CombineModel.c **** {
 6174              		.loc 1 549 6 view .LVU2226
 6175              	.LBB622:
 554:HANcoder_E407_TTA_CombineModel.c **** }
 6176              		.loc 1 554 3 view .LVU2227
 554:HANcoder_E407_TTA_CombineModel.c **** }
 6177              		.loc 1 554 15 is_stmt 0 view .LVU2228
 6178 1494 DA08     		lsrs	r2, r3, #3
 554:HANcoder_E407_TTA_CombineModel.c **** }
 6179              		.loc 1 554 13 view .LVU2229
 6180 1496 85F8BC20 		strb	r2, [r5, #188]
 6181              	.LVL362:
 554:HANcoder_E407_TTA_CombineModel.c **** }
 6182              		.loc 1 554 13 view .LVU2230
 6183              	.LBE622:
 6184              	.LBE621:
2165:HANcoder_E407_TTA_CombineModel.c **** 
 6185              		.loc 1 2165 7 is_stmt 1 view .LVU2231
 6186              	.LBB623:
 6187              	.LBI623:
 565:HANcoder_E407_TTA_CombineModel.c **** {
 6188              		.loc 1 565 6 view .LVU2232
 6189              	.LBB624:
 570:HANcoder_E407_TTA_CombineModel.c **** }
 6190              		.loc 1 570 3 view .LVU2233
 570:HANcoder_E407_TTA_CombineModel.c **** }
 6191              		.loc 1 570 15 is_stmt 0 view .LVU2234
 6192 149a 1A09     		lsrs	r2, r3, #4
 570:HANcoder_E407_TTA_CombineModel.c **** }
 6193              		.loc 1 570 13 view .LVU2235
 6194 149c 85F8BB20 		strb	r2, [r5, #187]
 6195              	.LVL363:
 570:HANcoder_E407_TTA_CombineModel.c **** }
 6196              		.loc 1 570 13 view .LVU2236
 6197              	.LBE624:
 6198              	.LBE623:
2170:HANcoder_E407_TTA_CombineModel.c **** 
 6199              		.loc 1 2170 7 is_stmt 1 view .LVU2237
 6200              	.LBB625:
 6201              	.LBI625:
 581:HANcoder_E407_TTA_CombineModel.c **** {
 6202              		.loc 1 581 6 view .LVU2238
 6203              	.LBB626:
 586:HANcoder_E407_TTA_CombineModel.c **** }
 6204              		.loc 1 586 3 view .LVU2239
 586:HANcoder_E407_TTA_CombineModel.c **** }
 6205              		.loc 1 586 15 is_stmt 0 view .LVU2240
 6206 14a0 5A09     		lsrs	r2, r3, #5
 586:HANcoder_E407_TTA_CombineModel.c **** }
 6207              		.loc 1 586 13 view .LVU2241
 6208 14a2 85F8BA20 		strb	r2, [r5, #186]
 6209              	.LVL364:
 586:HANcoder_E407_TTA_CombineModel.c **** }
 6210              		.loc 1 586 13 view .LVU2242
 6211              	.LBE626:
 6212              	.LBE625:
2175:HANcoder_E407_TTA_CombineModel.c **** 
 6213              		.loc 1 2175 7 is_stmt 1 view .LVU2243
 6214              	.LBB627:
 6215              	.LBI627:
 597:HANcoder_E407_TTA_CombineModel.c **** {
 6216              		.loc 1 597 6 view .LVU2244
 6217              	.LBB628:
 602:HANcoder_E407_TTA_CombineModel.c **** }
 6218              		.loc 1 602 3 view .LVU2245
 602:HANcoder_E407_TTA_CombineModel.c **** }
 6219              		.loc 1 602 15 is_stmt 0 view .LVU2246
 6220 14a6 9A09     		lsrs	r2, r3, #6
 6221              	.LBE628:
 6222              	.LBE627:
 6223              	.LBB630:
 6224              	.LBB631:
 618:HANcoder_E407_TTA_CombineModel.c **** }
 6225              		.loc 1 618 15 view .LVU2247
 6226 14a8 DB09     		lsrs	r3, r3, #7
 6227              	.LBE631:
 6228              	.LBE630:
2315:HANcoder_E407_TTA_CombineModel.c **** 
 6229              		.loc 1 2315 29 view .LVU2248
 6230 14aa B8EEC88A 		vcvt.f32.s32	s16, s16
2321:HANcoder_E407_TTA_CombineModel.c **** 
 6231              		.loc 1 2321 36 view .LVU2249
 6232 14ae F8EEE88A 		vcvt.f32.s32	s17, s17
 6233              	.LBB633:
 6234              	.LBB629:
 602:HANcoder_E407_TTA_CombineModel.c **** }
 6235              		.loc 1 602 13 view .LVU2250
 6236 14b2 85F8B920 		strb	r2, [r5, #185]
 6237              	.LVL365:
 602:HANcoder_E407_TTA_CombineModel.c **** }
 6238              		.loc 1 602 13 view .LVU2251
 6239              	.LBE629:
 6240              	.LBE633:
2180:HANcoder_E407_TTA_CombineModel.c **** 
 6241              		.loc 1 2180 7 is_stmt 1 view .LVU2252
 6242              	.LBB634:
 6243              	.LBI630:
 613:HANcoder_E407_TTA_CombineModel.c **** {
 6244              		.loc 1 613 6 view .LVU2253
 6245              	.LBB632:
 618:HANcoder_E407_TTA_CombineModel.c **** }
 6246              		.loc 1 618 3 view .LVU2254
 618:HANcoder_E407_TTA_CombineModel.c **** }
 6247              		.loc 1 618 13 is_stmt 0 view .LVU2255
 6248 14b6 85F8B830 		strb	r3, [r5, #184]
 6249              	.LVL366:
 618:HANcoder_E407_TTA_CombineModel.c **** }
 6250              		.loc 1 618 13 view .LVU2256
 6251              	.LBE632:
 6252              	.LBE634:
2185:HANcoder_E407_TTA_CombineModel.c **** 
 6253              		.loc 1 2185 7 is_stmt 1 view .LVU2257
 6254              	.LBB635:
 6255              	.LBI617:
 517:HANcoder_E407_TTA_CombineModel.c **** {
 6256              		.loc 1 517 6 view .LVU2258
 6257              	.LBB619:
 522:HANcoder_E407_TTA_CombineModel.c **** }
 6258              		.loc 1 522 3 view .LVU2259
 522:HANcoder_E407_TTA_CombineModel.c **** }
 6259              		.loc 1 522 3 is_stmt 0 view .LVU2260
 6260              	.LBE619:
 6261              	.LBE635:
2195:HANcoder_E407_TTA_CombineModel.c **** 
 6262              		.loc 1 2195 5 is_stmt 1 view .LVU2261
 6263 14ba 79E7     		b	.L165
 6264              	.LVL367:
 6265              	.L182:
3070:HANcoder_E407_TTA_CombineModel.c ****       rtDWork.TRLS_ID5_RX_MODE = true;
 6266              		.loc 1 3070 5 view .LVU2262
3071:HANcoder_E407_TTA_CombineModel.c **** 
 6267              		.loc 1 3071 7 view .LVU2263
3078:HANcoder_E407_TTA_CombineModel.c ****         &canRxData_0_TRLS1_ID5.uint8_T_info[0], NULL);
 6268              		.loc 1 3078 28 is_stmt 0 view .LVU2264
 6269 14bc 914B     		ldr	r3, .L463+20
 6270 14be 924E     		ldr	r6, .L463+24
 6271 14c0 1968     		ldr	r1, [r3]
 6272 14c2 0022     		movs	r2, #0
3071:HANcoder_E407_TTA_CombineModel.c **** 
 6273              		.loc 1 3071 32 view .LVU2265
 6274 14c4 0123     		movs	r3, #1
3078:HANcoder_E407_TTA_CombineModel.c ****         &canRxData_0_TRLS1_ID5.uint8_T_info[0], NULL);
 6275              		.loc 1 3078 28 view .LVU2266
 6276 14c6 0092     		str	r2, [sp]
 6277 14c8 1046     		mov	r0, r2
3071:HANcoder_E407_TTA_CombineModel.c **** 
 6278              		.loc 1 3071 32 view .LVU2267
 6279 14ca 84F8FE30 		strb	r3, [r4, #254]
3078:HANcoder_E407_TTA_CombineModel.c ****         &canRxData_0_TRLS1_ID5.uint8_T_info[0], NULL);
 6280              		.loc 1 3078 7 is_stmt 1 view .LVU2268
3078:HANcoder_E407_TTA_CombineModel.c ****         &canRxData_0_TRLS1_ID5.uint8_T_info[0], NULL);
 6281              		.loc 1 3078 28 is_stmt 0 view .LVU2269
 6282 14ce 3346     		mov	r3, r6
 6283 14d0 FFF7FEFF 		bl	CanIoGetMessage
 6284              	.LVL368:
3082:HANcoder_E407_TTA_CombineModel.c ****         /* read the data */
 6285              		.loc 1 3082 7 is_stmt 1 view .LVU2270
3082:HANcoder_E407_TTA_CombineModel.c ****         /* read the data */
 6286              		.loc 1 3082 10 is_stmt 0 view .LVU2271
 6287 14d4 0028     		cmp	r0, #0
3108:HANcoder_E407_TTA_CombineModel.c **** 
 6288              		.loc 1 3108 22 view .LVU2272
 6289 14d6 8D4B     		ldr	r3, .L463+28
3082:HANcoder_E407_TTA_CombineModel.c ****         /* read the data */
 6290              		.loc 1 3082 10 view .LVU2273
 6291 14d8 40F38A82 		ble	.L441
3084:HANcoder_E407_TTA_CombineModel.c ****         rtb_SFunction_o3_m = canRxData_0_TRLS1_ID5.uint8_T_info[1];
 6292              		.loc 1 3084 9 is_stmt 1 view .LVU2274
3089:HANcoder_E407_TTA_CombineModel.c ****         rtb_SFunction_o8_p = canRxData_0_TRLS1_ID5.uint8_T_info[6];
 6293              		.loc 1 3089 28 is_stmt 0 view .LVU2275
 6294 14dc 7779     		ldrb	r7, [r6, #5]	@ zero_extendqisi2
3084:HANcoder_E407_TTA_CombineModel.c ****         rtb_SFunction_o3_m = canRxData_0_TRLS1_ID5.uint8_T_info[1];
 6295              		.loc 1 3084 28 view .LVU2276
 6296 14de 3278     		ldrb	r2, [r6]	@ zero_extendqisi2
 6297              	.LVL369:
3085:HANcoder_E407_TTA_CombineModel.c ****         rtb_SFunction_o4_b = canRxData_0_TRLS1_ID5.uint8_T_info[2];
 6298              		.loc 1 3085 9 is_stmt 1 view .LVU2277
3085:HANcoder_E407_TTA_CombineModel.c ****         rtb_SFunction_o4_b = canRxData_0_TRLS1_ID5.uint8_T_info[2];
 6299              		.loc 1 3085 28 is_stmt 0 view .LVU2278
 6300 14e0 7078     		ldrb	r0, [r6, #1]	@ zero_extendqisi2
 6301              	.LVL370:
3086:HANcoder_E407_TTA_CombineModel.c ****         rtb_SFunction_o5_o = canRxData_0_TRLS1_ID5.uint8_T_info[3];
 6302              		.loc 1 3086 9 is_stmt 1 view .LVU2279
3086:HANcoder_E407_TTA_CombineModel.c ****         rtb_SFunction_o5_o = canRxData_0_TRLS1_ID5.uint8_T_info[3];
 6303              		.loc 1 3086 28 is_stmt 0 view .LVU2280
 6304 14e2 B178     		ldrb	r1, [r6, #2]	@ zero_extendqisi2
 6305              	.LVL371:
3087:HANcoder_E407_TTA_CombineModel.c ****         rtb_SFunction_o6_i = canRxData_0_TRLS1_ID5.uint8_T_info[4];
 6306              		.loc 1 3087 9 is_stmt 1 view .LVU2281
3088:HANcoder_E407_TTA_CombineModel.c ****         rtb_SFunction_o7_f = canRxData_0_TRLS1_ID5.uint8_T_info[5];
 6307              		.loc 1 3088 9 view .LVU2282
3089:HANcoder_E407_TTA_CombineModel.c ****         rtb_SFunction_o8_p = canRxData_0_TRLS1_ID5.uint8_T_info[6];
 6308              		.loc 1 3089 9 view .LVU2283
3090:HANcoder_E407_TTA_CombineModel.c ****         rtb_SFunction_o9_l = canRxData_0_TRLS1_ID5.uint8_T_info[7];
 6309              		.loc 1 3090 9 view .LVU2284
3108:HANcoder_E407_TTA_CombineModel.c **** 
 6310              		.loc 1 3108 22 is_stmt 0 view .LVU2285
 6311 14e4 1F70     		strb	r7, [r3]
3090:HANcoder_E407_TTA_CombineModel.c ****         rtb_SFunction_o9_l = canRxData_0_TRLS1_ID5.uint8_T_info[7];
 6312              		.loc 1 3090 28 view .LVU2286
 6313 14e6 B379     		ldrb	r3, [r6, #6]	@ zero_extendqisi2
 6314              	.LVL372:
3091:HANcoder_E407_TTA_CombineModel.c ****       }
 6315              		.loc 1 3091 9 is_stmt 1 view .LVU2287
3097:HANcoder_E407_TTA_CombineModel.c ****         /* SignalConversion generated from: '<S329>/In1' */
 6316              		.loc 1 3097 7 view .LVU2288
3099:HANcoder_E407_TTA_CombineModel.c **** 
 6317              		.loc 1 3099 9 view .LVU2289
3102:HANcoder_E407_TTA_CombineModel.c **** 
 6318              		.loc 1 3102 9 view .LVU2290
3105:HANcoder_E407_TTA_CombineModel.c **** 
 6319              		.loc 1 3105 9 view .LVU2291
3108:HANcoder_E407_TTA_CombineModel.c **** 
 6320              		.loc 1 3108 9 view .LVU2292
3111:HANcoder_E407_TTA_CombineModel.c ****       }
 6321              		.loc 1 3111 9 view .LVU2293
3099:HANcoder_E407_TTA_CombineModel.c **** 
 6322              		.loc 1 3099 17 is_stmt 0 view .LVU2294
 6323 14e8 EA72     		strb	r2, [r5, #11]
3102:HANcoder_E407_TTA_CombineModel.c **** 
 6324              		.loc 1 3102 17 view .LVU2295
 6325 14ea 2873     		strb	r0, [r5, #12]
3105:HANcoder_E407_TTA_CombineModel.c **** 
 6326              		.loc 1 3105 17 view .LVU2296
 6327 14ec 6973     		strb	r1, [r5, #13]
3111:HANcoder_E407_TTA_CombineModel.c ****       }
 6328              		.loc 1 3111 17 view .LVU2297
 6329 14ee AB73     		strb	r3, [r5, #14]
 6330              	.LVL373:
 6331              	.L222:
3117:HANcoder_E407_TTA_CombineModel.c **** 
 6332              		.loc 1 3117 7 is_stmt 1 view .LVU2298
 6333              	.LBB636:
 6334              	.LBB637:
 501:HANcoder_E407_TTA_CombineModel.c **** }
 6335              		.loc 1 501 15 is_stmt 0 view .LVU2299
 6336 14f0 1202     		lsls	r2, r2, #8
 6337              	.LBE637:
 6338              	.LBE636:
3131:HANcoder_E407_TTA_CombineModel.c **** 
 6339              		.loc 1 3131 24 view .LVU2300
 6340 14f2 1044     		add	r0, r0, r2
 6341              	.LBB640:
 6342              	.LBB638:
 501:HANcoder_E407_TTA_CombineModel.c **** }
 6343              		.loc 1 501 13 view .LVU2301
 6344 14f4 A5F85620 		strh	r2, [r5, #86]	@ movhi
 6345              	.LBE638:
 6346              	.LBE640:
 6347              	.LBB641:
 6348              	.LBB642:
 522:HANcoder_E407_TTA_CombineModel.c **** }
 6349              		.loc 1 522 15 view .LVU2302
 6350 14f8 5A08     		lsrs	r2, r3, #1
 522:HANcoder_E407_TTA_CombineModel.c **** }
 6351              		.loc 1 522 13 view .LVU2303
 6352 14fa 85F85420 		strb	r2, [r5, #84]
 6353              	.LBE642:
 6354              	.LBE641:
 6355              	.LBB644:
 6356              	.LBB645:
 6357 14fe 85F84D20 		strb	r2, [r5, #77]
 6358              	.LBE645:
 6359              	.LBE644:
3149:HANcoder_E407_TTA_CombineModel.c **** 
 6360              		.loc 1 3149 53 view .LVU2304
 6361 1502 003A     		subs	r2, r2, #0
 6362 1504 18BF     		it	ne
 6363 1506 0122     		movne	r2, #1
 6364 1508 84F8F220 		strb	r2, [r4, #242]
 6365              	.LBB647:
 6366              	.LBB648:
 538:HANcoder_E407_TTA_CombineModel.c **** }
 6367              		.loc 1 538 15 view .LVU2305
 6368 150c 9A08     		lsrs	r2, r3, #2
 538:HANcoder_E407_TTA_CombineModel.c **** }
 6369              		.loc 1 538 13 view .LVU2306
 6370 150e 85F85320 		strb	r2, [r5, #83]
 6371              	.LBE648:
 6372              	.LBE647:
 6373              	.LBB650:
 6374              	.LBB651:
 554:HANcoder_E407_TTA_CombineModel.c **** }
 6375              		.loc 1 554 15 view .LVU2307
 6376 1512 DA08     		lsrs	r2, r3, #3
 554:HANcoder_E407_TTA_CombineModel.c **** }
 6377              		.loc 1 554 13 view .LVU2308
 6378 1514 85F85220 		strb	r2, [r5, #82]
 6379              	.LBE651:
 6380              	.LBE650:
 6381              	.LBB653:
 6382              	.LBB654:
 570:HANcoder_E407_TTA_CombineModel.c **** }
 6383              		.loc 1 570 15 view .LVU2309
 6384 1518 1A09     		lsrs	r2, r3, #4
 570:HANcoder_E407_TTA_CombineModel.c **** }
 6385              		.loc 1 570 13 view .LVU2310
 6386 151a 85F85120 		strb	r2, [r5, #81]
 6387              	.LBE654:
 6388              	.LBE653:
 6389              	.LBB656:
 6390              	.LBB657:
 586:HANcoder_E407_TTA_CombineModel.c **** }
 6391              		.loc 1 586 15 view .LVU2311
 6392 151e 5A09     		lsrs	r2, r3, #5
 6393              	.LBE657:
 6394              	.LBE656:
 6395              	.LBB660:
 6396              	.LBB661:
 501:HANcoder_E407_TTA_CombineModel.c **** }
 6397              		.loc 1 501 15 view .LVU2312
 6398 1520 0902     		lsls	r1, r1, #8
 6399              	.LBE661:
 6400              	.LBE660:
 6401              	.LBB663:
 6402              	.LBB658:
 586:HANcoder_E407_TTA_CombineModel.c **** }
 6403              		.loc 1 586 13 view .LVU2313
 6404 1522 85F85020 		strb	r2, [r5, #80]
 6405              	.LBE658:
 6406              	.LBE663:
 6407              	.LBB664:
 6408              	.LBB665:
 602:HANcoder_E407_TTA_CombineModel.c **** }
 6409              		.loc 1 602 15 view .LVU2314
 6410 1526 9A09     		lsrs	r2, r3, #6
 6411              	.LBE665:
 6412              	.LBE664:
 6413              	.LBB667:
 6414              	.LBB668:
 618:HANcoder_E407_TTA_CombineModel.c **** }
 6415              		.loc 1 618 15 view .LVU2315
 6416 1528 DB09     		lsrs	r3, r3, #7
 6417              	.LBE668:
 6418              	.LBE667:
3117:HANcoder_E407_TTA_CombineModel.c **** 
 6419              		.loc 1 3117 35 view .LVU2316
 6420 152a 84F8E570 		strb	r7, [r4, #229]
3120:HANcoder_E407_TTA_CombineModel.c **** 
 6421              		.loc 1 3120 7 is_stmt 1 view .LVU2317
3123:HANcoder_E407_TTA_CombineModel.c **** 
 6422              		.loc 1 3123 7 view .LVU2318
 6423              	.LVL374:
 6424              	.LBB670:
 6425              	.LBI636:
 496:HANcoder_E407_TTA_CombineModel.c **** {
 6426              		.loc 1 496 6 view .LVU2319
 6427              	.LBB639:
 501:HANcoder_E407_TTA_CombineModel.c **** }
 6428              		.loc 1 501 3 view .LVU2320
 501:HANcoder_E407_TTA_CombineModel.c **** }
 6429              		.loc 1 501 3 is_stmt 0 view .LVU2321
 6430              	.LBE639:
 6431              	.LBE670:
3131:HANcoder_E407_TTA_CombineModel.c **** 
 6432              		.loc 1 3131 7 is_stmt 1 view .LVU2322
3131:HANcoder_E407_TTA_CombineModel.c **** 
 6433              		.loc 1 3131 22 is_stmt 0 view .LVU2323
 6434 152e A4F85400 		strh	r0, [r4, #84]	@ movhi
3134:HANcoder_E407_TTA_CombineModel.c **** 
 6435              		.loc 1 3134 7 is_stmt 1 view .LVU2324
3137:HANcoder_E407_TTA_CombineModel.c **** 
 6436              		.loc 1 3137 7 view .LVU2325
 6437              	.LVL375:
 6438              	.LBB671:
 6439              	.LBI660:
 496:HANcoder_E407_TTA_CombineModel.c **** {
 6440              		.loc 1 496 6 view .LVU2326
 6441              	.LBB662:
 501:HANcoder_E407_TTA_CombineModel.c **** }
 6442              		.loc 1 501 3 view .LVU2327
 501:HANcoder_E407_TTA_CombineModel.c **** }
 6443              		.loc 1 501 13 is_stmt 0 view .LVU2328
 6444 1532 A5F85810 		strh	r1, [r5, #88]	@ movhi
 6445              	.LVL376:
 501:HANcoder_E407_TTA_CombineModel.c **** }
 6446              		.loc 1 501 13 view .LVU2329
 6447              	.LBE662:
 6448              	.LBE671:
3142:HANcoder_E407_TTA_CombineModel.c **** 
 6449              		.loc 1 3142 7 is_stmt 1 view .LVU2330
 6450              	.LBB672:
 6451              	.LBI641:
 517:HANcoder_E407_TTA_CombineModel.c **** {
 6452              		.loc 1 517 6 view .LVU2331
 6453              	.LBB643:
 522:HANcoder_E407_TTA_CombineModel.c **** }
 6454              		.loc 1 522 3 view .LVU2332
 522:HANcoder_E407_TTA_CombineModel.c **** }
 6455              		.loc 1 522 3 is_stmt 0 view .LVU2333
 6456              	.LBE643:
 6457              	.LBE672:
3149:HANcoder_E407_TTA_CombineModel.c **** 
 6458              		.loc 1 3149 7 is_stmt 1 view .LVU2334
3152:HANcoder_E407_TTA_CombineModel.c **** 
 6459              		.loc 1 3152 7 view .LVU2335
 6460              	.LBB673:
 6461              	.LBI647:
 533:HANcoder_E407_TTA_CombineModel.c **** {
 6462              		.loc 1 533 6 view .LVU2336
 6463              	.LBB649:
 538:HANcoder_E407_TTA_CombineModel.c **** }
 6464              		.loc 1 538 3 view .LVU2337
 538:HANcoder_E407_TTA_CombineModel.c **** }
 6465              		.loc 1 538 3 is_stmt 0 view .LVU2338
 6466              	.LBE649:
 6467              	.LBE673:
3157:HANcoder_E407_TTA_CombineModel.c **** 
 6468              		.loc 1 3157 7 is_stmt 1 view .LVU2339
 6469              	.LBB674:
 6470              	.LBI650:
 549:HANcoder_E407_TTA_CombineModel.c **** {
 6471              		.loc 1 549 6 view .LVU2340
 6472              	.LBB652:
 554:HANcoder_E407_TTA_CombineModel.c **** }
 6473              		.loc 1 554 3 view .LVU2341
 554:HANcoder_E407_TTA_CombineModel.c **** }
 6474              		.loc 1 554 3 is_stmt 0 view .LVU2342
 6475              	.LBE652:
 6476              	.LBE674:
3162:HANcoder_E407_TTA_CombineModel.c **** 
 6477              		.loc 1 3162 7 is_stmt 1 view .LVU2343
 6478              	.LBB675:
 6479              	.LBI653:
 565:HANcoder_E407_TTA_CombineModel.c **** {
 6480              		.loc 1 565 6 view .LVU2344
 6481              	.LBB655:
 570:HANcoder_E407_TTA_CombineModel.c **** }
 6482              		.loc 1 570 3 view .LVU2345
 570:HANcoder_E407_TTA_CombineModel.c **** }
 6483              		.loc 1 570 3 is_stmt 0 view .LVU2346
 6484              	.LBE655:
 6485              	.LBE675:
3167:HANcoder_E407_TTA_CombineModel.c **** 
 6486              		.loc 1 3167 7 is_stmt 1 view .LVU2347
 6487              	.LBB676:
 6488              	.LBI656:
 581:HANcoder_E407_TTA_CombineModel.c **** {
 6489              		.loc 1 581 6 view .LVU2348
 6490              	.LBB659:
 586:HANcoder_E407_TTA_CombineModel.c **** }
 6491              		.loc 1 586 3 view .LVU2349
 586:HANcoder_E407_TTA_CombineModel.c **** }
 6492              		.loc 1 586 3 is_stmt 0 view .LVU2350
 6493              	.LBE659:
 6494              	.LBE676:
3172:HANcoder_E407_TTA_CombineModel.c **** 
 6495              		.loc 1 3172 7 is_stmt 1 view .LVU2351
 6496              	.LBB677:
 6497              	.LBI664:
 597:HANcoder_E407_TTA_CombineModel.c **** {
 6498              		.loc 1 597 6 view .LVU2352
 6499              	.LBB666:
 602:HANcoder_E407_TTA_CombineModel.c **** }
 6500              		.loc 1 602 3 view .LVU2353
 602:HANcoder_E407_TTA_CombineModel.c **** }
 6501              		.loc 1 602 13 is_stmt 0 view .LVU2354
 6502 1536 85F84F20 		strb	r2, [r5, #79]
 6503              	.LVL377:
 602:HANcoder_E407_TTA_CombineModel.c **** }
 6504              		.loc 1 602 13 view .LVU2355
 6505              	.LBE666:
 6506              	.LBE677:
3177:HANcoder_E407_TTA_CombineModel.c **** 
 6507              		.loc 1 3177 7 is_stmt 1 view .LVU2356
 6508              	.LBB678:
 6509              	.LBI667:
 613:HANcoder_E407_TTA_CombineModel.c **** {
 6510              		.loc 1 613 6 view .LVU2357
 6511              	.LBB669:
 618:HANcoder_E407_TTA_CombineModel.c **** }
 6512              		.loc 1 618 3 view .LVU2358
 618:HANcoder_E407_TTA_CombineModel.c **** }
 6513              		.loc 1 618 13 is_stmt 0 view .LVU2359
 6514 153a 85F84E30 		strb	r3, [r5, #78]
 6515              	.LVL378:
 618:HANcoder_E407_TTA_CombineModel.c **** }
 6516              		.loc 1 618 13 view .LVU2360
 6517              	.LBE669:
 6518              	.LBE678:
3182:HANcoder_E407_TTA_CombineModel.c **** 
 6519              		.loc 1 3182 7 is_stmt 1 view .LVU2361
 6520              	.LBB679:
 6521              	.LBI644:
 517:HANcoder_E407_TTA_CombineModel.c **** {
 6522              		.loc 1 517 6 view .LVU2362
 6523              	.LBB646:
 522:HANcoder_E407_TTA_CombineModel.c **** }
 6524              		.loc 1 522 3 view .LVU2363
 522:HANcoder_E407_TTA_CombineModel.c **** }
 6525              		.loc 1 522 3 is_stmt 0 view .LVU2364
 6526              	.LBE646:
 6527              	.LBE679:
3192:HANcoder_E407_TTA_CombineModel.c **** 
 6528              		.loc 1 3192 5 is_stmt 1 view .LVU2365
 6529 153e 40E7     		b	.L184
 6530              	.LVL379:
 6531              	.L288:
3192:HANcoder_E407_TTA_CombineModel.c **** 
 6532              		.loc 1 3192 5 is_stmt 0 view .LVU2366
 6533 1540 0023     		movs	r3, #0
 6534              	.LVL380:
3192:HANcoder_E407_TTA_CombineModel.c **** 
 6535              		.loc 1 3192 5 view .LVU2367
 6536 1542 FFF790BA 		b	.L110
 6537              	.LVL381:
 6538              	.L386:
3192:HANcoder_E407_TTA_CombineModel.c **** 
 6539              		.loc 1 3192 5 view .LVU2368
 6540 1546 059B     		ldr	r3, [sp, #20]
 6541 1548 83F00108 		eor	r8, r3, #1
1167:HANcoder_E407_TTA_CombineModel.c **** 
 6542              		.loc 1 1167 9 discriminator 6 view .LVU2369
 6543 154c 704B     		ldr	r3, .L463+32
 6544 154e 83F80080 		strb	r8, [r3]
1164:HANcoder_E407_TTA_CombineModel.c **** 
 6545              		.loc 1 1164 21 discriminator 6 view .LVU2370
 6546 1552 0023     		movs	r3, #0
 6547 1554 84F8EB30 		strb	r3, [r4, #235]
1167:HANcoder_E407_TTA_CombineModel.c **** 
 6548              		.loc 1 1167 5 is_stmt 1 discriminator 6 view .LVU2371
1172:HANcoder_E407_TTA_CombineModel.c **** 
 6549              		.loc 1 1172 5 discriminator 6 view .LVU2372
1172:HANcoder_E407_TTA_CombineModel.c **** 
 6550              		.loc 1 1172 38 is_stmt 0 discriminator 6 view .LVU2373
 6551 1558 51EC180B 		vmov	r0, r1, d8
 6552 155c 3246     		mov	r2, r6
 6553 155e 3B46     		mov	r3, r7
 6554 1560 FFF7FEFF 		bl	__aeabi_dcmplt
 6555              	.LVL382:
 6556 1564 0028     		cmp	r0, #0
 6557 1566 08BF     		it	eq
 6558 1568 4FF00008 		moveq	r8, #0
 6559 156c FFF791B9 		b	.L94
 6560              	.LVL383:
 6561              	.L278:
1172:HANcoder_E407_TTA_CombineModel.c **** 
 6562              		.loc 1 1172 38 discriminator 6 view .LVU2374
 6563 1570 4FF44873 		mov	r3, #800
 6564 1574 FFF760B9 		b	.L88
 6565              	.LVL384:
 6566              	.L388:
1177:HANcoder_E407_TTA_CombineModel.c ****       rtb_Uk1 = 0.0;
 6567              		.loc 1 1177 12 is_stmt 1 view .LVU2375
1177:HANcoder_E407_TTA_CombineModel.c ****       rtb_Uk1 = 0.0;
 6568              		.loc 1 1177 15 is_stmt 0 view .LVU2376
 6569 1578 51EC190B 		vmov	r0, r1, d9
 6570 157c 0022     		movs	r2, #0
 6571 157e 0023     		movs	r3, #0
 6572 1580 FFF7FEFF 		bl	__aeabi_dcmpge
 6573              	.LVL385:
 6574 1584 0028     		cmp	r0, #0
 6575 1586 3FF4D7A9 		beq	.L98
 6576              	.LVL386:
1186:HANcoder_E407_TTA_CombineModel.c **** 
 6577              		.loc 1 1186 5 is_stmt 1 view .LVU2377
1186:HANcoder_E407_TTA_CombineModel.c **** 
 6578              		.loc 1 1186 22 is_stmt 0 view .LVU2378
 6579 158a 624B     		ldr	r3, .L463+36
 6580 158c 3046     		mov	r0, r6
 6581 158e 3946     		mov	r1, r7
 6582 1590 D3E90023 		ldrd	r2, [r3]
 6583 1594 FFF7FEFF 		bl	__aeabi_dmul
 6584              	.LVL387:
 6585 1598 0646     		mov	r6, r0
 6586              	.LVL388:
1186:HANcoder_E407_TTA_CombineModel.c **** 
 6587              		.loc 1 1186 22 view .LVU2379
 6588 159a 0F46     		mov	r7, r1
 6589              	.LVL389:
1194:HANcoder_E407_TTA_CombineModel.c ****       rtPrevAction = 1;
 6590              		.loc 1 1194 5 is_stmt 1 view .LVU2380
1206:HANcoder_E407_TTA_CombineModel.c ****       rtAction = 1;
 6591              		.loc 1 1206 5 view .LVU2381
 6592 159c FFF7E7B9 		b	.L101
 6593              	.LVL390:
 6594              	.L170:
2456:HANcoder_E407_TTA_CombineModel.c ****       rtDWork.TRCK1_RX_MODE = true;
 6595              		.loc 1 2456 5 view .LVU2382
2457:HANcoder_E407_TTA_CombineModel.c **** 
 6596              		.loc 1 2457 7 view .LVU2383
2464:HANcoder_E407_TTA_CombineModel.c ****         &canRxData_0_TRCK1_ID1.uint8_T_info[0], NULL);
 6597              		.loc 1 2464 29 is_stmt 0 view .LVU2384
 6598 15a0 5D4B     		ldr	r3, .L463+40
 6599 15a2 5E4E     		ldr	r6, .L463+44
 6600 15a4 1968     		ldr	r1, [r3]
 6601 15a6 0022     		movs	r2, #0
2457:HANcoder_E407_TTA_CombineModel.c **** 
 6602              		.loc 1 2457 29 view .LVU2385
 6603 15a8 0123     		movs	r3, #1
2464:HANcoder_E407_TTA_CombineModel.c ****         &canRxData_0_TRCK1_ID1.uint8_T_info[0], NULL);
 6604              		.loc 1 2464 29 view .LVU2386
 6605 15aa 0092     		str	r2, [sp]
 6606 15ac 1046     		mov	r0, r2
2457:HANcoder_E407_TTA_CombineModel.c **** 
 6607              		.loc 1 2457 29 view .LVU2387
 6608 15ae 84F80131 		strb	r3, [r4, #257]
2464:HANcoder_E407_TTA_CombineModel.c ****         &canRxData_0_TRCK1_ID1.uint8_T_info[0], NULL);
 6609              		.loc 1 2464 7 is_stmt 1 view .LVU2388
2464:HANcoder_E407_TTA_CombineModel.c ****         &canRxData_0_TRCK1_ID1.uint8_T_info[0], NULL);
 6610              		.loc 1 2464 29 is_stmt 0 view .LVU2389
 6611 15b2 3346     		mov	r3, r6
 6612 15b4 FFF7FEFF 		bl	CanIoGetMessage
 6613              	.LVL391:
2468:HANcoder_E407_TTA_CombineModel.c ****         /* read the data */
 6614              		.loc 1 2468 7 is_stmt 1 view .LVU2390
2468:HANcoder_E407_TTA_CombineModel.c ****         /* read the data */
 6615              		.loc 1 2468 10 is_stmt 0 view .LVU2391
 6616 15b8 0028     		cmp	r0, #0
 6617 15ba 40F30582 		ble	.L442
2470:HANcoder_E407_TTA_CombineModel.c ****         rtb_SFunction_o3_i = canRxData_0_TRCK1_ID1.uint8_T_info[1];
 6618              		.loc 1 2470 9 is_stmt 1 view .LVU2392
2470:HANcoder_E407_TTA_CombineModel.c ****         rtb_SFunction_o3_i = canRxData_0_TRCK1_ID1.uint8_T_info[1];
 6619              		.loc 1 2470 28 is_stmt 0 view .LVU2393
 6620 15be 3178     		ldrb	r1, [r6]	@ zero_extendqisi2
 6621              	.LVL392:
2471:HANcoder_E407_TTA_CombineModel.c ****         rtb_SFunction_o4_n = canRxData_0_TRCK1_ID1.uint8_T_info[2];
 6622              		.loc 1 2471 9 is_stmt 1 view .LVU2394
2471:HANcoder_E407_TTA_CombineModel.c ****         rtb_SFunction_o4_n = canRxData_0_TRCK1_ID1.uint8_T_info[2];
 6623              		.loc 1 2471 28 is_stmt 0 view .LVU2395
 6624 15c0 7778     		ldrb	r7, [r6, #1]	@ zero_extendqisi2
 6625              	.LVL393:
2472:HANcoder_E407_TTA_CombineModel.c ****         rtb_SFunction_o5_p = canRxData_0_TRCK1_ID1.uint8_T_info[3];
 6626              		.loc 1 2472 9 is_stmt 1 view .LVU2396
2472:HANcoder_E407_TTA_CombineModel.c ****         rtb_SFunction_o5_p = canRxData_0_TRCK1_ID1.uint8_T_info[3];
 6627              		.loc 1 2472 28 is_stmt 0 view .LVU2397
 6628 15c2 B278     		ldrb	r2, [r6, #2]	@ zero_extendqisi2
 6629              	.LVL394:
2473:HANcoder_E407_TTA_CombineModel.c ****         rtb_SFunction_o6_g = canRxData_0_TRCK1_ID1.uint8_T_info[4];
 6630              		.loc 1 2473 9 is_stmt 1 view .LVU2398
2473:HANcoder_E407_TTA_CombineModel.c ****         rtb_SFunction_o6_g = canRxData_0_TRCK1_ID1.uint8_T_info[4];
 6631              		.loc 1 2473 28 is_stmt 0 view .LVU2399
 6632 15c4 F078     		ldrb	r0, [r6, #3]	@ zero_extendqisi2
 6633              	.LVL395:
2474:HANcoder_E407_TTA_CombineModel.c ****         rtb_SFunction_o7_fg = canRxData_0_TRCK1_ID1.uint8_T_info[5];
 6634              		.loc 1 2474 9 is_stmt 1 view .LVU2400
2475:HANcoder_E407_TTA_CombineModel.c ****         rtb_SFunction_o8_i = canRxData_0_TRCK1_ID1.uint8_T_info[6];
 6635              		.loc 1 2475 9 view .LVU2401
2476:HANcoder_E407_TTA_CombineModel.c ****         rtb_SFunction_o9_o = canRxData_0_TRCK1_ID1.uint8_T_info[7];
 6636              		.loc 1 2476 9 view .LVU2402
2476:HANcoder_E407_TTA_CombineModel.c ****         rtb_SFunction_o9_o = canRxData_0_TRCK1_ID1.uint8_T_info[7];
 6637              		.loc 1 2476 28 is_stmt 0 view .LVU2403
 6638 15c6 B379     		ldrb	r3, [r6, #6]	@ zero_extendqisi2
 6639              	.LVL396:
2477:HANcoder_E407_TTA_CombineModel.c ****       }
 6640              		.loc 1 2477 9 is_stmt 1 view .LVU2404
2481:HANcoder_E407_TTA_CombineModel.c ****                        rtb_SFunction_o3_i, rtb_SFunction_o4_n,
 6641              		.loc 1 2481 7 view .LVU2405
 6642              	.LBB680:
 6643              	.LBI680:
 442:HANcoder_E407_TTA_CombineModel.c ****                       uint8_T rtu_In3, uint8_T rtu_In4, uint8_T rtu_In5, uint8_T
 6644              		.loc 1 442 6 view .LVU2406
 6645              	.LBB681:
 447:HANcoder_E407_TTA_CombineModel.c ****   uint8_T rtb_In6;
 6646              		.loc 1 447 3 view .LVU2407
 448:HANcoder_E407_TTA_CombineModel.c ****   uint8_T rtb_In8_m;
 6647              		.loc 1 448 3 view .LVU2408
 449:HANcoder_E407_TTA_CombineModel.c **** 
 6648              		.loc 1 449 3 view .LVU2409
 454:HANcoder_E407_TTA_CombineModel.c ****     /* SignalConversion generated from: '<S123>/In1' */
 6649              		.loc 1 454 3 view .LVU2410
 456:HANcoder_E407_TTA_CombineModel.c **** 
 6650              		.loc 1 456 5 view .LVU2411
 459:HANcoder_E407_TTA_CombineModel.c **** 
 6651              		.loc 1 459 5 view .LVU2412
 462:HANcoder_E407_TTA_CombineModel.c **** 
 6652              		.loc 1 462 5 view .LVU2413
 465:HANcoder_E407_TTA_CombineModel.c **** 
 6653              		.loc 1 465 5 view .LVU2414
 456:HANcoder_E407_TTA_CombineModel.c **** 
 6654              		.loc 1 456 17 is_stmt 0 view .LVU2415
 6655 15c8 85F89710 		strb	r1, [r5, #151]
 459:HANcoder_E407_TTA_CombineModel.c **** 
 6656              		.loc 1 459 17 view .LVU2416
 6657 15cc 85F89870 		strb	r7, [r5, #152]
 462:HANcoder_E407_TTA_CombineModel.c **** 
 6658              		.loc 1 462 17 view .LVU2417
 6659 15d0 85F89920 		strb	r2, [r5, #153]
 465:HANcoder_E407_TTA_CombineModel.c **** 
 6660              		.loc 1 465 17 view .LVU2418
 6661 15d4 85F89A00 		strb	r0, [r5, #154]
 468:HANcoder_E407_TTA_CombineModel.c **** 
 6662              		.loc 1 468 5 is_stmt 1 view .LVU2419
 471:HANcoder_E407_TTA_CombineModel.c **** 
 6663              		.loc 1 471 5 view .LVU2420
 474:HANcoder_E407_TTA_CombineModel.c **** 
 6664              		.loc 1 474 5 view .LVU2421
 474:HANcoder_E407_TTA_CombineModel.c **** 
 6665              		.loc 1 474 17 is_stmt 0 view .LVU2422
 6666 15d8 85F89B30 		strb	r3, [r5, #155]
 477:HANcoder_E407_TTA_CombineModel.c ****   }
 6667              		.loc 1 477 5 is_stmt 1 view .LVU2423
 6668              	.LVL397:
 6669              	.L230:
 477:HANcoder_E407_TTA_CombineModel.c ****   }
 6670              		.loc 1 477 5 is_stmt 0 view .LVU2424
 6671              	.LBE681:
 6672              	.LBE680:
2490:HANcoder_E407_TTA_CombineModel.c **** 
 6673              		.loc 1 2490 7 is_stmt 1 view .LVU2425
2493:HANcoder_E407_TTA_CombineModel.c **** 
 6674              		.loc 1 2493 7 view .LVU2426
 6675              	.LBB682:
 6676              	.LBI682:
 496:HANcoder_E407_TTA_CombineModel.c **** {
 6677              		.loc 1 496 6 view .LVU2427
 6678              	.LBB683:
 501:HANcoder_E407_TTA_CombineModel.c **** }
 6679              		.loc 1 501 3 view .LVU2428
 6680              	.LBE683:
 6681              	.LBE682:
 6682              	.LBB686:
 6683              	.LBB687:
 501:HANcoder_E407_TTA_CombineModel.c **** }
 6684              		.loc 1 501 15 is_stmt 0 view .LVU2429
 6685 15dc 1202     		lsls	r2, r2, #8
 6686              	.LBE687:
 6687              	.LBE686:
 6688              	.LBB690:
 6689              	.LBB684:
 6690 15de 0902     		lsls	r1, r1, #8
 6691              	.LVL398:
 501:HANcoder_E407_TTA_CombineModel.c **** }
 6692              		.loc 1 501 15 view .LVU2430
 6693              	.LBE684:
 6694              	.LBE690:
2514:HANcoder_E407_TTA_CombineModel.c ****                          rtB.EnabledSubsystem_hn.In4);
 6695              		.loc 1 2514 15 view .LVU2431
 6696 15e0 1044     		add	r0, r0, r2
 6697              	.LBB691:
 6698              	.LBB688:
 501:HANcoder_E407_TTA_CombineModel.c **** }
 6699              		.loc 1 501 13 view .LVU2432
 6700 15e2 A5F89E20 		strh	r2, [r5, #158]	@ movhi
 6701              	.LBE688:
 6702              	.LBE691:
2500:HANcoder_E407_TTA_CombineModel.c ****                          rtB.EnabledSubsystem_hn.In2);
 6703              		.loc 1 2500 13 view .LVU2433
 6704 15e6 4E4A     		ldr	r2, .L463+48
 6705              	.LBB692:
 6706              	.LBB685:
 501:HANcoder_E407_TTA_CombineModel.c **** }
 6707              		.loc 1 501 13 view .LVU2434
 6708 15e8 A5F89C10 		strh	r1, [r5, #156]	@ movhi
 6709              	.LVL399:
 501:HANcoder_E407_TTA_CombineModel.c **** }
 6710              		.loc 1 501 13 view .LVU2435
 6711              	.LBE685:
 6712              	.LBE692:
2500:HANcoder_E407_TTA_CombineModel.c ****                          rtB.EnabledSubsystem_hn.In2);
 6713              		.loc 1 2500 7 is_stmt 1 view .LVU2436
2500:HANcoder_E407_TTA_CombineModel.c ****                          rtB.EnabledSubsystem_hn.In2);
 6714              		.loc 1 2500 15 is_stmt 0 view .LVU2437
 6715 15ec 0F44     		add	r7, r7, r1
2500:HANcoder_E407_TTA_CombineModel.c ****                          rtB.EnabledSubsystem_hn.In2);
 6716              		.loc 1 2500 13 view .LVU2438
 6717 15ee 1780     		strh	r7, [r2]	@ movhi
2504:HANcoder_E407_TTA_CombineModel.c **** 
 6718              		.loc 1 2504 7 is_stmt 1 view .LVU2439
 6719              	.LVL400:
2507:HANcoder_E407_TTA_CombineModel.c **** 
 6720              		.loc 1 2507 7 view .LVU2440
 6721              	.LBB693:
 6722              	.LBI686:
 496:HANcoder_E407_TTA_CombineModel.c **** {
 6723              		.loc 1 496 6 view .LVU2441
 6724              	.LBB689:
 501:HANcoder_E407_TTA_CombineModel.c **** }
 6725              		.loc 1 501 3 view .LVU2442
 501:HANcoder_E407_TTA_CombineModel.c **** }
 6726              		.loc 1 501 3 is_stmt 0 view .LVU2443
 6727              	.LBE689:
 6728              	.LBE693:
2514:HANcoder_E407_TTA_CombineModel.c ****                          rtB.EnabledSubsystem_hn.In4);
 6729              		.loc 1 2514 7 is_stmt 1 view .LVU2444
2514:HANcoder_E407_TTA_CombineModel.c ****                          rtB.EnabledSubsystem_hn.In4);
 6730              		.loc 1 2514 13 is_stmt 0 view .LVU2445
 6731 15f0 4C4A     		ldr	r2, .L463+52
 6732 15f2 1080     		strh	r0, [r2]	@ movhi
2518:HANcoder_E407_TTA_CombineModel.c **** 
 6733              		.loc 1 2518 7 is_stmt 1 view .LVU2446
 6734              	.LVL401:
 6735              	.LBB694:
 6736              	.LBI694:
 517:HANcoder_E407_TTA_CombineModel.c **** {
 6737              		.loc 1 517 6 view .LVU2447
 6738              	.LBB695:
 522:HANcoder_E407_TTA_CombineModel.c **** }
 6739              		.loc 1 522 3 view .LVU2448
 522:HANcoder_E407_TTA_CombineModel.c **** }
 6740              		.loc 1 522 15 is_stmt 0 view .LVU2449
 6741 15f4 5A08     		lsrs	r2, r3, #1
 522:HANcoder_E407_TTA_CombineModel.c **** }
 6742              		.loc 1 522 13 view .LVU2450
 6743 15f6 85F89620 		strb	r2, [r5, #150]
 6744              	.LVL402:
 522:HANcoder_E407_TTA_CombineModel.c **** }
 6745              		.loc 1 522 13 view .LVU2451
 6746              	.LBE695:
 6747              	.LBE694:
2523:HANcoder_E407_TTA_CombineModel.c **** 
 6748              		.loc 1 2523 7 is_stmt 1 view .LVU2452
 6749              	.LBB696:
 6750              	.LBI696:
 517:HANcoder_E407_TTA_CombineModel.c **** {
 6751              		.loc 1 517 6 view .LVU2453
 6752              	.LBB697:
 522:HANcoder_E407_TTA_CombineModel.c **** }
 6753              		.loc 1 522 3 view .LVU2454
 522:HANcoder_E407_TTA_CombineModel.c **** }
 6754              		.loc 1 522 13 is_stmt 0 view .LVU2455
 6755 15fa 85F88F20 		strb	r2, [r5, #143]
 6756              	.LVL403:
 522:HANcoder_E407_TTA_CombineModel.c **** }
 6757              		.loc 1 522 13 view .LVU2456
 6758              	.LBE697:
 6759              	.LBE696:
2528:HANcoder_E407_TTA_CombineModel.c **** 
 6760              		.loc 1 2528 7 is_stmt 1 view .LVU2457
 6761              	.LBB698:
 6762              	.LBI698:
 533:HANcoder_E407_TTA_CombineModel.c **** {
 6763              		.loc 1 533 6 view .LVU2458
 6764              	.LBB699:
 538:HANcoder_E407_TTA_CombineModel.c **** }
 6765              		.loc 1 538 3 view .LVU2459
 538:HANcoder_E407_TTA_CombineModel.c **** }
 6766              		.loc 1 538 15 is_stmt 0 view .LVU2460
 6767 15fe 9A08     		lsrs	r2, r3, #2
 538:HANcoder_E407_TTA_CombineModel.c **** }
 6768              		.loc 1 538 13 view .LVU2461
 6769 1600 85F89520 		strb	r2, [r5, #149]
 6770              	.LVL404:
 538:HANcoder_E407_TTA_CombineModel.c **** }
 6771              		.loc 1 538 13 view .LVU2462
 6772              	.LBE699:
 6773              	.LBE698:
2533:HANcoder_E407_TTA_CombineModel.c **** 
 6774              		.loc 1 2533 7 is_stmt 1 view .LVU2463
 6775              	.LBB700:
 6776              	.LBI700:
 549:HANcoder_E407_TTA_CombineModel.c **** {
 6777              		.loc 1 549 6 view .LVU2464
 6778              	.LBB701:
 554:HANcoder_E407_TTA_CombineModel.c **** }
 6779              		.loc 1 554 3 view .LVU2465
 554:HANcoder_E407_TTA_CombineModel.c **** }
 6780              		.loc 1 554 15 is_stmt 0 view .LVU2466
 6781 1604 DA08     		lsrs	r2, r3, #3
 554:HANcoder_E407_TTA_CombineModel.c **** }
 6782              		.loc 1 554 13 view .LVU2467
 6783 1606 85F89420 		strb	r2, [r5, #148]
 6784              	.LVL405:
 554:HANcoder_E407_TTA_CombineModel.c **** }
 6785              		.loc 1 554 13 view .LVU2468
 6786              	.LBE701:
 6787              	.LBE700:
2538:HANcoder_E407_TTA_CombineModel.c **** 
 6788              		.loc 1 2538 7 is_stmt 1 view .LVU2469
 6789              	.LBB702:
 6790              	.LBI702:
 565:HANcoder_E407_TTA_CombineModel.c **** {
 6791              		.loc 1 565 6 view .LVU2470
 6792              	.LBB703:
 570:HANcoder_E407_TTA_CombineModel.c **** }
 6793              		.loc 1 570 3 view .LVU2471
 570:HANcoder_E407_TTA_CombineModel.c **** }
 6794              		.loc 1 570 15 is_stmt 0 view .LVU2472
 6795 160a 1A09     		lsrs	r2, r3, #4
 570:HANcoder_E407_TTA_CombineModel.c **** }
 6796              		.loc 1 570 13 view .LVU2473
 6797 160c 85F89320 		strb	r2, [r5, #147]
 6798              	.LVL406:
 570:HANcoder_E407_TTA_CombineModel.c **** }
 6799              		.loc 1 570 13 view .LVU2474
 6800              	.LBE703:
 6801              	.LBE702:
2543:HANcoder_E407_TTA_CombineModel.c **** 
 6802              		.loc 1 2543 7 is_stmt 1 view .LVU2475
 6803              	.LBB704:
 6804              	.LBI704:
 581:HANcoder_E407_TTA_CombineModel.c **** {
 6805              		.loc 1 581 6 view .LVU2476
 6806              	.LBB705:
 586:HANcoder_E407_TTA_CombineModel.c **** }
 6807              		.loc 1 586 3 view .LVU2477
 586:HANcoder_E407_TTA_CombineModel.c **** }
 6808              		.loc 1 586 15 is_stmt 0 view .LVU2478
 6809 1610 5A09     		lsrs	r2, r3, #5
 586:HANcoder_E407_TTA_CombineModel.c **** }
 6810              		.loc 1 586 13 view .LVU2479
 6811 1612 85F89220 		strb	r2, [r5, #146]
 6812              	.LVL407:
 586:HANcoder_E407_TTA_CombineModel.c **** }
 6813              		.loc 1 586 13 view .LVU2480
 6814              	.LBE705:
 6815              	.LBE704:
2548:HANcoder_E407_TTA_CombineModel.c **** 
 6816              		.loc 1 2548 7 is_stmt 1 view .LVU2481
 6817              	.LBB706:
 6818              	.LBI706:
 597:HANcoder_E407_TTA_CombineModel.c **** {
 6819              		.loc 1 597 6 view .LVU2482
 6820              	.LBB707:
 602:HANcoder_E407_TTA_CombineModel.c **** }
 6821              		.loc 1 602 3 view .LVU2483
 602:HANcoder_E407_TTA_CombineModel.c **** }
 6822              		.loc 1 602 15 is_stmt 0 view .LVU2484
 6823 1616 9A09     		lsrs	r2, r3, #6
 6824              	.LBE707:
 6825              	.LBE706:
 6826              	.LBB709:
 6827              	.LBB710:
 618:HANcoder_E407_TTA_CombineModel.c **** }
 6828              		.loc 1 618 15 view .LVU2485
 6829 1618 DB09     		lsrs	r3, r3, #7
 6830              	.LBE710:
 6831              	.LBE709:
 6832              	.LBB712:
 6833              	.LBB708:
 602:HANcoder_E407_TTA_CombineModel.c **** }
 6834              		.loc 1 602 13 view .LVU2486
 6835 161a 85F89120 		strb	r2, [r5, #145]
 6836              	.LVL408:
 602:HANcoder_E407_TTA_CombineModel.c **** }
 6837              		.loc 1 602 13 view .LVU2487
 6838              	.LBE708:
 6839              	.LBE712:
2553:HANcoder_E407_TTA_CombineModel.c **** 
 6840              		.loc 1 2553 7 is_stmt 1 view .LVU2488
 6841              	.LBB713:
 6842              	.LBI709:
 613:HANcoder_E407_TTA_CombineModel.c **** {
 6843              		.loc 1 613 6 view .LVU2489
 6844              	.LBB711:
 618:HANcoder_E407_TTA_CombineModel.c **** }
 6845              		.loc 1 618 3 view .LVU2490
 618:HANcoder_E407_TTA_CombineModel.c **** }
 6846              		.loc 1 618 13 is_stmt 0 view .LVU2491
 6847 161e 85F89030 		strb	r3, [r5, #144]
 6848              	.LVL409:
 618:HANcoder_E407_TTA_CombineModel.c **** }
 6849              		.loc 1 618 13 view .LVU2492
 6850              	.LBE711:
 6851              	.LBE713:
2563:HANcoder_E407_TTA_CombineModel.c **** 
 6852              		.loc 1 2563 5 is_stmt 1 view .LVU2493
 6853 1622 FEF74EBE 		b	.L172
 6854              	.LVL410:
 6855              	.L178:
2809:HANcoder_E407_TTA_CombineModel.c ****       rtDWork.TRLS_ID4_RX_MODE = true;
 6856              		.loc 1 2809 5 view .LVU2494
2810:HANcoder_E407_TTA_CombineModel.c **** 
 6857              		.loc 1 2810 7 view .LVU2495
2817:HANcoder_E407_TTA_CombineModel.c ****         &canRxData_0_TRLS1_ID4.uint8_T_info[0], NULL);
 6858              		.loc 1 2817 28 is_stmt 0 view .LVU2496
 6859 1626 404B     		ldr	r3, .L463+56
 6860 1628 404E     		ldr	r6, .L463+60
 6861 162a 1968     		ldr	r1, [r3]
 6862 162c 0022     		movs	r2, #0
2810:HANcoder_E407_TTA_CombineModel.c **** 
 6863              		.loc 1 2810 32 view .LVU2497
 6864 162e 0123     		movs	r3, #1
2817:HANcoder_E407_TTA_CombineModel.c ****         &canRxData_0_TRLS1_ID4.uint8_T_info[0], NULL);
 6865              		.loc 1 2817 28 view .LVU2498
 6866 1630 0092     		str	r2, [sp]
 6867 1632 1046     		mov	r0, r2
2810:HANcoder_E407_TTA_CombineModel.c **** 
 6868              		.loc 1 2810 32 view .LVU2499
 6869 1634 84F8FF30 		strb	r3, [r4, #255]
2817:HANcoder_E407_TTA_CombineModel.c ****         &canRxData_0_TRLS1_ID4.uint8_T_info[0], NULL);
 6870              		.loc 1 2817 7 is_stmt 1 view .LVU2500
2817:HANcoder_E407_TTA_CombineModel.c ****         &canRxData_0_TRLS1_ID4.uint8_T_info[0], NULL);
 6871              		.loc 1 2817 28 is_stmt 0 view .LVU2501
 6872 1638 3346     		mov	r3, r6
 6873 163a FFF7FEFF 		bl	CanIoGetMessage
 6874              	.LVL411:
2821:HANcoder_E407_TTA_CombineModel.c ****         /* read the data */
 6875              		.loc 1 2821 7 is_stmt 1 view .LVU2502
2821:HANcoder_E407_TTA_CombineModel.c ****         /* read the data */
 6876              		.loc 1 2821 10 is_stmt 0 view .LVU2503
 6877 163e 0028     		cmp	r0, #0
 6878 1640 40F3CD81 		ble	.L443
2823:HANcoder_E407_TTA_CombineModel.c ****         rtb_SFunction_o3_p = canRxData_0_TRLS1_ID4.uint8_T_info[1];
 6879              		.loc 1 2823 9 is_stmt 1 view .LVU2504
2850:HANcoder_E407_TTA_CombineModel.c **** 
 6880              		.loc 1 2850 22 is_stmt 0 view .LVU2505
 6881 1644 3A49     		ldr	r1, .L463+64
2828:HANcoder_E407_TTA_CombineModel.c ****         rtb_SFunction_o8_f = canRxData_0_TRLS1_ID4.uint8_T_info[6];
 6882              		.loc 1 2828 28 view .LVU2506
 6883 1646 96F805C0 		ldrb	ip, [r6, #5]	@ zero_extendqisi2
2823:HANcoder_E407_TTA_CombineModel.c ****         rtb_SFunction_o3_p = canRxData_0_TRLS1_ID4.uint8_T_info[1];
 6884              		.loc 1 2823 28 view .LVU2507
 6885 164a 3378     		ldrb	r3, [r6]	@ zero_extendqisi2
 6886              	.LVL412:
2824:HANcoder_E407_TTA_CombineModel.c ****         rtb_SFunction_o4_c = canRxData_0_TRLS1_ID4.uint8_T_info[2];
 6887              		.loc 1 2824 9 is_stmt 1 view .LVU2508
2824:HANcoder_E407_TTA_CombineModel.c ****         rtb_SFunction_o4_c = canRxData_0_TRLS1_ID4.uint8_T_info[2];
 6888              		.loc 1 2824 28 is_stmt 0 view .LVU2509
 6889 164c 7778     		ldrb	r7, [r6, #1]	@ zero_extendqisi2
 6890              	.LVL413:
2825:HANcoder_E407_TTA_CombineModel.c ****         rtb_SFunction_o5_c = canRxData_0_TRLS1_ID4.uint8_T_info[3];
 6891              		.loc 1 2825 9 is_stmt 1 view .LVU2510
2825:HANcoder_E407_TTA_CombineModel.c ****         rtb_SFunction_o5_c = canRxData_0_TRLS1_ID4.uint8_T_info[3];
 6892              		.loc 1 2825 28 is_stmt 0 view .LVU2511
 6893 164e B278     		ldrb	r2, [r6, #2]	@ zero_extendqisi2
 6894              	.LVL414:
2826:HANcoder_E407_TTA_CombineModel.c ****         rtb_SFunction_o6_e = canRxData_0_TRLS1_ID4.uint8_T_info[4];
 6895              		.loc 1 2826 9 is_stmt 1 view .LVU2512
2826:HANcoder_E407_TTA_CombineModel.c ****         rtb_SFunction_o6_e = canRxData_0_TRLS1_ID4.uint8_T_info[4];
 6896              		.loc 1 2826 28 is_stmt 0 view .LVU2513
 6897 1650 F078     		ldrb	r0, [r6, #3]	@ zero_extendqisi2
 6898              	.LVL415:
2827:HANcoder_E407_TTA_CombineModel.c ****         rtb_SFunction_o7_l = canRxData_0_TRLS1_ID4.uint8_T_info[5];
 6899              		.loc 1 2827 9 is_stmt 1 view .LVU2514
2828:HANcoder_E407_TTA_CombineModel.c ****         rtb_SFunction_o8_f = canRxData_0_TRLS1_ID4.uint8_T_info[6];
 6900              		.loc 1 2828 9 view .LVU2515
2829:HANcoder_E407_TTA_CombineModel.c ****         rtb_SFunction_o9_h = canRxData_0_TRLS1_ID4.uint8_T_info[7];
 6901              		.loc 1 2829 9 view .LVU2516
2850:HANcoder_E407_TTA_CombineModel.c **** 
 6902              		.loc 1 2850 22 is_stmt 0 view .LVU2517
 6903 1652 81F800C0 		strb	ip, [r1]
2829:HANcoder_E407_TTA_CombineModel.c ****         rtb_SFunction_o9_h = canRxData_0_TRLS1_ID4.uint8_T_info[7];
 6904              		.loc 1 2829 28 view .LVU2518
 6905 1656 B179     		ldrb	r1, [r6, #6]	@ zero_extendqisi2
 6906              	.LVL416:
2830:HANcoder_E407_TTA_CombineModel.c ****       }
 6907              		.loc 1 2830 9 is_stmt 1 view .LVU2519
2836:HANcoder_E407_TTA_CombineModel.c ****         /* SignalConversion generated from: '<S282>/In1' */
 6908              		.loc 1 2836 7 view .LVU2520
2838:HANcoder_E407_TTA_CombineModel.c **** 
 6909              		.loc 1 2838 9 view .LVU2521
2841:HANcoder_E407_TTA_CombineModel.c **** 
 6910              		.loc 1 2841 9 view .LVU2522
2844:HANcoder_E407_TTA_CombineModel.c **** 
 6911              		.loc 1 2844 9 view .LVU2523
2847:HANcoder_E407_TTA_CombineModel.c **** 
 6912              		.loc 1 2847 9 view .LVU2524
2850:HANcoder_E407_TTA_CombineModel.c **** 
 6913              		.loc 1 2850 9 view .LVU2525
2853:HANcoder_E407_TTA_CombineModel.c ****       }
 6914              		.loc 1 2853 9 view .LVU2526
2838:HANcoder_E407_TTA_CombineModel.c **** 
 6915              		.loc 1 2838 19 is_stmt 0 view .LVU2527
 6916 1658 AB75     		strb	r3, [r5, #22]
2841:HANcoder_E407_TTA_CombineModel.c **** 
 6917              		.loc 1 2841 19 view .LVU2528
 6918 165a EF75     		strb	r7, [r5, #23]
2844:HANcoder_E407_TTA_CombineModel.c **** 
 6919              		.loc 1 2844 19 view .LVU2529
 6920 165c 2A76     		strb	r2, [r5, #24]
2847:HANcoder_E407_TTA_CombineModel.c **** 
 6921              		.loc 1 2847 19 view .LVU2530
 6922 165e 6876     		strb	r0, [r5, #25]
2853:HANcoder_E407_TTA_CombineModel.c ****       }
 6923              		.loc 1 2853 19 view .LVU2531
 6924 1660 A976     		strb	r1, [r5, #26]
 6925              	.LVL417:
 6926              	.L226:
2859:HANcoder_E407_TTA_CombineModel.c **** 
 6927              		.loc 1 2859 7 is_stmt 1 view .LVU2532
 6928              	.LBB714:
 6929              	.LBB715:
 501:HANcoder_E407_TTA_CombineModel.c **** }
 6930              		.loc 1 501 15 is_stmt 0 view .LVU2533
 6931 1662 1B02     		lsls	r3, r3, #8
 6932              	.LBE715:
 6933              	.LBE714:
2873:HANcoder_E407_TTA_CombineModel.c **** 
 6934              		.loc 1 2873 24 view .LVU2534
 6935 1664 1F44     		add	r7, r7, r3
 6936              	.LBB718:
 6937              	.LBB716:
 501:HANcoder_E407_TTA_CombineModel.c **** }
 6938              		.loc 1 501 13 view .LVU2535
 6939 1666 A5F86E30 		strh	r3, [r5, #110]	@ movhi
 6940              	.LBE716:
 6941              	.LBE718:
 6942              	.LBB719:
 6943              	.LBB720:
 522:HANcoder_E407_TTA_CombineModel.c **** }
 6944              		.loc 1 522 15 view .LVU2536
 6945 166a 4B08     		lsrs	r3, r1, #1
 522:HANcoder_E407_TTA_CombineModel.c **** }
 6946              		.loc 1 522 13 view .LVU2537
 6947 166c 85F86C30 		strb	r3, [r5, #108]
 6948              	.LBE720:
 6949              	.LBE719:
 6950              	.LBB722:
 6951              	.LBB723:
 6952 1670 85F86530 		strb	r3, [r5, #101]
 6953              	.LBE723:
 6954              	.LBE722:
2897:HANcoder_E407_TTA_CombineModel.c **** 
 6955              		.loc 1 2897 52 view .LVU2538
 6956 1674 003B     		subs	r3, r3, #0
 6957 1676 18BF     		it	ne
 6958 1678 0123     		movne	r3, #1
 6959 167a 84F8F130 		strb	r3, [r4, #241]
3060:HANcoder_E407_TTA_CombineModel.c **** 
 6960              		.loc 1 3060 23 view .LVU2539
 6961 167e 94F8DE30 		ldrb	r3, [r4, #222]	@ zero_extendqisi2
3054:HANcoder_E407_TTA_CombineModel.c **** 
 6962              		.loc 1 3054 28 view .LVU2540
 6963 1682 1F4E     		ldr	r6, .L463+16
2859:HANcoder_E407_TTA_CombineModel.c **** 
 6964              		.loc 1 2859 35 view .LVU2541
 6965 1684 84F8E6C0 		strb	ip, [r4, #230]
2862:HANcoder_E407_TTA_CombineModel.c **** 
 6966              		.loc 1 2862 7 is_stmt 1 view .LVU2542
2865:HANcoder_E407_TTA_CombineModel.c **** 
 6967              		.loc 1 2865 7 view .LVU2543
 6968              	.LVL418:
 6969              	.LBB725:
 6970              	.LBI714:
 496:HANcoder_E407_TTA_CombineModel.c **** {
 6971              		.loc 1 496 6 view .LVU2544
 6972              	.LBB717:
 501:HANcoder_E407_TTA_CombineModel.c **** }
 6973              		.loc 1 501 3 view .LVU2545
 501:HANcoder_E407_TTA_CombineModel.c **** }
 6974              		.loc 1 501 3 is_stmt 0 view .LVU2546
 6975              	.LBE717:
 6976              	.LBE725:
2873:HANcoder_E407_TTA_CombineModel.c **** 
 6977              		.loc 1 2873 7 is_stmt 1 view .LVU2547
3060:HANcoder_E407_TTA_CombineModel.c **** 
 6978              		.loc 1 3060 23 is_stmt 0 view .LVU2548
 6979 1688 07EE103A 		vmov	s14, r3	@ int
 6980              	.LBB726:
 6981              	.LBB727:
 538:HANcoder_E407_TTA_CombineModel.c **** }
 6982              		.loc 1 538 15 view .LVU2549
 6983 168c 8B08     		lsrs	r3, r1, #2
 6984              	.LBE727:
 6985              	.LBE726:
3054:HANcoder_E407_TTA_CombineModel.c **** 
 6986              		.loc 1 3054 28 view .LVU2550
 6987 168e 3678     		ldrb	r6, [r6]	@ zero_extendqisi2
 6988              	.LBB730:
 6989              	.LBB728:
 538:HANcoder_E407_TTA_CombineModel.c **** }
 6990              		.loc 1 538 13 view .LVU2551
 6991 1690 85F86B30 		strb	r3, [r5, #107]
 6992              	.LBE728:
 6993              	.LBE730:
 6994              	.LBB731:
 6995              	.LBB732:
 554:HANcoder_E407_TTA_CombineModel.c **** }
 6996              		.loc 1 554 15 view .LVU2552
 6997 1694 CB08     		lsrs	r3, r1, #3
 554:HANcoder_E407_TTA_CombineModel.c **** }
 6998              		.loc 1 554 13 view .LVU2553
 6999 1696 85F86A30 		strb	r3, [r5, #106]
 7000              	.LBE732:
 7001              	.LBE731:
 7002              	.LBB734:
 7003              	.LBB735:
 570:HANcoder_E407_TTA_CombineModel.c **** }
 7004              		.loc 1 570 15 view .LVU2554
 7005 169a 0B09     		lsrs	r3, r1, #4
 7006              	.LBE735:
 7007              	.LBE734:
 7008              	.LBB738:
 7009              	.LBB739:
 501:HANcoder_E407_TTA_CombineModel.c **** }
 7010              		.loc 1 501 15 view .LVU2555
 7011 169c 1202     		lsls	r2, r2, #8
 7012              	.LBE739:
 7013              	.LBE738:
3054:HANcoder_E407_TTA_CombineModel.c **** 
 7014              		.loc 1 3054 28 view .LVU2556
 7015 169e 07EE906A 		vmov	s15, r6	@ int
 7016              	.LBB741:
 7017              	.LBB736:
 570:HANcoder_E407_TTA_CombineModel.c **** }
 7018              		.loc 1 570 13 view .LVU2557
 7019 16a2 85F86930 		strb	r3, [r5, #105]
 7020              	.LBE736:
 7021              	.LBE741:
 7022              	.LBB742:
 7023              	.LBB743:
 586:HANcoder_E407_TTA_CombineModel.c **** }
 7024              		.loc 1 586 15 view .LVU2558
 7025 16a6 4B09     		lsrs	r3, r1, #5
 7026              	.LBE743:
 7027              	.LBE742:
2887:HANcoder_E407_TTA_CombineModel.c **** 
 7028              		.loc 1 2887 24 view .LVU2559
 7029 16a8 1044     		add	r0, r0, r2
 7030              	.LBB746:
 7031              	.LBB744:
 586:HANcoder_E407_TTA_CombineModel.c **** }
 7032              		.loc 1 586 13 view .LVU2560
 7033 16aa 85F86830 		strb	r3, [r5, #104]
 7034              	.LBE744:
 7035              	.LBE746:
 7036              	.LBB747:
 7037              	.LBB748:
 602:HANcoder_E407_TTA_CombineModel.c **** }
 7038              		.loc 1 602 15 view .LVU2561
 7039 16ae 8B09     		lsrs	r3, r1, #6
 7040              	.LBE748:
 7041              	.LBE747:
 7042              	.LBB750:
 7043              	.LBB751:
 618:HANcoder_E407_TTA_CombineModel.c **** }
 7044              		.loc 1 618 15 view .LVU2562
 7045 16b0 C909     		lsrs	r1, r1, #7
 7046              	.LBE751:
 7047              	.LBE750:
3054:HANcoder_E407_TTA_CombineModel.c **** 
 7048              		.loc 1 3054 28 view .LVU2563
 7049 16b2 F8EEE77A 		vcvt.f32.s32	s15, s15
3060:HANcoder_E407_TTA_CombineModel.c **** 
 7050              		.loc 1 3060 33 view .LVU2564
 7051 16b6 B8EEC77A 		vcvt.f32.s32	s14, s14
2873:HANcoder_E407_TTA_CombineModel.c **** 
 7052              		.loc 1 2873 22 view .LVU2565
 7053 16ba A4F85670 		strh	r7, [r4, #86]	@ movhi
2876:HANcoder_E407_TTA_CombineModel.c **** 
 7054              		.loc 1 2876 7 is_stmt 1 view .LVU2566
 7055              	.LVL419:
2879:HANcoder_E407_TTA_CombineModel.c **** 
 7056              		.loc 1 2879 7 view .LVU2567
 7057              	.LBB753:
 7058              	.LBI738:
 496:HANcoder_E407_TTA_CombineModel.c **** {
 7059              		.loc 1 496 6 view .LVU2568
 7060              	.LBB740:
 501:HANcoder_E407_TTA_CombineModel.c **** }
 7061              		.loc 1 501 3 view .LVU2569
 501:HANcoder_E407_TTA_CombineModel.c **** }
 7062              		.loc 1 501 13 is_stmt 0 view .LVU2570
 7063 16be A5F87020 		strh	r2, [r5, #112]	@ movhi
 7064              	.LVL420:
 501:HANcoder_E407_TTA_CombineModel.c **** }
 7065              		.loc 1 501 13 view .LVU2571
 7066              	.LBE740:
 7067              	.LBE753:
2887:HANcoder_E407_TTA_CombineModel.c **** 
 7068              		.loc 1 2887 7 is_stmt 1 view .LVU2572
2887:HANcoder_E407_TTA_CombineModel.c **** 
 7069              		.loc 1 2887 22 is_stmt 0 view .LVU2573
 7070 16c2 A4F85800 		strh	r0, [r4, #88]	@ movhi
2890:HANcoder_E407_TTA_CombineModel.c **** 
 7071              		.loc 1 2890 7 is_stmt 1 view .LVU2574
 7072              	.LVL421:
 7073              	.LBB754:
 7074              	.LBI719:
 517:HANcoder_E407_TTA_CombineModel.c **** {
 7075              		.loc 1 517 6 view .LVU2575
 7076              	.LBB721:
 522:HANcoder_E407_TTA_CombineModel.c **** }
 7077              		.loc 1 522 3 view .LVU2576
 522:HANcoder_E407_TTA_CombineModel.c **** }
 7078              		.loc 1 522 3 is_stmt 0 view .LVU2577
 7079              	.LBE721:
 7080              	.LBE754:
2897:HANcoder_E407_TTA_CombineModel.c **** 
 7081              		.loc 1 2897 7 is_stmt 1 view .LVU2578
2900:HANcoder_E407_TTA_CombineModel.c **** 
 7082              		.loc 1 2900 7 view .LVU2579
 7083              	.LBB755:
 7084              	.LBI726:
 533:HANcoder_E407_TTA_CombineModel.c **** {
 7085              		.loc 1 533 6 view .LVU2580
 7086              	.LBB729:
 538:HANcoder_E407_TTA_CombineModel.c **** }
 7087              		.loc 1 538 3 view .LVU2581
 538:HANcoder_E407_TTA_CombineModel.c **** }
 7088              		.loc 1 538 3 is_stmt 0 view .LVU2582
 7089              	.LBE729:
 7090              	.LBE755:
2905:HANcoder_E407_TTA_CombineModel.c **** 
 7091              		.loc 1 2905 7 is_stmt 1 view .LVU2583
 7092              	.LBB756:
 7093              	.LBI731:
 549:HANcoder_E407_TTA_CombineModel.c **** {
 7094              		.loc 1 549 6 view .LVU2584
 7095              	.LBB733:
 554:HANcoder_E407_TTA_CombineModel.c **** }
 7096              		.loc 1 554 3 view .LVU2585
 554:HANcoder_E407_TTA_CombineModel.c **** }
 7097              		.loc 1 554 3 is_stmt 0 view .LVU2586
 7098              	.LBE733:
 7099              	.LBE756:
2910:HANcoder_E407_TTA_CombineModel.c **** 
 7100              		.loc 1 2910 7 is_stmt 1 view .LVU2587
 7101              	.LBB757:
 7102              	.LBI734:
 565:HANcoder_E407_TTA_CombineModel.c **** {
 7103              		.loc 1 565 6 view .LVU2588
 7104              	.LBB737:
 570:HANcoder_E407_TTA_CombineModel.c **** }
 7105              		.loc 1 570 3 view .LVU2589
 570:HANcoder_E407_TTA_CombineModel.c **** }
 7106              		.loc 1 570 3 is_stmt 0 view .LVU2590
 7107              	.LBE737:
 7108              	.LBE757:
2915:HANcoder_E407_TTA_CombineModel.c **** 
 7109              		.loc 1 2915 7 is_stmt 1 view .LVU2591
 7110              	.LBB758:
 7111              	.LBI742:
 581:HANcoder_E407_TTA_CombineModel.c **** {
 7112              		.loc 1 581 6 view .LVU2592
 7113              	.LBB745:
 586:HANcoder_E407_TTA_CombineModel.c **** }
 7114              		.loc 1 586 3 view .LVU2593
 586:HANcoder_E407_TTA_CombineModel.c **** }
 7115              		.loc 1 586 3 is_stmt 0 view .LVU2594
 7116              	.LBE745:
 7117              	.LBE758:
2920:HANcoder_E407_TTA_CombineModel.c **** 
 7118              		.loc 1 2920 7 is_stmt 1 view .LVU2595
 7119              	.LBB759:
 7120              	.LBI747:
 597:HANcoder_E407_TTA_CombineModel.c **** {
 7121              		.loc 1 597 6 view .LVU2596
 7122              	.LBB749:
 602:HANcoder_E407_TTA_CombineModel.c **** }
 7123              		.loc 1 602 3 view .LVU2597
 602:HANcoder_E407_TTA_CombineModel.c **** }
 7124              		.loc 1 602 13 is_stmt 0 view .LVU2598
 7125 16c6 85F86730 		strb	r3, [r5, #103]
 7126              	.LVL422:
 602:HANcoder_E407_TTA_CombineModel.c **** }
 7127              		.loc 1 602 13 view .LVU2599
 7128              	.LBE749:
 7129              	.LBE759:
2925:HANcoder_E407_TTA_CombineModel.c **** 
 7130              		.loc 1 2925 7 is_stmt 1 view .LVU2600
 7131              	.LBB760:
 7132              	.LBI750:
 613:HANcoder_E407_TTA_CombineModel.c **** {
 7133              		.loc 1 613 6 view .LVU2601
 7134              	.LBB752:
 618:HANcoder_E407_TTA_CombineModel.c **** }
 7135              		.loc 1 618 3 view .LVU2602
 618:HANcoder_E407_TTA_CombineModel.c **** }
 7136              		.loc 1 618 13 is_stmt 0 view .LVU2603
 7137 16ca 85F86610 		strb	r1, [r5, #102]
 7138              	.LVL423:
 618:HANcoder_E407_TTA_CombineModel.c **** }
 7139              		.loc 1 618 13 view .LVU2604
 7140              	.LBE752:
 7141              	.LBE760:
2930:HANcoder_E407_TTA_CombineModel.c **** 
 7142              		.loc 1 2930 7 is_stmt 1 view .LVU2605
 7143              	.LBB761:
 7144              	.LBI722:
 517:HANcoder_E407_TTA_CombineModel.c **** {
 7145              		.loc 1 517 6 view .LVU2606
 7146              	.LBB724:
 522:HANcoder_E407_TTA_CombineModel.c **** }
 7147              		.loc 1 522 3 view .LVU2607
 522:HANcoder_E407_TTA_CombineModel.c **** }
 7148              		.loc 1 522 3 is_stmt 0 view .LVU2608
 7149              	.LBE724:
 7150              	.LBE761:
2940:HANcoder_E407_TTA_CombineModel.c **** 
 7151              		.loc 1 2940 5 is_stmt 1 view .LVU2609
 7152 16ce FEF72ABE 		b	.L180
 7153              	.LVL424:
 7154              	.L124:
1639:HANcoder_E407_TTA_CombineModel.c ****     }
 7155              		.loc 1 1639 7 view .LVU2610
 7156 16d2 0121     		movs	r1, #1
 7157 16d4 0A20     		movs	r0, #10
 7158 16d6 FFF7FEFF 		bl	DigoutSet
 7159              	.LVL425:
 7160 16da FFF7C1BA 		b	.L125
 7161              	.LVL426:
 7162              	.L132:
1703:HANcoder_E407_TTA_CombineModel.c **** 
 7163              		.loc 1 1703 5 view .LVU2611
1703:HANcoder_E407_TTA_CombineModel.c **** 
 7164              		.loc 1 1703 28 is_stmt 0 view .LVU2612
 7165 16de F0EE007A 		vmov.f32	s15, #2.0e+0
 7166 16e2 B4EE677A 		vcmp.f32	s14, s15
 7167 16e6 F1EE10FA 		vmrs	APSR_nzcv, FPSCR
 7168 16ea 23D0     		beq	.L136
1691:HANcoder_E407_TTA_CombineModel.c **** 
 7169              		.loc 1 1691 13 view .LVU2613
 7170 16ec 0026     		movs	r6, #0
 7171 16ee 35E4     		b	.L134
 7172              	.L464:
 7173              		.align	2
 7174              	.L463:
 7175 16f0 00000000 		.word	.LANCHOR50
 7176 16f4 00000000 		.word	.LANCHOR47
 7177 16f8 00000000 		.word	.LANCHOR48
 7178 16fc 00000000 		.word	.LANCHOR49
 7179 1700 00000000 		.word	.LANCHOR7
 7180 1704 00000000 		.word	.LANCHOR65
 7181 1708 00000000 		.word	.LANCHOR63
 7182 170c 00000000 		.word	.LANCHOR64
 7183 1710 00000000 		.word	.LANCHOR22
 7184 1714 00000000 		.word	.LANCHOR23
 7185 1718 00000000 		.word	.LANCHOR56
 7186 171c 00000000 		.word	.LANCHOR52
 7187 1720 00000000 		.word	.LANCHOR53
 7188 1724 00000000 		.word	.LANCHOR54
 7189 1728 00000000 		.word	.LANCHOR62
 7190 172c 00000000 		.word	.LANCHOR60
 7191 1730 00000000 		.word	.LANCHOR61
 7192              	.L136:
 7193              	.LVL427:
1708:HANcoder_E407_TTA_CombineModel.c ****       rtDWork.MMBS1_RX_MODE = true;
 7194              		.loc 1 1708 5 is_stmt 1 view .LVU2614
1709:HANcoder_E407_TTA_CombineModel.c **** 
 7195              		.loc 1 1709 7 view .LVU2615
1717:HANcoder_E407_TTA_CombineModel.c **** 
 7196              		.loc 1 1717 45 is_stmt 0 view .LVU2616
 7197 1734 C24B     		ldr	r3, .L465
1712:HANcoder_E407_TTA_CombineModel.c **** 
 7198              		.loc 1 1712 37 view .LVU2617
 7199 1736 94F8E710 		ldrb	r1, [r4, #231]	@ zero_extendqisi2
1717:HANcoder_E407_TTA_CombineModel.c **** 
 7200              		.loc 1 1717 45 view .LVU2618
 7201 173a 1878     		ldrb	r0, [r3]	@ zero_extendqisi2
1727:HANcoder_E407_TTA_CombineModel.c ****         ((uint8_T)100U)) << 1) + false) << 1) + rtb_Memory_m);
 7202              		.loc 1 1727 59 view .LVU2619
 7203 173c 94F8E920 		ldrb	r2, [r4, #233]	@ zero_extendqisi2
1729:HANcoder_E407_TTA_CombineModel.c ****       rtb_Logic[1U] = rtConstP.pooled23[(uint32_T)rtb_DataStoreRead7 + 8U];
 7204              		.loc 1 1729 40 view .LVU2620
 7205 1740 C04B     		ldr	r3, .L465+4
1717:HANcoder_E407_TTA_CombineModel.c **** 
 7206              		.loc 1 1717 45 view .LVU2621
 7207 1742 8142     		cmp	r1, r0
 7208 1744 94BF     		ite	ls
 7209 1746 0027     		movls	r7, #0
 7210 1748 0127     		movhi	r7, #1
1728:HANcoder_E407_TTA_CombineModel.c ****       rtb_Logic[0U] = rtConstP.pooled23[(uint32_T)rtb_DataStoreRead7];
 7211              		.loc 1 1728 41 view .LVU2622
 7212 174a 642A     		cmp	r2, #100
 7213 174c 8CBF     		ite	hi
 7214 174e 0426     		movhi	r6, #4
 7215 1750 0026     		movls	r6, #0
1729:HANcoder_E407_TTA_CombineModel.c ****       rtb_Logic[1U] = rtConstP.pooled23[(uint32_T)rtb_DataStoreRead7 + 8U];
 7216              		.loc 1 1729 40 view .LVU2623
 7217 1752 3344     		add	r3, r3, r6
1712:HANcoder_E407_TTA_CombineModel.c **** 
 7218              		.loc 1 1712 28 view .LVU2624
 7219 1754 BC4E     		ldr	r6, .L465+8
 7220 1756 3170     		strb	r1, [r6]
1717:HANcoder_E407_TTA_CombineModel.c **** 
 7221              		.loc 1 1717 21 view .LVU2625
 7222 1758 BC4E     		ldr	r6, .L465+12
1717:HANcoder_E407_TTA_CombineModel.c **** 
 7223              		.loc 1 1717 45 view .LVU2626
 7224 175a 3770     		strb	r7, [r6]
1720:HANcoder_E407_TTA_CombineModel.c **** 
 7225              		.loc 1 1720 20 view .LVU2627
 7226 175c 94F8F760 		ldrb	r6, [r4, #247]	@ zero_extendqisi2
1729:HANcoder_E407_TTA_CombineModel.c ****       rtb_Logic[1U] = rtConstP.pooled23[(uint32_T)rtb_DataStoreRead7 + 8U];
 7227              		.loc 1 1729 40 view .LVU2628
 7228 1760 9B5D     		ldrb	r3, [r3, r6]	@ zero_extendqisi2
 7229 1762 0293     		str	r3, [sp, #8]
1735:HANcoder_E407_TTA_CombineModel.c **** 
 7230              		.loc 1 1735 47 view .LVU2629
 7231 1764 8142     		cmp	r1, r0
1709:HANcoder_E407_TTA_CombineModel.c **** 
 7232              		.loc 1 1709 29 view .LVU2630
 7233 1766 4FF00103 		mov	r3, #1
 7234 176a 84F80531 		strb	r3, [r4, #261]
1712:HANcoder_E407_TTA_CombineModel.c **** 
 7235              		.loc 1 1712 7 is_stmt 1 view .LVU2631
1717:HANcoder_E407_TTA_CombineModel.c **** 
 7236              		.loc 1 1717 7 view .LVU2632
1720:HANcoder_E407_TTA_CombineModel.c **** 
 7237              		.loc 1 1720 7 view .LVU2633
 7238              	.LVL428:
1727:HANcoder_E407_TTA_CombineModel.c ****         ((uint8_T)100U)) << 1) + false) << 1) + rtb_Memory_m);
 7239              		.loc 1 1727 7 view .LVU2634
1729:HANcoder_E407_TTA_CombineModel.c ****       rtb_Logic[1U] = rtConstP.pooled23[(uint32_T)rtb_DataStoreRead7 + 8U];
 7240              		.loc 1 1729 7 view .LVU2635
1730:HANcoder_E407_TTA_CombineModel.c **** 
 7241              		.loc 1 1730 7 view .LVU2636
1735:HANcoder_E407_TTA_CombineModel.c **** 
 7242              		.loc 1 1735 7 view .LVU2637
1735:HANcoder_E407_TTA_CombineModel.c **** 
 7243              		.loc 1 1735 47 is_stmt 0 view .LVU2638
 7244 176e 35D9     		bls	.L291
1735:HANcoder_E407_TTA_CombineModel.c **** 
 7245              		.loc 1 1735 30 discriminator 1 view .LVU2639
 7246 1770 029B     		ldr	r3, [sp, #8]
 7247              	.LVL429:
1735:HANcoder_E407_TTA_CombineModel.c **** 
 7248              		.loc 1 1735 30 discriminator 1 view .LVU2640
 7249 1772 003B     		subs	r3, r3, #0
 7250 1774 18BF     		it	ne
 7251 1776 0123     		movne	r3, #1
 7252              	.L142:
1735:HANcoder_E407_TTA_CombineModel.c **** 
 7253              		.loc 1 1735 30 discriminator 6 view .LVU2641
 7254 1778 84F8F430 		strb	r3, [r4, #244]
1742:HANcoder_E407_TTA_CombineModel.c ****         1U));
 7255              		.loc 1 1742 7 is_stmt 1 discriminator 6 view .LVU2642
1742:HANcoder_E407_TTA_CombineModel.c ****         1U));
 7256              		.loc 1 1742 29 is_stmt 0 discriminator 6 view .LVU2643
 7257 177c 0132     		adds	r2, r2, #1
 7258              	.LVL430:
1750:HANcoder_E407_TTA_CombineModel.c ****         &canRxData_0_MMBS1_ID.uint8_T_info[0], NULL);
 7259              		.loc 1 1750 28 discriminator 6 view .LVU2644
 7260 177e B44B     		ldr	r3, .L465+16
 7261 1780 B44E     		ldr	r6, .L465+20
 7262              	.LVL431:
1742:HANcoder_E407_TTA_CombineModel.c ****         1U));
 7263              		.loc 1 1742 27 discriminator 6 view .LVU2645
 7264 1782 84F8E920 		strb	r2, [r4, #233]
1750:HANcoder_E407_TTA_CombineModel.c ****         &canRxData_0_MMBS1_ID.uint8_T_info[0], NULL);
 7265              		.loc 1 1750 7 is_stmt 1 discriminator 6 view .LVU2646
1750:HANcoder_E407_TTA_CombineModel.c ****         &canRxData_0_MMBS1_ID.uint8_T_info[0], NULL);
 7266              		.loc 1 1750 28 is_stmt 0 discriminator 6 view .LVU2647
 7267 1786 0022     		movs	r2, #0
 7268              	.LVL432:
1750:HANcoder_E407_TTA_CombineModel.c ****         &canRxData_0_MMBS1_ID.uint8_T_info[0], NULL);
 7269              		.loc 1 1750 28 discriminator 6 view .LVU2648
 7270 1788 1968     		ldr	r1, [r3]
 7271 178a 0092     		str	r2, [sp]
 7272 178c 3346     		mov	r3, r6
 7273 178e 1046     		mov	r0, r2
 7274 1790 FFF7FEFF 		bl	CanIoGetMessage
 7275              	.LVL433:
1754:HANcoder_E407_TTA_CombineModel.c ****         /* read the data */
 7276              		.loc 1 1754 7 is_stmt 1 discriminator 6 view .LVU2649
1754:HANcoder_E407_TTA_CombineModel.c ****         /* read the data */
 7277              		.loc 1 1754 10 is_stmt 0 discriminator 6 view .LVU2650
 7278 1794 0028     		cmp	r0, #0
 7279 1796 08DD     		ble	.L143
1756:HANcoder_E407_TTA_CombineModel.c ****         rtb_SFunction_o3_b = canRxData_0_MMBS1_ID.uint8_T_info[1];
 7280              		.loc 1 1756 9 is_stmt 1 view .LVU2651
 7281              	.LVL434:
1757:HANcoder_E407_TTA_CombineModel.c ****         rtb_SFunction_o4_l = canRxData_0_MMBS1_ID.uint8_T_info[2];
 7282              		.loc 1 1757 9 view .LVU2652
1758:HANcoder_E407_TTA_CombineModel.c ****         rtb_SFunction_o5_e = canRxData_0_MMBS1_ID.uint8_T_info[3];
 7283              		.loc 1 1758 9 view .LVU2653
1759:HANcoder_E407_TTA_CombineModel.c ****         rtb_SFunction_o6_k1 = canRxData_0_MMBS1_ID.uint8_T_info[4];
 7284              		.loc 1 1759 9 view .LVU2654
1758:HANcoder_E407_TTA_CombineModel.c ****         rtb_SFunction_o5_e = canRxData_0_MMBS1_ID.uint8_T_info[3];
 7285              		.loc 1 1758 28 is_stmt 0 view .LVU2655
 7286 1798 7388     		ldrh	r3, [r6, #2]
 7287              	.LVL435:
1760:HANcoder_E407_TTA_CombineModel.c ****         rtb_SFunction_o7_dj = canRxData_0_MMBS1_ID.uint8_T_info[5];
 7288              		.loc 1 1760 9 is_stmt 1 view .LVU2656
1761:HANcoder_E407_TTA_CombineModel.c ****         rtb_SFunction_o8_n1 = canRxData_0_MMBS1_ID.uint8_T_info[6];
 7289              		.loc 1 1761 9 view .LVU2657
1762:HANcoder_E407_TTA_CombineModel.c ****         rtb_SFunction_o9_ok = canRxData_0_MMBS1_ID.uint8_T_info[7];
 7290              		.loc 1 1762 9 view .LVU2658
 7291              	.LBB762:
 7292              	.LBB763:
 462:HANcoder_E407_TTA_CombineModel.c **** 
 7293              		.loc 1 462 17 is_stmt 0 view .LVU2659
 7294 179a A5F8D430 		strh	r3, [r5, #212]	@ movhi
 7295              	.LBE763:
 7296              	.LBE762:
1762:HANcoder_E407_TTA_CombineModel.c ****         rtb_SFunction_o9_ok = canRxData_0_MMBS1_ID.uint8_T_info[7];
 7297              		.loc 1 1762 29 view .LVU2660
 7298 179e B379     		ldrb	r3, [r6, #6]	@ zero_extendqisi2
 7299              	.LVL436:
1763:HANcoder_E407_TTA_CombineModel.c ****       }
 7300              		.loc 1 1763 9 is_stmt 1 view .LVU2661
1767:HANcoder_E407_TTA_CombineModel.c ****                        rtb_SFunction_o3_b, rtb_SFunction_o4_l,
 7301              		.loc 1 1767 7 view .LVU2662
 7302              	.LBB765:
 7303              	.LBI762:
 442:HANcoder_E407_TTA_CombineModel.c ****                       uint8_T rtu_In3, uint8_T rtu_In4, uint8_T rtu_In5, uint8_T
 7304              		.loc 1 442 6 view .LVU2663
 7305              	.LBB764:
 447:HANcoder_E407_TTA_CombineModel.c ****   uint8_T rtb_In6;
 7306              		.loc 1 447 3 view .LVU2664
 448:HANcoder_E407_TTA_CombineModel.c ****   uint8_T rtb_In8_m;
 7307              		.loc 1 448 3 view .LVU2665
 449:HANcoder_E407_TTA_CombineModel.c **** 
 7308              		.loc 1 449 3 view .LVU2666
 454:HANcoder_E407_TTA_CombineModel.c ****     /* SignalConversion generated from: '<S123>/In1' */
 7309              		.loc 1 454 3 view .LVU2667
 456:HANcoder_E407_TTA_CombineModel.c **** 
 7310              		.loc 1 456 5 view .LVU2668
 459:HANcoder_E407_TTA_CombineModel.c **** 
 7311              		.loc 1 459 5 view .LVU2669
 462:HANcoder_E407_TTA_CombineModel.c **** 
 7312              		.loc 1 462 5 view .LVU2670
 465:HANcoder_E407_TTA_CombineModel.c **** 
 7313              		.loc 1 465 5 view .LVU2671
 468:HANcoder_E407_TTA_CombineModel.c **** 
 7314              		.loc 1 468 5 view .LVU2672
 471:HANcoder_E407_TTA_CombineModel.c **** 
 7315              		.loc 1 471 5 view .LVU2673
 474:HANcoder_E407_TTA_CombineModel.c **** 
 7316              		.loc 1 474 5 view .LVU2674
 474:HANcoder_E407_TTA_CombineModel.c **** 
 7317              		.loc 1 474 17 is_stmt 0 view .LVU2675
 7318 17a0 85F8D630 		strb	r3, [r5, #214]
 477:HANcoder_E407_TTA_CombineModel.c ****   }
 7319              		.loc 1 477 5 is_stmt 1 view .LVU2676
 456:HANcoder_E407_TTA_CombineModel.c **** 
 7320              		.loc 1 456 17 is_stmt 0 view .LVU2677
 7321 17a4 3388     		ldrh	r3, [r6]
 7322              	.LVL437:
 456:HANcoder_E407_TTA_CombineModel.c **** 
 7323              		.loc 1 456 17 view .LVU2678
 7324 17a6 A5F8D230 		strh	r3, [r5, #210]	@ movhi
 7325              	.LVL438:
 7326              	.L143:
 456:HANcoder_E407_TTA_CombineModel.c **** 
 7327              		.loc 1 456 17 view .LVU2679
 7328              	.LBE764:
 7329              	.LBE765:
1783:HANcoder_E407_TTA_CombineModel.c ****         /* DataStoreWrite: '<S120>/Data Store Write' incorporates:
 7330              		.loc 1 1783 7 is_stmt 1 view .LVU2680
1783:HANcoder_E407_TTA_CombineModel.c ****         /* DataStoreWrite: '<S120>/Data Store Write' incorporates:
 7331              		.loc 1 1783 10 is_stmt 0 view .LVU2681
 7332 17aa 94F8F330 		ldrb	r3, [r4, #243]	@ zero_extendqisi2
 7333 17ae 012B     		cmp	r3, #1
 7334 17b0 00F0A980 		beq	.L144
1789:HANcoder_E407_TTA_CombineModel.c ****           ((uint8_T)1U));
 7335              		.loc 1 1789 9 is_stmt 1 view .LVU2682
1789:HANcoder_E407_TTA_CombineModel.c ****           ((uint8_T)1U));
 7336              		.loc 1 1789 34 is_stmt 0 view .LVU2683
 7337 17b4 94F8E730 		ldrb	r3, [r4, #231]	@ zero_extendqisi2
1851:HANcoder_E407_TTA_CombineModel.c **** 
 7338              		.loc 1 1851 36 view .LVU2684
 7339 17b8 94F8DEB0 		ldrb	fp, [r4, #222]	@ zero_extendqisi2
1789:HANcoder_E407_TTA_CombineModel.c ****           ((uint8_T)1U));
 7340              		.loc 1 1789 34 view .LVU2685
 7341 17bc 0133     		adds	r3, r3, #1
1789:HANcoder_E407_TTA_CombineModel.c ****           ((uint8_T)1U));
 7342              		.loc 1 1789 32 view .LVU2686
 7343 17be 84F8E730 		strb	r3, [r4, #231]
1812:HANcoder_E407_TTA_CombineModel.c **** 
 7344              		.loc 1 1812 5 is_stmt 1 view .LVU2687
1844:HANcoder_E407_TTA_CombineModel.c **** 
 7345              		.loc 1 1844 32 is_stmt 0 view .LVU2688
 7346 17c2 A54B     		ldr	r3, .L465+24
 7347 17c4 1B78     		ldrb	r3, [r3]	@ zero_extendqisi2
 7348 17c6 07EE903A 		vmov	s15, r3	@ int
 7349 17ca B8EEE77A 		vcvt.f32.s32	s14, s15
1851:HANcoder_E407_TTA_CombineModel.c **** 
 7350              		.loc 1 1851 46 view .LVU2689
 7351 17ce 07EE90BA 		vmov	s15, fp	@ int
1691:HANcoder_E407_TTA_CombineModel.c **** 
 7352              		.loc 1 1691 13 view .LVU2690
 7353 17d2 0026     		movs	r6, #0
1851:HANcoder_E407_TTA_CombineModel.c **** 
 7354              		.loc 1 1851 46 view .LVU2691
 7355 17d4 F8EEE77A 		vcvt.f32.s32	s15, s15
 7356 17d8 FFF7C9BB 		b	.L141
 7357              	.LVL439:
 7358              	.L291:
1851:HANcoder_E407_TTA_CombineModel.c **** 
 7359              		.loc 1 1851 46 view .LVU2692
 7360 17dc 0023     		movs	r3, #0
 7361              	.LVL440:
1851:HANcoder_E407_TTA_CombineModel.c **** 
 7362              		.loc 1 1851 46 view .LVU2693
 7363 17de CBE7     		b	.L142
 7364              	.LVL441:
 7365              	.L438:
1856:HANcoder_E407_TTA_CombineModel.c **** 
 7366              		.loc 1 1856 28 discriminator 1 view .LVU2694
 7367 17e0 002E     		cmp	r6, #0
 7368 17e2 40F0D281 		bne	.L444
 7369              	.LVL442:
1861:HANcoder_E407_TTA_CombineModel.c ****       rtDWork.SSTM1_RX_MODE = true;
 7370              		.loc 1 1861 5 is_stmt 1 view .LVU2695
1862:HANcoder_E407_TTA_CombineModel.c **** 
 7371              		.loc 1 1862 7 view .LVU2696
1869:HANcoder_E407_TTA_CombineModel.c ****         &canRxData_0_SSTM1_ID.uint8_T_info[0], NULL);
 7372              		.loc 1 1869 28 is_stmt 0 view .LVU2697
 7373 17e6 9D4B     		ldr	r3, .L465+28
 7374 17e8 0096     		str	r6, [sp]
 7375 17ea 9D4F     		ldr	r7, .L465+32
 7376 17ec 1968     		ldr	r1, [r3]
1862:HANcoder_E407_TTA_CombineModel.c **** 
 7377              		.loc 1 1862 29 view .LVU2698
 7378 17ee 0123     		movs	r3, #1
 7379 17f0 84F80431 		strb	r3, [r4, #260]
1869:HANcoder_E407_TTA_CombineModel.c ****         &canRxData_0_SSTM1_ID.uint8_T_info[0], NULL);
 7380              		.loc 1 1869 7 is_stmt 1 view .LVU2699
1869:HANcoder_E407_TTA_CombineModel.c ****         &canRxData_0_SSTM1_ID.uint8_T_info[0], NULL);
 7381              		.loc 1 1869 28 is_stmt 0 view .LVU2700
 7382 17f4 3246     		mov	r2, r6
 7383 17f6 3B46     		mov	r3, r7
 7384 17f8 3046     		mov	r0, r6
 7385 17fa FFF7FEFF 		bl	CanIoGetMessage
 7386              	.LVL443:
1873:HANcoder_E407_TTA_CombineModel.c ****         /* read the data */
 7387              		.loc 1 1873 7 is_stmt 1 view .LVU2701
1873:HANcoder_E407_TTA_CombineModel.c ****         /* read the data */
 7388              		.loc 1 1873 10 is_stmt 0 view .LVU2702
 7389 17fe 0028     		cmp	r0, #0
 7390 1800 40F3FC80 		ble	.L445
1875:HANcoder_E407_TTA_CombineModel.c ****         rtb_SFunction_o3_f = canRxData_0_SSTM1_ID.uint8_T_info[1];
 7391              		.loc 1 1875 9 is_stmt 1 view .LVU2703
 7392              	.LVL444:
1876:HANcoder_E407_TTA_CombineModel.c ****         rtb_SFunction_o4_k = canRxData_0_SSTM1_ID.uint8_T_info[2];
 7393              		.loc 1 1876 9 view .LVU2704
1876:HANcoder_E407_TTA_CombineModel.c ****         rtb_SFunction_o4_k = canRxData_0_SSTM1_ID.uint8_T_info[2];
 7394              		.loc 1 1876 28 is_stmt 0 view .LVU2705
 7395 1804 7B78     		ldrb	r3, [r7, #1]	@ zero_extendqisi2
 7396              	.LVL445:
1877:HANcoder_E407_TTA_CombineModel.c ****         rtb_SFunction_o5_h = canRxData_0_SSTM1_ID.uint8_T_info[3];
 7397              		.loc 1 1877 9 is_stmt 1 view .LVU2706
 7398              	.LBB766:
 7399              	.LBB767:
 459:HANcoder_E407_TTA_CombineModel.c **** 
 7400              		.loc 1 459 17 is_stmt 0 view .LVU2707
 7401 1806 85F8CE30 		strb	r3, [r5, #206]
 7402              	.LBE767:
 7403              	.LBE766:
1877:HANcoder_E407_TTA_CombineModel.c ****         rtb_SFunction_o5_h = canRxData_0_SSTM1_ID.uint8_T_info[3];
 7404              		.loc 1 1877 28 view .LVU2708
 7405 180a BB78     		ldrb	r3, [r7, #2]	@ zero_extendqisi2
 7406              	.LVL446:
1878:HANcoder_E407_TTA_CombineModel.c ****         rtb_SFunction_o6_k = canRxData_0_SSTM1_ID.uint8_T_info[4];
 7407              		.loc 1 1878 9 is_stmt 1 view .LVU2709
 7408              	.LBB771:
 7409              	.LBB768:
 462:HANcoder_E407_TTA_CombineModel.c **** 
 7410              		.loc 1 462 17 is_stmt 0 view .LVU2710
 7411 180c 85F8CF30 		strb	r3, [r5, #207]
 7412              	.LBE768:
 7413              	.LBE771:
1878:HANcoder_E407_TTA_CombineModel.c ****         rtb_SFunction_o6_k = canRxData_0_SSTM1_ID.uint8_T_info[4];
 7414              		.loc 1 1878 28 view .LVU2711
 7415 1810 FB78     		ldrb	r3, [r7, #3]	@ zero_extendqisi2
 7416              	.LVL447:
1879:HANcoder_E407_TTA_CombineModel.c ****         rtb_SFunction_o7_e = canRxData_0_SSTM1_ID.uint8_T_info[5];
 7417              		.loc 1 1879 9 is_stmt 1 view .LVU2712
1880:HANcoder_E407_TTA_CombineModel.c ****         rtb_SFunction_o8_pe = canRxData_0_SSTM1_ID.uint8_T_info[6];
 7418              		.loc 1 1880 9 view .LVU2713
1881:HANcoder_E407_TTA_CombineModel.c ****         rtb_SFunction_o9_f = canRxData_0_SSTM1_ID.uint8_T_info[7];
 7419              		.loc 1 1881 9 view .LVU2714
 7420              	.LBB772:
 7421              	.LBB769:
 465:HANcoder_E407_TTA_CombineModel.c **** 
 7422              		.loc 1 465 17 is_stmt 0 view .LVU2715
 7423 1812 85F8D030 		strb	r3, [r5, #208]
 7424              	.LBE769:
 7425              	.LBE772:
1881:HANcoder_E407_TTA_CombineModel.c ****         rtb_SFunction_o9_f = canRxData_0_SSTM1_ID.uint8_T_info[7];
 7426              		.loc 1 1881 29 view .LVU2716
 7427 1816 BB79     		ldrb	r3, [r7, #6]	@ zero_extendqisi2
 7428              	.LVL448:
1882:HANcoder_E407_TTA_CombineModel.c ****       }
 7429              		.loc 1 1882 9 is_stmt 1 view .LVU2717
1886:HANcoder_E407_TTA_CombineModel.c ****                        rtb_SFunction_o3_f, rtb_SFunction_o4_k,
 7430              		.loc 1 1886 7 view .LVU2718
 7431              	.LBB773:
 7432              	.LBI766:
 442:HANcoder_E407_TTA_CombineModel.c ****                       uint8_T rtu_In3, uint8_T rtu_In4, uint8_T rtu_In5, uint8_T
 7433              		.loc 1 442 6 view .LVU2719
 7434              	.LBB770:
 447:HANcoder_E407_TTA_CombineModel.c ****   uint8_T rtb_In6;
 7435              		.loc 1 447 3 view .LVU2720
 448:HANcoder_E407_TTA_CombineModel.c ****   uint8_T rtb_In8_m;
 7436              		.loc 1 448 3 view .LVU2721
 449:HANcoder_E407_TTA_CombineModel.c **** 
 7437              		.loc 1 449 3 view .LVU2722
 454:HANcoder_E407_TTA_CombineModel.c ****     /* SignalConversion generated from: '<S123>/In1' */
 7438              		.loc 1 454 3 view .LVU2723
 456:HANcoder_E407_TTA_CombineModel.c **** 
 7439              		.loc 1 456 5 view .LVU2724
 474:HANcoder_E407_TTA_CombineModel.c **** 
 7440              		.loc 1 474 17 is_stmt 0 view .LVU2725
 7441 1818 85F8D130 		strb	r3, [r5, #209]
 456:HANcoder_E407_TTA_CombineModel.c **** 
 7442              		.loc 1 456 17 view .LVU2726
 7443 181c 3B78     		ldrb	r3, [r7]	@ zero_extendqisi2
 7444              	.LVL449:
 456:HANcoder_E407_TTA_CombineModel.c **** 
 7445              		.loc 1 456 17 view .LVU2727
 7446 181e 85F8CD30 		strb	r3, [r5, #205]
 459:HANcoder_E407_TTA_CombineModel.c **** 
 7447              		.loc 1 459 5 is_stmt 1 view .LVU2728
 462:HANcoder_E407_TTA_CombineModel.c **** 
 7448              		.loc 1 462 5 view .LVU2729
 465:HANcoder_E407_TTA_CombineModel.c **** 
 7449              		.loc 1 465 5 view .LVU2730
 468:HANcoder_E407_TTA_CombineModel.c **** 
 7450              		.loc 1 468 5 view .LVU2731
 471:HANcoder_E407_TTA_CombineModel.c **** 
 7451              		.loc 1 471 5 view .LVU2732
 474:HANcoder_E407_TTA_CombineModel.c **** 
 7452              		.loc 1 474 5 view .LVU2733
 477:HANcoder_E407_TTA_CombineModel.c ****   }
 7453              		.loc 1 477 5 view .LVU2734
 7454              	.LVL450:
 477:HANcoder_E407_TTA_CombineModel.c ****   }
 7455              		.loc 1 477 5 is_stmt 0 view .LVU2735
 7456              	.LBE770:
 7457              	.LBE773:
1900:HANcoder_E407_TTA_CombineModel.c **** 
 7458              		.loc 1 1900 5 is_stmt 1 view .LVU2736
1925:HANcoder_E407_TTA_CombineModel.c **** 
 7459              		.loc 1 1925 32 is_stmt 0 view .LVU2737
 7460 1822 8D4B     		ldr	r3, .L465+24
1932:HANcoder_E407_TTA_CombineModel.c **** 
 7461              		.loc 1 1932 24 view .LVU2738
 7462 1824 94F8DEB0 		ldrb	fp, [r4, #222]	@ zero_extendqisi2
1925:HANcoder_E407_TTA_CombineModel.c **** 
 7463              		.loc 1 1925 32 view .LVU2739
 7464 1828 1B78     		ldrb	r3, [r3]	@ zero_extendqisi2
 7465 182a FFF7EABB 		b	.L151
 7466              	.LVL451:
 7467              	.L243:
1819:HANcoder_E407_TTA_CombineModel.c **** 
 7468              		.loc 1 1819 7 is_stmt 1 view .LVU2740
1833:HANcoder_E407_TTA_CombineModel.c ****       }
 7469              		.loc 1 1833 9 is_stmt 0 view .LVU2741
 7470 182e 884A     		ldr	r2, .L465+16
1829:HANcoder_E407_TTA_CombineModel.c ****         canTxData.uint8_T_info[1] = rtB.DataStoreRead1;
 7471              		.loc 1 1829 35 view .LVU2742
 7472 1830 8C4B     		ldr	r3, .L465+36
1833:HANcoder_E407_TTA_CombineModel.c ****       }
 7473              		.loc 1 1833 9 view .LVU2743
 7474 1832 1168     		ldr	r1, [r2]
1822:HANcoder_E407_TTA_CombineModel.c **** 
 7475              		.loc 1 1822 35 view .LVU2744
 7476 1834 94F8E820 		ldrb	r2, [r4, #232]	@ zero_extendqisi2
1829:HANcoder_E407_TTA_CombineModel.c ****         canTxData.uint8_T_info[1] = rtB.DataStoreRead1;
 7477              		.loc 1 1829 35 view .LVU2745
 7478 1838 83F800B0 		strb	fp, [r3]
1830:HANcoder_E407_TTA_CombineModel.c **** 
 7479              		.loc 1 1830 35 view .LVU2746
 7480 183c 5A70     		strb	r2, [r3, #1]
1822:HANcoder_E407_TTA_CombineModel.c **** 
 7481              		.loc 1 1822 26 view .LVU2747
 7482 183e 85F82F20 		strb	r2, [r5, #47]
1833:HANcoder_E407_TTA_CombineModel.c ****       }
 7483              		.loc 1 1833 9 view .LVU2748
 7484 1842 0020     		movs	r0, #0
 7485 1844 0222     		movs	r2, #2
1819:HANcoder_E407_TTA_CombineModel.c **** 
 7486              		.loc 1 1819 27 view .LVU2749
 7487 1846 85F82EB0 		strb	fp, [r5, #46]
1822:HANcoder_E407_TTA_CombineModel.c **** 
 7488              		.loc 1 1822 7 is_stmt 1 view .LVU2750
1829:HANcoder_E407_TTA_CombineModel.c ****         canTxData.uint8_T_info[1] = rtB.DataStoreRead1;
 7489              		.loc 1 1829 9 view .LVU2751
1830:HANcoder_E407_TTA_CombineModel.c **** 
 7490              		.loc 1 1830 9 view .LVU2752
1833:HANcoder_E407_TTA_CombineModel.c ****       }
 7491              		.loc 1 1833 9 view .LVU2753
 7492 184a FFF7FEFF 		bl	CanTransmit
 7493              	.LVL452:
1844:HANcoder_E407_TTA_CombineModel.c **** 
 7494              		.loc 1 1844 32 is_stmt 0 view .LVU2754
 7495 184e 824B     		ldr	r3, .L465+24
1851:HANcoder_E407_TTA_CombineModel.c **** 
 7496              		.loc 1 1851 36 view .LVU2755
 7497 1850 94F8DEB0 		ldrb	fp, [r4, #222]	@ zero_extendqisi2
1844:HANcoder_E407_TTA_CombineModel.c **** 
 7498              		.loc 1 1844 32 view .LVU2756
 7499 1854 1B78     		ldrb	r3, [r3]	@ zero_extendqisi2
 7500 1856 07EE903A 		vmov	s15, r3	@ int
 7501 185a B8EEE77A 		vcvt.f32.s32	s14, s15
1851:HANcoder_E407_TTA_CombineModel.c **** 
 7502              		.loc 1 1851 46 view .LVU2757
 7503 185e 07EE90BA 		vmov	s15, fp	@ int
1812:HANcoder_E407_TTA_CombineModel.c **** 
 7504              		.loc 1 1812 16 view .LVU2758
 7505 1862 0122     		movs	r2, #1
1851:HANcoder_E407_TTA_CombineModel.c **** 
 7506              		.loc 1 1851 46 view .LVU2759
 7507 1864 F8EEE77A 		vcvt.f32.s32	s15, s15
 7508 1868 FFF7B3BB 		b	.L244
 7509              	.LVL453:
 7510              	.L429:
1340:HANcoder_E407_TTA_CombineModel.c ****                   (rtDWork.pwmMotor > ((uint16_T)700U)));
 7511              		.loc 1 1340 73 discriminator 1 view .LVU2760
 7512 186c B4F85270 		ldrh	r7, [r4, #82]
 7513 1870 B7F52F7F 		cmp	r7, #700
 7514 1874 94BF     		ite	ls
 7515 1876 0027     		movls	r7, #0
 7516 1878 0127     		movhi	r7, #1
 7517 187a FFF70EB9 		b	.L111
 7518              	.LVL454:
 7519              	.L418:
1937:HANcoder_E407_TTA_CombineModel.c **** 
 7520              		.loc 1 1937 30 discriminator 1 view .LVU2761
 7521 187e 002E     		cmp	r6, #0
 7522 1880 40F07981 		bne	.L446
 7523              	.LVL455:
1942:HANcoder_E407_TTA_CombineModel.c ****       rtDWork.SYNC1_RX_MODE = true;
 7524              		.loc 1 1942 5 is_stmt 1 view .LVU2762
1943:HANcoder_E407_TTA_CombineModel.c **** 
 7525              		.loc 1 1943 7 view .LVU2763
1943:HANcoder_E407_TTA_CombineModel.c **** 
 7526              		.loc 1 1943 29 is_stmt 0 view .LVU2764
 7527 1884 84F80331 		strb	r3, [r4, #259]
1950:HANcoder_E407_TTA_CombineModel.c ****         &canRxData_0_SYNC1_ID.uint8_T_info[0], NULL);
 7528              		.loc 1 1950 7 is_stmt 1 view .LVU2765
1950:HANcoder_E407_TTA_CombineModel.c ****         &canRxData_0_SYNC1_ID.uint8_T_info[0], NULL);
 7529              		.loc 1 1950 28 is_stmt 0 view .LVU2766
 7530 1888 774F     		ldr	r7, .L465+40
 7531 188a 784B     		ldr	r3, .L465+44
 7532 188c 0096     		str	r6, [sp]
 7533 188e 1968     		ldr	r1, [r3]
 7534 1890 3246     		mov	r2, r6
 7535 1892 3B46     		mov	r3, r7
 7536 1894 3046     		mov	r0, r6
 7537 1896 FFF7FEFF 		bl	CanIoGetMessage
 7538              	.LVL456:
1954:HANcoder_E407_TTA_CombineModel.c ****         /* read the data */
 7539              		.loc 1 1954 7 is_stmt 1 view .LVU2767
1954:HANcoder_E407_TTA_CombineModel.c ****         /* read the data */
 7540              		.loc 1 1954 10 is_stmt 0 view .LVU2768
 7541 189a 021E     		subs	r2, r0, #0
 7542 189c 05DD     		ble	.L239
1956:HANcoder_E407_TTA_CombineModel.c ****         rtb_SFunction_o3_g = canRxData_0_SYNC1_ID.uint8_T_info[1];
 7543              		.loc 1 1956 9 is_stmt 1 view .LVU2769
 7544              	.LVL457:
1957:HANcoder_E407_TTA_CombineModel.c ****         rtb_SFunction_o4_j = canRxData_0_SYNC1_ID.uint8_T_info[2];
 7545              		.loc 1 1957 9 view .LVU2770
1958:HANcoder_E407_TTA_CombineModel.c ****         rtb_SFunction_o5_f = canRxData_0_SYNC1_ID.uint8_T_info[3];
 7546              		.loc 1 1958 9 view .LVU2771
1959:HANcoder_E407_TTA_CombineModel.c ****         rtb_SFunction_o6_gy = canRxData_0_SYNC1_ID.uint8_T_info[4];
 7547              		.loc 1 1959 9 view .LVU2772
1960:HANcoder_E407_TTA_CombineModel.c ****         rtb_SFunction_o7_k = canRxData_0_SYNC1_ID.uint8_T_info[5];
 7548              		.loc 1 1960 9 view .LVU2773
1961:HANcoder_E407_TTA_CombineModel.c ****         rtb_SFunction_o8_n = canRxData_0_SYNC1_ID.uint8_T_info[6];
 7549              		.loc 1 1961 9 view .LVU2774
1962:HANcoder_E407_TTA_CombineModel.c ****         rtb_SFunction_o9_b1 = canRxData_0_SYNC1_ID.uint8_T_info[7];
 7550              		.loc 1 1962 9 view .LVU2775
1962:HANcoder_E407_TTA_CombineModel.c ****         rtb_SFunction_o9_b1 = canRxData_0_SYNC1_ID.uint8_T_info[7];
 7551              		.loc 1 1962 28 is_stmt 0 view .LVU2776
 7552 189e BB79     		ldrb	r3, [r7, #6]	@ zero_extendqisi2
 7553              	.LVL458:
1963:HANcoder_E407_TTA_CombineModel.c ****       }
 7554              		.loc 1 1963 9 is_stmt 1 view .LVU2777
1967:HANcoder_E407_TTA_CombineModel.c ****                        rtb_SFunction_o3_g, rtb_SFunction_o4_j,
 7555              		.loc 1 1967 7 view .LVU2778
 7556              	.LBB774:
 7557              	.LBI774:
 442:HANcoder_E407_TTA_CombineModel.c ****                       uint8_T rtu_In3, uint8_T rtu_In4, uint8_T rtu_In5, uint8_T
 7558              		.loc 1 442 6 view .LVU2779
 7559              	.LBB775:
 447:HANcoder_E407_TTA_CombineModel.c ****   uint8_T rtb_In6;
 7560              		.loc 1 447 3 view .LVU2780
 448:HANcoder_E407_TTA_CombineModel.c ****   uint8_T rtb_In8_m;
 7561              		.loc 1 448 3 view .LVU2781
 449:HANcoder_E407_TTA_CombineModel.c **** 
 7562              		.loc 1 449 3 view .LVU2782
 454:HANcoder_E407_TTA_CombineModel.c ****     /* SignalConversion generated from: '<S123>/In1' */
 7563              		.loc 1 454 3 view .LVU2783
 456:HANcoder_E407_TTA_CombineModel.c **** 
 7564              		.loc 1 456 5 view .LVU2784
 459:HANcoder_E407_TTA_CombineModel.c **** 
 7565              		.loc 1 459 5 view .LVU2785
 462:HANcoder_E407_TTA_CombineModel.c **** 
 7566              		.loc 1 462 5 view .LVU2786
 465:HANcoder_E407_TTA_CombineModel.c **** 
 7567              		.loc 1 465 5 view .LVU2787
 474:HANcoder_E407_TTA_CombineModel.c **** 
 7568              		.loc 1 474 17 is_stmt 0 view .LVU2788
 7569 18a0 85F8CC30 		strb	r3, [r5, #204]
 456:HANcoder_E407_TTA_CombineModel.c **** 
 7570              		.loc 1 456 17 view .LVU2789
 7571 18a4 3B68     		ldr	r3, [r7]
 7572              	.LVL459:
 456:HANcoder_E407_TTA_CombineModel.c **** 
 7573              		.loc 1 456 17 view .LVU2790
 7574 18a6 C5F8C830 		str	r3, [r5, #200]
 468:HANcoder_E407_TTA_CombineModel.c **** 
 7575              		.loc 1 468 5 is_stmt 1 view .LVU2791
 471:HANcoder_E407_TTA_CombineModel.c **** 
 7576              		.loc 1 471 5 view .LVU2792
 474:HANcoder_E407_TTA_CombineModel.c **** 
 7577              		.loc 1 474 5 view .LVU2793
 477:HANcoder_E407_TTA_CombineModel.c ****   }
 7578              		.loc 1 477 5 view .LVU2794
 7579              	.LVL460:
 7580              	.L239:
 477:HANcoder_E407_TTA_CombineModel.c ****   }
 7581              		.loc 1 477 5 is_stmt 0 view .LVU2795
 7582              	.LBE775:
 7583              	.LBE774:
1978:HANcoder_E407_TTA_CombineModel.c ****                             &rtPrevZCSigState.Subsystem_Trig_ZCE_h,
 7584              		.loc 1 1978 7 is_stmt 1 view .LVU2796
1978:HANcoder_E407_TTA_CombineModel.c ****                             &rtPrevZCSigState.Subsystem_Trig_ZCE_h,
 7585              		.loc 1 1978 17 is_stmt 0 view .LVU2797
 7586 18aa 7149     		ldr	r1, .L465+48
 7587 18ac 0120     		movs	r0, #1
 7588              	.LVL461:
1978:HANcoder_E407_TTA_CombineModel.c ****                             &rtPrevZCSigState.Subsystem_Trig_ZCE_h,
 7589              		.loc 1 1978 17 view .LVU2798
 7590 18ae FFF7FEFF 		bl	rt_I32ZCFcn
 7591              	.LVL462:
1981:HANcoder_E407_TTA_CombineModel.c ****         /* DataStoreWrite: '<S129>/Data Store Write' */
 7592              		.loc 1 1981 7 is_stmt 1 view .LVU2799
1981:HANcoder_E407_TTA_CombineModel.c ****         /* DataStoreWrite: '<S129>/Data Store Write' */
 7593              		.loc 1 1981 10 is_stmt 0 view .LVU2800
 7594 18b2 50B1     		cbz	r0, .L410
1983:HANcoder_E407_TTA_CombineModel.c **** 
 7595              		.loc 1 1983 9 is_stmt 1 view .LVU2801
1988:HANcoder_E407_TTA_CombineModel.c **** 
 7596              		.loc 1 1988 29 is_stmt 0 view .LVU2802
 7597 18b4 0123     		movs	r3, #1
 7598 18b6 84F8DF30 		strb	r3, [r4, #223]
1993:HANcoder_E407_TTA_CombineModel.c **** 
 7599              		.loc 1 1993 22 view .LVU2803
 7600 18ba 84F8E130 		strb	r3, [r4, #225]
1998:HANcoder_E407_TTA_CombineModel.c ****       }
 7601              		.loc 1 1998 29 view .LVU2804
 7602 18be 84F8F330 		strb	r3, [r4, #243]
1983:HANcoder_E407_TTA_CombineModel.c **** 
 7603              		.loc 1 1983 26 view .LVU2805
 7604 18c2 95F8C830 		ldrb	r3, [r5, #200]	@ zero_extendqisi2
 7605 18c6 84F8E230 		strb	r3, [r4, #226]
 7606              	.L410:
1988:HANcoder_E407_TTA_CombineModel.c **** 
 7607              		.loc 1 1988 9 is_stmt 1 view .LVU2806
1993:HANcoder_E407_TTA_CombineModel.c **** 
 7608              		.loc 1 1993 9 view .LVU2807
1998:HANcoder_E407_TTA_CombineModel.c ****       }
 7609              		.loc 1 1998 9 view .LVU2808
2009:HANcoder_E407_TTA_CombineModel.c **** 
 7610              		.loc 1 2009 5 view .LVU2809
2060:HANcoder_E407_TTA_CombineModel.c **** 
 7611              		.loc 1 2060 29 is_stmt 0 view .LVU2810
 7612 18ca 634B     		ldr	r3, .L465+24
2066:HANcoder_E407_TTA_CombineModel.c **** 
 7613              		.loc 1 2066 26 view .LVU2811
 7614 18cc 94F8DEB0 		ldrb	fp, [r4, #222]	@ zero_extendqisi2
2060:HANcoder_E407_TTA_CombineModel.c **** 
 7615              		.loc 1 2060 29 view .LVU2812
 7616 18d0 1B78     		ldrb	r3, [r3]	@ zero_extendqisi2
 7617 18d2 FEF746BC 		b	.L159
 7618              	.LVL463:
 7619              	.L430:
1462:HANcoder_E407_TTA_CombineModel.c ****     }
 7620              		.loc 1 1462 7 is_stmt 1 view .LVU2813
 7621 18d6 0120     		movs	r0, #1
 7622              	.LVL464:
1462:HANcoder_E407_TTA_CombineModel.c ****     }
 7623              		.loc 1 1462 7 is_stmt 0 view .LVU2814
 7624 18d8 FFF7FEFF 		bl	QuadEncResetCounter
 7625              	.LVL465:
1462:HANcoder_E407_TTA_CombineModel.c ****     }
 7626              		.loc 1 1462 7 view .LVU2815
 7627 18dc FFF748B9 		b	.L116
 7628              	.LVL466:
 7629              	.L198:
3447:HANcoder_E407_TTA_CombineModel.c **** 
 7630              		.loc 1 3447 7 is_stmt 1 view .LVU2816
3457:HANcoder_E407_TTA_CombineModel.c **** 
 7631              		.loc 1 3457 28 is_stmt 0 view .LVU2817
 7632 18e0 0123     		movs	r3, #1
3447:HANcoder_E407_TTA_CombineModel.c **** 
 7633              		.loc 1 3447 24 view .LVU2818
 7634 18e2 95F83C10 		ldrb	r1, [r5, #60]	@ zero_extendqisi2
3478:HANcoder_E407_TTA_CombineModel.c ****     rtAction = 0;
 7635              		.loc 1 3478 14 view .LVU2819
 7636 18e6 94F8DEB0 		ldrb	fp, [r4, #222]	@ zero_extendqisi2
3447:HANcoder_E407_TTA_CombineModel.c **** 
 7637              		.loc 1 3447 24 view .LVU2820
 7638 18ea 84F8E210 		strb	r1, [r4, #226]
3452:HANcoder_E407_TTA_CombineModel.c **** 
 7639              		.loc 1 3452 7 is_stmt 1 view .LVU2821
3452:HANcoder_E407_TTA_CombineModel.c **** 
 7640              		.loc 1 3452 27 is_stmt 0 view .LVU2822
 7641 18ee 0022     		movs	r2, #0
 7642 18f0 84F8DF20 		strb	r2, [r4, #223]
3457:HANcoder_E407_TTA_CombineModel.c **** 
 7643              		.loc 1 3457 7 is_stmt 1 view .LVU2823
3457:HANcoder_E407_TTA_CombineModel.c **** 
 7644              		.loc 1 3457 28 is_stmt 0 view .LVU2824
 7645 18f4 84F8EA30 		strb	r3, [r4, #234]
3462:HANcoder_E407_TTA_CombineModel.c ****     }
 7646              		.loc 1 3462 7 is_stmt 1 view .LVU2825
3462:HANcoder_E407_TTA_CombineModel.c ****     }
 7647              		.loc 1 3462 20 is_stmt 0 view .LVU2826
 7648 18f8 84F8E130 		strb	r3, [r4, #225]
 7649 18fc FEF7D5BD 		b	.L199
 7650              	.LVL467:
 7651              	.L283:
3462:HANcoder_E407_TTA_CombineModel.c ****     }
 7652              		.loc 1 3462 20 view .LVU2827
 7653 1900 1346     		mov	r3, r2
 7654 1902 FFF780B8 		b	.L107
 7655              	.LVL468:
 7656              	.L144:
1798:HANcoder_E407_TTA_CombineModel.c **** 
 7657              		.loc 1 1798 9 is_stmt 1 view .LVU2828
1844:HANcoder_E407_TTA_CombineModel.c **** 
 7658              		.loc 1 1844 32 is_stmt 0 view .LVU2829
 7659 1906 544B     		ldr	r3, .L465+24
1851:HANcoder_E407_TTA_CombineModel.c **** 
 7660              		.loc 1 1851 36 view .LVU2830
 7661 1908 94F8DEB0 		ldrb	fp, [r4, #222]	@ zero_extendqisi2
1844:HANcoder_E407_TTA_CombineModel.c **** 
 7662              		.loc 1 1844 32 view .LVU2831
 7663 190c 1B78     		ldrb	r3, [r3]	@ zero_extendqisi2
 7664 190e 07EE903A 		vmov	s15, r3	@ int
 7665 1912 B8EEE77A 		vcvt.f32.s32	s14, s15
1851:HANcoder_E407_TTA_CombineModel.c **** 
 7666              		.loc 1 1851 46 view .LVU2832
 7667 1916 07EE90BA 		vmov	s15, fp	@ int
1798:HANcoder_E407_TTA_CombineModel.c **** 
 7668              		.loc 1 1798 32 view .LVU2833
 7669 191a 0026     		movs	r6, #0
1851:HANcoder_E407_TTA_CombineModel.c **** 
 7670              		.loc 1 1851 46 view .LVU2834
 7671 191c F8EEE77A 		vcvt.f32.s32	s15, s15
1798:HANcoder_E407_TTA_CombineModel.c **** 
 7672              		.loc 1 1798 32 view .LVU2835
 7673 1920 84F8E760 		strb	r6, [r4, #231]
1812:HANcoder_E407_TTA_CombineModel.c **** 
 7674              		.loc 1 1812 5 is_stmt 1 view .LVU2836
 7675 1924 FFF723BB 		b	.L141
 7676              	.LVL469:
 7677              	.L420:
2684:HANcoder_E407_TTA_CombineModel.c **** 
 7678              		.loc 1 2684 7 view .LVU2837
2691:HANcoder_E407_TTA_CombineModel.c ****         &canRxData_0_TRCK1_ID3.uint8_T_info[0], NULL);
 7679              		.loc 1 2691 29 is_stmt 0 view .LVU2838
 7680 1928 524B     		ldr	r3, .L465+52
 7681 192a 534E     		ldr	r6, .L465+56
 7682 192c 1968     		ldr	r1, [r3]
 7683 192e 0022     		movs	r2, #0
2684:HANcoder_E407_TTA_CombineModel.c **** 
 7684              		.loc 1 2684 32 view .LVU2839
 7685 1930 0123     		movs	r3, #1
2691:HANcoder_E407_TTA_CombineModel.c ****         &canRxData_0_TRCK1_ID3.uint8_T_info[0], NULL);
 7686              		.loc 1 2691 29 view .LVU2840
 7687 1932 0092     		str	r2, [sp]
 7688 1934 1046     		mov	r0, r2
2684:HANcoder_E407_TTA_CombineModel.c **** 
 7689              		.loc 1 2684 32 view .LVU2841
 7690 1936 84F80031 		strb	r3, [r4, #256]
2691:HANcoder_E407_TTA_CombineModel.c ****         &canRxData_0_TRCK1_ID3.uint8_T_info[0], NULL);
 7691              		.loc 1 2691 7 is_stmt 1 view .LVU2842
2691:HANcoder_E407_TTA_CombineModel.c ****         &canRxData_0_TRCK1_ID3.uint8_T_info[0], NULL);
 7692              		.loc 1 2691 29 is_stmt 0 view .LVU2843
 7693 193a 3346     		mov	r3, r6
 7694 193c FFF7FEFF 		bl	CanIoGetMessage
 7695              	.LVL470:
2695:HANcoder_E407_TTA_CombineModel.c ****         /* read the data */
 7696              		.loc 1 2695 7 is_stmt 1 view .LVU2844
2695:HANcoder_E407_TTA_CombineModel.c ****         /* read the data */
 7697              		.loc 1 2695 10 is_stmt 0 view .LVU2845
 7698 1940 0028     		cmp	r0, #0
 7699 1942 40F30981 		ble	.L447
2697:HANcoder_E407_TTA_CombineModel.c ****         rtb_SFunction_o3_a = canRxData_0_TRCK1_ID3.uint8_T_info[1];
 7700              		.loc 1 2697 9 is_stmt 1 view .LVU2846
2697:HANcoder_E407_TTA_CombineModel.c ****         rtb_SFunction_o3_a = canRxData_0_TRCK1_ID3.uint8_T_info[1];
 7701              		.loc 1 2697 28 is_stmt 0 view .LVU2847
 7702 1946 3178     		ldrb	r1, [r6]	@ zero_extendqisi2
 7703              	.LVL471:
2698:HANcoder_E407_TTA_CombineModel.c ****         rtb_SFunction_o4_i = canRxData_0_TRCK1_ID3.uint8_T_info[2];
 7704              		.loc 1 2698 9 is_stmt 1 view .LVU2848
2698:HANcoder_E407_TTA_CombineModel.c ****         rtb_SFunction_o4_i = canRxData_0_TRCK1_ID3.uint8_T_info[2];
 7705              		.loc 1 2698 28 is_stmt 0 view .LVU2849
 7706 1948 7778     		ldrb	r7, [r6, #1]	@ zero_extendqisi2
 7707              	.LVL472:
2699:HANcoder_E407_TTA_CombineModel.c ****         rtb_SFunction_o5_k = canRxData_0_TRCK1_ID3.uint8_T_info[3];
 7708              		.loc 1 2699 9 is_stmt 1 view .LVU2850
2699:HANcoder_E407_TTA_CombineModel.c ****         rtb_SFunction_o5_k = canRxData_0_TRCK1_ID3.uint8_T_info[3];
 7709              		.loc 1 2699 28 is_stmt 0 view .LVU2851
 7710 194a B278     		ldrb	r2, [r6, #2]	@ zero_extendqisi2
 7711              	.LVL473:
2700:HANcoder_E407_TTA_CombineModel.c ****         rtb_SFunction_o6_c = canRxData_0_TRCK1_ID3.uint8_T_info[4];
 7712              		.loc 1 2700 9 is_stmt 1 view .LVU2852
2700:HANcoder_E407_TTA_CombineModel.c ****         rtb_SFunction_o6_c = canRxData_0_TRCK1_ID3.uint8_T_info[4];
 7713              		.loc 1 2700 28 is_stmt 0 view .LVU2853
 7714 194c F078     		ldrb	r0, [r6, #3]	@ zero_extendqisi2
 7715              	.LVL474:
2701:HANcoder_E407_TTA_CombineModel.c ****         rtb_SFunction_o7_d = canRxData_0_TRCK1_ID3.uint8_T_info[5];
 7716              		.loc 1 2701 9 is_stmt 1 view .LVU2854
2702:HANcoder_E407_TTA_CombineModel.c ****         rtb_SFunction_o8_h = canRxData_0_TRCK1_ID3.uint8_T_info[6];
 7717              		.loc 1 2702 9 view .LVU2855
2703:HANcoder_E407_TTA_CombineModel.c ****         rtb_SFunction_o9_b = canRxData_0_TRCK1_ID3.uint8_T_info[7];
 7718              		.loc 1 2703 9 view .LVU2856
2703:HANcoder_E407_TTA_CombineModel.c ****         rtb_SFunction_o9_b = canRxData_0_TRCK1_ID3.uint8_T_info[7];
 7719              		.loc 1 2703 28 is_stmt 0 view .LVU2857
 7720 194e B379     		ldrb	r3, [r6, #6]	@ zero_extendqisi2
 7721              	.LVL475:
2704:HANcoder_E407_TTA_CombineModel.c ****       }
 7722              		.loc 1 2704 9 is_stmt 1 view .LVU2858
2708:HANcoder_E407_TTA_CombineModel.c ****                        rtb_SFunction_o3_a, rtb_SFunction_o4_i,
 7723              		.loc 1 2708 7 view .LVU2859
 7724              	.LBB776:
 7725              	.LBI776:
 442:HANcoder_E407_TTA_CombineModel.c ****                       uint8_T rtu_In3, uint8_T rtu_In4, uint8_T rtu_In5, uint8_T
 7726              		.loc 1 442 6 view .LVU2860
 7727              	.LBB777:
 447:HANcoder_E407_TTA_CombineModel.c ****   uint8_T rtb_In6;
 7728              		.loc 1 447 3 view .LVU2861
 448:HANcoder_E407_TTA_CombineModel.c ****   uint8_T rtb_In8_m;
 7729              		.loc 1 448 3 view .LVU2862
 449:HANcoder_E407_TTA_CombineModel.c **** 
 7730              		.loc 1 449 3 view .LVU2863
 454:HANcoder_E407_TTA_CombineModel.c ****     /* SignalConversion generated from: '<S123>/In1' */
 7731              		.loc 1 454 3 view .LVU2864
 456:HANcoder_E407_TTA_CombineModel.c **** 
 7732              		.loc 1 456 5 view .LVU2865
 459:HANcoder_E407_TTA_CombineModel.c **** 
 7733              		.loc 1 459 5 view .LVU2866
 462:HANcoder_E407_TTA_CombineModel.c **** 
 7734              		.loc 1 462 5 view .LVU2867
 465:HANcoder_E407_TTA_CombineModel.c **** 
 7735              		.loc 1 465 5 view .LVU2868
 456:HANcoder_E407_TTA_CombineModel.c **** 
 7736              		.loc 1 456 17 is_stmt 0 view .LVU2869
 7737 1950 85F87A10 		strb	r1, [r5, #122]
 459:HANcoder_E407_TTA_CombineModel.c **** 
 7738              		.loc 1 459 17 view .LVU2870
 7739 1954 85F87B70 		strb	r7, [r5, #123]
 462:HANcoder_E407_TTA_CombineModel.c **** 
 7740              		.loc 1 462 17 view .LVU2871
 7741 1958 85F87C20 		strb	r2, [r5, #124]
 465:HANcoder_E407_TTA_CombineModel.c **** 
 7742              		.loc 1 465 17 view .LVU2872
 7743 195c 85F87D00 		strb	r0, [r5, #125]
 468:HANcoder_E407_TTA_CombineModel.c **** 
 7744              		.loc 1 468 5 is_stmt 1 view .LVU2873
 471:HANcoder_E407_TTA_CombineModel.c **** 
 7745              		.loc 1 471 5 view .LVU2874
 474:HANcoder_E407_TTA_CombineModel.c **** 
 7746              		.loc 1 474 5 view .LVU2875
 474:HANcoder_E407_TTA_CombineModel.c **** 
 7747              		.loc 1 474 17 is_stmt 0 view .LVU2876
 7748 1960 85F87E30 		strb	r3, [r5, #126]
 477:HANcoder_E407_TTA_CombineModel.c ****   }
 7749              		.loc 1 477 5 is_stmt 1 view .LVU2877
 7750              	.LVL476:
 7751              	.L175:
 477:HANcoder_E407_TTA_CombineModel.c ****   }
 7752              		.loc 1 477 5 is_stmt 0 view .LVU2878
 7753              	.LBE777:
 7754              	.LBE776:
2717:HANcoder_E407_TTA_CombineModel.c **** 
 7755              		.loc 1 2717 7 is_stmt 1 view .LVU2879
2720:HANcoder_E407_TTA_CombineModel.c **** 
 7756              		.loc 1 2720 7 view .LVU2880
 7757              	.LBB778:
 7758              	.LBI778:
 496:HANcoder_E407_TTA_CombineModel.c **** {
 7759              		.loc 1 496 6 view .LVU2881
 7760              	.LBB779:
 501:HANcoder_E407_TTA_CombineModel.c **** }
 7761              		.loc 1 501 3 view .LVU2882
 7762              	.LBE779:
 7763              	.LBE778:
 7764              	.LBB782:
 7765              	.LBB783:
 501:HANcoder_E407_TTA_CombineModel.c **** }
 7766              		.loc 1 501 15 is_stmt 0 view .LVU2883
 7767 1964 1202     		lsls	r2, r2, #8
 7768              	.LBE783:
 7769              	.LBE782:
 7770              	.LBB786:
 7771              	.LBB780:
 7772 1966 0902     		lsls	r1, r1, #8
 7773              	.LVL477:
 501:HANcoder_E407_TTA_CombineModel.c **** }
 7774              		.loc 1 501 15 view .LVU2884
 7775              	.LBE780:
 7776              	.LBE786:
2741:HANcoder_E407_TTA_CombineModel.c ****                          rtB.EnabledSubsystem_bj.In4);
 7777              		.loc 1 2741 15 view .LVU2885
 7778 1968 1044     		add	r0, r0, r2
 7779              	.LBB787:
 7780              	.LBB784:
 501:HANcoder_E407_TTA_CombineModel.c **** }
 7781              		.loc 1 501 13 view .LVU2886
 7782 196a A5F88220 		strh	r2, [r5, #130]	@ movhi
 7783              	.LBE784:
 7784              	.LBE787:
2727:HANcoder_E407_TTA_CombineModel.c ****                          rtB.EnabledSubsystem_bj.In2);
 7785              		.loc 1 2727 13 view .LVU2887
 7786 196e 434A     		ldr	r2, .L465+60
 7787              	.LBB788:
 7788              	.LBB781:
 501:HANcoder_E407_TTA_CombineModel.c **** }
 7789              		.loc 1 501 13 view .LVU2888
 7790 1970 A5F88010 		strh	r1, [r5, #128]	@ movhi
 7791              	.LVL478:
 501:HANcoder_E407_TTA_CombineModel.c **** }
 7792              		.loc 1 501 13 view .LVU2889
 7793              	.LBE781:
 7794              	.LBE788:
2727:HANcoder_E407_TTA_CombineModel.c ****                          rtB.EnabledSubsystem_bj.In2);
 7795              		.loc 1 2727 7 is_stmt 1 view .LVU2890
2727:HANcoder_E407_TTA_CombineModel.c ****                          rtB.EnabledSubsystem_bj.In2);
 7796              		.loc 1 2727 15 is_stmt 0 view .LVU2891
 7797 1974 0F44     		add	r7, r7, r1
2727:HANcoder_E407_TTA_CombineModel.c ****                          rtB.EnabledSubsystem_bj.In2);
 7798              		.loc 1 2727 13 view .LVU2892
 7799 1976 1780     		strh	r7, [r2]	@ movhi
2731:HANcoder_E407_TTA_CombineModel.c **** 
 7800              		.loc 1 2731 7 is_stmt 1 view .LVU2893
 7801              	.LVL479:
2734:HANcoder_E407_TTA_CombineModel.c **** 
 7802              		.loc 1 2734 7 view .LVU2894
 7803              	.LBB789:
 7804              	.LBI782:
 496:HANcoder_E407_TTA_CombineModel.c **** {
 7805              		.loc 1 496 6 view .LVU2895
 7806              	.LBB785:
 501:HANcoder_E407_TTA_CombineModel.c **** }
 7807              		.loc 1 501 3 view .LVU2896
 501:HANcoder_E407_TTA_CombineModel.c **** }
 7808              		.loc 1 501 3 is_stmt 0 view .LVU2897
 7809              	.LBE785:
 7810              	.LBE789:
2741:HANcoder_E407_TTA_CombineModel.c ****                          rtB.EnabledSubsystem_bj.In4);
 7811              		.loc 1 2741 7 is_stmt 1 view .LVU2898
2741:HANcoder_E407_TTA_CombineModel.c ****                          rtB.EnabledSubsystem_bj.In4);
 7812              		.loc 1 2741 13 is_stmt 0 view .LVU2899
 7813 1978 414A     		ldr	r2, .L465+64
 7814 197a 1080     		strh	r0, [r2]	@ movhi
2745:HANcoder_E407_TTA_CombineModel.c **** 
 7815              		.loc 1 2745 7 is_stmt 1 view .LVU2900
 7816              	.LVL480:
 7817              	.LBB790:
 7818              	.LBI790:
 517:HANcoder_E407_TTA_CombineModel.c **** {
 7819              		.loc 1 517 6 view .LVU2901
 7820              	.LBB791:
 522:HANcoder_E407_TTA_CombineModel.c **** }
 7821              		.loc 1 522 3 view .LVU2902
 522:HANcoder_E407_TTA_CombineModel.c **** }
 7822              		.loc 1 522 15 is_stmt 0 view .LVU2903
 7823 197c 5A08     		lsrs	r2, r3, #1
 522:HANcoder_E407_TTA_CombineModel.c **** }
 7824              		.loc 1 522 13 view .LVU2904
 7825 197e 85F87920 		strb	r2, [r5, #121]
 7826              	.LVL481:
 522:HANcoder_E407_TTA_CombineModel.c **** }
 7827              		.loc 1 522 13 view .LVU2905
 7828              	.LBE791:
 7829              	.LBE790:
2750:HANcoder_E407_TTA_CombineModel.c **** 
 7830              		.loc 1 2750 7 is_stmt 1 view .LVU2906
 7831              	.LBB792:
 7832              	.LBI792:
 533:HANcoder_E407_TTA_CombineModel.c **** {
 7833              		.loc 1 533 6 view .LVU2907
 7834              	.LBB793:
 538:HANcoder_E407_TTA_CombineModel.c **** }
 7835              		.loc 1 538 3 view .LVU2908
 7836              	.LBE793:
 7837              	.LBE792:
 7838              	.LBB795:
 7839              	.LBB796:
 522:HANcoder_E407_TTA_CombineModel.c **** }
 7840              		.loc 1 522 13 is_stmt 0 view .LVU2909
 7841 1982 85F87220 		strb	r2, [r5, #114]
 7842              	.LBE796:
 7843              	.LBE795:
 7844              	.LBB798:
 7845              	.LBB794:
 538:HANcoder_E407_TTA_CombineModel.c **** }
 7846              		.loc 1 538 15 view .LVU2910
 7847 1986 9A08     		lsrs	r2, r3, #2
 538:HANcoder_E407_TTA_CombineModel.c **** }
 7848              		.loc 1 538 13 view .LVU2911
 7849 1988 85F87820 		strb	r2, [r5, #120]
 7850              	.LVL482:
 538:HANcoder_E407_TTA_CombineModel.c **** }
 7851              		.loc 1 538 13 view .LVU2912
 7852              	.LBE794:
 7853              	.LBE798:
2755:HANcoder_E407_TTA_CombineModel.c **** 
 7854              		.loc 1 2755 7 is_stmt 1 view .LVU2913
 7855              	.LBB799:
 7856              	.LBI799:
 549:HANcoder_E407_TTA_CombineModel.c **** {
 7857              		.loc 1 549 6 view .LVU2914
 7858              	.LBB800:
 554:HANcoder_E407_TTA_CombineModel.c **** }
 7859              		.loc 1 554 3 view .LVU2915
 554:HANcoder_E407_TTA_CombineModel.c **** }
 7860              		.loc 1 554 15 is_stmt 0 view .LVU2916
 7861 198c DA08     		lsrs	r2, r3, #3
 554:HANcoder_E407_TTA_CombineModel.c **** }
 7862              		.loc 1 554 13 view .LVU2917
 7863 198e 85F87720 		strb	r2, [r5, #119]
 7864              	.LVL483:
 554:HANcoder_E407_TTA_CombineModel.c **** }
 7865              		.loc 1 554 13 view .LVU2918
 7866              	.LBE800:
 7867              	.LBE799:
2760:HANcoder_E407_TTA_CombineModel.c **** 
 7868              		.loc 1 2760 7 is_stmt 1 view .LVU2919
 7869              	.LBB801:
 7870              	.LBI801:
 565:HANcoder_E407_TTA_CombineModel.c **** {
 7871              		.loc 1 565 6 view .LVU2920
 7872              	.LBB802:
 570:HANcoder_E407_TTA_CombineModel.c **** }
 7873              		.loc 1 570 3 view .LVU2921
 570:HANcoder_E407_TTA_CombineModel.c **** }
 7874              		.loc 1 570 15 is_stmt 0 view .LVU2922
 7875 1992 1A09     		lsrs	r2, r3, #4
 570:HANcoder_E407_TTA_CombineModel.c **** }
 7876              		.loc 1 570 13 view .LVU2923
 7877 1994 85F87620 		strb	r2, [r5, #118]
 7878              	.LVL484:
 570:HANcoder_E407_TTA_CombineModel.c **** }
 7879              		.loc 1 570 13 view .LVU2924
 7880              	.LBE802:
 7881              	.LBE801:
2765:HANcoder_E407_TTA_CombineModel.c **** 
 7882              		.loc 1 2765 7 is_stmt 1 view .LVU2925
 7883              	.LBB803:
 7884              	.LBI803:
 581:HANcoder_E407_TTA_CombineModel.c **** {
 7885              		.loc 1 581 6 view .LVU2926
 7886              	.LBB804:
 586:HANcoder_E407_TTA_CombineModel.c **** }
 7887              		.loc 1 586 3 view .LVU2927
 586:HANcoder_E407_TTA_CombineModel.c **** }
 7888              		.loc 1 586 15 is_stmt 0 view .LVU2928
 7889 1998 5A09     		lsrs	r2, r3, #5
 586:HANcoder_E407_TTA_CombineModel.c **** }
 7890              		.loc 1 586 13 view .LVU2929
 7891 199a 85F87520 		strb	r2, [r5, #117]
 7892              	.LVL485:
 586:HANcoder_E407_TTA_CombineModel.c **** }
 7893              		.loc 1 586 13 view .LVU2930
 7894              	.LBE804:
 7895              	.LBE803:
2770:HANcoder_E407_TTA_CombineModel.c **** 
 7896              		.loc 1 2770 7 is_stmt 1 view .LVU2931
 7897              	.LBB805:
 7898              	.LBI805:
 597:HANcoder_E407_TTA_CombineModel.c **** {
 7899              		.loc 1 597 6 view .LVU2932
 7900              	.LBB806:
 602:HANcoder_E407_TTA_CombineModel.c **** }
 7901              		.loc 1 602 3 view .LVU2933
 602:HANcoder_E407_TTA_CombineModel.c **** }
 7902              		.loc 1 602 15 is_stmt 0 view .LVU2934
 7903 199e 9A09     		lsrs	r2, r3, #6
 7904              	.LBE806:
 7905              	.LBE805:
 7906              	.LBB808:
 7907              	.LBB809:
 618:HANcoder_E407_TTA_CombineModel.c **** }
 7908              		.loc 1 618 15 view .LVU2935
 7909 19a0 DB09     		lsrs	r3, r3, #7
 7910              	.LBE809:
 7911              	.LBE808:
 7912              	.LBB811:
 7913              	.LBB807:
 602:HANcoder_E407_TTA_CombineModel.c **** }
 7914              		.loc 1 602 13 view .LVU2936
 7915 19a2 85F87420 		strb	r2, [r5, #116]
 7916              	.LVL486:
 602:HANcoder_E407_TTA_CombineModel.c **** }
 7917              		.loc 1 602 13 view .LVU2937
 7918              	.LBE807:
 7919              	.LBE811:
2775:HANcoder_E407_TTA_CombineModel.c **** 
 7920              		.loc 1 2775 7 is_stmt 1 view .LVU2938
 7921              	.LBB812:
 7922              	.LBI808:
 613:HANcoder_E407_TTA_CombineModel.c **** {
 7923              		.loc 1 613 6 view .LVU2939
 7924              	.LBB810:
 618:HANcoder_E407_TTA_CombineModel.c **** }
 7925              		.loc 1 618 3 view .LVU2940
 618:HANcoder_E407_TTA_CombineModel.c **** }
 7926              		.loc 1 618 13 is_stmt 0 view .LVU2941
 7927 19a6 85F87330 		strb	r3, [r5, #115]
 7928              	.LVL487:
 618:HANcoder_E407_TTA_CombineModel.c **** }
 7929              		.loc 1 618 13 view .LVU2942
 7930              	.LBE810:
 7931              	.LBE812:
2780:HANcoder_E407_TTA_CombineModel.c **** 
 7932              		.loc 1 2780 7 is_stmt 1 view .LVU2943
 7933              	.LBB813:
 7934              	.LBI795:
 517:HANcoder_E407_TTA_CombineModel.c **** {
 7935              		.loc 1 517 6 view .LVU2944
 7936              	.LBB797:
 522:HANcoder_E407_TTA_CombineModel.c **** }
 7937              		.loc 1 522 3 view .LVU2945
 523:HANcoder_E407_TTA_CombineModel.c **** 
 7938              		.loc 1 523 1 is_stmt 0 view .LVU2946
 7939 19aa FEF7A2BC 		b	.L176
 7940              	.LVL488:
 7941              	.L426:
 523:HANcoder_E407_TTA_CombineModel.c **** 
 7942              		.loc 1 523 1 view .LVU2947
 7943              	.LBE797:
 7944              	.LBE813:
1078:HANcoder_E407_TTA_CombineModel.c ****     }
 7945              		.loc 1 1078 11 view .LVU2948
 7946 19ae 4FF00009 		mov	r9, #0
 7947 19b2 FEF77CBE 		b	.L87
 7948              	.LVL489:
 7949              	.L427:
1167:HANcoder_E407_TTA_CombineModel.c **** 
 7950              		.loc 1 1167 9 view .LVU2949
 7951 19b6 334B     		ldr	r3, .L465+68
1164:HANcoder_E407_TTA_CombineModel.c **** 
 7952              		.loc 1 1164 21 view .LVU2950
 7953 19b8 84F8EB00 		strb	r0, [r4, #235]
1167:HANcoder_E407_TTA_CombineModel.c **** 
 7954              		.loc 1 1167 5 is_stmt 1 view .LVU2951
1167:HANcoder_E407_TTA_CombineModel.c **** 
 7955              		.loc 1 1167 9 is_stmt 0 view .LVU2952
 7956 19bc 4FF00108 		mov	r8, #1
 7957 19c0 83F80080 		strb	r8, [r3]
1172:HANcoder_E407_TTA_CombineModel.c **** 
 7958              		.loc 1 1172 5 is_stmt 1 view .LVU2953
 7959 19c4 FEF765BF 		b	.L94
 7960              	.LVL490:
 7961              	.L442:
2490:HANcoder_E407_TTA_CombineModel.c **** 
 7962              		.loc 1 2490 44 is_stmt 0 view .LVU2954
 7963 19c8 95F89710 		ldrb	r1, [r5, #151]	@ zero_extendqisi2
2501:HANcoder_E407_TTA_CombineModel.c **** 
 7964              		.loc 1 2501 49 view .LVU2955
 7965 19cc 95F89870 		ldrb	r7, [r5, #152]	@ zero_extendqisi2
2504:HANcoder_E407_TTA_CombineModel.c **** 
 7966              		.loc 1 2504 43 view .LVU2956
 7967 19d0 95F89920 		ldrb	r2, [r5, #153]	@ zero_extendqisi2
2515:HANcoder_E407_TTA_CombineModel.c **** 
 7968              		.loc 1 2515 49 view .LVU2957
 7969 19d4 95F89A00 		ldrb	r0, [r5, #154]	@ zero_extendqisi2
 7970              	.LVL491:
2518:HANcoder_E407_TTA_CombineModel.c **** 
 7971              		.loc 1 2518 7 view .LVU2958
 7972 19d8 95F89B30 		ldrb	r3, [r5, #155]	@ zero_extendqisi2
 7973 19dc FEE5     		b	.L230
 7974              	.LVL492:
 7975              	.L443:
2859:HANcoder_E407_TTA_CombineModel.c **** 
 7976              		.loc 1 2859 35 view .LVU2959
 7977 19de 2A4B     		ldr	r3, .L465+72
2873:HANcoder_E407_TTA_CombineModel.c **** 
 7978              		.loc 1 2873 67 view .LVU2960
 7979 19e0 EF7D     		ldrb	r7, [r5, #23]	@ zero_extendqisi2
2859:HANcoder_E407_TTA_CombineModel.c **** 
 7980              		.loc 1 2859 35 view .LVU2961
 7981 19e2 93F800C0 		ldrb	ip, [r3]	@ zero_extendqisi2
2876:HANcoder_E407_TTA_CombineModel.c **** 
 7982              		.loc 1 2876 23 view .LVU2962
 7983 19e6 2A7E     		ldrb	r2, [r5, #24]	@ zero_extendqisi2
2862:HANcoder_E407_TTA_CombineModel.c **** 
 7984              		.loc 1 2862 23 view .LVU2963
 7985 19e8 AB7D     		ldrb	r3, [r5, #22]	@ zero_extendqisi2
2887:HANcoder_E407_TTA_CombineModel.c **** 
 7986              		.loc 1 2887 68 view .LVU2964
 7987 19ea 687E     		ldrb	r0, [r5, #25]	@ zero_extendqisi2
 7988              	.LVL493:
2890:HANcoder_E407_TTA_CombineModel.c **** 
 7989              		.loc 1 2890 7 view .LVU2965
 7990 19ec A97E     		ldrb	r1, [r5, #26]	@ zero_extendqisi2
 7991 19ee 38E6     		b	.L226
 7992              	.LVL494:
 7993              	.L441:
3117:HANcoder_E407_TTA_CombineModel.c **** 
 7994              		.loc 1 3117 35 view .LVU2966
 7995 19f0 1F78     		ldrb	r7, [r3]	@ zero_extendqisi2
3120:HANcoder_E407_TTA_CombineModel.c **** 
 7996              		.loc 1 3120 24 view .LVU2967
 7997 19f2 EA7A     		ldrb	r2, [r5, #11]	@ zero_extendqisi2
3131:HANcoder_E407_TTA_CombineModel.c **** 
 7998              		.loc 1 3131 68 view .LVU2968
 7999 19f4 287B     		ldrb	r0, [r5, #12]	@ zero_extendqisi2
 8000              	.LVL495:
3134:HANcoder_E407_TTA_CombineModel.c **** 
 8001              		.loc 1 3134 24 view .LVU2969
 8002 19f6 697B     		ldrb	r1, [r5, #13]	@ zero_extendqisi2
3142:HANcoder_E407_TTA_CombineModel.c **** 
 8003              		.loc 1 3142 7 view .LVU2970
 8004 19f8 AB7B     		ldrb	r3, [r5, #14]	@ zero_extendqisi2
 8005 19fa 79E5     		b	.L222
 8006              	.LVL496:
 8007              	.L445:
1925:HANcoder_E407_TTA_CombineModel.c **** 
 8008              		.loc 1 1925 32 view .LVU2971
 8009 19fc 164B     		ldr	r3, .L465+24
1932:HANcoder_E407_TTA_CombineModel.c **** 
 8010              		.loc 1 1932 24 view .LVU2972
 8011 19fe 94F8DEB0 		ldrb	fp, [r4, #222]	@ zero_extendqisi2
1925:HANcoder_E407_TTA_CombineModel.c **** 
 8012              		.loc 1 1925 32 view .LVU2973
 8013 1a02 1B78     		ldrb	r3, [r3]	@ zero_extendqisi2
 8014 1a04 FFF7FDBA 		b	.L151
 8015              	.LVL497:
 8016              	.L440:
2110:HANcoder_E407_TTA_CombineModel.c **** 
 8017              		.loc 1 2110 18 view .LVU2974
 8018 1a08 95F8BF20 		ldrb	r2, [r5, #191]	@ zero_extendqisi2
2121:HANcoder_E407_TTA_CombineModel.c **** 
 8019              		.loc 1 2121 48 view .LVU2975
 8020 1a0c 95F8C010 		ldrb	r1, [r5, #192]	@ zero_extendqisi2
2124:HANcoder_E407_TTA_CombineModel.c **** 
 8021              		.loc 1 2124 43 view .LVU2976
 8022 1a10 95F8C130 		ldrb	r3, [r5, #193]	@ zero_extendqisi2
 8023              	.LBB814:
 8024              	.LBB601:
 501:HANcoder_E407_TTA_CombineModel.c **** }
 8025              		.loc 1 501 15 view .LVU2977
 8026 1a14 1202     		lsls	r2, r2, #8
 501:HANcoder_E407_TTA_CombineModel.c **** }
 8027              		.loc 1 501 13 view .LVU2978
 8028 1a16 A5F8C420 		strh	r2, [r5, #196]	@ movhi
 8029              	.LBE601:
 8030              	.LBE814:
2120:HANcoder_E407_TTA_CombineModel.c ****                          rtB.EnabledSubsystem_b.In2);
 8031              		.loc 1 2120 15 view .LVU2979
 8032 1a1a 0A44     		add	r2, r2, r1
2135:HANcoder_E407_TTA_CombineModel.c **** 
 8033              		.loc 1 2135 48 view .LVU2980
 8034 1a1c 95F8C210 		ldrb	r1, [r5, #194]	@ zero_extendqisi2
 8035              	.LBB815:
 8036              	.LBB593:
 501:HANcoder_E407_TTA_CombineModel.c **** }
 8037              		.loc 1 501 15 view .LVU2981
 8038 1a20 1B02     		lsls	r3, r3, #8
 501:HANcoder_E407_TTA_CombineModel.c **** }
 8039              		.loc 1 501 13 view .LVU2982
 8040 1a22 A5F8C630 		strh	r3, [r5, #198]	@ movhi
 8041              	.LBE593:
 8042              	.LBE815:
2134:HANcoder_E407_TTA_CombineModel.c ****                          rtB.EnabledSubsystem_b.In4);
 8043              		.loc 1 2134 15 view .LVU2983
 8044 1a26 0B44     		add	r3, r3, r1
2120:HANcoder_E407_TTA_CombineModel.c ****                          rtB.EnabledSubsystem_b.In2);
 8045              		.loc 1 2120 13 view .LVU2984
 8046 1a28 1849     		ldr	r1, .L465+76
 8047 1a2a 0A80     		strh	r2, [r1]	@ movhi
2134:HANcoder_E407_TTA_CombineModel.c ****                          rtB.EnabledSubsystem_b.In4);
 8048              		.loc 1 2134 13 view .LVU2985
 8049 1a2c 184A     		ldr	r2, .L465+80
 8050 1a2e 1380     		strh	r3, [r2]	@ movhi
2150:HANcoder_E407_TTA_CombineModel.c **** 
 8051              		.loc 1 2150 7 view .LVU2986
 8052 1a30 95F8C330 		ldrb	r3, [r5, #195]	@ zero_extendqisi2
2110:HANcoder_E407_TTA_CombineModel.c **** 
 8053              		.loc 1 2110 7 is_stmt 1 view .LVU2987
 8054              	.LVL498:
2113:HANcoder_E407_TTA_CombineModel.c **** 
 8055              		.loc 1 2113 7 view .LVU2988
 8056              	.LBB816:
 496:HANcoder_E407_TTA_CombineModel.c **** {
 8057              		.loc 1 496 6 view .LVU2989
 8058              	.LBB602:
 501:HANcoder_E407_TTA_CombineModel.c **** }
 8059              		.loc 1 501 3 view .LVU2990
 501:HANcoder_E407_TTA_CombineModel.c **** }
 8060              		.loc 1 501 3 is_stmt 0 view .LVU2991
 8061              	.LBE602:
 8062              	.LBE816:
2120:HANcoder_E407_TTA_CombineModel.c ****                          rtB.EnabledSubsystem_b.In2);
 8063              		.loc 1 2120 7 is_stmt 1 view .LVU2992
2124:HANcoder_E407_TTA_CombineModel.c **** 
 8064              		.loc 1 2124 7 view .LVU2993
2127:HANcoder_E407_TTA_CombineModel.c **** 
 8065              		.loc 1 2127 7 view .LVU2994
 8066              	.LBB817:
 496:HANcoder_E407_TTA_CombineModel.c **** {
 8067              		.loc 1 496 6 view .LVU2995
 8068              	.LBB594:
 501:HANcoder_E407_TTA_CombineModel.c **** }
 8069              		.loc 1 501 3 view .LVU2996
 501:HANcoder_E407_TTA_CombineModel.c **** }
 8070              		.loc 1 501 3 is_stmt 0 view .LVU2997
 8071              	.LBE594:
 8072              	.LBE817:
2134:HANcoder_E407_TTA_CombineModel.c ****                          rtB.EnabledSubsystem_b.In4);
 8073              		.loc 1 2134 7 is_stmt 1 view .LVU2998
2140:HANcoder_E407_TTA_CombineModel.c ****         /* DataStoreWrite: '<S135>/Data Store Write' incorporates:
 8074              		.loc 1 2140 7 view .LVU2999
 8075 1a34 1EE5     		b	.L235
 8076              	.LVL499:
 8077              	.L279:
2140:HANcoder_E407_TTA_CombineModel.c ****         /* DataStoreWrite: '<S135>/Data Store Write' incorporates:
 8078              		.loc 1 2140 7 is_stmt 0 view .LVU3000
 8079 1a36 4FF4FA73 		mov	r3, #500
 8080 1a3a FEF7FDBE 		b	.L88
 8081              	.L466:
 8082 1a3e 00BF     		.align	2
 8083              	.L465:
 8084 1a40 00000000 		.word	.LANCHOR77
 8085 1a44 00000000 		.word	rtConstP
 8086 1a48 00000000 		.word	.LANCHOR76
 8087 1a4c 00000000 		.word	.LANCHOR78
 8088 1a50 00000000 		.word	.LANCHOR39
 8089 1a54 00000000 		.word	.LANCHOR38
 8090 1a58 00000000 		.word	.LANCHOR7
 8091 1a5c 00000000 		.word	.LANCHOR42
 8092 1a60 00000000 		.word	.LANCHOR41
 8093 1a64 00000000 		.word	.LANCHOR40
 8094 1a68 00000000 		.word	.LANCHOR43
 8095 1a6c 00000000 		.word	.LANCHOR45
 8096 1a70 08000000 		.word	.LANCHOR5+8
 8097 1a74 00000000 		.word	.LANCHOR51
 8098 1a78 00000000 		.word	.LANCHOR57
 8099 1a7c 00000000 		.word	.LANCHOR58
 8100 1a80 00000000 		.word	.LANCHOR59
 8101 1a84 00000000 		.word	.LANCHOR22
 8102 1a88 00000000 		.word	.LANCHOR61
 8103 1a8c 00000000 		.word	.LANCHOR48
 8104 1a90 00000000 		.word	.LANCHOR49
 8105              	.LVL500:
 8106              	.L431:
1498:HANcoder_E407_TTA_CombineModel.c **** 
 8107              		.loc 1 1498 44 view .LVU3001
 8108 1a94 022B     		cmp	r3, #2
 8109 1a96 6AD0     		beq	.L399
 8110              	.LVL501:
1497:HANcoder_E407_TTA_CombineModel.c ****                 ((!rtDWork.node1CanFailed) || (rtDWork.Board_ID != ((uint8_T)2U)))));
 8111              		.loc 1 1497 13 view .LVU3002
 8112 1a98 0123     		movs	r3, #1
 8113 1a9a 85F83930 		strb	r3, [r5, #57]
1507:HANcoder_E407_TTA_CombineModel.c ****                     rtDWork.node1CanFailed);
 8114              		.loc 1 1507 5 is_stmt 1 view .LVU3003
 8115              	.L275:
 8116              	.LVL502:
1523:HANcoder_E407_TTA_CombineModel.c **** 
 8117              		.loc 1 1523 9 view .LVU3004
1523:HANcoder_E407_TTA_CombineModel.c **** 
 8118              		.loc 1 1523 21 is_stmt 0 view .LVU3005
 8119 1a9e B4F85230 		ldrh	r3, [r4, #82]
1533:HANcoder_E407_TTA_CombineModel.c ****       } else {
 8120              		.loc 1 1533 21 view .LVU3006
 8121 1aa2 94F8EC20 		ldrb	r2, [r4, #236]	@ zero_extendqisi2
1523:HANcoder_E407_TTA_CombineModel.c **** 
 8122              		.loc 1 1523 21 view .LVU3007
 8123 1aa6 2B80     		strh	r3, [r5]	@ movhi
1528:HANcoder_E407_TTA_CombineModel.c **** 
 8124              		.loc 1 1528 9 is_stmt 1 view .LVU3008
1528:HANcoder_E407_TTA_CombineModel.c **** 
 8125              		.loc 1 1528 30 is_stmt 0 view .LVU3009
 8126 1aa8 94F8EB30 		ldrb	r3, [r4, #235]	@ zero_extendqisi2
1528:HANcoder_E407_TTA_CombineModel.c **** 
 8127              		.loc 1 1528 21 view .LVU3010
 8128 1aac 85F83A30 		strb	r3, [r5, #58]
1533:HANcoder_E407_TTA_CombineModel.c ****       } else {
 8129              		.loc 1 1533 9 is_stmt 1 view .LVU3011
1533:HANcoder_E407_TTA_CombineModel.c ****       } else {
 8130              		.loc 1 1533 21 is_stmt 0 view .LVU3012
 8131 1ab0 85F83B20 		strb	r2, [r5, #59]
 8132 1ab4 FFF78CB8 		b	.L123
 8133              	.LVL503:
 8134              	.L434:
3546:HANcoder_E407_TTA_CombineModel.c **** 
 8135              		.loc 1 3546 9 is_stmt 1 view .LVU3013
3546:HANcoder_E407_TTA_CombineModel.c **** 
 8136              		.loc 1 3546 22 is_stmt 0 view .LVU3014
 8137 1ab8 002E     		cmp	r6, #0
 8138 1aba 0CBF     		ite	eq
 8139 1abc 3346     		moveq	r3, r6
 8140 1abe 8023     		movne	r3, #128
3546:HANcoder_E407_TTA_CombineModel.c **** 
 8141              		.loc 1 3546 20 view .LVU3015
 8142 1ac0 85F83530 		strb	r3, [r5, #53]
3546:HANcoder_E407_TTA_CombineModel.c **** 
 8143              		.loc 1 3546 22 view .LVU3016
 8144 1ac4 08BF     		it	eq
 8145 1ac6 3246     		moveq	r2, r6
3565:HANcoder_E407_TTA_CombineModel.c **** 
 8146              		.loc 1 3565 62 view .LVU3017
 8147 1ac8 95F83130 		ldrb	r3, [r5, #49]	@ zero_extendqisi2
3546:HANcoder_E407_TTA_CombineModel.c **** 
 8148              		.loc 1 3546 22 view .LVU3018
 8149 1acc 18BF     		it	ne
 8150 1ace 4FF48072 		movne	r2, #256
 8151 1ad2 FFF7BEB9 		b	.L208
 8152              	.LVL504:
 8153              	.L428:
1197:HANcoder_E407_TTA_CombineModel.c ****     }
 8154              		.loc 1 1197 7 is_stmt 1 view .LVU3019
1206:HANcoder_E407_TTA_CombineModel.c ****       rtAction = 1;
 8155              		.loc 1 1206 5 view .LVU3020
1206:HANcoder_E407_TTA_CombineModel.c ****       rtAction = 1;
 8156              		.loc 1 1206 8 is_stmt 0 view .LVU3021
 8157 1ad6 3046     		mov	r0, r6
 8158 1ad8 3946     		mov	r1, r7
 8159 1ada FFF7FEFF 		bl	__aeabi_dcmpgt
 8160              	.LVL505:
 8161 1ade 0028     		cmp	r0, #0
 8162 1ae0 7EF445AF 		bne	.L101
1209:HANcoder_E407_TTA_CombineModel.c ****     }
 8163              		.loc 1 1209 7 is_stmt 1 view .LVU3022
 8164              	.LVL506:
1221:HANcoder_E407_TTA_CombineModel.c ****       rtb_IntegralGain = 0.0;
 8165              		.loc 1 1221 5 view .LVU3023
1221:HANcoder_E407_TTA_CombineModel.c ****       rtb_IntegralGain = 0.0;
 8166              		.loc 1 1221 8 is_stmt 0 view .LVU3024
 8167 1ae4 51EC190B 		vmov	r0, r1, d9
 8168 1ae8 0022     		movs	r2, #0
 8169 1aea 0023     		movs	r3, #0
 8170 1aec FFF7FEFF 		bl	__aeabi_dcmpeq
 8171              	.LVL507:
 8172 1af0 0028     		cmp	r0, #0
 8173 1af2 7EF43CAF 		bne	.L101
 8174              	.LVL508:
 8175              	.L403:
1222:HANcoder_E407_TTA_CombineModel.c ****     }
 8176              		.loc 1 1222 24 view .LVU3025
 8177 1af6 0026     		movs	r6, #0
 8178              	.LVL509:
1222:HANcoder_E407_TTA_CombineModel.c ****     }
 8179              		.loc 1 1222 24 view .LVU3026
 8180 1af8 0027     		movs	r7, #0
 8181 1afa FEF738BF 		b	.L101
 8182              	.LVL510:
 8183              	.L296:
1222:HANcoder_E407_TTA_CombineModel.c ****     }
 8184              		.loc 1 1222 24 view .LVU3027
 8185 1afe 8023     		movs	r3, #128
3554:HANcoder_E407_TTA_CombineModel.c **** 
 8186              		.loc 1 3554 20 view .LVU3028
 8187 1b00 1A46     		mov	r2, r3
 8188 1b02 FFF7A1B9 		b	.L209
 8189              	.LVL511:
 8190              	.L298:
3554:HANcoder_E407_TTA_CombineModel.c **** 
 8191              		.loc 1 3554 20 view .LVU3029
 8192 1b06 8020     		movs	r0, #128
3594:HANcoder_E407_TTA_CombineModel.c **** 
 8193              		.loc 1 3594 22 view .LVU3030
 8194 1b08 0346     		mov	r3, r0
 8195 1b0a FFF7BAB9 		b	.L214
 8196              	.L435:
3586:HANcoder_E407_TTA_CombineModel.c **** 
 8197              		.loc 1 3586 9 is_stmt 1 view .LVU3031
3586:HANcoder_E407_TTA_CombineModel.c **** 
 8198              		.loc 1 3586 22 is_stmt 0 view .LVU3032
 8199 1b0e 0029     		cmp	r1, #0
 8200 1b10 0CBF     		ite	eq
 8201 1b12 0B46     		moveq	r3, r1
 8202 1b14 8023     		movne	r3, #128
3586:HANcoder_E407_TTA_CombineModel.c **** 
 8203              		.loc 1 3586 20 view .LVU3033
 8204 1b16 85F83630 		strb	r3, [r5, #54]
3605:HANcoder_E407_TTA_CombineModel.c **** 
 8205              		.loc 1 3605 62 view .LVU3034
 8206 1b1a 95F83200 		ldrb	r0, [r5, #50]	@ zero_extendqisi2
3586:HANcoder_E407_TTA_CombineModel.c **** 
 8207              		.loc 1 3586 22 view .LVU3035
 8208 1b1e 0CBF     		ite	eq
 8209 1b20 0B46     		moveq	r3, r1
 8210 1b22 4FF48073 		movne	r3, #256
 8211 1b26 FFF7B1B9 		b	.L213
 8212              	.LVL512:
 8213              	.L422:
3186:HANcoder_E407_TTA_CombineModel.c ****     }
 8214              		.loc 1 3186 7 is_stmt 1 view .LVU3036
3186:HANcoder_E407_TTA_CombineModel.c ****     }
 8215              		.loc 1 3186 32 is_stmt 0 view .LVU3037
 8216 1b2a 0023     		movs	r3, #0
 8217 1b2c 84F8FE30 		strb	r3, [r4, #254]
3192:HANcoder_E407_TTA_CombineModel.c **** 
 8218              		.loc 1 3192 5 is_stmt 1 view .LVU3038
 8219 1b30 FEF729BC 		b	.L256
 8220              	.LVL513:
 8221              	.L419:
2189:HANcoder_E407_TTA_CombineModel.c ****     }
 8222              		.loc 1 2189 7 view .LVU3039
2189:HANcoder_E407_TTA_CombineModel.c ****     }
 8223              		.loc 1 2189 33 is_stmt 0 view .LVU3040
 8224 1b34 0023     		movs	r3, #0
 8225 1b36 84F80231 		strb	r3, [r4, #258]
2195:HANcoder_E407_TTA_CombineModel.c **** 
 8226              		.loc 1 2195 5 is_stmt 1 view .LVU3041
 8227 1b3a FEF734BB 		b	.L267
 8228              	.LVL514:
 8229              	.L284:
2195:HANcoder_E407_TTA_CombineModel.c **** 
 8230              		.loc 1 2195 5 is_stmt 0 view .LVU3042
 8231 1b3e 0346     		mov	r3, r0
 8232 1b40 FEF761BF 		b	.L107
 8233              	.LVL515:
 8234              	.L133:
1708:HANcoder_E407_TTA_CombineModel.c ****       rtDWork.MMBS1_RX_MODE = true;
 8235              		.loc 1 1708 5 is_stmt 1 view .LVU3043
1805:HANcoder_E407_TTA_CombineModel.c ****       rtDWork.MMBS1_RX_MODE = false;
 8236              		.loc 1 1805 12 view .LVU3044
1805:HANcoder_E407_TTA_CombineModel.c ****       rtDWork.MMBS1_RX_MODE = false;
 8237              		.loc 1 1805 15 is_stmt 0 view .LVU3045
 8238 1b44 94F80521 		ldrb	r2, [r4, #261]	@ zero_extendqisi2
 8239 1b48 002A     		cmp	r2, #0
 8240 1b4a 3FF439AA 		beq	.L138
1806:HANcoder_E407_TTA_CombineModel.c ****     }
 8241              		.loc 1 1806 7 is_stmt 1 view .LVU3046
1806:HANcoder_E407_TTA_CombineModel.c ****     }
 8242              		.loc 1 1806 29 is_stmt 0 view .LVU3047
 8243 1b4e 0022     		movs	r2, #0
 8244 1b50 84F80521 		strb	r2, [r4, #261]
 8245              	.LVL516:
1812:HANcoder_E407_TTA_CombineModel.c **** 
 8246              		.loc 1 1812 5 is_stmt 1 view .LVU3048
 8247 1b54 FFF734BA 		b	.L138
 8248              	.LVL517:
 8249              	.L447:
2717:HANcoder_E407_TTA_CombineModel.c **** 
 8250              		.loc 1 2717 43 is_stmt 0 view .LVU3049
 8251 1b58 95F87A10 		ldrb	r1, [r5, #122]	@ zero_extendqisi2
2728:HANcoder_E407_TTA_CombineModel.c **** 
 8252              		.loc 1 2728 49 view .LVU3050
 8253 1b5c 95F87B70 		ldrb	r7, [r5, #123]	@ zero_extendqisi2
2731:HANcoder_E407_TTA_CombineModel.c **** 
 8254              		.loc 1 2731 44 view .LVU3051
 8255 1b60 95F87C20 		ldrb	r2, [r5, #124]	@ zero_extendqisi2
2742:HANcoder_E407_TTA_CombineModel.c **** 
 8256              		.loc 1 2742 49 view .LVU3052
 8257 1b64 95F87D00 		ldrb	r0, [r5, #125]	@ zero_extendqisi2
 8258              	.LVL518:
2745:HANcoder_E407_TTA_CombineModel.c **** 
 8259              		.loc 1 2745 7 view .LVU3053
 8260 1b68 95F87E30 		ldrb	r3, [r5, #126]	@ zero_extendqisi2
 8261 1b6c FAE6     		b	.L175
 8262              	.LVL519:
 8263              	.L399:
1497:HANcoder_E407_TTA_CombineModel.c ****                 ((!rtDWork.node1CanFailed) || (rtDWork.Board_ID != ((uint8_T)2U)))));
 8264              		.loc 1 1497 13 view .LVU3054
 8265 1b6e 0023     		movs	r3, #0
 8266 1b70 85F83930 		strb	r3, [r5, #57]
1507:HANcoder_E407_TTA_CombineModel.c ****                     rtDWork.node1CanFailed);
 8267              		.loc 1 1507 5 is_stmt 1 view .LVU3055
 8268 1b74 93E7     		b	.L275
 8269              	.LVL520:
 8270              	.L446:
1942:HANcoder_E407_TTA_CombineModel.c ****       rtDWork.SYNC1_RX_MODE = true;
 8271              		.loc 1 1942 5 view .LVU3056
2002:HANcoder_E407_TTA_CombineModel.c ****       rtDWork.SYNC1_RX_MODE = false;
 8272              		.loc 1 2002 12 view .LVU3057
2002:HANcoder_E407_TTA_CombineModel.c ****       rtDWork.SYNC1_RX_MODE = false;
 8273              		.loc 1 2002 15 is_stmt 0 view .LVU3058
 8274 1b76 94F80321 		ldrb	r2, [r4, #259]	@ zero_extendqisi2
 8275 1b7a 002A     		cmp	r2, #0
 8276 1b7c 3FF451AA 		beq	.L157
2003:HANcoder_E407_TTA_CombineModel.c ****     }
 8277              		.loc 1 2003 7 is_stmt 1 view .LVU3059
2003:HANcoder_E407_TTA_CombineModel.c ****     }
 8278              		.loc 1 2003 29 is_stmt 0 view .LVU3060
 8279 1b80 0022     		movs	r2, #0
 8280 1b82 84F80321 		strb	r2, [r4, #259]
2009:HANcoder_E407_TTA_CombineModel.c **** 
 8281              		.loc 1 2009 5 is_stmt 1 view .LVU3061
 8282 1b86 FFF74CBA 		b	.L157
 8283              	.LVL521:
 8284              	.L444:
1861:HANcoder_E407_TTA_CombineModel.c ****       rtDWork.SSTM1_RX_MODE = true;
 8285              		.loc 1 1861 5 view .LVU3062
1893:HANcoder_E407_TTA_CombineModel.c ****       rtDWork.SSTM1_RX_MODE = false;
 8286              		.loc 1 1893 12 view .LVU3063
1893:HANcoder_E407_TTA_CombineModel.c ****       rtDWork.SSTM1_RX_MODE = false;
 8287              		.loc 1 1893 15 is_stmt 0 view .LVU3064
 8288 1b8a 94F80421 		ldrb	r2, [r4, #260]	@ zero_extendqisi2
 8289 1b8e 002A     		cmp	r2, #0
 8290 1b90 3EF4C7AA 		beq	.L149
1894:HANcoder_E407_TTA_CombineModel.c ****     }
 8291              		.loc 1 1894 7 is_stmt 1 view .LVU3065
1894:HANcoder_E407_TTA_CombineModel.c ****     }
 8292              		.loc 1 1894 29 is_stmt 0 view .LVU3066
 8293 1b94 0022     		movs	r2, #0
 8294 1b96 84F80421 		strb	r2, [r4, #260]
1900:HANcoder_E407_TTA_CombineModel.c **** 
 8295              		.loc 1 1900 5 is_stmt 1 view .LVU3067
 8296 1b9a FEF7C2BA 		b	.L149
 8297              	.LVL522:
 8298              	.L285:
1900:HANcoder_E407_TTA_CombineModel.c **** 
 8299              		.loc 1 1900 5 is_stmt 0 view .LVU3068
 8300 1b9e 0B46     		mov	r3, r1
 8301 1ba0 FEF731BF 		b	.L107
 8302              	.LVL523:
 8303              	.L437:
1806:HANcoder_E407_TTA_CombineModel.c ****     }
 8304              		.loc 1 1806 7 is_stmt 1 view .LVU3069
 8305 1ba4 07EE90BA 		vmov	s15, fp	@ int
1806:HANcoder_E407_TTA_CombineModel.c ****     }
 8306              		.loc 1 1806 29 is_stmt 0 view .LVU3070
 8307 1ba8 0022     		movs	r2, #0
 8308 1baa F8EEE77A 		vcvt.f32.s32	s15, s15
 8309 1bae 84F80521 		strb	r2, [r4, #261]
 8310              	.LVL524:
1812:HANcoder_E407_TTA_CombineModel.c **** 
 8311              		.loc 1 1812 5 is_stmt 1 view .LVU3071
 8312 1bb2 FFF7DCB9 		b	.L141
 8313              		.cfi_endproc
 8314              	.LFE137:
 8316 1bb6 00BF     		.section	.rodata.HANcoder_E407_TTA_CombineModel_initialize.str1.4,"aMS",%progbits,1
 8317              		.align	2
 8318              	.LC1:
 8319 0000 48414E63 		.ascii	"HANcoder_E407_TTA_CombineModel.c\000"
 8319      6F646572 
 8319      5F453430 
 8319      375F5454 
 8319      415F436F 
 8320              		.section	.text.HANcoder_E407_TTA_CombineModel_initialize,"ax",%progbits
 8321              		.align	1
 8322              		.p2align 2,,3
 8323              		.global	HANcoder_E407_TTA_CombineModel_initialize
 8324              		.syntax unified
 8325              		.thumb
 8326              		.thumb_func
 8328              	HANcoder_E407_TTA_CombineModel_initialize:
 8329              	.LFB138:
3680:HANcoder_E407_TTA_CombineModel.c **** 
3681:HANcoder_E407_TTA_CombineModel.c **** /* Model initialize function */
3682:HANcoder_E407_TTA_CombineModel.c **** void HANcoder_E407_TTA_CombineModel_initialize(void)
3683:HANcoder_E407_TTA_CombineModel.c **** {
 8330              		.loc 1 3683 1 view -0
 8331              		.cfi_startproc
 8332              		@ args = 0, pretend = 0, frame = 16
 8333              		@ frame_needed = 0, uses_anonymous_args = 0
 8334              	.LBB831:
3684:HANcoder_E407_TTA_CombineModel.c ****   {
3685:HANcoder_E407_TTA_CombineModel.c ****     /* user code (Start function Header) */
3686:HANcoder_E407_TTA_CombineModel.c ****     uint8_t canResult1;
 8335              		.loc 1 3686 5 view .LVU3073
3687:HANcoder_E407_TTA_CombineModel.c ****     tCanFilter canFilter1;
 8336              		.loc 1 3687 5 view .LVU3074
3688:HANcoder_E407_TTA_CombineModel.c **** 
3689:HANcoder_E407_TTA_CombineModel.c ****     /* user code (Start function Body) */
3690:HANcoder_E407_TTA_CombineModel.c **** 
3691:HANcoder_E407_TTA_CombineModel.c ****     /* initialize the CAN driver. */
3692:HANcoder_E407_TTA_CombineModel.c ****     CanInit(64, 8);
 8337              		.loc 1 3692 5 view .LVU3075
 8338              	.LBE831:
3683:HANcoder_E407_TTA_CombineModel.c ****   {
 8339              		.loc 1 3683 1 is_stmt 0 view .LVU3076
 8340 0000 F0B5     		push	{r4, r5, r6, r7, lr}
 8341              		.cfi_def_cfa_offset 20
 8342              		.cfi_offset 4, -20
 8343              		.cfi_offset 5, -16
 8344              		.cfi_offset 6, -12
 8345              		.cfi_offset 7, -8
 8346              		.cfi_offset 14, -4
 8347              	.LBB860:
 8348              		.loc 1 3692 5 view .LVU3077
 8349 0002 0821     		movs	r1, #8
 8350              	.LBE860:
3683:HANcoder_E407_TTA_CombineModel.c ****   {
 8351              		.loc 1 3683 1 view .LVU3078
 8352 0004 85B0     		sub	sp, sp, #20
 8353              		.cfi_def_cfa_offset 40
 8354              	.LBB861:
 8355              		.loc 1 3692 5 view .LVU3079
 8356 0006 4020     		movs	r0, #64
 8357 0008 FFF7FEFF 		bl	CanInit
 8358              	.LVL525:
3693:HANcoder_E407_TTA_CombineModel.c **** 
3694:HANcoder_E407_TTA_CombineModel.c ****     /* initialize the CAN I/O module for channel 1 */
3695:HANcoder_E407_TTA_CombineModel.c ****     CanIoInit(0);
 8359              		.loc 1 3695 5 is_stmt 1 view .LVU3080
 8360 000c 0020     		movs	r0, #0
3696:HANcoder_E407_TTA_CombineModel.c **** 
3697:HANcoder_E407_TTA_CombineModel.c ****     /* initialize the timer module for output compare. */
3698:HANcoder_E407_TTA_CombineModel.c ****     TimeoutInitModule(TIMEOUT_MODULE_TIM4, 1000000);
3699:HANcoder_E407_TTA_CombineModel.c **** 
3700:HANcoder_E407_TTA_CombineModel.c ****     /* Start for If: '<S1>/If1' */
3701:HANcoder_E407_TTA_CombineModel.c ****     rtDWork.If1_ActiveSubsystem = -1;
 8361              		.loc 1 3701 33 is_stmt 0 view .LVU3081
 8362 000e 764C     		ldr	r4, .L475
3695:HANcoder_E407_TTA_CombineModel.c **** 
 8363              		.loc 1 3695 5 view .LVU3082
 8364 0010 FFF7FEFF 		bl	CanIoInit
 8365              	.LVL526:
3698:HANcoder_E407_TTA_CombineModel.c **** 
 8366              		.loc 1 3698 5 is_stmt 1 view .LVU3083
 8367 0014 7549     		ldr	r1, .L475+4
 8368 0016 0320     		movs	r0, #3
 8369 0018 FFF7FEFF 		bl	TimeoutInitModule
 8370              	.LVL527:
 8371              		.loc 1 3701 5 view .LVU3084
 8372              		.loc 1 3701 33 is_stmt 0 view .LVU3085
 8373 001c FF27     		movs	r7, #255
3702:HANcoder_E407_TTA_CombineModel.c **** 
3703:HANcoder_E407_TTA_CombineModel.c ****     /* Start for IfAction SubSystem: '<S1>/Setting ID' */
3704:HANcoder_E407_TTA_CombineModel.c ****     /* Start for M-S-Function: '<S373>/Level-2 M-file S-Function' */
3705:HANcoder_E407_TTA_CombineModel.c **** 
3706:HANcoder_E407_TTA_CombineModel.c ****     /* configure the digital input */
3707:HANcoder_E407_TTA_CombineModel.c ****     DiginConfigure(DIGIN_PORTG_PIN12, DIGIN_CFG_PULLDOWN);
 8374              		.loc 1 3707 5 view .LVU3086
 8375 001e 0221     		movs	r1, #2
 8376 0020 0E20     		movs	r0, #14
3701:HANcoder_E407_TTA_CombineModel.c **** 
 8377              		.loc 1 3701 33 view .LVU3087
 8378 0022 84F8DB70 		strb	r7, [r4, #219]
 8379              		.loc 1 3707 5 is_stmt 1 view .LVU3088
 8380 0026 FFF7FEFF 		bl	DiginConfigure
 8381              	.LVL528:
3708:HANcoder_E407_TTA_CombineModel.c **** 
3709:HANcoder_E407_TTA_CombineModel.c ****     /* Start for M-S-Function: '<S374>/Level-2 M-file S-Function' */
3710:HANcoder_E407_TTA_CombineModel.c **** 
3711:HANcoder_E407_TTA_CombineModel.c ****     /* configure the digital input */
3712:HANcoder_E407_TTA_CombineModel.c ****     DiginConfigure(DIGIN_PORTG_PIN15, DIGIN_CFG_PULLDOWN);
 8382              		.loc 1 3712 5 view .LVU3089
 8383 002a 0221     		movs	r1, #2
 8384 002c 0F20     		movs	r0, #15
 8385 002e FFF7FEFF 		bl	DiginConfigure
 8386              	.LVL529:
3713:HANcoder_E407_TTA_CombineModel.c **** 
3714:HANcoder_E407_TTA_CombineModel.c ****     /* Start for M-S-Function: '<S375>/Level-2 M-file S-Function' */
3715:HANcoder_E407_TTA_CombineModel.c **** 
3716:HANcoder_E407_TTA_CombineModel.c ****     /* configure the digital input */
3717:HANcoder_E407_TTA_CombineModel.c ****     DiginConfigure(DIGIN_PORTA_PIN4, DIGIN_CFG_PULLDOWN);
 8387              		.loc 1 3717 5 view .LVU3090
 8388 0032 0221     		movs	r1, #2
 8389 0034 1020     		movs	r0, #16
 8390              	.LBB832:
 8391              	.LBB833:
 342:HANcoder_E407_TTA_CombineModel.c ****   localDW->objisempty = true;
 8392              		.loc 1 342 39 is_stmt 0 view .LVU3091
 8393 0036 0025     		movs	r5, #0
 8394              	.LBE833:
 8395              	.LBE832:
 8396              		.loc 1 3717 5 view .LVU3092
 8397 0038 FFF7FEFF 		bl	DiginConfigure
 8398              	.LVL530:
3718:HANcoder_E407_TTA_CombineModel.c **** 
3719:HANcoder_E407_TTA_CombineModel.c ****     /* End of Start for SubSystem: '<S1>/Setting ID' */
3720:HANcoder_E407_TTA_CombineModel.c **** 
3721:HANcoder_E407_TTA_CombineModel.c ****     /* register the callback handler */
3722:HANcoder_E407_TTA_CombineModel.c ****     TimeoutRegisterCompareEventCallback(TIMEOUT_TIM4_PIN_PD12,
 8399              		.loc 1 3722 5 is_stmt 1 view .LVU3093
 8400 003c 6C49     		ldr	r1, .L475+8
 8401 003e 0720     		movs	r0, #7
 8402 0040 FFF7FEFF 		bl	TimeoutRegisterCompareEventCallback
 8403              	.LVL531:
3723:HANcoder_E407_TTA_CombineModel.c ****       TimeoutEventIRQ_TIMEOUT_TIM4_PIN_PD12);
3724:HANcoder_E407_TTA_CombineModel.c **** 
3725:HANcoder_E407_TTA_CombineModel.c ****     /* End of Start for S-Function (sfcn_timeout_event_irq): '<S4>/S-Function' */
3726:HANcoder_E407_TTA_CombineModel.c **** 
3727:HANcoder_E407_TTA_CombineModel.c ****     /* Start for Triggered SubSystem: '<S1>/IO execution' */
3728:HANcoder_E407_TTA_CombineModel.c ****     /* Start for M-S-Function: '<S83>/Level-2 M-file S-Function' */
3729:HANcoder_E407_TTA_CombineModel.c **** 
3730:HANcoder_E407_TTA_CombineModel.c ****     /* configure the analog input for filtered inputs */
3731:HANcoder_E407_TTA_CombineModel.c ****     AninConfigure(ANIN_PORTF_PIN7,0);
 8404              		.loc 1 3731 5 view .LVU3094
 8405 0044 2946     		mov	r1, r5
 8406 0046 0420     		movs	r0, #4
 8407 0048 FFF7FEFF 		bl	AninConfigure
 8408              	.LVL532:
3732:HANcoder_E407_TTA_CombineModel.c ****     MovingAverage_Start(&rtDWork.MovingAverage_p);
 8409              		.loc 1 3732 5 view .LVU3095
 8410              	.LBB845:
 8411              	.LBI832:
 336:HANcoder_E407_TTA_CombineModel.c **** {
 8412              		.loc 1 336 6 view .LVU3096
 8413              	.LBB842:
 339:HANcoder_E407_TTA_CombineModel.c ****   localDW->obj.NumChannels = -1;
 8414              		.loc 1 339 3 view .LVU3097
 340:HANcoder_E407_TTA_CombineModel.c ****   localDW->obj.FrameLength = -1;
 8415              		.loc 1 340 3 view .LVU3098
 341:HANcoder_E407_TTA_CombineModel.c ****   localDW->obj.matlabCodegenIsDeleted = false;
 8416              		.loc 1 341 3 view .LVU3099
 342:HANcoder_E407_TTA_CombineModel.c ****   localDW->objisempty = true;
 8417              		.loc 1 342 3 view .LVU3100
 343:HANcoder_E407_TTA_CombineModel.c ****   SystemCore_setup(&localDW->obj);
 8418              		.loc 1 343 23 is_stmt 0 view .LVU3101
 8419 004c 0126     		movs	r6, #1
 8420              	.LBB834:
 8421              	.LBB835:
 309:HANcoder_E407_TTA_CombineModel.c ****   obj->isSetupComplete = true;
 8422              		.loc 1 309 19 view .LVU3102
 8423 004e 04F5DA73 		add	r3, r4, #436
 306:HANcoder_E407_TTA_CombineModel.c ****   obj->_pobj0.isInitialized = 0;
 8424              		.loc 1 306 20 view .LVU3103
 8425 0052 C4E96B66 		strd	r6, r6, [r4, #428]
 8426              	.LBE835:
 8427              	.LBE834:
 343:HANcoder_E407_TTA_CombineModel.c ****   SystemCore_setup(&localDW->obj);
 8428              		.loc 1 343 23 view .LVU3104
 8429 0056 84F8EC61 		strb	r6, [r4, #492]
 8430              	.LBB839:
 8431              	.LBB836:
 309:HANcoder_E407_TTA_CombineModel.c ****   obj->isSetupComplete = true;
 8432              		.loc 1 309 19 view .LVU3105
 8433 005a C4F8A831 		str	r3, [r4, #424]
 8434              	.LBE836:
 8435              	.LBE839:
 8436              	.LBE842:
 8437              	.LBE845:
3733:HANcoder_E407_TTA_CombineModel.c **** 
3734:HANcoder_E407_TTA_CombineModel.c ****     /* Start for M-S-Function: '<S84>/Level-2 M-file S-Function' */
3735:HANcoder_E407_TTA_CombineModel.c **** 
3736:HANcoder_E407_TTA_CombineModel.c ****     /* configure the analog input for filtered inputs */
3737:HANcoder_E407_TTA_CombineModel.c ****     AninConfigure(ANIN_PORTF_PIN8,0);
 8438              		.loc 1 3737 5 view .LVU3106
 8439 005e 2946     		mov	r1, r5
 8440              	.LBB846:
 8441              	.LBB843:
 8442              	.LBB840:
 8443              	.LBB837:
 304:HANcoder_E407_TTA_CombineModel.c ****   obj->NumChannels = 1;
 8444              		.loc 1 304 22 view .LVU3107
 8445 0060 C4F88061 		str	r6, [r4, #384]
 310:HANcoder_E407_TTA_CombineModel.c ****   obj->TunablePropsChanged = false;
 8446              		.loc 1 310 24 view .LVU3108
 8447 0064 A4F88461 		strh	r6, [r4, #388]	@ movhi
 8448              	.LBE837:
 8449              	.LBE840:
 8450              	.LBE843:
 8451              	.LBE846:
 8452              		.loc 1 3737 5 view .LVU3109
 8453 0068 0520     		movs	r0, #5
 8454              	.LBB847:
 8455              	.LBB844:
 342:HANcoder_E407_TTA_CombineModel.c ****   localDW->objisempty = true;
 8456              		.loc 1 342 39 view .LVU3110
 8457 006a 84F87C51 		strb	r5, [r4, #380]
 343:HANcoder_E407_TTA_CombineModel.c ****   SystemCore_setup(&localDW->obj);
 8458              		.loc 1 343 3 is_stmt 1 view .LVU3111
 344:HANcoder_E407_TTA_CombineModel.c **** }
 8459              		.loc 1 344 3 view .LVU3112
 8460              	.LVL533:
 8461              	.LBB841:
 8462              	.LBI834:
 301:HANcoder_E407_TTA_CombineModel.c **** {
 8463              		.loc 1 301 13 view .LVU3113
 8464              	.LBB838:
 303:HANcoder_E407_TTA_CombineModel.c ****   obj->isInitialized = 1;
 8465              		.loc 1 303 3 view .LVU3114
 304:HANcoder_E407_TTA_CombineModel.c ****   obj->NumChannels = 1;
 8466              		.loc 1 304 3 view .LVU3115
 305:HANcoder_E407_TTA_CombineModel.c ****   obj->FrameLength = 1;
 8467              		.loc 1 305 3 view .LVU3116
 307:HANcoder_E407_TTA_CombineModel.c ****   obj->_pobj0.isInitialized = 0;
 8468              		.loc 1 307 3 view .LVU3117
 307:HANcoder_E407_TTA_CombineModel.c ****   obj->_pobj0.isInitialized = 0;
 8469              		.loc 1 307 29 is_stmt 0 view .LVU3118
 8470 006e C4F8B451 		str	r5, [r4, #436]
 308:HANcoder_E407_TTA_CombineModel.c ****   obj->pStatistic = &obj->_pobj0;
 8471              		.loc 1 308 3 is_stmt 1 view .LVU3119
 309:HANcoder_E407_TTA_CombineModel.c ****   obj->isSetupComplete = true;
 8472              		.loc 1 309 3 view .LVU3120
 310:HANcoder_E407_TTA_CombineModel.c ****   obj->TunablePropsChanged = false;
 8473              		.loc 1 310 3 view .LVU3121
 311:HANcoder_E407_TTA_CombineModel.c **** }
 8474              		.loc 1 311 3 view .LVU3122
 8475              	.LVL534:
 311:HANcoder_E407_TTA_CombineModel.c **** }
 8476              		.loc 1 311 3 is_stmt 0 view .LVU3123
 8477              	.LBE838:
 8478              	.LBE841:
 8479              	.LBE844:
 8480              	.LBE847:
 8481              		.loc 1 3737 5 is_stmt 1 view .LVU3124
 8482 0072 FFF7FEFF 		bl	AninConfigure
 8483              	.LVL535:
3738:HANcoder_E407_TTA_CombineModel.c ****     MovingAverage_Start(&rtDWork.MovingAverage1);
 8484              		.loc 1 3738 5 view .LVU3125
 8485              	.LBB848:
 8486              	.LBI848:
 336:HANcoder_E407_TTA_CombineModel.c **** {
 8487              		.loc 1 336 6 view .LVU3126
 8488              	.LBB849:
 339:HANcoder_E407_TTA_CombineModel.c ****   localDW->obj.NumChannels = -1;
 8489              		.loc 1 339 3 view .LVU3127
 340:HANcoder_E407_TTA_CombineModel.c ****   localDW->obj.FrameLength = -1;
 8490              		.loc 1 340 3 view .LVU3128
 341:HANcoder_E407_TTA_CombineModel.c ****   localDW->obj.matlabCodegenIsDeleted = false;
 8491              		.loc 1 341 3 view .LVU3129
 342:HANcoder_E407_TTA_CombineModel.c ****   localDW->objisempty = true;
 8492              		.loc 1 342 3 view .LVU3130
 8493              	.LBB850:
 8494              	.LBB851:
 309:HANcoder_E407_TTA_CombineModel.c ****   obj->isSetupComplete = true;
 8495              		.loc 1 309 19 is_stmt 0 view .LVU3131
 8496 0076 04F5A073 		add	r3, r4, #320
 8497 007a C4F83431 		str	r3, [r4, #308]
 306:HANcoder_E407_TTA_CombineModel.c ****   obj->_pobj0.isInitialized = 0;
 8498              		.loc 1 306 20 view .LVU3132
 8499 007e C4E94E66 		strd	r6, r6, [r4, #312]
 8500              	.LBE851:
 8501              	.LBE850:
 343:HANcoder_E407_TTA_CombineModel.c ****   SystemCore_setup(&localDW->obj);
 8502              		.loc 1 343 23 view .LVU3133
 8503 0082 84F87861 		strb	r6, [r4, #376]
 8504              	.LBE849:
 8505              	.LBE848:
3739:HANcoder_E407_TTA_CombineModel.c **** 
3740:HANcoder_E407_TTA_CombineModel.c ****     /* Start for M-S-Function: '<S81>/Level-2 M-file S-Function' */
3741:HANcoder_E407_TTA_CombineModel.c **** 
3742:HANcoder_E407_TTA_CombineModel.c ****     /* configure the digital input */
3743:HANcoder_E407_TTA_CombineModel.c ****     DiginConfigure(DIGIN_PORTA_PIN0, DIGIN_CFG_PULLDOWN);
 8506              		.loc 1 3743 5 view .LVU3134
 8507 0086 0221     		movs	r1, #2
 8508              	.LBB858:
 8509              	.LBB856:
 8510              	.LBB854:
 8511              	.LBB852:
 304:HANcoder_E407_TTA_CombineModel.c ****   obj->NumChannels = 1;
 8512              		.loc 1 304 22 view .LVU3135
 8513 0088 C4F80C61 		str	r6, [r4, #268]
 310:HANcoder_E407_TTA_CombineModel.c ****   obj->TunablePropsChanged = false;
 8514              		.loc 1 310 24 view .LVU3136
 8515 008c A4F81061 		strh	r6, [r4, #272]	@ movhi
 8516              	.LBE852:
 8517              	.LBE854:
 8518              	.LBE856:
 8519              	.LBE858:
 8520              		.loc 1 3743 5 view .LVU3137
 8521 0090 4720     		movs	r0, #71
 8522              	.LBB859:
 8523              	.LBB857:
 342:HANcoder_E407_TTA_CombineModel.c ****   localDW->objisempty = true;
 8524              		.loc 1 342 39 view .LVU3138
 8525 0092 84F80851 		strb	r5, [r4, #264]
 343:HANcoder_E407_TTA_CombineModel.c ****   SystemCore_setup(&localDW->obj);
 8526              		.loc 1 343 3 is_stmt 1 view .LVU3139
 344:HANcoder_E407_TTA_CombineModel.c **** }
 8527              		.loc 1 344 3 view .LVU3140
 8528              	.LVL536:
 8529              	.LBB855:
 8530              	.LBI850:
 301:HANcoder_E407_TTA_CombineModel.c **** {
 8531              		.loc 1 301 13 view .LVU3141
 8532              	.LBB853:
 303:HANcoder_E407_TTA_CombineModel.c ****   obj->isInitialized = 1;
 8533              		.loc 1 303 3 view .LVU3142
 304:HANcoder_E407_TTA_CombineModel.c ****   obj->NumChannels = 1;
 8534              		.loc 1 304 3 view .LVU3143
 305:HANcoder_E407_TTA_CombineModel.c ****   obj->FrameLength = 1;
 8535              		.loc 1 305 3 view .LVU3144
 307:HANcoder_E407_TTA_CombineModel.c ****   obj->_pobj0.isInitialized = 0;
 8536              		.loc 1 307 3 view .LVU3145
 307:HANcoder_E407_TTA_CombineModel.c ****   obj->_pobj0.isInitialized = 0;
 8537              		.loc 1 307 29 is_stmt 0 view .LVU3146
 8538 0096 C4F84051 		str	r5, [r4, #320]
 308:HANcoder_E407_TTA_CombineModel.c ****   obj->pStatistic = &obj->_pobj0;
 8539              		.loc 1 308 3 is_stmt 1 view .LVU3147
 309:HANcoder_E407_TTA_CombineModel.c ****   obj->isSetupComplete = true;
 8540              		.loc 1 309 3 view .LVU3148
 310:HANcoder_E407_TTA_CombineModel.c ****   obj->TunablePropsChanged = false;
 8541              		.loc 1 310 3 view .LVU3149
 311:HANcoder_E407_TTA_CombineModel.c **** }
 8542              		.loc 1 311 3 view .LVU3150
 8543              	.LVL537:
 311:HANcoder_E407_TTA_CombineModel.c **** }
 8544              		.loc 1 311 3 is_stmt 0 view .LVU3151
 8545              	.LBE853:
 8546              	.LBE855:
 8547              	.LBE857:
 8548              	.LBE859:
 8549              		.loc 1 3743 5 is_stmt 1 view .LVU3152
 8550 009a FFF7FEFF 		bl	DiginConfigure
 8551              	.LVL538:
3744:HANcoder_E407_TTA_CombineModel.c **** 
3745:HANcoder_E407_TTA_CombineModel.c ****     /* Start for M-S-Function: '<S82>/Level-2 M-file S-Function' */
3746:HANcoder_E407_TTA_CombineModel.c **** 
3747:HANcoder_E407_TTA_CombineModel.c ****     /* configure the quadrature encoder module */
3748:HANcoder_E407_TTA_CombineModel.c ****     QuadEncConfigure(QUADENC_TIM3_PA6_PB5, QUADENC_CFG_FLOATING);
 8552              		.loc 1 3748 5 view .LVU3153
 8553 009e 3046     		mov	r0, r6
 8554 00a0 2946     		mov	r1, r5
 8555 00a2 FFF7FEFF 		bl	QuadEncConfigure
 8556              	.LVL539:
3749:HANcoder_E407_TTA_CombineModel.c **** 
3750:HANcoder_E407_TTA_CombineModel.c ****     /* Start for M-S-Function: '<S86>/Level-2 M-file S-Function' */
3751:HANcoder_E407_TTA_CombineModel.c **** 
3752:HANcoder_E407_TTA_CombineModel.c ****     /* configure the digital output */
3753:HANcoder_E407_TTA_CombineModel.c ****     DigoutConfigure(DIGOUT_PORTE_PIN5, DIGOUT_CFG_PUSHPULL);
 8557              		.loc 1 3753 5 view .LVU3154
 8558 00a6 3146     		mov	r1, r6
 8559 00a8 0A20     		movs	r0, #10
 8560 00aa FFF7FEFF 		bl	DigoutConfigure
 8561              	.LVL540:
3754:HANcoder_E407_TTA_CombineModel.c **** 
3755:HANcoder_E407_TTA_CombineModel.c ****     /* Start for M-S-Function: '<S87>/Level-2 M-file S-Function' */
3756:HANcoder_E407_TTA_CombineModel.c **** 
3757:HANcoder_E407_TTA_CombineModel.c ****     /* configure the digital output */
3758:HANcoder_E407_TTA_CombineModel.c ****     DigoutConfigure(DIGOUT_PORTE_PIN6, DIGOUT_CFG_PUSHPULL);
 8562              		.loc 1 3758 5 view .LVU3155
 8563 00ae 3146     		mov	r1, r6
 8564 00b0 0B20     		movs	r0, #11
 8565 00b2 FFF7FEFF 		bl	DigoutConfigure
 8566              	.LVL541:
3759:HANcoder_E407_TTA_CombineModel.c **** 
3760:HANcoder_E407_TTA_CombineModel.c ****     /* Start for M-S-Function: '<S88>/Level-2 M-file S-Function' */
3761:HANcoder_E407_TTA_CombineModel.c **** 
3762:HANcoder_E407_TTA_CombineModel.c ****     /* configure the digital output */
3763:HANcoder_E407_TTA_CombineModel.c ****     DigoutConfigure(DIGOUT_PORTC_PIN13, DIGOUT_CFG_PUSHPULL);
 8567              		.loc 1 3763 5 view .LVU3156
 8568 00b6 3146     		mov	r1, r6
 8569 00b8 4720     		movs	r0, #71
 8570 00ba FFF7FEFF 		bl	DigoutConfigure
 8571              	.LVL542:
3764:HANcoder_E407_TTA_CombineModel.c **** 
3765:HANcoder_E407_TTA_CombineModel.c ****     /* Start for S-Function (sfcn_pwmout_init): '<S90>/S-Function' */
3766:HANcoder_E407_TTA_CombineModel.c **** 
3767:HANcoder_E407_TTA_CombineModel.c ****     /* initialize the PWM module and register the callback handler */
3768:HANcoder_E407_TTA_CombineModel.c ****     PwmoutInit(PWMOUT_MODULE_TIM14, 10253, PWMOUT_EDGE_ALIGNMENT);
 8572              		.loc 1 3768 5 view .LVU3157
 8573 00be 2A46     		mov	r2, r5
 8574 00c0 42F60D01 		movw	r1, #10253
 8575 00c4 0920     		movs	r0, #9
 8576 00c6 FFF7FEFF 		bl	PwmoutInit
 8577              	.LVL543:
3769:HANcoder_E407_TTA_CombineModel.c ****     PwmoutRegisterPeriodCompleteCallback(PWMOUT_MODULE_TIM14,
 8578              		.loc 1 3769 5 view .LVU3158
 8579 00ca 4A49     		ldr	r1, .L475+12
3770:HANcoder_E407_TTA_CombineModel.c ****       PwmoutIRQ_PWMOUT_MODULE_TIM14);
3771:HANcoder_E407_TTA_CombineModel.c **** 
3772:HANcoder_E407_TTA_CombineModel.c ****     /* configures channel 1 */
3773:HANcoder_E407_TTA_CombineModel.c ****     PwmoutConfigure(PWMOUT_TIM14_PIN_PF9, PWMOUT_ACTIVE_HIGH,
3774:HANcoder_E407_TTA_CombineModel.c ****                     PWMOUT_INVERTED_OUTPUT_OFF);
3775:HANcoder_E407_TTA_CombineModel.c **** 
3776:HANcoder_E407_TTA_CombineModel.c ****     /* End of Start for SubSystem: '<S1>/IO execution' */
3777:HANcoder_E407_TTA_CombineModel.c **** 
3778:HANcoder_E407_TTA_CombineModel.c ****     /* Start for Enabled SubSystem: '<S1>/Message selector'
3779:HANcoder_E407_TTA_CombineModel.c ****      *
3780:HANcoder_E407_TTA_CombineModel.c ****      * Block description for '<S1>/Message selector':
3781:HANcoder_E407_TTA_CombineModel.c ****      *  Truck 1
3782:HANcoder_E407_TTA_CombineModel.c ****      */
3783:HANcoder_E407_TTA_CombineModel.c ****     /* Start for Enabled SubSystem: '<S10>/MMBS1_RX' */
3784:HANcoder_E407_TTA_CombineModel.c ****     /* Start for M-S-Function: '<S119>/S-Function' incorporates:
3785:HANcoder_E407_TTA_CombineModel.c ****      *  Constant: '<S10>/Constant12'
3786:HANcoder_E407_TTA_CombineModel.c ****      */
3787:HANcoder_E407_TTA_CombineModel.c **** 
3788:HANcoder_E407_TTA_CombineModel.c ****     /* register a CAN storage buffer for the message with this ID */
3789:HANcoder_E407_TTA_CombineModel.c ****     CanIoCreateMessageReceivedStorage(0, MMBS1_ID);
3790:HANcoder_E407_TTA_CombineModel.c **** 
3791:HANcoder_E407_TTA_CombineModel.c ****     /* End of Start for SubSystem: '<S10>/MMBS1_RX' */
3792:HANcoder_E407_TTA_CombineModel.c **** 
3793:HANcoder_E407_TTA_CombineModel.c ****     /* Start for Enabled SubSystem: '<S10>/SSTM1_RX' */
3794:HANcoder_E407_TTA_CombineModel.c ****     /* Start for M-S-Function: '<S125>/S-Function' incorporates:
3795:HANcoder_E407_TTA_CombineModel.c ****      *  Constant: '<S10>/Constant14'
3796:HANcoder_E407_TTA_CombineModel.c ****      */
3797:HANcoder_E407_TTA_CombineModel.c **** 
3798:HANcoder_E407_TTA_CombineModel.c ****     /* register a CAN storage buffer for the message with this ID */
3799:HANcoder_E407_TTA_CombineModel.c ****     CanIoCreateMessageReceivedStorage(0, SSTM1_ID);
3800:HANcoder_E407_TTA_CombineModel.c **** 
3801:HANcoder_E407_TTA_CombineModel.c ****     /* End of Start for SubSystem: '<S10>/SSTM1_RX' */
3802:HANcoder_E407_TTA_CombineModel.c **** 
3803:HANcoder_E407_TTA_CombineModel.c ****     /* Start for Enabled SubSystem: '<S10>/SYNC1_RX' */
3804:HANcoder_E407_TTA_CombineModel.c ****     /* Start for M-S-Function: '<S128>/S-Function' incorporates:
3805:HANcoder_E407_TTA_CombineModel.c ****      *  Constant: '<S10>/Constant10'
3806:HANcoder_E407_TTA_CombineModel.c ****      */
3807:HANcoder_E407_TTA_CombineModel.c **** 
3808:HANcoder_E407_TTA_CombineModel.c ****     /* register a CAN storage buffer for the message with this ID */
3809:HANcoder_E407_TTA_CombineModel.c ****     CanIoCreateMessageReceivedStorage(0, SYNC1_ID);
 8580              		.loc 1 3809 5 is_stmt 0 view .LVU3159
 8581 00cc 4A4E     		ldr	r6, .L475+16
3769:HANcoder_E407_TTA_CombineModel.c ****     PwmoutRegisterPeriodCompleteCallback(PWMOUT_MODULE_TIM14,
 8582              		.loc 1 3769 5 view .LVU3160
 8583 00ce 0920     		movs	r0, #9
 8584 00d0 FFF7FEFF 		bl	PwmoutRegisterPeriodCompleteCallback
 8585              	.LVL544:
3773:HANcoder_E407_TTA_CombineModel.c ****                     PWMOUT_INVERTED_OUTPUT_OFF);
 8586              		.loc 1 3773 5 is_stmt 1 view .LVU3161
 8587 00d4 2A46     		mov	r2, r5
 8588 00d6 2946     		mov	r1, r5
 8589 00d8 1020     		movs	r0, #16
 8590 00da FFF7FEFF 		bl	PwmoutConfigure
 8591              	.LVL545:
3789:HANcoder_E407_TTA_CombineModel.c **** 
 8592              		.loc 1 3789 5 view .LVU3162
 8593 00de 474B     		ldr	r3, .L475+20
 8594 00e0 2846     		mov	r0, r5
 8595 00e2 1968     		ldr	r1, [r3]
 8596 00e4 FFF7FEFF 		bl	CanIoCreateMessageReceivedStorage
 8597              	.LVL546:
3799:HANcoder_E407_TTA_CombineModel.c **** 
 8598              		.loc 1 3799 5 view .LVU3163
 8599 00e8 454B     		ldr	r3, .L475+24
 8600 00ea 2846     		mov	r0, r5
 8601 00ec 1968     		ldr	r1, [r3]
 8602 00ee FFF7FEFF 		bl	CanIoCreateMessageReceivedStorage
 8603              	.LVL547:
 8604              		.loc 1 3809 5 view .LVU3164
 8605 00f2 3168     		ldr	r1, [r6]
 8606 00f4 2846     		mov	r0, r5
 8607 00f6 FFF7FEFF 		bl	CanIoCreateMessageReceivedStorage
 8608              	.LVL548:
3810:HANcoder_E407_TTA_CombineModel.c **** 
3811:HANcoder_E407_TTA_CombineModel.c ****     /* End of Start for SubSystem: '<S10>/SYNC1_RX' */
3812:HANcoder_E407_TTA_CombineModel.c **** 
3813:HANcoder_E407_TTA_CombineModel.c ****     /* Start for Enabled SubSystem: '<S10>/TRCK1_ID2_RX' */
3814:HANcoder_E407_TTA_CombineModel.c ****     /* Start for M-S-Function: '<S134>/S-Function' incorporates:
3815:HANcoder_E407_TTA_CombineModel.c ****      *  Constant: '<S10>/Constant5'
3816:HANcoder_E407_TTA_CombineModel.c ****      */
3817:HANcoder_E407_TTA_CombineModel.c **** 
3818:HANcoder_E407_TTA_CombineModel.c ****     /* register a CAN storage buffer for the message with this ID */
3819:HANcoder_E407_TTA_CombineModel.c ****     CanIoCreateMessageReceivedStorage(0, TRCK1_ID2);
 8609              		.loc 1 3819 5 view .LVU3165
 8610 00fa 424B     		ldr	r3, .L475+28
 8611 00fc 2846     		mov	r0, r5
 8612 00fe 1968     		ldr	r1, [r3]
 8613 0100 FFF7FEFF 		bl	CanIoCreateMessageReceivedStorage
 8614              	.LVL549:
3820:HANcoder_E407_TTA_CombineModel.c **** 
3821:HANcoder_E407_TTA_CombineModel.c ****     /* End of Start for SubSystem: '<S10>/TRCK1_ID2_RX' */
3822:HANcoder_E407_TTA_CombineModel.c **** 
3823:HANcoder_E407_TTA_CombineModel.c ****     /* Start for Enabled SubSystem: '<S10>/TRCK1_RX' */
3824:HANcoder_E407_TTA_CombineModel.c ****     /* Start for M-S-Function: '<S204>/S-Function' incorporates:
3825:HANcoder_E407_TTA_CombineModel.c ****      *  Constant: '<S10>/Constant3'
3826:HANcoder_E407_TTA_CombineModel.c ****      */
3827:HANcoder_E407_TTA_CombineModel.c **** 
3828:HANcoder_E407_TTA_CombineModel.c ****     /* register a CAN storage buffer for the message with this ID */
3829:HANcoder_E407_TTA_CombineModel.c ****     CanIoCreateMessageReceivedStorage(0, TRCK1_ID1);
 8615              		.loc 1 3829 5 view .LVU3166
 8616 0104 404B     		ldr	r3, .L475+32
 8617 0106 2846     		mov	r0, r5
 8618 0108 1968     		ldr	r1, [r3]
 8619 010a FFF7FEFF 		bl	CanIoCreateMessageReceivedStorage
 8620              	.LVL550:
3830:HANcoder_E407_TTA_CombineModel.c **** 
3831:HANcoder_E407_TTA_CombineModel.c ****     /* End of Start for SubSystem: '<S10>/TRCK1_RX' */
3832:HANcoder_E407_TTA_CombineModel.c **** 
3833:HANcoder_E407_TTA_CombineModel.c ****     /* Start for Enabled SubSystem: '<S10>/TRCK_ID3_RX' */
3834:HANcoder_E407_TTA_CombineModel.c ****     /* Start for M-S-Function: '<S251>/S-Function' incorporates:
3835:HANcoder_E407_TTA_CombineModel.c ****      *  Constant: '<S10>/Constant26'
3836:HANcoder_E407_TTA_CombineModel.c ****      */
3837:HANcoder_E407_TTA_CombineModel.c **** 
3838:HANcoder_E407_TTA_CombineModel.c ****     /* register a CAN storage buffer for the message with this ID */
3839:HANcoder_E407_TTA_CombineModel.c ****     CanIoCreateMessageReceivedStorage(0, TRCK1_ID3);
 8621              		.loc 1 3839 5 view .LVU3167
 8622 010e 3F4B     		ldr	r3, .L475+36
 8623 0110 2846     		mov	r0, r5
 8624 0112 1968     		ldr	r1, [r3]
 8625 0114 FFF7FEFF 		bl	CanIoCreateMessageReceivedStorage
 8626              	.LVL551:
3840:HANcoder_E407_TTA_CombineModel.c **** 
3841:HANcoder_E407_TTA_CombineModel.c ****     /* End of Start for SubSystem: '<S10>/TRCK_ID3_RX' */
3842:HANcoder_E407_TTA_CombineModel.c **** 
3843:HANcoder_E407_TTA_CombineModel.c ****     /* Start for Enabled SubSystem: '<S10>/TRLS_ID4_RX' */
3844:HANcoder_E407_TTA_CombineModel.c ****     /* Start for M-S-Function: '<S276>/S-Function' incorporates:
3845:HANcoder_E407_TTA_CombineModel.c ****      *  Constant: '<S10>/Constant8'
3846:HANcoder_E407_TTA_CombineModel.c ****      */
3847:HANcoder_E407_TTA_CombineModel.c **** 
3848:HANcoder_E407_TTA_CombineModel.c ****     /* register a CAN storage buffer for the message with this ID */
3849:HANcoder_E407_TTA_CombineModel.c ****     CanIoCreateMessageReceivedStorage(0, TRLS1_ID4);
 8627              		.loc 1 3849 5 view .LVU3168
 8628 0118 3D4B     		ldr	r3, .L475+40
 8629 011a 2846     		mov	r0, r5
 8630 011c 1968     		ldr	r1, [r3]
 8631 011e FFF7FEFF 		bl	CanIoCreateMessageReceivedStorage
 8632              	.LVL552:
3850:HANcoder_E407_TTA_CombineModel.c **** 
3851:HANcoder_E407_TTA_CombineModel.c ****     /* End of Start for SubSystem: '<S10>/TRLS_ID4_RX' */
3852:HANcoder_E407_TTA_CombineModel.c **** 
3853:HANcoder_E407_TTA_CombineModel.c ****     /* Start for Enabled SubSystem: '<S10>/TRLS_ID5_RX' */
3854:HANcoder_E407_TTA_CombineModel.c ****     /* Start for M-S-Function: '<S323>/S-Function' incorporates:
3855:HANcoder_E407_TTA_CombineModel.c ****      *  Constant: '<S10>/Constant18'
3856:HANcoder_E407_TTA_CombineModel.c ****      */
3857:HANcoder_E407_TTA_CombineModel.c **** 
3858:HANcoder_E407_TTA_CombineModel.c ****     /* register a CAN storage buffer for the message with this ID */
3859:HANcoder_E407_TTA_CombineModel.c ****     CanIoCreateMessageReceivedStorage(0, TRLS1_ID5);
 8633              		.loc 1 3859 5 view .LVU3169
 8634 0122 3C4B     		ldr	r3, .L475+44
 8635 0124 2846     		mov	r0, r5
 8636 0126 1968     		ldr	r1, [r3]
 8637 0128 FFF7FEFF 		bl	CanIoCreateMessageReceivedStorage
 8638              	.LVL553:
3860:HANcoder_E407_TTA_CombineModel.c **** 
3861:HANcoder_E407_TTA_CombineModel.c ****     /* End of Start for SubSystem: '<S10>/TRLS_ID5_RX' */
3862:HANcoder_E407_TTA_CombineModel.c ****     /* End of Start for SubSystem: '<S1>/Message selector' */
3863:HANcoder_E407_TTA_CombineModel.c **** 
3864:HANcoder_E407_TTA_CombineModel.c ****     /* Start for Enabled SubSystem: '<S12>/Subsystem2' */
3865:HANcoder_E407_TTA_CombineModel.c ****     /* Start for M-S-Function: '<S370>/S-Function' incorporates:
3866:HANcoder_E407_TTA_CombineModel.c ****      *  Constant: '<S369>/Constant10'
3867:HANcoder_E407_TTA_CombineModel.c ****      */
3868:HANcoder_E407_TTA_CombineModel.c **** 
3869:HANcoder_E407_TTA_CombineModel.c ****     /* register a CAN storage buffer for the message with this ID */
3870:HANcoder_E407_TTA_CombineModel.c ****     CanIoCreateMessageReceivedStorage(0, SYNC1_ID);
 8639              		.loc 1 3870 5 view .LVU3170
 8640 012c 3168     		ldr	r1, [r6]
 8641 012e 2846     		mov	r0, r5
 8642 0130 FFF7FEFF 		bl	CanIoCreateMessageReceivedStorage
 8643              	.LVL554:
3871:HANcoder_E407_TTA_CombineModel.c **** 
3872:HANcoder_E407_TTA_CombineModel.c ****     /* End of Start for SubSystem: '<S12>/Subsystem2' */
3873:HANcoder_E407_TTA_CombineModel.c **** 
3874:HANcoder_E407_TTA_CombineModel.c ****     /* Start for If: '<S1>/If' */
3875:HANcoder_E407_TTA_CombineModel.c ****     rtDWork.If_ActiveSubsystem = -1;
 8644              		.loc 1 3875 5 view .LVU3171
3876:HANcoder_E407_TTA_CombineModel.c **** 
3877:HANcoder_E407_TTA_CombineModel.c ****     /* Start for IfAction SubSystem: '<S1>/Triggered Subsystem' */
3878:HANcoder_E407_TTA_CombineModel.c ****     /* Start for M-S-Function: '<S379>/Level-2 M-file S-Function' */
3879:HANcoder_E407_TTA_CombineModel.c **** 
3880:HANcoder_E407_TTA_CombineModel.c ****     /* configure the digital input */
3881:HANcoder_E407_TTA_CombineModel.c ****     DiginConfigure(DIGIN_PORTA_PIN0, DIGIN_CFG_PULLDOWN);
 8645              		.loc 1 3881 5 is_stmt 0 view .LVU3172
 8646 0134 0221     		movs	r1, #2
 8647 0136 4720     		movs	r0, #71
3875:HANcoder_E407_TTA_CombineModel.c **** 
 8648              		.loc 1 3875 32 view .LVU3173
 8649 0138 84F8DC70 		strb	r7, [r4, #220]
 8650              		.loc 1 3881 5 is_stmt 1 view .LVU3174
 8651 013c FFF7FEFF 		bl	DiginConfigure
 8652              	.LVL555:
3882:HANcoder_E407_TTA_CombineModel.c **** 
3883:HANcoder_E407_TTA_CombineModel.c ****     /* End of Start for SubSystem: '<S1>/Triggered Subsystem' */
3884:HANcoder_E407_TTA_CombineModel.c **** 
3885:HANcoder_E407_TTA_CombineModel.c ****     /* Start for M-S-Function: '<S2>/Level-2 M-file S-Function' */
3886:HANcoder_E407_TTA_CombineModel.c **** 
3887:HANcoder_E407_TTA_CombineModel.c ****     /* configure the stack size for the task that executes the model */
3888:HANcoder_E407_TTA_CombineModel.c ****     AppCtrlTaskSetStackSize((configMINIMAL_STACK_SIZE*sizeof(portBASE_TYPE)) +
 8653              		.loc 1 3888 5 view .LVU3175
 8654 0140 4FF41970 		mov	r0, #612
 8655 0144 FFF7FEFF 		bl	AppCtrlTaskSetStackSize
 8656              	.LVL556:
3889:HANcoder_E407_TTA_CombineModel.c ****       100);
3890:HANcoder_E407_TTA_CombineModel.c **** 
3891:HANcoder_E407_TTA_CombineModel.c ****     /* configure the sample time of the model in microseconds */
3892:HANcoder_E407_TTA_CombineModel.c ****     AppCtrlTaskSetPeriod(1000);
 8657              		.loc 1 3892 5 view .LVU3176
 8658 0148 4FF47A70 		mov	r0, #1000
 8659 014c FFF7FEFF 		bl	AppCtrlTaskSetPeriod
 8660              	.LVL557:
3893:HANcoder_E407_TTA_CombineModel.c **** 
3894:HANcoder_E407_TTA_CombineModel.c ****     /* Run the ADC conversions ten times faster than the Simulink model */
3895:HANcoder_E407_TTA_CombineModel.c ****     ADCconversionTaskSetPeriod(1000/10);
 8661              		.loc 1 3895 5 view .LVU3177
 8662 0150 6420     		movs	r0, #100
 8663 0152 FFF7FEFF 		bl	ADCconversionTaskSetPeriod
 8664              	.LVL558:
3896:HANcoder_E407_TTA_CombineModel.c **** 
3897:HANcoder_E407_TTA_CombineModel.c ****     /* Start for M-S-Function: '<S3>/Level-2 M-file S-Function' */
3898:HANcoder_E407_TTA_CombineModel.c **** 
3899:HANcoder_E407_TTA_CombineModel.c ****     /* store the CAN controller's filter configuration */
3900:HANcoder_E407_TTA_CombineModel.c ****     canFilter1.mask = 0x00000000;
 8665              		.loc 1 3900 5 view .LVU3178
3901:HANcoder_E407_TTA_CombineModel.c ****     canFilter1.code = 0x00000000;
3902:HANcoder_E407_TTA_CombineModel.c ****     canFilter1.mode = CAN_FILTER_MODE_STDID_ONLY;
3903:HANcoder_E407_TTA_CombineModel.c **** 
3904:HANcoder_E407_TTA_CombineModel.c ****     /* connect and synchronize the CAN bus */
3905:HANcoder_E407_TTA_CombineModel.c ****     canResult1 = CanConnect(0, 1000000, &canFilter1);
 8666              		.loc 1 3905 18 is_stmt 0 view .LVU3179
 8667 0156 2549     		ldr	r1, .L475+4
3902:HANcoder_E407_TTA_CombineModel.c **** 
 8668              		.loc 1 3902 21 view .LVU3180
 8669 0158 8DF80C50 		strb	r5, [sp, #12]
 8670              		.loc 1 3905 18 view .LVU3181
 8671 015c 01AA     		add	r2, sp, #4
 8672 015e 2846     		mov	r0, r5
3901:HANcoder_E407_TTA_CombineModel.c ****     canFilter1.code = 0x00000000;
 8673              		.loc 1 3901 21 view .LVU3182
 8674 0160 CDE90155 		strd	r5, r5, [sp, #4]
3902:HANcoder_E407_TTA_CombineModel.c **** 
 8675              		.loc 1 3902 5 is_stmt 1 view .LVU3183
 8676              		.loc 1 3905 5 view .LVU3184
 8677              		.loc 1 3905 18 is_stmt 0 view .LVU3185
 8678 0164 FFF7FEFF 		bl	CanConnect
 8679              	.LVL559:
3906:HANcoder_E407_TTA_CombineModel.c ****     configASSERT(canResult1 == TRUE);
 8680              		.loc 1 3906 5 is_stmt 1 view .LVU3186
 8681 0168 0128     		cmp	r0, #1
 8682 016a 04D0     		beq	.L468
 8683              		.loc 1 3906 5 discriminator 2 view .LVU3187
 8684 016c 2A48     		ldr	r0, .L475+48
 8685              	.LVL560:
 8686              		.loc 1 3906 5 is_stmt 0 discriminator 2 view .LVU3188
 8687 016e 40F64271 		movw	r1, #3906
 8688 0172 FFF7FEFF 		bl	AssertFailure
 8689              	.LVL561:
 8690              	.L468:
3907:HANcoder_E407_TTA_CombineModel.c **** 
3908:HANcoder_E407_TTA_CombineModel.c ****     /* Start for S-Function (sfcn_timeout_init): '<S11>/S-Function' */
3909:HANcoder_E407_TTA_CombineModel.c **** 
3910:HANcoder_E407_TTA_CombineModel.c ****     /* register the free running counter overflow callback handler */
3911:HANcoder_E407_TTA_CombineModel.c ****     TimeoutRegisterOverflowCallback(TIMEOUT_MODULE_TIM4,
 8691              		.loc 1 3911 5 is_stmt 1 view .LVU3189
 8692 0176 2949     		ldr	r1, .L475+52
 8693 0178 0320     		movs	r0, #3
 8694 017a FFF7FEFF 		bl	TimeoutRegisterOverflowCallback
 8695              	.LVL562:
3912:HANcoder_E407_TTA_CombineModel.c ****       TimeoutOverflowIRQ_TIMEOUT_MODULE_TIM4);
3913:HANcoder_E407_TTA_CombineModel.c **** 
3914:HANcoder_E407_TTA_CombineModel.c ****     /* Start for M-S-Function: '<S18>/Level-2 M-file S-Function' */
3915:HANcoder_E407_TTA_CombineModel.c **** 
3916:HANcoder_E407_TTA_CombineModel.c ****     /* initialize the measurement and calibration interface */
3917:HANcoder_E407_TTA_CombineModel.c ****     MacUsbComInit();
 8696              		.loc 1 3917 5 view .LVU3190
 8697 017e FFF7FEFF 		bl	MacUsbComInit
 8698              	.LVL563:
3918:HANcoder_E407_TTA_CombineModel.c ****     MacInit();
 8699              		.loc 1 3918 5 view .LVU3191
 8700 0182 FFF7FEFF 		bl	MacInit
 8701              	.LVL564:
 8702              	.LBE861:
3919:HANcoder_E407_TTA_CombineModel.c ****   }
3920:HANcoder_E407_TTA_CombineModel.c **** 
3921:HANcoder_E407_TTA_CombineModel.c ****   rtPrevZCSigState.EnabledSubsystem_Trig_ZCE = POS_ZCSIG;
 8703              		.loc 1 3921 3 view .LVU3192
3922:HANcoder_E407_TTA_CombineModel.c ****   rtPrevZCSigState.Controlexecution_Trig_ZCE = POS_ZCSIG;
 8704              		.loc 1 3922 3 view .LVU3193
3923:HANcoder_E407_TTA_CombineModel.c ****   rtPrevZCSigState.IOexecution_Trig_ZCE = POS_ZCSIG;
 8705              		.loc 1 3923 3 view .LVU3194
3924:HANcoder_E407_TTA_CombineModel.c ****   rtPrevZCSigState.MMBS1_TX_Trig_ZCE = POS_ZCSIG;
 8706              		.loc 1 3924 3 view .LVU3195
3925:HANcoder_E407_TTA_CombineModel.c ****   rtPrevZCSigState.SSTM1_TX_Trig_ZCE = POS_ZCSIG;
 8707              		.loc 1 3925 3 view .LVU3196
3926:HANcoder_E407_TTA_CombineModel.c ****   rtPrevZCSigState.Subsystem_Trig_ZCE_h = UNINITIALIZED_ZCSIG;
 8708              		.loc 1 3926 3 view .LVU3197
3927:HANcoder_E407_TTA_CombineModel.c ****   rtPrevZCSigState.SYNC1_TX_Trig_ZCE = POS_ZCSIG;
 8709              		.loc 1 3927 3 view .LVU3198
3928:HANcoder_E407_TTA_CombineModel.c ****   rtPrevZCSigState.TRCK1_ID2_TX_Trig_ZCE = POS_ZCSIG;
 8710              		.loc 1 3928 3 view .LVU3199
3929:HANcoder_E407_TTA_CombineModel.c ****   rtPrevZCSigState.TRCK1_ID3_TX_Trig_ZCE = POS_ZCSIG;
 8711              		.loc 1 3929 3 view .LVU3200
3930:HANcoder_E407_TTA_CombineModel.c ****   rtPrevZCSigState.TRCK1_TX_Trig_ZCE = POS_ZCSIG;
 8712              		.loc 1 3930 3 view .LVU3201
3931:HANcoder_E407_TTA_CombineModel.c ****   rtPrevZCSigState.TRLS_ID4_TX_Trig_ZCE = POS_ZCSIG;
 8713              		.loc 1 3931 3 view .LVU3202
3932:HANcoder_E407_TTA_CombineModel.c ****   rtPrevZCSigState.TRLS_ID5_TX_Trig_ZCE = POS_ZCSIG;
 8714              		.loc 1 3932 3 view .LVU3203
3933:HANcoder_E407_TTA_CombineModel.c ****   rtPrevZCSigState.Subsystem_Trig_ZCE = POS_ZCSIG;
 8715              		.loc 1 3933 3 view .LVU3204
3934:HANcoder_E407_TTA_CombineModel.c ****   rtPrevZCSigState.Subsystem1_Trig_ZCE = UNINITIALIZED_ZCSIG;
 8716              		.loc 1 3934 3 view .LVU3205
 8717              		.loc 1 3934 40 is_stmt 0 view .LVU3206
 8718 0186 264B     		ldr	r3, .L475+56
3930:HANcoder_E407_TTA_CombineModel.c ****   rtPrevZCSigState.TRLS_ID4_TX_Trig_ZCE = POS_ZCSIG;
 8719              		.loc 1 3930 38 view .LVU3207
 8720 0188 264A     		ldr	r2, .L475+60
3935:HANcoder_E407_TTA_CombineModel.c **** 
3936:HANcoder_E407_TTA_CombineModel.c ****   /* ConstCode for Triggered SubSystem: '<S1>/IO execution' */
3937:HANcoder_E407_TTA_CombineModel.c ****   /* ConstCode for Constant: '<S78>/Constant' */
3938:HANcoder_E407_TTA_CombineModel.c ****   ioInit = true;
 8721              		.loc 1 3938 10 view .LVU3208
 8722 018a 2749     		ldr	r1, .L475+64
3926:HANcoder_E407_TTA_CombineModel.c ****   rtPrevZCSigState.SYNC1_TX_Trig_ZCE = POS_ZCSIG;
 8723              		.loc 1 3926 41 view .LVU3209
 8724 018c 9A60     		str	r2, [r3, #8]
3930:HANcoder_E407_TTA_CombineModel.c ****   rtPrevZCSigState.TRLS_ID4_TX_Trig_ZCE = POS_ZCSIG;
 8725              		.loc 1 3930 38 view .LVU3210
 8726 018e 4FF00130 		mov	r0, #16843009
 8727 0192 C3E90020 		strd	r2, r0, [r3]
3922:HANcoder_E407_TTA_CombineModel.c ****   rtPrevZCSigState.IOexecution_Trig_ZCE = POS_ZCSIG;
 8728              		.loc 1 3922 46 view .LVU3211
 8729 0196 40F20110 		movw	r0, #257
 8730 019a 9881     		strh	r0, [r3, #12]	@ movhi
 8731              		.loc 1 3938 3 is_stmt 1 view .LVU3212
 8732              	.LBB862:
 8733              	.LBB863:
 321:HANcoder_E407_TTA_CombineModel.c ****   if (obj->isInitialized == 1) {
 8734              		.loc 1 321 7 is_stmt 0 view .LVU3213
 8735 019c D4F8A851 		ldr	r5, [r4, #424]
 8736              	.LBE863:
 8737              	.LBE862:
 8738              		.loc 1 3938 10 view .LVU3214
 8739 01a0 0123     		movs	r3, #1
 8740 01a2 0B70     		strb	r3, [r1]
3939:HANcoder_E407_TTA_CombineModel.c **** 
3940:HANcoder_E407_TTA_CombineModel.c ****   /* End of ConstCode for SubSystem: '<S1>/IO execution' */
3941:HANcoder_E407_TTA_CombineModel.c **** 
3942:HANcoder_E407_TTA_CombineModel.c ****   /* SystemInitialize for Triggered SubSystem: '<S1>/IO execution' */
3943:HANcoder_E407_TTA_CombineModel.c ****   MovingAverage_Init(&rtDWork.MovingAverage_p);
 8741              		.loc 1 3943 3 is_stmt 1 view .LVU3215
 8742              	.LVL565:
 8743              	.LBB865:
 8744              	.LBI862:
 315:HANcoder_E407_TTA_CombineModel.c **** {
 8745              		.loc 1 315 6 view .LVU3216
 8746              	.LBB864:
 317:HANcoder_E407_TTA_CombineModel.c ****   int32_T i;
 8747              		.loc 1 317 3 view .LVU3217
 318:HANcoder_E407_TTA_CombineModel.c **** 
 8748              		.loc 1 318 3 view .LVU3218
 321:HANcoder_E407_TTA_CombineModel.c ****   if (obj->isInitialized == 1) {
 8749              		.loc 1 321 3 view .LVU3219
 322:HANcoder_E407_TTA_CombineModel.c ****     obj->pCumSum = 0.0F;
 8750              		.loc 1 322 3 view .LVU3220
 322:HANcoder_E407_TTA_CombineModel.c ****     obj->pCumSum = 0.0F;
 8751              		.loc 1 322 6 is_stmt 0 view .LVU3221
 8752 01a4 2B68     		ldr	r3, [r5]
 8753 01a6 012B     		cmp	r3, #1
 8754 01a8 0BD1     		bne	.L469
 323:HANcoder_E407_TTA_CombineModel.c ****     for (i = 0; i < 9; i++) {
 8755              		.loc 1 323 5 is_stmt 1 view .LVU3222
 323:HANcoder_E407_TTA_CombineModel.c ****     for (i = 0; i < 9; i++) {
 8756              		.loc 1 323 18 is_stmt 0 view .LVU3223
 8757 01aa 0026     		movs	r6, #0
 325:HANcoder_E407_TTA_CombineModel.c ****     }
 8758              		.loc 1 325 26 view .LVU3224
 8759 01ac 2422     		movs	r2, #36
 323:HANcoder_E407_TTA_CombineModel.c ****     for (i = 0; i < 9; i++) {
 8760              		.loc 1 323 18 view .LVU3225
 8761 01ae AE60     		str	r6, [r5, #8]	@ float
 324:HANcoder_E407_TTA_CombineModel.c ****       obj->pCumSumRev[i] = 0.0F;
 8762              		.loc 1 324 5 is_stmt 1 view .LVU3226
 8763              	.LVL566:
 324:HANcoder_E407_TTA_CombineModel.c ****       obj->pCumSumRev[i] = 0.0F;
 8764              		.loc 1 324 17 view .LVU3227
 325:HANcoder_E407_TTA_CombineModel.c ****     }
 8765              		.loc 1 325 26 is_stmt 0 view .LVU3228
 8766 01b0 0021     		movs	r1, #0
 8767 01b2 05F10C00 		add	r0, r5, #12
 8768 01b6 FFF7FEFF 		bl	memset
 8769              	.LVL567:
 328:HANcoder_E407_TTA_CombineModel.c ****     obj->pModValueRev = 0.0F;
 8770              		.loc 1 328 5 is_stmt 1 view .LVU3229
 328:HANcoder_E407_TTA_CombineModel.c ****     obj->pModValueRev = 0.0F;
 8771              		.loc 1 328 23 is_stmt 0 view .LVU3230
 8772 01ba 4FF07E53 		mov	r3, #1065353216
 8773 01be 2B63     		str	r3, [r5, #48]	@ float
 329:HANcoder_E407_TTA_CombineModel.c ****   }
 8774              		.loc 1 329 5 is_stmt 1 view .LVU3231
 329:HANcoder_E407_TTA_CombineModel.c ****   }
 8775              		.loc 1 329 23 is_stmt 0 view .LVU3232
 8776 01c0 6E63     		str	r6, [r5, #52]	@ float
 8777              	.L469:
 8778              	.LVL568:
 329:HANcoder_E407_TTA_CombineModel.c ****   }
 8779              		.loc 1 329 23 view .LVU3233
 8780              	.LBE864:
 8781              	.LBE865:
3944:HANcoder_E407_TTA_CombineModel.c ****   MovingAverage_Init(&rtDWork.MovingAverage1);
 8782              		.loc 1 3944 3 is_stmt 1 view .LVU3234
 8783              	.LBB866:
 8784              	.LBI866:
 315:HANcoder_E407_TTA_CombineModel.c **** {
 8785              		.loc 1 315 6 view .LVU3235
 8786              	.LBB867:
 317:HANcoder_E407_TTA_CombineModel.c ****   int32_T i;
 8787              		.loc 1 317 3 view .LVU3236
 318:HANcoder_E407_TTA_CombineModel.c **** 
 8788              		.loc 1 318 3 view .LVU3237
 321:HANcoder_E407_TTA_CombineModel.c ****   if (obj->isInitialized == 1) {
 8789              		.loc 1 321 3 view .LVU3238
 321:HANcoder_E407_TTA_CombineModel.c ****   if (obj->isInitialized == 1) {
 8790              		.loc 1 321 7 is_stmt 0 view .LVU3239
 8791 01c2 D4F83441 		ldr	r4, [r4, #308]
 8792              	.LVL569:
 322:HANcoder_E407_TTA_CombineModel.c ****     obj->pCumSum = 0.0F;
 8793              		.loc 1 322 3 is_stmt 1 view .LVU3240
 322:HANcoder_E407_TTA_CombineModel.c ****     obj->pCumSum = 0.0F;
 8794              		.loc 1 322 6 is_stmt 0 view .LVU3241
 8795 01c6 2368     		ldr	r3, [r4]
 8796 01c8 012B     		cmp	r3, #1
 8797 01ca 0BD1     		bne	.L467
 323:HANcoder_E407_TTA_CombineModel.c ****     for (i = 0; i < 9; i++) {
 8798              		.loc 1 323 5 is_stmt 1 view .LVU3242
 323:HANcoder_E407_TTA_CombineModel.c ****     for (i = 0; i < 9; i++) {
 8799              		.loc 1 323 18 is_stmt 0 view .LVU3243
 8800 01cc 0025     		movs	r5, #0
 325:HANcoder_E407_TTA_CombineModel.c ****     }
 8801              		.loc 1 325 26 view .LVU3244
 8802 01ce 2422     		movs	r2, #36
 323:HANcoder_E407_TTA_CombineModel.c ****     for (i = 0; i < 9; i++) {
 8803              		.loc 1 323 18 view .LVU3245
 8804 01d0 A560     		str	r5, [r4, #8]	@ float
 324:HANcoder_E407_TTA_CombineModel.c ****       obj->pCumSumRev[i] = 0.0F;
 8805              		.loc 1 324 5 is_stmt 1 view .LVU3246
 8806              	.LVL570:
 324:HANcoder_E407_TTA_CombineModel.c ****       obj->pCumSumRev[i] = 0.0F;
 8807              		.loc 1 324 17 view .LVU3247
 325:HANcoder_E407_TTA_CombineModel.c ****     }
 8808              		.loc 1 325 26 is_stmt 0 view .LVU3248
 8809 01d2 0021     		movs	r1, #0
 8810 01d4 04F10C00 		add	r0, r4, #12
 8811 01d8 FFF7FEFF 		bl	memset
 8812              	.LVL571:
 328:HANcoder_E407_TTA_CombineModel.c ****     obj->pModValueRev = 0.0F;
 8813              		.loc 1 328 5 is_stmt 1 view .LVU3249
 328:HANcoder_E407_TTA_CombineModel.c ****     obj->pModValueRev = 0.0F;
 8814              		.loc 1 328 23 is_stmt 0 view .LVU3250
 8815 01dc 4FF07E53 		mov	r3, #1065353216
 8816 01e0 2363     		str	r3, [r4, #48]	@ float
 329:HANcoder_E407_TTA_CombineModel.c ****   }
 8817              		.loc 1 329 5 is_stmt 1 view .LVU3251
 329:HANcoder_E407_TTA_CombineModel.c ****   }
 8818              		.loc 1 329 23 is_stmt 0 view .LVU3252
 8819 01e2 6563     		str	r5, [r4, #52]	@ float
 8820              	.LVL572:
 8821              	.L467:
 329:HANcoder_E407_TTA_CombineModel.c ****   }
 8822              		.loc 1 329 23 view .LVU3253
 8823              	.LBE867:
 8824              	.LBE866:
3945:HANcoder_E407_TTA_CombineModel.c **** 
3946:HANcoder_E407_TTA_CombineModel.c ****   /* End of SystemInitialize for SubSystem: '<S1>/IO execution' */
3947:HANcoder_E407_TTA_CombineModel.c **** }
 8825              		.loc 1 3947 1 view .LVU3254
 8826 01e4 05B0     		add	sp, sp, #20
 8827              		.cfi_def_cfa_offset 20
 8828              		@ sp needed
 8829 01e6 F0BD     		pop	{r4, r5, r6, r7, pc}
 8830              	.L476:
 8831              		.align	2
 8832              	.L475:
 8833 01e8 00000000 		.word	.LANCHOR2
 8834 01ec 40420F00 		.word	1000000
 8835 01f0 00000000 		.word	TimeoutEventIRQ_TIMEOUT_TIM4_PIN_PD12
 8836 01f4 00000000 		.word	PwmoutIRQ_PWMOUT_MODULE_TIM14
 8837 01f8 00000000 		.word	.LANCHOR45
 8838 01fc 00000000 		.word	.LANCHOR39
 8839 0200 00000000 		.word	.LANCHOR42
 8840 0204 00000000 		.word	.LANCHOR50
 8841 0208 00000000 		.word	.LANCHOR56
 8842 020c 00000000 		.word	.LANCHOR51
 8843 0210 00000000 		.word	.LANCHOR62
 8844 0214 00000000 		.word	.LANCHOR65
 8845 0218 00000000 		.word	.LC1
 8846 021c 00000000 		.word	TimeoutOverflowIRQ_TIMEOUT_MODULE_TIM4
 8847 0220 00000000 		.word	.LANCHOR5
 8848 0224 03010101 		.word	16843011
 8849 0228 00000000 		.word	.LANCHOR36
 8850              		.cfi_endproc
 8851              	.LFE138:
 8853              		.global	rtPrevZCSigState
 8854              		.global	rtDWork
 8855              		.global	rtB
 8856              		.global	slotTime
 8857              		.global	maxMissedMessages
 8858              		.global	TRLS1_ID5
 8859              		.global	TRLS1_ID4
 8860              		.global	TRCK1_ID3
 8861              		.global	TRCK1_ID2
 8862              		.global	TRCK1_ID1
 8863              		.global	SYNC1_ID
 8864              		.global	SSTM1_ID
 8865              		.global	MMBS1_ID
 8866              		.global	propVal
 8867              		.global	matrixRows
 8868              		.global	intVal
 8869              		.global	controlWidth
 8870              		.global	ResetPosition
 8871              		.global	ClockOn
 8872              		.global	canActive
 8873              		.global	ccw
 8874              		.global	cw
 8875              		.global	ioInit
 8876              		.global	motorFaultDetected
 8877              		.global	mf5
 8878              		.global	mf4
 8879              		.global	mf3
 8880              		.global	mf2
 8881              		.global	mf1
 8882              		.global	masterCanFail
 8883              		.global	potFaultDetected
 8884              		.global	boolCan
 8885              		.global	slotSelected
 8886              		.global	setSlotTime
 8887              		.global	local_ticks_interrupt
 8888              		.global	positionID4
 8889              		.global	positionID5
 8890              		.global	amounttrailers
 8891              		.global	missedMasterMessages
 8892              		.global	buttonpress1
 8893              		.global	buttonpress2
 8894              		.global	SI_CPUload
 8895              		.global	errors
 8896              		.global	mospeed
 8897              		.global	Gamma2
 8898              		.global	t1Angle
 8899              		.global	t2Angle
 8900              		.global	pot2
 8901              		.global	analogPot2
 8902              		.global	pot1
 8903              		.global	analogPot1
 8904              		.global	lastPot
 8905              		.global	potRaw
 8906              		.global	testCounter
 8907              		.global	pot22
 8908              		.global	pot21
 8909              		.global	pot12
 8910              		.global	pot11
 8911              		.global	pot32
 8912              		.global	pot31
 8913              		.global	motorPos
 8914              		.global	delta12K
 8915              		.global	reqAngle
 8916              		.global	SI_FreeStack
 8917              		.global	SI_FreeHeap
 8918              		.global	control
 8919              		.global	position
 8920              		.global	steering
 8921              		.global	Gamma1
 8922              		.section	.bss.Gamma1,"aw",%nobits
 8923              		.align	3
 8924              		.set	.LANCHOR13,. + 0
 8927              	Gamma1:
 8928 0000 00000000 		.space	8
 8928      00000000 
 8929              		.section	.bss.Gamma2,"aw",%nobits
 8930              		.align	1
 8931              		.set	.LANCHOR12,. + 0
 8934              	Gamma2:
 8935 0000 0000     		.space	2
 8936              		.section	.bss.SI_CPUload,"aw",%nobits
 8937              		.set	.LANCHOR80,. + 0
 8940              	SI_CPUload:
 8941 0000 00       		.space	1
 8942              		.section	.bss.SI_FreeHeap,"aw",%nobits
 8943              		.align	2
 8944              		.set	.LANCHOR81,. + 0
 8947              	SI_FreeHeap:
 8948 0000 00000000 		.space	4
 8949              		.section	.bss.SI_FreeStack,"aw",%nobits
 8950              		.align	2
 8951              		.set	.LANCHOR82,. + 0
 8954              	SI_FreeStack:
 8955 0000 00000000 		.space	4
 8956              		.section	.bss.amounttrailers,"aw",%nobits
 8957              		.set	.LANCHOR67,. + 0
 8960              	amounttrailers:
 8961 0000 00       		.space	1
 8962              		.section	.bss.analogPot1,"aw",%nobits
 8963              		.align	1
 8964              		.set	.LANCHOR32,. + 0
 8967              	analogPot1:
 8968 0000 0000     		.space	2
 8969              		.section	.bss.analogPot2,"aw",%nobits
 8970              		.align	1
 8971              		.set	.LANCHOR34,. + 0
 8974              	analogPot2:
 8975 0000 0000     		.space	2
 8976              		.section	.bss.boolCan,"aw",%nobits
 8977              		.set	.LANCHOR46,. + 0
 8980              	boolCan:
 8981 0000 00       		.space	1
 8982              		.section	.bss.buttonpress1,"aw",%nobits
 8983              		.set	.LANCHOR61,. + 0
 8986              	buttonpress1:
 8987 0000 00       		.space	1
 8988              		.section	.bss.buttonpress2,"aw",%nobits
 8989              		.set	.LANCHOR64,. + 0
 8992              	buttonpress2:
 8993 0000 00       		.space	1
 8994              		.section	.bss.canActive,"aw",%nobits
 8995              		.set	.LANCHOR1,. + 0
 8998              	canActive:
 8999 0000 00       		.space	1
 9000              		.section	.bss.canRxData_0_MMBS1_ID,"aw",%nobits
 9001              		.align	2
 9002              		.set	.LANCHOR38,. + 0
 9005              	canRxData_0_MMBS1_ID:
 9006 0000 00000000 		.space	8
 9006      00000000 
 9007              		.section	.bss.canRxData_0_SSTM1_ID,"aw",%nobits
 9008              		.align	2
 9009              		.set	.LANCHOR41,. + 0
 9012              	canRxData_0_SSTM1_ID:
 9013 0000 00000000 		.space	8
 9013      00000000 
 9014              		.section	.bss.canRxData_0_SYNC1_ID,"aw",%nobits
 9015              		.align	2
 9016              		.set	.LANCHOR43,. + 0
 9019              	canRxData_0_SYNC1_ID:
 9020 0000 00000000 		.space	8
 9020      00000000 
 9021              		.section	.bss.canRxData_0_TRCK1_ID1,"aw",%nobits
 9022              		.align	2
 9023              		.set	.LANCHOR52,. + 0
 9026              	canRxData_0_TRCK1_ID1:
 9027 0000 00000000 		.space	8
 9027      00000000 
 9028              		.section	.bss.canRxData_0_TRCK1_ID2,"aw",%nobits
 9029              		.align	2
 9030              		.set	.LANCHOR47,. + 0
 9033              	canRxData_0_TRCK1_ID2:
 9034 0000 00000000 		.space	8
 9034      00000000 
 9035              		.section	.bss.canRxData_0_TRCK1_ID3,"aw",%nobits
 9036              		.align	2
 9037              		.set	.LANCHOR57,. + 0
 9040              	canRxData_0_TRCK1_ID3:
 9041 0000 00000000 		.space	8
 9041      00000000 
 9042              		.section	.bss.canRxData_0_TRLS1_ID4,"aw",%nobits
 9043              		.align	2
 9044              		.set	.LANCHOR60,. + 0
 9047              	canRxData_0_TRLS1_ID4:
 9048 0000 00000000 		.space	8
 9048      00000000 
 9049              		.section	.bss.canRxData_0_TRLS1_ID5,"aw",%nobits
 9050              		.align	2
 9051              		.set	.LANCHOR63,. + 0
 9054              	canRxData_0_TRLS1_ID5:
 9055 0000 00000000 		.space	8
 9055      00000000 
 9056              		.section	.bss.canTxData,"aw",%nobits
 9057              		.align	2
 9058              		.set	.LANCHOR40,. + 0
 9061              	canTxData:
 9062 0000 00000000 		.space	8
 9062      00000000 
 9063              		.section	.bss.ccw,"aw",%nobits
 9064              		.set	.LANCHOR22,. + 0
 9067              	ccw:
 9068 0000 00       		.space	1
 9069              		.section	.bss.control,"aw",%nobits
 9070              		.align	3
 9071              		.set	.LANCHOR17,. + 0
 9074              	control:
 9075 0000 00000000 		.space	8
 9075      00000000 
 9076              		.section	.bss.cw,"aw",%nobits
 9077              		.set	.LANCHOR21,. + 0
 9080              	cw:
 9081 0000 00       		.space	1
 9082              		.section	.bss.delta12K,"aw",%nobits
 9083              		.align	2
 9084              		.set	.LANCHOR14,. + 0
 9087              	delta12K:
 9088 0000 00000000 		.space	4
 9089              		.section	.bss.errCodesErrorBuf,"aw",%nobits
 9090              		.align	2
 9091              		.set	.LANCHOR74,. + 0
 9094              	errCodesErrorBuf:
 9095 0000 00000000 		.space	64
 9095      00000000 
 9095      00000000 
 9095      00000000 
 9095      00000000 
 9096              		.section	.bss.errCodesHighestSeverity,"aw",%nobits
 9097              		.set	.LANCHOR72,. + 0
 9100              	errCodesHighestSeverity:
 9101 0000 00       		.space	1
 9102              		.section	.bss.errCodesTotalErrors,"aw",%nobits
 9103              		.set	.LANCHOR71,. + 0
 9106              	errCodesTotalErrors:
 9107 0000 00       		.space	1
 9108              		.section	.bss.errCodesX,"aw",%nobits
 9109              		.set	.LANCHOR73,. + 0
 9112              	errCodesX:
 9113 0000 00       		.space	1
 9114              		.section	.bss.errCodesY,"aw",%nobits
 9115              		.set	.LANCHOR75,. + 0
 9118              	errCodesY:
 9119 0000 00       		.space	1
 9120              		.section	.bss.errors,"aw",%nobits
 9121              		.set	.LANCHOR79,. + 0
 9124              	errors:
 9125 0000 00       		.space	1
 9126              		.section	.bss.ioInit,"aw",%nobits
 9127              		.set	.LANCHOR36,. + 0
 9130              	ioInit:
 9131 0000 00       		.space	1
 9132              		.section	.bss.lastPot,"aw",%nobits
 9133              		.align	1
 9134              		.set	.LANCHOR31,. + 0
 9137              	lastPot:
 9138 0000 0000     		.space	2
 9139              		.section	.bss.local_ticks_interrupt,"aw",%nobits
 9140              		.set	.LANCHOR3,. + 0
 9143              	local_ticks_interrupt:
 9144 0000 00       		.space	1
 9145              		.section	.bss.masterCanFail,"aw",%nobits
 9146              		.set	.LANCHOR78,. + 0
 9149              	masterCanFail:
 9150 0000 00       		.space	1
 9151              		.section	.bss.mf1,"aw",%nobits
 9152              		.set	.LANCHOR24,. + 0
 9155              	mf1:
 9156 0000 00       		.space	1
 9157              		.section	.bss.mf2,"aw",%nobits
 9158              		.set	.LANCHOR25,. + 0
 9161              	mf2:
 9162 0000 00       		.space	1
 9163              		.section	.bss.mf3,"aw",%nobits
 9164              		.set	.LANCHOR26,. + 0
 9167              	mf3:
 9168 0000 00       		.space	1
 9169              		.section	.bss.mf4,"aw",%nobits
 9170              		.set	.LANCHOR27,. + 0
 9173              	mf4:
 9174 0000 00       		.space	1
 9175              		.section	.bss.mf5,"aw",%nobits
 9176              		.set	.LANCHOR28,. + 0
 9179              	mf5:
 9180 0000 00       		.space	1
 9181              		.section	.bss.missedMasterMessages,"aw",%nobits
 9182              		.set	.LANCHOR76,. + 0
 9185              	missedMasterMessages:
 9186 0000 00       		.space	1
 9187              		.section	.bss.mospeed,"aw",%nobits
 9188              		.align	1
 9189              		.set	.LANCHOR19,. + 0
 9192              	mospeed:
 9193 0000 0000     		.space	2
 9194              		.section	.bss.motorFaultDetected,"aw",%nobits
 9195              		.set	.LANCHOR29,. + 0
 9198              	motorFaultDetected:
 9199 0000 00       		.space	1
 9200              		.section	.bss.motorPos,"aw",%nobits
 9201              		.align	2
 9202              		.set	.LANCHOR37,. + 0
 9205              	motorPos:
 9206 0000 00000000 		.space	4
 9207              		.section	.bss.position,"aw",%nobits
 9208              		.align	3
 9209              		.set	.LANCHOR16,. + 0
 9212              	position:
 9213 0000 00000000 		.space	8
 9213      00000000 
 9214              		.section	.bss.positionID4,"aw",%nobits
 9215              		.set	.LANCHOR70,. + 0
 9218              	positionID4:
 9219 0000 00       		.space	1
 9220              		.section	.bss.positionID5,"aw",%nobits
 9221              		.set	.LANCHOR69,. + 0
 9224              	positionID5:
 9225 0000 00       		.space	1
 9226              		.section	.bss.pot1,"aw",%nobits
 9227              		.align	1
 9228              		.set	.LANCHOR33,. + 0
 9231              	pot1:
 9232 0000 0000     		.space	2
 9233              		.section	.bss.pot11,"aw",%nobits
 9234              		.align	1
 9235              		.set	.LANCHOR53,. + 0
 9238              	pot11:
 9239 0000 0000     		.space	2
 9240              		.section	.bss.pot12,"aw",%nobits
 9241              		.align	1
 9242              		.set	.LANCHOR54,. + 0
 9245              	pot12:
 9246 0000 0000     		.space	2
 9247              		.section	.bss.pot2,"aw",%nobits
 9248              		.align	1
 9249              		.set	.LANCHOR35,. + 0
 9252              	pot2:
 9253 0000 0000     		.space	2
 9254              		.section	.bss.pot21,"aw",%nobits
 9255              		.align	1
 9256              		.set	.LANCHOR48,. + 0
 9259              	pot21:
 9260 0000 0000     		.space	2
 9261              		.section	.bss.pot22,"aw",%nobits
 9262              		.align	1
 9263              		.set	.LANCHOR49,. + 0
 9266              	pot22:
 9267 0000 0000     		.space	2
 9268              		.section	.bss.pot31,"aw",%nobits
 9269              		.align	1
 9270              		.set	.LANCHOR58,. + 0
 9273              	pot31:
 9274 0000 0000     		.space	2
 9275              		.section	.bss.pot32,"aw",%nobits
 9276              		.align	1
 9277              		.set	.LANCHOR59,. + 0
 9280              	pot32:
 9281 0000 0000     		.space	2
 9282              		.section	.bss.potFaultDetected,"aw",%nobits
 9283              		.set	.LANCHOR55,. + 0
 9286              	potFaultDetected:
 9287 0000 00       		.space	1
 9288              		.section	.bss.potRaw,"aw",%nobits
 9289              		.align	1
 9290              		.set	.LANCHOR30,. + 0
 9293              	potRaw:
 9294 0000 0000     		.space	2
 9295              		.section	.bss.reqAngle,"aw",%nobits
 9296              		.align	2
 9297              		.set	.LANCHOR9,. + 0
 9300              	reqAngle:
 9301 0000 00000000 		.space	4
 9302              		.section	.bss.rtB,"aw",%nobits
 9303              		.align	2
 9304              		.set	.LANCHOR0,. + 0
 9307              	rtB:
 9308 0000 00000000 		.space	224
 9308      00000000 
 9308      00000000 
 9308      00000000 
 9308      00000000 
 9309              		.section	.bss.rtDWork,"aw",%nobits
 9310              		.align	3
 9311              		.set	.LANCHOR2,. + 0
 9314              	rtDWork:
 9315 0000 00000000 		.space	496
 9315      00000000 
 9315      00000000 
 9315      00000000 
 9315      00000000 
 9316              		.section	.bss.rtPrevZCSigState,"aw",%nobits
 9317              		.align	2
 9318              		.set	.LANCHOR5,. + 0
 9321              	rtPrevZCSigState:
 9322 0000 00000000 		.space	14
 9322      00000000 
 9322      00000000 
 9322      0000
 9323              		.section	.bss.setSlotTime,"aw",%nobits
 9324              		.set	.LANCHOR4,. + 0
 9327              	setSlotTime:
 9328 0000 00       		.space	1
 9329              		.section	.bss.slotSelected,"aw",%nobits
 9330              		.set	.LANCHOR7,. + 0
 9333              	slotSelected:
 9334 0000 00       		.space	1
 9335              		.section	.bss.steering,"aw",%nobits
 9336              		.align	3
 9337              		.set	.LANCHOR15,. + 0
 9340              	steering:
 9341 0000 00000000 		.space	8
 9341      00000000 
 9342              		.section	.bss.t1Angle,"aw",%nobits
 9343              		.align	1
 9344              		.set	.LANCHOR11,. + 0
 9347              	t1Angle:
 9348 0000 0000     		.space	2
 9349              		.section	.bss.t2Angle,"aw",%nobits
 9350              		.align	1
 9351              		.set	.LANCHOR10,. + 0
 9354              	t2Angle:
 9355 0000 0000     		.space	2
 9356              		.section	.bss.testCounter,"aw",%nobits
 9357              		.align	1
 9358              		.set	.LANCHOR44,. + 0
 9361              	testCounter:
 9362 0000 0000     		.space	2
 9363              		.section	.data.ClockOn,"aw"
 9364              		.align	3
 9365              		.set	.LANCHOR8,. + 0
 9368              	ClockOn:
 9369 0000 00000000 		.space	8
 9369      00000000 
 9370              		.section	.data.MMBS1_ID,"aw"
 9371              		.align	2
 9372              		.set	.LANCHOR39,. + 0
 9375              	MMBS1_ID:
 9376 0000 0C000000 		.word	12
 9377              		.section	.data.ResetPosition,"aw"
 9378              		.align	3
 9379              		.set	.LANCHOR68,. + 0
 9382              	ResetPosition:
 9383 0000 00000000 		.space	8
 9383      00000000 
 9384              		.section	.data.SSTM1_ID,"aw"
 9385              		.align	2
 9386              		.set	.LANCHOR42,. + 0
 9389              	SSTM1_ID:
 9390 0000 0D000000 		.word	13
 9391              		.section	.data.SYNC1_ID,"aw"
 9392              		.align	2
 9393              		.set	.LANCHOR45,. + 0
 9396              	SYNC1_ID:
 9397 0000 0B000000 		.word	11
 9398              		.section	.data.TRCK1_ID1,"aw"
 9399              		.align	2
 9400              		.set	.LANCHOR56,. + 0
 9403              	TRCK1_ID1:
 9404 0000 0E000000 		.word	14
 9405              		.section	.data.TRCK1_ID2,"aw"
 9406              		.align	2
 9407              		.set	.LANCHOR50,. + 0
 9410              	TRCK1_ID2:
 9411 0000 1A000000 		.word	26
 9412              		.section	.data.TRCK1_ID3,"aw"
 9413              		.align	2
 9414              		.set	.LANCHOR51,. + 0
 9417              	TRCK1_ID3:
 9418 0000 25000000 		.word	37
 9419              		.section	.data.TRLS1_ID4,"aw"
 9420              		.align	2
 9421              		.set	.LANCHOR62,. + 0
 9424              	TRLS1_ID4:
 9425 0000 30000000 		.word	48
 9426              		.section	.data.TRLS1_ID5,"aw"
 9427              		.align	2
 9428              		.set	.LANCHOR65,. + 0
 9431              	TRLS1_ID5:
 9432 0000 3B000000 		.word	59
 9433              		.section	.data.controlWidth,"aw"
 9434              		.align	3
 9435              		.set	.LANCHOR20,. + 0
 9438              	controlWidth:
 9439 0000 00000000 		.word	0
 9440 0004 00002440 		.word	1076101120
 9441              		.section	.data.intVal,"aw"
 9442              		.align	3
 9443              		.set	.LANCHOR23,. + 0
 9446              	intVal:
 9447 0000 00000040 		.word	1073741824
 9448 0004 3333C33F 		.word	1069757235
 9449              		.section	.data.matrixRows,"aw"
 9450              		.align	3
 9451              		.set	.LANCHOR6,. + 0
 9454              	matrixRows:
 9455 0000 00000000 		.word	0
 9456 0004 00002440 		.word	1076101120
 9457              		.section	.data.maxMissedMessages,"aw"
 9458              		.set	.LANCHOR77,. + 0
 9461              	maxMissedMessages:
 9462 0000 0A       		.byte	10
 9463              		.section	.data.propVal,"aw"
 9464              		.align	3
 9465              		.set	.LANCHOR18,. + 0
 9468              	propVal:
 9469 0000 00000000 		.word	0
 9470 0004 0000F03F 		.word	1072693248
 9471              		.section	.data.slotTime,"aw"
 9472              		.set	.LANCHOR66,. + 0
 9475              	slotTime:
 9476 0000 0A       		.byte	10
 9477              		.text
 9478              	.Letext0:
 9479              		.file 2 "rtwtypes.h"
 9480              		.file 3 "c:\\program files (x86)\\gnu arm embedded toolchain\\10 2021.10\\arm-none-eabi\\include\\
 9481              		.file 4 "c:\\program files (x86)\\gnu arm embedded toolchain\\10 2021.10\\arm-none-eabi\\include\\
 9482              		.file 5 "../blockset/rtw/STM32/inc/STM32_E407/timeout.h"
 9483              		.file 6 "../blockset/rtw/STM32/inc/STM32_E407/digin.h"
 9484              		.file 7 "../blockset/rtw/STM32/inc/STM32_E407/quadencoder.h"
 9485              		.file 8 "../blockset/rtw/STM32/inc/STM32_E407/digout.h"
 9486              		.file 9 "../blockset/rtw/STM32/inc/STM32_E407/pwmout.h"
 9487              		.file 10 "../blockset/rtw/STM32/inc/STM32_E407/can.h"
 9488              		.file 11 "../blockset/rtw/STM32/inc/STM32_E407/errorcodes.h"
 9489              		.file 12 "c:\\program files (x86)\\gnu arm embedded toolchain\\10 2021.10\\lib\\gcc\\arm-none-eabi
 9490              		.file 13 "HANcoder_E407_TTA_CombineModel_types.h"
 9491              		.file 14 "zero_crossing_types.h"
 9492              		.file 15 "HANcoder_E407_TTA_CombineModel.h"
 9493              		.file 16 "../blockset/rtw/STM32/inc/STM32_E407/canio.h"
 9494              		.file 17 "../blockset/rtw/STM32/inc/STM32_E407/anin.h"
 9495              		.file 18 "../blockset/rtw/STM32/inc/app.h"
 9496              		.file 19 "../blockset/rtw/STM32/inc/STM32_E407/FreeRTOSConfig.h"
 9497              		.file 20 "../blockset/rtw/STM32/inc/STM32_E407/mac.h"
 9498              		.file 21 "<built-in>"
 9499              		.file 22 "c:\\program files (x86)\\gnu arm embedded toolchain\\10 2021.10\\arm-none-eabi\\include\
 9500              		.file 23 "../blockset/rtw/STM32/inc/os.h"
 9501              		.file 24 "rt_i32zcfcn.h"
DEFINED SYMBOLS
                            *ABS*:00000000 HANcoder_E407_TTA_CombineModel.c
C:\Users\ADMIN~1.CVA\AppData\Local\Temp\ccap5Yoc.s:19     .text.PwmoutIRQ_PWMOUT_MODULE_TIM14:00000000 $t
C:\Users\ADMIN~1.CVA\AppData\Local\Temp\ccap5Yoc.s:26     .text.PwmoutIRQ_PWMOUT_MODULE_TIM14:00000000 PwmoutIRQ_PWMOUT_MODULE_TIM14
C:\Users\ADMIN~1.CVA\AppData\Local\Temp\ccap5Yoc.s:41     .text.TimeoutEventIRQ_TIMEOUT_TIM4_PIN_PD12:00000000 $t
C:\Users\ADMIN~1.CVA\AppData\Local\Temp\ccap5Yoc.s:48     .text.TimeoutEventIRQ_TIMEOUT_TIM4_PIN_PD12:00000000 TimeoutEventIRQ_TIMEOUT_TIM4_PIN_PD12
C:\Users\ADMIN~1.CVA\AppData\Local\Temp\ccap5Yoc.s:195    .text.TimeoutEventIRQ_TIMEOUT_TIM4_PIN_PD12:00000090 $d
C:\Users\ADMIN~1.CVA\AppData\Local\Temp\ccap5Yoc.s:208    .text.TimeoutOverflowIRQ_TIMEOUT_MODULE_TIM4:00000000 $t
C:\Users\ADMIN~1.CVA\AppData\Local\Temp\ccap5Yoc.s:215    .text.TimeoutOverflowIRQ_TIMEOUT_MODULE_TIM4:00000000 TimeoutOverflowIRQ_TIMEOUT_MODULE_TIM4
C:\Users\ADMIN~1.CVA\AppData\Local\Temp\ccap5Yoc.s:226    .text.ByteSwap_x:00000000 $t
C:\Users\ADMIN~1.CVA\AppData\Local\Temp\ccap5Yoc.s:233    .text.ByteSwap_x:00000000 ByteSwap_x
C:\Users\ADMIN~1.CVA\AppData\Local\Temp\ccap5Yoc.s:311    .text.MovingAverage_Init:00000000 $t
C:\Users\ADMIN~1.CVA\AppData\Local\Temp\ccap5Yoc.s:318    .text.MovingAverage_Init:00000000 MovingAverage_Init
C:\Users\ADMIN~1.CVA\AppData\Local\Temp\ccap5Yoc.s:378    .text.MovingAverage_Start:00000000 $t
C:\Users\ADMIN~1.CVA\AppData\Local\Temp\ccap5Yoc.s:385    .text.MovingAverage_Start:00000000 MovingAverage_Start
C:\Users\ADMIN~1.CVA\AppData\Local\Temp\ccap5Yoc.s:450    .text.MovingAverage:00000000 $t
C:\Users\ADMIN~1.CVA\AppData\Local\Temp\ccap5Yoc.s:457    .text.MovingAverage:00000000 MovingAverage
C:\Users\ADMIN~1.CVA\AppData\Local\Temp\ccap5Yoc.s:790    .text.MovingAverage:000001b8 $d
C:\Users\ADMIN~1.CVA\AppData\Local\Temp\ccap5Yoc.s:795    .text.EnabledSubsystem:00000000 $t
C:\Users\ADMIN~1.CVA\AppData\Local\Temp\ccap5Yoc.s:802    .text.EnabledSubsystem:00000000 EnabledSubsystem
C:\Users\ADMIN~1.CVA\AppData\Local\Temp\ccap5Yoc.s:854    .text.BitShift:00000000 $t
C:\Users\ADMIN~1.CVA\AppData\Local\Temp\ccap5Yoc.s:861    .text.BitShift:00000000 BitShift
C:\Users\ADMIN~1.CVA\AppData\Local\Temp\ccap5Yoc.s:881    .text.BitShift_g:00000000 $t
C:\Users\ADMIN~1.CVA\AppData\Local\Temp\ccap5Yoc.s:888    .text.BitShift_g:00000000 BitShift_g
C:\Users\ADMIN~1.CVA\AppData\Local\Temp\ccap5Yoc.s:908    .text.BitShift1:00000000 $t
C:\Users\ADMIN~1.CVA\AppData\Local\Temp\ccap5Yoc.s:915    .text.BitShift1:00000000 BitShift1
C:\Users\ADMIN~1.CVA\AppData\Local\Temp\ccap5Yoc.s:935    .text.BitShift2:00000000 $t
C:\Users\ADMIN~1.CVA\AppData\Local\Temp\ccap5Yoc.s:942    .text.BitShift2:00000000 BitShift2
C:\Users\ADMIN~1.CVA\AppData\Local\Temp\ccap5Yoc.s:962    .text.BitShift3:00000000 $t
C:\Users\ADMIN~1.CVA\AppData\Local\Temp\ccap5Yoc.s:969    .text.BitShift3:00000000 BitShift3
C:\Users\ADMIN~1.CVA\AppData\Local\Temp\ccap5Yoc.s:989    .text.BitShift4:00000000 $t
C:\Users\ADMIN~1.CVA\AppData\Local\Temp\ccap5Yoc.s:996    .text.BitShift4:00000000 BitShift4
C:\Users\ADMIN~1.CVA\AppData\Local\Temp\ccap5Yoc.s:1016   .text.BitShift5:00000000 $t
C:\Users\ADMIN~1.CVA\AppData\Local\Temp\ccap5Yoc.s:1023   .text.BitShift5:00000000 BitShift5
C:\Users\ADMIN~1.CVA\AppData\Local\Temp\ccap5Yoc.s:1043   .text.BitShift6:00000000 $t
C:\Users\ADMIN~1.CVA\AppData\Local\Temp\ccap5Yoc.s:1050   .text.BitShift6:00000000 BitShift6
C:\Users\ADMIN~1.CVA\AppData\Local\Temp\ccap5Yoc.s:1070   .text.BitShift_gy:00000000 $t
C:\Users\ADMIN~1.CVA\AppData\Local\Temp\ccap5Yoc.s:1077   .text.BitShift_gy:00000000 BitShift_gy
C:\Users\ADMIN~1.CVA\AppData\Local\Temp\ccap5Yoc.s:1097   .text.BitShift1_b:00000000 $t
C:\Users\ADMIN~1.CVA\AppData\Local\Temp\ccap5Yoc.s:1104   .text.BitShift1_b:00000000 BitShift1_b
C:\Users\ADMIN~1.CVA\AppData\Local\Temp\ccap5Yoc.s:1124   .text.BitShift2_p:00000000 $t
C:\Users\ADMIN~1.CVA\AppData\Local\Temp\ccap5Yoc.s:1131   .text.BitShift2_p:00000000 BitShift2_p
C:\Users\ADMIN~1.CVA\AppData\Local\Temp\ccap5Yoc.s:1151   .text.BitShift3_l:00000000 $t
C:\Users\ADMIN~1.CVA\AppData\Local\Temp\ccap5Yoc.s:1158   .text.BitShift3_l:00000000 BitShift3_l
C:\Users\ADMIN~1.CVA\AppData\Local\Temp\ccap5Yoc.s:1178   .text.BitShift4_g:00000000 $t
C:\Users\ADMIN~1.CVA\AppData\Local\Temp\ccap5Yoc.s:1185   .text.BitShift4_g:00000000 BitShift4_g
C:\Users\ADMIN~1.CVA\AppData\Local\Temp\ccap5Yoc.s:1205   .text.BitShift5_n:00000000 $t
C:\Users\ADMIN~1.CVA\AppData\Local\Temp\ccap5Yoc.s:1212   .text.BitShift5_n:00000000 BitShift5_n
C:\Users\ADMIN~1.CVA\AppData\Local\Temp\ccap5Yoc.s:1232   .text.BitShift6_d:00000000 $t
C:\Users\ADMIN~1.CVA\AppData\Local\Temp\ccap5Yoc.s:1239   .text.BitShift6_d:00000000 BitShift6_d
C:\Users\ADMIN~1.CVA\AppData\Local\Temp\ccap5Yoc.s:1259   .text.BitShift_o:00000000 $t
C:\Users\ADMIN~1.CVA\AppData\Local\Temp\ccap5Yoc.s:1266   .text.BitShift_o:00000000 BitShift_o
C:\Users\ADMIN~1.CVA\AppData\Local\Temp\ccap5Yoc.s:1299   .rodata.HANcoder_E407_TTA_CombineModel_step.str1.4:00000000 $d
C:\Users\ADMIN~1.CVA\AppData\Local\Temp\ccap5Yoc.s:1303   .text.HANcoder_E407_TTA_CombineModel_step:00000000 $t
C:\Users\ADMIN~1.CVA\AppData\Local\Temp\ccap5Yoc.s:1310   .text.HANcoder_E407_TTA_CombineModel_step:00000000 HANcoder_E407_TTA_CombineModel_step
C:\Users\ADMIN~1.CVA\AppData\Local\Temp\ccap5Yoc.s:2226   .text.HANcoder_E407_TTA_CombineModel_step:0000032c $d
C:\Users\ADMIN~1.CVA\AppData\Local\Temp\ccap5Yoc.s:2242   .text.HANcoder_E407_TTA_CombineModel_step:00000358 $t
C:\Users\ADMIN~1.CVA\AppData\Local\Temp\ccap5Yoc.s:2768   .text.HANcoder_E407_TTA_CombineModel_step:00000528 $d
C:\Users\ADMIN~1.CVA\AppData\Local\Temp\ccap5Yoc.s:2782   .text.HANcoder_E407_TTA_CombineModel_step:00000550 $t
C:\Users\ADMIN~1.CVA\AppData\Local\Temp\ccap5Yoc.s:3337   .text.HANcoder_E407_TTA_CombineModel_step:000008b8 $d
C:\Users\ADMIN~1.CVA\AppData\Local\Temp\ccap5Yoc.s:3368   .text.HANcoder_E407_TTA_CombineModel_step:00000924 $t
C:\Users\ADMIN~1.CVA\AppData\Local\Temp\ccap5Yoc.s:3983   .text.HANcoder_E407_TTA_CombineModel_step:00000c70 $d
C:\Users\ADMIN~1.CVA\AppData\Local\Temp\ccap5Yoc.s:4016   .text.HANcoder_E407_TTA_CombineModel_step:00000cec $t
C:\Users\ADMIN~1.CVA\AppData\Local\Temp\ccap5Yoc.s:4761   .text.HANcoder_E407_TTA_CombineModel_step:00001070 $d
C:\Users\ADMIN~1.CVA\AppData\Local\Temp\ccap5Yoc.s:4784   .text.HANcoder_E407_TTA_CombineModel_step:000010c0 $t
C:\Users\ADMIN~1.CVA\AppData\Local\Temp\ccap5Yoc.s:5946   .text.HANcoder_E407_TTA_CombineModel_step:00001400 $d
C:\Users\ADMIN~1.CVA\AppData\Local\Temp\ccap5Yoc.s:5958   .text.HANcoder_E407_TTA_CombineModel_step:0000141c $t
C:\Users\ADMIN~1.CVA\AppData\Local\Temp\ccap5Yoc.s:7175   .text.HANcoder_E407_TTA_CombineModel_step:000016f0 $d
C:\Users\ADMIN~1.CVA\AppData\Local\Temp\ccap5Yoc.s:7197   .text.HANcoder_E407_TTA_CombineModel_step:00001734 $t
C:\Users\ADMIN~1.CVA\AppData\Local\Temp\ccap5Yoc.s:8084   .text.HANcoder_E407_TTA_CombineModel_step:00001a40 $d
C:\Users\ADMIN~1.CVA\AppData\Local\Temp\ccap5Yoc.s:8108   .text.HANcoder_E407_TTA_CombineModel_step:00001a94 $t
C:\Users\ADMIN~1.CVA\AppData\Local\Temp\ccap5Yoc.s:8317   .rodata.HANcoder_E407_TTA_CombineModel_initialize.str1.4:00000000 $d
C:\Users\ADMIN~1.CVA\AppData\Local\Temp\ccap5Yoc.s:8321   .text.HANcoder_E407_TTA_CombineModel_initialize:00000000 $t
C:\Users\ADMIN~1.CVA\AppData\Local\Temp\ccap5Yoc.s:8328   .text.HANcoder_E407_TTA_CombineModel_initialize:00000000 HANcoder_E407_TTA_CombineModel_initialize
C:\Users\ADMIN~1.CVA\AppData\Local\Temp\ccap5Yoc.s:8833   .text.HANcoder_E407_TTA_CombineModel_initialize:000001e8 $d
C:\Users\ADMIN~1.CVA\AppData\Local\Temp\ccap5Yoc.s:9321   .bss.rtPrevZCSigState:00000000 rtPrevZCSigState
C:\Users\ADMIN~1.CVA\AppData\Local\Temp\ccap5Yoc.s:9314   .bss.rtDWork:00000000 rtDWork
C:\Users\ADMIN~1.CVA\AppData\Local\Temp\ccap5Yoc.s:9307   .bss.rtB:00000000 rtB
C:\Users\ADMIN~1.CVA\AppData\Local\Temp\ccap5Yoc.s:9475   .data.slotTime:00000000 slotTime
C:\Users\ADMIN~1.CVA\AppData\Local\Temp\ccap5Yoc.s:9461   .data.maxMissedMessages:00000000 maxMissedMessages
C:\Users\ADMIN~1.CVA\AppData\Local\Temp\ccap5Yoc.s:9431   .data.TRLS1_ID5:00000000 TRLS1_ID5
C:\Users\ADMIN~1.CVA\AppData\Local\Temp\ccap5Yoc.s:9424   .data.TRLS1_ID4:00000000 TRLS1_ID4
C:\Users\ADMIN~1.CVA\AppData\Local\Temp\ccap5Yoc.s:9417   .data.TRCK1_ID3:00000000 TRCK1_ID3
C:\Users\ADMIN~1.CVA\AppData\Local\Temp\ccap5Yoc.s:9410   .data.TRCK1_ID2:00000000 TRCK1_ID2
C:\Users\ADMIN~1.CVA\AppData\Local\Temp\ccap5Yoc.s:9403   .data.TRCK1_ID1:00000000 TRCK1_ID1
C:\Users\ADMIN~1.CVA\AppData\Local\Temp\ccap5Yoc.s:9396   .data.SYNC1_ID:00000000 SYNC1_ID
C:\Users\ADMIN~1.CVA\AppData\Local\Temp\ccap5Yoc.s:9389   .data.SSTM1_ID:00000000 SSTM1_ID
C:\Users\ADMIN~1.CVA\AppData\Local\Temp\ccap5Yoc.s:9375   .data.MMBS1_ID:00000000 MMBS1_ID
C:\Users\ADMIN~1.CVA\AppData\Local\Temp\ccap5Yoc.s:9468   .data.propVal:00000000 propVal
C:\Users\ADMIN~1.CVA\AppData\Local\Temp\ccap5Yoc.s:9454   .data.matrixRows:00000000 matrixRows
C:\Users\ADMIN~1.CVA\AppData\Local\Temp\ccap5Yoc.s:9446   .data.intVal:00000000 intVal
C:\Users\ADMIN~1.CVA\AppData\Local\Temp\ccap5Yoc.s:9438   .data.controlWidth:00000000 controlWidth
C:\Users\ADMIN~1.CVA\AppData\Local\Temp\ccap5Yoc.s:9382   .data.ResetPosition:00000000 ResetPosition
C:\Users\ADMIN~1.CVA\AppData\Local\Temp\ccap5Yoc.s:9368   .data.ClockOn:00000000 ClockOn
C:\Users\ADMIN~1.CVA\AppData\Local\Temp\ccap5Yoc.s:8998   .bss.canActive:00000000 canActive
C:\Users\ADMIN~1.CVA\AppData\Local\Temp\ccap5Yoc.s:9067   .bss.ccw:00000000 ccw
C:\Users\ADMIN~1.CVA\AppData\Local\Temp\ccap5Yoc.s:9080   .bss.cw:00000000 cw
C:\Users\ADMIN~1.CVA\AppData\Local\Temp\ccap5Yoc.s:9130   .bss.ioInit:00000000 ioInit
C:\Users\ADMIN~1.CVA\AppData\Local\Temp\ccap5Yoc.s:9198   .bss.motorFaultDetected:00000000 motorFaultDetected
C:\Users\ADMIN~1.CVA\AppData\Local\Temp\ccap5Yoc.s:9179   .bss.mf5:00000000 mf5
C:\Users\ADMIN~1.CVA\AppData\Local\Temp\ccap5Yoc.s:9173   .bss.mf4:00000000 mf4
C:\Users\ADMIN~1.CVA\AppData\Local\Temp\ccap5Yoc.s:9167   .bss.mf3:00000000 mf3
C:\Users\ADMIN~1.CVA\AppData\Local\Temp\ccap5Yoc.s:9161   .bss.mf2:00000000 mf2
C:\Users\ADMIN~1.CVA\AppData\Local\Temp\ccap5Yoc.s:9155   .bss.mf1:00000000 mf1
C:\Users\ADMIN~1.CVA\AppData\Local\Temp\ccap5Yoc.s:9149   .bss.masterCanFail:00000000 masterCanFail
C:\Users\ADMIN~1.CVA\AppData\Local\Temp\ccap5Yoc.s:9286   .bss.potFaultDetected:00000000 potFaultDetected
C:\Users\ADMIN~1.CVA\AppData\Local\Temp\ccap5Yoc.s:8980   .bss.boolCan:00000000 boolCan
C:\Users\ADMIN~1.CVA\AppData\Local\Temp\ccap5Yoc.s:9333   .bss.slotSelected:00000000 slotSelected
C:\Users\ADMIN~1.CVA\AppData\Local\Temp\ccap5Yoc.s:9327   .bss.setSlotTime:00000000 setSlotTime
C:\Users\ADMIN~1.CVA\AppData\Local\Temp\ccap5Yoc.s:9143   .bss.local_ticks_interrupt:00000000 local_ticks_interrupt
C:\Users\ADMIN~1.CVA\AppData\Local\Temp\ccap5Yoc.s:9218   .bss.positionID4:00000000 positionID4
C:\Users\ADMIN~1.CVA\AppData\Local\Temp\ccap5Yoc.s:9224   .bss.positionID5:00000000 positionID5
C:\Users\ADMIN~1.CVA\AppData\Local\Temp\ccap5Yoc.s:8960   .bss.amounttrailers:00000000 amounttrailers
C:\Users\ADMIN~1.CVA\AppData\Local\Temp\ccap5Yoc.s:9185   .bss.missedMasterMessages:00000000 missedMasterMessages
C:\Users\ADMIN~1.CVA\AppData\Local\Temp\ccap5Yoc.s:8986   .bss.buttonpress1:00000000 buttonpress1
C:\Users\ADMIN~1.CVA\AppData\Local\Temp\ccap5Yoc.s:8992   .bss.buttonpress2:00000000 buttonpress2
C:\Users\ADMIN~1.CVA\AppData\Local\Temp\ccap5Yoc.s:8940   .bss.SI_CPUload:00000000 SI_CPUload
C:\Users\ADMIN~1.CVA\AppData\Local\Temp\ccap5Yoc.s:9124   .bss.errors:00000000 errors
C:\Users\ADMIN~1.CVA\AppData\Local\Temp\ccap5Yoc.s:9192   .bss.mospeed:00000000 mospeed
C:\Users\ADMIN~1.CVA\AppData\Local\Temp\ccap5Yoc.s:8934   .bss.Gamma2:00000000 Gamma2
C:\Users\ADMIN~1.CVA\AppData\Local\Temp\ccap5Yoc.s:9347   .bss.t1Angle:00000000 t1Angle
C:\Users\ADMIN~1.CVA\AppData\Local\Temp\ccap5Yoc.s:9354   .bss.t2Angle:00000000 t2Angle
C:\Users\ADMIN~1.CVA\AppData\Local\Temp\ccap5Yoc.s:9252   .bss.pot2:00000000 pot2
C:\Users\ADMIN~1.CVA\AppData\Local\Temp\ccap5Yoc.s:8974   .bss.analogPot2:00000000 analogPot2
C:\Users\ADMIN~1.CVA\AppData\Local\Temp\ccap5Yoc.s:9231   .bss.pot1:00000000 pot1
C:\Users\ADMIN~1.CVA\AppData\Local\Temp\ccap5Yoc.s:8967   .bss.analogPot1:00000000 analogPot1
C:\Users\ADMIN~1.CVA\AppData\Local\Temp\ccap5Yoc.s:9137   .bss.lastPot:00000000 lastPot
C:\Users\ADMIN~1.CVA\AppData\Local\Temp\ccap5Yoc.s:9293   .bss.potRaw:00000000 potRaw
C:\Users\ADMIN~1.CVA\AppData\Local\Temp\ccap5Yoc.s:9361   .bss.testCounter:00000000 testCounter
C:\Users\ADMIN~1.CVA\AppData\Local\Temp\ccap5Yoc.s:9266   .bss.pot22:00000000 pot22
C:\Users\ADMIN~1.CVA\AppData\Local\Temp\ccap5Yoc.s:9259   .bss.pot21:00000000 pot21
C:\Users\ADMIN~1.CVA\AppData\Local\Temp\ccap5Yoc.s:9245   .bss.pot12:00000000 pot12
C:\Users\ADMIN~1.CVA\AppData\Local\Temp\ccap5Yoc.s:9238   .bss.pot11:00000000 pot11
C:\Users\ADMIN~1.CVA\AppData\Local\Temp\ccap5Yoc.s:9280   .bss.pot32:00000000 pot32
C:\Users\ADMIN~1.CVA\AppData\Local\Temp\ccap5Yoc.s:9273   .bss.pot31:00000000 pot31
C:\Users\ADMIN~1.CVA\AppData\Local\Temp\ccap5Yoc.s:9205   .bss.motorPos:00000000 motorPos
C:\Users\ADMIN~1.CVA\AppData\Local\Temp\ccap5Yoc.s:9087   .bss.delta12K:00000000 delta12K
C:\Users\ADMIN~1.CVA\AppData\Local\Temp\ccap5Yoc.s:9300   .bss.reqAngle:00000000 reqAngle
C:\Users\ADMIN~1.CVA\AppData\Local\Temp\ccap5Yoc.s:8954   .bss.SI_FreeStack:00000000 SI_FreeStack
C:\Users\ADMIN~1.CVA\AppData\Local\Temp\ccap5Yoc.s:8947   .bss.SI_FreeHeap:00000000 SI_FreeHeap
C:\Users\ADMIN~1.CVA\AppData\Local\Temp\ccap5Yoc.s:9074   .bss.control:00000000 control
C:\Users\ADMIN~1.CVA\AppData\Local\Temp\ccap5Yoc.s:9212   .bss.position:00000000 position
C:\Users\ADMIN~1.CVA\AppData\Local\Temp\ccap5Yoc.s:9340   .bss.steering:00000000 steering
C:\Users\ADMIN~1.CVA\AppData\Local\Temp\ccap5Yoc.s:8927   .bss.Gamma1:00000000 Gamma1
C:\Users\ADMIN~1.CVA\AppData\Local\Temp\ccap5Yoc.s:8923   .bss.Gamma1:00000000 $d
C:\Users\ADMIN~1.CVA\AppData\Local\Temp\ccap5Yoc.s:8930   .bss.Gamma2:00000000 $d
C:\Users\ADMIN~1.CVA\AppData\Local\Temp\ccap5Yoc.s:8941   .bss.SI_CPUload:00000000 $d
C:\Users\ADMIN~1.CVA\AppData\Local\Temp\ccap5Yoc.s:8943   .bss.SI_FreeHeap:00000000 $d
C:\Users\ADMIN~1.CVA\AppData\Local\Temp\ccap5Yoc.s:8950   .bss.SI_FreeStack:00000000 $d
C:\Users\ADMIN~1.CVA\AppData\Local\Temp\ccap5Yoc.s:8961   .bss.amounttrailers:00000000 $d
C:\Users\ADMIN~1.CVA\AppData\Local\Temp\ccap5Yoc.s:8963   .bss.analogPot1:00000000 $d
C:\Users\ADMIN~1.CVA\AppData\Local\Temp\ccap5Yoc.s:8970   .bss.analogPot2:00000000 $d
C:\Users\ADMIN~1.CVA\AppData\Local\Temp\ccap5Yoc.s:8981   .bss.boolCan:00000000 $d
C:\Users\ADMIN~1.CVA\AppData\Local\Temp\ccap5Yoc.s:8987   .bss.buttonpress1:00000000 $d
C:\Users\ADMIN~1.CVA\AppData\Local\Temp\ccap5Yoc.s:8993   .bss.buttonpress2:00000000 $d
C:\Users\ADMIN~1.CVA\AppData\Local\Temp\ccap5Yoc.s:8999   .bss.canActive:00000000 $d
C:\Users\ADMIN~1.CVA\AppData\Local\Temp\ccap5Yoc.s:9001   .bss.canRxData_0_MMBS1_ID:00000000 $d
C:\Users\ADMIN~1.CVA\AppData\Local\Temp\ccap5Yoc.s:9005   .bss.canRxData_0_MMBS1_ID:00000000 canRxData_0_MMBS1_ID
C:\Users\ADMIN~1.CVA\AppData\Local\Temp\ccap5Yoc.s:9008   .bss.canRxData_0_SSTM1_ID:00000000 $d
C:\Users\ADMIN~1.CVA\AppData\Local\Temp\ccap5Yoc.s:9012   .bss.canRxData_0_SSTM1_ID:00000000 canRxData_0_SSTM1_ID
C:\Users\ADMIN~1.CVA\AppData\Local\Temp\ccap5Yoc.s:9015   .bss.canRxData_0_SYNC1_ID:00000000 $d
C:\Users\ADMIN~1.CVA\AppData\Local\Temp\ccap5Yoc.s:9019   .bss.canRxData_0_SYNC1_ID:00000000 canRxData_0_SYNC1_ID
C:\Users\ADMIN~1.CVA\AppData\Local\Temp\ccap5Yoc.s:9022   .bss.canRxData_0_TRCK1_ID1:00000000 $d
C:\Users\ADMIN~1.CVA\AppData\Local\Temp\ccap5Yoc.s:9026   .bss.canRxData_0_TRCK1_ID1:00000000 canRxData_0_TRCK1_ID1
C:\Users\ADMIN~1.CVA\AppData\Local\Temp\ccap5Yoc.s:9029   .bss.canRxData_0_TRCK1_ID2:00000000 $d
C:\Users\ADMIN~1.CVA\AppData\Local\Temp\ccap5Yoc.s:9033   .bss.canRxData_0_TRCK1_ID2:00000000 canRxData_0_TRCK1_ID2
C:\Users\ADMIN~1.CVA\AppData\Local\Temp\ccap5Yoc.s:9036   .bss.canRxData_0_TRCK1_ID3:00000000 $d
C:\Users\ADMIN~1.CVA\AppData\Local\Temp\ccap5Yoc.s:9040   .bss.canRxData_0_TRCK1_ID3:00000000 canRxData_0_TRCK1_ID3
C:\Users\ADMIN~1.CVA\AppData\Local\Temp\ccap5Yoc.s:9043   .bss.canRxData_0_TRLS1_ID4:00000000 $d
C:\Users\ADMIN~1.CVA\AppData\Local\Temp\ccap5Yoc.s:9047   .bss.canRxData_0_TRLS1_ID4:00000000 canRxData_0_TRLS1_ID4
C:\Users\ADMIN~1.CVA\AppData\Local\Temp\ccap5Yoc.s:9050   .bss.canRxData_0_TRLS1_ID5:00000000 $d
C:\Users\ADMIN~1.CVA\AppData\Local\Temp\ccap5Yoc.s:9054   .bss.canRxData_0_TRLS1_ID5:00000000 canRxData_0_TRLS1_ID5
C:\Users\ADMIN~1.CVA\AppData\Local\Temp\ccap5Yoc.s:9057   .bss.canTxData:00000000 $d
C:\Users\ADMIN~1.CVA\AppData\Local\Temp\ccap5Yoc.s:9061   .bss.canTxData:00000000 canTxData
C:\Users\ADMIN~1.CVA\AppData\Local\Temp\ccap5Yoc.s:9068   .bss.ccw:00000000 $d
C:\Users\ADMIN~1.CVA\AppData\Local\Temp\ccap5Yoc.s:9070   .bss.control:00000000 $d
C:\Users\ADMIN~1.CVA\AppData\Local\Temp\ccap5Yoc.s:9081   .bss.cw:00000000 $d
C:\Users\ADMIN~1.CVA\AppData\Local\Temp\ccap5Yoc.s:9083   .bss.delta12K:00000000 $d
C:\Users\ADMIN~1.CVA\AppData\Local\Temp\ccap5Yoc.s:9090   .bss.errCodesErrorBuf:00000000 $d
C:\Users\ADMIN~1.CVA\AppData\Local\Temp\ccap5Yoc.s:9094   .bss.errCodesErrorBuf:00000000 errCodesErrorBuf
C:\Users\ADMIN~1.CVA\AppData\Local\Temp\ccap5Yoc.s:9100   .bss.errCodesHighestSeverity:00000000 errCodesHighestSeverity
C:\Users\ADMIN~1.CVA\AppData\Local\Temp\ccap5Yoc.s:9101   .bss.errCodesHighestSeverity:00000000 $d
C:\Users\ADMIN~1.CVA\AppData\Local\Temp\ccap5Yoc.s:9106   .bss.errCodesTotalErrors:00000000 errCodesTotalErrors
C:\Users\ADMIN~1.CVA\AppData\Local\Temp\ccap5Yoc.s:9107   .bss.errCodesTotalErrors:00000000 $d
C:\Users\ADMIN~1.CVA\AppData\Local\Temp\ccap5Yoc.s:9112   .bss.errCodesX:00000000 errCodesX
C:\Users\ADMIN~1.CVA\AppData\Local\Temp\ccap5Yoc.s:9113   .bss.errCodesX:00000000 $d
C:\Users\ADMIN~1.CVA\AppData\Local\Temp\ccap5Yoc.s:9118   .bss.errCodesY:00000000 errCodesY
C:\Users\ADMIN~1.CVA\AppData\Local\Temp\ccap5Yoc.s:9119   .bss.errCodesY:00000000 $d
C:\Users\ADMIN~1.CVA\AppData\Local\Temp\ccap5Yoc.s:9125   .bss.errors:00000000 $d
C:\Users\ADMIN~1.CVA\AppData\Local\Temp\ccap5Yoc.s:9131   .bss.ioInit:00000000 $d
C:\Users\ADMIN~1.CVA\AppData\Local\Temp\ccap5Yoc.s:9133   .bss.lastPot:00000000 $d
C:\Users\ADMIN~1.CVA\AppData\Local\Temp\ccap5Yoc.s:9144   .bss.local_ticks_interrupt:00000000 $d
C:\Users\ADMIN~1.CVA\AppData\Local\Temp\ccap5Yoc.s:9150   .bss.masterCanFail:00000000 $d
C:\Users\ADMIN~1.CVA\AppData\Local\Temp\ccap5Yoc.s:9156   .bss.mf1:00000000 $d
C:\Users\ADMIN~1.CVA\AppData\Local\Temp\ccap5Yoc.s:9162   .bss.mf2:00000000 $d
C:\Users\ADMIN~1.CVA\AppData\Local\Temp\ccap5Yoc.s:9168   .bss.mf3:00000000 $d
C:\Users\ADMIN~1.CVA\AppData\Local\Temp\ccap5Yoc.s:9174   .bss.mf4:00000000 $d
C:\Users\ADMIN~1.CVA\AppData\Local\Temp\ccap5Yoc.s:9180   .bss.mf5:00000000 $d
C:\Users\ADMIN~1.CVA\AppData\Local\Temp\ccap5Yoc.s:9186   .bss.missedMasterMessages:00000000 $d
C:\Users\ADMIN~1.CVA\AppData\Local\Temp\ccap5Yoc.s:9188   .bss.mospeed:00000000 $d
C:\Users\ADMIN~1.CVA\AppData\Local\Temp\ccap5Yoc.s:9199   .bss.motorFaultDetected:00000000 $d
C:\Users\ADMIN~1.CVA\AppData\Local\Temp\ccap5Yoc.s:9201   .bss.motorPos:00000000 $d
C:\Users\ADMIN~1.CVA\AppData\Local\Temp\ccap5Yoc.s:9208   .bss.position:00000000 $d
C:\Users\ADMIN~1.CVA\AppData\Local\Temp\ccap5Yoc.s:9219   .bss.positionID4:00000000 $d
C:\Users\ADMIN~1.CVA\AppData\Local\Temp\ccap5Yoc.s:9225   .bss.positionID5:00000000 $d
C:\Users\ADMIN~1.CVA\AppData\Local\Temp\ccap5Yoc.s:9227   .bss.pot1:00000000 $d
C:\Users\ADMIN~1.CVA\AppData\Local\Temp\ccap5Yoc.s:9234   .bss.pot11:00000000 $d
C:\Users\ADMIN~1.CVA\AppData\Local\Temp\ccap5Yoc.s:9241   .bss.pot12:00000000 $d
C:\Users\ADMIN~1.CVA\AppData\Local\Temp\ccap5Yoc.s:9248   .bss.pot2:00000000 $d
C:\Users\ADMIN~1.CVA\AppData\Local\Temp\ccap5Yoc.s:9255   .bss.pot21:00000000 $d
C:\Users\ADMIN~1.CVA\AppData\Local\Temp\ccap5Yoc.s:9262   .bss.pot22:00000000 $d
C:\Users\ADMIN~1.CVA\AppData\Local\Temp\ccap5Yoc.s:9269   .bss.pot31:00000000 $d
C:\Users\ADMIN~1.CVA\AppData\Local\Temp\ccap5Yoc.s:9276   .bss.pot32:00000000 $d
C:\Users\ADMIN~1.CVA\AppData\Local\Temp\ccap5Yoc.s:9287   .bss.potFaultDetected:00000000 $d
C:\Users\ADMIN~1.CVA\AppData\Local\Temp\ccap5Yoc.s:9289   .bss.potRaw:00000000 $d
C:\Users\ADMIN~1.CVA\AppData\Local\Temp\ccap5Yoc.s:9296   .bss.reqAngle:00000000 $d
C:\Users\ADMIN~1.CVA\AppData\Local\Temp\ccap5Yoc.s:9303   .bss.rtB:00000000 $d
C:\Users\ADMIN~1.CVA\AppData\Local\Temp\ccap5Yoc.s:9310   .bss.rtDWork:00000000 $d
C:\Users\ADMIN~1.CVA\AppData\Local\Temp\ccap5Yoc.s:9317   .bss.rtPrevZCSigState:00000000 $d
C:\Users\ADMIN~1.CVA\AppData\Local\Temp\ccap5Yoc.s:9328   .bss.setSlotTime:00000000 $d
C:\Users\ADMIN~1.CVA\AppData\Local\Temp\ccap5Yoc.s:9334   .bss.slotSelected:00000000 $d
C:\Users\ADMIN~1.CVA\AppData\Local\Temp\ccap5Yoc.s:9336   .bss.steering:00000000 $d
C:\Users\ADMIN~1.CVA\AppData\Local\Temp\ccap5Yoc.s:9343   .bss.t1Angle:00000000 $d
C:\Users\ADMIN~1.CVA\AppData\Local\Temp\ccap5Yoc.s:9350   .bss.t2Angle:00000000 $d
C:\Users\ADMIN~1.CVA\AppData\Local\Temp\ccap5Yoc.s:9357   .bss.testCounter:00000000 $d
C:\Users\ADMIN~1.CVA\AppData\Local\Temp\ccap5Yoc.s:9364   .data.ClockOn:00000000 $d
C:\Users\ADMIN~1.CVA\AppData\Local\Temp\ccap5Yoc.s:9371   .data.MMBS1_ID:00000000 $d
C:\Users\ADMIN~1.CVA\AppData\Local\Temp\ccap5Yoc.s:9378   .data.ResetPosition:00000000 $d
C:\Users\ADMIN~1.CVA\AppData\Local\Temp\ccap5Yoc.s:9385   .data.SSTM1_ID:00000000 $d
C:\Users\ADMIN~1.CVA\AppData\Local\Temp\ccap5Yoc.s:9392   .data.SYNC1_ID:00000000 $d
C:\Users\ADMIN~1.CVA\AppData\Local\Temp\ccap5Yoc.s:9399   .data.TRCK1_ID1:00000000 $d
C:\Users\ADMIN~1.CVA\AppData\Local\Temp\ccap5Yoc.s:9406   .data.TRCK1_ID2:00000000 $d
C:\Users\ADMIN~1.CVA\AppData\Local\Temp\ccap5Yoc.s:9413   .data.TRCK1_ID3:00000000 $d
C:\Users\ADMIN~1.CVA\AppData\Local\Temp\ccap5Yoc.s:9420   .data.TRLS1_ID4:00000000 $d
C:\Users\ADMIN~1.CVA\AppData\Local\Temp\ccap5Yoc.s:9427   .data.TRLS1_ID5:00000000 $d
C:\Users\ADMIN~1.CVA\AppData\Local\Temp\ccap5Yoc.s:9434   .data.controlWidth:00000000 $d
C:\Users\ADMIN~1.CVA\AppData\Local\Temp\ccap5Yoc.s:9442   .data.intVal:00000000 $d
C:\Users\ADMIN~1.CVA\AppData\Local\Temp\ccap5Yoc.s:9450   .data.matrixRows:00000000 $d
C:\Users\ADMIN~1.CVA\AppData\Local\Temp\ccap5Yoc.s:9464   .data.propVal:00000000 $d

UNDEFINED SYMBOLS
__aeabi_d2uiz
TimeoutGetLastEventCounter
TimeoutScheduleCompareEvent
memset
__aeabi_dcmpeq
__aeabi_ui2d
__aeabi_dmul
__aeabi_dadd
__aeabi_dsub
__aeabi_dcmplt
__aeabi_dcmpgt
__aeabi_ddiv
__aeabi_d2f
__aeabi_f2d
__aeabi_i2d
__aeabi_dcmpge
__aeabi_dcmple
CanTransmit
rtConstB
memmove
ErrCodesGetActiveErrors
tan
sin
cos
atan
floor
AninGet
DiginGet
QuadEncGetCounter
DigoutSet
rtConstP
PwmoutSet
OsGetCpuLoad
OsGetFreeHeapSize
OsGetTaskFreeStackSize
CanIoGetMessage
rt_I32ZCFcn
QuadEncResetCounter
CanInit
CanIoInit
TimeoutInitModule
DiginConfigure
TimeoutRegisterCompareEventCallback
AninConfigure
QuadEncConfigure
DigoutConfigure
PwmoutInit
PwmoutRegisterPeriodCompleteCallback
PwmoutConfigure
CanIoCreateMessageReceivedStorage
AppCtrlTaskSetStackSize
AppCtrlTaskSetPeriod
ADCconversionTaskSetPeriod
CanConnect
AssertFailure
TimeoutRegisterOverflowCallback
MacUsbComInit
MacInit
