   1              		.cpu cortex-m4
   2              		.arch armv7e-m
   3              		.fpu fpv4-sp-d16
   4              		.eabi_attribute 27, 1
   5              		.eabi_attribute 20, 1
   6              		.eabi_attribute 21, 1
   7              		.eabi_attribute 23, 3
   8              		.eabi_attribute 24, 1
   9              		.eabi_attribute 25, 1
  10              		.eabi_attribute 26, 1
  11              		.eabi_attribute 30, 2
  12              		.eabi_attribute 34, 1
  13              		.eabi_attribute 18, 4
  14              		.file	"HANcoder_E407_TTA_CombineModel.c"
  15              		.text
  16              	.Ltext0:
  17              		.cfi_sections	.debug_frame
  18              		.section	.text.PwmoutIRQ_PWMOUT_MODULE_TIM14,"ax",%progbits
  19              		.align	1
  20              		.p2align 2,,3
  21              		.global	PwmoutIRQ_PWMOUT_MODULE_TIM14
  22              		.syntax unified
  23              		.thumb
  24              		.thumb_func
  26              	PwmoutIRQ_PWMOUT_MODULE_TIM14:
  27              	.LFB114:
  28              		.file 1 "HANcoder_E407_TTA_CombineModel.c"
   1:HANcoder_E407_TTA_CombineModel.c **** /*
   2:HANcoder_E407_TTA_CombineModel.c ****  * Academic License - for use in teaching, academic research, and meeting
   3:HANcoder_E407_TTA_CombineModel.c ****  * course requirements at degree granting institutions only.  Not for
   4:HANcoder_E407_TTA_CombineModel.c ****  * government, commercial, or other organizational use.
   5:HANcoder_E407_TTA_CombineModel.c ****  *
   6:HANcoder_E407_TTA_CombineModel.c ****  * File: HANcoder_E407_TTA_CombineModel.c
   7:HANcoder_E407_TTA_CombineModel.c ****  *
   8:HANcoder_E407_TTA_CombineModel.c ****  * Code generated for Simulink model 'HANcoder_E407_TTA_CombineModel'.
   9:HANcoder_E407_TTA_CombineModel.c ****  *
  10:HANcoder_E407_TTA_CombineModel.c ****  * Model version                  : 17.26
  11:HANcoder_E407_TTA_CombineModel.c ****  * Simulink Coder version         : 9.8 (R2022b) 13-May-2022
  12:HANcoder_E407_TTA_CombineModel.c ****  * C/C++ source code generated on : Sun Jun 11 21:49:47 2023
  13:HANcoder_E407_TTA_CombineModel.c ****  *
  14:HANcoder_E407_TTA_CombineModel.c ****  * Target selection: ert.tlc
  15:HANcoder_E407_TTA_CombineModel.c ****  * Embedded hardware selection: ARM Compatible->ARM Cortex
  16:HANcoder_E407_TTA_CombineModel.c ****  * Code generation objectives: Unspecified
  17:HANcoder_E407_TTA_CombineModel.c ****  * Validation result: Not run
  18:HANcoder_E407_TTA_CombineModel.c ****  */
  19:HANcoder_E407_TTA_CombineModel.c **** 
  20:HANcoder_E407_TTA_CombineModel.c **** #include "HANcoder_E407_TTA_CombineModel.h"
  21:HANcoder_E407_TTA_CombineModel.c **** #include "rtwtypes.h"
  22:HANcoder_E407_TTA_CombineModel.c **** #include "HANcoder_E407_TTA_CombineModel_types.h"
  23:HANcoder_E407_TTA_CombineModel.c **** #include "HANcoder_E407_TTA_CombineModel_private.h"
  24:HANcoder_E407_TTA_CombineModel.c **** #include <math.h>
  25:HANcoder_E407_TTA_CombineModel.c **** #include "zero_crossing_types.h"
  26:HANcoder_E407_TTA_CombineModel.c **** 
  27:HANcoder_E407_TTA_CombineModel.c **** /* map ByteSwap function */
  28:HANcoder_E407_TTA_CombineModel.c **** #define ByteSwap(x)                    (ByteSwap_x((uint8_t *) &x, sizeof(x)))
  29:HANcoder_E407_TTA_CombineModel.c **** 
  30:HANcoder_E407_TTA_CombineModel.c **** void PwmoutIRQ_PWMOUT_MODULE_TIM14(void);
  31:HANcoder_E407_TTA_CombineModel.c **** void TimeoutEventIRQ_TIMEOUT_TIM4_PIN_PD12(void);
  32:HANcoder_E407_TTA_CombineModel.c **** void TimeoutOverflowIRQ_TIMEOUT_MODULE_TIM4(void);
  33:HANcoder_E407_TTA_CombineModel.c **** 
  34:HANcoder_E407_TTA_CombineModel.c **** /* Exported block signals */
  35:HANcoder_E407_TTA_CombineModel.c **** real_T reqAngle;                       /* '<S5>/Data Store Read' */
  36:HANcoder_E407_TTA_CombineModel.c **** real_T Gamma1;                         /* '<S20>/Sum1' */
  37:HANcoder_E407_TTA_CombineModel.c **** real_T steering;                       /* '<S19>/Gain2' */
  38:HANcoder_E407_TTA_CombineModel.c **** real_T position;                       /* '<S19>/Gain1' */
  39:HANcoder_E407_TTA_CombineModel.c **** real_T control;                        /* '<S19>/Sum' */
  40:HANcoder_E407_TTA_CombineModel.c **** uint32_T SI_FreeHeap;                  /* '<S366>/Level-2 M-file S-Function' */
  41:HANcoder_E407_TTA_CombineModel.c **** uint32_T SI_FreeStack;                 /* '<S367>/Level-2 M-file S-Function' */
  42:HANcoder_E407_TTA_CombineModel.c **** real32_T delta12K;                     /* '<S75>/tan 1' */
  43:HANcoder_E407_TTA_CombineModel.c **** int32_T motorPos;                      /* '<S81>/Level-2 M-file S-Function' */
  44:HANcoder_E407_TTA_CombineModel.c **** uint16_T pot31;                        /* '<S242>/Add' */
  45:HANcoder_E407_TTA_CombineModel.c **** uint16_T pot32;                        /* '<S241>/Add' */
  46:HANcoder_E407_TTA_CombineModel.c **** uint16_T pot11;                        /* '<S195>/Add' */
  47:HANcoder_E407_TTA_CombineModel.c **** uint16_T pot12;                        /* '<S194>/Add' */
  48:HANcoder_E407_TTA_CombineModel.c **** uint16_T pot21;                        /* '<S126>/Add' */
  49:HANcoder_E407_TTA_CombineModel.c **** uint16_T pot22;                        /* '<S125>/Add' */
  50:HANcoder_E407_TTA_CombineModel.c **** uint16_T testCounter;                  /* '<S104>/Data Store Read1' */
  51:HANcoder_E407_TTA_CombineModel.c **** uint16_T analogPot1;                   /* '<S82>/Level-2 M-file S-Function' */
  52:HANcoder_E407_TTA_CombineModel.c **** uint16_T pot1;                         /* '<S78>/Cast1' */
  53:HANcoder_E407_TTA_CombineModel.c **** uint16_T analogPot2;                   /* '<S83>/Level-2 M-file S-Function' */
  54:HANcoder_E407_TTA_CombineModel.c **** uint16_T pot2;                         /* '<S78>/Cast2' */
  55:HANcoder_E407_TTA_CombineModel.c **** uint16_T t2Angle;                      /* '<S5>/Data Store Read2' */
  56:HANcoder_E407_TTA_CombineModel.c **** uint16_T t1Angle;                      /* '<S5>/Data Store Read1' */
  57:HANcoder_E407_TTA_CombineModel.c **** uint16_T Gamma2;                       /* '<S20>/Sum2' */
  58:HANcoder_E407_TTA_CombineModel.c **** uint16_T mospeed;                      /* '<S19>/Add' */
  59:HANcoder_E407_TTA_CombineModel.c **** uint8_T SI_CPUload;                    /* '<S365>/Level-2 M-file S-Function' */
  60:HANcoder_E407_TTA_CombineModel.c **** uint8_T local_ticks_interrupt;         /* '<S12>/Switch' */
  61:HANcoder_E407_TTA_CombineModel.c **** uint8_T setSlotTime;                   /* '<S12>/Data Store Read3' */
  62:HANcoder_E407_TTA_CombineModel.c **** uint8_T slotSelected;                  /* '<S96>/Switch' */
  63:HANcoder_E407_TTA_CombineModel.c **** boolean_T boolCan;                     /* '<S13>/AND' */
  64:HANcoder_E407_TTA_CombineModel.c **** boolean_T cw;                          /* '<S19>/Cast1' */
  65:HANcoder_E407_TTA_CombineModel.c **** boolean_T ccw;                         /* '<S19>/NOT' */
  66:HANcoder_E407_TTA_CombineModel.c **** boolean_T canActive;                   /* '<S12>/Clock_State' */
  67:HANcoder_E407_TTA_CombineModel.c **** 
  68:HANcoder_E407_TTA_CombineModel.c **** /* Exported block parameters */
  69:HANcoder_E407_TTA_CombineModel.c **** real_T ClockOn = 0.0;                  /* Variable: ClockOn
  70:HANcoder_E407_TTA_CombineModel.c ****                                         * Referenced by: '<S15>/Constant'
  71:HANcoder_E407_TTA_CombineModel.c ****                                         */
  72:HANcoder_E407_TTA_CombineModel.c **** real_T controlWidth = 3.0;             /* Variable: controlWidth
  73:HANcoder_E407_TTA_CombineModel.c ****                                         * Referenced by: '<S19>/Constant'
  74:HANcoder_E407_TTA_CombineModel.c ****                                         */
  75:HANcoder_E407_TTA_CombineModel.c **** real_T desiredAngle = 0.0;             /* Variable: desiredAngle
  76:HANcoder_E407_TTA_CombineModel.c ****                                         * Referenced by: '<S78>/Constant2'
  77:HANcoder_E407_TTA_CombineModel.c ****                                         */
  78:HANcoder_E407_TTA_CombineModel.c **** real_T intVal = 0.15;                  /* Variable: intVal
  79:HANcoder_E407_TTA_CombineModel.c ****                                         * Referenced by: '<S52>/Integral Gain'
  80:HANcoder_E407_TTA_CombineModel.c ****                                         */
  81:HANcoder_E407_TTA_CombineModel.c **** real_T matrixRows = 10.0;              /* Variable: matrixRows
  82:HANcoder_E407_TTA_CombineModel.c ****                                         * Referenced by: '<S96>/Constant1'
  83:HANcoder_E407_TTA_CombineModel.c ****                                         */
  84:HANcoder_E407_TTA_CombineModel.c **** real_T propVal = 1.0;                  /* Variable: propVal
  85:HANcoder_E407_TTA_CombineModel.c ****                                         * Referenced by: '<S60>/Proportional Gain'
  86:HANcoder_E407_TTA_CombineModel.c ****                                         */
  87:HANcoder_E407_TTA_CombineModel.c **** uint32_T MMBS1_ID = 12U;               /* Variable: MMBS1_ID
  88:HANcoder_E407_TTA_CombineModel.c ****                                         * Referenced by: '<S13>/Constant12'
  89:HANcoder_E407_TTA_CombineModel.c ****                                         */
  90:HANcoder_E407_TTA_CombineModel.c **** uint32_T SSTM1_ID = 13U;               /* Variable: SSTM1_ID
  91:HANcoder_E407_TTA_CombineModel.c ****                                         * Referenced by: '<S13>/Constant14'
  92:HANcoder_E407_TTA_CombineModel.c ****                                         */
  93:HANcoder_E407_TTA_CombineModel.c **** uint32_T SYNC1_ID = 11U;               /* Variable: SYNC1_ID
  94:HANcoder_E407_TTA_CombineModel.c ****                                         * Referenced by:
  95:HANcoder_E407_TTA_CombineModel.c ****                                         *   '<S13>/Constant10'
  96:HANcoder_E407_TTA_CombineModel.c ****                                         *   '<S361>/Constant10'
  97:HANcoder_E407_TTA_CombineModel.c ****                                         */
  98:HANcoder_E407_TTA_CombineModel.c **** uint32_T TRCK1_ID1 = 14U;              /* Variable: TRCK1_ID1
  99:HANcoder_E407_TTA_CombineModel.c ****                                         * Referenced by: '<S13>/Constant3'
 100:HANcoder_E407_TTA_CombineModel.c ****                                         */
 101:HANcoder_E407_TTA_CombineModel.c **** uint32_T TRCK1_ID2 = 26U;              /* Variable: TRCK1_ID2
 102:HANcoder_E407_TTA_CombineModel.c ****                                         * Referenced by: '<S13>/Constant5'
 103:HANcoder_E407_TTA_CombineModel.c ****                                         */
 104:HANcoder_E407_TTA_CombineModel.c **** uint32_T TRCK1_ID3 = 37U;              /* Variable: TRCK1_ID3
 105:HANcoder_E407_TTA_CombineModel.c ****                                         * Referenced by: '<S13>/Constant26'
 106:HANcoder_E407_TTA_CombineModel.c ****                                         */
 107:HANcoder_E407_TTA_CombineModel.c **** uint32_T TRLS1_ID4 = 48U;              /* Variable: TRLS1_ID4
 108:HANcoder_E407_TTA_CombineModel.c ****                                         * Referenced by: '<S13>/Constant8'
 109:HANcoder_E407_TTA_CombineModel.c ****                                         */
 110:HANcoder_E407_TTA_CombineModel.c **** uint32_T TRLS1_ID5 = 59U;              /* Variable: TRLS1_ID5
 111:HANcoder_E407_TTA_CombineModel.c ****                                         * Referenced by: '<S13>/Constant18'
 112:HANcoder_E407_TTA_CombineModel.c ****                                         */
 113:HANcoder_E407_TTA_CombineModel.c **** uint8_T slotTime = 50U;                /* Variable: slotTime
 114:HANcoder_E407_TTA_CombineModel.c ****                                         * Referenced by: '<S360>/Constant3'
 115:HANcoder_E407_TTA_CombineModel.c ****                                         */
 116:HANcoder_E407_TTA_CombineModel.c **** 
 117:HANcoder_E407_TTA_CombineModel.c **** /* Block signals (default storage) */
 118:HANcoder_E407_TTA_CombineModel.c **** BlockIO rtB;
 119:HANcoder_E407_TTA_CombineModel.c **** 
 120:HANcoder_E407_TTA_CombineModel.c **** /* Block states (default storage) */
 121:HANcoder_E407_TTA_CombineModel.c **** D_Work rtDWork;
 122:HANcoder_E407_TTA_CombineModel.c **** 
 123:HANcoder_E407_TTA_CombineModel.c **** /* Previous zero-crossings (trigger) states */
 124:HANcoder_E407_TTA_CombineModel.c **** PrevZCSigStates rtPrevZCSigState;
 125:HANcoder_E407_TTA_CombineModel.c **** 
 126:HANcoder_E407_TTA_CombineModel.c **** /* Forward declaration for local functions */
 127:HANcoder_E407_TTA_CombineModel.c **** static void SystemCore_setup(dsp_simulink_MovingAverage *obj);
 128:HANcoder_E407_TTA_CombineModel.c **** static tCanDataTypes canRxData_0_rtu_In1;
 129:HANcoder_E407_TTA_CombineModel.c **** static tCanDataTypes canTxData;
 130:HANcoder_E407_TTA_CombineModel.c **** static tCanDataTypes canRxData_0_SYNC1_ID;
 131:HANcoder_E407_TTA_CombineModel.c **** static tCanDataTypes canRxData_0_TRCK1_ID2;
 132:HANcoder_E407_TTA_CombineModel.c **** static tCanDataTypes canRxData_0_TRCK1_ID1;
 133:HANcoder_E407_TTA_CombineModel.c **** static tCanDataTypes canRxData_0_TRCK1_ID3;
 134:HANcoder_E407_TTA_CombineModel.c **** static tCanDataTypes canRxData_0_TRLS1_ID4;
 135:HANcoder_E407_TTA_CombineModel.c **** static tCanDataTypes canRxData_0_TRLS1_ID5;
 136:HANcoder_E407_TTA_CombineModel.c **** static tCanDataTypes canRxData_0_SYNC1_ID;
 137:HANcoder_E407_TTA_CombineModel.c **** 
 138:HANcoder_E407_TTA_CombineModel.c **** /*
 139:HANcoder_E407_TTA_CombineModel.c ****  * Swaps the values of two bytes.
 140:HANcoder_E407_TTA_CombineModel.c ****  * a, b pointers to data values that need swapping
 141:HANcoder_E407_TTA_CombineModel.c ****  */
 142:HANcoder_E407_TTA_CombineModel.c **** static void swap(unsigned char *a, unsigned char *b)
 143:HANcoder_E407_TTA_CombineModel.c **** {
 144:HANcoder_E407_TTA_CombineModel.c ****   register char i = *a;
 145:HANcoder_E407_TTA_CombineModel.c ****   *a = *b;
 146:HANcoder_E407_TTA_CombineModel.c ****   *b = i;
 147:HANcoder_E407_TTA_CombineModel.c **** }                                      /*** end of swap ***/
 148:HANcoder_E407_TTA_CombineModel.c **** 
 149:HANcoder_E407_TTA_CombineModel.c **** /*
 150:HANcoder_E407_TTA_CombineModel.c ****  * Swaps all bytes in b. Typically used to fix endianes.
 151:HANcoder_E407_TTA_CombineModel.c ****  * b pointer to data with bytes to swap
 152:HANcoder_E407_TTA_CombineModel.c ****  * n number of bytes to swap
 153:HANcoder_E407_TTA_CombineModel.c ****  */
 154:HANcoder_E407_TTA_CombineModel.c **** void ByteSwap_x(uint8_t *b, size_t n)
 155:HANcoder_E407_TTA_CombineModel.c **** {
 156:HANcoder_E407_TTA_CombineModel.c ****   int i = 0;
 157:HANcoder_E407_TTA_CombineModel.c ****   int j = n-1;
 158:HANcoder_E407_TTA_CombineModel.c ****   while (i<j) {
 159:HANcoder_E407_TTA_CombineModel.c ****     swap(&b[i], &b[j]);
 160:HANcoder_E407_TTA_CombineModel.c ****     i++, j--;
 161:HANcoder_E407_TTA_CombineModel.c ****   }
 162:HANcoder_E407_TTA_CombineModel.c **** }
 163:HANcoder_E407_TTA_CombineModel.c **** 
 164:HANcoder_E407_TTA_CombineModel.c **** void TimeoutEventIRQ_TIMEOUT_TIM4_PIN_PD12(void)
 165:HANcoder_E407_TTA_CombineModel.c **** {
 166:HANcoder_E407_TTA_CombineModel.c ****   /* Output and update for function-call system: '<S1>/Local Time generation' */
 167:HANcoder_E407_TTA_CombineModel.c ****   {
 168:HANcoder_E407_TTA_CombineModel.c ****     /* local block i/o variables */
 169:HANcoder_E407_TTA_CombineModel.c ****     uint16_T rtb_Level2MfileSFunction;
 170:HANcoder_E407_TTA_CombineModel.c ****     boolean_T rtb_Equal;
 171:HANcoder_E407_TTA_CombineModel.c **** 
 172:HANcoder_E407_TTA_CombineModel.c ****     /* SignalConversion generated from: '<S12>/Clock_State' */
 173:HANcoder_E407_TTA_CombineModel.c ****     canActive = rtB.OR;
 174:HANcoder_E407_TTA_CombineModel.c **** 
 175:HANcoder_E407_TTA_CombineModel.c ****     /* Switch: '<S12>/Switch' */
 176:HANcoder_E407_TTA_CombineModel.c ****     if (canActive) {
 177:HANcoder_E407_TTA_CombineModel.c ****       /* Switch: '<S12>/Switch' incorporates:
 178:HANcoder_E407_TTA_CombineModel.c ****        *  Constant: '<S12>/Constant2'
 179:HANcoder_E407_TTA_CombineModel.c ****        *  DataStoreRead: '<S12>/Data Store Read'
 180:HANcoder_E407_TTA_CombineModel.c ****        *  Sum: '<S12>/Sum1'
 181:HANcoder_E407_TTA_CombineModel.c ****        */
 182:HANcoder_E407_TTA_CombineModel.c ****       local_ticks_interrupt = (uint8_T)((uint32_T)rtDWork.Local_Ticks +
 183:HANcoder_E407_TTA_CombineModel.c ****         ((uint8_T)1U));
 184:HANcoder_E407_TTA_CombineModel.c ****     } else {
 185:HANcoder_E407_TTA_CombineModel.c ****       /* Switch: '<S12>/Switch' incorporates:
 186:HANcoder_E407_TTA_CombineModel.c ****        *  DataStoreRead: '<S12>/Data Store Read1'
 187:HANcoder_E407_TTA_CombineModel.c ****        */
 188:HANcoder_E407_TTA_CombineModel.c ****       local_ticks_interrupt = rtDWork.Local_Ticks;
 189:HANcoder_E407_TTA_CombineModel.c ****     }
 190:HANcoder_E407_TTA_CombineModel.c **** 
 191:HANcoder_E407_TTA_CombineModel.c ****     /* End of Switch: '<S12>/Switch' */
 192:HANcoder_E407_TTA_CombineModel.c **** 
 193:HANcoder_E407_TTA_CombineModel.c ****     /* DataStoreWrite: '<S12>/Data Store Write' */
 194:HANcoder_E407_TTA_CombineModel.c ****     rtDWork.Local_Ticks = local_ticks_interrupt;
 195:HANcoder_E407_TTA_CombineModel.c **** 
 196:HANcoder_E407_TTA_CombineModel.c ****     /* DataStoreRead: '<S12>/Data Store Read3' */
 197:HANcoder_E407_TTA_CombineModel.c ****     setSlotTime = rtDWork.SlotTime;
 198:HANcoder_E407_TTA_CombineModel.c **** 
 199:HANcoder_E407_TTA_CombineModel.c ****     /* M-S-Function: '<S97>/Level-2 M-file S-Function' incorporates:
 200:HANcoder_E407_TTA_CombineModel.c ****      *  DataTypeConversion: '<S12>/Cast'
 201:HANcoder_E407_TTA_CombineModel.c ****      */
 202:HANcoder_E407_TTA_CombineModel.c ****     rtb_Level2MfileSFunction = setSlotTime;
 203:HANcoder_E407_TTA_CombineModel.c **** 
 204:HANcoder_E407_TTA_CombineModel.c ****     /* RelationalOperator: '<S12>/Equal' incorporates:
 205:HANcoder_E407_TTA_CombineModel.c ****      *  DataStoreRead: '<S12>/Data Store Read2'
 206:HANcoder_E407_TTA_CombineModel.c ****      */
 207:HANcoder_E407_TTA_CombineModel.c ****     rtb_Equal = (rtDWork.Local_Ticks >= rtb_Level2MfileSFunction);
 208:HANcoder_E407_TTA_CombineModel.c **** 
 209:HANcoder_E407_TTA_CombineModel.c ****     /* Outputs for Triggered SubSystem: '<S12>/Enabled Subsystem' incorporates:
 210:HANcoder_E407_TTA_CombineModel.c ****      *  TriggerPort: '<S96>/Trigger'
 211:HANcoder_E407_TTA_CombineModel.c ****      */
 212:HANcoder_E407_TTA_CombineModel.c ****     if (rtb_Equal && (rtPrevZCSigState.EnabledSubsystem_Trig_ZCE != POS_ZCSIG))
 213:HANcoder_E407_TTA_CombineModel.c ****     {
 214:HANcoder_E407_TTA_CombineModel.c ****       /* Switch: '<S96>/Switch' incorporates:
 215:HANcoder_E407_TTA_CombineModel.c ****        *  Constant: '<S96>/Constant1'
 216:HANcoder_E407_TTA_CombineModel.c ****        *  DataStoreRead: '<S96>/Data Store Read1'
 217:HANcoder_E407_TTA_CombineModel.c ****        *  DataTypeConversion: '<S96>/Cast'
 218:HANcoder_E407_TTA_CombineModel.c ****        *  RelationalOperator: '<S96>/Equal'
 219:HANcoder_E407_TTA_CombineModel.c ****        */
 220:HANcoder_E407_TTA_CombineModel.c ****       if (rtDWork.slot < (uint8_T)matrixRows) {
 221:HANcoder_E407_TTA_CombineModel.c ****         /* Switch: '<S96>/Switch' incorporates:
 222:HANcoder_E407_TTA_CombineModel.c ****          *  Constant: '<S96>/Constant'
 223:HANcoder_E407_TTA_CombineModel.c ****          *  DataStoreRead: '<S96>/Data Store Read'
 224:HANcoder_E407_TTA_CombineModel.c ****          *  Sum: '<S96>/Plus'
 225:HANcoder_E407_TTA_CombineModel.c ****          */
 226:HANcoder_E407_TTA_CombineModel.c ****         slotSelected = (uint8_T)((uint32_T)rtDWork.slot + ((uint8_T)1U));
 227:HANcoder_E407_TTA_CombineModel.c ****       } else {
 228:HANcoder_E407_TTA_CombineModel.c ****         /* Switch: '<S96>/Switch' incorporates:
 229:HANcoder_E407_TTA_CombineModel.c ****          *  Constant: '<S96>/Constant2'
 230:HANcoder_E407_TTA_CombineModel.c ****          */
 231:HANcoder_E407_TTA_CombineModel.c ****         slotSelected = (uint8_T)1.0;
 232:HANcoder_E407_TTA_CombineModel.c ****       }
 233:HANcoder_E407_TTA_CombineModel.c **** 
 234:HANcoder_E407_TTA_CombineModel.c ****       /* End of Switch: '<S96>/Switch' */
 235:HANcoder_E407_TTA_CombineModel.c **** 
 236:HANcoder_E407_TTA_CombineModel.c ****       /* DataStoreWrite: '<S96>/Data Store Write' */
 237:HANcoder_E407_TTA_CombineModel.c ****       rtDWork.slot = slotSelected;
 238:HANcoder_E407_TTA_CombineModel.c **** 
 239:HANcoder_E407_TTA_CombineModel.c ****       /* DataStoreWrite: '<S96>/Data Store Write1' incorporates:
 240:HANcoder_E407_TTA_CombineModel.c ****        *  Constant: '<S96>/Constant3'
 241:HANcoder_E407_TTA_CombineModel.c ****        */
 242:HANcoder_E407_TTA_CombineModel.c ****       rtDWork.Local_Ticks = ((uint8_T)0U);
 243:HANcoder_E407_TTA_CombineModel.c ****     }
 244:HANcoder_E407_TTA_CombineModel.c **** 
 245:HANcoder_E407_TTA_CombineModel.c ****     rtPrevZCSigState.EnabledSubsystem_Trig_ZCE = rtb_Equal;
 246:HANcoder_E407_TTA_CombineModel.c **** 
 247:HANcoder_E407_TTA_CombineModel.c ****     /* End of Outputs for SubSystem: '<S12>/Enabled Subsystem' */
 248:HANcoder_E407_TTA_CombineModel.c ****     /* M-S-Function: '<S97>/Level-2 M-file S-Function' */
 249:HANcoder_E407_TTA_CombineModel.c ****     /* read 16-bit free running counter timestamp of the last output compare event */
 250:HANcoder_E407_TTA_CombineModel.c ****     rtb_Level2MfileSFunction = TimeoutGetLastEventCounter(TIMEOUT_TIM4_PIN_PD12);
 251:HANcoder_E407_TTA_CombineModel.c **** 
 252:HANcoder_E407_TTA_CombineModel.c ****     /* Sum: '<S12>/Sum' incorporates:
 253:HANcoder_E407_TTA_CombineModel.c ****      *  Constant: '<S12>/Constant'
 254:HANcoder_E407_TTA_CombineModel.c ****      */
 255:HANcoder_E407_TTA_CombineModel.c ****     rtB.Sum = (uint16_T)((uint32_T)rtb_Level2MfileSFunction + ((uint16_T)1000U));
 256:HANcoder_E407_TTA_CombineModel.c **** 
 257:HANcoder_E407_TTA_CombineModel.c ****     /* Update for M-S-Function: '<S98>/Level-2 M-file S-Function' incorporates:
 258:HANcoder_E407_TTA_CombineModel.c ****      *  Constant: '<S12>/Constant1'
 259:HANcoder_E407_TTA_CombineModel.c ****      */
 260:HANcoder_E407_TTA_CombineModel.c ****     /* schedule the next output compare event */
 261:HANcoder_E407_TTA_CombineModel.c ****     TimeoutScheduleCompareEvent(TIMEOUT_TIM4_PIN_PD12, rtB.Sum, (tTimeoutAction)
 262:HANcoder_E407_TTA_CombineModel.c ****       ((uint8_T)3U));
 263:HANcoder_E407_TTA_CombineModel.c ****   }
 264:HANcoder_E407_TTA_CombineModel.c **** }
 265:HANcoder_E407_TTA_CombineModel.c **** 
 266:HANcoder_E407_TTA_CombineModel.c **** void PwmoutIRQ_PWMOUT_MODULE_TIM14(void)
 267:HANcoder_E407_TTA_CombineModel.c **** {
  29              		.loc 1 267 1 view -0
  30              		.cfi_startproc
  31              		@ args = 0, pretend = 0, frame = 0
  32              		@ frame_needed = 0, uses_anonymous_args = 0
  33              		@ link register save eliminated.
 268:HANcoder_E407_TTA_CombineModel.c **** }
  34              		.loc 1 268 1 view .LVU1
  35 0000 7047     		bx	lr
  36              		.cfi_endproc
  37              	.LFE114:
  39              		.global	__aeabi_d2uiz
  40 0002 00BF     		.section	.text.TimeoutEventIRQ_TIMEOUT_TIM4_PIN_PD12,"ax",%progbits
  41              		.align	1
  42              		.p2align 2,,3
  43              		.global	TimeoutEventIRQ_TIMEOUT_TIM4_PIN_PD12
  44              		.syntax unified
  45              		.thumb
  46              		.thumb_func
  48              	TimeoutEventIRQ_TIMEOUT_TIM4_PIN_PD12:
  49              	.LFB113:
 165:HANcoder_E407_TTA_CombineModel.c ****   /* Output and update for function-call system: '<S1>/Local Time generation' */
  50              		.loc 1 165 1 view -0
  51              		.cfi_startproc
  52              		@ args = 0, pretend = 0, frame = 0
  53              		@ frame_needed = 0, uses_anonymous_args = 0
  54              	.LBB195:
 169:HANcoder_E407_TTA_CombineModel.c ****     boolean_T rtb_Equal;
  55              		.loc 1 169 5 view .LVU3
 170:HANcoder_E407_TTA_CombineModel.c **** 
  56              		.loc 1 170 5 view .LVU4
 173:HANcoder_E407_TTA_CombineModel.c **** 
  57              		.loc 1 173 5 view .LVU5
  58              	.LBE195:
 165:HANcoder_E407_TTA_CombineModel.c ****   /* Output and update for function-call system: '<S1>/Local Time generation' */
  59              		.loc 1 165 1 is_stmt 0 view .LVU6
  60 0000 2DE9F041 		push	{r4, r5, r6, r7, r8, lr}
  61              		.cfi_def_cfa_offset 24
  62              		.cfi_offset 4, -24
  63              		.cfi_offset 5, -20
  64              		.cfi_offset 6, -16
  65              		.cfi_offset 7, -12
  66              		.cfi_offset 8, -8
  67              		.cfi_offset 14, -4
  68              	.LBB196:
 173:HANcoder_E407_TTA_CombineModel.c **** 
  69              		.loc 1 173 20 view .LVU7
  70 0004 224D     		ldr	r5, .L15
 173:HANcoder_E407_TTA_CombineModel.c **** 
  71              		.loc 1 173 15 view .LVU8
  72 0006 234A     		ldr	r2, .L15+4
 173:HANcoder_E407_TTA_CombineModel.c **** 
  73              		.loc 1 173 20 view .LVU9
  74 0008 6B7C     		ldrb	r3, [r5, #17]	@ zero_extendqisi2
 182:HANcoder_E407_TTA_CombineModel.c ****         ((uint8_T)1U));
  75              		.loc 1 182 58 view .LVU10
  76 000a 234C     		ldr	r4, .L15+8
 173:HANcoder_E407_TTA_CombineModel.c **** 
  77              		.loc 1 173 15 view .LVU11
  78 000c 1370     		strb	r3, [r2]
 176:HANcoder_E407_TTA_CombineModel.c ****       /* Switch: '<S12>/Switch' incorporates:
  79              		.loc 1 176 5 is_stmt 1 view .LVU12
 176:HANcoder_E407_TTA_CombineModel.c ****       /* Switch: '<S12>/Switch' incorporates:
  80              		.loc 1 176 8 is_stmt 0 view .LVU13
  81 000e 002B     		cmp	r3, #0
  82 0010 3AD0     		beq	.L4
 182:HANcoder_E407_TTA_CombineModel.c ****         ((uint8_T)1U));
  83              		.loc 1 182 7 is_stmt 1 view .LVU14
 182:HANcoder_E407_TTA_CombineModel.c ****         ((uint8_T)1U));
  84              		.loc 1 182 31 is_stmt 0 view .LVU15
  85 0012 94F86230 		ldrb	r3, [r4, #98]	@ zero_extendqisi2
  86 0016 0133     		adds	r3, r3, #1
  87 0018 DBB2     		uxtb	r3, r3
  88              	.L5:
  89 001a 2049     		ldr	r1, .L15+12
 197:HANcoder_E407_TTA_CombineModel.c **** 
  90              		.loc 1 197 26 view .LVU16
  91 001c 94F86520 		ldrb	r2, [r4, #101]	@ zero_extendqisi2
  92 0020 0B70     		strb	r3, [r1]
 194:HANcoder_E407_TTA_CombineModel.c **** 
  93              		.loc 1 194 5 is_stmt 1 view .LVU17
 197:HANcoder_E407_TTA_CombineModel.c **** 
  94              		.loc 1 197 17 is_stmt 0 view .LVU18
  95 0022 1F49     		ldr	r1, .L15+16
 212:HANcoder_E407_TTA_CombineModel.c ****     {
  96              		.loc 1 212 39 view .LVU19
  97 0024 1F4E     		ldr	r6, .L15+20
 194:HANcoder_E407_TTA_CombineModel.c **** 
  98              		.loc 1 194 25 view .LVU20
  99 0026 84F86230 		strb	r3, [r4, #98]
 197:HANcoder_E407_TTA_CombineModel.c **** 
 100              		.loc 1 197 5 is_stmt 1 view .LVU21
 207:HANcoder_E407_TTA_CombineModel.c **** 
 101              		.loc 1 207 38 is_stmt 0 view .LVU22
 102 002a 9A42     		cmp	r2, r3
 197:HANcoder_E407_TTA_CombineModel.c **** 
 103              		.loc 1 197 17 view .LVU23
 104 002c 0A70     		strb	r2, [r1]
 202:HANcoder_E407_TTA_CombineModel.c **** 
 105              		.loc 1 202 5 is_stmt 1 view .LVU24
 106              	.LVL0:
 207:HANcoder_E407_TTA_CombineModel.c **** 
 107              		.loc 1 207 5 view .LVU25
 207:HANcoder_E407_TTA_CombineModel.c **** 
 108              		.loc 1 207 15 is_stmt 0 view .LVU26
 109 002e 94BF     		ite	ls
 110 0030 4FF00108 		movls	r8, #1
 111 0034 4FF00008 		movhi	r8, #0
 112              	.LVL1:
 212:HANcoder_E407_TTA_CombineModel.c ****     {
 113              		.loc 1 212 5 is_stmt 1 view .LVU27
 212:HANcoder_E407_TTA_CombineModel.c ****     {
 114              		.loc 1 212 8 is_stmt 0 view .LVU28
 115 0038 17D8     		bhi	.L6
 212:HANcoder_E407_TTA_CombineModel.c ****     {
 116              		.loc 1 212 19 discriminator 1 view .LVU29
 117 003a 737B     		ldrb	r3, [r6, #13]	@ zero_extendqisi2
 118 003c 012B     		cmp	r3, #1
 119 003e 14D0     		beq	.L6
 220:HANcoder_E407_TTA_CombineModel.c ****         /* Switch: '<S96>/Switch' incorporates:
 120              		.loc 1 220 7 is_stmt 1 view .LVU30
 220:HANcoder_E407_TTA_CombineModel.c ****         /* Switch: '<S96>/Switch' incorporates:
 121              		.loc 1 220 26 is_stmt 0 view .LVU31
 122 0040 194B     		ldr	r3, .L15+24
 220:HANcoder_E407_TTA_CombineModel.c ****         /* Switch: '<S96>/Switch' incorporates:
 123              		.loc 1 220 18 view .LVU32
 124 0042 94F86470 		ldrb	r7, [r4, #100]	@ zero_extendqisi2
 220:HANcoder_E407_TTA_CombineModel.c ****         /* Switch: '<S96>/Switch' incorporates:
 125              		.loc 1 220 26 view .LVU33
 126 0046 D3E90001 		ldrd	r0, [r3]
 127 004a FFF7FEFF 		bl	__aeabi_d2uiz
 128              	.LVL2:
 220:HANcoder_E407_TTA_CombineModel.c ****         /* Switch: '<S96>/Switch' incorporates:
 129              		.loc 1 220 10 view .LVU34
 130 004e C0B2     		uxtb	r0, r0
 131 0050 B842     		cmp	r0, r7
 226:HANcoder_E407_TTA_CombineModel.c ****       } else {
 132              		.loc 1 226 9 is_stmt 1 view .LVU35
 226:HANcoder_E407_TTA_CombineModel.c ****       } else {
 133              		.loc 1 226 24 is_stmt 0 view .LVU36
 134 0052 88BF     		it	hi
 135 0054 7B1C     		addhi	r3, r7, #1
 136 0056 154A     		ldr	r2, .L15+28
 137 0058 8CBF     		ite	hi
 138 005a DBB2     		uxtbhi	r3, r3
 231:HANcoder_E407_TTA_CombineModel.c ****       }
 139              		.loc 1 231 22 view .LVU37
 140 005c 0123     		movls	r3, #1
 237:HANcoder_E407_TTA_CombineModel.c **** 
 141              		.loc 1 237 20 view .LVU38
 142 005e 84F86430 		strb	r3, [r4, #100]
 143 0062 1370     		strb	r3, [r2]
 237:HANcoder_E407_TTA_CombineModel.c **** 
 144              		.loc 1 237 7 is_stmt 1 view .LVU39
 242:HANcoder_E407_TTA_CombineModel.c ****     }
 145              		.loc 1 242 7 view .LVU40
 242:HANcoder_E407_TTA_CombineModel.c ****     }
 146              		.loc 1 242 27 is_stmt 0 view .LVU41
 147 0064 0023     		movs	r3, #0
 148 0066 84F86230 		strb	r3, [r4, #98]
 149              	.L6:
 245:HANcoder_E407_TTA_CombineModel.c **** 
 150              		.loc 1 245 5 is_stmt 1 view .LVU42
 250:HANcoder_E407_TTA_CombineModel.c **** 
 151              		.loc 1 250 32 is_stmt 0 view .LVU43
 152 006a 0720     		movs	r0, #7
 245:HANcoder_E407_TTA_CombineModel.c **** 
 153              		.loc 1 245 48 view .LVU44
 154 006c 86F80D80 		strb	r8, [r6, #13]
 250:HANcoder_E407_TTA_CombineModel.c **** 
 155              		.loc 1 250 5 is_stmt 1 view .LVU45
 250:HANcoder_E407_TTA_CombineModel.c **** 
 156              		.loc 1 250 32 is_stmt 0 view .LVU46
 157 0070 FFF7FEFF 		bl	TimeoutGetLastEventCounter
 158              	.LVL3:
 255:HANcoder_E407_TTA_CombineModel.c **** 
 159              		.loc 1 255 5 is_stmt 1 view .LVU47
 255:HANcoder_E407_TTA_CombineModel.c **** 
 160              		.loc 1 255 15 is_stmt 0 view .LVU48
 161 0074 00F57A70 		add	r0, r0, #1000
 162              	.LVL4:
 255:HANcoder_E407_TTA_CombineModel.c **** 
 163              		.loc 1 255 15 view .LVU49
 164 0078 81B2     		uxth	r1, r0
 255:HANcoder_E407_TTA_CombineModel.c **** 
 165              		.loc 1 255 13 view .LVU50
 166 007a 6980     		strh	r1, [r5, #2]	@ movhi
 261:HANcoder_E407_TTA_CombineModel.c ****       ((uint8_T)3U));
 167              		.loc 1 261 5 is_stmt 1 view .LVU51
 168 007c 0322     		movs	r2, #3
 169              	.LBE196:
 264:HANcoder_E407_TTA_CombineModel.c **** 
 170              		.loc 1 264 1 is_stmt 0 view .LVU52
 171 007e BDE8F041 		pop	{r4, r5, r6, r7, r8, lr}
 172              		.cfi_remember_state
 173              		.cfi_restore 14
 174              		.cfi_restore 8
 175              		.cfi_restore 7
 176              		.cfi_restore 6
 177              		.cfi_restore 5
 178              		.cfi_restore 4
 179              		.cfi_def_cfa_offset 0
 180              	.LVL5:
 181              	.LBB197:
 261:HANcoder_E407_TTA_CombineModel.c ****       ((uint8_T)3U));
 182              		.loc 1 261 5 view .LVU53
 183 0082 0720     		movs	r0, #7
 184 0084 FFF7FEBF 		b	TimeoutScheduleCompareEvent
 185              	.LVL6:
 186              	.L4:
 187              		.cfi_restore_state
 188:HANcoder_E407_TTA_CombineModel.c ****     }
 188              		.loc 1 188 7 is_stmt 1 view .LVU54
 188:HANcoder_E407_TTA_CombineModel.c ****     }
 189              		.loc 1 188 38 is_stmt 0 view .LVU55
 190 0088 94F86230 		ldrb	r3, [r4, #98]	@ zero_extendqisi2
 191 008c C5E7     		b	.L5
 192              	.L16:
 193 008e 00BF     		.align	2
 194              	.L15:
 195 0090 00000000 		.word	.LANCHOR0
 196 0094 00000000 		.word	.LANCHOR1
 197 0098 00000000 		.word	.LANCHOR2
 198 009c 00000000 		.word	.LANCHOR3
 199 00a0 00000000 		.word	.LANCHOR4
 200 00a4 00000000 		.word	.LANCHOR5
 201 00a8 00000000 		.word	.LANCHOR6
 202 00ac 00000000 		.word	.LANCHOR7
 203              	.LBE197:
 204              		.cfi_endproc
 205              	.LFE113:
 207              		.section	.text.TimeoutOverflowIRQ_TIMEOUT_MODULE_TIM4,"ax",%progbits
 208              		.align	1
 209              		.p2align 2,,3
 210              		.global	TimeoutOverflowIRQ_TIMEOUT_MODULE_TIM4
 211              		.syntax unified
 212              		.thumb
 213              		.thumb_func
 215              	TimeoutOverflowIRQ_TIMEOUT_MODULE_TIM4:
 216              	.LFB145:
 217              		.cfi_startproc
 218              		@ args = 0, pretend = 0, frame = 0
 219              		@ frame_needed = 0, uses_anonymous_args = 0
 220              		@ link register save eliminated.
 221 0000 7047     		bx	lr
 222              		.cfi_endproc
 223              	.LFE145:
 225 0002 00BF     		.section	.text.ByteSwap_x,"ax",%progbits
 226              		.align	1
 227              		.p2align 2,,3
 228              		.global	ByteSwap_x
 229              		.syntax unified
 230              		.thumb
 231              		.thumb_func
 233              	ByteSwap_x:
 234              	.LVL7:
 235              	.LFB112:
 155:HANcoder_E407_TTA_CombineModel.c ****   int i = 0;
 236              		.loc 1 155 1 is_stmt 1 view -0
 237              		.cfi_startproc
 238              		@ args = 0, pretend = 0, frame = 0
 239              		@ frame_needed = 0, uses_anonymous_args = 0
 156:HANcoder_E407_TTA_CombineModel.c ****   int j = n-1;
 240              		.loc 1 156 3 view .LVU57
 157:HANcoder_E407_TTA_CombineModel.c ****   while (i<j) {
 241              		.loc 1 157 3 view .LVU58
 155:HANcoder_E407_TTA_CombineModel.c ****   int i = 0;
 242              		.loc 1 155 1 is_stmt 0 view .LVU59
 243 0000 70B5     		push	{r4, r5, r6, lr}
 244              		.cfi_def_cfa_offset 16
 245              		.cfi_offset 4, -16
 246              		.cfi_offset 5, -12
 247              		.cfi_offset 6, -8
 248              		.cfi_offset 14, -4
 157:HANcoder_E407_TTA_CombineModel.c ****   while (i<j) {
 249              		.loc 1 157 12 view .LVU60
 250 0002 01F1FF3E 		add	lr, r1, #-1
 251              	.LVL8:
 158:HANcoder_E407_TTA_CombineModel.c ****     swap(&b[i], &b[j]);
 252              		.loc 1 158 3 is_stmt 1 view .LVU61
 158:HANcoder_E407_TTA_CombineModel.c ****     swap(&b[i], &b[j]);
 253              		.loc 1 158 9 view .LVU62
 254 0006 BEF1000F 		cmp	lr, #0
 255 000a 15DD     		ble	.L18
 256 000c 00F1FF3C 		add	ip, r0, #-1
 257 0010 8644     		add	lr, lr, r0
 258              	.LVL9:
 158:HANcoder_E407_TTA_CombineModel.c ****     swap(&b[i], &b[j]);
 259              		.loc 1 158 9 is_stmt 0 view .LVU63
 260 0012 6FF00106 		mvn	r6, #1
 261              	.LVL10:
 262              	.L20:
 159:HANcoder_E407_TTA_CombineModel.c ****     i++, j--;
 263              		.loc 1 159 5 is_stmt 1 view .LVU64
 264              	.LBB198:
 265              	.LBI198:
 142:HANcoder_E407_TTA_CombineModel.c **** {
 266              		.loc 1 142 13 view .LVU65
 267              	.LBB199:
 144:HANcoder_E407_TTA_CombineModel.c ****   *a = *b;
 268              		.loc 1 144 3 view .LVU66
 269 0016 6246     		mov	r2, ip
 144:HANcoder_E407_TTA_CombineModel.c ****   *a = *b;
 270              		.loc 1 144 17 is_stmt 0 view .LVU67
 271 0018 1CF8014F 		ldrb	r4, [ip, #1]!	@ zero_extendqisi2
 272              	.LVL11:
 145:HANcoder_E407_TTA_CombineModel.c ****   *b = i;
 273              		.loc 1 145 3 is_stmt 1 view .LVU68
 145:HANcoder_E407_TTA_CombineModel.c ****   *b = i;
 274              		.loc 1 145 8 is_stmt 0 view .LVU69
 275 001c 9EF80050 		ldrb	r5, [lr]	@ zero_extendqisi2
 145:HANcoder_E407_TTA_CombineModel.c ****   *b = i;
 276              		.loc 1 145 6 view .LVU70
 277 0020 8CF80050 		strb	r5, [ip]
 146:HANcoder_E407_TTA_CombineModel.c **** }                                      /*** end of swap ***/
 278              		.loc 1 146 3 is_stmt 1 view .LVU71
 279              	.LBE199:
 280              	.LBE198:
 158:HANcoder_E407_TTA_CombineModel.c ****     swap(&b[i], &b[j]);
 281              		.loc 1 158 9 is_stmt 0 view .LVU72
 282 0024 A6EB0C03 		sub	r3, r6, ip
 283 0028 0232     		adds	r2, r2, #2
 284              	.LVL12:
 158:HANcoder_E407_TTA_CombineModel.c ****     swap(&b[i], &b[j]);
 285              		.loc 1 158 9 view .LVU73
 286 002a 0344     		add	r3, r3, r0
 287 002c 121A     		subs	r2, r2, r0
 288              	.LVL13:
 158:HANcoder_E407_TTA_CombineModel.c ****     swap(&b[i], &b[j]);
 289              		.loc 1 158 9 view .LVU74
 290 002e 0B44     		add	r3, r3, r1
 291 0030 9A42     		cmp	r2, r3
 292              	.LBB201:
 293              	.LBB200:
 146:HANcoder_E407_TTA_CombineModel.c **** }                                      /*** end of swap ***/
 294              		.loc 1 146 6 view .LVU75
 295 0032 0EF80149 		strb	r4, [lr], #-1
 296              	.LVL14:
 146:HANcoder_E407_TTA_CombineModel.c **** }                                      /*** end of swap ***/
 297              		.loc 1 146 6 view .LVU76
 298              	.LBE200:
 299              	.LBE201:
 160:HANcoder_E407_TTA_CombineModel.c ****   }
 300              		.loc 1 160 5 is_stmt 1 view .LVU77
 158:HANcoder_E407_TTA_CombineModel.c ****     swap(&b[i], &b[j]);
 301              		.loc 1 158 9 view .LVU78
 302 0036 EEDB     		blt	.L20
 303              	.LVL15:
 304              	.L18:
 162:HANcoder_E407_TTA_CombineModel.c **** 
 305              		.loc 1 162 1 is_stmt 0 view .LVU79
 306 0038 70BD     		pop	{r4, r5, r6, pc}
 307              		.cfi_endproc
 308              	.LFE112:
 310 003a 00BF     		.section	.text.MovingAverage_Init,"ax",%progbits
 311              		.align	1
 312              		.p2align 2,,3
 313              		.global	MovingAverage_Init
 314              		.syntax unified
 315              		.thumb
 316              		.thumb_func
 318              	MovingAverage_Init:
 319              	.LVL16:
 320              	.LFB117:
 269:HANcoder_E407_TTA_CombineModel.c **** 
 270:HANcoder_E407_TTA_CombineModel.c **** void TimeoutOverflowIRQ_TIMEOUT_MODULE_TIM4(void)
 271:HANcoder_E407_TTA_CombineModel.c **** {
 272:HANcoder_E407_TTA_CombineModel.c **** }
 273:HANcoder_E407_TTA_CombineModel.c **** 
 274:HANcoder_E407_TTA_CombineModel.c **** static void SystemCore_setup(dsp_simulink_MovingAverage *obj)
 275:HANcoder_E407_TTA_CombineModel.c **** {
 276:HANcoder_E407_TTA_CombineModel.c ****   obj->isSetupComplete = false;
 277:HANcoder_E407_TTA_CombineModel.c ****   obj->isInitialized = 1;
 278:HANcoder_E407_TTA_CombineModel.c ****   obj->NumChannels = 1;
 279:HANcoder_E407_TTA_CombineModel.c ****   obj->FrameLength = 1;
 280:HANcoder_E407_TTA_CombineModel.c ****   obj->_pobj0.isInitialized = 0;
 281:HANcoder_E407_TTA_CombineModel.c ****   obj->_pobj0.isInitialized = 0;
 282:HANcoder_E407_TTA_CombineModel.c ****   obj->pStatistic = &obj->_pobj0;
 283:HANcoder_E407_TTA_CombineModel.c ****   obj->isSetupComplete = true;
 284:HANcoder_E407_TTA_CombineModel.c ****   obj->TunablePropsChanged = false;
 285:HANcoder_E407_TTA_CombineModel.c **** }
 286:HANcoder_E407_TTA_CombineModel.c **** 
 287:HANcoder_E407_TTA_CombineModel.c **** /* System initialize for atomic system: */
 288:HANcoder_E407_TTA_CombineModel.c **** void MovingAverage_Init(rtDW_MovingAverage *localDW)
 289:HANcoder_E407_TTA_CombineModel.c **** {
 321              		.loc 1 289 1 is_stmt 1 view -0
 322              		.cfi_startproc
 323              		@ args = 0, pretend = 0, frame = 0
 324              		@ frame_needed = 0, uses_anonymous_args = 0
 290:HANcoder_E407_TTA_CombineModel.c ****   g_dsp_internal_SlidingWindowAve *obj;
 325              		.loc 1 290 3 view .LVU81
 291:HANcoder_E407_TTA_CombineModel.c ****   int32_T i;
 326              		.loc 1 291 3 view .LVU82
 292:HANcoder_E407_TTA_CombineModel.c **** 
 293:HANcoder_E407_TTA_CombineModel.c ****   /* InitializeConditions for MATLABSystem: '<S78>/Moving Average' */
 294:HANcoder_E407_TTA_CombineModel.c ****   obj = localDW->obj.pStatistic;
 327              		.loc 1 294 3 view .LVU83
 289:HANcoder_E407_TTA_CombineModel.c ****   g_dsp_internal_SlidingWindowAve *obj;
 328              		.loc 1 289 1 is_stmt 0 view .LVU84
 329 0000 38B5     		push	{r3, r4, r5, lr}
 330              		.cfi_def_cfa_offset 16
 331              		.cfi_offset 3, -16
 332              		.cfi_offset 4, -12
 333              		.cfi_offset 5, -8
 334              		.cfi_offset 14, -4
 335              		.loc 1 294 7 view .LVU85
 336 0002 C46A     		ldr	r4, [r0, #44]
 337              	.LVL17:
 295:HANcoder_E407_TTA_CombineModel.c ****   if (obj->isInitialized == 1) {
 338              		.loc 1 295 3 is_stmt 1 view .LVU86
 339              		.loc 1 295 6 is_stmt 0 view .LVU87
 340 0004 2368     		ldr	r3, [r4]
 341 0006 012B     		cmp	r3, #1
 342 0008 00D0     		beq	.L26
 296:HANcoder_E407_TTA_CombineModel.c ****     obj->pCumSum = 0.0F;
 297:HANcoder_E407_TTA_CombineModel.c ****     for (i = 0; i < 9; i++) {
 298:HANcoder_E407_TTA_CombineModel.c ****       obj->pCumSumRev[i] = 0.0F;
 299:HANcoder_E407_TTA_CombineModel.c ****     }
 300:HANcoder_E407_TTA_CombineModel.c **** 
 301:HANcoder_E407_TTA_CombineModel.c ****     obj->pCumRevIndex = 1.0F;
 302:HANcoder_E407_TTA_CombineModel.c ****     obj->pModValueRev = 0.0F;
 303:HANcoder_E407_TTA_CombineModel.c ****   }
 304:HANcoder_E407_TTA_CombineModel.c **** 
 305:HANcoder_E407_TTA_CombineModel.c ****   /* End of InitializeConditions for MATLABSystem: '<S78>/Moving Average' */
 306:HANcoder_E407_TTA_CombineModel.c **** }
 343              		.loc 1 306 1 view .LVU88
 344 000a 38BD     		pop	{r3, r4, r5, pc}
 345              	.LVL18:
 346              	.L26:
 296:HANcoder_E407_TTA_CombineModel.c ****     obj->pCumSum = 0.0F;
 347              		.loc 1 296 5 is_stmt 1 view .LVU89
 296:HANcoder_E407_TTA_CombineModel.c ****     obj->pCumSum = 0.0F;
 348              		.loc 1 296 18 is_stmt 0 view .LVU90
 349 000c 0025     		movs	r5, #0
 298:HANcoder_E407_TTA_CombineModel.c ****     }
 350              		.loc 1 298 26 view .LVU91
 351 000e 2422     		movs	r2, #36
 296:HANcoder_E407_TTA_CombineModel.c ****     obj->pCumSum = 0.0F;
 352              		.loc 1 296 18 view .LVU92
 353 0010 A560     		str	r5, [r4, #8]	@ float
 297:HANcoder_E407_TTA_CombineModel.c ****       obj->pCumSumRev[i] = 0.0F;
 354              		.loc 1 297 5 is_stmt 1 view .LVU93
 355              	.LVL19:
 297:HANcoder_E407_TTA_CombineModel.c ****       obj->pCumSumRev[i] = 0.0F;
 356              		.loc 1 297 17 view .LVU94
 298:HANcoder_E407_TTA_CombineModel.c ****     }
 357              		.loc 1 298 26 is_stmt 0 view .LVU95
 358 0012 0021     		movs	r1, #0
 359 0014 04F10C00 		add	r0, r4, #12
 360              	.LVL20:
 298:HANcoder_E407_TTA_CombineModel.c ****     }
 361              		.loc 1 298 26 view .LVU96
 362 0018 FFF7FEFF 		bl	memset
 363              	.LVL21:
 301:HANcoder_E407_TTA_CombineModel.c ****     obj->pModValueRev = 0.0F;
 364              		.loc 1 301 5 is_stmt 1 view .LVU97
 301:HANcoder_E407_TTA_CombineModel.c ****     obj->pModValueRev = 0.0F;
 365              		.loc 1 301 23 is_stmt 0 view .LVU98
 366 001c 4FF07E53 		mov	r3, #1065353216
 367 0020 2363     		str	r3, [r4, #48]	@ float
 302:HANcoder_E407_TTA_CombineModel.c ****   }
 368              		.loc 1 302 5 is_stmt 1 view .LVU99
 302:HANcoder_E407_TTA_CombineModel.c ****   }
 369              		.loc 1 302 23 is_stmt 0 view .LVU100
 370 0022 6563     		str	r5, [r4, #52]	@ float
 371              		.loc 1 306 1 view .LVU101
 372 0024 38BD     		pop	{r3, r4, r5, pc}
 373              		.loc 1 306 1 view .LVU102
 374              		.cfi_endproc
 375              	.LFE117:
 377 0026 00BF     		.section	.text.MovingAverage_Start,"ax",%progbits
 378              		.align	1
 379              		.p2align 2,,3
 380              		.global	MovingAverage_Start
 381              		.syntax unified
 382              		.thumb
 383              		.thumb_func
 385              	MovingAverage_Start:
 386              	.LVL22:
 387              	.LFB118:
 307:HANcoder_E407_TTA_CombineModel.c **** 
 308:HANcoder_E407_TTA_CombineModel.c **** /* Start for atomic system: */
 309:HANcoder_E407_TTA_CombineModel.c **** void MovingAverage_Start(rtDW_MovingAverage *localDW)
 310:HANcoder_E407_TTA_CombineModel.c **** {
 388              		.loc 1 310 1 is_stmt 1 view -0
 389              		.cfi_startproc
 390              		@ args = 0, pretend = 0, frame = 0
 391              		@ frame_needed = 0, uses_anonymous_args = 0
 392              		@ link register save eliminated.
 311:HANcoder_E407_TTA_CombineModel.c ****   /* Start for MATLABSystem: '<S78>/Moving Average' */
 312:HANcoder_E407_TTA_CombineModel.c ****   localDW->obj.isInitialized = 0;
 393              		.loc 1 312 3 view .LVU104
 313:HANcoder_E407_TTA_CombineModel.c ****   localDW->obj.NumChannels = -1;
 394              		.loc 1 313 3 view .LVU105
 314:HANcoder_E407_TTA_CombineModel.c ****   localDW->obj.FrameLength = -1;
 395              		.loc 1 314 3 view .LVU106
 315:HANcoder_E407_TTA_CombineModel.c ****   localDW->obj.matlabCodegenIsDeleted = false;
 396              		.loc 1 315 3 view .LVU107
 397              	.LBB202:
 398              	.LBB203:
 280:HANcoder_E407_TTA_CombineModel.c ****   obj->_pobj0.isInitialized = 0;
 399              		.loc 1 280 29 is_stmt 0 view .LVU108
 400 0000 0246     		mov	r2, r0
 401              	.LBE203:
 402              	.LBE202:
 316:HANcoder_E407_TTA_CombineModel.c ****   localDW->objisempty = true;
 403              		.loc 1 316 23 view .LVU109
 404 0002 0123     		movs	r3, #1
 315:HANcoder_E407_TTA_CombineModel.c ****   localDW->obj.matlabCodegenIsDeleted = false;
 405              		.loc 1 315 39 view .LVU110
 406 0004 0021     		movs	r1, #0
 407              	.LBB206:
 408              	.LBB204:
 279:HANcoder_E407_TTA_CombineModel.c ****   obj->_pobj0.isInitialized = 0;
 409              		.loc 1 279 20 view .LVU111
 410 0006 C0E90C33 		strd	r3, r3, [r0, #48]
 411              	.LBE204:
 412              	.LBE206:
 315:HANcoder_E407_TTA_CombineModel.c ****   localDW->objisempty = true;
 413              		.loc 1 315 39 view .LVU112
 414 000a 0170     		strb	r1, [r0]
 415              		.loc 1 316 3 is_stmt 1 view .LVU113
 416              		.loc 1 316 23 is_stmt 0 view .LVU114
 417 000c 80F87030 		strb	r3, [r0, #112]
 317:HANcoder_E407_TTA_CombineModel.c ****   SystemCore_setup(&localDW->obj);
 418              		.loc 1 317 3 is_stmt 1 view .LVU115
 419              	.LVL23:
 420              	.LBB207:
 421              	.LBI202:
 274:HANcoder_E407_TTA_CombineModel.c **** {
 422              		.loc 1 274 13 view .LVU116
 423              	.LBB205:
 276:HANcoder_E407_TTA_CombineModel.c ****   obj->isInitialized = 1;
 424              		.loc 1 276 3 view .LVU117
 277:HANcoder_E407_TTA_CombineModel.c ****   obj->NumChannels = 1;
 425              		.loc 1 277 3 view .LVU118
 278:HANcoder_E407_TTA_CombineModel.c ****   obj->FrameLength = 1;
 426              		.loc 1 278 3 view .LVU119
 280:HANcoder_E407_TTA_CombineModel.c ****   obj->_pobj0.isInitialized = 0;
 427              		.loc 1 280 3 view .LVU120
 280:HANcoder_E407_TTA_CombineModel.c ****   obj->_pobj0.isInitialized = 0;
 428              		.loc 1 280 29 is_stmt 0 view .LVU121
 429 0010 42F8381F 		str	r1, [r2, #56]!
 281:HANcoder_E407_TTA_CombineModel.c ****   obj->pStatistic = &obj->_pobj0;
 430              		.loc 1 281 3 is_stmt 1 view .LVU122
 282:HANcoder_E407_TTA_CombineModel.c ****   obj->isSetupComplete = true;
 431              		.loc 1 282 3 view .LVU123
 277:HANcoder_E407_TTA_CombineModel.c ****   obj->NumChannels = 1;
 432              		.loc 1 277 22 is_stmt 0 view .LVU124
 433 0014 4360     		str	r3, [r0, #4]
 282:HANcoder_E407_TTA_CombineModel.c ****   obj->isSetupComplete = true;
 434              		.loc 1 282 19 view .LVU125
 435 0016 C262     		str	r2, [r0, #44]
 283:HANcoder_E407_TTA_CombineModel.c ****   obj->TunablePropsChanged = false;
 436              		.loc 1 283 3 is_stmt 1 view .LVU126
 284:HANcoder_E407_TTA_CombineModel.c **** }
 437              		.loc 1 284 3 view .LVU127
 283:HANcoder_E407_TTA_CombineModel.c ****   obj->TunablePropsChanged = false;
 438              		.loc 1 283 24 is_stmt 0 view .LVU128
 439 0018 0381     		strh	r3, [r0, #8]	@ movhi
 440              	.LVL24:
 283:HANcoder_E407_TTA_CombineModel.c ****   obj->TunablePropsChanged = false;
 441              		.loc 1 283 24 view .LVU129
 442              	.LBE205:
 443              	.LBE207:
 318:HANcoder_E407_TTA_CombineModel.c **** }
 444              		.loc 1 318 1 view .LVU130
 445 001a 7047     		bx	lr
 446              		.cfi_endproc
 447              	.LFE118:
 449              		.section	.text.MovingAverage,"ax",%progbits
 450              		.align	1
 451              		.p2align 2,,3
 452              		.global	MovingAverage
 453              		.syntax unified
 454              		.thumb
 455              		.thumb_func
 457              	MovingAverage:
 458              	.LVL25:
 459              	.LFB119:
 319:HANcoder_E407_TTA_CombineModel.c **** 
 320:HANcoder_E407_TTA_CombineModel.c **** /* Output and update for atomic system: */
 321:HANcoder_E407_TTA_CombineModel.c **** void MovingAverage(real32_T rtu_0, rtB_MovingAverage *localB, rtDW_MovingAverage
 322:HANcoder_E407_TTA_CombineModel.c ****                    *localDW)
 323:HANcoder_E407_TTA_CombineModel.c **** {
 460              		.loc 1 323 1 is_stmt 1 view -0
 461              		.cfi_startproc
 462              		@ args = 0, pretend = 0, frame = 40
 463              		@ frame_needed = 0, uses_anonymous_args = 0
 324:HANcoder_E407_TTA_CombineModel.c ****   g_dsp_internal_SlidingWindowAve *obj;
 464              		.loc 1 324 3 view .LVU132
 325:HANcoder_E407_TTA_CombineModel.c ****   int32_T i;
 465              		.loc 1 325 3 view .LVU133
 326:HANcoder_E407_TTA_CombineModel.c ****   real32_T csumrev[9];
 466              		.loc 1 326 3 view .LVU134
 327:HANcoder_E407_TTA_CombineModel.c ****   real32_T csum;
 467              		.loc 1 327 3 view .LVU135
 328:HANcoder_E407_TTA_CombineModel.c ****   real32_T cumRevIndex;
 468              		.loc 1 328 3 view .LVU136
 329:HANcoder_E407_TTA_CombineModel.c ****   real32_T modValueRev;
 469              		.loc 1 329 3 view .LVU137
 330:HANcoder_E407_TTA_CombineModel.c ****   real32_T z;
 470              		.loc 1 330 3 view .LVU138
 331:HANcoder_E407_TTA_CombineModel.c **** 
 332:HANcoder_E407_TTA_CombineModel.c ****   /* MATLABSystem: '<S78>/Moving Average' */
 333:HANcoder_E407_TTA_CombineModel.c ****   if (localDW->obj.TunablePropsChanged) {
 471              		.loc 1 333 3 view .LVU139
 323:HANcoder_E407_TTA_CombineModel.c ****   g_dsp_internal_SlidingWindowAve *obj;
 472              		.loc 1 323 1 is_stmt 0 view .LVU140
 473 0000 2DE9F047 		push	{r4, r5, r6, r7, r8, r9, r10, lr}
 474              		.cfi_def_cfa_offset 32
 475              		.cfi_offset 4, -32
 476              		.cfi_offset 5, -28
 477              		.cfi_offset 6, -24
 478              		.cfi_offset 7, -20
 479              		.cfi_offset 8, -16
 480              		.cfi_offset 9, -12
 481              		.cfi_offset 10, -8
 482              		.cfi_offset 14, -4
 483 0004 2DED028B 		vpush.64	{d8}
 484              		.cfi_def_cfa_offset 40
 485              		.cfi_offset 80, -40
 486              		.cfi_offset 81, -36
 487              		.loc 1 333 6 view .LVU141
 488 0008 537A     		ldrb	r3, [r2, #9]	@ zero_extendqisi2
 323:HANcoder_E407_TTA_CombineModel.c ****   g_dsp_internal_SlidingWindowAve *obj;
 489              		.loc 1 323 1 view .LVU142
 490 000a 08EE100A 		vmov	s16, r0
 491 000e 8AB0     		sub	sp, sp, #40
 492              		.cfi_def_cfa_offset 80
 323:HANcoder_E407_TTA_CombineModel.c ****   g_dsp_internal_SlidingWindowAve *obj;
 493              		.loc 1 323 1 view .LVU143
 494 0010 0F46     		mov	r7, r1
 495              		.loc 1 333 6 view .LVU144
 496 0012 0BB1     		cbz	r3, .L29
 334:HANcoder_E407_TTA_CombineModel.c ****     localDW->obj.TunablePropsChanged = false;
 497              		.loc 1 334 5 is_stmt 1 view .LVU145
 498              		.loc 1 334 38 is_stmt 0 view .LVU146
 499 0014 0023     		movs	r3, #0
 500 0016 5372     		strb	r3, [r2, #9]
 501              	.L29:
 335:HANcoder_E407_TTA_CombineModel.c ****   }
 336:HANcoder_E407_TTA_CombineModel.c **** 
 337:HANcoder_E407_TTA_CombineModel.c ****   obj = localDW->obj.pStatistic;
 502              		.loc 1 337 3 is_stmt 1 view .LVU147
 503              		.loc 1 337 7 is_stmt 0 view .LVU148
 504 0018 D56A     		ldr	r5, [r2, #44]
 505              	.LVL26:
 338:HANcoder_E407_TTA_CombineModel.c ****   if (obj->isInitialized != 1) {
 506              		.loc 1 338 3 is_stmt 1 view .LVU149
 507              		.loc 1 338 6 is_stmt 0 view .LVU150
 508 001a 2B68     		ldr	r3, [r5]
 509 001c 012B     		cmp	r3, #1
 510 001e 00F08380 		beq	.L30
 339:HANcoder_E407_TTA_CombineModel.c ****     obj->isSetupComplete = false;
 511              		.loc 1 339 5 is_stmt 1 view .LVU151
 340:HANcoder_E407_TTA_CombineModel.c ****     obj->isInitialized = 1;
 512              		.loc 1 340 5 view .LVU152
 341:HANcoder_E407_TTA_CombineModel.c ****     obj->pCumSum = 0.0F;
 513              		.loc 1 341 18 is_stmt 0 view .LVU153
 514 0022 0022     		movs	r2, #0
 515              	.LVL27:
 340:HANcoder_E407_TTA_CombineModel.c ****     obj->isInitialized = 1;
 516              		.loc 1 340 24 view .LVU154
 517 0024 0123     		movs	r3, #1
 342:HANcoder_E407_TTA_CombineModel.c ****     for (i = 0; i < 9; i++) {
 343:HANcoder_E407_TTA_CombineModel.c ****       obj->pCumSumRev[i] = 0.0F;
 344:HANcoder_E407_TTA_CombineModel.c ****     }
 345:HANcoder_E407_TTA_CombineModel.c **** 
 346:HANcoder_E407_TTA_CombineModel.c ****     obj->pCumRevIndex = 1.0F;
 347:HANcoder_E407_TTA_CombineModel.c ****     obj->pModValueRev = 0.0F;
 348:HANcoder_E407_TTA_CombineModel.c ****     obj->isSetupComplete = true;
 349:HANcoder_E407_TTA_CombineModel.c ****     obj->pCumSum = 0.0F;
 350:HANcoder_E407_TTA_CombineModel.c ****     for (i = 0; i < 9; i++) {
 351:HANcoder_E407_TTA_CombineModel.c ****       obj->pCumSumRev[i] = 0.0F;
 518              		.loc 1 351 26 view .LVU155
 519 0026 05F10C0C 		add	ip, r5, #12
 346:HANcoder_E407_TTA_CombineModel.c ****     obj->pModValueRev = 0.0F;
 520              		.loc 1 346 23 view .LVU156
 521 002a 4FF07E51 		mov	r1, #1065353216
 522              	.LVL28:
 341:HANcoder_E407_TTA_CombineModel.c ****     obj->pCumSum = 0.0F;
 523              		.loc 1 341 18 view .LVU157
 524 002e AA60     		str	r2, [r5, #8]	@ float
 346:HANcoder_E407_TTA_CombineModel.c ****     obj->pModValueRev = 0.0F;
 525              		.loc 1 346 23 view .LVU158
 526 0030 2963     		str	r1, [r5, #48]	@ float
 347:HANcoder_E407_TTA_CombineModel.c ****     obj->isSetupComplete = true;
 527              		.loc 1 347 23 view .LVU159
 528 0032 6A63     		str	r2, [r5, #52]	@ float
 529              		.loc 1 351 26 view .LVU160
 530 0034 6046     		mov	r0, ip
 531              	.LVL29:
 340:HANcoder_E407_TTA_CombineModel.c ****     obj->pCumSum = 0.0F;
 532              		.loc 1 340 24 view .LVU161
 533 0036 2B60     		str	r3, [r5]
 341:HANcoder_E407_TTA_CombineModel.c ****     for (i = 0; i < 9; i++) {
 534              		.loc 1 341 5 is_stmt 1 view .LVU162
 342:HANcoder_E407_TTA_CombineModel.c ****       obj->pCumSumRev[i] = 0.0F;
 535              		.loc 1 342 5 view .LVU163
 536              	.LVL30:
 342:HANcoder_E407_TTA_CombineModel.c ****       obj->pCumSumRev[i] = 0.0F;
 537              		.loc 1 342 17 view .LVU164
 346:HANcoder_E407_TTA_CombineModel.c ****     obj->pModValueRev = 0.0F;
 538              		.loc 1 346 5 view .LVU165
 347:HANcoder_E407_TTA_CombineModel.c ****     obj->isSetupComplete = true;
 539              		.loc 1 347 5 view .LVU166
 348:HANcoder_E407_TTA_CombineModel.c ****     obj->pCumSum = 0.0F;
 540              		.loc 1 348 5 view .LVU167
 348:HANcoder_E407_TTA_CombineModel.c ****     obj->pCumSum = 0.0F;
 541              		.loc 1 348 26 is_stmt 0 view .LVU168
 542 0038 2B71     		strb	r3, [r5, #4]
 349:HANcoder_E407_TTA_CombineModel.c ****     for (i = 0; i < 9; i++) {
 543              		.loc 1 349 5 is_stmt 1 view .LVU169
 350:HANcoder_E407_TTA_CombineModel.c ****       obj->pCumSumRev[i] = 0.0F;
 544              		.loc 1 350 5 view .LVU170
 545              	.LVL31:
 350:HANcoder_E407_TTA_CombineModel.c ****       obj->pCumSumRev[i] = 0.0F;
 546              		.loc 1 350 17 view .LVU171
 547              		.loc 1 351 26 is_stmt 0 view .LVU172
 548 003a 2422     		movs	r2, #36
 549 003c 0021     		movs	r1, #0
 550 003e FFF7FEFF 		bl	memset
 551              	.LVL32:
 352:HANcoder_E407_TTA_CombineModel.c ****     }
 353:HANcoder_E407_TTA_CombineModel.c **** 
 354:HANcoder_E407_TTA_CombineModel.c ****     obj->pCumRevIndex = 1.0F;
 355:HANcoder_E407_TTA_CombineModel.c ****     obj->pModValueRev = 0.0F;
 356:HANcoder_E407_TTA_CombineModel.c ****   }
 357:HANcoder_E407_TTA_CombineModel.c **** 
 358:HANcoder_E407_TTA_CombineModel.c ****   cumRevIndex = obj->pCumRevIndex;
 552              		.loc 1 358 3 is_stmt 1 view .LVU173
 359:HANcoder_E407_TTA_CombineModel.c ****   csum = obj->pCumSum;
 553              		.loc 1 359 3 view .LVU174
 360:HANcoder_E407_TTA_CombineModel.c ****   for (i = 0; i < 9; i++) {
 554              		.loc 1 360 3 view .LVU175
 555              		.loc 1 360 15 view .LVU176
 361:HANcoder_E407_TTA_CombineModel.c ****     csumrev[i] = obj->pCumSumRev[i];
 556              		.loc 1 361 16 is_stmt 0 view .LVU177
 557 0042 01AE     		add	r6, sp, #4
 558 0044 8446     		mov	ip, r0
 559 0046 0446     		mov	r4, r0
 560 0048 B046     		mov	r8, r6
 561 004a 05F12C09 		add	r9, r5, #44
 562              	.LVL33:
 563              	.L31:
 564              		.loc 1 361 16 view .LVU178
 565 004e 2068     		ldr	r0, [r4]	@ unaligned
 566 0050 6168     		ldr	r1, [r4, #4]	@ unaligned
 567 0052 A268     		ldr	r2, [r4, #8]	@ unaligned
 568 0054 E368     		ldr	r3, [r4, #12]	@ unaligned
 569 0056 1034     		adds	r4, r4, #16
 570 0058 C646     		mov	lr, r8
 571 005a 4C45     		cmp	r4, r9
 572 005c AEE80F00 		stmia	lr!, {r0, r1, r2, r3}
 573 0060 08F11008 		add	r8, r8, #16
 574 0064 F3D1     		bne	.L31
 362:HANcoder_E407_TTA_CombineModel.c ****   }
 363:HANcoder_E407_TTA_CombineModel.c **** 
 364:HANcoder_E407_TTA_CombineModel.c ****   modValueRev = obj->pModValueRev;
 365:HANcoder_E407_TTA_CombineModel.c ****   z = 0.0F;
 366:HANcoder_E407_TTA_CombineModel.c **** 
 367:HANcoder_E407_TTA_CombineModel.c ****   /* MATLABSystem: '<S78>/Moving Average' */
 368:HANcoder_E407_TTA_CombineModel.c ****   localB->MovingAverage_n = 0.0F;
 575              		.loc 1 368 27 view .LVU179
 576 0066 DFED547A 		vldr.32	s15, .L54
 361:HANcoder_E407_TTA_CombineModel.c ****     csumrev[i] = obj->pCumSumRev[i];
 577              		.loc 1 361 16 view .LVU180
 578 006a 2068     		ldr	r0, [r4]	@ unaligned
 579 006c C8F80000 		str	r0, [r8]
 580              	.LVL34:
 364:HANcoder_E407_TTA_CombineModel.c ****   z = 0.0F;
 581              		.loc 1 364 3 is_stmt 1 view .LVU181
 365:HANcoder_E407_TTA_CombineModel.c **** 
 582              		.loc 1 365 3 view .LVU182
 583              		.loc 1 368 3 view .LVU183
 369:HANcoder_E407_TTA_CombineModel.c **** 
 370:HANcoder_E407_TTA_CombineModel.c ****   /* MATLABSystem: '<S78>/Moving Average' */
 371:HANcoder_E407_TTA_CombineModel.c ****   csum += rtu_0;
 584              		.loc 1 371 8 is_stmt 0 view .LVU184
 585 0070 38EE277A 		vadd.f32	s14, s16, s15
 586 0074 F0EE676A 		vmov.f32	s13, s15
 368:HANcoder_E407_TTA_CombineModel.c **** 
 587              		.loc 1 368 27 view .LVU185
 588 0078 C7ED007A 		vstr.32	s15, [r7]
 589              		.loc 1 371 3 is_stmt 1 view .LVU186
 590              	.LVL35:
 372:HANcoder_E407_TTA_CombineModel.c ****   if (modValueRev == 0.0F) {
 591              		.loc 1 372 3 view .LVU187
 371:HANcoder_E407_TTA_CombineModel.c ****   if (modValueRev == 0.0F) {
 592              		.loc 1 371 8 is_stmt 0 view .LVU188
 593 007c 4FF00009 		mov	r9, #0
 594 0080 F7EE007A 		vmov.f32	s15, #1.0e+0
 595              	.LVL36:
 596              	.L32:
 373:HANcoder_E407_TTA_CombineModel.c ****     z = csumrev[(int32_T)cumRevIndex - 1] + csum;
 597              		.loc 1 373 5 is_stmt 1 view .LVU189
 598              		.loc 1 373 16 is_stmt 0 view .LVU190
 599 0084 0AAB     		add	r3, sp, #40
 600 0086 03EB8903 		add	r3, r3, r9, lsl #2
 601              		.loc 1 373 7 view .LVU191
 602 008a 13ED096A 		vldr.32	s12, [r3, #-36]
 603 008e 37EE066A 		vadd.f32	s12, s14, s12
 604              	.LVL37:
 605              		.loc 1 373 16 view .LVU192
 606 0092 4FEA8909 		lsl	r9, r9, #2
 607              	.LVL38:
 608              	.L34:
 374:HANcoder_E407_TTA_CombineModel.c ****   }
 375:HANcoder_E407_TTA_CombineModel.c **** 
 376:HANcoder_E407_TTA_CombineModel.c ****   csumrev[(int32_T)cumRevIndex - 1] = rtu_0;
 609              		.loc 1 376 3 is_stmt 1 view .LVU193
 377:HANcoder_E407_TTA_CombineModel.c ****   if (cumRevIndex != 9.0F) {
 610              		.loc 1 377 6 is_stmt 0 view .LVU194
 611 0096 F2EE025A 		vmov.f32	s11, #9.0e+0
 376:HANcoder_E407_TTA_CombineModel.c ****   if (cumRevIndex != 9.0F) {
 612              		.loc 1 376 37 view .LVU195
 613 009a 09F12803 		add	r3, r9, #40
 614              		.loc 1 377 6 view .LVU196
 615 009e F4EE657A 		vcmp.f32	s15, s11
 376:HANcoder_E407_TTA_CombineModel.c ****   if (cumRevIndex != 9.0F) {
 616              		.loc 1 376 37 view .LVU197
 617 00a2 0DEB0309 		add	r9, sp, r3
 618              		.loc 1 377 6 view .LVU198
 619 00a6 F1EE10FA 		vmrs	APSR_nzcv, FPSCR
 376:HANcoder_E407_TTA_CombineModel.c ****   if (cumRevIndex != 9.0F) {
 620              		.loc 1 376 37 view .LVU199
 621 00aa 09ED098A 		vstr.32	s16, [r9, #-36]
 622              		.loc 1 377 3 is_stmt 1 view .LVU200
 623              		.loc 1 377 6 is_stmt 0 view .LVU201
 624 00ae 71D0     		beq	.L35
 378:HANcoder_E407_TTA_CombineModel.c ****     cumRevIndex++;
 625              		.loc 1 378 5 is_stmt 1 view .LVU202
 626              		.loc 1 378 16 is_stmt 0 view .LVU203
 627 00b0 F7EE005A 		vmov.f32	s11, #1.0e+0
 628 00b4 77EEA57A 		vadd.f32	s15, s15, s11
 629              	.LVL39:
 630              		.loc 1 378 16 view .LVU204
 631 00b8 0DF12408 		add	r8, sp, #36
 632              	.LVL40:
 633              	.L36:
 379:HANcoder_E407_TTA_CombineModel.c ****   } else {
 380:HANcoder_E407_TTA_CombineModel.c ****     cumRevIndex = 1.0F;
 381:HANcoder_E407_TTA_CombineModel.c ****     csum = 0.0F;
 382:HANcoder_E407_TTA_CombineModel.c ****     for (i = 7; i >= 0; i--) {
 383:HANcoder_E407_TTA_CombineModel.c ****       csumrev[i] += csumrev[i + 1];
 384:HANcoder_E407_TTA_CombineModel.c ****     }
 385:HANcoder_E407_TTA_CombineModel.c ****   }
 386:HANcoder_E407_TTA_CombineModel.c **** 
 387:HANcoder_E407_TTA_CombineModel.c ****   if (modValueRev == 0.0F) {
 634              		.loc 1 387 3 is_stmt 1 view .LVU205
 635              		.loc 1 387 6 is_stmt 0 view .LVU206
 636 00bc F5EE406A 		vcmp.f32	s13, #0
 637 00c0 F1EE10FA 		vmrs	APSR_nzcv, FPSCR
 638 00c4 05D1     		bne	.L38
 388:HANcoder_E407_TTA_CombineModel.c ****     /* MATLABSystem: '<S78>/Moving Average' */
 389:HANcoder_E407_TTA_CombineModel.c ****     localB->MovingAverage_n = z / 10.0F;
 639              		.loc 1 389 5 is_stmt 1 view .LVU207
 640              		.loc 1 389 33 is_stmt 0 view .LVU208
 641 00c6 B2EE045A 		vmov.f32	s10, #1.0e+1
 642 00ca C6EE055A 		vdiv.f32	s11, s12, s10
 643              		.loc 1 389 29 view .LVU209
 644 00ce C7ED005A 		vstr.32	s11, [r7]
 645              	.L38:
 390:HANcoder_E407_TTA_CombineModel.c ****   }
 391:HANcoder_E407_TTA_CombineModel.c **** 
 392:HANcoder_E407_TTA_CombineModel.c ****   obj->pCumSum = csum;
 646              		.loc 1 392 3 is_stmt 1 view .LVU210
 647              		.loc 1 392 16 is_stmt 0 view .LVU211
 648 00d2 85ED027A 		vstr.32	s14, [r5, #8]
 393:HANcoder_E407_TTA_CombineModel.c ****   for (i = 0; i < 9; i++) {
 649              		.loc 1 393 3 is_stmt 1 view .LVU212
 650              	.LVL41:
 651              		.loc 1 393 15 view .LVU213
 394:HANcoder_E407_TTA_CombineModel.c ****     obj->pCumSumRev[i] = csumrev[i];
 652              		.loc 1 394 24 is_stmt 0 view .LVU214
 653 00d6 3446     		mov	r4, r6
 654              	.L39:
 655 00d8 A646     		mov	lr, r4
 656 00da BEE80F00 		ldmia	lr!, {r0, r1, r2, r3}
 657 00de C645     		cmp	lr, r8
 658 00e0 0CF1100C 		add	ip, ip, #16
 659 00e4 7446     		mov	r4, lr
 660 00e6 4CF8100C 		str	r0, [ip, #-16]	@ unaligned
 661 00ea 4CF80C1C 		str	r1, [ip, #-12]	@ unaligned
 662 00ee 4CF8082C 		str	r2, [ip, #-8]	@ unaligned
 663 00f2 4CF8043C 		str	r3, [ip, #-4]	@ unaligned
 664 00f6 EFD1     		bne	.L39
 395:HANcoder_E407_TTA_CombineModel.c ****   }
 396:HANcoder_E407_TTA_CombineModel.c **** 
 397:HANcoder_E407_TTA_CombineModel.c ****   obj->pCumRevIndex = cumRevIndex;
 398:HANcoder_E407_TTA_CombineModel.c ****   if (modValueRev > 0.0F) {
 665              		.loc 1 398 6 view .LVU215
 666 00f8 F5EEC06A 		vcmpe.f32	s13, #0
 394:HANcoder_E407_TTA_CombineModel.c ****     obj->pCumSumRev[i] = csumrev[i];
 667              		.loc 1 394 24 view .LVU216
 668 00fc DEF80000 		ldr	r0, [lr]
 669 0100 CCF80000 		str	r0, [ip]	@ unaligned
 670              	.LVL42:
 397:HANcoder_E407_TTA_CombineModel.c ****   if (modValueRev > 0.0F) {
 671              		.loc 1 397 3 is_stmt 1 view .LVU217
 672              		.loc 1 398 6 is_stmt 0 view .LVU218
 673 0104 F1EE10FA 		vmrs	APSR_nzcv, FPSCR
 397:HANcoder_E407_TTA_CombineModel.c ****   if (modValueRev > 0.0F) {
 674              		.loc 1 397 21 view .LVU219
 675 0108 C5ED0C7A 		vstr.32	s15, [r5, #48]
 676              		.loc 1 398 3 is_stmt 1 view .LVU220
 399:HANcoder_E407_TTA_CombineModel.c ****     obj->pModValueRev = modValueRev - 1.0F;
 677              		.loc 1 399 5 view .LVU221
 678              		.loc 1 399 37 is_stmt 0 view .LVU222
 679 010c C6BF     		itte	gt
 680 010e F7EE007A 		vmovgt.f32	s15, #1.0e+0
 681              	.LVL43:
 682              		.loc 1 399 37 view .LVU223
 683 0112 76EEE76A 		vsubgt.f32	s13, s13, s15
 400:HANcoder_E407_TTA_CombineModel.c ****   } else {
 401:HANcoder_E407_TTA_CombineModel.c ****     obj->pModValueRev = 0.0F;
 684              		.loc 1 401 23 view .LVU224
 685 0116 DFED286A 		vldrle.32	s13, .L54
 686 011a C5ED0D6A 		vstr.32	s13, [r5, #52]
 402:HANcoder_E407_TTA_CombineModel.c ****   }
 403:HANcoder_E407_TTA_CombineModel.c **** }
 687              		.loc 1 403 1 view .LVU225
 688 011e 0AB0     		add	sp, sp, #40
 689              		.cfi_remember_state
 690              		.cfi_def_cfa_offset 40
 691              		@ sp needed
 692 0120 BDEC028B 		vldm	sp!, {d8}
 693              		.cfi_restore 80
 694              		.cfi_restore 81
 695              		.cfi_def_cfa_offset 32
 696              	.LVL44:
 697              		.loc 1 403 1 view .LVU226
 698 0124 BDE8F087 		pop	{r4, r5, r6, r7, r8, r9, r10, pc}
 699              	.LVL45:
 700              	.L30:
 701              		.cfi_restore_state
 358:HANcoder_E407_TTA_CombineModel.c ****   csum = obj->pCumSum;
 702              		.loc 1 358 15 view .LVU227
 703 0128 D5ED0C7A 		vldr.32	s15, [r5, #48]
 364:HANcoder_E407_TTA_CombineModel.c ****   z = 0.0F;
 704              		.loc 1 364 15 view .LVU228
 705 012c D5ED0D6A 		vldr.32	s13, [r5, #52]
 373:HANcoder_E407_TTA_CombineModel.c ****   }
 706              		.loc 1 373 17 view .LVU229
 707 0130 BDEEE77A 		vcvt.s32.f32	s14, s15
 708 0134 05F10C0C 		add	ip, r5, #12
 709 0138 17EE109A 		vmov	r9, s14	@ int
 361:HANcoder_E407_TTA_CombineModel.c ****   }
 710              		.loc 1 361 16 view .LVU230
 711 013c 01AE     		add	r6, sp, #4
 359:HANcoder_E407_TTA_CombineModel.c ****   for (i = 0; i < 9; i++) {
 712              		.loc 1 359 8 view .LVU231
 713 013e 95ED027A 		vldr.32	s14, [r5, #8]
 373:HANcoder_E407_TTA_CombineModel.c ****   }
 714              		.loc 1 373 38 view .LVU232
 715 0142 09F1FF39 		add	r9, r9, #-1
 358:HANcoder_E407_TTA_CombineModel.c ****   csum = obj->pCumSum;
 716              		.loc 1 358 3 is_stmt 1 view .LVU233
 717              	.LVL46:
 359:HANcoder_E407_TTA_CombineModel.c ****   for (i = 0; i < 9; i++) {
 718              		.loc 1 359 3 view .LVU234
 360:HANcoder_E407_TTA_CombineModel.c ****     csumrev[i] = obj->pCumSumRev[i];
 719              		.loc 1 360 3 view .LVU235
 360:HANcoder_E407_TTA_CombineModel.c ****     csumrev[i] = obj->pCumSumRev[i];
 720              		.loc 1 360 15 view .LVU236
 361:HANcoder_E407_TTA_CombineModel.c ****   }
 721              		.loc 1 361 16 is_stmt 0 view .LVU237
 722 0146 E646     		mov	lr, ip
 723 0148 B046     		mov	r8, r6
 724 014a 05F12C0A 		add	r10, r5, #44
 725              	.LVL47:
 726              	.L33:
 361:HANcoder_E407_TTA_CombineModel.c ****   }
 727              		.loc 1 361 16 view .LVU238
 728 014e DEF80000 		ldr	r0, [lr]	@ unaligned
 729 0152 DEF80410 		ldr	r1, [lr, #4]	@ unaligned
 730 0156 DEF80820 		ldr	r2, [lr, #8]	@ unaligned
 731 015a DEF80C30 		ldr	r3, [lr, #12]	@ unaligned
 732 015e 0EF1100E 		add	lr, lr, #16
 733 0162 4446     		mov	r4, r8
 734 0164 D645     		cmp	lr, r10
 735 0166 0FC4     		stmia	r4!, {r0, r1, r2, r3}
 736 0168 08F11008 		add	r8, r8, #16
 737 016c EFD1     		bne	.L33
 368:HANcoder_E407_TTA_CombineModel.c **** 
 738              		.loc 1 368 27 view .LVU239
 739 016e 9FED126A 		vldr.32	s12, .L54
 361:HANcoder_E407_TTA_CombineModel.c ****   }
 740              		.loc 1 361 16 view .LVU240
 741 0172 DEF80000 		ldr	r0, [lr]	@ unaligned
 742 0176 C8F80000 		str	r0, [r8]
 743              	.LVL48:
 364:HANcoder_E407_TTA_CombineModel.c ****   z = 0.0F;
 744              		.loc 1 364 3 is_stmt 1 view .LVU241
 365:HANcoder_E407_TTA_CombineModel.c **** 
 745              		.loc 1 365 3 view .LVU242
 368:HANcoder_E407_TTA_CombineModel.c **** 
 746              		.loc 1 368 3 view .LVU243
 372:HANcoder_E407_TTA_CombineModel.c ****     z = csumrev[(int32_T)cumRevIndex - 1] + csum;
 747              		.loc 1 372 6 is_stmt 0 view .LVU244
 748 017a F4EE466A 		vcmp.f32	s13, s12
 749 017e F1EE10FA 		vmrs	APSR_nzcv, FPSCR
 371:HANcoder_E407_TTA_CombineModel.c ****   if (modValueRev == 0.0F) {
 750              		.loc 1 371 8 view .LVU245
 751 0182 37EE087A 		vadd.f32	s14, s14, s16
 752              	.LVL49:
 368:HANcoder_E407_TTA_CombineModel.c **** 
 753              		.loc 1 368 27 view .LVU246
 754 0186 87ED006A 		vstr.32	s12, [r7]
 371:HANcoder_E407_TTA_CombineModel.c ****   if (modValueRev == 0.0F) {
 755              		.loc 1 371 3 is_stmt 1 view .LVU247
 756              	.LVL50:
 372:HANcoder_E407_TTA_CombineModel.c ****     z = csumrev[(int32_T)cumRevIndex - 1] + csum;
 757              		.loc 1 372 3 view .LVU248
 372:HANcoder_E407_TTA_CombineModel.c ****     z = csumrev[(int32_T)cumRevIndex - 1] + csum;
 758              		.loc 1 372 6 is_stmt 0 view .LVU249
 759 018a 3FF47BAF 		beq	.L32
 760 018e 4FEA8909 		lsl	r9, r9, #2
 761 0192 80E7     		b	.L34
 762              	.LVL51:
 763              	.L35:
 372:HANcoder_E407_TTA_CombineModel.c ****     z = csumrev[(int32_T)cumRevIndex - 1] + csum;
 764              		.loc 1 372 6 view .LVU250
 765 0194 0DF12408 		add	r8, sp, #36
 766 0198 4346     		mov	r3, r8
 767              	.LVL52:
 768              	.L37:
 383:HANcoder_E407_TTA_CombineModel.c ****     }
 769              		.loc 1 383 7 is_stmt 1 discriminator 3 view .LVU251
 383:HANcoder_E407_TTA_CombineModel.c ****     }
 770              		.loc 1 383 18 is_stmt 0 discriminator 3 view .LVU252
 771 019a 73ED017A 		vldmdb.32	r3!, {s15}
 772 019e 93ED017A 		vldr.32	s14, [r3, #4]
 773 01a2 77EE877A 		vadd.f32	s15, s15, s14
 382:HANcoder_E407_TTA_CombineModel.c ****       csumrev[i] += csumrev[i + 1];
 774              		.loc 1 382 5 discriminator 3 view .LVU253
 775 01a6 9E42     		cmp	r6, r3
 383:HANcoder_E407_TTA_CombineModel.c ****     }
 776              		.loc 1 383 18 discriminator 3 view .LVU254
 777 01a8 C3ED007A 		vstr.32	s15, [r3]
 382:HANcoder_E407_TTA_CombineModel.c ****       csumrev[i] += csumrev[i + 1];
 778              		.loc 1 382 25 is_stmt 1 discriminator 3 view .LVU255
 382:HANcoder_E407_TTA_CombineModel.c ****       csumrev[i] += csumrev[i + 1];
 779              		.loc 1 382 17 discriminator 3 view .LVU256
 382:HANcoder_E407_TTA_CombineModel.c ****       csumrev[i] += csumrev[i + 1];
 780              		.loc 1 382 5 is_stmt 0 discriminator 3 view .LVU257
 781 01ac F5D1     		bne	.L37
 381:HANcoder_E407_TTA_CombineModel.c ****     for (i = 7; i >= 0; i--) {
 782              		.loc 1 381 10 view .LVU258
 783 01ae 9FED027A 		vldr.32	s14, .L54
 380:HANcoder_E407_TTA_CombineModel.c ****     csum = 0.0F;
 784              		.loc 1 380 17 view .LVU259
 785 01b2 F7EE007A 		vmov.f32	s15, #1.0e+0
 786 01b6 81E7     		b	.L36
 787              	.L55:
 788              		.align	2
 789              	.L54:
 790 01b8 00000000 		.word	0
 791              		.cfi_endproc
 792              	.LFE119:
 794              		.section	.text.EnabledSubsystem,"ax",%progbits
 795              		.align	1
 796              		.p2align 2,,3
 797              		.global	EnabledSubsystem
 798              		.syntax unified
 799              		.thumb
 800              		.thumb_func
 802              	EnabledSubsystem:
 803              	.LVL53:
 804              	.LFB120:
 404:HANcoder_E407_TTA_CombineModel.c **** 
 405:HANcoder_E407_TTA_CombineModel.c **** /*
 406:HANcoder_E407_TTA_CombineModel.c ****  * Output and update for enable system:
 407:HANcoder_E407_TTA_CombineModel.c ****  *    '<S115>/Enabled Subsystem'
 408:HANcoder_E407_TTA_CombineModel.c ****  *    '<S118>/Enabled Subsystem'
 409:HANcoder_E407_TTA_CombineModel.c ****  *    '<S121>/Enabled Subsystem'
 410:HANcoder_E407_TTA_CombineModel.c ****  *    '<S127>/Enabled Subsystem'
 411:HANcoder_E407_TTA_CombineModel.c ****  *    '<S196>/Enabled Subsystem'
 412:HANcoder_E407_TTA_CombineModel.c ****  *    '<S243>/Enabled Subsystem'
 413:HANcoder_E407_TTA_CombineModel.c ****  *    '<S268>/Enabled Subsystem'
 414:HANcoder_E407_TTA_CombineModel.c ****  *    '<S315>/Enabled Subsystem'
 415:HANcoder_E407_TTA_CombineModel.c ****  *    '<S362>/Enabled Subsystem'
 416:HANcoder_E407_TTA_CombineModel.c ****  */
 417:HANcoder_E407_TTA_CombineModel.c **** void EnabledSubsystem(int8_T rtu_Enable, uint8_T rtu_In1, uint8_T rtu_In2,
 418:HANcoder_E407_TTA_CombineModel.c ****                       uint8_T rtu_In3, uint8_T rtu_In4, uint8_T rtu_In5, uint8_T
 419:HANcoder_E407_TTA_CombineModel.c ****                       rtu_In6, uint8_T rtu_In7, uint8_T rtu_In8,
 420:HANcoder_E407_TTA_CombineModel.c ****                       rtB_EnabledSubsystem *localB)
 421:HANcoder_E407_TTA_CombineModel.c **** {
 805              		.loc 1 421 1 is_stmt 1 view -0
 806              		.cfi_startproc
 807              		@ args = 24, pretend = 0, frame = 0
 808              		@ frame_needed = 0, uses_anonymous_args = 0
 422:HANcoder_E407_TTA_CombineModel.c ****   uint8_T rtb_In5;
 809              		.loc 1 422 3 view .LVU261
 423:HANcoder_E407_TTA_CombineModel.c ****   uint8_T rtb_In6;
 810              		.loc 1 423 3 view .LVU262
 424:HANcoder_E407_TTA_CombineModel.c ****   uint8_T rtb_In8;
 811              		.loc 1 424 3 view .LVU263
 425:HANcoder_E407_TTA_CombineModel.c **** 
 426:HANcoder_E407_TTA_CombineModel.c ****   /* Outputs for Enabled SubSystem: '<S115>/Enabled Subsystem' incorporates:
 427:HANcoder_E407_TTA_CombineModel.c ****    *  EnablePort: '<S116>/Enable'
 428:HANcoder_E407_TTA_CombineModel.c ****    */
 429:HANcoder_E407_TTA_CombineModel.c ****   if (rtu_Enable > 0) {
 812              		.loc 1 429 3 view .LVU264
 421:HANcoder_E407_TTA_CombineModel.c ****   uint8_T rtb_In5;
 813              		.loc 1 421 1 is_stmt 0 view .LVU265
 814 0000 10B5     		push	{r4, lr}
 815              		.cfi_def_cfa_offset 8
 816              		.cfi_offset 4, -8
 817              		.cfi_offset 14, -4
 818              		.loc 1 429 6 view .LVU266
 819 0002 0028     		cmp	r0, #0
 421:HANcoder_E407_TTA_CombineModel.c ****   uint8_T rtb_In5;
 820              		.loc 1 421 1 view .LVU267
 821 0004 9DF808E0 		ldrb	lr, [sp, #8]	@ zero_extendqisi2
 822 0008 9DF814C0 		ldrb	ip, [sp, #20]	@ zero_extendqisi2
 823 000c 079C     		ldr	r4, [sp, #28]
 824              		.loc 1 429 6 view .LVU268
 825 000e 06DD     		ble	.L56
 430:HANcoder_E407_TTA_CombineModel.c ****     /* SignalConversion generated from: '<S116>/In1' */
 431:HANcoder_E407_TTA_CombineModel.c ****     localB->In1 = rtu_In1;
 826              		.loc 1 431 5 is_stmt 1 view .LVU269
 827              		.loc 1 431 17 is_stmt 0 view .LVU270
 828 0010 2170     		strb	r1, [r4]
 432:HANcoder_E407_TTA_CombineModel.c **** 
 433:HANcoder_E407_TTA_CombineModel.c ****     /* SignalConversion generated from: '<S116>/In2' */
 434:HANcoder_E407_TTA_CombineModel.c ****     localB->In2 = rtu_In2;
 829              		.loc 1 434 5 is_stmt 1 view .LVU271
 830              		.loc 1 434 17 is_stmt 0 view .LVU272
 831 0012 6270     		strb	r2, [r4, #1]
 435:HANcoder_E407_TTA_CombineModel.c **** 
 436:HANcoder_E407_TTA_CombineModel.c ****     /* SignalConversion generated from: '<S116>/In3' */
 437:HANcoder_E407_TTA_CombineModel.c ****     localB->In3 = rtu_In3;
 832              		.loc 1 437 5 is_stmt 1 view .LVU273
 833              		.loc 1 437 17 is_stmt 0 view .LVU274
 834 0014 A370     		strb	r3, [r4, #2]
 438:HANcoder_E407_TTA_CombineModel.c **** 
 439:HANcoder_E407_TTA_CombineModel.c ****     /* SignalConversion generated from: '<S116>/In4' */
 440:HANcoder_E407_TTA_CombineModel.c ****     localB->In4 = rtu_In4;
 835              		.loc 1 440 5 is_stmt 1 view .LVU275
 836              		.loc 1 440 17 is_stmt 0 view .LVU276
 837 0016 84F803E0 		strb	lr, [r4, #3]
 441:HANcoder_E407_TTA_CombineModel.c **** 
 442:HANcoder_E407_TTA_CombineModel.c ****     /* SignalConversion generated from: '<S116>/In5' */
 443:HANcoder_E407_TTA_CombineModel.c ****     rtb_In5 = rtu_In5;
 838              		.loc 1 443 5 is_stmt 1 view .LVU277
 839              	.LVL54:
 444:HANcoder_E407_TTA_CombineModel.c **** 
 445:HANcoder_E407_TTA_CombineModel.c ****     /* SignalConversion generated from: '<S116>/In6' */
 446:HANcoder_E407_TTA_CombineModel.c ****     rtb_In6 = rtu_In6;
 840              		.loc 1 446 5 view .LVU278
 447:HANcoder_E407_TTA_CombineModel.c **** 
 448:HANcoder_E407_TTA_CombineModel.c ****     /* SignalConversion generated from: '<S116>/In7' */
 449:HANcoder_E407_TTA_CombineModel.c ****     localB->In7 = rtu_In7;
 841              		.loc 1 449 5 view .LVU279
 842              		.loc 1 449 17 is_stmt 0 view .LVU280
 843 001a 84F804C0 		strb	ip, [r4, #4]
 450:HANcoder_E407_TTA_CombineModel.c **** 
 451:HANcoder_E407_TTA_CombineModel.c ****     /* SignalConversion generated from: '<S116>/In8' */
 452:HANcoder_E407_TTA_CombineModel.c ****     rtb_In8 = rtu_In8;
 844              		.loc 1 452 5 is_stmt 1 view .LVU281
 845              	.LVL55:
 846              	.L56:
 453:HANcoder_E407_TTA_CombineModel.c ****   }
 454:HANcoder_E407_TTA_CombineModel.c **** 
 455:HANcoder_E407_TTA_CombineModel.c ****   /* End of Outputs for SubSystem: '<S115>/Enabled Subsystem' */
 456:HANcoder_E407_TTA_CombineModel.c **** }
 847              		.loc 1 456 1 is_stmt 0 view .LVU282
 848 001e 10BD     		pop	{r4, pc}
 849              		.loc 1 456 1 view .LVU283
 850              		.cfi_endproc
 851              	.LFE120:
 853              		.section	.text.MMBS1_RX_Disable,"ax",%progbits
 854              		.align	1
 855              		.p2align 2,,3
 856              		.global	MMBS1_RX_Disable
 857              		.syntax unified
 858              		.thumb
 859              		.thumb_func
 861              	MMBS1_RX_Disable:
 862              	.LVL56:
 863              	.LFB121:
 457:HANcoder_E407_TTA_CombineModel.c **** 
 458:HANcoder_E407_TTA_CombineModel.c **** /*
 459:HANcoder_E407_TTA_CombineModel.c ****  * Disable for enable system:
 460:HANcoder_E407_TTA_CombineModel.c ****  *    '<S13>/MMBS1_RX'
 461:HANcoder_E407_TTA_CombineModel.c ****  *    '<S13>/SSTM1_RX'
 462:HANcoder_E407_TTA_CombineModel.c ****  */
 463:HANcoder_E407_TTA_CombineModel.c **** void MMBS1_RX_Disable(rtDW_MMBS1_RX *localDW)
 464:HANcoder_E407_TTA_CombineModel.c **** {
 864              		.loc 1 464 1 is_stmt 1 view -0
 865              		.cfi_startproc
 866              		@ args = 0, pretend = 0, frame = 0
 867              		@ frame_needed = 0, uses_anonymous_args = 0
 868              		@ link register save eliminated.
 465:HANcoder_E407_TTA_CombineModel.c ****   localDW->MMBS1_RX_MODE = false;
 869              		.loc 1 465 3 view .LVU285
 870              		.loc 1 465 26 is_stmt 0 view .LVU286
 871 0000 0023     		movs	r3, #0
 872 0002 0370     		strb	r3, [r0]
 466:HANcoder_E407_TTA_CombineModel.c **** }
 873              		.loc 1 466 1 view .LVU287
 874 0004 7047     		bx	lr
 875              		.cfi_endproc
 876              	.LFE121:
 878 0006 00BF     		.section	.text.MMBS1_RX_Start,"ax",%progbits
 879              		.align	1
 880              		.p2align 2,,3
 881              		.global	MMBS1_RX_Start
 882              		.syntax unified
 883              		.thumb
 884              		.thumb_func
 886              	MMBS1_RX_Start:
 887              	.LVL57:
 888              	.LFB122:
 467:HANcoder_E407_TTA_CombineModel.c **** 
 468:HANcoder_E407_TTA_CombineModel.c **** /*
 469:HANcoder_E407_TTA_CombineModel.c ****  * Start for enable system:
 470:HANcoder_E407_TTA_CombineModel.c ****  *    '<S13>/MMBS1_RX'
 471:HANcoder_E407_TTA_CombineModel.c ****  *    '<S13>/SSTM1_RX'
 472:HANcoder_E407_TTA_CombineModel.c ****  */
 473:HANcoder_E407_TTA_CombineModel.c **** void MMBS1_RX_Start(uint32_T rtu_In1)
 474:HANcoder_E407_TTA_CombineModel.c **** {
 889              		.loc 1 474 1 is_stmt 1 view -0
 890              		.cfi_startproc
 891              		@ args = 0, pretend = 0, frame = 0
 892              		@ frame_needed = 0, uses_anonymous_args = 0
 893              		@ link register save eliminated.
 475:HANcoder_E407_TTA_CombineModel.c ****   /* Start for M-S-Function: '<S115>/S-Function' */
 476:HANcoder_E407_TTA_CombineModel.c **** 
 477:HANcoder_E407_TTA_CombineModel.c ****   /* register a CAN storage buffer for the message with this ID */
 478:HANcoder_E407_TTA_CombineModel.c ****   CanIoCreateMessageReceivedStorage(0, rtu_In1);
 894              		.loc 1 478 3 view .LVU289
 474:HANcoder_E407_TTA_CombineModel.c ****   /* Start for M-S-Function: '<S115>/S-Function' */
 895              		.loc 1 474 1 is_stmt 0 view .LVU290
 896 0000 0146     		mov	r1, r0
 897              		.loc 1 478 3 view .LVU291
 898 0002 0020     		movs	r0, #0
 899              	.LVL58:
 900              		.loc 1 478 3 view .LVU292
 901 0004 FFF7FEBF 		b	CanIoCreateMessageReceivedStorage
 902              	.LVL59:
 903              		.loc 1 478 3 view .LVU293
 904              		.cfi_endproc
 905              	.LFE122:
 907              		.section	.text.MMBS1_RX,"ax",%progbits
 908              		.align	1
 909              		.p2align 2,,3
 910              		.global	MMBS1_RX
 911              		.syntax unified
 912              		.thumb
 913              		.thumb_func
 915              	MMBS1_RX:
 916              	.LVL60:
 917              	.LFB123:
 479:HANcoder_E407_TTA_CombineModel.c **** }
 480:HANcoder_E407_TTA_CombineModel.c **** 
 481:HANcoder_E407_TTA_CombineModel.c **** /*
 482:HANcoder_E407_TTA_CombineModel.c ****  * Outputs for enable system:
 483:HANcoder_E407_TTA_CombineModel.c ****  *    '<S13>/MMBS1_RX'
 484:HANcoder_E407_TTA_CombineModel.c ****  *    '<S13>/SSTM1_RX'
 485:HANcoder_E407_TTA_CombineModel.c ****  */
 486:HANcoder_E407_TTA_CombineModel.c **** void MMBS1_RX(boolean_T rtu_Enable, uint32_T rtu_In1, rtB_MMBS1_RX *localB,
 487:HANcoder_E407_TTA_CombineModel.c ****               rtDW_MMBS1_RX *localDW)
 488:HANcoder_E407_TTA_CombineModel.c **** {
 918              		.loc 1 488 1 is_stmt 1 view -0
 919              		.cfi_startproc
 920              		@ args = 0, pretend = 0, frame = 0
 921              		@ frame_needed = 0, uses_anonymous_args = 0
 489:HANcoder_E407_TTA_CombineModel.c ****   /* local block i/o variables */
 490:HANcoder_E407_TTA_CombineModel.c ****   uint8_T rtb_SFunction_o2_n2;
 922              		.loc 1 490 3 view .LVU295
 491:HANcoder_E407_TTA_CombineModel.c ****   uint8_T rtb_SFunction_o3_b;
 923              		.loc 1 491 3 view .LVU296
 492:HANcoder_E407_TTA_CombineModel.c ****   uint8_T rtb_SFunction_o4_l;
 924              		.loc 1 492 3 view .LVU297
 493:HANcoder_E407_TTA_CombineModel.c ****   uint8_T rtb_SFunction_o5_e;
 925              		.loc 1 493 3 view .LVU298
 494:HANcoder_E407_TTA_CombineModel.c ****   uint8_T rtb_SFunction_o6_k;
 926              		.loc 1 494 3 view .LVU299
 495:HANcoder_E407_TTA_CombineModel.c ****   uint8_T rtb_SFunction_o7_dj;
 927              		.loc 1 495 3 view .LVU300
 496:HANcoder_E407_TTA_CombineModel.c ****   uint8_T rtb_SFunction_o8_n1;
 928              		.loc 1 496 3 view .LVU301
 497:HANcoder_E407_TTA_CombineModel.c ****   uint8_T rtb_SFunction_o9_ok;
 929              		.loc 1 497 3 view .LVU302
 498:HANcoder_E407_TTA_CombineModel.c ****   int8_T rtb_SFunction_o1_g;
 930              		.loc 1 498 3 view .LVU303
 499:HANcoder_E407_TTA_CombineModel.c **** 
 500:HANcoder_E407_TTA_CombineModel.c ****   /* Outputs for Enabled SubSystem: '<S13>/MMBS1_RX' incorporates:
 501:HANcoder_E407_TTA_CombineModel.c ****    *  EnablePort: '<S99>/Enable'
 502:HANcoder_E407_TTA_CombineModel.c ****    */
 503:HANcoder_E407_TTA_CombineModel.c ****   if (rtu_Enable) {
 931              		.loc 1 503 3 view .LVU304
 932              		.loc 1 503 6 is_stmt 0 view .LVU305
 933 0000 20B9     		cbnz	r0, .L73
 504:HANcoder_E407_TTA_CombineModel.c ****     localDW->MMBS1_RX_MODE = true;
 505:HANcoder_E407_TTA_CombineModel.c **** 
 506:HANcoder_E407_TTA_CombineModel.c ****     /* M-S-Function: '<S115>/S-Function' */
 507:HANcoder_E407_TTA_CombineModel.c **** 
 508:HANcoder_E407_TTA_CombineModel.c ****     /* read the message data and store the new parameter */
 509:HANcoder_E407_TTA_CombineModel.c ****     rtb_SFunction_o1_g = CanIoGetMessage(0, rtu_In1, NULL,
 510:HANcoder_E407_TTA_CombineModel.c ****       &canRxData_0_rtu_In1.uint8_T_info[0], NULL);
 511:HANcoder_E407_TTA_CombineModel.c **** 
 512:HANcoder_E407_TTA_CombineModel.c ****     /* process the message data */
 513:HANcoder_E407_TTA_CombineModel.c ****     if (rtb_SFunction_o1_g > 0) {
 514:HANcoder_E407_TTA_CombineModel.c ****       /* read the data */
 515:HANcoder_E407_TTA_CombineModel.c ****       rtb_SFunction_o2_n2 = canRxData_0_rtu_In1.uint8_T_info[0];
 516:HANcoder_E407_TTA_CombineModel.c ****       rtb_SFunction_o3_b = canRxData_0_rtu_In1.uint8_T_info[1];
 517:HANcoder_E407_TTA_CombineModel.c ****       rtb_SFunction_o4_l = canRxData_0_rtu_In1.uint8_T_info[2];
 518:HANcoder_E407_TTA_CombineModel.c ****       rtb_SFunction_o5_e = canRxData_0_rtu_In1.uint8_T_info[3];
 519:HANcoder_E407_TTA_CombineModel.c ****       rtb_SFunction_o6_k = canRxData_0_rtu_In1.uint8_T_info[4];
 520:HANcoder_E407_TTA_CombineModel.c ****       rtb_SFunction_o7_dj = canRxData_0_rtu_In1.uint8_T_info[5];
 521:HANcoder_E407_TTA_CombineModel.c ****       rtb_SFunction_o8_n1 = canRxData_0_rtu_In1.uint8_T_info[6];
 522:HANcoder_E407_TTA_CombineModel.c ****       rtb_SFunction_o9_ok = canRxData_0_rtu_In1.uint8_T_info[7];
 523:HANcoder_E407_TTA_CombineModel.c ****     }
 524:HANcoder_E407_TTA_CombineModel.c **** 
 525:HANcoder_E407_TTA_CombineModel.c ****     /* Outputs for Enabled SubSystem: '<S115>/Enabled Subsystem' */
 526:HANcoder_E407_TTA_CombineModel.c ****     EnabledSubsystem(rtb_SFunction_o1_g, rtb_SFunction_o2_n2, rtb_SFunction_o3_b,
 527:HANcoder_E407_TTA_CombineModel.c ****                      rtb_SFunction_o4_l, rtb_SFunction_o5_e, rtb_SFunction_o6_k,
 528:HANcoder_E407_TTA_CombineModel.c ****                      rtb_SFunction_o7_dj, rtb_SFunction_o8_n1,
 529:HANcoder_E407_TTA_CombineModel.c ****                      rtb_SFunction_o9_ok, &localB->EnabledSubsystem_k);
 530:HANcoder_E407_TTA_CombineModel.c **** 
 531:HANcoder_E407_TTA_CombineModel.c ****     /* End of Outputs for SubSystem: '<S115>/Enabled Subsystem' */
 532:HANcoder_E407_TTA_CombineModel.c ****   } else if (localDW->MMBS1_RX_MODE) {
 934              		.loc 1 532 10 is_stmt 1 view .LVU306
 935              		.loc 1 532 13 is_stmt 0 view .LVU307
 936 0002 1A78     		ldrb	r2, [r3]	@ zero_extendqisi2
 937              	.LVL61:
 938              		.loc 1 532 13 view .LVU308
 939 0004 0AB1     		cbz	r2, .L70
 533:HANcoder_E407_TTA_CombineModel.c ****     MMBS1_RX_Disable(localDW);
 940              		.loc 1 533 5 is_stmt 1 view .LVU309
 941              	.LVL62:
 942              	.LBB208:
 943              	.LBI208:
 463:HANcoder_E407_TTA_CombineModel.c **** {
 944              		.loc 1 463 6 view .LVU310
 945              	.LBB209:
 465:HANcoder_E407_TTA_CombineModel.c **** }
 946              		.loc 1 465 3 view .LVU311
 465:HANcoder_E407_TTA_CombineModel.c **** }
 947              		.loc 1 465 26 is_stmt 0 view .LVU312
 948 0006 1870     		strb	r0, [r3]
 949              	.LVL63:
 465:HANcoder_E407_TTA_CombineModel.c **** }
 950              		.loc 1 465 26 view .LVU313
 951              	.LBE209:
 952              	.LBE208:
 534:HANcoder_E407_TTA_CombineModel.c ****   }
 535:HANcoder_E407_TTA_CombineModel.c **** 
 536:HANcoder_E407_TTA_CombineModel.c ****   /* End of Outputs for SubSystem: '<S13>/MMBS1_RX' */
 537:HANcoder_E407_TTA_CombineModel.c **** }
 953              		.loc 1 537 1 view .LVU314
 954 0008 7047     		bx	lr
 955              	.L70:
 956              		.loc 1 537 1 view .LVU315
 957 000a 7047     		bx	lr
 958              	.LVL64:
 959              	.L73:
 504:HANcoder_E407_TTA_CombineModel.c **** 
 960              		.loc 1 504 5 is_stmt 1 view .LVU316
 488:HANcoder_E407_TTA_CombineModel.c ****   /* local block i/o variables */
 961              		.loc 1 488 1 is_stmt 0 view .LVU317
 962 000c 30B5     		push	{r4, r5, lr}
 963              		.cfi_def_cfa_offset 12
 964              		.cfi_offset 4, -12
 965              		.cfi_offset 5, -8
 966              		.cfi_offset 14, -4
 509:HANcoder_E407_TTA_CombineModel.c ****       &canRxData_0_rtu_In1.uint8_T_info[0], NULL);
 967              		.loc 1 509 26 view .LVU318
 968 000e 0C4D     		ldr	r5, .L74
 488:HANcoder_E407_TTA_CombineModel.c ****   /* local block i/o variables */
 969              		.loc 1 488 1 view .LVU319
 970 0010 83B0     		sub	sp, sp, #12
 971              		.cfi_def_cfa_offset 24
 504:HANcoder_E407_TTA_CombineModel.c **** 
 972              		.loc 1 504 28 view .LVU320
 973 0012 0120     		movs	r0, #1
 974              	.LVL65:
 504:HANcoder_E407_TTA_CombineModel.c **** 
 975              		.loc 1 504 28 view .LVU321
 976 0014 1446     		mov	r4, r2
 509:HANcoder_E407_TTA_CombineModel.c ****       &canRxData_0_rtu_In1.uint8_T_info[0], NULL);
 977              		.loc 1 509 26 view .LVU322
 978 0016 0022     		movs	r2, #0
 979              	.LVL66:
 504:HANcoder_E407_TTA_CombineModel.c **** 
 980              		.loc 1 504 28 view .LVU323
 981 0018 1870     		strb	r0, [r3]
 509:HANcoder_E407_TTA_CombineModel.c ****       &canRxData_0_rtu_In1.uint8_T_info[0], NULL);
 982              		.loc 1 509 5 is_stmt 1 view .LVU324
 509:HANcoder_E407_TTA_CombineModel.c ****       &canRxData_0_rtu_In1.uint8_T_info[0], NULL);
 983              		.loc 1 509 26 is_stmt 0 view .LVU325
 984 001a 0092     		str	r2, [sp]
 985 001c 2B46     		mov	r3, r5
 986              	.LVL67:
 509:HANcoder_E407_TTA_CombineModel.c ****       &canRxData_0_rtu_In1.uint8_T_info[0], NULL);
 987              		.loc 1 509 26 view .LVU326
 988 001e 1046     		mov	r0, r2
 989 0020 FFF7FEFF 		bl	CanIoGetMessage
 990              	.LVL68:
 513:HANcoder_E407_TTA_CombineModel.c ****       /* read the data */
 991              		.loc 1 513 5 is_stmt 1 view .LVU327
 513:HANcoder_E407_TTA_CombineModel.c ****       /* read the data */
 992              		.loc 1 513 8 is_stmt 0 view .LVU328
 993 0024 0028     		cmp	r0, #0
 994 0026 09DD     		ble	.L61
 515:HANcoder_E407_TTA_CombineModel.c ****       rtb_SFunction_o3_b = canRxData_0_rtu_In1.uint8_T_info[1];
 995              		.loc 1 515 7 is_stmt 1 view .LVU329
 996              	.LVL69:
 516:HANcoder_E407_TTA_CombineModel.c ****       rtb_SFunction_o4_l = canRxData_0_rtu_In1.uint8_T_info[2];
 997              		.loc 1 516 7 view .LVU330
 517:HANcoder_E407_TTA_CombineModel.c ****       rtb_SFunction_o5_e = canRxData_0_rtu_In1.uint8_T_info[3];
 998              		.loc 1 517 26 is_stmt 0 view .LVU331
 999 0028 A978     		ldrb	r1, [r5, #2]	@ zero_extendqisi2
 521:HANcoder_E407_TTA_CombineModel.c ****       rtb_SFunction_o9_ok = canRxData_0_rtu_In1.uint8_T_info[7];
 1000              		.loc 1 521 27 view .LVU332
 1001 002a AB79     		ldrb	r3, [r5, #6]	@ zero_extendqisi2
 518:HANcoder_E407_TTA_CombineModel.c ****       rtb_SFunction_o6_k = canRxData_0_rtu_In1.uint8_T_info[4];
 1002              		.loc 1 518 26 view .LVU333
 1003 002c EA78     		ldrb	r2, [r5, #3]	@ zero_extendqisi2
 1004              	.LBB210:
 1005              	.LBB211:
 437:HANcoder_E407_TTA_CombineModel.c **** 
 1006              		.loc 1 437 17 view .LVU334
 1007 002e A170     		strb	r1, [r4, #2]
 1008              	.LBE211:
 1009              	.LBE210:
 516:HANcoder_E407_TTA_CombineModel.c ****       rtb_SFunction_o4_l = canRxData_0_rtu_In1.uint8_T_info[2];
 1010              		.loc 1 516 26 view .LVU335
 1011 0030 6978     		ldrb	r1, [r5, #1]	@ zero_extendqisi2
 1012              	.LVL70:
 517:HANcoder_E407_TTA_CombineModel.c ****       rtb_SFunction_o5_e = canRxData_0_rtu_In1.uint8_T_info[3];
 1013              		.loc 1 517 7 is_stmt 1 view .LVU336
 518:HANcoder_E407_TTA_CombineModel.c ****       rtb_SFunction_o6_k = canRxData_0_rtu_In1.uint8_T_info[4];
 1014              		.loc 1 518 7 view .LVU337
 519:HANcoder_E407_TTA_CombineModel.c ****       rtb_SFunction_o7_dj = canRxData_0_rtu_In1.uint8_T_info[5];
 1015              		.loc 1 519 7 view .LVU338
 520:HANcoder_E407_TTA_CombineModel.c ****       rtb_SFunction_o8_n1 = canRxData_0_rtu_In1.uint8_T_info[6];
 1016              		.loc 1 520 7 view .LVU339
 521:HANcoder_E407_TTA_CombineModel.c ****       rtb_SFunction_o9_ok = canRxData_0_rtu_In1.uint8_T_info[7];
 1017              		.loc 1 521 7 view .LVU340
 522:HANcoder_E407_TTA_CombineModel.c ****     }
 1018              		.loc 1 522 7 view .LVU341
 526:HANcoder_E407_TTA_CombineModel.c ****                      rtb_SFunction_o4_l, rtb_SFunction_o5_e, rtb_SFunction_o6_k,
 1019              		.loc 1 526 5 view .LVU342
 1020              	.LBB213:
 1021              	.LBI210:
 417:HANcoder_E407_TTA_CombineModel.c ****                       uint8_T rtu_In3, uint8_T rtu_In4, uint8_T rtu_In5, uint8_T
 1022              		.loc 1 417 6 view .LVU343
 1023              	.LBB212:
 422:HANcoder_E407_TTA_CombineModel.c ****   uint8_T rtb_In6;
 1024              		.loc 1 422 3 view .LVU344
 423:HANcoder_E407_TTA_CombineModel.c ****   uint8_T rtb_In8;
 1025              		.loc 1 423 3 view .LVU345
 424:HANcoder_E407_TTA_CombineModel.c **** 
 1026              		.loc 1 424 3 view .LVU346
 429:HANcoder_E407_TTA_CombineModel.c ****     /* SignalConversion generated from: '<S116>/In1' */
 1027              		.loc 1 429 3 view .LVU347
 431:HANcoder_E407_TTA_CombineModel.c **** 
 1028              		.loc 1 431 5 view .LVU348
 434:HANcoder_E407_TTA_CombineModel.c **** 
 1029              		.loc 1 434 17 is_stmt 0 view .LVU349
 1030 0032 6170     		strb	r1, [r4, #1]
 431:HANcoder_E407_TTA_CombineModel.c **** 
 1031              		.loc 1 431 17 view .LVU350
 1032 0034 2978     		ldrb	r1, [r5]	@ zero_extendqisi2
 1033              	.LVL71:
 431:HANcoder_E407_TTA_CombineModel.c **** 
 1034              		.loc 1 431 17 view .LVU351
 1035 0036 2170     		strb	r1, [r4]
 1036              	.LVL72:
 434:HANcoder_E407_TTA_CombineModel.c **** 
 1037              		.loc 1 434 5 is_stmt 1 view .LVU352
 437:HANcoder_E407_TTA_CombineModel.c **** 
 1038              		.loc 1 437 5 view .LVU353
 440:HANcoder_E407_TTA_CombineModel.c **** 
 1039              		.loc 1 440 5 view .LVU354
 440:HANcoder_E407_TTA_CombineModel.c **** 
 1040              		.loc 1 440 17 is_stmt 0 view .LVU355
 1041 0038 E270     		strb	r2, [r4, #3]
 443:HANcoder_E407_TTA_CombineModel.c **** 
 1042              		.loc 1 443 5 is_stmt 1 view .LVU356
 446:HANcoder_E407_TTA_CombineModel.c **** 
 1043              		.loc 1 446 5 view .LVU357
 449:HANcoder_E407_TTA_CombineModel.c **** 
 1044              		.loc 1 449 5 view .LVU358
 449:HANcoder_E407_TTA_CombineModel.c **** 
 1045              		.loc 1 449 17 is_stmt 0 view .LVU359
 1046 003a 2371     		strb	r3, [r4, #4]
 452:HANcoder_E407_TTA_CombineModel.c ****   }
 1047              		.loc 1 452 5 is_stmt 1 view .LVU360
 1048              	.LVL73:
 1049              	.L61:
 452:HANcoder_E407_TTA_CombineModel.c ****   }
 1050              		.loc 1 452 5 is_stmt 0 view .LVU361
 1051              	.LBE212:
 1052              	.LBE213:
 1053              		.loc 1 537 1 view .LVU362
 1054 003c 03B0     		add	sp, sp, #12
 1055              		.cfi_def_cfa_offset 12
 1056              		@ sp needed
 1057 003e 30BD     		pop	{r4, r5, pc}
 1058              	.LVL74:
 1059              	.L75:
 1060              		.loc 1 537 1 view .LVU363
 1061              		.align	2
 1062              	.L74:
 1063 0040 00000000 		.word	.LANCHOR8
 1064              		.cfi_endproc
 1065              	.LFE123:
 1067              		.section	.text.MMBS1_TX,"ax",%progbits
 1068              		.align	1
 1069              		.p2align 2,,3
 1070              		.global	MMBS1_TX
 1071              		.syntax unified
 1072              		.thumb
 1073              		.thumb_func
 1075              	MMBS1_TX:
 1076              	.LVL75:
 1077              	.LFB124:
 538:HANcoder_E407_TTA_CombineModel.c **** 
 539:HANcoder_E407_TTA_CombineModel.c **** /*
 540:HANcoder_E407_TTA_CombineModel.c ****  * Output and update for trigger system:
 541:HANcoder_E407_TTA_CombineModel.c ****  *    '<S13>/MMBS1_TX'
 542:HANcoder_E407_TTA_CombineModel.c ****  *    '<S13>/SSTM1_TX'
 543:HANcoder_E407_TTA_CombineModel.c ****  */
 544:HANcoder_E407_TTA_CombineModel.c **** void MMBS1_TX(boolean_T rtu_Trigger, uint32_T rtu_In1, rtZCE_MMBS1_TX *localZCE)
 545:HANcoder_E407_TTA_CombineModel.c **** {
 1078              		.loc 1 545 1 is_stmt 1 view -0
 1079              		.cfi_startproc
 1080              		@ args = 0, pretend = 0, frame = 0
 1081              		@ frame_needed = 0, uses_anonymous_args = 0
 546:HANcoder_E407_TTA_CombineModel.c ****   /* Outputs for Triggered SubSystem: '<S13>/MMBS1_TX' incorporates:
 547:HANcoder_E407_TTA_CombineModel.c ****    *  TriggerPort: '<S100>/Trigger'
 548:HANcoder_E407_TTA_CombineModel.c ****    */
 549:HANcoder_E407_TTA_CombineModel.c ****   if (rtu_Trigger && (localZCE->MMBS1_TX_Trig_ZCE != POS_ZCSIG)) {
 1082              		.loc 1 549 3 view .LVU365
 545:HANcoder_E407_TTA_CombineModel.c ****   /* Outputs for Triggered SubSystem: '<S13>/MMBS1_TX' incorporates:
 1083              		.loc 1 545 1 is_stmt 0 view .LVU366
 1084 0000 38B5     		push	{r3, r4, r5, lr}
 1085              		.cfi_def_cfa_offset 16
 1086              		.cfi_offset 3, -16
 1087              		.cfi_offset 4, -12
 1088              		.cfi_offset 5, -8
 1089              		.cfi_offset 14, -4
 545:HANcoder_E407_TTA_CombineModel.c ****   /* Outputs for Triggered SubSystem: '<S13>/MMBS1_TX' incorporates:
 1090              		.loc 1 545 1 view .LVU367
 1091 0002 1546     		mov	r5, r2
 1092              		.loc 1 549 6 view .LVU368
 1093 0004 0446     		mov	r4, r0
 1094 0006 10B1     		cbz	r0, .L77
 1095              		.loc 1 549 19 discriminator 1 view .LVU369
 1096 0008 1378     		ldrb	r3, [r2]	@ zero_extendqisi2
 1097 000a 012B     		cmp	r3, #1
 1098 000c 01D1     		bne	.L85
 1099              	.L77:
 550:HANcoder_E407_TTA_CombineModel.c ****     /* Update for M-S-Function: '<S117>/S-Function' */
 551:HANcoder_E407_TTA_CombineModel.c ****     {
 552:HANcoder_E407_TTA_CombineModel.c ****       /* prepare the data */
 553:HANcoder_E407_TTA_CombineModel.c ****       canTxData.uint8_T_info[0] = 0U;
 554:HANcoder_E407_TTA_CombineModel.c **** 
 555:HANcoder_E407_TTA_CombineModel.c ****       /* send the data */
 556:HANcoder_E407_TTA_CombineModel.c ****       CanTransmit(0, rtu_In1, 1, &canTxData.uint8_T_info[0]);
 557:HANcoder_E407_TTA_CombineModel.c ****     }
 558:HANcoder_E407_TTA_CombineModel.c ****   }
 559:HANcoder_E407_TTA_CombineModel.c **** 
 560:HANcoder_E407_TTA_CombineModel.c ****   localZCE->MMBS1_TX_Trig_ZCE = rtu_Trigger;
 1100              		.loc 1 560 3 is_stmt 1 view .LVU370
 1101              		.loc 1 560 31 is_stmt 0 view .LVU371
 1102 000e 2C70     		strb	r4, [r5]
 561:HANcoder_E407_TTA_CombineModel.c **** 
 562:HANcoder_E407_TTA_CombineModel.c ****   /* End of Outputs for SubSystem: '<S13>/MMBS1_TX' */
 563:HANcoder_E407_TTA_CombineModel.c **** }
 1103              		.loc 1 563 1 view .LVU372
 1104 0010 38BD     		pop	{r3, r4, r5, pc}
 1105              	.L85:
 553:HANcoder_E407_TTA_CombineModel.c **** 
 1106              		.loc 1 553 7 is_stmt 1 view .LVU373
 553:HANcoder_E407_TTA_CombineModel.c **** 
 1107              		.loc 1 553 33 is_stmt 0 view .LVU374
 1108 0012 044B     		ldr	r3, .L86
 1109 0014 0020     		movs	r0, #0
 1110              	.LVL76:
 553:HANcoder_E407_TTA_CombineModel.c **** 
 1111              		.loc 1 553 33 view .LVU375
 1112 0016 1870     		strb	r0, [r3]
 556:HANcoder_E407_TTA_CombineModel.c ****     }
 1113              		.loc 1 556 7 is_stmt 1 view .LVU376
 1114 0018 0122     		movs	r2, #1
 1115              	.LVL77:
 556:HANcoder_E407_TTA_CombineModel.c ****     }
 1116              		.loc 1 556 7 is_stmt 0 view .LVU377
 1117 001a FFF7FEFF 		bl	CanTransmit
 1118              	.LVL78:
 560:HANcoder_E407_TTA_CombineModel.c **** 
 1119              		.loc 1 560 3 is_stmt 1 view .LVU378
 560:HANcoder_E407_TTA_CombineModel.c **** 
 1120              		.loc 1 560 31 is_stmt 0 view .LVU379
 1121 001e 2C70     		strb	r4, [r5]
 1122              		.loc 1 563 1 view .LVU380
 1123 0020 38BD     		pop	{r3, r4, r5, pc}
 1124              	.LVL79:
 1125              	.L87:
 1126              		.loc 1 563 1 view .LVU381
 1127 0022 00BF     		.align	2
 1128              	.L86:
 1129 0024 00000000 		.word	.LANCHOR9
 1130              		.cfi_endproc
 1131              	.LFE124:
 1133              		.section	.text.BitShift,"ax",%progbits
 1134              		.align	1
 1135              		.p2align 2,,3
 1136              		.global	BitShift
 1137              		.syntax unified
 1138              		.thumb
 1139              		.thumb_func
 1141              	BitShift:
 1142              	.LVL80:
 1143              	.LFB125:
 564:HANcoder_E407_TTA_CombineModel.c **** 
 565:HANcoder_E407_TTA_CombineModel.c **** /*
 566:HANcoder_E407_TTA_CombineModel.c ****  * Output and update for atomic system:
 567:HANcoder_E407_TTA_CombineModel.c ****  *    '<S125>/Bit Shift'
 568:HANcoder_E407_TTA_CombineModel.c ****  *    '<S126>/Bit Shift'
 569:HANcoder_E407_TTA_CombineModel.c ****  *    '<S194>/Bit Shift'
 570:HANcoder_E407_TTA_CombineModel.c ****  *    '<S195>/Bit Shift'
 571:HANcoder_E407_TTA_CombineModel.c ****  *    '<S241>/Bit Shift'
 572:HANcoder_E407_TTA_CombineModel.c ****  *    '<S242>/Bit Shift'
 573:HANcoder_E407_TTA_CombineModel.c ****  *    '<S266>/Bit Shift'
 574:HANcoder_E407_TTA_CombineModel.c ****  *    '<S267>/Bit Shift'
 575:HANcoder_E407_TTA_CombineModel.c ****  *    '<S313>/Bit Shift'
 576:HANcoder_E407_TTA_CombineModel.c ****  *    '<S314>/Bit Shift'
 577:HANcoder_E407_TTA_CombineModel.c ****  */
 578:HANcoder_E407_TTA_CombineModel.c **** void BitShift(uint16_T rtu_u, rtB_BitShift *localB)
 579:HANcoder_E407_TTA_CombineModel.c **** {
 1144              		.loc 1 579 1 is_stmt 1 view -0
 1145              		.cfi_startproc
 1146              		@ args = 0, pretend = 0, frame = 0
 1147              		@ frame_needed = 0, uses_anonymous_args = 0
 1148              		@ link register save eliminated.
 580:HANcoder_E407_TTA_CombineModel.c ****   /* MATLAB Function: '<S129>/bit_shift' */
 581:HANcoder_E407_TTA_CombineModel.c ****   /* MATLAB Function 'Logic and Bit Operations/Bit Shift/bit_shift': '<S130>:1' */
 582:HANcoder_E407_TTA_CombineModel.c ****   /* '<S130>:1:6' */
 583:HANcoder_E407_TTA_CombineModel.c ****   localB->y = (uint16_T)(rtu_u << 8);
 1149              		.loc 1 583 3 view .LVU383
 1150              		.loc 1 583 15 is_stmt 0 view .LVU384
 1151 0000 0002     		lsls	r0, r0, #8
 1152              	.LVL81:
 1153              		.loc 1 583 13 view .LVU385
 1154 0002 0880     		strh	r0, [r1]	@ movhi
 584:HANcoder_E407_TTA_CombineModel.c **** }
 1155              		.loc 1 584 1 view .LVU386
 1156 0004 7047     		bx	lr
 1157              		.cfi_endproc
 1158              	.LFE125:
 1160 0006 00BF     		.section	.text.BitShift_g,"ax",%progbits
 1161              		.align	1
 1162              		.p2align 2,,3
 1163              		.global	BitShift_g
 1164              		.syntax unified
 1165              		.thumb
 1166              		.thumb_func
 1168              	BitShift_g:
 1169              	.LVL82:
 1170              	.LFB126:
 585:HANcoder_E407_TTA_CombineModel.c **** 
 586:HANcoder_E407_TTA_CombineModel.c **** /*
 587:HANcoder_E407_TTA_CombineModel.c ****  * Output and update for atomic system:
 588:HANcoder_E407_TTA_CombineModel.c ****  *    '<S128>/Bit Shift'
 589:HANcoder_E407_TTA_CombineModel.c ****  *    '<S128>/Bit Shift7'
 590:HANcoder_E407_TTA_CombineModel.c ****  *    '<S197>/Bit Shift'
 591:HANcoder_E407_TTA_CombineModel.c ****  *    '<S197>/Bit Shift7'
 592:HANcoder_E407_TTA_CombineModel.c ****  *    '<S244>/Bit Shift'
 593:HANcoder_E407_TTA_CombineModel.c ****  *    '<S244>/Bit Shift7'
 594:HANcoder_E407_TTA_CombineModel.c ****  *    '<S269>/Bit Shift'
 595:HANcoder_E407_TTA_CombineModel.c ****  *    '<S269>/Bit Shift7'
 596:HANcoder_E407_TTA_CombineModel.c ****  *    '<S316>/Bit Shift'
 597:HANcoder_E407_TTA_CombineModel.c ****  *    '<S316>/Bit Shift7'
 598:HANcoder_E407_TTA_CombineModel.c ****  */
 599:HANcoder_E407_TTA_CombineModel.c **** void BitShift_g(uint8_T rtu_u, rtB_BitShift_l *localB)
 600:HANcoder_E407_TTA_CombineModel.c **** {
 1171              		.loc 1 600 1 is_stmt 1 view -0
 1172              		.cfi_startproc
 1173              		@ args = 0, pretend = 0, frame = 0
 1174              		@ frame_needed = 0, uses_anonymous_args = 0
 1175              		@ link register save eliminated.
 601:HANcoder_E407_TTA_CombineModel.c ****   /* MATLAB Function: '<S134>/bit_shift' */
 602:HANcoder_E407_TTA_CombineModel.c ****   /* MATLAB Function 'Logic and Bit Operations/Bit Shift/bit_shift': '<S142>:1' */
 603:HANcoder_E407_TTA_CombineModel.c ****   /* '<S142>:1:8' */
 604:HANcoder_E407_TTA_CombineModel.c ****   localB->y = (uint8_T)((uint32_T)rtu_u >> 1);
 1176              		.loc 1 604 3 view .LVU388
 1177              		.loc 1 604 15 is_stmt 0 view .LVU389
 1178 0000 4008     		lsrs	r0, r0, #1
 1179              	.LVL83:
 1180              		.loc 1 604 13 view .LVU390
 1181 0002 0870     		strb	r0, [r1]
 605:HANcoder_E407_TTA_CombineModel.c **** }
 1182              		.loc 1 605 1 view .LVU391
 1183 0004 7047     		bx	lr
 1184              		.cfi_endproc
 1185              	.LFE126:
 1187 0006 00BF     		.section	.text.BitShift1,"ax",%progbits
 1188              		.align	1
 1189              		.p2align 2,,3
 1190              		.global	BitShift1
 1191              		.syntax unified
 1192              		.thumb
 1193              		.thumb_func
 1195              	BitShift1:
 1196              	.LVL84:
 1197              	.LFB127:
 606:HANcoder_E407_TTA_CombineModel.c **** 
 607:HANcoder_E407_TTA_CombineModel.c **** /*
 608:HANcoder_E407_TTA_CombineModel.c ****  * Output and update for atomic system:
 609:HANcoder_E407_TTA_CombineModel.c ****  *    '<S128>/Bit Shift1'
 610:HANcoder_E407_TTA_CombineModel.c ****  *    '<S197>/Bit Shift1'
 611:HANcoder_E407_TTA_CombineModel.c ****  *    '<S244>/Bit Shift1'
 612:HANcoder_E407_TTA_CombineModel.c ****  *    '<S269>/Bit Shift1'
 613:HANcoder_E407_TTA_CombineModel.c ****  *    '<S316>/Bit Shift1'
 614:HANcoder_E407_TTA_CombineModel.c ****  */
 615:HANcoder_E407_TTA_CombineModel.c **** void BitShift1(uint8_T rtu_u, rtB_BitShift1 *localB)
 616:HANcoder_E407_TTA_CombineModel.c **** {
 1198              		.loc 1 616 1 is_stmt 1 view -0
 1199              		.cfi_startproc
 1200              		@ args = 0, pretend = 0, frame = 0
 1201              		@ frame_needed = 0, uses_anonymous_args = 0
 1202              		@ link register save eliminated.
 617:HANcoder_E407_TTA_CombineModel.c ****   /* MATLAB Function: '<S135>/bit_shift' */
 618:HANcoder_E407_TTA_CombineModel.c ****   /* MATLAB Function 'Logic and Bit Operations/Bit Shift/bit_shift': '<S143>:1' */
 619:HANcoder_E407_TTA_CombineModel.c ****   /* '<S143>:1:8' */
 620:HANcoder_E407_TTA_CombineModel.c ****   localB->y = (uint8_T)((uint32_T)rtu_u >> 2);
 1203              		.loc 1 620 3 view .LVU393
 1204              		.loc 1 620 15 is_stmt 0 view .LVU394
 1205 0000 8008     		lsrs	r0, r0, #2
 1206              	.LVL85:
 1207              		.loc 1 620 13 view .LVU395
 1208 0002 0870     		strb	r0, [r1]
 621:HANcoder_E407_TTA_CombineModel.c **** }
 1209              		.loc 1 621 1 view .LVU396
 1210 0004 7047     		bx	lr
 1211              		.cfi_endproc
 1212              	.LFE127:
 1214 0006 00BF     		.section	.text.BitShift2,"ax",%progbits
 1215              		.align	1
 1216              		.p2align 2,,3
 1217              		.global	BitShift2
 1218              		.syntax unified
 1219              		.thumb
 1220              		.thumb_func
 1222              	BitShift2:
 1223              	.LVL86:
 1224              	.LFB128:
 622:HANcoder_E407_TTA_CombineModel.c **** 
 623:HANcoder_E407_TTA_CombineModel.c **** /*
 624:HANcoder_E407_TTA_CombineModel.c ****  * Output and update for atomic system:
 625:HANcoder_E407_TTA_CombineModel.c ****  *    '<S128>/Bit Shift2'
 626:HANcoder_E407_TTA_CombineModel.c ****  *    '<S197>/Bit Shift2'
 627:HANcoder_E407_TTA_CombineModel.c ****  *    '<S244>/Bit Shift2'
 628:HANcoder_E407_TTA_CombineModel.c ****  *    '<S269>/Bit Shift2'
 629:HANcoder_E407_TTA_CombineModel.c ****  *    '<S316>/Bit Shift2'
 630:HANcoder_E407_TTA_CombineModel.c ****  */
 631:HANcoder_E407_TTA_CombineModel.c **** void BitShift2(uint8_T rtu_u, rtB_BitShift2 *localB)
 632:HANcoder_E407_TTA_CombineModel.c **** {
 1225              		.loc 1 632 1 is_stmt 1 view -0
 1226              		.cfi_startproc
 1227              		@ args = 0, pretend = 0, frame = 0
 1228              		@ frame_needed = 0, uses_anonymous_args = 0
 1229              		@ link register save eliminated.
 633:HANcoder_E407_TTA_CombineModel.c ****   /* MATLAB Function: '<S136>/bit_shift' */
 634:HANcoder_E407_TTA_CombineModel.c ****   /* MATLAB Function 'Logic and Bit Operations/Bit Shift/bit_shift': '<S144>:1' */
 635:HANcoder_E407_TTA_CombineModel.c ****   /* '<S144>:1:8' */
 636:HANcoder_E407_TTA_CombineModel.c ****   localB->y = (uint8_T)((uint32_T)rtu_u >> 3);
 1230              		.loc 1 636 3 view .LVU398
 1231              		.loc 1 636 15 is_stmt 0 view .LVU399
 1232 0000 C008     		lsrs	r0, r0, #3
 1233              	.LVL87:
 1234              		.loc 1 636 13 view .LVU400
 1235 0002 0870     		strb	r0, [r1]
 637:HANcoder_E407_TTA_CombineModel.c **** }
 1236              		.loc 1 637 1 view .LVU401
 1237 0004 7047     		bx	lr
 1238              		.cfi_endproc
 1239              	.LFE128:
 1241 0006 00BF     		.section	.text.BitShift3,"ax",%progbits
 1242              		.align	1
 1243              		.p2align 2,,3
 1244              		.global	BitShift3
 1245              		.syntax unified
 1246              		.thumb
 1247              		.thumb_func
 1249              	BitShift3:
 1250              	.LVL88:
 1251              	.LFB129:
 638:HANcoder_E407_TTA_CombineModel.c **** 
 639:HANcoder_E407_TTA_CombineModel.c **** /*
 640:HANcoder_E407_TTA_CombineModel.c ****  * Output and update for atomic system:
 641:HANcoder_E407_TTA_CombineModel.c ****  *    '<S128>/Bit Shift3'
 642:HANcoder_E407_TTA_CombineModel.c ****  *    '<S197>/Bit Shift3'
 643:HANcoder_E407_TTA_CombineModel.c ****  *    '<S244>/Bit Shift3'
 644:HANcoder_E407_TTA_CombineModel.c ****  *    '<S269>/Bit Shift3'
 645:HANcoder_E407_TTA_CombineModel.c ****  *    '<S316>/Bit Shift3'
 646:HANcoder_E407_TTA_CombineModel.c ****  */
 647:HANcoder_E407_TTA_CombineModel.c **** void BitShift3(uint8_T rtu_u, rtB_BitShift3 *localB)
 648:HANcoder_E407_TTA_CombineModel.c **** {
 1252              		.loc 1 648 1 is_stmt 1 view -0
 1253              		.cfi_startproc
 1254              		@ args = 0, pretend = 0, frame = 0
 1255              		@ frame_needed = 0, uses_anonymous_args = 0
 1256              		@ link register save eliminated.
 649:HANcoder_E407_TTA_CombineModel.c ****   /* MATLAB Function: '<S137>/bit_shift' */
 650:HANcoder_E407_TTA_CombineModel.c ****   /* MATLAB Function 'Logic and Bit Operations/Bit Shift/bit_shift': '<S145>:1' */
 651:HANcoder_E407_TTA_CombineModel.c ****   /* '<S145>:1:8' */
 652:HANcoder_E407_TTA_CombineModel.c ****   localB->y = (uint8_T)((uint32_T)rtu_u >> 4);
 1257              		.loc 1 652 3 view .LVU403
 1258              		.loc 1 652 15 is_stmt 0 view .LVU404
 1259 0000 0009     		lsrs	r0, r0, #4
 1260              	.LVL89:
 1261              		.loc 1 652 13 view .LVU405
 1262 0002 0870     		strb	r0, [r1]
 653:HANcoder_E407_TTA_CombineModel.c **** }
 1263              		.loc 1 653 1 view .LVU406
 1264 0004 7047     		bx	lr
 1265              		.cfi_endproc
 1266              	.LFE129:
 1268 0006 00BF     		.section	.text.BitShift4,"ax",%progbits
 1269              		.align	1
 1270              		.p2align 2,,3
 1271              		.global	BitShift4
 1272              		.syntax unified
 1273              		.thumb
 1274              		.thumb_func
 1276              	BitShift4:
 1277              	.LVL90:
 1278              	.LFB130:
 654:HANcoder_E407_TTA_CombineModel.c **** 
 655:HANcoder_E407_TTA_CombineModel.c **** /*
 656:HANcoder_E407_TTA_CombineModel.c ****  * Output and update for atomic system:
 657:HANcoder_E407_TTA_CombineModel.c ****  *    '<S128>/Bit Shift4'
 658:HANcoder_E407_TTA_CombineModel.c ****  *    '<S197>/Bit Shift4'
 659:HANcoder_E407_TTA_CombineModel.c ****  *    '<S244>/Bit Shift4'
 660:HANcoder_E407_TTA_CombineModel.c ****  *    '<S269>/Bit Shift4'
 661:HANcoder_E407_TTA_CombineModel.c ****  *    '<S316>/Bit Shift4'
 662:HANcoder_E407_TTA_CombineModel.c ****  */
 663:HANcoder_E407_TTA_CombineModel.c **** void BitShift4(uint8_T rtu_u, rtB_BitShift4 *localB)
 664:HANcoder_E407_TTA_CombineModel.c **** {
 1279              		.loc 1 664 1 is_stmt 1 view -0
 1280              		.cfi_startproc
 1281              		@ args = 0, pretend = 0, frame = 0
 1282              		@ frame_needed = 0, uses_anonymous_args = 0
 1283              		@ link register save eliminated.
 665:HANcoder_E407_TTA_CombineModel.c ****   /* MATLAB Function: '<S138>/bit_shift' */
 666:HANcoder_E407_TTA_CombineModel.c ****   /* MATLAB Function 'Logic and Bit Operations/Bit Shift/bit_shift': '<S146>:1' */
 667:HANcoder_E407_TTA_CombineModel.c ****   /* '<S146>:1:8' */
 668:HANcoder_E407_TTA_CombineModel.c ****   localB->y = (uint8_T)((uint32_T)rtu_u >> 5);
 1284              		.loc 1 668 3 view .LVU408
 1285              		.loc 1 668 15 is_stmt 0 view .LVU409
 1286 0000 4009     		lsrs	r0, r0, #5
 1287              	.LVL91:
 1288              		.loc 1 668 13 view .LVU410
 1289 0002 0870     		strb	r0, [r1]
 669:HANcoder_E407_TTA_CombineModel.c **** }
 1290              		.loc 1 669 1 view .LVU411
 1291 0004 7047     		bx	lr
 1292              		.cfi_endproc
 1293              	.LFE130:
 1295 0006 00BF     		.section	.text.BitShift5,"ax",%progbits
 1296              		.align	1
 1297              		.p2align 2,,3
 1298              		.global	BitShift5
 1299              		.syntax unified
 1300              		.thumb
 1301              		.thumb_func
 1303              	BitShift5:
 1304              	.LVL92:
 1305              	.LFB131:
 670:HANcoder_E407_TTA_CombineModel.c **** 
 671:HANcoder_E407_TTA_CombineModel.c **** /*
 672:HANcoder_E407_TTA_CombineModel.c ****  * Output and update for atomic system:
 673:HANcoder_E407_TTA_CombineModel.c ****  *    '<S128>/Bit Shift5'
 674:HANcoder_E407_TTA_CombineModel.c ****  *    '<S197>/Bit Shift5'
 675:HANcoder_E407_TTA_CombineModel.c ****  *    '<S244>/Bit Shift5'
 676:HANcoder_E407_TTA_CombineModel.c ****  *    '<S269>/Bit Shift5'
 677:HANcoder_E407_TTA_CombineModel.c ****  *    '<S316>/Bit Shift5'
 678:HANcoder_E407_TTA_CombineModel.c ****  */
 679:HANcoder_E407_TTA_CombineModel.c **** void BitShift5(uint8_T rtu_u, rtB_BitShift5 *localB)
 680:HANcoder_E407_TTA_CombineModel.c **** {
 1306              		.loc 1 680 1 is_stmt 1 view -0
 1307              		.cfi_startproc
 1308              		@ args = 0, pretend = 0, frame = 0
 1309              		@ frame_needed = 0, uses_anonymous_args = 0
 1310              		@ link register save eliminated.
 681:HANcoder_E407_TTA_CombineModel.c ****   /* MATLAB Function: '<S139>/bit_shift' */
 682:HANcoder_E407_TTA_CombineModel.c ****   /* MATLAB Function 'Logic and Bit Operations/Bit Shift/bit_shift': '<S147>:1' */
 683:HANcoder_E407_TTA_CombineModel.c ****   /* '<S147>:1:8' */
 684:HANcoder_E407_TTA_CombineModel.c ****   localB->y = (uint8_T)((uint32_T)rtu_u >> 6);
 1311              		.loc 1 684 3 view .LVU413
 1312              		.loc 1 684 15 is_stmt 0 view .LVU414
 1313 0000 8009     		lsrs	r0, r0, #6
 1314              	.LVL93:
 1315              		.loc 1 684 13 view .LVU415
 1316 0002 0870     		strb	r0, [r1]
 685:HANcoder_E407_TTA_CombineModel.c **** }
 1317              		.loc 1 685 1 view .LVU416
 1318 0004 7047     		bx	lr
 1319              		.cfi_endproc
 1320              	.LFE131:
 1322 0006 00BF     		.section	.text.BitShift6,"ax",%progbits
 1323              		.align	1
 1324              		.p2align 2,,3
 1325              		.global	BitShift6
 1326              		.syntax unified
 1327              		.thumb
 1328              		.thumb_func
 1330              	BitShift6:
 1331              	.LVL94:
 1332              	.LFB132:
 686:HANcoder_E407_TTA_CombineModel.c **** 
 687:HANcoder_E407_TTA_CombineModel.c **** /*
 688:HANcoder_E407_TTA_CombineModel.c ****  * Output and update for atomic system:
 689:HANcoder_E407_TTA_CombineModel.c ****  *    '<S128>/Bit Shift6'
 690:HANcoder_E407_TTA_CombineModel.c ****  *    '<S197>/Bit Shift6'
 691:HANcoder_E407_TTA_CombineModel.c ****  *    '<S244>/Bit Shift6'
 692:HANcoder_E407_TTA_CombineModel.c ****  *    '<S269>/Bit Shift6'
 693:HANcoder_E407_TTA_CombineModel.c ****  *    '<S316>/Bit Shift6'
 694:HANcoder_E407_TTA_CombineModel.c ****  */
 695:HANcoder_E407_TTA_CombineModel.c **** void BitShift6(uint8_T rtu_u, rtB_BitShift6 *localB)
 696:HANcoder_E407_TTA_CombineModel.c **** {
 1333              		.loc 1 696 1 is_stmt 1 view -0
 1334              		.cfi_startproc
 1335              		@ args = 0, pretend = 0, frame = 0
 1336              		@ frame_needed = 0, uses_anonymous_args = 0
 1337              		@ link register save eliminated.
 697:HANcoder_E407_TTA_CombineModel.c ****   /* MATLAB Function: '<S140>/bit_shift' */
 698:HANcoder_E407_TTA_CombineModel.c ****   /* MATLAB Function 'Logic and Bit Operations/Bit Shift/bit_shift': '<S148>:1' */
 699:HANcoder_E407_TTA_CombineModel.c ****   /* '<S148>:1:8' */
 700:HANcoder_E407_TTA_CombineModel.c ****   localB->y = (uint8_T)((uint32_T)rtu_u >> 7);
 1338              		.loc 1 700 3 view .LVU418
 1339              		.loc 1 700 15 is_stmt 0 view .LVU419
 1340 0000 C009     		lsrs	r0, r0, #7
 1341              	.LVL95:
 1342              		.loc 1 700 13 view .LVU420
 1343 0002 0870     		strb	r0, [r1]
 701:HANcoder_E407_TTA_CombineModel.c **** }
 1344              		.loc 1 701 1 view .LVU421
 1345 0004 7047     		bx	lr
 1346              		.cfi_endproc
 1347              	.LFE132:
 1349 0006 00BF     		.section	.text.BitShift_gy,"ax",%progbits
 1350              		.align	1
 1351              		.p2align 2,,3
 1352              		.global	BitShift_gy
 1353              		.syntax unified
 1354              		.thumb
 1355              		.thumb_func
 1357              	BitShift_gy:
 1358              	.LVL96:
 1359              	.LFB133:
 702:HANcoder_E407_TTA_CombineModel.c **** 
 703:HANcoder_E407_TTA_CombineModel.c **** /*
 704:HANcoder_E407_TTA_CombineModel.c ****  * Output and update for atomic system:
 705:HANcoder_E407_TTA_CombineModel.c ****  *    '<S151>/Bit Shift'
 706:HANcoder_E407_TTA_CombineModel.c ****  *    '<S173>/Bit Shift'
 707:HANcoder_E407_TTA_CombineModel.c ****  *    '<S220>/Bit Shift'
 708:HANcoder_E407_TTA_CombineModel.c ****  *    '<S292>/Bit Shift'
 709:HANcoder_E407_TTA_CombineModel.c ****  *    '<S339>/Bit Shift'
 710:HANcoder_E407_TTA_CombineModel.c ****  */
 711:HANcoder_E407_TTA_CombineModel.c **** void BitShift_gy(uint8_T rtu_u, rtB_BitShift_o *localB)
 712:HANcoder_E407_TTA_CombineModel.c **** {
 1360              		.loc 1 712 1 is_stmt 1 view -0
 1361              		.cfi_startproc
 1362              		@ args = 0, pretend = 0, frame = 0
 1363              		@ frame_needed = 0, uses_anonymous_args = 0
 1364              		@ link register save eliminated.
 713:HANcoder_E407_TTA_CombineModel.c ****   /* MATLAB Function: '<S154>/bit_shift' */
 714:HANcoder_E407_TTA_CombineModel.c ****   /* MATLAB Function 'Logic and Bit Operations/Bit Shift/bit_shift': '<S161>:1' */
 715:HANcoder_E407_TTA_CombineModel.c ****   /* '<S161>:1:6' */
 716:HANcoder_E407_TTA_CombineModel.c ****   localB->y = (uint8_T)(rtu_u << 2);
 1365              		.loc 1 716 3 view .LVU423
 1366              		.loc 1 716 15 is_stmt 0 view .LVU424
 1367 0000 8000     		lsls	r0, r0, #2
 1368              	.LVL97:
 1369              		.loc 1 716 13 view .LVU425
 1370 0002 0870     		strb	r0, [r1]
 717:HANcoder_E407_TTA_CombineModel.c **** }
 1371              		.loc 1 717 1 view .LVU426
 1372 0004 7047     		bx	lr
 1373              		.cfi_endproc
 1374              	.LFE133:
 1376 0006 00BF     		.section	.text.BitShift1_b,"ax",%progbits
 1377              		.align	1
 1378              		.p2align 2,,3
 1379              		.global	BitShift1_b
 1380              		.syntax unified
 1381              		.thumb
 1382              		.thumb_func
 1384              	BitShift1_b:
 1385              	.LVL98:
 1386              	.LFB134:
 718:HANcoder_E407_TTA_CombineModel.c **** 
 719:HANcoder_E407_TTA_CombineModel.c **** /*
 720:HANcoder_E407_TTA_CombineModel.c ****  * Output and update for atomic system:
 721:HANcoder_E407_TTA_CombineModel.c ****  *    '<S151>/Bit Shift1'
 722:HANcoder_E407_TTA_CombineModel.c ****  *    '<S173>/Bit Shift1'
 723:HANcoder_E407_TTA_CombineModel.c ****  *    '<S220>/Bit Shift1'
 724:HANcoder_E407_TTA_CombineModel.c ****  *    '<S292>/Bit Shift1'
 725:HANcoder_E407_TTA_CombineModel.c ****  *    '<S339>/Bit Shift1'
 726:HANcoder_E407_TTA_CombineModel.c ****  */
 727:HANcoder_E407_TTA_CombineModel.c **** void BitShift1_b(uint8_T rtu_u, rtB_BitShift1_j *localB)
 728:HANcoder_E407_TTA_CombineModel.c **** {
 1387              		.loc 1 728 1 is_stmt 1 view -0
 1388              		.cfi_startproc
 1389              		@ args = 0, pretend = 0, frame = 0
 1390              		@ frame_needed = 0, uses_anonymous_args = 0
 1391              		@ link register save eliminated.
 729:HANcoder_E407_TTA_CombineModel.c ****   /* MATLAB Function: '<S155>/bit_shift' */
 730:HANcoder_E407_TTA_CombineModel.c ****   /* MATLAB Function 'Logic and Bit Operations/Bit Shift/bit_shift': '<S162>:1' */
 731:HANcoder_E407_TTA_CombineModel.c ****   /* '<S162>:1:6' */
 732:HANcoder_E407_TTA_CombineModel.c ****   localB->y = (uint8_T)(rtu_u << 1);
 1392              		.loc 1 732 3 view .LVU428
 1393              		.loc 1 732 15 is_stmt 0 view .LVU429
 1394 0000 4000     		lsls	r0, r0, #1
 1395              	.LVL99:
 1396              		.loc 1 732 13 view .LVU430
 1397 0002 0870     		strb	r0, [r1]
 733:HANcoder_E407_TTA_CombineModel.c **** }
 1398              		.loc 1 733 1 view .LVU431
 1399 0004 7047     		bx	lr
 1400              		.cfi_endproc
 1401              	.LFE134:
 1403 0006 00BF     		.section	.text.BitShift2_p,"ax",%progbits
 1404              		.align	1
 1405              		.p2align 2,,3
 1406              		.global	BitShift2_p
 1407              		.syntax unified
 1408              		.thumb
 1409              		.thumb_func
 1411              	BitShift2_p:
 1412              	.LVL100:
 1413              	.LFB135:
 734:HANcoder_E407_TTA_CombineModel.c **** 
 735:HANcoder_E407_TTA_CombineModel.c **** /*
 736:HANcoder_E407_TTA_CombineModel.c ****  * Output and update for atomic system:
 737:HANcoder_E407_TTA_CombineModel.c ****  *    '<S151>/Bit Shift2'
 738:HANcoder_E407_TTA_CombineModel.c ****  *    '<S173>/Bit Shift2'
 739:HANcoder_E407_TTA_CombineModel.c ****  *    '<S220>/Bit Shift2'
 740:HANcoder_E407_TTA_CombineModel.c ****  *    '<S292>/Bit Shift2'
 741:HANcoder_E407_TTA_CombineModel.c ****  *    '<S339>/Bit Shift2'
 742:HANcoder_E407_TTA_CombineModel.c ****  */
 743:HANcoder_E407_TTA_CombineModel.c **** void BitShift2_p(uint8_T rtu_u, rtB_BitShift2_e *localB)
 744:HANcoder_E407_TTA_CombineModel.c **** {
 1414              		.loc 1 744 1 is_stmt 1 view -0
 1415              		.cfi_startproc
 1416              		@ args = 0, pretend = 0, frame = 0
 1417              		@ frame_needed = 0, uses_anonymous_args = 0
 1418              		@ link register save eliminated.
 745:HANcoder_E407_TTA_CombineModel.c ****   /* MATLAB Function: '<S156>/bit_shift' */
 746:HANcoder_E407_TTA_CombineModel.c ****   /* MATLAB Function 'Logic and Bit Operations/Bit Shift/bit_shift': '<S163>:1' */
 747:HANcoder_E407_TTA_CombineModel.c ****   /* '<S163>:1:6' */
 748:HANcoder_E407_TTA_CombineModel.c ****   localB->y = (uint8_T)(rtu_u << 3);
 1419              		.loc 1 748 3 view .LVU433
 1420              		.loc 1 748 15 is_stmt 0 view .LVU434
 1421 0000 C000     		lsls	r0, r0, #3
 1422              	.LVL101:
 1423              		.loc 1 748 13 view .LVU435
 1424 0002 0870     		strb	r0, [r1]
 749:HANcoder_E407_TTA_CombineModel.c **** }
 1425              		.loc 1 749 1 view .LVU436
 1426 0004 7047     		bx	lr
 1427              		.cfi_endproc
 1428              	.LFE135:
 1430 0006 00BF     		.section	.text.BitShift3_l,"ax",%progbits
 1431              		.align	1
 1432              		.p2align 2,,3
 1433              		.global	BitShift3_l
 1434              		.syntax unified
 1435              		.thumb
 1436              		.thumb_func
 1438              	BitShift3_l:
 1439              	.LVL102:
 1440              	.LFB136:
 750:HANcoder_E407_TTA_CombineModel.c **** 
 751:HANcoder_E407_TTA_CombineModel.c **** /*
 752:HANcoder_E407_TTA_CombineModel.c ****  * Output and update for atomic system:
 753:HANcoder_E407_TTA_CombineModel.c ****  *    '<S151>/Bit Shift3'
 754:HANcoder_E407_TTA_CombineModel.c ****  *    '<S173>/Bit Shift3'
 755:HANcoder_E407_TTA_CombineModel.c ****  *    '<S220>/Bit Shift3'
 756:HANcoder_E407_TTA_CombineModel.c ****  *    '<S292>/Bit Shift3'
 757:HANcoder_E407_TTA_CombineModel.c ****  *    '<S339>/Bit Shift3'
 758:HANcoder_E407_TTA_CombineModel.c ****  */
 759:HANcoder_E407_TTA_CombineModel.c **** void BitShift3_l(uint8_T rtu_u, rtB_BitShift3_g *localB)
 760:HANcoder_E407_TTA_CombineModel.c **** {
 1441              		.loc 1 760 1 is_stmt 1 view -0
 1442              		.cfi_startproc
 1443              		@ args = 0, pretend = 0, frame = 0
 1444              		@ frame_needed = 0, uses_anonymous_args = 0
 1445              		@ link register save eliminated.
 761:HANcoder_E407_TTA_CombineModel.c ****   /* MATLAB Function: '<S157>/bit_shift' */
 762:HANcoder_E407_TTA_CombineModel.c ****   /* MATLAB Function 'Logic and Bit Operations/Bit Shift/bit_shift': '<S164>:1' */
 763:HANcoder_E407_TTA_CombineModel.c ****   /* '<S164>:1:6' */
 764:HANcoder_E407_TTA_CombineModel.c ****   localB->y = (uint8_T)(rtu_u << 4);
 1446              		.loc 1 764 3 view .LVU438
 1447              		.loc 1 764 15 is_stmt 0 view .LVU439
 1448 0000 0001     		lsls	r0, r0, #4
 1449              	.LVL103:
 1450              		.loc 1 764 13 view .LVU440
 1451 0002 0870     		strb	r0, [r1]
 765:HANcoder_E407_TTA_CombineModel.c **** }
 1452              		.loc 1 765 1 view .LVU441
 1453 0004 7047     		bx	lr
 1454              		.cfi_endproc
 1455              	.LFE136:
 1457 0006 00BF     		.section	.text.BitShift4_g,"ax",%progbits
 1458              		.align	1
 1459              		.p2align 2,,3
 1460              		.global	BitShift4_g
 1461              		.syntax unified
 1462              		.thumb
 1463              		.thumb_func
 1465              	BitShift4_g:
 1466              	.LVL104:
 1467              	.LFB137:
 766:HANcoder_E407_TTA_CombineModel.c **** 
 767:HANcoder_E407_TTA_CombineModel.c **** /*
 768:HANcoder_E407_TTA_CombineModel.c ****  * Output and update for atomic system:
 769:HANcoder_E407_TTA_CombineModel.c ****  *    '<S151>/Bit Shift4'
 770:HANcoder_E407_TTA_CombineModel.c ****  *    '<S173>/Bit Shift4'
 771:HANcoder_E407_TTA_CombineModel.c ****  *    '<S220>/Bit Shift4'
 772:HANcoder_E407_TTA_CombineModel.c ****  *    '<S292>/Bit Shift4'
 773:HANcoder_E407_TTA_CombineModel.c ****  *    '<S339>/Bit Shift4'
 774:HANcoder_E407_TTA_CombineModel.c ****  */
 775:HANcoder_E407_TTA_CombineModel.c **** void BitShift4_g(uint8_T rtu_u, rtB_BitShift4_g *localB)
 776:HANcoder_E407_TTA_CombineModel.c **** {
 1468              		.loc 1 776 1 is_stmt 1 view -0
 1469              		.cfi_startproc
 1470              		@ args = 0, pretend = 0, frame = 0
 1471              		@ frame_needed = 0, uses_anonymous_args = 0
 1472              		@ link register save eliminated.
 777:HANcoder_E407_TTA_CombineModel.c ****   /* MATLAB Function: '<S158>/bit_shift' */
 778:HANcoder_E407_TTA_CombineModel.c ****   /* MATLAB Function 'Logic and Bit Operations/Bit Shift/bit_shift': '<S165>:1' */
 779:HANcoder_E407_TTA_CombineModel.c ****   /* '<S165>:1:6' */
 780:HANcoder_E407_TTA_CombineModel.c ****   localB->y = (uint8_T)(rtu_u << 5);
 1473              		.loc 1 780 3 view .LVU443
 1474              		.loc 1 780 15 is_stmt 0 view .LVU444
 1475 0000 4001     		lsls	r0, r0, #5
 1476              	.LVL105:
 1477              		.loc 1 780 13 view .LVU445
 1478 0002 0870     		strb	r0, [r1]
 781:HANcoder_E407_TTA_CombineModel.c **** }
 1479              		.loc 1 781 1 view .LVU446
 1480 0004 7047     		bx	lr
 1481              		.cfi_endproc
 1482              	.LFE137:
 1484 0006 00BF     		.section	.text.BitShift5_n,"ax",%progbits
 1485              		.align	1
 1486              		.p2align 2,,3
 1487              		.global	BitShift5_n
 1488              		.syntax unified
 1489              		.thumb
 1490              		.thumb_func
 1492              	BitShift5_n:
 1493              	.LVL106:
 1494              	.LFB138:
 782:HANcoder_E407_TTA_CombineModel.c **** 
 783:HANcoder_E407_TTA_CombineModel.c **** /*
 784:HANcoder_E407_TTA_CombineModel.c ****  * Output and update for atomic system:
 785:HANcoder_E407_TTA_CombineModel.c ****  *    '<S151>/Bit Shift5'
 786:HANcoder_E407_TTA_CombineModel.c ****  *    '<S173>/Bit Shift5'
 787:HANcoder_E407_TTA_CombineModel.c ****  *    '<S220>/Bit Shift5'
 788:HANcoder_E407_TTA_CombineModel.c ****  *    '<S292>/Bit Shift5'
 789:HANcoder_E407_TTA_CombineModel.c ****  *    '<S339>/Bit Shift5'
 790:HANcoder_E407_TTA_CombineModel.c ****  */
 791:HANcoder_E407_TTA_CombineModel.c **** void BitShift5_n(uint8_T rtu_u, rtB_BitShift5_e *localB)
 792:HANcoder_E407_TTA_CombineModel.c **** {
 1495              		.loc 1 792 1 is_stmt 1 view -0
 1496              		.cfi_startproc
 1497              		@ args = 0, pretend = 0, frame = 0
 1498              		@ frame_needed = 0, uses_anonymous_args = 0
 1499              		@ link register save eliminated.
 793:HANcoder_E407_TTA_CombineModel.c ****   /* MATLAB Function: '<S159>/bit_shift' */
 794:HANcoder_E407_TTA_CombineModel.c ****   /* MATLAB Function 'Logic and Bit Operations/Bit Shift/bit_shift': '<S166>:1' */
 795:HANcoder_E407_TTA_CombineModel.c ****   /* '<S166>:1:6' */
 796:HANcoder_E407_TTA_CombineModel.c ****   localB->y = (uint8_T)(rtu_u << 6);
 1500              		.loc 1 796 3 view .LVU448
 1501              		.loc 1 796 15 is_stmt 0 view .LVU449
 1502 0000 8001     		lsls	r0, r0, #6
 1503              	.LVL107:
 1504              		.loc 1 796 13 view .LVU450
 1505 0002 0870     		strb	r0, [r1]
 797:HANcoder_E407_TTA_CombineModel.c **** }
 1506              		.loc 1 797 1 view .LVU451
 1507 0004 7047     		bx	lr
 1508              		.cfi_endproc
 1509              	.LFE138:
 1511 0006 00BF     		.section	.text.BitShift6_d,"ax",%progbits
 1512              		.align	1
 1513              		.p2align 2,,3
 1514              		.global	BitShift6_d
 1515              		.syntax unified
 1516              		.thumb
 1517              		.thumb_func
 1519              	BitShift6_d:
 1520              	.LVL108:
 1521              	.LFB139:
 798:HANcoder_E407_TTA_CombineModel.c **** 
 799:HANcoder_E407_TTA_CombineModel.c **** /*
 800:HANcoder_E407_TTA_CombineModel.c ****  * Output and update for atomic system:
 801:HANcoder_E407_TTA_CombineModel.c ****  *    '<S151>/Bit Shift6'
 802:HANcoder_E407_TTA_CombineModel.c ****  *    '<S173>/Bit Shift6'
 803:HANcoder_E407_TTA_CombineModel.c ****  *    '<S220>/Bit Shift6'
 804:HANcoder_E407_TTA_CombineModel.c ****  *    '<S292>/Bit Shift6'
 805:HANcoder_E407_TTA_CombineModel.c ****  *    '<S339>/Bit Shift6'
 806:HANcoder_E407_TTA_CombineModel.c ****  */
 807:HANcoder_E407_TTA_CombineModel.c **** void BitShift6_d(uint8_T rtu_u, rtB_BitShift6_b *localB)
 808:HANcoder_E407_TTA_CombineModel.c **** {
 1522              		.loc 1 808 1 is_stmt 1 view -0
 1523              		.cfi_startproc
 1524              		@ args = 0, pretend = 0, frame = 0
 1525              		@ frame_needed = 0, uses_anonymous_args = 0
 1526              		@ link register save eliminated.
 809:HANcoder_E407_TTA_CombineModel.c ****   /* MATLAB Function: '<S160>/bit_shift' */
 810:HANcoder_E407_TTA_CombineModel.c ****   /* MATLAB Function 'Logic and Bit Operations/Bit Shift/bit_shift': '<S167>:1' */
 811:HANcoder_E407_TTA_CombineModel.c ****   /* '<S167>:1:6' */
 812:HANcoder_E407_TTA_CombineModel.c ****   localB->y = (uint8_T)(rtu_u << 7);
 1527              		.loc 1 812 3 view .LVU453
 1528              		.loc 1 812 15 is_stmt 0 view .LVU454
 1529 0000 C001     		lsls	r0, r0, #7
 1530              	.LVL109:
 1531              		.loc 1 812 13 view .LVU455
 1532 0002 0870     		strb	r0, [r1]
 813:HANcoder_E407_TTA_CombineModel.c **** }
 1533              		.loc 1 813 1 view .LVU456
 1534 0004 7047     		bx	lr
 1535              		.cfi_endproc
 1536              	.LFE139:
 1538 0006 00BF     		.section	.text.BitShift_o,"ax",%progbits
 1539              		.align	1
 1540              		.p2align 2,,3
 1541              		.global	BitShift_o
 1542              		.syntax unified
 1543              		.thumb
 1544              		.thumb_func
 1546              	BitShift_o:
 1547              	.LVL110:
 1548              	.LFB140:
 814:HANcoder_E407_TTA_CombineModel.c **** 
 815:HANcoder_E407_TTA_CombineModel.c **** /*
 816:HANcoder_E407_TTA_CombineModel.c ****  * Output and update for atomic system:
 817:HANcoder_E407_TTA_CombineModel.c ****  *    '<S152>/Bit Shift'
 818:HANcoder_E407_TTA_CombineModel.c ****  *    '<S153>/Bit Shift'
 819:HANcoder_E407_TTA_CombineModel.c ****  *    '<S174>/Bit Shift'
 820:HANcoder_E407_TTA_CombineModel.c ****  *    '<S175>/Bit Shift'
 821:HANcoder_E407_TTA_CombineModel.c ****  *    '<S221>/Bit Shift'
 822:HANcoder_E407_TTA_CombineModel.c ****  *    '<S222>/Bit Shift'
 823:HANcoder_E407_TTA_CombineModel.c ****  *    '<S293>/Bit Shift'
 824:HANcoder_E407_TTA_CombineModel.c ****  *    '<S294>/Bit Shift'
 825:HANcoder_E407_TTA_CombineModel.c ****  *    '<S340>/Bit Shift'
 826:HANcoder_E407_TTA_CombineModel.c ****  *    '<S341>/Bit Shift'
 827:HANcoder_E407_TTA_CombineModel.c ****  */
 828:HANcoder_E407_TTA_CombineModel.c **** void BitShift_o(uint16_T rtu_u, rtB_BitShift_c *localB)
 829:HANcoder_E407_TTA_CombineModel.c **** {
 1549              		.loc 1 829 1 is_stmt 1 view -0
 1550              		.cfi_startproc
 1551              		@ args = 0, pretend = 0, frame = 0
 1552              		@ frame_needed = 0, uses_anonymous_args = 0
 1553              		@ link register save eliminated.
 830:HANcoder_E407_TTA_CombineModel.c ****   /* MATLAB Function: '<S168>/bit_shift' */
 831:HANcoder_E407_TTA_CombineModel.c ****   /* MATLAB Function 'Logic and Bit Operations/Bit Shift/bit_shift': '<S169>:1' */
 832:HANcoder_E407_TTA_CombineModel.c ****   /* '<S169>:1:8' */
 833:HANcoder_E407_TTA_CombineModel.c ****   localB->y = (uint16_T)((uint32_T)rtu_u >> 8);
 1554              		.loc 1 833 3 view .LVU458
 1555              		.loc 1 833 15 is_stmt 0 view .LVU459
 1556 0000 000A     		lsrs	r0, r0, #8
 1557              	.LVL111:
 1558              		.loc 1 833 13 view .LVU460
 1559 0002 0880     		strh	r0, [r1]	@ movhi
 834:HANcoder_E407_TTA_CombineModel.c **** }
 1560              		.loc 1 834 1 view .LVU461
 1561 0004 7047     		bx	lr
 1562              		.cfi_endproc
 1563              	.LFE140:
 1565 0006 00BF     		.section	.text.TRCK1_ID2_TX,"ax",%progbits
 1566              		.align	1
 1567              		.p2align 2,,3
 1568              		.global	TRCK1_ID2_TX
 1569              		.syntax unified
 1570              		.thumb
 1571              		.thumb_func
 1573              	TRCK1_ID2_TX:
 1574              	.LVL112:
 1575              	.LFB141:
 835:HANcoder_E407_TTA_CombineModel.c **** 
 836:HANcoder_E407_TTA_CombineModel.c **** /*
 837:HANcoder_E407_TTA_CombineModel.c ****  * Output and update for trigger system:
 838:HANcoder_E407_TTA_CombineModel.c ****  *    '<S13>/TRCK1_ID2_TX'
 839:HANcoder_E407_TTA_CombineModel.c ****  *    '<S13>/TRCK1_ID3_TX'
 840:HANcoder_E407_TTA_CombineModel.c ****  *    '<S13>/TRCK1_TX'
 841:HANcoder_E407_TTA_CombineModel.c ****  */
 842:HANcoder_E407_TTA_CombineModel.c **** void TRCK1_ID2_TX(boolean_T rtu_Trigger, uint32_T rtu_In1, const uint8_T
 843:HANcoder_E407_TTA_CombineModel.c ****                   *rtd_Local_Ticks, const boolean_T *rtd_motorFailed, const
 844:HANcoder_E407_TTA_CombineModel.c ****                   boolean_T *rtd_potFault, const uint16_T *rtd_potentiometer1,
 845:HANcoder_E407_TTA_CombineModel.c ****                   const uint16_T *rtd_potentiometer2, rtB_TRCK1_ID2_TX *localB,
 846:HANcoder_E407_TTA_CombineModel.c ****                   const rtC_TRCK1_ID2_TX *localC, rtZCE_TRCK1_ID2_TX *localZCE)
 847:HANcoder_E407_TTA_CombineModel.c **** {
 1576              		.loc 1 847 1 is_stmt 1 view -0
 1577              		.cfi_startproc
 1578              		@ args = 24, pretend = 0, frame = 0
 1579              		@ frame_needed = 0, uses_anonymous_args = 0
 848:HANcoder_E407_TTA_CombineModel.c ****   uint8_T rtb_Cast1_j;
 1580              		.loc 1 848 3 view .LVU463
 849:HANcoder_E407_TTA_CombineModel.c **** 
 850:HANcoder_E407_TTA_CombineModel.c ****   /* Outputs for Triggered SubSystem: '<S13>/TRCK1_ID2_TX' incorporates:
 851:HANcoder_E407_TTA_CombineModel.c ****    *  TriggerPort: '<S106>/Trigger'
 852:HANcoder_E407_TTA_CombineModel.c ****    */
 853:HANcoder_E407_TTA_CombineModel.c ****   if (rtu_Trigger && (localZCE->TRCK1_ID2_TX_Trig_ZCE != POS_ZCSIG)) {
 1581              		.loc 1 853 3 view .LVU464
 847:HANcoder_E407_TTA_CombineModel.c ****   uint8_T rtb_Cast1_j;
 1582              		.loc 1 847 1 is_stmt 0 view .LVU465
 1583 0000 2DE9F047 		push	{r4, r5, r6, r7, r8, r9, r10, lr}
 1584              		.cfi_def_cfa_offset 32
 1585              		.cfi_offset 4, -32
 1586              		.cfi_offset 5, -28
 1587              		.cfi_offset 6, -24
 1588              		.cfi_offset 7, -20
 1589              		.cfi_offset 8, -16
 1590              		.cfi_offset 9, -12
 1591              		.cfi_offset 10, -8
 1592              		.cfi_offset 14, -4
 847:HANcoder_E407_TTA_CombineModel.c ****   uint8_T rtb_Cast1_j;
 1593              		.loc 1 847 1 view .LVU466
 1594 0004 0D9E     		ldr	r6, [sp, #52]
 1595 0006 DDE90B57 		ldrd	r5, r7, [sp, #44]
 1596              		.loc 1 853 6 view .LVU467
 1597 000a 0446     		mov	r4, r0
 1598 000c 10B1     		cbz	r0, .L105
 1599              		.loc 1 853 19 discriminator 1 view .LVU468
 1600 000e 3078     		ldrb	r0, [r6]	@ zero_extendqisi2
 1601              	.LVL113:
 1602              		.loc 1 853 19 discriminator 1 view .LVU469
 1603 0010 0128     		cmp	r0, #1
 1604 0012 02D1     		bne	.L113
 1605              	.L105:
 854:HANcoder_E407_TTA_CombineModel.c ****     /* DataStoreRead: '<S106>/Data Store Read2' */
 855:HANcoder_E407_TTA_CombineModel.c ****     localB->DataStoreRead2 = *rtd_Local_Ticks;
 856:HANcoder_E407_TTA_CombineModel.c **** 
 857:HANcoder_E407_TTA_CombineModel.c ****     /* DataTypeConversion: '<S151>/Cast1' incorporates:
 858:HANcoder_E407_TTA_CombineModel.c ****      *  DataStoreRead: '<S106>/Data Store Read4'
 859:HANcoder_E407_TTA_CombineModel.c ****      */
 860:HANcoder_E407_TTA_CombineModel.c ****     rtb_Cast1_j = *rtd_potFault;
 861:HANcoder_E407_TTA_CombineModel.c **** 
 862:HANcoder_E407_TTA_CombineModel.c ****     /* Outputs for Atomic SubSystem: '<S151>/Bit Shift1' */
 863:HANcoder_E407_TTA_CombineModel.c ****     BitShift1_b(rtb_Cast1_j, &localB->BitShift1_b0);
 864:HANcoder_E407_TTA_CombineModel.c **** 
 865:HANcoder_E407_TTA_CombineModel.c ****     /* End of Outputs for SubSystem: '<S151>/Bit Shift1' */
 866:HANcoder_E407_TTA_CombineModel.c **** 
 867:HANcoder_E407_TTA_CombineModel.c ****     /* Outputs for Atomic SubSystem: '<S151>/Bit Shift' */
 868:HANcoder_E407_TTA_CombineModel.c ****     BitShift_gy(localC->Cast, &localB->BitShift_gyk);
 869:HANcoder_E407_TTA_CombineModel.c **** 
 870:HANcoder_E407_TTA_CombineModel.c ****     /* End of Outputs for SubSystem: '<S151>/Bit Shift' */
 871:HANcoder_E407_TTA_CombineModel.c **** 
 872:HANcoder_E407_TTA_CombineModel.c ****     /* Outputs for Atomic SubSystem: '<S151>/Bit Shift2' */
 873:HANcoder_E407_TTA_CombineModel.c ****     BitShift2_p(localC->Cast2, &localB->BitShift2_pw);
 874:HANcoder_E407_TTA_CombineModel.c **** 
 875:HANcoder_E407_TTA_CombineModel.c ****     /* End of Outputs for SubSystem: '<S151>/Bit Shift2' */
 876:HANcoder_E407_TTA_CombineModel.c **** 
 877:HANcoder_E407_TTA_CombineModel.c ****     /* Outputs for Atomic SubSystem: '<S151>/Bit Shift3' */
 878:HANcoder_E407_TTA_CombineModel.c ****     BitShift3_l(localC->Cast3, &localB->BitShift3_lh);
 879:HANcoder_E407_TTA_CombineModel.c **** 
 880:HANcoder_E407_TTA_CombineModel.c ****     /* End of Outputs for SubSystem: '<S151>/Bit Shift3' */
 881:HANcoder_E407_TTA_CombineModel.c **** 
 882:HANcoder_E407_TTA_CombineModel.c ****     /* Outputs for Atomic SubSystem: '<S151>/Bit Shift4' */
 883:HANcoder_E407_TTA_CombineModel.c ****     BitShift4_g(localC->Cast4, &localB->BitShift4_g2);
 884:HANcoder_E407_TTA_CombineModel.c **** 
 885:HANcoder_E407_TTA_CombineModel.c ****     /* End of Outputs for SubSystem: '<S151>/Bit Shift4' */
 886:HANcoder_E407_TTA_CombineModel.c **** 
 887:HANcoder_E407_TTA_CombineModel.c ****     /* Outputs for Atomic SubSystem: '<S151>/Bit Shift5' */
 888:HANcoder_E407_TTA_CombineModel.c ****     BitShift5_n(localC->Cast5, &localB->BitShift5_nr);
 889:HANcoder_E407_TTA_CombineModel.c **** 
 890:HANcoder_E407_TTA_CombineModel.c ****     /* End of Outputs for SubSystem: '<S151>/Bit Shift5' */
 891:HANcoder_E407_TTA_CombineModel.c **** 
 892:HANcoder_E407_TTA_CombineModel.c ****     /* Outputs for Atomic SubSystem: '<S151>/Bit Shift6' */
 893:HANcoder_E407_TTA_CombineModel.c ****     BitShift6_d(localC->Cast6, &localB->BitShift6_dc);
 894:HANcoder_E407_TTA_CombineModel.c **** 
 895:HANcoder_E407_TTA_CombineModel.c ****     /* End of Outputs for SubSystem: '<S151>/Bit Shift6' */
 896:HANcoder_E407_TTA_CombineModel.c **** 
 897:HANcoder_E407_TTA_CombineModel.c ****     /* Sum: '<S151>/Add' incorporates:
 898:HANcoder_E407_TTA_CombineModel.c ****      *  DataStoreRead: '<S106>/Data Store Read3'
 899:HANcoder_E407_TTA_CombineModel.c ****      *  DataTypeConversion: '<S151>/Cast7'
 900:HANcoder_E407_TTA_CombineModel.c ****      */
 901:HANcoder_E407_TTA_CombineModel.c ****     localB->Add = (uint8_T)((uint32_T)(uint8_T)((uint32_T)(uint8_T)((uint32_T)
 902:HANcoder_E407_TTA_CombineModel.c ****       (uint8_T)((uint32_T)(uint8_T)((uint32_T)(uint8_T)((uint32_T)(uint8_T)
 903:HANcoder_E407_TTA_CombineModel.c ****       ((uint32_T)*rtd_motorFailed + localB->BitShift1_b0.y) +
 904:HANcoder_E407_TTA_CombineModel.c ****       localB->BitShift_gyk.y) + localB->BitShift2_pw.y) + localB->BitShift3_lh.y)
 905:HANcoder_E407_TTA_CombineModel.c ****       + localB->BitShift4_g2.y) + localB->BitShift5_nr.y) +
 906:HANcoder_E407_TTA_CombineModel.c ****       localB->BitShift6_dc.y);
 907:HANcoder_E407_TTA_CombineModel.c **** 
 908:HANcoder_E407_TTA_CombineModel.c ****     /* Outputs for Atomic SubSystem: '<S152>/Bit Shift' */
 909:HANcoder_E407_TTA_CombineModel.c ****     /* DataStoreRead: '<S106>/Data Store Read1' */
 910:HANcoder_E407_TTA_CombineModel.c ****     BitShift_o(*rtd_potentiometer2, &localB->BitShift_of);
 911:HANcoder_E407_TTA_CombineModel.c **** 
 912:HANcoder_E407_TTA_CombineModel.c ****     /* End of Outputs for SubSystem: '<S152>/Bit Shift' */
 913:HANcoder_E407_TTA_CombineModel.c **** 
 914:HANcoder_E407_TTA_CombineModel.c ****     /* DataTypeConversion: '<S152>/Cast' */
 915:HANcoder_E407_TTA_CombineModel.c ****     localB->Cast = (uint8_T)localB->BitShift_of.y;
 916:HANcoder_E407_TTA_CombineModel.c **** 
 917:HANcoder_E407_TTA_CombineModel.c ****     /* DataTypeConversion: '<S152>/Cast1' incorporates:
 918:HANcoder_E407_TTA_CombineModel.c ****      *  DataStoreRead: '<S106>/Data Store Read1'
 919:HANcoder_E407_TTA_CombineModel.c ****      */
 920:HANcoder_E407_TTA_CombineModel.c ****     localB->Cast1 = (uint8_T)*rtd_potentiometer2;
 921:HANcoder_E407_TTA_CombineModel.c **** 
 922:HANcoder_E407_TTA_CombineModel.c ****     /* Outputs for Atomic SubSystem: '<S153>/Bit Shift' */
 923:HANcoder_E407_TTA_CombineModel.c ****     /* DataStoreRead: '<S106>/Data Store Read' */
 924:HANcoder_E407_TTA_CombineModel.c ****     BitShift_o(*rtd_potentiometer1, &localB->BitShift_h);
 925:HANcoder_E407_TTA_CombineModel.c **** 
 926:HANcoder_E407_TTA_CombineModel.c ****     /* End of Outputs for SubSystem: '<S153>/Bit Shift' */
 927:HANcoder_E407_TTA_CombineModel.c **** 
 928:HANcoder_E407_TTA_CombineModel.c ****     /* DataTypeConversion: '<S153>/Cast' */
 929:HANcoder_E407_TTA_CombineModel.c ****     localB->Cast_k = (uint8_T)localB->BitShift_h.y;
 930:HANcoder_E407_TTA_CombineModel.c **** 
 931:HANcoder_E407_TTA_CombineModel.c ****     /* DataTypeConversion: '<S153>/Cast1' incorporates:
 932:HANcoder_E407_TTA_CombineModel.c ****      *  DataStoreRead: '<S106>/Data Store Read'
 933:HANcoder_E407_TTA_CombineModel.c ****      */
 934:HANcoder_E407_TTA_CombineModel.c ****     localB->Cast1_i = (uint8_T)*rtd_potentiometer1;
 935:HANcoder_E407_TTA_CombineModel.c **** 
 936:HANcoder_E407_TTA_CombineModel.c ****     /* Update for M-S-Function: '<S150>/S-Function' incorporates:
 937:HANcoder_E407_TTA_CombineModel.c ****      *  Constant: '<S106>/Constant'
 938:HANcoder_E407_TTA_CombineModel.c ****      *  Constant: '<S106>/Constant1'
 939:HANcoder_E407_TTA_CombineModel.c ****      */
 940:HANcoder_E407_TTA_CombineModel.c ****     {
 941:HANcoder_E407_TTA_CombineModel.c ****       /* prepare the data */
 942:HANcoder_E407_TTA_CombineModel.c ****       canTxData.uint8_T_info[0] = localB->Cast_k;
 943:HANcoder_E407_TTA_CombineModel.c ****       canTxData.uint8_T_info[1] = localB->Cast1_i;
 944:HANcoder_E407_TTA_CombineModel.c ****       canTxData.uint8_T_info[2] = localB->Cast;
 945:HANcoder_E407_TTA_CombineModel.c ****       canTxData.uint8_T_info[3] = localB->Cast1;
 946:HANcoder_E407_TTA_CombineModel.c ****       canTxData.uint8_T_info[4] = localB->DataStoreRead2;
 947:HANcoder_E407_TTA_CombineModel.c ****       canTxData.uint8_T_info[5] = ((uint8_T)0U);
 948:HANcoder_E407_TTA_CombineModel.c ****       canTxData.uint8_T_info[6] = localB->Add;
 949:HANcoder_E407_TTA_CombineModel.c ****       canTxData.uint8_T_info[7] = ((uint8_T)0U);
 950:HANcoder_E407_TTA_CombineModel.c **** 
 951:HANcoder_E407_TTA_CombineModel.c ****       /* send the data */
 952:HANcoder_E407_TTA_CombineModel.c ****       CanTransmit(0, rtu_In1, 8, &canTxData.uint8_T_info[0]);
 953:HANcoder_E407_TTA_CombineModel.c ****     }
 954:HANcoder_E407_TTA_CombineModel.c ****   }
 955:HANcoder_E407_TTA_CombineModel.c **** 
 956:HANcoder_E407_TTA_CombineModel.c ****   localZCE->TRCK1_ID2_TX_Trig_ZCE = rtu_Trigger;
 1606              		.loc 1 956 3 is_stmt 1 view .LVU470
 1607              		.loc 1 956 35 is_stmt 0 view .LVU471
 1608 0014 3470     		strb	r4, [r6]
 957:HANcoder_E407_TTA_CombineModel.c **** 
 958:HANcoder_E407_TTA_CombineModel.c ****   /* End of Outputs for SubSystem: '<S13>/TRCK1_ID2_TX' */
 959:HANcoder_E407_TTA_CombineModel.c **** }
 1609              		.loc 1 959 1 view .LVU472
 1610 0016 BDE8F087 		pop	{r4, r5, r6, r7, r8, r9, r10, pc}
 1611              	.LVL114:
 1612              	.L113:
 855:HANcoder_E407_TTA_CombineModel.c **** 
 1613              		.loc 1 855 5 is_stmt 1 view .LVU473
 855:HANcoder_E407_TTA_CombineModel.c **** 
 1614              		.loc 1 855 30 is_stmt 0 view .LVU474
 1615 001a 92F80080 		ldrb	r8, [r2]	@ zero_extendqisi2
 1616              	.LBB214:
 1617              	.LBB215:
 732:HANcoder_E407_TTA_CombineModel.c **** }
 1618              		.loc 1 732 15 view .LVU475
 1619 001e 089A     		ldr	r2, [sp, #32]
 1620              	.LVL115:
 732:HANcoder_E407_TTA_CombineModel.c **** }
 1621              		.loc 1 732 15 view .LVU476
 1622              	.LBE215:
 1623              	.LBE214:
 855:HANcoder_E407_TTA_CombineModel.c **** 
 1624              		.loc 1 855 28 view .LVU477
 1625 0020 85F80080 		strb	r8, [r5]
 860:HANcoder_E407_TTA_CombineModel.c **** 
 1626              		.loc 1 860 5 is_stmt 1 view .LVU478
 1627              	.LVL116:
 863:HANcoder_E407_TTA_CombineModel.c **** 
 1628              		.loc 1 863 5 view .LVU479
 1629              	.LBB217:
 1630              	.LBI214:
 727:HANcoder_E407_TTA_CombineModel.c **** {
 1631              		.loc 1 727 6 view .LVU480
 1632              	.LBB216:
 732:HANcoder_E407_TTA_CombineModel.c **** }
 1633              		.loc 1 732 3 view .LVU481
 732:HANcoder_E407_TTA_CombineModel.c **** }
 1634              		.loc 1 732 15 is_stmt 0 view .LVU482
 1635 0024 92F800E0 		ldrb	lr, [r2]	@ zero_extendqisi2
 1636 0028 4FEA4E0E 		lsl	lr, lr, #1
 1637 002c 5FFA8EFE 		uxtb	lr, lr
 732:HANcoder_E407_TTA_CombineModel.c **** }
 1638              		.loc 1 732 13 view .LVU483
 1639 0030 85F80FE0 		strb	lr, [r5, #15]
 1640              	.LVL117:
 732:HANcoder_E407_TTA_CombineModel.c **** }
 1641              		.loc 1 732 13 view .LVU484
 1642              	.LBE216:
 1643              	.LBE217:
 868:HANcoder_E407_TTA_CombineModel.c **** 
 1644              		.loc 1 868 5 is_stmt 1 view .LVU485
 1645              	.LBB218:
 1646              	.LBI218:
 711:HANcoder_E407_TTA_CombineModel.c **** {
 1647              		.loc 1 711 6 view .LVU486
 1648              	.LBB219:
 716:HANcoder_E407_TTA_CombineModel.c **** }
 1649              		.loc 1 716 3 view .LVU487
 716:HANcoder_E407_TTA_CombineModel.c **** }
 1650              		.loc 1 716 15 is_stmt 0 view .LVU488
 1651 0034 3A78     		ldrb	r2, [r7]	@ zero_extendqisi2
 1652 0036 9200     		lsls	r2, r2, #2
 1653 0038 D2B2     		uxtb	r2, r2
 716:HANcoder_E407_TTA_CombineModel.c **** }
 1654              		.loc 1 716 13 view .LVU489
 1655 003a 2A74     		strb	r2, [r5, #16]
 1656              	.LVL118:
 716:HANcoder_E407_TTA_CombineModel.c **** }
 1657              		.loc 1 716 13 view .LVU490
 1658              	.LBE219:
 1659              	.LBE218:
 873:HANcoder_E407_TTA_CombineModel.c **** 
 1660              		.loc 1 873 5 is_stmt 1 view .LVU491
 1661              	.LBB220:
 1662              	.LBI220:
 743:HANcoder_E407_TTA_CombineModel.c **** {
 1663              		.loc 1 743 6 view .LVU492
 1664              	.LBB221:
 748:HANcoder_E407_TTA_CombineModel.c **** }
 1665              		.loc 1 748 3 view .LVU493
 748:HANcoder_E407_TTA_CombineModel.c **** }
 1666              		.loc 1 748 15 is_stmt 0 view .LVU494
 1667 003c 7878     		ldrb	r0, [r7, #1]	@ zero_extendqisi2
 1668 003e C000     		lsls	r0, r0, #3
 1669 0040 C0B2     		uxtb	r0, r0
 748:HANcoder_E407_TTA_CombineModel.c **** }
 1670              		.loc 1 748 13 view .LVU495
 1671 0042 A873     		strb	r0, [r5, #14]
 1672              	.LVL119:
 748:HANcoder_E407_TTA_CombineModel.c **** }
 1673              		.loc 1 748 13 view .LVU496
 1674              	.LBE221:
 1675              	.LBE220:
 878:HANcoder_E407_TTA_CombineModel.c **** 
 1676              		.loc 1 878 5 is_stmt 1 view .LVU497
 1677              	.LBB222:
 1678              	.LBI222:
 759:HANcoder_E407_TTA_CombineModel.c **** {
 1679              		.loc 1 759 6 view .LVU498
 1680              	.LBB223:
 764:HANcoder_E407_TTA_CombineModel.c **** }
 1681              		.loc 1 764 3 view .LVU499
 764:HANcoder_E407_TTA_CombineModel.c **** }
 1682              		.loc 1 764 15 is_stmt 0 view .LVU500
 1683 0044 97F802C0 		ldrb	ip, [r7, #2]	@ zero_extendqisi2
 1684 0048 4FEA0C1C 		lsl	ip, ip, #4
 1685 004c 5FFA8CFC 		uxtb	ip, ip
 764:HANcoder_E407_TTA_CombineModel.c **** }
 1686              		.loc 1 764 13 view .LVU501
 1687 0050 85F80DC0 		strb	ip, [r5, #13]
 1688              	.LVL120:
 764:HANcoder_E407_TTA_CombineModel.c **** }
 1689              		.loc 1 764 13 view .LVU502
 1690              	.LBE223:
 1691              	.LBE222:
 883:HANcoder_E407_TTA_CombineModel.c **** 
 1692              		.loc 1 883 5 is_stmt 1 view .LVU503
 1693              	.LBB224:
 1694              	.LBI224:
 775:HANcoder_E407_TTA_CombineModel.c **** {
 1695              		.loc 1 775 6 view .LVU504
 1696              	.LBB225:
 780:HANcoder_E407_TTA_CombineModel.c **** }
 1697              		.loc 1 780 3 view .LVU505
 1698              	.LBE225:
 1699              	.LBE224:
 901:HANcoder_E407_TTA_CombineModel.c ****       (uint8_T)((uint32_T)(uint8_T)((uint32_T)(uint8_T)((uint32_T)(uint8_T)
 1700              		.loc 1 901 19 is_stmt 0 view .LVU506
 1701 0054 00EB0209 		add	r9, r0, r2
 1702              	.LBB227:
 1703              	.LBB226:
 780:HANcoder_E407_TTA_CombineModel.c **** }
 1704              		.loc 1 780 15 view .LVU507
 1705 0058 F878     		ldrb	r0, [r7, #3]	@ zero_extendqisi2
 1706 005a 4001     		lsls	r0, r0, #5
 1707 005c C0B2     		uxtb	r0, r0
 780:HANcoder_E407_TTA_CombineModel.c **** }
 1708              		.loc 1 780 13 view .LVU508
 1709 005e 2873     		strb	r0, [r5, #12]
 1710              	.LVL121:
 780:HANcoder_E407_TTA_CombineModel.c **** }
 1711              		.loc 1 780 13 view .LVU509
 1712              	.LBE226:
 1713              	.LBE227:
 888:HANcoder_E407_TTA_CombineModel.c **** 
 1714              		.loc 1 888 5 is_stmt 1 view .LVU510
 1715              	.LBB228:
 1716              	.LBI228:
 791:HANcoder_E407_TTA_CombineModel.c **** {
 1717              		.loc 1 791 6 view .LVU511
 1718              	.LBB229:
 796:HANcoder_E407_TTA_CombineModel.c **** }
 1719              		.loc 1 796 3 view .LVU512
 796:HANcoder_E407_TTA_CombineModel.c **** }
 1720              		.loc 1 796 15 is_stmt 0 view .LVU513
 1721 0060 97F804A0 		ldrb	r10, [r7, #4]	@ zero_extendqisi2
 1722 0064 4FEA8A1A 		lsl	r10, r10, #6
 1723 0068 5FFA8AFA 		uxtb	r10, r10
 796:HANcoder_E407_TTA_CombineModel.c **** }
 1724              		.loc 1 796 13 view .LVU514
 1725 006c 85F80BA0 		strb	r10, [r5, #11]
 1726              	.LVL122:
 796:HANcoder_E407_TTA_CombineModel.c **** }
 1727              		.loc 1 796 13 view .LVU515
 1728              	.LBE229:
 1729              	.LBE228:
 893:HANcoder_E407_TTA_CombineModel.c **** 
 1730              		.loc 1 893 5 is_stmt 1 view .LVU516
 1731              	.LBB230:
 1732              	.LBI230:
 807:HANcoder_E407_TTA_CombineModel.c **** {
 1733              		.loc 1 807 6 view .LVU517
 1734              	.LBB231:
 812:HANcoder_E407_TTA_CombineModel.c **** }
 1735              		.loc 1 812 3 view .LVU518
 812:HANcoder_E407_TTA_CombineModel.c **** }
 1736              		.loc 1 812 15 is_stmt 0 view .LVU519
 1737 0070 7A79     		ldrb	r2, [r7, #5]	@ zero_extendqisi2
 1738 0072 D201     		lsls	r2, r2, #7
 1739 0074 D2B2     		uxtb	r2, r2
 812:HANcoder_E407_TTA_CombineModel.c **** }
 1740              		.loc 1 812 13 view .LVU520
 1741 0076 AA72     		strb	r2, [r5, #10]
 1742              	.LVL123:
 812:HANcoder_E407_TTA_CombineModel.c **** }
 1743              		.loc 1 812 13 view .LVU521
 1744              	.LBE231:
 1745              	.LBE230:
 901:HANcoder_E407_TTA_CombineModel.c ****       (uint8_T)((uint32_T)(uint8_T)((uint32_T)(uint8_T)((uint32_T)(uint8_T)
 1746              		.loc 1 901 5 is_stmt 1 view .LVU522
 901:HANcoder_E407_TTA_CombineModel.c ****       (uint8_T)((uint32_T)(uint8_T)((uint32_T)(uint8_T)((uint32_T)(uint8_T)
 1747              		.loc 1 901 19 is_stmt 0 view .LVU523
 1748 0078 1B78     		ldrb	r3, [r3]	@ zero_extendqisi2
 1749              	.LVL124:
 901:HANcoder_E407_TTA_CombineModel.c ****       (uint8_T)((uint32_T)(uint8_T)((uint32_T)(uint8_T)((uint32_T)(uint8_T)
 1750              		.loc 1 901 19 view .LVU524
 1751 007a 9944     		add	r9, r9, r3
 1752 007c CC44     		add	ip, ip, r9
 1753 007e 6044     		add	r0, r0, ip
 1754 0080 8244     		add	r10, r10, r0
 1755 0082 5244     		add	r2, r2, r10
 1756 0084 7244     		add	r2, r2, lr
 1757              	.LBB232:
 1758              	.LBB233:
 833:HANcoder_E407_TTA_CombineModel.c **** }
 1759              		.loc 1 833 15 view .LVU525
 1760 0086 0A9B     		ldr	r3, [sp, #40]
 1761              	.LBE233:
 1762              	.LBE232:
 901:HANcoder_E407_TTA_CombineModel.c ****       (uint8_T)((uint32_T)(uint8_T)((uint32_T)(uint8_T)((uint32_T)(uint8_T)
 1763              		.loc 1 901 19 view .LVU526
 1764 0088 5FFA82FA 		uxtb	r10, r2
 901:HANcoder_E407_TTA_CombineModel.c ****       (uint8_T)((uint32_T)(uint8_T)((uint32_T)(uint8_T)((uint32_T)(uint8_T)
 1765              		.loc 1 901 17 view .LVU527
 1766 008c 85F801A0 		strb	r10, [r5, #1]
 910:HANcoder_E407_TTA_CombineModel.c **** 
 1767              		.loc 1 910 5 is_stmt 1 view .LVU528
 1768              	.LVL125:
 1769              	.LBB236:
 1770              	.LBI232:
 828:HANcoder_E407_TTA_CombineModel.c **** {
 1771              		.loc 1 828 6 view .LVU529
 1772              	.LBB234:
 833:HANcoder_E407_TTA_CombineModel.c **** }
 1773              		.loc 1 833 3 view .LVU530
 833:HANcoder_E407_TTA_CombineModel.c **** }
 1774              		.loc 1 833 15 is_stmt 0 view .LVU531
 1775 0090 1F88     		ldrh	r7, [r3]
 1776              	.LBE234:
 1777              	.LBE236:
 934:HANcoder_E407_TTA_CombineModel.c **** 
 1778              		.loc 1 934 23 view .LVU532
 1779 0092 099A     		ldr	r2, [sp, #36]
 1780              	.LBB237:
 1781              	.LBB235:
 833:HANcoder_E407_TTA_CombineModel.c **** }
 1782              		.loc 1 833 15 view .LVU533
 1783 0094 3F0A     		lsrs	r7, r7, #8
 833:HANcoder_E407_TTA_CombineModel.c **** }
 1784              		.loc 1 833 13 view .LVU534
 1785 0096 2F81     		strh	r7, [r5, #8]	@ movhi
 1786              	.LVL126:
 833:HANcoder_E407_TTA_CombineModel.c **** }
 1787              		.loc 1 833 13 view .LVU535
 1788              	.LBE235:
 1789              	.LBE237:
 915:HANcoder_E407_TTA_CombineModel.c **** 
 1790              		.loc 1 915 5 is_stmt 1 view .LVU536
 915:HANcoder_E407_TTA_CombineModel.c **** 
 1791              		.loc 1 915 20 is_stmt 0 view .LVU537
 1792 0098 FFB2     		uxtb	r7, r7
 915:HANcoder_E407_TTA_CombineModel.c **** 
 1793              		.loc 1 915 18 view .LVU538
 1794 009a AF70     		strb	r7, [r5, #2]
 920:HANcoder_E407_TTA_CombineModel.c **** 
 1795              		.loc 1 920 5 is_stmt 1 view .LVU539
 920:HANcoder_E407_TTA_CombineModel.c **** 
 1796              		.loc 1 920 21 is_stmt 0 view .LVU540
 1797 009c 93F800E0 		ldrb	lr, [r3]	@ zero_extendqisi2
 1798              	.LBB238:
 1799              	.LBB239:
 833:HANcoder_E407_TTA_CombineModel.c **** }
 1800              		.loc 1 833 15 view .LVU541
 1801 00a0 099B     		ldr	r3, [sp, #36]
 1802              	.LBE239:
 1803              	.LBE238:
 920:HANcoder_E407_TTA_CombineModel.c **** 
 1804              		.loc 1 920 19 view .LVU542
 1805 00a2 85F803E0 		strb	lr, [r5, #3]
 924:HANcoder_E407_TTA_CombineModel.c **** 
 1806              		.loc 1 924 5 is_stmt 1 view .LVU543
 1807              	.LVL127:
 1808              	.LBB242:
 1809              	.LBI238:
 828:HANcoder_E407_TTA_CombineModel.c **** {
 1810              		.loc 1 828 6 view .LVU544
 1811              	.LBB240:
 833:HANcoder_E407_TTA_CombineModel.c **** }
 1812              		.loc 1 833 3 view .LVU545
 833:HANcoder_E407_TTA_CombineModel.c **** }
 1813              		.loc 1 833 15 is_stmt 0 view .LVU546
 1814 00a6 B3F800C0 		ldrh	ip, [r3]
 1815              	.LBE240:
 1816              	.LBE242:
 942:HANcoder_E407_TTA_CombineModel.c ****       canTxData.uint8_T_info[1] = localB->Cast1_i;
 1817              		.loc 1 942 33 view .LVU547
 1818 00aa 104B     		ldr	r3, .L114
 1819              	.LBB243:
 1820              	.LBB241:
 833:HANcoder_E407_TTA_CombineModel.c **** }
 1821              		.loc 1 833 15 view .LVU548
 1822 00ac 4FEA1C2C 		lsr	ip, ip, #8
 833:HANcoder_E407_TTA_CombineModel.c **** }
 1823              		.loc 1 833 13 view .LVU549
 1824 00b0 A5F806C0 		strh	ip, [r5, #6]	@ movhi
 1825              	.LVL128:
 833:HANcoder_E407_TTA_CombineModel.c **** }
 1826              		.loc 1 833 13 view .LVU550
 1827              	.LBE241:
 1828              	.LBE243:
 929:HANcoder_E407_TTA_CombineModel.c **** 
 1829              		.loc 1 929 5 is_stmt 1 view .LVU551
 929:HANcoder_E407_TTA_CombineModel.c **** 
 1830              		.loc 1 929 22 is_stmt 0 view .LVU552
 1831 00b4 5FFA8CFC 		uxtb	ip, ip
 929:HANcoder_E407_TTA_CombineModel.c **** 
 1832              		.loc 1 929 20 view .LVU553
 1833 00b8 85F804C0 		strb	ip, [r5, #4]
 934:HANcoder_E407_TTA_CombineModel.c **** 
 1834              		.loc 1 934 5 is_stmt 1 view .LVU554
 934:HANcoder_E407_TTA_CombineModel.c **** 
 1835              		.loc 1 934 23 is_stmt 0 view .LVU555
 1836 00bc 92F80090 		ldrb	r9, [r2]	@ zero_extendqisi2
 934:HANcoder_E407_TTA_CombineModel.c **** 
 1837              		.loc 1 934 21 view .LVU556
 1838 00c0 85F80590 		strb	r9, [r5, #5]
 942:HANcoder_E407_TTA_CombineModel.c ****       canTxData.uint8_T_info[1] = localB->Cast1_i;
 1839              		.loc 1 942 7 is_stmt 1 view .LVU557
 947:HANcoder_E407_TTA_CombineModel.c ****       canTxData.uint8_T_info[6] = localB->Add;
 1840              		.loc 1 947 33 is_stmt 0 view .LVU558
 1841 00c4 0020     		movs	r0, #0
 942:HANcoder_E407_TTA_CombineModel.c ****       canTxData.uint8_T_info[1] = localB->Cast1_i;
 1842              		.loc 1 942 33 view .LVU559
 1843 00c6 83F800C0 		strb	ip, [r3]
 943:HANcoder_E407_TTA_CombineModel.c ****       canTxData.uint8_T_info[2] = localB->Cast;
 1844              		.loc 1 943 7 is_stmt 1 view .LVU560
 952:HANcoder_E407_TTA_CombineModel.c ****     }
 1845              		.loc 1 952 7 is_stmt 0 view .LVU561
 1846 00ca 0822     		movs	r2, #8
 943:HANcoder_E407_TTA_CombineModel.c ****       canTxData.uint8_T_info[2] = localB->Cast;
 1847              		.loc 1 943 33 view .LVU562
 1848 00cc 83F80190 		strb	r9, [r3, #1]
 944:HANcoder_E407_TTA_CombineModel.c ****       canTxData.uint8_T_info[3] = localB->Cast1;
 1849              		.loc 1 944 7 is_stmt 1 view .LVU563
 944:HANcoder_E407_TTA_CombineModel.c ****       canTxData.uint8_T_info[3] = localB->Cast1;
 1850              		.loc 1 944 33 is_stmt 0 view .LVU564
 1851 00d0 9F70     		strb	r7, [r3, #2]
 945:HANcoder_E407_TTA_CombineModel.c ****       canTxData.uint8_T_info[4] = localB->DataStoreRead2;
 1852              		.loc 1 945 7 is_stmt 1 view .LVU565
 945:HANcoder_E407_TTA_CombineModel.c ****       canTxData.uint8_T_info[4] = localB->DataStoreRead2;
 1853              		.loc 1 945 33 is_stmt 0 view .LVU566
 1854 00d2 83F803E0 		strb	lr, [r3, #3]
 946:HANcoder_E407_TTA_CombineModel.c ****       canTxData.uint8_T_info[5] = ((uint8_T)0U);
 1855              		.loc 1 946 7 is_stmt 1 view .LVU567
 946:HANcoder_E407_TTA_CombineModel.c ****       canTxData.uint8_T_info[5] = ((uint8_T)0U);
 1856              		.loc 1 946 33 is_stmt 0 view .LVU568
 1857 00d6 83F80480 		strb	r8, [r3, #4]
 947:HANcoder_E407_TTA_CombineModel.c ****       canTxData.uint8_T_info[6] = localB->Add;
 1858              		.loc 1 947 7 is_stmt 1 view .LVU569
 948:HANcoder_E407_TTA_CombineModel.c ****       canTxData.uint8_T_info[7] = ((uint8_T)0U);
 1859              		.loc 1 948 33 is_stmt 0 view .LVU570
 1860 00da 83F806A0 		strb	r10, [r3, #6]
 947:HANcoder_E407_TTA_CombineModel.c ****       canTxData.uint8_T_info[6] = localB->Add;
 1861              		.loc 1 947 33 view .LVU571
 1862 00de 5871     		strb	r0, [r3, #5]
 948:HANcoder_E407_TTA_CombineModel.c ****       canTxData.uint8_T_info[7] = ((uint8_T)0U);
 1863              		.loc 1 948 7 is_stmt 1 view .LVU572
 949:HANcoder_E407_TTA_CombineModel.c **** 
 1864              		.loc 1 949 7 view .LVU573
 949:HANcoder_E407_TTA_CombineModel.c **** 
 1865              		.loc 1 949 33 is_stmt 0 view .LVU574
 1866 00e0 D871     		strb	r0, [r3, #7]
 952:HANcoder_E407_TTA_CombineModel.c ****     }
 1867              		.loc 1 952 7 is_stmt 1 view .LVU575
 1868 00e2 FFF7FEFF 		bl	CanTransmit
 1869              	.LVL129:
 956:HANcoder_E407_TTA_CombineModel.c **** 
 1870              		.loc 1 956 3 view .LVU576
 956:HANcoder_E407_TTA_CombineModel.c **** 
 1871              		.loc 1 956 35 is_stmt 0 view .LVU577
 1872 00e6 3470     		strb	r4, [r6]
 1873              		.loc 1 959 1 view .LVU578
 1874 00e8 BDE8F087 		pop	{r4, r5, r6, r7, r8, r9, r10, pc}
 1875              	.LVL130:
 1876              	.L115:
 1877              		.loc 1 959 1 view .LVU579
 1878              		.align	2
 1879              	.L114:
 1880 00ec 00000000 		.word	.LANCHOR9
 1881              		.cfi_endproc
 1882              	.LFE141:
 1884              		.global	__aeabi_dcmpeq
 1885              		.global	__aeabi_dmul
 1886              		.global	__aeabi_ui2d
 1887              		.global	__aeabi_dadd
 1888              		.global	__aeabi_dsub
 1889              		.global	__aeabi_dcmplt
 1890              		.global	__aeabi_dcmpgt
 1891              		.global	__aeabi_ddiv
 1892              		.global	__aeabi_d2f
 1893              		.global	__aeabi_f2d
 1894              		.global	__aeabi_i2d
 1895              		.global	__aeabi_dcmpge
 1896              		.global	__aeabi_dcmple
 1897              		.section	.rodata.HANcoder_E407_TTA_CombineModel_step.str1.4,"aMS",%progbits,1
 1898              		.align	2
 1899              	.LC0:
 1900 0000 41707043 		.ascii	"AppCtrlTask\000"
 1900      74726C54 
 1900      61736B00 
 1901              		.section	.text.HANcoder_E407_TTA_CombineModel_step,"ax",%progbits
 1902              		.align	1
 1903              		.p2align 2,,3
 1904              		.global	HANcoder_E407_TTA_CombineModel_step
 1905              		.syntax unified
 1906              		.thumb
 1907              		.thumb_func
 1909              	HANcoder_E407_TTA_CombineModel_step:
 1910              	.LFB142:
 960:HANcoder_E407_TTA_CombineModel.c **** 
 961:HANcoder_E407_TTA_CombineModel.c **** /* Model step function */
 962:HANcoder_E407_TTA_CombineModel.c **** void HANcoder_E407_TTA_CombineModel_step(void)
 963:HANcoder_E407_TTA_CombineModel.c **** {
 1911              		.loc 1 963 1 is_stmt 1 view -0
 1912              		.cfi_startproc
 1913              		@ args = 0, pretend = 0, frame = 16
 1914              		@ frame_needed = 0, uses_anonymous_args = 0
 964:HANcoder_E407_TTA_CombineModel.c ****   /* local block i/o variables */
 965:HANcoder_E407_TTA_CombineModel.c ****   real32_T rtb_Cast_m;
 1915              		.loc 1 965 3 view .LVU581
 966:HANcoder_E407_TTA_CombineModel.c ****   real32_T rtb_Cast3;
 1916              		.loc 1 966 3 view .LVU582
 967:HANcoder_E407_TTA_CombineModel.c ****   uint8_T rtb_SFunction_o2;
 1917              		.loc 1 967 3 view .LVU583
 968:HANcoder_E407_TTA_CombineModel.c ****   uint8_T rtb_SFunction_o3;
 1918              		.loc 1 968 3 view .LVU584
 969:HANcoder_E407_TTA_CombineModel.c ****   uint8_T rtb_SFunction_o4;
 1919              		.loc 1 969 3 view .LVU585
 970:HANcoder_E407_TTA_CombineModel.c ****   uint8_T rtb_SFunction_o5;
 1920              		.loc 1 970 3 view .LVU586
 971:HANcoder_E407_TTA_CombineModel.c ****   uint8_T rtb_SFunction_o6;
 1921              		.loc 1 971 3 view .LVU587
 972:HANcoder_E407_TTA_CombineModel.c ****   uint8_T rtb_SFunction_o7;
 1922              		.loc 1 972 3 view .LVU588
 973:HANcoder_E407_TTA_CombineModel.c ****   uint8_T rtb_SFunction_o8;
 1923              		.loc 1 973 3 view .LVU589
 974:HANcoder_E407_TTA_CombineModel.c ****   uint8_T rtb_SFunction_o9;
 1924              		.loc 1 974 3 view .LVU590
 975:HANcoder_E407_TTA_CombineModel.c ****   uint8_T rtb_SFunction_o2_l;
 1925              		.loc 1 975 3 view .LVU591
 976:HANcoder_E407_TTA_CombineModel.c ****   uint8_T rtb_SFunction_o3_m;
 1926              		.loc 1 976 3 view .LVU592
 977:HANcoder_E407_TTA_CombineModel.c ****   uint8_T rtb_SFunction_o4_b;
 1927              		.loc 1 977 3 view .LVU593
 978:HANcoder_E407_TTA_CombineModel.c ****   uint8_T rtb_SFunction_o5_o;
 1928              		.loc 1 978 3 view .LVU594
 979:HANcoder_E407_TTA_CombineModel.c ****   uint8_T rtb_SFunction_o6_i;
 1929              		.loc 1 979 3 view .LVU595
 980:HANcoder_E407_TTA_CombineModel.c ****   uint8_T rtb_SFunction_o7_f;
 1930              		.loc 1 980 3 view .LVU596
 981:HANcoder_E407_TTA_CombineModel.c ****   uint8_T rtb_SFunction_o8_p;
 1931              		.loc 1 981 3 view .LVU597
 982:HANcoder_E407_TTA_CombineModel.c ****   uint8_T rtb_SFunction_o9_l;
 1932              		.loc 1 982 3 view .LVU598
 983:HANcoder_E407_TTA_CombineModel.c ****   uint8_T rtb_SFunction_o2_e;
 1933              		.loc 1 983 3 view .LVU599
 984:HANcoder_E407_TTA_CombineModel.c ****   uint8_T rtb_SFunction_o3_p;
 1934              		.loc 1 984 3 view .LVU600
 985:HANcoder_E407_TTA_CombineModel.c ****   uint8_T rtb_SFunction_o4_c;
 1935              		.loc 1 985 3 view .LVU601
 986:HANcoder_E407_TTA_CombineModel.c ****   uint8_T rtb_SFunction_o5_c;
 1936              		.loc 1 986 3 view .LVU602
 987:HANcoder_E407_TTA_CombineModel.c ****   uint8_T rtb_SFunction_o6_e;
 1937              		.loc 1 987 3 view .LVU603
 988:HANcoder_E407_TTA_CombineModel.c ****   uint8_T rtb_SFunction_o7_l;
 1938              		.loc 1 988 3 view .LVU604
 989:HANcoder_E407_TTA_CombineModel.c ****   uint8_T rtb_SFunction_o8_f;
 1939              		.loc 1 989 3 view .LVU605
 990:HANcoder_E407_TTA_CombineModel.c ****   uint8_T rtb_SFunction_o9_h;
 1940              		.loc 1 990 3 view .LVU606
 991:HANcoder_E407_TTA_CombineModel.c ****   uint8_T rtb_SFunction_o2_j;
 1941              		.loc 1 991 3 view .LVU607
 992:HANcoder_E407_TTA_CombineModel.c ****   uint8_T rtb_SFunction_o3_a;
 1942              		.loc 1 992 3 view .LVU608
 993:HANcoder_E407_TTA_CombineModel.c ****   uint8_T rtb_SFunction_o4_i;
 1943              		.loc 1 993 3 view .LVU609
 994:HANcoder_E407_TTA_CombineModel.c ****   uint8_T rtb_SFunction_o5_k;
 1944              		.loc 1 994 3 view .LVU610
 995:HANcoder_E407_TTA_CombineModel.c ****   uint8_T rtb_SFunction_o6_c;
 1945              		.loc 1 995 3 view .LVU611
 996:HANcoder_E407_TTA_CombineModel.c ****   uint8_T rtb_SFunction_o7_d;
 1946              		.loc 1 996 3 view .LVU612
 997:HANcoder_E407_TTA_CombineModel.c ****   uint8_T rtb_SFunction_o8_h;
 1947              		.loc 1 997 3 view .LVU613
 998:HANcoder_E407_TTA_CombineModel.c ****   uint8_T rtb_SFunction_o9_b;
 1948              		.loc 1 998 3 view .LVU614
 999:HANcoder_E407_TTA_CombineModel.c ****   uint8_T rtb_SFunction_o2_i;
 1949              		.loc 1 999 3 view .LVU615
1000:HANcoder_E407_TTA_CombineModel.c ****   uint8_T rtb_SFunction_o3_i;
 1950              		.loc 1 1000 3 view .LVU616
1001:HANcoder_E407_TTA_CombineModel.c ****   uint8_T rtb_SFunction_o4_n;
 1951              		.loc 1 1001 3 view .LVU617
1002:HANcoder_E407_TTA_CombineModel.c ****   uint8_T rtb_SFunction_o5_p;
 1952              		.loc 1 1002 3 view .LVU618
1003:HANcoder_E407_TTA_CombineModel.c ****   uint8_T rtb_SFunction_o6_g;
 1953              		.loc 1 1003 3 view .LVU619
1004:HANcoder_E407_TTA_CombineModel.c ****   uint8_T rtb_SFunction_o7_fg;
 1954              		.loc 1 1004 3 view .LVU620
1005:HANcoder_E407_TTA_CombineModel.c ****   uint8_T rtb_SFunction_o8_i;
 1955              		.loc 1 1005 3 view .LVU621
1006:HANcoder_E407_TTA_CombineModel.c ****   uint8_T rtb_SFunction_o9_o;
 1956              		.loc 1 1006 3 view .LVU622
1007:HANcoder_E407_TTA_CombineModel.c ****   uint8_T rtb_SFunction_o2_n;
 1957              		.loc 1 1007 3 view .LVU623
1008:HANcoder_E407_TTA_CombineModel.c ****   uint8_T rtb_SFunction_o3_l;
 1958              		.loc 1 1008 3 view .LVU624
1009:HANcoder_E407_TTA_CombineModel.c ****   uint8_T rtb_SFunction_o4_m;
 1959              		.loc 1 1009 3 view .LVU625
1010:HANcoder_E407_TTA_CombineModel.c ****   uint8_T rtb_SFunction_o5_i;
 1960              		.loc 1 1010 3 view .LVU626
1011:HANcoder_E407_TTA_CombineModel.c ****   uint8_T rtb_SFunction_o6_o;
 1961              		.loc 1 1011 3 view .LVU627
1012:HANcoder_E407_TTA_CombineModel.c ****   uint8_T rtb_SFunction_o7_j;
 1962              		.loc 1 1012 3 view .LVU628
1013:HANcoder_E407_TTA_CombineModel.c ****   uint8_T rtb_SFunction_o8_d;
 1963              		.loc 1 1013 3 view .LVU629
1014:HANcoder_E407_TTA_CombineModel.c ****   uint8_T rtb_SFunction_o9_lv;
 1964              		.loc 1 1014 3 view .LVU630
1015:HANcoder_E407_TTA_CombineModel.c ****   uint8_T rtb_SFunction_o2_ib;
 1965              		.loc 1 1015 3 view .LVU631
1016:HANcoder_E407_TTA_CombineModel.c ****   uint8_T rtb_SFunction_o3_g;
 1966              		.loc 1 1016 3 view .LVU632
1017:HANcoder_E407_TTA_CombineModel.c ****   uint8_T rtb_SFunction_o4_j;
 1967              		.loc 1 1017 3 view .LVU633
1018:HANcoder_E407_TTA_CombineModel.c ****   uint8_T rtb_SFunction_o5_f;
 1968              		.loc 1 1018 3 view .LVU634
1019:HANcoder_E407_TTA_CombineModel.c ****   uint8_T rtb_SFunction_o6_gy;
 1969              		.loc 1 1019 3 view .LVU635
1020:HANcoder_E407_TTA_CombineModel.c ****   uint8_T rtb_SFunction_o7_k;
 1970              		.loc 1 1020 3 view .LVU636
1021:HANcoder_E407_TTA_CombineModel.c ****   uint8_T rtb_SFunction_o8_n;
 1971              		.loc 1 1021 3 view .LVU637
1022:HANcoder_E407_TTA_CombineModel.c ****   uint8_T rtb_SFunction_o9_b1;
 1972              		.loc 1 1022 3 view .LVU638
1023:HANcoder_E407_TTA_CombineModel.c ****   int8_T rtb_SFunction_o1;
 1973              		.loc 1 1023 3 view .LVU639
1024:HANcoder_E407_TTA_CombineModel.c ****   int8_T rtb_SFunction_o1_n;
 1974              		.loc 1 1024 3 view .LVU640
1025:HANcoder_E407_TTA_CombineModel.c ****   int8_T rtb_SFunction_o1_k;
 1975              		.loc 1 1025 3 view .LVU641
1026:HANcoder_E407_TTA_CombineModel.c ****   int8_T rtb_SFunction_o1_k1;
 1976              		.loc 1 1026 3 view .LVU642
1027:HANcoder_E407_TTA_CombineModel.c ****   int8_T rtb_SFunction_o1_ns;
 1977              		.loc 1 1027 3 view .LVU643
1028:HANcoder_E407_TTA_CombineModel.c ****   int8_T rtb_SFunction_o1_p;
 1978              		.loc 1 1028 3 view .LVU644
1029:HANcoder_E407_TTA_CombineModel.c ****   int8_T rtb_SFunction_o1_h;
 1979              		.loc 1 1029 3 view .LVU645
1030:HANcoder_E407_TTA_CombineModel.c ****   boolean_T rtb_Level2MfileSFunction_j;
 1980              		.loc 1 1030 3 view .LVU646
1031:HANcoder_E407_TTA_CombineModel.c ****   real_T rtb_IntegralGain;
 1981              		.loc 1 1031 3 view .LVU647
1032:HANcoder_E407_TTA_CombineModel.c ****   real_T rtb_Integrator;
 1982              		.loc 1 1032 3 view .LVU648
1033:HANcoder_E407_TTA_CombineModel.c ****   real_T rtb_Integrator_tmp;
 1983              		.loc 1 1033 3 view .LVU649
1034:HANcoder_E407_TTA_CombineModel.c ****   real_T rtb_Uk1;
 1984              		.loc 1 1034 3 view .LVU650
1035:HANcoder_E407_TTA_CombineModel.c ****   real_T tmp;
 1985              		.loc 1 1035 3 view .LVU651
1036:HANcoder_E407_TTA_CombineModel.c ****   int_T idxDelay;
 1986              		.loc 1 1036 3 view .LVU652
1037:HANcoder_E407_TTA_CombineModel.c ****   int16_T u;
 1987              		.loc 1 1037 3 view .LVU653
1038:HANcoder_E407_TTA_CombineModel.c ****   uint16_T rtb_Cast_b0;
 1988              		.loc 1 1038 3 view .LVU654
1039:HANcoder_E407_TTA_CombineModel.c ****   uint16_T rtb_Cast_c;
 1989              		.loc 1 1039 3 view .LVU655
1040:HANcoder_E407_TTA_CombineModel.c ****   uint16_T rtb_Cast_ci;
 1990              		.loc 1 1040 3 view .LVU656
1041:HANcoder_E407_TTA_CombineModel.c ****   uint16_T rtb_Cast_d1;
 1991              		.loc 1 1041 3 view .LVU657
1042:HANcoder_E407_TTA_CombineModel.c ****   uint16_T rtb_Cast_gr;
 1992              		.loc 1 1042 3 view .LVU658
1043:HANcoder_E407_TTA_CombineModel.c ****   uint16_T rtb_Cast_i;
 1993              		.loc 1 1043 3 view .LVU659
1044:HANcoder_E407_TTA_CombineModel.c ****   uint16_T rtb_Cast_i1;
 1994              		.loc 1 1044 3 view .LVU660
1045:HANcoder_E407_TTA_CombineModel.c ****   uint16_T rtb_Cast_k;
 1995              		.loc 1 1045 3 view .LVU661
1046:HANcoder_E407_TTA_CombineModel.c ****   uint16_T rtb_Cast_o;
 1996              		.loc 1 1046 3 view .LVU662
1047:HANcoder_E407_TTA_CombineModel.c ****   uint16_T rtb_Cast_p;
 1997              		.loc 1 1047 3 view .LVU663
1048:HANcoder_E407_TTA_CombineModel.c ****   int8_T tmp_0;
 1998              		.loc 1 1048 3 view .LVU664
1049:HANcoder_E407_TTA_CombineModel.c ****   int8_T tmp_1;
 1999              		.loc 1 1049 3 view .LVU665
1050:HANcoder_E407_TTA_CombineModel.c ****   uint8_T rtb_Cast1_e;
 2000              		.loc 1 1050 3 view .LVU666
1051:HANcoder_E407_TTA_CombineModel.c ****   uint8_T rtb_Cast1_l;
 2001              		.loc 1 1051 3 view .LVU667
1052:HANcoder_E407_TTA_CombineModel.c ****   uint8_T rtb_Multiply;
 2002              		.loc 1 1052 3 view .LVU668
1053:HANcoder_E407_TTA_CombineModel.c ****   uint8_T rtb_Multiply1;
 2003              		.loc 1 1053 3 view .LVU669
1054:HANcoder_E407_TTA_CombineModel.c ****   boolean_T AND3;
 2004              		.loc 1 1054 3 view .LVU670
1055:HANcoder_E407_TTA_CombineModel.c ****   boolean_T AND5;
 2005              		.loc 1 1055 3 view .LVU671
1056:HANcoder_E407_TTA_CombineModel.c ****   boolean_T rtb_AND;
 2006              		.loc 1 1056 3 view .LVU672
1057:HANcoder_E407_TTA_CombineModel.c ****   boolean_T rtb_AND10;
 2007              		.loc 1 1057 3 view .LVU673
1058:HANcoder_E407_TTA_CombineModel.c ****   boolean_T rtb_AND13;
 2008              		.loc 1 1058 3 view .LVU674
1059:HANcoder_E407_TTA_CombineModel.c ****   boolean_T rtb_AND15;
 2009              		.loc 1 1059 3 view .LVU675
1060:HANcoder_E407_TTA_CombineModel.c ****   boolean_T rtb_AND1_k;
 2010              		.loc 1 1060 3 view .LVU676
1061:HANcoder_E407_TTA_CombineModel.c ****   boolean_T rtb_AND2;
 2011              		.loc 1 1061 3 view .LVU677
1062:HANcoder_E407_TTA_CombineModel.c ****   boolean_T rtb_AND4;
 2012              		.loc 1 1062 3 view .LVU678
1063:HANcoder_E407_TTA_CombineModel.c ****   boolean_T rtb_AND6;
 2013              		.loc 1 1063 3 view .LVU679
1064:HANcoder_E407_TTA_CombineModel.c ****   boolean_T rtb_AND7;
 2014              		.loc 1 1064 3 view .LVU680
1065:HANcoder_E407_TTA_CombineModel.c ****   boolean_T rtb_AND8;
 2015              		.loc 1 1065 3 view .LVU681
1066:HANcoder_E407_TTA_CombineModel.c ****   boolean_T rtb_AND9;
 2016              		.loc 1 1066 3 view .LVU682
1067:HANcoder_E407_TTA_CombineModel.c ****   boolean_T rtb_Equal17;
 2017              		.loc 1 1067 3 view .LVU683
1068:HANcoder_E407_TTA_CombineModel.c ****   boolean_T rtb_Logic_idx_0;
 2018              		.loc 1 1068 3 view .LVU684
1069:HANcoder_E407_TTA_CombineModel.c ****   boolean_T rtb_OR1;
 2019              		.loc 1 1069 3 view .LVU685
1070:HANcoder_E407_TTA_CombineModel.c ****   ZCEventType zcEvent;
 2020              		.loc 1 1070 3 view .LVU686
1071:HANcoder_E407_TTA_CombineModel.c **** 
1072:HANcoder_E407_TTA_CombineModel.c ****   /* Outputs for Enabled SubSystem: '<S1>/Initialize Clock Schedule' incorporates:
1073:HANcoder_E407_TTA_CombineModel.c ****    *  EnablePort: '<S11>/Enable'
1074:HANcoder_E407_TTA_CombineModel.c ****    */
1075:HANcoder_E407_TTA_CombineModel.c ****   /* Logic: '<S1>/NOT' incorporates:
1076:HANcoder_E407_TTA_CombineModel.c ****    *  DataStoreRead: '<S1>/If 1 -> Clock initialized '
1077:HANcoder_E407_TTA_CombineModel.c ****    */
1078:HANcoder_E407_TTA_CombineModel.c ****   if (rtDWork.init_clock == 0.0) {
 2021              		.loc 1 1078 3 view .LVU687
 963:HANcoder_E407_TTA_CombineModel.c ****   /* local block i/o variables */
 2022              		.loc 1 963 1 is_stmt 0 view .LVU688
 2023 0000 2DE9F04F 		push	{r4, r5, r6, r7, r8, r9, r10, fp, lr}
 2024              		.cfi_def_cfa_offset 36
 2025              		.cfi_offset 4, -36
 2026              		.cfi_offset 5, -32
 2027              		.cfi_offset 6, -28
 2028              		.cfi_offset 7, -24
 2029              		.cfi_offset 8, -20
 2030              		.cfi_offset 9, -16
 2031              		.cfi_offset 10, -12
 2032              		.cfi_offset 11, -8
 2033              		.cfi_offset 14, -4
 2034 0004 2DED088B 		vpush.64	{d8, d9, d10, d11}
 2035              		.cfi_def_cfa_offset 68
 2036              		.cfi_offset 80, -68
 2037              		.cfi_offset 81, -64
 2038              		.cfi_offset 82, -60
 2039              		.cfi_offset 83, -56
 2040              		.cfi_offset 84, -52
 2041              		.cfi_offset 85, -48
 2042              		.cfi_offset 86, -44
 2043              		.cfi_offset 87, -40
 2044              		.loc 1 1078 14 view .LVU689
 2045 0008 D34C     		ldr	r4, .L377+16
 963:HANcoder_E407_TTA_CombineModel.c ****   /* local block i/o variables */
 2046              		.loc 1 963 1 view .LVU690
 2047 000a 8BB0     		sub	sp, sp, #44
 2048              		.cfi_def_cfa_offset 112
 2049              		.loc 1 1078 6 view .LVU691
 2050 000c D4E90A01 		ldrd	r0, [r4, #40]
 2051 0010 0022     		movs	r2, #0
 2052 0012 0023     		movs	r3, #0
 2053 0014 FFF7FEFF 		bl	__aeabi_dcmpeq
 2054              	.LVL131:
 2055 0018 0028     		cmp	r0, #0
 2056 001a 40F01D85 		bne	.L348
1079:HANcoder_E407_TTA_CombineModel.c ****     rtDWork.InitializeClockSchedule_MODE = true;
1080:HANcoder_E407_TTA_CombineModel.c **** 
1081:HANcoder_E407_TTA_CombineModel.c ****     /* DataStoreWrite: '<S11>/Data Store Write' incorporates:
1082:HANcoder_E407_TTA_CombineModel.c ****      *  Constant: '<S11>/Constant2'
1083:HANcoder_E407_TTA_CombineModel.c ****      */
1084:HANcoder_E407_TTA_CombineModel.c ****     rtDWork.init_clock = 1.0;
1085:HANcoder_E407_TTA_CombineModel.c **** 
1086:HANcoder_E407_TTA_CombineModel.c ****     /* Update for M-S-Function: '<S95>/Level-2 M-file S-Function' incorporates:
1087:HANcoder_E407_TTA_CombineModel.c ****      *  Constant: '<S11>/Constant'
1088:HANcoder_E407_TTA_CombineModel.c ****      *  Constant: '<S11>/Constant1'
1089:HANcoder_E407_TTA_CombineModel.c ****      */
1090:HANcoder_E407_TTA_CombineModel.c ****     /* schedule the next output compare event */
1091:HANcoder_E407_TTA_CombineModel.c ****     TimeoutScheduleCompareEvent(TIMEOUT_TIM4_PIN_PD12, ((uint16_T)1U),
1092:HANcoder_E407_TTA_CombineModel.c ****       (tTimeoutAction)((uint8_T)3U));
1093:HANcoder_E407_TTA_CombineModel.c ****   } else if (rtDWork.InitializeClockSchedule_MODE) {
 2057              		.loc 1 1093 10 is_stmt 1 view .LVU692
 2058              		.loc 1 1093 13 is_stmt 0 view .LVU693
 2059 001e 94F87630 		ldrb	r3, [r4, #118]	@ zero_extendqisi2
 2060 0022 002B     		cmp	r3, #0
 2061 0024 40F0F183 		bne	.L349
 2062              	.L119:
1094:HANcoder_E407_TTA_CombineModel.c ****     rtDWork.InitializeClockSchedule_MODE = false;
1095:HANcoder_E407_TTA_CombineModel.c ****   }
1096:HANcoder_E407_TTA_CombineModel.c **** 
1097:HANcoder_E407_TTA_CombineModel.c ****   /* End of Logic: '<S1>/NOT' */
1098:HANcoder_E407_TTA_CombineModel.c ****   /* End of Outputs for SubSystem: '<S1>/Initialize Clock Schedule' */
1099:HANcoder_E407_TTA_CombineModel.c **** 
1100:HANcoder_E407_TTA_CombineModel.c ****   /* Logic: '<S15>/AND' incorporates:
1101:HANcoder_E407_TTA_CombineModel.c ****    *  Constant: '<S15>/Constant'
1102:HANcoder_E407_TTA_CombineModel.c ****    *  Constant: '<S15>/Constant4'
1103:HANcoder_E407_TTA_CombineModel.c ****    *  DataStoreRead: '<S15>/Data Store Read1'
1104:HANcoder_E407_TTA_CombineModel.c ****    *  RelationalOperator: '<S15>/Less Than'
1105:HANcoder_E407_TTA_CombineModel.c ****    */
1106:HANcoder_E407_TTA_CombineModel.c ****   rtb_AND = ((ClockOn != 0.0) && (rtDWork.nodeRole == ((uint8_T)1U)));
 2063              		.loc 1 1106 3 is_stmt 1 view .LVU694
 2064              		.loc 1 1106 23 is_stmt 0 view .LVU695
 2065 0028 CC49     		ldr	r1, .L377+20
 2066              		.loc 1 1106 31 view .LVU696
 2067 002a 0022     		movs	r2, #0
 2068 002c D1E90001 		ldrd	r0, [r1]
 2069 0030 0023     		movs	r3, #0
 2070 0032 FFF7FEFF 		bl	__aeabi_dcmpeq
 2071              	.LVL132:
 2072 0036 28B9     		cbnz	r0, .L120
 2073              		.loc 1 1106 42 discriminator 1 view .LVU697
 2074 0038 94F86330 		ldrb	r3, [r4, #99]	@ zero_extendqisi2
 2075 003c 0793     		str	r3, [sp, #28]
 2076              		.loc 1 1106 31 discriminator 1 view .LVU698
 2077 003e 012B     		cmp	r3, #1
 2078 0040 00F04487 		beq	.L350
 2079              	.L120:
 2080              	.LVL133:
1107:HANcoder_E407_TTA_CombineModel.c **** 
1108:HANcoder_E407_TTA_CombineModel.c ****   /* Logic: '<S15>/OR' incorporates:
1109:HANcoder_E407_TTA_CombineModel.c ****    *  DataStoreRead: '<S15>/Data Store Read2'
1110:HANcoder_E407_TTA_CombineModel.c ****    */
1111:HANcoder_E407_TTA_CombineModel.c ****   rtB.OR = (rtb_AND || rtDWork.slaveClockOn);
 2081              		.loc 1 1111 3 is_stmt 1 view .LVU699
 2082              		.loc 1 1111 21 is_stmt 0 view .LVU700
 2083 0044 94F86630 		ldrb	r3, [r4, #102]	@ zero_extendqisi2
1106:HANcoder_E407_TTA_CombineModel.c **** 
 2084              		.loc 1 1106 11 view .LVU701
 2085 0048 0022     		movs	r2, #0
 2086              		.loc 1 1111 10 view .LVU702
 2087 004a 9B1A     		subs	r3, r3, r2
1106:HANcoder_E407_TTA_CombineModel.c **** 
 2088              		.loc 1 1106 11 view .LVU703
 2089 004c 0792     		str	r2, [sp, #28]
 2090              		.loc 1 1111 10 view .LVU704
 2091 004e 18BF     		it	ne
 2092 0050 0123     		movne	r3, #1
1106:HANcoder_E407_TTA_CombineModel.c **** 
 2093              		.loc 1 1106 31 view .LVU705
 2094 0052 0892     		str	r2, [sp, #32]
 2095              	.LVL134:
 2096              	.L231:
 2097              		.loc 1 1111 10 discriminator 6 view .LVU706
 2098 0054 C24D     		ldr	r5, .L377+24
1112:HANcoder_E407_TTA_CombineModel.c **** 
1113:HANcoder_E407_TTA_CombineModel.c ****   /* End of Outputs for S-Function (sfcn_timeout_event_irq): '<S4>/S-Function' */
1114:HANcoder_E407_TTA_CombineModel.c **** 
1115:HANcoder_E407_TTA_CombineModel.c ****   /* M-S-Function: '<S9>/Level-2 M-file S-Function' incorporates:
1116:HANcoder_E407_TTA_CombineModel.c ****    *  Constant: '<S16>/Constant27'
1117:HANcoder_E407_TTA_CombineModel.c ****    *  RelationalOperator: '<S16>/Equal19'
1118:HANcoder_E407_TTA_CombineModel.c ****    */
1119:HANcoder_E407_TTA_CombineModel.c ****   rtb_Level2MfileSFunction_j = (slotSelected == 10.0);
 2099              		.loc 1 1119 46 discriminator 6 view .LVU707
 2100 0056 DFF84CB3 		ldr	fp, .L377+92
1111:HANcoder_E407_TTA_CombineModel.c **** 
 2101              		.loc 1 1111 10 discriminator 6 view .LVU708
 2102 005a 6B74     		strb	r3, [r5, #17]
 2103              		.loc 1 1119 3 is_stmt 1 discriminator 6 view .LVU709
 2104              		.loc 1 1119 46 is_stmt 0 discriminator 6 view .LVU710
 2105 005c 9BF80030 		ldrb	r3, [fp]	@ zero_extendqisi2
 2106 0060 07EE903A 		vmov	s15, r3	@ int
 2107 0064 F8EEE77A 		vcvt.f32.s32	s15, s15
 2108              	.LVL135:
1120:HANcoder_E407_TTA_CombineModel.c **** 
1121:HANcoder_E407_TTA_CombineModel.c ****   /* Logic: '<S16>/OR1' incorporates:
1122:HANcoder_E407_TTA_CombineModel.c ****    *  Constant: '<S16>/Constant4'
1123:HANcoder_E407_TTA_CombineModel.c ****    *  RelationalOperator: '<S16>/Equal4'
1124:HANcoder_E407_TTA_CombineModel.c ****    */
1125:HANcoder_E407_TTA_CombineModel.c ****   rtb_OR1 = ((slotSelected == 5.0) || rtb_Level2MfileSFunction_j);
 2109              		.loc 1 1125 3 is_stmt 1 discriminator 6 view .LVU711
 2110              		.loc 1 1125 36 is_stmt 0 discriminator 6 view .LVU712
 2111 0068 B1EE047A 		vmov.f32	s14, #5.0e+0
 2112 006c F4EE477A 		vcmp.f32	s15, s14
 2113 0070 F1EE10FA 		vmrs	APSR_nzcv, FPSCR
 2114 0074 07D0     		beq	.L122
 2115              		.loc 1 1125 36 discriminator 2 view .LVU713
 2116 0076 B2EE047A 		vmov.f32	s14, #1.0e+1
 2117 007a F4EE477A 		vcmp.f32	s15, s14
 2118 007e F1EE10FA 		vmrs	APSR_nzcv, FPSCR
 2119 0082 40F0C583 		bne	.L351
 2120              	.L122:
 2121              	.LVL136:
1126:HANcoder_E407_TTA_CombineModel.c **** 
1127:HANcoder_E407_TTA_CombineModel.c ****   /* Outputs for Triggered SubSystem: '<S1>/Control execution' incorporates:
1128:HANcoder_E407_TTA_CombineModel.c ****    *  TriggerPort: '<S5>/Trigger'
1129:HANcoder_E407_TTA_CombineModel.c ****    */
1130:HANcoder_E407_TTA_CombineModel.c ****   if (rtb_OR1 && (rtPrevZCSigState.Controlexecution_Trig_ZCE != POS_ZCSIG)) {
 2122              		.loc 1 1130 3 is_stmt 1 view .LVU714
 2123              		.loc 1 1130 35 is_stmt 0 view .LVU715
 2124 0086 DFF820A3 		ldr	r10, .L377+96
 2125              		.loc 1 1130 15 view .LVU716
 2126 008a 9AF80C30 		ldrb	r3, [r10, #12]	@ zero_extendqisi2
 2127 008e 012B     		cmp	r3, #1
 2128 0090 00F02082 		beq	.L141
1131:HANcoder_E407_TTA_CombineModel.c ****     /* DataStoreRead: '<S5>/Data Store Read' */
1132:HANcoder_E407_TTA_CombineModel.c ****     reqAngle = rtDWork.requestedAngle;
 2129              		.loc 1 1132 5 is_stmt 1 view .LVU717
 2130              		.loc 1 1132 23 is_stmt 0 view .LVU718
 2131 0094 D4E90C01 		ldrd	r0, [r4, #48]
 2132              		.loc 1 1132 14 view .LVU719
 2133 0098 B24B     		ldr	r3, .L377+28
 2134 009a C3E90001 		strd	r0, [r3]
1133:HANcoder_E407_TTA_CombineModel.c **** 
1134:HANcoder_E407_TTA_CombineModel.c ****     /* Product: '<S74>/Product' incorporates:
1135:HANcoder_E407_TTA_CombineModel.c ****      *  Constant: '<S20>/TrailUnitWheelbase'
1136:HANcoder_E407_TTA_CombineModel.c ****      *  Trigonometry: '<S74>/tan '
1137:HANcoder_E407_TTA_CombineModel.c ****      */
1138:HANcoder_E407_TTA_CombineModel.c ****     rtb_Uk1 = tan(reqAngle) * rtConstB.Abs / 4.0;
 2135              		.loc 1 1138 5 is_stmt 1 view .LVU720
 2136              		.loc 1 1138 15 is_stmt 0 view .LVU721
 2137 009e FFF7FEFF 		bl	tan
 2138              	.LVL137:
 2139              		.loc 1 1138 29 view .LVU722
 2140 00a2 B14B     		ldr	r3, .L377+32
 2141 00a4 D3E90423 		ldrd	r2, [r3, #16]
 2142 00a8 FFF7FEFF 		bl	__aeabi_dmul
 2143              	.LVL138:
 2144              		.loc 1 1138 13 view .LVU723
 2145 00ac 0022     		movs	r2, #0
 2146 00ae AF4B     		ldr	r3, .L377+36
 2147 00b0 FFF7FEFF 		bl	__aeabi_dmul
 2148              	.LVL139:
1139:HANcoder_E407_TTA_CombineModel.c **** 
1140:HANcoder_E407_TTA_CombineModel.c ****     /* DataStoreRead: '<S5>/Data Store Read2' */
1141:HANcoder_E407_TTA_CombineModel.c ****     t2Angle = rtDWork.trailerTwoAngle;
 2149              		.loc 1 1141 13 view .LVU724
 2150 00b4 AE4B     		ldr	r3, .L377+40
1142:HANcoder_E407_TTA_CombineModel.c **** 
1143:HANcoder_E407_TTA_CombineModel.c ****     /* DataStoreRead: '<S5>/Data Store Read1' */
1144:HANcoder_E407_TTA_CombineModel.c ****     t1Angle = rtDWork.trailerOneAngle;
 2151              		.loc 1 1144 22 view .LVU725
 2152 00b6 B4F84A60 		ldrh	r6, [r4, #74]
1138:HANcoder_E407_TTA_CombineModel.c **** 
 2153              		.loc 1 1138 13 view .LVU726
 2154 00ba 41EC1B0B 		vmov	d11, r0, r1
 2155              	.LVL140:
1141:HANcoder_E407_TTA_CombineModel.c **** 
 2156              		.loc 1 1141 5 is_stmt 1 view .LVU727
1141:HANcoder_E407_TTA_CombineModel.c **** 
 2157              		.loc 1 1141 22 is_stmt 0 view .LVU728
 2158 00be B4F84C00 		ldrh	r0, [r4, #76]
 2159              	.LVL141:
1141:HANcoder_E407_TTA_CombineModel.c **** 
 2160              		.loc 1 1141 13 view .LVU729
 2161 00c2 1880     		strh	r0, [r3]	@ movhi
 2162              		.loc 1 1144 5 is_stmt 1 view .LVU730
 2163              		.loc 1 1144 13 is_stmt 0 view .LVU731
 2164 00c4 AB4B     		ldr	r3, .L377+44
1145:HANcoder_E407_TTA_CombineModel.c **** 
1146:HANcoder_E407_TTA_CombineModel.c ****     /* Sum: '<S20>/Sum2' */
1147:HANcoder_E407_TTA_CombineModel.c ****     Gamma2 = (uint16_T)(t1Angle - t2Angle);
 2165              		.loc 1 1147 14 view .LVU732
 2166 00c6 301A     		subs	r0, r6, r0
1144:HANcoder_E407_TTA_CombineModel.c **** 
 2167              		.loc 1 1144 13 view .LVU733
 2168 00c8 1E80     		strh	r6, [r3]	@ movhi
 2169              		.loc 1 1147 5 is_stmt 1 view .LVU734
 2170              		.loc 1 1147 12 is_stmt 0 view .LVU735
 2171 00ca AB4B     		ldr	r3, .L377+48
 2172              		.loc 1 1147 14 view .LVU736
 2173 00cc 80B2     		uxth	r0, r0
 2174              		.loc 1 1147 12 view .LVU737
 2175 00ce 1880     		strh	r0, [r3]	@ movhi
1148:HANcoder_E407_TTA_CombineModel.c **** 
1149:HANcoder_E407_TTA_CombineModel.c ****     /* Trigonometry: '<S72>/tan 1' incorporates:
1150:HANcoder_E407_TTA_CombineModel.c ****      *  DataTypeConversion: '<S72>/Cast'
1151:HANcoder_E407_TTA_CombineModel.c ****      *  Trigonometry: '<S73>/tan '
1152:HANcoder_E407_TTA_CombineModel.c ****      */
1153:HANcoder_E407_TTA_CombineModel.c ****     rtb_IntegralGain = sin(Gamma2);
 2176              		.loc 1 1153 5 is_stmt 1 view .LVU738
 2177              		.loc 1 1153 24 is_stmt 0 view .LVU739
 2178 00d0 FFF7FEFF 		bl	__aeabi_ui2d
 2179              	.LVL142:
 2180 00d4 8046     		mov	r8, r0
 2181 00d6 8946     		mov	r9, r1
 2182 00d8 FFF7FEFF 		bl	sin
 2183              	.LVL143:
 2184 00dc 0246     		mov	r2, r0
 2185 00de 0B46     		mov	r3, r1
1154:HANcoder_E407_TTA_CombineModel.c **** 
1155:HANcoder_E407_TTA_CombineModel.c ****     /* Trigonometry: '<S72>/tan 2' incorporates:
1156:HANcoder_E407_TTA_CombineModel.c ****      *  DataTypeConversion: '<S72>/Cast'
1157:HANcoder_E407_TTA_CombineModel.c ****      *  Trigonometry: '<S73>/tan 1'
1158:HANcoder_E407_TTA_CombineModel.c ****      */
1159:HANcoder_E407_TTA_CombineModel.c ****     rtb_Integrator_tmp = cos(Gamma2);
 2186              		.loc 1 1159 26 view .LVU740
 2187 00e0 4046     		mov	r0, r8
 2188 00e2 4946     		mov	r1, r9
1153:HANcoder_E407_TTA_CombineModel.c **** 
 2189              		.loc 1 1153 24 view .LVU741
 2190 00e4 43EC1A2B 		vmov	d10, r2, r3
 2191              	.LVL144:
 2192              		.loc 1 1159 5 is_stmt 1 view .LVU742
 2193              		.loc 1 1159 26 is_stmt 0 view .LVU743
 2194 00e8 FFF7FEFF 		bl	cos
 2195              	.LVL145:
1160:HANcoder_E407_TTA_CombineModel.c **** 
1161:HANcoder_E407_TTA_CombineModel.c ****     /* Sum: '<S72>/Add' incorporates:
1162:HANcoder_E407_TTA_CombineModel.c ****      *  Constant: '<S20>/TrailUnitWheelbase'
1163:HANcoder_E407_TTA_CombineModel.c ****      *  Constant: '<S5>/Constant'
1164:HANcoder_E407_TTA_CombineModel.c ****      *  Product: '<S72>/Product1'
1165:HANcoder_E407_TTA_CombineModel.c ****      *  Product: '<S72>/Product2'
1166:HANcoder_E407_TTA_CombineModel.c ****      *  Trigonometry: '<S72>/tan 1'
1167:HANcoder_E407_TTA_CombineModel.c ****      *  Trigonometry: '<S72>/tan 2'
1168:HANcoder_E407_TTA_CombineModel.c ****      */
1169:HANcoder_E407_TTA_CombineModel.c ****     rtb_Integrator = rtb_Uk1 * 4.0 * rtb_IntegralGain + rtb_Integrator_tmp * 0.5;
 2196              		.loc 1 1169 30 view .LVU744
 2197 00ec A34B     		ldr	r3, .L377+52
1159:HANcoder_E407_TTA_CombineModel.c **** 
 2198              		.loc 1 1159 26 view .LVU745
 2199 00ee 41EC190B 		vmov	d9, r0, r1
 2200              	.LVL146:
 2201              		.loc 1 1169 5 is_stmt 1 view .LVU746
 2202              		.loc 1 1169 30 is_stmt 0 view .LVU747
 2203 00f2 0022     		movs	r2, #0
 2204 00f4 51EC1B0B 		vmov	r0, r1, d11
 2205              	.LVL147:
 2206              		.loc 1 1169 30 view .LVU748
 2207 00f8 FFF7FEFF 		bl	__aeabi_dmul
 2208              	.LVL148:
 2209              		.loc 1 1169 36 view .LVU749
 2210 00fc 53EC1A2B 		vmov	r2, r3, d10
 2211 0100 FFF7FEFF 		bl	__aeabi_dmul
 2212              	.LVL149:
 2213              		.loc 1 1169 76 view .LVU750
 2214 0104 9E4B     		ldr	r3, .L377+56
 2215              		.loc 1 1169 36 view .LVU751
 2216 0106 8046     		mov	r8, r0
 2217 0108 8946     		mov	r9, r1
 2218              		.loc 1 1169 76 view .LVU752
 2219 010a 0022     		movs	r2, #0
 2220 010c 51EC190B 		vmov	r0, r1, d9
 2221 0110 FFF7FEFF 		bl	__aeabi_dmul
 2222              	.LVL150:
 2223 0114 0246     		mov	r2, r0
 2224 0116 0B46     		mov	r3, r1
 2225              		.loc 1 1169 20 view .LVU753
 2226 0118 4046     		mov	r0, r8
 2227 011a 4946     		mov	r1, r9
 2228 011c FFF7FEFF 		bl	__aeabi_dadd
 2229              	.LVL151:
 2230 0120 0246     		mov	r2, r0
 2231 0122 0B46     		mov	r3, r1
1170:HANcoder_E407_TTA_CombineModel.c **** 
1171:HANcoder_E407_TTA_CombineModel.c ****     /* Sum: '<S20>/Sum1' incorporates:
1172:HANcoder_E407_TTA_CombineModel.c ****      *  Constant: '<S5>/Constant1'
1173:HANcoder_E407_TTA_CombineModel.c ****      */
1174:HANcoder_E407_TTA_CombineModel.c ****     Gamma1 = 0.0 - (real_T)t1Angle;
 2232              		.loc 1 1174 20 view .LVU754
 2233 0124 3046     		mov	r0, r6
1169:HANcoder_E407_TTA_CombineModel.c **** 
 2234              		.loc 1 1169 20 view .LVU755
 2235 0126 43EC182B 		vmov	d8, r2, r3
 2236              	.LVL152:
 2237              		.loc 1 1174 5 is_stmt 1 view .LVU756
 2238              		.loc 1 1174 20 is_stmt 0 view .LVU757
 2239 012a FFF7FEFF 		bl	__aeabi_ui2d
 2240              	.LVL153:
 2241              		.loc 1 1174 20 view .LVU758
 2242 012e 0246     		mov	r2, r0
 2243 0130 0B46     		mov	r3, r1
 2244              		.loc 1 1174 18 view .LVU759
 2245 0132 0020     		movs	r0, #0
 2246 0134 0021     		movs	r1, #0
 2247 0136 FFF7FEFF 		bl	__aeabi_dsub
 2248              	.LVL154:
 2249              		.loc 1 1174 12 view .LVU760
 2250 013a 924B     		ldr	r3, .L377+60
 2251              		.loc 1 1174 18 view .LVU761
 2252 013c 8046     		mov	r8, r0
 2253 013e 8946     		mov	r9, r1
 2254              		.loc 1 1174 12 view .LVU762
 2255 0140 C3E90089 		strd	r8, [r3]
1175:HANcoder_E407_TTA_CombineModel.c **** 
1176:HANcoder_E407_TTA_CombineModel.c ****     /* Product: '<S73>/Product' incorporates:
1177:HANcoder_E407_TTA_CombineModel.c ****      *  Constant: '<S20>/RearAxleToHitch'
1178:HANcoder_E407_TTA_CombineModel.c ****      *  Constant: '<S20>/TrailUnitWheelbase'
1179:HANcoder_E407_TTA_CombineModel.c ****      *  Constant: '<S5>/Constant'
1180:HANcoder_E407_TTA_CombineModel.c ****      *  Gain: '<S73>/Gain'
1181:HANcoder_E407_TTA_CombineModel.c ****      *  Product: '<S73>/Product1'
1182:HANcoder_E407_TTA_CombineModel.c ****      *  Product: '<S73>/Product3'
1183:HANcoder_E407_TTA_CombineModel.c ****      *  Sum: '<S73>/Add'
1184:HANcoder_E407_TTA_CombineModel.c ****      */
1185:HANcoder_E407_TTA_CombineModel.c ****     rtb_IntegralGain = (0.5 / 1.0 * rtb_IntegralGain * (-1.0) +
 2256              		.loc 1 1185 5 is_stmt 1 view .LVU763
1186:HANcoder_E407_TTA_CombineModel.c ****                         rtb_Integrator_tmp / 1.0 * 4.0 * rtb_Uk1) *
 2257              		.loc 1 1186 50 is_stmt 0 view .LVU764
 2258 0144 51EC190B 		vmov	r0, r1, d9
 2259 0148 8C4B     		ldr	r3, .L377+52
 2260 014a 0022     		movs	r2, #0
 2261 014c FFF7FEFF 		bl	__aeabi_dmul
 2262              	.LVL155:
 2263              		.loc 1 1186 56 view .LVU765
 2264 0150 53EC1B2B 		vmov	r2, r3, d11
 2265 0154 FFF7FEFF 		bl	__aeabi_dmul
 2266              	.LVL156:
1185:HANcoder_E407_TTA_CombineModel.c ****                         rtb_Integrator_tmp / 1.0 * 4.0 * rtb_Uk1) *
 2267              		.loc 1 1185 35 view .LVU766
 2268 0158 894B     		ldr	r3, .L377+56
 2269              		.loc 1 1186 56 view .LVU767
 2270 015a 0646     		mov	r6, r0
 2271 015c 0F46     		mov	r7, r1
1185:HANcoder_E407_TTA_CombineModel.c ****                         rtb_Integrator_tmp / 1.0 * 4.0 * rtb_Uk1) *
 2272              		.loc 1 1185 35 view .LVU768
 2273 015e 0022     		movs	r2, #0
 2274 0160 51EC1A0B 		vmov	r0, r1, d10
 2275 0164 FFF7FEFF 		bl	__aeabi_dmul
 2276              	.LVL157:
 2277 0168 0246     		mov	r2, r0
 2278 016a 0B46     		mov	r3, r1
1185:HANcoder_E407_TTA_CombineModel.c ****                         rtb_Integrator_tmp / 1.0 * 4.0 * rtb_Uk1) *
 2279              		.loc 1 1185 63 view .LVU769
 2280 016c 3046     		mov	r0, r6
 2281 016e 3946     		mov	r1, r7
 2282 0170 FFF7FEFF 		bl	__aeabi_dsub
 2283              	.LVL158:
1187:HANcoder_E407_TTA_CombineModel.c ****       (rtConstB.signV2 * rtConstB.signL0b);
 2284              		.loc 1 1187 24 view .LVU770
 2285 0174 7C4B     		ldr	r3, .L377+32
1185:HANcoder_E407_TTA_CombineModel.c ****                         rtb_Integrator_tmp / 1.0 * 4.0 * rtb_Uk1) *
 2286              		.loc 1 1185 63 view .LVU771
 2287 0176 0F46     		mov	r7, r1
 2288              		.loc 1 1187 24 view .LVU772
 2289 0178 1946     		mov	r1, r3
1185:HANcoder_E407_TTA_CombineModel.c ****                         rtb_Integrator_tmp / 1.0 * 4.0 * rtb_Uk1) *
 2290              		.loc 1 1185 63 view .LVU773
 2291 017a 0646     		mov	r6, r0
 2292              		.loc 1 1187 24 view .LVU774
 2293 017c D3E90223 		ldrd	r2, [r3, #8]
 2294 0180 D1E90001 		ldrd	r0, [r1]
 2295 0184 FFF7FEFF 		bl	__aeabi_dmul
 2296              	.LVL159:
1185:HANcoder_E407_TTA_CombineModel.c ****                         rtb_Integrator_tmp / 1.0 * 4.0 * rtb_Uk1) *
 2297              		.loc 1 1185 22 view .LVU775
 2298 0188 3246     		mov	r2, r6
 2299 018a 3B46     		mov	r3, r7
 2300 018c FFF7FEFF 		bl	__aeabi_dmul
 2301              	.LVL160:
 2302 0190 0646     		mov	r6, r0
 2303 0192 0F46     		mov	r7, r1
 2304              	.LVL161:
1188:HANcoder_E407_TTA_CombineModel.c **** 
1189:HANcoder_E407_TTA_CombineModel.c ****     /* Trigonometry: '<S77>/tan ' incorporates:
1190:HANcoder_E407_TTA_CombineModel.c ****      *  DataTypeConversion: '<S77>/Cast'
1191:HANcoder_E407_TTA_CombineModel.c ****      *  Trigonometry: '<S76>/tan 1'
1192:HANcoder_E407_TTA_CombineModel.c ****      */
1193:HANcoder_E407_TTA_CombineModel.c ****     rtb_Uk1 = sin(Gamma1);
 2305              		.loc 1 1193 5 is_stmt 1 view .LVU776
 2306              		.loc 1 1193 15 is_stmt 0 view .LVU777
 2307 0194 4046     		mov	r0, r8
 2308 0196 4946     		mov	r1, r9
 2309 0198 FFF7FEFF 		bl	sin
 2310              	.LVL162:
 2311 019c 0246     		mov	r2, r0
 2312 019e 0B46     		mov	r3, r1
1194:HANcoder_E407_TTA_CombineModel.c **** 
1195:HANcoder_E407_TTA_CombineModel.c ****     /* Trigonometry: '<S77>/tan 1' incorporates:
1196:HANcoder_E407_TTA_CombineModel.c ****      *  DataTypeConversion: '<S77>/Cast'
1197:HANcoder_E407_TTA_CombineModel.c ****      *  Trigonometry: '<S76>/tan 2'
1198:HANcoder_E407_TTA_CombineModel.c ****      */
1199:HANcoder_E407_TTA_CombineModel.c ****     rtb_Integrator_tmp = cos(Gamma1);
 2313              		.loc 1 1199 26 view .LVU778
 2314 01a0 4046     		mov	r0, r8
 2315 01a2 4946     		mov	r1, r9
1193:HANcoder_E407_TTA_CombineModel.c **** 
 2316              		.loc 1 1193 15 view .LVU779
 2317 01a4 43EC192B 		vmov	d9, r2, r3
 2318              	.LVL163:
 2319              		.loc 1 1199 5 is_stmt 1 view .LVU780
 2320              		.loc 1 1199 26 is_stmt 0 view .LVU781
 2321 01a8 FFF7FEFF 		bl	cos
 2322              	.LVL164:
1200:HANcoder_E407_TTA_CombineModel.c **** 
1201:HANcoder_E407_TTA_CombineModel.c ****     /* Signum: '<S77>/Sign' */
1202:HANcoder_E407_TTA_CombineModel.c ****     if (rtb_Integrator < 0.0) {
 2323              		.loc 1 1202 8 view .LVU782
 2324 01ac 0022     		movs	r2, #0
1199:HANcoder_E407_TTA_CombineModel.c **** 
 2325              		.loc 1 1199 26 view .LVU783
 2326 01ae 41EC1A0B 		vmov	d10, r0, r1
 2327              	.LVL165:
 2328              		.loc 1 1202 5 is_stmt 1 view .LVU784
 2329              		.loc 1 1202 8 is_stmt 0 view .LVU785
 2330 01b2 0023     		movs	r3, #0
 2331 01b4 51EC180B 		vmov	r0, r1, d8
 2332              	.LVL166:
 2333              		.loc 1 1202 8 view .LVU786
 2334 01b8 FFF7FEFF 		bl	__aeabi_dcmplt
 2335              	.LVL167:
 2336 01bc 0028     		cmp	r0, #0
 2337 01be 40F09586 		bne	.L255
1203:HANcoder_E407_TTA_CombineModel.c ****       tmp = -1.0;
1204:HANcoder_E407_TTA_CombineModel.c ****     } else {
1205:HANcoder_E407_TTA_CombineModel.c ****       tmp = (rtb_Integrator > 0.0);
 2338              		.loc 1 1205 7 is_stmt 1 view .LVU787
 2339              		.loc 1 1205 11 is_stmt 0 view .LVU788
 2340 01c2 51EC180B 		vmov	r0, r1, d8
 2341 01c6 0022     		movs	r2, #0
 2342 01c8 0023     		movs	r3, #0
 2343 01ca FFF7FEFF 		bl	__aeabi_dcmpgt
 2344              	.LVL168:
 2345 01ce 4FF00008 		mov	r8, #0
 2346 01d2 0028     		cmp	r0, #0
 2347 01d4 01F03980 		beq	.L352
 2348 01d8 DFF8D091 		ldr	r9, .L377+100
 2349              	.L124:
 2350              	.LVL169:
1206:HANcoder_E407_TTA_CombineModel.c ****     }
1207:HANcoder_E407_TTA_CombineModel.c **** 
1208:HANcoder_E407_TTA_CombineModel.c ****     /* Trigonometry: '<S75>/tan 1' incorporates:
1209:HANcoder_E407_TTA_CombineModel.c ****      *  Constant: '<S20>/RearAxleToHitch'
1210:HANcoder_E407_TTA_CombineModel.c ****      *  Constant: '<S20>/TractorWheelbase'
1211:HANcoder_E407_TTA_CombineModel.c ****      *  Constant: '<S20>/TrailUnitWheelbase'
1212:HANcoder_E407_TTA_CombineModel.c ****      *  DataTypeConversion: '<S75>/Cast'
1213:HANcoder_E407_TTA_CombineModel.c ****      *  Gain: '<S77>/Gain'
1214:HANcoder_E407_TTA_CombineModel.c ****      *  Product: '<S75>/Product1'
1215:HANcoder_E407_TTA_CombineModel.c ****      *  Product: '<S76>/Product1'
1216:HANcoder_E407_TTA_CombineModel.c ****      *  Product: '<S76>/Product2'
1217:HANcoder_E407_TTA_CombineModel.c ****      *  Product: '<S77>/Product'
1218:HANcoder_E407_TTA_CombineModel.c ****      *  Product: '<S77>/Product1'
1219:HANcoder_E407_TTA_CombineModel.c ****      *  Product: '<S77>/Product3'
1220:HANcoder_E407_TTA_CombineModel.c ****      *  Signum: '<S77>/Sign'
1221:HANcoder_E407_TTA_CombineModel.c ****      *  Sum: '<S76>/Add'
1222:HANcoder_E407_TTA_CombineModel.c ****      *  Sum: '<S77>/Add'
1223:HANcoder_E407_TTA_CombineModel.c ****      *  Trigonometry: '<S77>/tan '
1224:HANcoder_E407_TTA_CombineModel.c ****      *  Trigonometry: '<S77>/tan 1'
1225:HANcoder_E407_TTA_CombineModel.c ****      */
1226:HANcoder_E407_TTA_CombineModel.c ****     delta12K = (real32_T)atan((real32_T)((rtb_Integrator / 1.0 * rtb_Uk1 * (-1.0)
 2351              		.loc 1 1226 5 is_stmt 1 view .LVU789
1227:HANcoder_E407_TTA_CombineModel.c ****       + rtb_Integrator_tmp / 1.0 * 4.0 * rtb_IntegralGain) * (tmp *
 2352              		.loc 1 1227 34 is_stmt 0 view .LVU790
 2353 01dc 674B     		ldr	r3, .L377+52
 2354 01de B0EE4ABA 		vmov.f32	s22, s20
 2355 01e2 F0EE6ABA 		vmov.f32	s23, s21
 2356 01e6 51EC1A0B 		vmov	r0, r1, d10
 2357 01ea 0022     		movs	r2, #0
 2358 01ec FFF7FEFF 		bl	__aeabi_dmul
 2359              	.LVL170:
 2360              		.loc 1 1227 40 view .LVU791
 2361 01f0 3246     		mov	r2, r6
 2362 01f2 3B46     		mov	r3, r7
 2363 01f4 FFF7FEFF 		bl	__aeabi_dmul
 2364              	.LVL171:
 2365 01f8 47EC1A6B 		vmov	d10, r6, r7
 2366              	.LVL172:
1226:HANcoder_E407_TTA_CombineModel.c ****       + rtb_Integrator_tmp / 1.0 * 4.0 * rtb_IntegralGain) * (tmp *
 2367              		.loc 1 1226 64 view .LVU792
 2368 01fc 53EC192B 		vmov	r2, r3, d9
 2369              		.loc 1 1227 40 view .LVU793
 2370 0200 0646     		mov	r6, r0
 2371              	.LVL173:
 2372              		.loc 1 1227 40 view .LVU794
 2373 0202 0F46     		mov	r7, r1
1226:HANcoder_E407_TTA_CombineModel.c ****       + rtb_Integrator_tmp / 1.0 * 4.0 * rtb_IntegralGain) * (tmp *
 2374              		.loc 1 1226 64 view .LVU795
 2375 0204 51EC180B 		vmov	r0, r1, d8
 2376 0208 FFF7FEFF 		bl	__aeabi_dmul
 2377              	.LVL174:
 2378 020c 0246     		mov	r2, r0
 2379 020e 0B46     		mov	r3, r1
 2380              		.loc 1 1227 7 view .LVU796
 2381 0210 3046     		mov	r0, r6
 2382 0212 3946     		mov	r1, r7
 2383 0214 FFF7FEFF 		bl	__aeabi_dsub
 2384              	.LVL175:
 2385              		.loc 1 1227 67 view .LVU797
 2386 0218 534B     		ldr	r3, .L377+32
 2387              		.loc 1 1227 7 view .LVU798
 2388 021a 0646     		mov	r6, r0
 2389              		.loc 1 1227 67 view .LVU799
 2390 021c D3E90623 		ldrd	r2, [r3, #24]
 2391              		.loc 1 1227 7 view .LVU800
 2392 0220 0F46     		mov	r7, r1
 2393              		.loc 1 1227 67 view .LVU801
 2394 0222 4046     		mov	r0, r8
 2395 0224 4946     		mov	r1, r9
 2396 0226 FFF7FEFF 		bl	__aeabi_dmul
 2397              	.LVL176:
 2398 022a 0246     		mov	r2, r0
 2399 022c 0B46     		mov	r3, r1
 2400              		.loc 1 1227 60 view .LVU802
 2401 022e 3046     		mov	r0, r6
 2402 0230 3946     		mov	r1, r7
 2403 0232 FFF7FEFF 		bl	__aeabi_dmul
 2404              	.LVL177:
1228:HANcoder_E407_TTA_CombineModel.c ****       rtConstB.signL0b_o) * 3.0 / (rtb_IntegralGain * 4.0 * rtb_Uk1 +
 2405              		.loc 1 1228 27 view .LVU803
 2406 0236 544B     		ldr	r3, .L377+64
 2407 0238 0022     		movs	r2, #0
 2408 023a FFF7FEFF 		bl	__aeabi_dmul
 2409              	.LVL178:
 2410              		.loc 1 1228 53 view .LVU804
 2411 023e 4F4B     		ldr	r3, .L377+52
 2412              		.loc 1 1228 27 view .LVU805
 2413 0240 8046     		mov	r8, r0
 2414              	.LVL179:
 2415              		.loc 1 1228 27 view .LVU806
 2416 0242 8946     		mov	r9, r1
 2417              		.loc 1 1228 53 view .LVU807
 2418 0244 0022     		movs	r2, #0
 2419 0246 51EC1A0B 		vmov	r0, r1, d10
 2420 024a FFF7FEFF 		bl	__aeabi_dmul
 2421              	.LVL180:
 2422              		.loc 1 1228 59 view .LVU808
 2423 024e 53EC192B 		vmov	r2, r3, d9
 2424 0252 FFF7FEFF 		bl	__aeabi_dmul
 2425              	.LVL181:
1229:HANcoder_E407_TTA_CombineModel.c ****       rtb_Integrator_tmp * rtb_Integrator)));
 2426              		.loc 1 1229 26 view .LVU809
 2427 0256 53EC1B2B 		vmov	r2, r3, d11
1228:HANcoder_E407_TTA_CombineModel.c ****       rtConstB.signL0b_o) * 3.0 / (rtb_IntegralGain * 4.0 * rtb_Uk1 +
 2428              		.loc 1 1228 59 view .LVU810
 2429 025a 0646     		mov	r6, r0
 2430 025c 0F46     		mov	r7, r1
 2431              		.loc 1 1229 26 view .LVU811
 2432 025e 51EC180B 		vmov	r0, r1, d8
 2433 0262 FFF7FEFF 		bl	__aeabi_dmul
 2434              	.LVL182:
 2435 0266 0246     		mov	r2, r0
 2436 0268 0B46     		mov	r3, r1
1228:HANcoder_E407_TTA_CombineModel.c ****       rtConstB.signL0b_o) * 3.0 / (rtb_IntegralGain * 4.0 * rtb_Uk1 +
 2437              		.loc 1 1228 69 view .LVU812
 2438 026a 3046     		mov	r0, r6
 2439 026c 3946     		mov	r1, r7
 2440 026e FFF7FEFF 		bl	__aeabi_dadd
 2441              	.LVL183:
 2442 0272 0246     		mov	r2, r0
 2443 0274 0B46     		mov	r3, r1
1228:HANcoder_E407_TTA_CombineModel.c ****       rtConstB.signL0b_o) * 3.0 / (rtb_IntegralGain * 4.0 * rtb_Uk1 +
 2444              		.loc 1 1228 33 view .LVU813
 2445 0276 4046     		mov	r0, r8
 2446 0278 4946     		mov	r1, r9
 2447 027a FFF7FEFF 		bl	__aeabi_ddiv
 2448              	.LVL184:
1226:HANcoder_E407_TTA_CombineModel.c ****       + rtb_Integrator_tmp / 1.0 * 4.0 * rtb_IntegralGain) * (tmp *
 2449              		.loc 1 1226 31 view .LVU814
 2450 027e FFF7FEFF 		bl	__aeabi_d2f
 2451              	.LVL185:
1226:HANcoder_E407_TTA_CombineModel.c ****       + rtb_Integrator_tmp / 1.0 * 4.0 * rtb_IntegralGain) * (tmp *
 2452              		.loc 1 1226 26 view .LVU815
 2453 0282 FFF7FEFF 		bl	__aeabi_f2d
 2454              	.LVL186:
 2455 0286 FFF7FEFF 		bl	atan
 2456              	.LVL187:
1226:HANcoder_E407_TTA_CombineModel.c ****       + rtb_Integrator_tmp / 1.0 * 4.0 * rtb_IntegralGain) * (tmp *
 2457              		.loc 1 1226 16 view .LVU816
 2458 028a FFF7FEFF 		bl	__aeabi_d2f
 2459              	.LVL188:
1230:HANcoder_E407_TTA_CombineModel.c **** 
1231:HANcoder_E407_TTA_CombineModel.c ****     /* Gain: '<S19>/Gain2' incorporates:
1232:HANcoder_E407_TTA_CombineModel.c ****      *  DataTypeConversion: '<S19>/Cast3'
1233:HANcoder_E407_TTA_CombineModel.c ****      */
1234:HANcoder_E407_TTA_CombineModel.c ****     steering = 45.6 * delta12K;
 2460              		.loc 1 1234 21 view .LVU817
 2461 028e 9FED3F7A 		vldr.32	s14, .L377+68
1226:HANcoder_E407_TTA_CombineModel.c ****       + rtb_Integrator_tmp / 1.0 * 4.0 * rtb_IntegralGain) * (tmp *
 2462              		.loc 1 1226 14 view .LVU818
 2463 0292 3F4B     		ldr	r3, .L377+72
1226:HANcoder_E407_TTA_CombineModel.c ****       + rtb_Integrator_tmp / 1.0 * 4.0 * rtb_IntegralGain) * (tmp *
 2464              		.loc 1 1226 16 view .LVU819
 2465 0294 07EE900A 		vmov	s15, r0
 2466              		.loc 1 1234 21 view .LVU820
 2467 0298 67EE877A 		vmul.f32	s15, s15, s14
1226:HANcoder_E407_TTA_CombineModel.c ****       + rtb_Integrator_tmp / 1.0 * 4.0 * rtb_IntegralGain) * (tmp *
 2468              		.loc 1 1226 14 view .LVU821
 2469 029c 1860     		str	r0, [r3]	@ float
 2470              		.loc 1 1234 5 is_stmt 1 view .LVU822
 2471              		.loc 1 1234 21 is_stmt 0 view .LVU823
 2472 029e 17EE900A 		vmov	r0, s15
 2473 02a2 FFF7FEFF 		bl	__aeabi_f2d
 2474              	.LVL189:
 2475              		.loc 1 1234 14 view .LVU824
 2476 02a6 3B4B     		ldr	r3, .L377+76
 2477              		.loc 1 1234 21 view .LVU825
 2478 02a8 8046     		mov	r8, r0
 2479 02aa 8946     		mov	r9, r1
 2480              		.loc 1 1234 14 view .LVU826
 2481 02ac C3E90089 		strd	r8, [r3]
1235:HANcoder_E407_TTA_CombineModel.c **** 
1236:HANcoder_E407_TTA_CombineModel.c ****     /* Gain: '<S19>/Gain1' incorporates:
1237:HANcoder_E407_TTA_CombineModel.c ****      *  DataStoreRead: '<S19>/Data Store Read'
1238:HANcoder_E407_TTA_CombineModel.c ****      */
1239:HANcoder_E407_TTA_CombineModel.c ****     position = (real_T)1717986918 * 5.8207660913467407E-11 * (real_T)
 2482              		.loc 1 1239 5 is_stmt 1 view .LVU827
 2483              		.loc 1 1239 62 is_stmt 0 view .LVU828
 2484 02b0 A06B     		ldr	r0, [r4, #56]
 2485 02b2 FFF7FEFF 		bl	__aeabi_i2d
 2486              	.LVL190:
 2487              		.loc 1 1239 60 view .LVU829
 2488 02b6 24A3     		adr	r3, .L377
 2489 02b8 D3E90023 		ldrd	r2, [r3]
 2490 02bc FFF7FEFF 		bl	__aeabi_dmul
 2491              	.LVL191:
 2492              		.loc 1 1239 14 view .LVU830
 2493 02c0 354B     		ldr	r3, .L377+80
 2494              		.loc 1 1239 60 view .LVU831
 2495 02c2 0646     		mov	r6, r0
 2496 02c4 0F46     		mov	r7, r1
1240:HANcoder_E407_TTA_CombineModel.c ****       rtDWork.encoderPosition;
1241:HANcoder_E407_TTA_CombineModel.c **** 
1242:HANcoder_E407_TTA_CombineModel.c ****     /* Sum: '<S19>/Sum' incorporates:
1243:HANcoder_E407_TTA_CombineModel.c ****      *  Rounding: '<S19>/Round'
1244:HANcoder_E407_TTA_CombineModel.c ****      *  Rounding: '<S19>/Round1'
1245:HANcoder_E407_TTA_CombineModel.c ****      */
1246:HANcoder_E407_TTA_CombineModel.c ****     control = floor(steering) - floor(position);
 2497              		.loc 1 1246 15 view .LVU832
 2498 02c6 4046     		mov	r0, r8
 2499 02c8 4946     		mov	r1, r9
1239:HANcoder_E407_TTA_CombineModel.c ****       rtDWork.encoderPosition;
 2500              		.loc 1 1239 14 view .LVU833
 2501 02ca C3E90067 		strd	r6, [r3]
 2502              		.loc 1 1246 5 is_stmt 1 view .LVU834
 2503              		.loc 1 1246 15 is_stmt 0 view .LVU835
 2504 02ce FFF7FEFF 		bl	floor
 2505              	.LVL192:
 2506 02d2 0246     		mov	r2, r0
 2507 02d4 0B46     		mov	r3, r1
 2508              		.loc 1 1246 33 view .LVU836
 2509 02d6 3046     		mov	r0, r6
 2510 02d8 3946     		mov	r1, r7
 2511              		.loc 1 1246 15 view .LVU837
 2512 02da 1646     		mov	r6, r2
 2513 02dc 1F46     		mov	r7, r3
 2514              		.loc 1 1246 33 view .LVU838
 2515 02de FFF7FEFF 		bl	floor
 2516              	.LVL193:
 2517 02e2 0246     		mov	r2, r0
 2518 02e4 0B46     		mov	r3, r1
 2519              		.loc 1 1246 31 view .LVU839
 2520 02e6 3046     		mov	r0, r6
 2521 02e8 3946     		mov	r1, r7
 2522 02ea FFF7FEFF 		bl	__aeabi_dsub
 2523              	.LVL194:
1247:HANcoder_E407_TTA_CombineModel.c **** 
1248:HANcoder_E407_TTA_CombineModel.c ****     /* Abs: '<S19>/Abs' */
1249:HANcoder_E407_TTA_CombineModel.c ****     rtb_IntegralGain = fabs(control);
1250:HANcoder_E407_TTA_CombineModel.c **** 
1251:HANcoder_E407_TTA_CombineModel.c ****     /* Sum: '<S64>/Sum' incorporates:
1252:HANcoder_E407_TTA_CombineModel.c ****      *  DiscreteIntegrator: '<S55>/Integrator'
1253:HANcoder_E407_TTA_CombineModel.c ****      *  Gain: '<S60>/Proportional Gain'
1254:HANcoder_E407_TTA_CombineModel.c ****      */
1255:HANcoder_E407_TTA_CombineModel.c ****     rtb_Uk1 = propVal * rtb_IntegralGain + rtDWork.Integrator_DSTATE;
 2524              		.loc 1 1255 51 view .LVU840
 2525 02ee 94ED027B 		vldr.64	d7, [r4, #8]
1246:HANcoder_E407_TTA_CombineModel.c **** 
 2526              		.loc 1 1246 13 view .LVU841
 2527 02f2 2A4A     		ldr	r2, .L377+84
 2528              		.loc 1 1255 23 view .LVU842
 2529 02f4 2A4B     		ldr	r3, .L377+88
 2530              		.loc 1 1255 51 view .LVU843
 2531 02f6 B0EE478A 		vmov.f32	s16, s14
 2532 02fa F0EE678A 		vmov.f32	s17, s15
 2533              	.LVL195:
1246:HANcoder_E407_TTA_CombineModel.c **** 
 2534              		.loc 1 1246 31 view .LVU844
 2535 02fe 8046     		mov	r8, r0
 2536 0300 8946     		mov	r9, r1
1249:HANcoder_E407_TTA_CombineModel.c **** 
 2537              		.loc 1 1249 22 view .LVU845
 2538 0302 21F00047 		bic	r7, r1, #-2147483648
1246:HANcoder_E407_TTA_CombineModel.c **** 
 2539              		.loc 1 1246 13 view .LVU846
 2540 0306 C2E90089 		strd	r8, [r2]
1249:HANcoder_E407_TTA_CombineModel.c **** 
 2541              		.loc 1 1249 5 is_stmt 1 view .LVU847
 2542              		.loc 1 1255 51 is_stmt 0 view .LVU848
 2543 030a B0EE47AA 		vmov.f32	s20, s14
 2544 030e F0EE67AA 		vmov.f32	s21, s15
 2545              	.LVL196:
 2546              		.loc 1 1255 23 view .LVU849
 2547 0312 D3E90023 		ldrd	r2, [r3]
 2548 0316 3946     		mov	r1, r7
1249:HANcoder_E407_TTA_CombineModel.c **** 
 2549              		.loc 1 1249 22 view .LVU850
 2550 0318 0646     		mov	r6, r0
 2551              	.LVL197:
 2552              		.loc 1 1255 5 is_stmt 1 view .LVU851
 2553              		.loc 1 1255 23 is_stmt 0 view .LVU852
 2554 031a FFF7FEFF 		bl	__aeabi_dmul
 2555              	.LVL198:
 2556              		.loc 1 1255 13 view .LVU853
 2557 031e 53EC182B 		vmov	r2, r3, d8
 2558 0322 FFF7FEFF 		bl	__aeabi_dadd
 2559              	.LVL199:
 2560 0326 0246     		mov	r2, r0
 2561 0328 0B46     		mov	r3, r1
 2562 032a 43EC182B 		vmov	d8, r2, r3
1256:HANcoder_E407_TTA_CombineModel.c **** 
1257:HANcoder_E407_TTA_CombineModel.c ****     /* Saturate: '<S62>/Saturation' */
1258:HANcoder_E407_TTA_CombineModel.c ****     if (rtb_Uk1 > 300.0) {
 2563              		.loc 1 1258 8 view .LVU854
 2564 032e 08A3     		adr	r3, .L377+8
 2565 0330 D3E90023 		ldrd	r2, [r3]
1255:HANcoder_E407_TTA_CombineModel.c **** 
 2566              		.loc 1 1255 13 view .LVU855
 2567 0334 B0EE489A 		vmov.f32	s18, s16
 2568 0338 F0EE689A 		vmov.f32	s19, s17
 2569              	.LVL200:
 2570              		.loc 1 1258 5 is_stmt 1 view .LVU856
 2571              		.loc 1 1258 8 is_stmt 0 view .LVU857
 2572 033c FFF7FEFF 		bl	__aeabi_dcmpgt
 2573              	.LVL201:
 2574 0340 0028     		cmp	r0, #0
 2575 0342 40F07087 		bne	.L257
 2576 0346 33E0     		b	.L378
 2577              	.L379:
 2578              		.align	3
 2579              	.L377:
 2580 0348 00008099 		.word	-1719664640
 2581 034c 9999B93F 		.word	1069128089
 2582 0350 00000000 		.word	0
 2583 0354 00C07240 		.word	1081262080
 2584 0358 00000000 		.word	.LANCHOR2
 2585 035c 00000000 		.word	.LANCHOR10
 2586 0360 00000000 		.word	.LANCHOR0
 2587 0364 00000000 		.word	.LANCHOR11
 2588 0368 00000000 		.word	rtConstB
 2589 036c 0000D03F 		.word	1070596096
 2590 0370 00000000 		.word	.LANCHOR12
 2591 0374 00000000 		.word	.LANCHOR13
 2592 0378 00000000 		.word	.LANCHOR14
 2593 037c 00001040 		.word	1074790400
 2594 0380 0000E03F 		.word	1071644672
 2595 0384 00000000 		.word	.LANCHOR15
 2596 0388 00000840 		.word	1074266112
 2597 038c 66663642 		.word	1110861414
 2598 0390 00000000 		.word	.LANCHOR16
 2599 0394 00000000 		.word	.LANCHOR17
 2600 0398 00000000 		.word	.LANCHOR18
 2601 039c 00000000 		.word	.LANCHOR19
 2602 03a0 00000000 		.word	.LANCHOR20
 2603 03a4 00000000 		.word	.LANCHOR7
 2604 03a8 00000000 		.word	.LANCHOR5
 2605 03ac 0000F03F 		.word	1072693248
 2606              	.L378:
1259:HANcoder_E407_TTA_CombineModel.c ****       tmp = 300.0;
1260:HANcoder_E407_TTA_CombineModel.c ****     } else if (rtb_Uk1 < 0.0) {
 2607              		.loc 1 1260 12 is_stmt 1 view .LVU858
 2608              		.loc 1 1260 15 is_stmt 0 view .LVU859
 2609 03b0 51EC180B 		vmov	r0, r1, d8
 2610 03b4 0022     		movs	r2, #0
 2611 03b6 0023     		movs	r3, #0
 2612 03b8 FFF7FEFF 		bl	__aeabi_dcmplt
 2613              	.LVL202:
 2614 03bc 0028     		cmp	r0, #0
 2615 03be 40F04887 		bne	.L258
1261:HANcoder_E407_TTA_CombineModel.c ****       tmp = 0.0;
1262:HANcoder_E407_TTA_CombineModel.c ****     } else {
1263:HANcoder_E407_TTA_CombineModel.c ****       tmp = rtb_Uk1;
 2616              		.loc 1 1263 7 is_stmt 1 view .LVU860
 2617              	.LVL203:
1264:HANcoder_E407_TTA_CombineModel.c ****     }
1265:HANcoder_E407_TTA_CombineModel.c **** 
1266:HANcoder_E407_TTA_CombineModel.c ****     /* Sum: '<S19>/Add' incorporates:
1267:HANcoder_E407_TTA_CombineModel.c ****      *  Constant: '<S19>/Motor dead zone'
1268:HANcoder_E407_TTA_CombineModel.c ****      *  DataTypeConversion: '<S19>/Cast'
1269:HANcoder_E407_TTA_CombineModel.c ****      *  Saturate: '<S62>/Saturation'
1270:HANcoder_E407_TTA_CombineModel.c ****      */
1271:HANcoder_E407_TTA_CombineModel.c ****     mospeed = (uint16_T)((uint32_T)((uint16_T)500U) + (uint16_T)tmp);
 2618              		.loc 1 1271 55 is_stmt 0 view .LVU861
 2619 03c2 51EC180B 		vmov	r0, r1, d8
 2620 03c6 FFF7FEFF 		bl	__aeabi_d2uiz
 2621              	.LVL204:
 2622              		.loc 1 1271 15 view .LVU862
 2623 03ca 00F5FA70 		add	r0, r0, #500
 2624 03ce 83B2     		uxth	r3, r0
 2625              	.LVL205:
 2626              	.L125:
 2627              		.loc 1 1271 5 is_stmt 1 view .LVU863
1272:HANcoder_E407_TTA_CombineModel.c **** 
1273:HANcoder_E407_TTA_CombineModel.c ****     /* DataStoreWrite: '<S5>/Data Store Write' */
1274:HANcoder_E407_TTA_CombineModel.c ****     rtDWork.pwmMotor = mospeed;
1275:HANcoder_E407_TTA_CombineModel.c **** 
1276:HANcoder_E407_TTA_CombineModel.c ****     /* RelationalOperator: '<S19>/GreaterThan1' incorporates:
1277:HANcoder_E407_TTA_CombineModel.c ****      *  Constant: '<S19>/Constant'
1278:HANcoder_E407_TTA_CombineModel.c ****      */
1279:HANcoder_E407_TTA_CombineModel.c ****     rtb_Equal17 = (rtb_IntegralGain > controlWidth);
 2628              		.loc 1 1279 37 is_stmt 0 view .LVU864
 2629 03d0 BD4A     		ldr	r2, .L380+16
1271:HANcoder_E407_TTA_CombineModel.c **** 
 2630              		.loc 1 1271 13 view .LVU865
 2631 03d2 BE49     		ldr	r1, .L380+20
1274:HANcoder_E407_TTA_CombineModel.c **** 
 2632              		.loc 1 1274 22 view .LVU866
 2633 03d4 E387     		strh	r3, [r4, #62]	@ movhi
1271:HANcoder_E407_TTA_CombineModel.c **** 
 2634              		.loc 1 1271 13 view .LVU867
 2635 03d6 0B80     		strh	r3, [r1]	@ movhi
1274:HANcoder_E407_TTA_CombineModel.c **** 
 2636              		.loc 1 1274 5 is_stmt 1 view .LVU868
 2637              		.loc 1 1279 5 view .LVU869
 2638              		.loc 1 1279 37 is_stmt 0 view .LVU870
 2639 03d8 92ED008B 		vldr.64	d8, [r2]
 2640              	.LVL206:
1280:HANcoder_E407_TTA_CombineModel.c **** 
1281:HANcoder_E407_TTA_CombineModel.c ****     /* DataTypeConversion: '<S19>/Cast1' incorporates:
1282:HANcoder_E407_TTA_CombineModel.c ****      *  Constant: '<S19>/Constant1'
1283:HANcoder_E407_TTA_CombineModel.c ****      *  RelationalOperator: '<S19>/GreaterThan'
1284:HANcoder_E407_TTA_CombineModel.c ****      */
1285:HANcoder_E407_TTA_CombineModel.c ****     cw = (control > 0.0);
 2641              		.loc 1 1285 5 is_stmt 1 view .LVU871
 2642              		.loc 1 1285 19 is_stmt 0 view .LVU872
 2643 03dc 0023     		movs	r3, #0
 2644 03de 0022     		movs	r2, #0
 2645 03e0 4946     		mov	r1, r9
 2646 03e2 4046     		mov	r0, r8
 2647 03e4 FFF7FEFF 		bl	__aeabi_dcmpgt
 2648              	.LVL207:
 2649              		.loc 1 1285 8 view .LVU873
 2650 03e8 B94B     		ldr	r3, .L380+24
 2651              		.loc 1 1285 19 view .LVU874
 2652 03ea 021E     		subs	r2, r0, #0
 2653 03ec 18BF     		it	ne
 2654 03ee 0122     		movne	r2, #1
 2655              		.loc 1 1285 8 view .LVU875
 2656 03f0 1A70     		strb	r2, [r3]
1286:HANcoder_E407_TTA_CombineModel.c **** 
1287:HANcoder_E407_TTA_CombineModel.c ****     /* Logic: '<S19>/AND' incorporates:
1288:HANcoder_E407_TTA_CombineModel.c ****      *  DataStoreWrite: '<S5>/Data Store Write1'
1289:HANcoder_E407_TTA_CombineModel.c ****      */
1290:HANcoder_E407_TTA_CombineModel.c ****     rtDWork.cwMotor = (rtb_Equal17 && cw);
 2657              		.loc 1 1290 5 is_stmt 1 view .LVU876
1285:HANcoder_E407_TTA_CombineModel.c **** 
 2658              		.loc 1 1285 19 is_stmt 0 view .LVU877
 2659 03f2 0992     		str	r2, [sp, #36]
 2660              		.loc 1 1290 36 view .LVU878
 2661 03f4 51EC180B 		vmov	r0, r1, d8
 2662 03f8 3246     		mov	r2, r6
 2663 03fa 3B46     		mov	r3, r7
 2664 03fc FFF7FEFF 		bl	__aeabi_dcmplt
 2665              	.LVL208:
 2666 0400 0028     		cmp	r0, #0
 2667 0402 00F0FB86 		beq	.L327
 2668              		.loc 1 1290 36 discriminator 1 view .LVU879
 2669 0406 4046     		mov	r0, r8
 2670 0408 4946     		mov	r1, r9
 2671 040a 0022     		movs	r2, #0
 2672 040c 0023     		movs	r3, #0
 2673 040e FFF7FEFF 		bl	__aeabi_dcmpgt
 2674              	.LVL209:
 2675 0412 0028     		cmp	r0, #0
 2676 0414 00F01087 		beq	.L353
1291:HANcoder_E407_TTA_CombineModel.c **** 
1292:HANcoder_E407_TTA_CombineModel.c ****     /* Logic: '<S19>/NOT' */
1293:HANcoder_E407_TTA_CombineModel.c ****     ccw = !cw;
 2677              		.loc 1 1293 9 view .LVU880
 2678 0418 AE4B     		ldr	r3, .L380+28
 2679 041a 4FF00008 		mov	r8, #0
 2680 041e 83F80080 		strb	r8, [r3]
1290:HANcoder_E407_TTA_CombineModel.c **** 
 2681              		.loc 1 1290 21 view .LVU881
 2682 0422 0123     		movs	r3, #1
 2683 0424 84F86730 		strb	r3, [r4, #103]
 2684              		.loc 1 1293 5 is_stmt 1 view .LVU882
1294:HANcoder_E407_TTA_CombineModel.c **** 
1295:HANcoder_E407_TTA_CombineModel.c ****     /* Logic: '<S19>/AND1' incorporates:
1296:HANcoder_E407_TTA_CombineModel.c ****      *  DataStoreWrite: '<S5>/Data Store Write8'
1297:HANcoder_E407_TTA_CombineModel.c ****      */
1298:HANcoder_E407_TTA_CombineModel.c ****     rtDWork.ccwMotor = (rtb_Equal17 && ccw);
 2685              		.loc 1 1298 5 view .LVU883
 2686              	.L131:
 2687              		.loc 1 1298 22 is_stmt 0 discriminator 6 view .LVU884
 2688 0428 84F86880 		strb	r8, [r4, #104]
1299:HANcoder_E407_TTA_CombineModel.c **** 
1300:HANcoder_E407_TTA_CombineModel.c ****     /* DeadZone: '<S48>/DeadZone' */
1301:HANcoder_E407_TTA_CombineModel.c ****     if (rtb_Uk1 > 300.0) {
 2689              		.loc 1 1301 5 is_stmt 1 discriminator 6 view .LVU885
 2690              		.loc 1 1301 8 is_stmt 0 discriminator 6 view .LVU886
 2691 042c 59EC198B 		vmov	r8, r9, d9
 2692 0430 A1A3     		adr	r3, .L380
 2693 0432 D3E90023 		ldrd	r2, [r3]
 2694 0436 19EE100A 		vmov	r0, s18	@ int
 2695 043a 4946     		mov	r1, r9
 2696 043c FFF7FEFF 		bl	__aeabi_dcmpgt
 2697              	.LVL210:
 2698 0440 0028     		cmp	r0, #0
 2699 0442 00F0C786 		beq	.L329
 2700              	.LVL211:
1302:HANcoder_E407_TTA_CombineModel.c ****       rtb_Uk1 -= 300.0;
 2701              		.loc 1 1302 7 is_stmt 1 view .LVU887
 2702              		.loc 1 1302 15 is_stmt 0 view .LVU888
 2703 0446 19EE100A 		vmov	r0, s18	@ int
 2704 044a 9BA3     		adr	r3, .L380
 2705 044c D3E90023 		ldrd	r2, [r3]
 2706 0450 4946     		mov	r1, r9
 2707 0452 FFF7FEFF 		bl	__aeabi_dsub
 2708              	.LVL212:
 2709 0456 41EC190B 		vmov	d9, r0, r1
 2710              	.LVL213:
 2711              	.L135:
1303:HANcoder_E407_TTA_CombineModel.c ****     } else if (rtb_Uk1 >= 0.0) {
1304:HANcoder_E407_TTA_CombineModel.c ****       rtb_Uk1 = 0.0;
1305:HANcoder_E407_TTA_CombineModel.c ****     } else {
1306:HANcoder_E407_TTA_CombineModel.c ****       rtb_Uk1 -= 0.0;
1307:HANcoder_E407_TTA_CombineModel.c ****     }
1308:HANcoder_E407_TTA_CombineModel.c **** 
1309:HANcoder_E407_TTA_CombineModel.c ****     /* End of DeadZone: '<S48>/DeadZone' */
1310:HANcoder_E407_TTA_CombineModel.c **** 
1311:HANcoder_E407_TTA_CombineModel.c ****     /* Gain: '<S52>/Integral Gain' */
1312:HANcoder_E407_TTA_CombineModel.c ****     rtb_IntegralGain *= intVal;
 2712              		.loc 1 1312 5 is_stmt 1 view .LVU889
 2713              		.loc 1 1312 22 is_stmt 0 view .LVU890
 2714 045a 9F4B     		ldr	r3, .L380+32
 2715 045c 3046     		mov	r0, r6
 2716 045e D3E90023 		ldrd	r2, [r3]
 2717 0462 3946     		mov	r1, r7
 2718 0464 FFF7FEFF 		bl	__aeabi_dmul
 2719              	.LVL214:
1313:HANcoder_E407_TTA_CombineModel.c **** 
1314:HANcoder_E407_TTA_CombineModel.c ****     /* Switch: '<S46>/Switch1' incorporates:
1315:HANcoder_E407_TTA_CombineModel.c ****      *  Constant: '<S46>/Clamping_zero'
1316:HANcoder_E407_TTA_CombineModel.c ****      *  Constant: '<S46>/Constant'
1317:HANcoder_E407_TTA_CombineModel.c ****      *  Constant: '<S46>/Constant2'
1318:HANcoder_E407_TTA_CombineModel.c ****      *  RelationalOperator: '<S46>/fix for DT propagation issue'
1319:HANcoder_E407_TTA_CombineModel.c ****      */
1320:HANcoder_E407_TTA_CombineModel.c ****     if (rtb_Uk1 > 0.0) {
 2720              		.loc 1 1320 8 view .LVU891
 2721 0468 0022     		movs	r2, #0
 2722 046a 0023     		movs	r3, #0
1312:HANcoder_E407_TTA_CombineModel.c **** 
 2723              		.loc 1 1312 22 view .LVU892
 2724 046c 0646     		mov	r6, r0
 2725              	.LVL215:
1312:HANcoder_E407_TTA_CombineModel.c **** 
 2726              		.loc 1 1312 22 view .LVU893
 2727 046e 0F46     		mov	r7, r1
 2728              	.LVL216:
 2729              		.loc 1 1320 5 is_stmt 1 view .LVU894
 2730              		.loc 1 1320 8 is_stmt 0 view .LVU895
 2731 0470 51EC190B 		vmov	r0, r1, d9
 2732 0474 FFF7FEFF 		bl	__aeabi_dcmpgt
 2733              	.LVL217:
1321:HANcoder_E407_TTA_CombineModel.c ****       tmp_0 = 1;
1322:HANcoder_E407_TTA_CombineModel.c ****     } else {
1323:HANcoder_E407_TTA_CombineModel.c ****       tmp_0 = (-1);
1324:HANcoder_E407_TTA_CombineModel.c ****     }
1325:HANcoder_E407_TTA_CombineModel.c **** 
1326:HANcoder_E407_TTA_CombineModel.c ****     /* Switch: '<S46>/Switch2' incorporates:
1327:HANcoder_E407_TTA_CombineModel.c ****      *  Constant: '<S46>/Clamping_zero'
1328:HANcoder_E407_TTA_CombineModel.c ****      *  Constant: '<S46>/Constant3'
1329:HANcoder_E407_TTA_CombineModel.c ****      *  Constant: '<S46>/Constant4'
1330:HANcoder_E407_TTA_CombineModel.c ****      *  RelationalOperator: '<S46>/fix for DT propagation issue1'
1331:HANcoder_E407_TTA_CombineModel.c ****      */
1332:HANcoder_E407_TTA_CombineModel.c ****     if (rtb_IntegralGain > 0.0) {
 2734              		.loc 1 1332 8 view .LVU896
 2735 0478 0022     		movs	r2, #0
 2736 047a 0023     		movs	r3, #0
1320:HANcoder_E407_TTA_CombineModel.c ****       tmp_0 = 1;
 2737              		.loc 1 1320 8 view .LVU897
 2738 047c 0028     		cmp	r0, #0
 2739 047e 00F01787 		beq	.L354
 2740              	.LVL218:
 2741              		.loc 1 1332 5 is_stmt 1 view .LVU898
 2742              		.loc 1 1332 8 is_stmt 0 view .LVU899
 2743 0482 3046     		mov	r0, r6
 2744 0484 3946     		mov	r1, r7
 2745 0486 FFF7FEFF 		bl	__aeabi_dcmpgt
 2746              	.LVL219:
 2747 048a 0028     		cmp	r0, #0
 2748 048c 40F02087 		bne	.L342
 2749              	.LVL220:
 2750              	.L138:
1333:HANcoder_E407_TTA_CombineModel.c ****       tmp_1 = 1;
1334:HANcoder_E407_TTA_CombineModel.c ****     } else {
1335:HANcoder_E407_TTA_CombineModel.c ****       tmp_1 = (-1);
1336:HANcoder_E407_TTA_CombineModel.c ****     }
1337:HANcoder_E407_TTA_CombineModel.c **** 
1338:HANcoder_E407_TTA_CombineModel.c ****     /* Switch: '<S46>/Switch' incorporates:
1339:HANcoder_E407_TTA_CombineModel.c ****      *  Constant: '<S46>/Clamping_zero'
1340:HANcoder_E407_TTA_CombineModel.c ****      *  Constant: '<S46>/Constant1'
1341:HANcoder_E407_TTA_CombineModel.c ****      *  Logic: '<S46>/AND3'
1342:HANcoder_E407_TTA_CombineModel.c ****      *  RelationalOperator: '<S46>/Equal1'
1343:HANcoder_E407_TTA_CombineModel.c ****      *  RelationalOperator: '<S46>/Relational Operator'
1344:HANcoder_E407_TTA_CombineModel.c ****      *  Switch: '<S46>/Switch1'
1345:HANcoder_E407_TTA_CombineModel.c ****      *  Switch: '<S46>/Switch2'
1346:HANcoder_E407_TTA_CombineModel.c ****      */
1347:HANcoder_E407_TTA_CombineModel.c ****     if ((0.0 != rtb_Uk1) && (tmp_0 == tmp_1)) {
1348:HANcoder_E407_TTA_CombineModel.c ****       rtb_IntegralGain = 0.0;
1349:HANcoder_E407_TTA_CombineModel.c ****     }
1350:HANcoder_E407_TTA_CombineModel.c **** 
1351:HANcoder_E407_TTA_CombineModel.c ****     /* Update for DiscreteIntegrator: '<S55>/Integrator' incorporates:
1352:HANcoder_E407_TTA_CombineModel.c ****      *  Switch: '<S46>/Switch'
1353:HANcoder_E407_TTA_CombineModel.c ****      */
1354:HANcoder_E407_TTA_CombineModel.c ****     rtDWork.Integrator_DSTATE += 1.0 * rtb_IntegralGain;
 2751              		.loc 1 1354 5 is_stmt 1 view .LVU900
 2752              		.loc 1 1354 31 is_stmt 0 view .LVU901
 2753 0490 3246     		mov	r2, r6
 2754 0492 3B46     		mov	r3, r7
 2755 0494 51EC1A0B 		vmov	r0, r1, d10
 2756 0498 FFF7FEFF 		bl	__aeabi_dadd
 2757              	.LVL221:
1355:HANcoder_E407_TTA_CombineModel.c ****     if (rtDWork.Integrator_DSTATE >= 100.0) {
 2758              		.loc 1 1355 8 view .LVU902
 2759 049c DFF87092 		ldr	r9, .L380+88
 2760 04a0 4FF00008 		mov	r8, #0
 2761 04a4 4246     		mov	r2, r8
 2762 04a6 4B46     		mov	r3, r9
1354:HANcoder_E407_TTA_CombineModel.c ****     if (rtDWork.Integrator_DSTATE >= 100.0) {
 2763              		.loc 1 1354 31 view .LVU903
 2764 04a8 0646     		mov	r6, r0
 2765              	.LVL222:
1354:HANcoder_E407_TTA_CombineModel.c ****     if (rtDWork.Integrator_DSTATE >= 100.0) {
 2766              		.loc 1 1354 31 view .LVU904
 2767 04aa 0F46     		mov	r7, r1
 2768              		.loc 1 1355 5 is_stmt 1 view .LVU905
 2769              		.loc 1 1355 8 is_stmt 0 view .LVU906
 2770 04ac FFF7FEFF 		bl	__aeabi_dcmpge
 2771              	.LVL223:
 2772 04b0 0028     		cmp	r0, #0
 2773 04b2 40F03086 		bne	.L347
1356:HANcoder_E407_TTA_CombineModel.c ****       rtDWork.Integrator_DSTATE = 100.0;
1357:HANcoder_E407_TTA_CombineModel.c ****     } else if (rtDWork.Integrator_DSTATE <= 0.0) {
 2774              		.loc 1 1357 12 is_stmt 1 view .LVU907
 2775              		.loc 1 1357 15 is_stmt 0 view .LVU908
 2776 04b6 4FF00008 		mov	r8, #0
 2777 04ba 4FF00009 		mov	r9, #0
 2778 04be 3046     		mov	r0, r6
 2779 04c0 3946     		mov	r1, r7
 2780 04c2 4246     		mov	r2, r8
 2781 04c4 4B46     		mov	r3, r9
 2782 04c6 FFF7FEFF 		bl	__aeabi_dcmple
 2783              	.LVL224:
 2784 04ca 0028     		cmp	r0, #0
 2785 04cc 40F02386 		bne	.L347
1354:HANcoder_E407_TTA_CombineModel.c ****     if (rtDWork.Integrator_DSTATE >= 100.0) {
 2786              		.loc 1 1354 31 view .LVU909
 2787 04d0 C4E90267 		strd	r6, [r4, #8]
 2788              	.LVL225:
 2789              	.L141:
1358:HANcoder_E407_TTA_CombineModel.c ****       rtDWork.Integrator_DSTATE = 0.0;
1359:HANcoder_E407_TTA_CombineModel.c ****     }
1360:HANcoder_E407_TTA_CombineModel.c **** 
1361:HANcoder_E407_TTA_CombineModel.c ****     /* End of Update for DiscreteIntegrator: '<S55>/Integrator' */
1362:HANcoder_E407_TTA_CombineModel.c ****   }
1363:HANcoder_E407_TTA_CombineModel.c **** 
1364:HANcoder_E407_TTA_CombineModel.c ****   rtPrevZCSigState.Controlexecution_Trig_ZCE = rtb_OR1;
 2790              		.loc 1 1364 3 is_stmt 1 view .LVU910
1365:HANcoder_E407_TTA_CombineModel.c **** 
1366:HANcoder_E407_TTA_CombineModel.c ****   /* End of Outputs for SubSystem: '<S1>/Control execution' */
1367:HANcoder_E407_TTA_CombineModel.c **** 
1368:HANcoder_E407_TTA_CombineModel.c ****   /* Outputs for Triggered SubSystem: '<S1>/IO execution' incorporates:
1369:HANcoder_E407_TTA_CombineModel.c ****    *  TriggerPort: '<S10>/Trigger'
1370:HANcoder_E407_TTA_CombineModel.c ****    */
1371:HANcoder_E407_TTA_CombineModel.c ****   if (rtb_OR1 && (rtPrevZCSigState.IOexecution_Trig_ZCE != POS_ZCSIG)) {
 2791              		.loc 1 1371 35 is_stmt 0 view .LVU911
 2792 04d4 9AF80B30 		ldrb	r3, [r10, #11]	@ zero_extendqisi2
1364:HANcoder_E407_TTA_CombineModel.c **** 
 2793              		.loc 1 1364 46 view .LVU912
 2794 04d8 0122     		movs	r2, #1
 2795              		.loc 1 1371 15 view .LVU913
 2796 04da 9342     		cmp	r3, r2
1364:HANcoder_E407_TTA_CombineModel.c **** 
 2797              		.loc 1 1364 46 view .LVU914
 2798 04dc 8AF80C20 		strb	r2, [r10, #12]
 2799              		.loc 1 1371 3 is_stmt 1 view .LVU915
 2800              		.loc 1 1371 15 is_stmt 0 view .LVU916
 2801 04e0 00F09B81 		beq	.L344
1372:HANcoder_E407_TTA_CombineModel.c ****     /* CombinatorialLogic: '<S90>/Logic' incorporates:
1373:HANcoder_E407_TTA_CombineModel.c ****      *  Delay: '<S80>/Delay'
1374:HANcoder_E407_TTA_CombineModel.c ****      *  Delay: '<S80>/Delay1'
1375:HANcoder_E407_TTA_CombineModel.c ****      *  Delay: '<S80>/Delay2'
1376:HANcoder_E407_TTA_CombineModel.c ****      *  Logic: '<S80>/AND1'
1377:HANcoder_E407_TTA_CombineModel.c ****      *  Memory: '<S90>/Memory'
1378:HANcoder_E407_TTA_CombineModel.c ****      */
1379:HANcoder_E407_TTA_CombineModel.c ****     rtb_Logic_idx_0 = rtConstP.Logic_table[((((uint32_T)(rtDWork.Delay_DSTATE[0]
 2802              		.loc 1 1379 5 is_stmt 1 view .LVU917
1380:HANcoder_E407_TTA_CombineModel.c ****       && rtDWork.Delay1_DSTATE[0] && rtDWork.Delay2_DSTATE[0]) << 1) + false) <<
 2803              		.loc 1 1380 35 is_stmt 0 view .LVU918
 2804 04e4 94F85030 		ldrb	r3, [r4, #80]	@ zero_extendqisi2
 2805 04e8 43B1     		cbz	r3, .L144
 2806              		.loc 1 1380 7 discriminator 1 view .LVU919
 2807 04ea 94F85230 		ldrb	r3, [r4, #82]	@ zero_extendqisi2
 2808 04ee 2BB1     		cbz	r3, .L144
 2809              		.loc 1 1380 35 discriminator 3 view .LVU920
 2810 04f0 94F85730 		ldrb	r3, [r4, #87]	@ zero_extendqisi2
 2811 04f4 002B     		cmp	r3, #0
 2812 04f6 0CBF     		ite	eq
 2813 04f8 0023     		moveq	r3, #0
 2814 04fa 0423     		movne	r3, #4
 2815              	.L144:
1379:HANcoder_E407_TTA_CombineModel.c ****       && rtDWork.Delay1_DSTATE[0] && rtDWork.Delay2_DSTATE[0]) << 1) + false) <<
 2816              		.loc 1 1379 21 view .LVU921
 2817 04fc 774A     		ldr	r2, .L380+36
 2818 04fe 1344     		add	r3, r3, r2
1381:HANcoder_E407_TTA_CombineModel.c ****       1) + rtDWork.Memory_PreviousInput];
 2819              		.loc 1 1381 19 view .LVU922
 2820 0500 94F86D20 		ldrb	r2, [r4, #109]	@ zero_extendqisi2
1379:HANcoder_E407_TTA_CombineModel.c ****       && rtDWork.Delay1_DSTATE[0] && rtDWork.Delay2_DSTATE[0]) << 1) + false) <<
 2821              		.loc 1 1379 21 view .LVU923
 2822 0504 13F80280 		ldrb	r8, [r3, r2]	@ zero_extendqisi2
 2823              	.LVL226:
1382:HANcoder_E407_TTA_CombineModel.c **** 
1383:HANcoder_E407_TTA_CombineModel.c ****     /* Logic: '<S80>/AND2' incorporates:
1384:HANcoder_E407_TTA_CombineModel.c ****      *  Constant: '<S80>/Constant2'
1385:HANcoder_E407_TTA_CombineModel.c ****      *  DataStoreRead: '<S1>/Data Store Read'
1386:HANcoder_E407_TTA_CombineModel.c ****      *  DataStoreWrite: '<S80>/Data Store Write'
1387:HANcoder_E407_TTA_CombineModel.c ****      *  RelationalOperator: '<S80>/Equal1'
1388:HANcoder_E407_TTA_CombineModel.c ****      */
1389:HANcoder_E407_TTA_CombineModel.c ****     rtDWork.motorFailed = (rtb_Logic_idx_0 && (rtDWork.nodeRole == ((uint8_T)1U)));
 2824              		.loc 1 1389 5 is_stmt 1 view .LVU924
 2825              		.loc 1 1389 44 is_stmt 0 view .LVU925
 2826 0508 B8F1000F 		cmp	r8, #0
 2827 050c 40F0E584 		bne	.L355
 2828 0510 4346     		mov	r3, r8
 2829              	.L145:
1390:HANcoder_E407_TTA_CombineModel.c **** 
1391:HANcoder_E407_TTA_CombineModel.c ****     /* Sum: '<S80>/Add' incorporates:
1392:HANcoder_E407_TTA_CombineModel.c ****      *  DataStoreRead: '<S80>/Data Store Read5'
1393:HANcoder_E407_TTA_CombineModel.c ****      *  DataStoreRead: '<S80>/Data Store Read6'
1394:HANcoder_E407_TTA_CombineModel.c ****      *  DataTypeConversion: '<S80>/Cast'
1395:HANcoder_E407_TTA_CombineModel.c ****      *  DataTypeConversion: '<S80>/Cast1'
1396:HANcoder_E407_TTA_CombineModel.c ****      */
1397:HANcoder_E407_TTA_CombineModel.c ****     u = (int16_T)((int16_T)rtDWork.potentiometer1 - (int16_T)rtDWork.lastPot1);
 2830              		.loc 1 1397 35 discriminator 6 view .LVU926
 2831 0512 A18F     		ldrh	r1, [r4, #60]
 2832              		.loc 1 1397 69 discriminator 6 view .LVU927
 2833 0514 B4F84620 		ldrh	r2, [r4, #70]
1389:HANcoder_E407_TTA_CombineModel.c **** 
 2834              		.loc 1 1389 25 discriminator 6 view .LVU928
 2835 0518 84F86B30 		strb	r3, [r4, #107]
 2836              		.loc 1 1397 5 is_stmt 1 discriminator 6 view .LVU929
 2837              		.loc 1 1397 51 is_stmt 0 discriminator 6 view .LVU930
 2838 051c 8B1A     		subs	r3, r1, r2
 2839              		.loc 1 1397 7 discriminator 6 view .LVU931
 2840 051e 1BB2     		sxth	r3, r3
 2841              	.LVL227:
1398:HANcoder_E407_TTA_CombineModel.c **** 
1399:HANcoder_E407_TTA_CombineModel.c ****     /* Abs: '<S80>/Abs' */
1400:HANcoder_E407_TTA_CombineModel.c ****     if (u < 0) {
 2842              		.loc 1 1400 5 is_stmt 1 discriminator 6 view .LVU932
 2843              		.loc 1 1400 8 is_stmt 0 discriminator 6 view .LVU933
 2844 0520 002B     		cmp	r3, #0
1401:HANcoder_E407_TTA_CombineModel.c ****       u = (int16_T)-u;
 2845              		.loc 1 1401 7 is_stmt 1 discriminator 6 view .LVU934
 2846              		.loc 1 1401 11 is_stmt 0 discriminator 6 view .LVU935
 2847 0522 BCBF     		itt	lt
 2848 0524 531A     		sublt	r3, r2, r1
 2849              	.LVL228:
 2850              		.loc 1 1401 9 discriminator 6 view .LVU936
 2851 0526 1BB2     		sxthlt	r3, r3
 2852              	.LVL229:
1402:HANcoder_E407_TTA_CombineModel.c ****     }
1403:HANcoder_E407_TTA_CombineModel.c **** 
1404:HANcoder_E407_TTA_CombineModel.c ****     /* RelationalOperator: '<S80>/GreaterThan1' incorporates:
1405:HANcoder_E407_TTA_CombineModel.c ****      *  Abs: '<S80>/Abs'
1406:HANcoder_E407_TTA_CombineModel.c ****      *  Constant: '<S80>/Constant1'
1407:HANcoder_E407_TTA_CombineModel.c ****      *  DataStoreWrite: '<S80>/Data Store Write2'
1408:HANcoder_E407_TTA_CombineModel.c ****      */
1409:HANcoder_E407_TTA_CombineModel.c ****     rtDWork.potFault = (u > 500);
 2853              		.loc 1 1409 5 is_stmt 1 discriminator 6 view .LVU937
 2854              		.loc 1 1409 27 is_stmt 0 discriminator 6 view .LVU938
 2855 0528 B3F5FA7F 		cmp	r3, #500
1410:HANcoder_E407_TTA_CombineModel.c **** 
1411:HANcoder_E407_TTA_CombineModel.c ****     /* Logic: '<S80>/AND' incorporates:
1412:HANcoder_E407_TTA_CombineModel.c ****      *  Constant: '<S80>/Constant'
1413:HANcoder_E407_TTA_CombineModel.c ****      *  DataStoreRead: '<S80>/Data Store Read4'
1414:HANcoder_E407_TTA_CombineModel.c ****      *  RelationalOperator: '<S80>/GreaterThan'
1415:HANcoder_E407_TTA_CombineModel.c ****      */
1416:HANcoder_E407_TTA_CombineModel.c ****     rtb_Equal17 = (rtDWork.pwmMotor > ((uint16_T)600U));
 2856              		.loc 1 1416 37 discriminator 6 view .LVU939
 2857 052c E78F     		ldrh	r7, [r4, #62]
1409:HANcoder_E407_TTA_CombineModel.c **** 
 2858              		.loc 1 1409 27 discriminator 6 view .LVU940
 2859 052e D4BF     		ite	le
 2860 0530 0023     		movle	r3, #0
 2861              	.LVL230:
1409:HANcoder_E407_TTA_CombineModel.c **** 
 2862              		.loc 1 1409 27 discriminator 6 view .LVU941
 2863 0532 0123     		movgt	r3, #1
 2864 0534 84F86C30 		strb	r3, [r4, #108]
 2865              		.loc 1 1416 5 is_stmt 1 discriminator 6 view .LVU942
1417:HANcoder_E407_TTA_CombineModel.c **** 
1418:HANcoder_E407_TTA_CombineModel.c ****     /* Outputs for Enabled SubSystem: '<S80>/Triggered Subsystem' incorporates:
1419:HANcoder_E407_TTA_CombineModel.c ****      *  EnablePort: '<S91>/Enable'
1420:HANcoder_E407_TTA_CombineModel.c ****      */
1421:HANcoder_E407_TTA_CombineModel.c ****     /* Logic: '<S80>/NOT' incorporates:
1422:HANcoder_E407_TTA_CombineModel.c ****      *  DataStoreRead: '<S80>/Data Store Read1'
1423:HANcoder_E407_TTA_CombineModel.c ****      */
1424:HANcoder_E407_TTA_CombineModel.c ****     if (!rtDWork.node4Active) {
1425:HANcoder_E407_TTA_CombineModel.c ****       /* Gain: '<S91>/Gain' incorporates:
1426:HANcoder_E407_TTA_CombineModel.c ****        *  DataStoreRead: '<S91>/Data Store Read'
1427:HANcoder_E407_TTA_CombineModel.c ****        *  DataStoreWrite: '<S91>/Data Store Write1'
1428:HANcoder_E407_TTA_CombineModel.c ****        */
1429:HANcoder_E407_TTA_CombineModel.c ****       rtDWork.trailerOneAngle = (uint16_T)(((uint32_T)((uint16_T)62602U) *
1430:HANcoder_E407_TTA_CombineModel.c ****         rtDWork.potentiometer2) >> 22);
1431:HANcoder_E407_TTA_CombineModel.c ****     }
1432:HANcoder_E407_TTA_CombineModel.c **** 
1433:HANcoder_E407_TTA_CombineModel.c ****     /* End of Logic: '<S80>/NOT' */
1434:HANcoder_E407_TTA_CombineModel.c ****     /* End of Outputs for SubSystem: '<S80>/Triggered Subsystem' */
1435:HANcoder_E407_TTA_CombineModel.c **** 
1436:HANcoder_E407_TTA_CombineModel.c ****     /* Outputs for Enabled SubSystem: '<S80>/Triggered Subsystem1' incorporates:
1437:HANcoder_E407_TTA_CombineModel.c ****      *  EnablePort: '<S92>/Enable'
1438:HANcoder_E407_TTA_CombineModel.c ****      */
1439:HANcoder_E407_TTA_CombineModel.c ****     /* DataStoreRead: '<S80>/Data Store Read1' */
1440:HANcoder_E407_TTA_CombineModel.c ****     if (rtDWork.node4Active) {
1441:HANcoder_E407_TTA_CombineModel.c ****       /* Gain: '<S92>/Gain' incorporates:
1442:HANcoder_E407_TTA_CombineModel.c ****        *  DataStoreRead: '<S92>/Data Store Read1'
1443:HANcoder_E407_TTA_CombineModel.c ****        *  DataStoreWrite: '<S92>/Data Store Write1'
1444:HANcoder_E407_TTA_CombineModel.c ****        */
1445:HANcoder_E407_TTA_CombineModel.c ****       rtDWork.trailerOneAngle = (uint16_T)(((uint32_T)((uint16_T)62602U) *
1446:HANcoder_E407_TTA_CombineModel.c ****         rtDWork.pot4_1) >> 22);
1447:HANcoder_E407_TTA_CombineModel.c ****     }
1448:HANcoder_E407_TTA_CombineModel.c **** 
1449:HANcoder_E407_TTA_CombineModel.c ****     /* End of Outputs for SubSystem: '<S80>/Triggered Subsystem1' */
1450:HANcoder_E407_TTA_CombineModel.c **** 
1451:HANcoder_E407_TTA_CombineModel.c ****     /* Outputs for Enabled SubSystem: '<S80>/Triggered Subsystem2' incorporates:
1452:HANcoder_E407_TTA_CombineModel.c ****      *  EnablePort: '<S93>/Enable'
1453:HANcoder_E407_TTA_CombineModel.c ****      */
1454:HANcoder_E407_TTA_CombineModel.c ****     /* Logic: '<S80>/NOT1' incorporates:
1455:HANcoder_E407_TTA_CombineModel.c ****      *  DataStoreRead: '<S80>/Data Store Read3'
1456:HANcoder_E407_TTA_CombineModel.c ****      */
1457:HANcoder_E407_TTA_CombineModel.c ****     if (!rtDWork.node5Active) {
 2866              		.loc 1 1457 8 is_stmt 0 discriminator 6 view .LVU943
 2867 0538 94F86A30 		ldrb	r3, [r4, #106]	@ zero_extendqisi2
1416:HANcoder_E407_TTA_CombineModel.c **** 
 2868              		.loc 1 1416 17 discriminator 6 view .LVU944
 2869 053c B7F5167F 		cmp	r7, #600
 2870 0540 94BF     		ite	ls
 2871 0542 0027     		movls	r7, #0
 2872 0544 0127     		movhi	r7, #1
 2873              	.LVL231:
1424:HANcoder_E407_TTA_CombineModel.c ****       /* Gain: '<S91>/Gain' incorporates:
 2874              		.loc 1 1424 5 is_stmt 1 discriminator 6 view .LVU945
 2875              		.loc 1 1457 5 discriminator 6 view .LVU946
 2876              		.loc 1 1457 8 is_stmt 0 discriminator 6 view .LVU947
 2877 0546 002B     		cmp	r3, #0
 2878 0548 40F02986 		bne	.L147
1458:HANcoder_E407_TTA_CombineModel.c ****       /* Gain: '<S93>/Gain' incorporates:
1459:HANcoder_E407_TTA_CombineModel.c ****        *  DataStoreRead: '<S93>/Data Store Read'
1460:HANcoder_E407_TTA_CombineModel.c ****        *  DataStoreWrite: '<S93>/Data Store Write1'
1461:HANcoder_E407_TTA_CombineModel.c ****        */
1462:HANcoder_E407_TTA_CombineModel.c ****       rtDWork.trailerOneAngle = (uint16_T)(((uint32_T)((uint16_T)62602U) *
 2879              		.loc 1 1462 7 is_stmt 1 view .LVU948
1463:HANcoder_E407_TTA_CombineModel.c ****         rtDWork.pot4_2) >> 22);
 2880              		.loc 1 1463 16 is_stmt 0 view .LVU949
 2881 054c B4F84430 		ldrh	r3, [r4, #68]
1462:HANcoder_E407_TTA_CombineModel.c ****         rtDWork.pot4_2) >> 22);
 2882              		.loc 1 1462 74 view .LVU950
 2883 0550 4FF28A42 		movw	r2, #62602
 2884              	.LVL232:
1462:HANcoder_E407_TTA_CombineModel.c ****         rtDWork.pot4_2) >> 22);
 2885              		.loc 1 1462 74 view .LVU951
 2886 0554 02FB03F3 		mul	r3, r2, r3
1462:HANcoder_E407_TTA_CombineModel.c ****         rtDWork.pot4_2) >> 22);
 2887              		.loc 1 1462 33 view .LVU952
 2888 0558 9B0D     		lsrs	r3, r3, #22
1464:HANcoder_E407_TTA_CombineModel.c ****     }
1465:HANcoder_E407_TTA_CombineModel.c **** 
1466:HANcoder_E407_TTA_CombineModel.c ****     /* End of Logic: '<S80>/NOT1' */
1467:HANcoder_E407_TTA_CombineModel.c ****     /* End of Outputs for SubSystem: '<S80>/Triggered Subsystem2' */
1468:HANcoder_E407_TTA_CombineModel.c **** 
1469:HANcoder_E407_TTA_CombineModel.c ****     /* Outputs for Enabled SubSystem: '<S80>/Triggered Subsystem3' incorporates:
1470:HANcoder_E407_TTA_CombineModel.c ****      *  EnablePort: '<S94>/Enable'
1471:HANcoder_E407_TTA_CombineModel.c ****      */
1472:HANcoder_E407_TTA_CombineModel.c ****     /* DataStoreRead: '<S80>/Data Store Read3' */
1473:HANcoder_E407_TTA_CombineModel.c ****     if (rtDWork.node5Active) {
 2889              		.loc 1 1473 5 is_stmt 1 view .LVU953
 2890              	.L227:
1474:HANcoder_E407_TTA_CombineModel.c ****       /* Gain: '<S94>/Gain' incorporates:
1475:HANcoder_E407_TTA_CombineModel.c ****        *  DataStoreRead: '<S94>/Data Store Read1'
1476:HANcoder_E407_TTA_CombineModel.c ****        *  DataStoreWrite: '<S94>/Data Store Write1'
1477:HANcoder_E407_TTA_CombineModel.c ****        */
1478:HANcoder_E407_TTA_CombineModel.c ****       rtDWork.trailerOneAngle = (uint16_T)(((uint32_T)((uint16_T)62602U) *
1479:HANcoder_E407_TTA_CombineModel.c ****         rtDWork.pot5_1) >> 22);
1480:HANcoder_E407_TTA_CombineModel.c ****     }
1481:HANcoder_E407_TTA_CombineModel.c **** 
1482:HANcoder_E407_TTA_CombineModel.c ****     /* End of Outputs for SubSystem: '<S80>/Triggered Subsystem3' */
1483:HANcoder_E407_TTA_CombineModel.c **** 
1484:HANcoder_E407_TTA_CombineModel.c ****     /* M-S-Function: '<S82>/Level-2 M-file S-Function' */
1485:HANcoder_E407_TTA_CombineModel.c ****     /* read from analog input for filtered inputs*/
1486:HANcoder_E407_TTA_CombineModel.c ****     analogPot1 = AninGet(ANIN_PORTF_PIN7,0);
 2891              		.loc 1 1486 18 is_stmt 0 view .LVU954
 2892 055a 0021     		movs	r1, #0
 2893              	.LVL233:
 2894              		.loc 1 1486 18 view .LVU955
 2895 055c 0420     		movs	r0, #4
 2896 055e A4F84A30 		strh	r3, [r4, #74]	@ movhi
 2897              		.loc 1 1486 5 is_stmt 1 view .LVU956
 2898              		.loc 1 1486 18 is_stmt 0 view .LVU957
 2899 0562 FFF7FEFF 		bl	AninGet
 2900              	.LVL234:
1487:HANcoder_E407_TTA_CombineModel.c **** 
1488:HANcoder_E407_TTA_CombineModel.c ****     /* DataTypeConversion: '<S78>/Cast' */
1489:HANcoder_E407_TTA_CombineModel.c ****     rtb_Cast_m = analogPot1;
1490:HANcoder_E407_TTA_CombineModel.c ****     MovingAverage(rtb_Cast_m, &rtB.MovingAverage_p, &rtDWork.MovingAverage_p);
 2901              		.loc 1 1490 5 view .LVU958
 2902 0566 07EE900A 		vmov	s15, r0	@ int
1486:HANcoder_E407_TTA_CombineModel.c **** 
 2903              		.loc 1 1486 16 view .LVU959
 2904 056a 5D4B     		ldr	r3, .L380+40
 2905              		.loc 1 1490 5 view .LVU960
 2906 056c 5D4A     		ldr	r2, .L380+44
1486:HANcoder_E407_TTA_CombineModel.c **** 
 2907              		.loc 1 1486 16 view .LVU961
 2908 056e 1880     		strh	r0, [r3]	@ movhi
1489:HANcoder_E407_TTA_CombineModel.c ****     MovingAverage(rtb_Cast_m, &rtB.MovingAverage_p, &rtDWork.MovingAverage_p);
 2909              		.loc 1 1489 5 is_stmt 1 view .LVU962
 2910              	.LVL235:
 2911              		.loc 1 1490 5 view .LVU963
 2912 0570 F8EE677A 		vcvt.f32.u32	s15, s15
 2913 0574 5C49     		ldr	r1, .L380+48
 2914 0576 17EE900A 		vmov	r0, s15
 2915              	.LVL236:
 2916              		.loc 1 1490 5 is_stmt 0 view .LVU964
 2917 057a FFF7FEFF 		bl	MovingAverage
 2918              	.LVL237:
1491:HANcoder_E407_TTA_CombineModel.c **** 
1492:HANcoder_E407_TTA_CombineModel.c ****     /* DataTypeConversion: '<S78>/Cast1' */
1493:HANcoder_E407_TTA_CombineModel.c ****     pot1 = (uint16_T)rtB.MovingAverage_p.MovingAverage_n;
 2919              		.loc 1 1493 5 is_stmt 1 view .LVU965
 2920              		.loc 1 1493 12 is_stmt 0 view .LVU966
 2921 057e D5ED357A 		vldr.32	s15, [r5, #212]
 2922              		.loc 1 1493 10 view .LVU967
 2923 0582 5A4A     		ldr	r2, .L380+52
 2924              		.loc 1 1493 12 view .LVU968
 2925 0584 FCEEE77A 		vcvt.u32.f32	s15, s15
1494:HANcoder_E407_TTA_CombineModel.c **** 
1495:HANcoder_E407_TTA_CombineModel.c ****     /* DataStoreWrite: '<S78>/Data Store Write1' */
1496:HANcoder_E407_TTA_CombineModel.c ****     rtDWork.potentiometer1 = pot1;
1497:HANcoder_E407_TTA_CombineModel.c **** 
1498:HANcoder_E407_TTA_CombineModel.c ****     /* M-S-Function: '<S83>/Level-2 M-file S-Function' */
1499:HANcoder_E407_TTA_CombineModel.c ****     /* read from analog input for filtered inputs*/
1500:HANcoder_E407_TTA_CombineModel.c ****     analogPot2 = AninGet(ANIN_PORTF_PIN8,0);
 2926              		.loc 1 1500 18 view .LVU969
 2927 0588 0021     		movs	r1, #0
1493:HANcoder_E407_TTA_CombineModel.c **** 
 2928              		.loc 1 1493 12 view .LVU970
 2929 058a 17EE903A 		vmov	r3, s15	@ int
 2930              		.loc 1 1500 18 view .LVU971
 2931 058e 0520     		movs	r0, #5
1493:HANcoder_E407_TTA_CombineModel.c **** 
 2932              		.loc 1 1493 12 view .LVU972
 2933 0590 9BB2     		uxth	r3, r3
1493:HANcoder_E407_TTA_CombineModel.c **** 
 2934              		.loc 1 1493 10 view .LVU973
 2935 0592 1380     		strh	r3, [r2]	@ movhi
1496:HANcoder_E407_TTA_CombineModel.c **** 
 2936              		.loc 1 1496 5 is_stmt 1 view .LVU974
1496:HANcoder_E407_TTA_CombineModel.c **** 
 2937              		.loc 1 1496 28 is_stmt 0 view .LVU975
 2938 0594 A387     		strh	r3, [r4, #60]	@ movhi
 2939              		.loc 1 1500 5 is_stmt 1 view .LVU976
 2940              		.loc 1 1500 18 is_stmt 0 view .LVU977
 2941 0596 FFF7FEFF 		bl	AninGet
 2942              	.LVL238:
1501:HANcoder_E407_TTA_CombineModel.c **** 
1502:HANcoder_E407_TTA_CombineModel.c ****     /* DataTypeConversion: '<S78>/Cast3' */
1503:HANcoder_E407_TTA_CombineModel.c ****     rtb_Cast3 = analogPot2;
1504:HANcoder_E407_TTA_CombineModel.c ****     MovingAverage(rtb_Cast3, &rtB.MovingAverage1, &rtDWork.MovingAverage1);
 2943              		.loc 1 1504 5 view .LVU978
 2944 059a 07EE900A 		vmov	s15, r0	@ int
1500:HANcoder_E407_TTA_CombineModel.c **** 
 2945              		.loc 1 1500 16 view .LVU979
 2946 059e 544B     		ldr	r3, .L380+56
 2947              		.loc 1 1504 5 view .LVU980
 2948 05a0 544A     		ldr	r2, .L380+60
1500:HANcoder_E407_TTA_CombineModel.c **** 
 2949              		.loc 1 1500 16 view .LVU981
 2950 05a2 1880     		strh	r0, [r3]	@ movhi
1503:HANcoder_E407_TTA_CombineModel.c ****     MovingAverage(rtb_Cast3, &rtB.MovingAverage1, &rtDWork.MovingAverage1);
 2951              		.loc 1 1503 5 is_stmt 1 view .LVU982
 2952              	.LVL239:
 2953              		.loc 1 1504 5 view .LVU983
 2954 05a4 F8EE677A 		vcvt.f32.u32	s15, s15
 2955 05a8 5349     		ldr	r1, .L380+64
 2956 05aa 17EE900A 		vmov	r0, s15
 2957              	.LVL240:
 2958              		.loc 1 1504 5 is_stmt 0 view .LVU984
 2959 05ae FFF7FEFF 		bl	MovingAverage
 2960              	.LVL241:
1505:HANcoder_E407_TTA_CombineModel.c **** 
1506:HANcoder_E407_TTA_CombineModel.c ****     /* DataTypeConversion: '<S78>/Cast2' */
1507:HANcoder_E407_TTA_CombineModel.c ****     pot2 = (uint16_T)rtB.MovingAverage1.MovingAverage_n;
 2961              		.loc 1 1507 5 is_stmt 1 view .LVU985
 2962              		.loc 1 1507 12 is_stmt 0 view .LVU986
 2963 05b2 D5ED347A 		vldr.32	s15, [r5, #208]
1508:HANcoder_E407_TTA_CombineModel.c **** 
1509:HANcoder_E407_TTA_CombineModel.c ****     /* DataStoreWrite: '<S78>/Data Store Write3' */
1510:HANcoder_E407_TTA_CombineModel.c ****     rtDWork.potentiometer2 = pot2;
1511:HANcoder_E407_TTA_CombineModel.c **** 
1512:HANcoder_E407_TTA_CombineModel.c ****     /* Gain: '<S78>/Gain' incorporates:
1513:HANcoder_E407_TTA_CombineModel.c ****      *  Constant: '<S78>/Constant2'
1514:HANcoder_E407_TTA_CombineModel.c ****      *  DataStoreWrite: '<S78>/Data Store Write2'
1515:HANcoder_E407_TTA_CombineModel.c ****      */
1516:HANcoder_E407_TTA_CombineModel.c ****     rtDWork.requestedAngle = 0.015001500150015003 * desiredAngle;
 2964              		.loc 1 1516 51 view .LVU987
 2965 05b6 514A     		ldr	r2, .L380+68
1507:HANcoder_E407_TTA_CombineModel.c **** 
 2966              		.loc 1 1507 10 view .LVU988
 2967 05b8 5149     		ldr	r1, .L380+72
1507:HANcoder_E407_TTA_CombineModel.c **** 
 2968              		.loc 1 1507 12 view .LVU989
 2969 05ba FCEEE77A 		vcvt.u32.f32	s15, s15
 2970 05be 17EE903A 		vmov	r3, s15	@ int
 2971 05c2 9BB2     		uxth	r3, r3
1507:HANcoder_E407_TTA_CombineModel.c **** 
 2972              		.loc 1 1507 10 view .LVU990
 2973 05c4 0B80     		strh	r3, [r1]	@ movhi
1510:HANcoder_E407_TTA_CombineModel.c **** 
 2974              		.loc 1 1510 5 is_stmt 1 view .LVU991
1510:HANcoder_E407_TTA_CombineModel.c **** 
 2975              		.loc 1 1510 28 is_stmt 0 view .LVU992
 2976 05c6 A4F84830 		strh	r3, [r4, #72]	@ movhi
 2977              		.loc 1 1516 5 is_stmt 1 view .LVU993
 2978              		.loc 1 1516 51 is_stmt 0 view .LVU994
 2979 05ca D2E90001 		ldrd	r0, [r2]
 2980 05ce 3CA3     		adr	r3, .L380+8
 2981 05d0 D3E90023 		ldrd	r2, [r3]
 2982 05d4 FFF7FEFF 		bl	__aeabi_dmul
 2983              	.LVL242:
1517:HANcoder_E407_TTA_CombineModel.c **** 
1518:HANcoder_E407_TTA_CombineModel.c ****     /* M-S-Function: '<S81>/Level-2 M-file S-Function' */
1519:HANcoder_E407_TTA_CombineModel.c ****     /* determine if the counter needs a reset  */
1520:HANcoder_E407_TTA_CombineModel.c ****     if (rtB.DataTypeConversion > 0) {
 2984              		.loc 1 1520 8 view .LVU995
 2985 05d8 AB7C     		ldrb	r3, [r5, #18]	@ zero_extendqisi2
1516:HANcoder_E407_TTA_CombineModel.c **** 
 2986              		.loc 1 1516 28 view .LVU996
 2987 05da C4E90C01 		strd	r0, [r4, #48]
 2988              		.loc 1 1520 5 is_stmt 1 view .LVU997
 2989              		.loc 1 1520 8 is_stmt 0 view .LVU998
 2990 05de 002B     		cmp	r3, #0
 2991 05e0 40F02586 		bne	.L356
 2992              	.L148:
1521:HANcoder_E407_TTA_CombineModel.c ****       QuadEncResetCounter(QUADENC_TIM3_PA6_PB5);
1522:HANcoder_E407_TTA_CombineModel.c ****     }
1523:HANcoder_E407_TTA_CombineModel.c **** 
1524:HANcoder_E407_TTA_CombineModel.c ****     /* read counter from the quadrature encoder module */
1525:HANcoder_E407_TTA_CombineModel.c ****     motorPos = QuadEncGetCounter(QUADENC_TIM3_PA6_PB5);
 2993              		.loc 1 1525 5 is_stmt 1 view .LVU999
 2994              		.loc 1 1525 16 is_stmt 0 view .LVU1000
 2995 05e4 0120     		movs	r0, #1
 2996 05e6 FFF7FEFF 		bl	QuadEncGetCounter
 2997              	.LVL243:
 2998              		.loc 1 1525 14 view .LVU1001
 2999 05ea 464B     		ldr	r3, .L380+76
1526:HANcoder_E407_TTA_CombineModel.c **** 
1527:HANcoder_E407_TTA_CombineModel.c ****     /* DataStoreWrite: '<S78>/Data Store Write' */
1528:HANcoder_E407_TTA_CombineModel.c ****     rtDWork.encoderPosition = motorPos;
 3000              		.loc 1 1528 29 view .LVU1002
 3001 05ec A063     		str	r0, [r4, #56]
1525:HANcoder_E407_TTA_CombineModel.c **** 
 3002              		.loc 1 1525 14 view .LVU1003
 3003 05ee 1860     		str	r0, [r3]
 3004              		.loc 1 1528 5 is_stmt 1 view .LVU1004
1529:HANcoder_E407_TTA_CombineModel.c **** 
1530:HANcoder_E407_TTA_CombineModel.c ****     /* DataTypeConversion: '<S81>/Data Type Conversion' incorporates:
1531:HANcoder_E407_TTA_CombineModel.c ****      *  RelationalOperator: '<S84>/FixPt Relational Operator'
1532:HANcoder_E407_TTA_CombineModel.c ****      *  UnitDelay: '<S84>/Delay Input1'
1533:HANcoder_E407_TTA_CombineModel.c ****      *
1534:HANcoder_E407_TTA_CombineModel.c ****      * Block description for '<S84>/Delay Input1':
1535:HANcoder_E407_TTA_CombineModel.c ****      *
1536:HANcoder_E407_TTA_CombineModel.c ****      *  Store in Global RAM
1537:HANcoder_E407_TTA_CombineModel.c ****      */
1538:HANcoder_E407_TTA_CombineModel.c ****     rtB.DataTypeConversion = (rtDWork.DelayInput1_DSTATE < 0.0);
 3005              		.loc 1 1538 5 view .LVU1005
 3006              		.loc 1 1538 58 is_stmt 0 view .LVU1006
 3007 05f0 0022     		movs	r2, #0
 3008 05f2 0023     		movs	r3, #0
 3009 05f4 D4E90001 		ldrd	r0, [r4]
 3010 05f8 FFF7FEFF 		bl	__aeabi_dcmplt
 3011              	.LVL244:
1539:HANcoder_E407_TTA_CombineModel.c **** 
1540:HANcoder_E407_TTA_CombineModel.c ****     /* Switch: '<S79>/Switch' incorporates:
1541:HANcoder_E407_TTA_CombineModel.c ****      *  Switch: '<S79>/Switch1'
1542:HANcoder_E407_TTA_CombineModel.c ****      *  Switch: '<S79>/Switch2'
1543:HANcoder_E407_TTA_CombineModel.c ****      */
1544:HANcoder_E407_TTA_CombineModel.c ****     if (canActive) {
 3012              		.loc 1 1544 9 view .LVU1007
 3013 05fc 424E     		ldr	r6, .L380+80
1538:HANcoder_E407_TTA_CombineModel.c **** 
 3014              		.loc 1 1538 58 view .LVU1008
 3015 05fe 0038     		subs	r0, r0, #0
 3016              		.loc 1 1544 8 view .LVU1009
 3017 0600 3378     		ldrb	r3, [r6]	@ zero_extendqisi2
1538:HANcoder_E407_TTA_CombineModel.c **** 
 3018              		.loc 1 1538 58 view .LVU1010
 3019 0602 18BF     		it	ne
 3020 0604 0120     		movne	r0, #1
1538:HANcoder_E407_TTA_CombineModel.c **** 
 3021              		.loc 1 1538 28 view .LVU1011
 3022 0606 A874     		strb	r0, [r5, #18]
 3023              		.loc 1 1544 5 is_stmt 1 view .LVU1012
 3024              		.loc 1 1544 8 is_stmt 0 view .LVU1013
 3025 0608 002B     		cmp	r3, #0
 3026 060a 00F0D785 		beq	.L150
1545:HANcoder_E407_TTA_CombineModel.c ****       /* Switch: '<S79>/Switch' incorporates:
1546:HANcoder_E407_TTA_CombineModel.c ****        *  DataStoreRead: '<S10>/Data Store Read'
1547:HANcoder_E407_TTA_CombineModel.c ****        */
1548:HANcoder_E407_TTA_CombineModel.c ****       rtB.Switch = rtDWork.pwmMotor;
 3027              		.loc 1 1548 7 is_stmt 1 view .LVU1014
 3028              		.loc 1 1548 18 is_stmt 0 view .LVU1015
 3029 060e E38F     		ldrh	r3, [r4, #62]
1549:HANcoder_E407_TTA_CombineModel.c **** 
1550:HANcoder_E407_TTA_CombineModel.c ****       /* Switch: '<S79>/Switch1' incorporates:
1551:HANcoder_E407_TTA_CombineModel.c ****        *  DataStoreRead: '<S10>/Data Store Read1'
1552:HANcoder_E407_TTA_CombineModel.c ****        */
1553:HANcoder_E407_TTA_CombineModel.c ****       rtB.Switch1 = rtDWork.cwMotor;
 3030              		.loc 1 1553 28 view .LVU1016
 3031 0610 94F86790 		ldrb	r9, [r4, #103]	@ zero_extendqisi2
1548:HANcoder_E407_TTA_CombineModel.c **** 
 3032              		.loc 1 1548 18 view .LVU1017
 3033 0614 2B80     		strh	r3, [r5]	@ movhi
 3034              		.loc 1 1553 7 is_stmt 1 view .LVU1018
1554:HANcoder_E407_TTA_CombineModel.c **** 
1555:HANcoder_E407_TTA_CombineModel.c ****       /* Switch: '<S79>/Switch2' incorporates:
1556:HANcoder_E407_TTA_CombineModel.c ****        *  DataStoreRead: '<S10>/Data Store Read3'
1557:HANcoder_E407_TTA_CombineModel.c ****        */
1558:HANcoder_E407_TTA_CombineModel.c ****       rtB.Switch2 = rtDWork.ccwMotor;
 3035              		.loc 1 1558 19 is_stmt 0 view .LVU1019
 3036 0616 94F86830 		ldrb	r3, [r4, #104]	@ zero_extendqisi2
1553:HANcoder_E407_TTA_CombineModel.c **** 
 3037              		.loc 1 1553 19 view .LVU1020
 3038 061a 85F81390 		strb	r9, [r5, #19]
 3039              		.loc 1 1558 7 is_stmt 1 view .LVU1021
 3040              		.loc 1 1558 19 is_stmt 0 view .LVU1022
 3041 061e 2B75     		strb	r3, [r5, #20]
 3042              	.L151:
1559:HANcoder_E407_TTA_CombineModel.c ****     } else {
1560:HANcoder_E407_TTA_CombineModel.c ****       /* Switch: '<S79>/Switch' */
1561:HANcoder_E407_TTA_CombineModel.c ****       rtB.Switch = rtConstB.Cast;
1562:HANcoder_E407_TTA_CombineModel.c **** 
1563:HANcoder_E407_TTA_CombineModel.c ****       /* Switch: '<S79>/Switch1' */
1564:HANcoder_E407_TTA_CombineModel.c ****       rtB.Switch1 = rtConstB.Cast1;
1565:HANcoder_E407_TTA_CombineModel.c **** 
1566:HANcoder_E407_TTA_CombineModel.c ****       /* Switch: '<S79>/Switch2' */
1567:HANcoder_E407_TTA_CombineModel.c ****       rtB.Switch2 = rtConstB.Cast2_p;
1568:HANcoder_E407_TTA_CombineModel.c ****     }
1569:HANcoder_E407_TTA_CombineModel.c **** 
1570:HANcoder_E407_TTA_CombineModel.c ****     /* End of Switch: '<S79>/Switch' */
1571:HANcoder_E407_TTA_CombineModel.c ****     /* RelationalOperator: '<S79>/NotEqual' incorporates:
1572:HANcoder_E407_TTA_CombineModel.c ****      *  Constant: '<S79>/Constant'
1573:HANcoder_E407_TTA_CombineModel.c ****      *  DataStoreRead: '<S1>/Data Store Read'
1574:HANcoder_E407_TTA_CombineModel.c ****      */
1575:HANcoder_E407_TTA_CombineModel.c ****     rtB.NotEqual = (rtDWork.nodeRole != ((uint8_T)1U));
 3043              		.loc 1 1575 5 is_stmt 1 view .LVU1023
 3044              		.loc 1 1575 38 is_stmt 0 view .LVU1024
 3045 0620 94F86330 		ldrb	r3, [r4, #99]	@ zero_extendqisi2
1576:HANcoder_E407_TTA_CombineModel.c **** 
1577:HANcoder_E407_TTA_CombineModel.c ****     /* Update for Delay: '<S80>/Delay' */
1578:HANcoder_E407_TTA_CombineModel.c ****     rtDWork.Delay_DSTATE[0] = rtDWork.Delay_DSTATE[1];
1579:HANcoder_E407_TTA_CombineModel.c ****     rtDWork.Delay_DSTATE[1] = rtb_Equal17;
1580:HANcoder_E407_TTA_CombineModel.c **** 
1581:HANcoder_E407_TTA_CombineModel.c ****     /* Update for Delay: '<S80>/Delay1' */
1582:HANcoder_E407_TTA_CombineModel.c ****     rtDWork.Delay1_DSTATE[0] = rtDWork.Delay1_DSTATE[1];
1583:HANcoder_E407_TTA_CombineModel.c ****     rtDWork.Delay1_DSTATE[1] = rtDWork.Delay1_DSTATE[2];
1584:HANcoder_E407_TTA_CombineModel.c ****     rtDWork.Delay1_DSTATE[2] = rtDWork.Delay1_DSTATE[3];
1585:HANcoder_E407_TTA_CombineModel.c ****     rtDWork.Delay1_DSTATE[3] = rtDWork.Delay1_DSTATE[4];
1586:HANcoder_E407_TTA_CombineModel.c ****     rtDWork.Delay1_DSTATE[4] = rtb_Equal17;
1587:HANcoder_E407_TTA_CombineModel.c **** 
1588:HANcoder_E407_TTA_CombineModel.c ****     /* Update for Delay: '<S80>/Delay2' */
1589:HANcoder_E407_TTA_CombineModel.c ****     for (idxDelay = 0; idxDelay < 9; idxDelay++) {
1590:HANcoder_E407_TTA_CombineModel.c ****       rtDWork.Delay2_DSTATE[idxDelay] = rtDWork.Delay2_DSTATE[idxDelay + 1];
 3046              		.loc 1 1590 39 view .LVU1025
 3047 0624 3949     		ldr	r1, .L380+84
1575:HANcoder_E407_TTA_CombineModel.c **** 
 3048              		.loc 1 1575 38 view .LVU1026
 3049 0626 013B     		subs	r3, r3, #1
 3050 0628 18BF     		it	ne
 3051 062a 0123     		movne	r3, #1
 3052 062c 6B75     		strb	r3, [r5, #21]
1578:HANcoder_E407_TTA_CombineModel.c ****     rtDWork.Delay_DSTATE[1] = rtb_Equal17;
 3053              		.loc 1 1578 5 is_stmt 1 view .LVU1027
1578:HANcoder_E407_TTA_CombineModel.c ****     rtDWork.Delay_DSTATE[1] = rtb_Equal17;
 3054              		.loc 1 1578 29 is_stmt 0 view .LVU1028
 3055 062e 94F85130 		ldrb	r3, [r4, #81]	@ zero_extendqisi2
 3056 0632 84F85030 		strb	r3, [r4, #80]
1579:HANcoder_E407_TTA_CombineModel.c **** 
 3057              		.loc 1 1579 5 is_stmt 1 view .LVU1029
1582:HANcoder_E407_TTA_CombineModel.c ****     rtDWork.Delay1_DSTATE[1] = rtDWork.Delay1_DSTATE[2];
 3058              		.loc 1 1582 30 is_stmt 0 view .LVU1030
 3059 0636 94F85330 		ldrb	r3, [r4, #83]	@ zero_extendqisi2
 3060 063a 84F85230 		strb	r3, [r4, #82]
1583:HANcoder_E407_TTA_CombineModel.c ****     rtDWork.Delay1_DSTATE[2] = rtDWork.Delay1_DSTATE[3];
 3061              		.loc 1 1583 30 view .LVU1031
 3062 063e 94F85430 		ldrb	r3, [r4, #84]	@ zero_extendqisi2
 3063 0642 84F85330 		strb	r3, [r4, #83]
1584:HANcoder_E407_TTA_CombineModel.c ****     rtDWork.Delay1_DSTATE[3] = rtDWork.Delay1_DSTATE[4];
 3064              		.loc 1 1584 30 view .LVU1032
 3065 0646 94F85530 		ldrb	r3, [r4, #85]	@ zero_extendqisi2
 3066 064a 84F85430 		strb	r3, [r4, #84]
 3067              		.loc 1 1590 39 view .LVU1033
 3068 064e 0922     		movs	r2, #9
1585:HANcoder_E407_TTA_CombineModel.c ****     rtDWork.Delay1_DSTATE[4] = rtb_Equal17;
 3069              		.loc 1 1585 30 view .LVU1034
 3070 0650 94F85630 		ldrb	r3, [r4, #86]	@ zero_extendqisi2
 3071 0654 84F85530 		strb	r3, [r4, #85]
 3072              		.loc 1 1590 39 view .LVU1035
 3073 0658 481E     		subs	r0, r1, #1
1579:HANcoder_E407_TTA_CombineModel.c **** 
 3074              		.loc 1 1579 29 view .LVU1036
 3075 065a 84F85170 		strb	r7, [r4, #81]
1582:HANcoder_E407_TTA_CombineModel.c ****     rtDWork.Delay1_DSTATE[1] = rtDWork.Delay1_DSTATE[2];
 3076              		.loc 1 1582 5 is_stmt 1 view .LVU1037
1583:HANcoder_E407_TTA_CombineModel.c ****     rtDWork.Delay1_DSTATE[2] = rtDWork.Delay1_DSTATE[3];
 3077              		.loc 1 1583 5 view .LVU1038
1584:HANcoder_E407_TTA_CombineModel.c ****     rtDWork.Delay1_DSTATE[3] = rtDWork.Delay1_DSTATE[4];
 3078              		.loc 1 1584 5 view .LVU1039
1585:HANcoder_E407_TTA_CombineModel.c ****     rtDWork.Delay1_DSTATE[4] = rtb_Equal17;
 3079              		.loc 1 1585 5 view .LVU1040
1586:HANcoder_E407_TTA_CombineModel.c **** 
 3080              		.loc 1 1586 5 view .LVU1041
1586:HANcoder_E407_TTA_CombineModel.c **** 
 3081              		.loc 1 1586 30 is_stmt 0 view .LVU1042
 3082 065e 84F85670 		strb	r7, [r4, #86]
1589:HANcoder_E407_TTA_CombineModel.c ****       rtDWork.Delay2_DSTATE[idxDelay] = rtDWork.Delay2_DSTATE[idxDelay + 1];
 3083              		.loc 1 1589 5 is_stmt 1 view .LVU1043
 3084              	.LVL245:
1589:HANcoder_E407_TTA_CombineModel.c ****       rtDWork.Delay2_DSTATE[idxDelay] = rtDWork.Delay2_DSTATE[idxDelay + 1];
 3085              		.loc 1 1589 24 view .LVU1044
 3086              		.loc 1 1590 39 is_stmt 0 view .LVU1045
 3087 0662 FFF7FEFF 		bl	memmove
 3088              	.LVL246:
1591:HANcoder_E407_TTA_CombineModel.c ****     }
1592:HANcoder_E407_TTA_CombineModel.c **** 
1593:HANcoder_E407_TTA_CombineModel.c ****     rtDWork.Delay2_DSTATE[9] = rtb_Equal17;
 3089              		.loc 1 1593 5 is_stmt 1 view .LVU1046
1594:HANcoder_E407_TTA_CombineModel.c **** 
1595:HANcoder_E407_TTA_CombineModel.c ****     /* End of Update for Delay: '<S80>/Delay2' */
1596:HANcoder_E407_TTA_CombineModel.c **** 
1597:HANcoder_E407_TTA_CombineModel.c ****     /* Update for Memory: '<S90>/Memory' */
1598:HANcoder_E407_TTA_CombineModel.c ****     rtDWork.Memory_PreviousInput = rtb_Logic_idx_0;
1599:HANcoder_E407_TTA_CombineModel.c **** 
1600:HANcoder_E407_TTA_CombineModel.c ****     /* Update for UnitDelay: '<S84>/Delay Input1'
1601:HANcoder_E407_TTA_CombineModel.c ****      *
1602:HANcoder_E407_TTA_CombineModel.c ****      * Block description for '<S84>/Delay Input1':
1603:HANcoder_E407_TTA_CombineModel.c ****      *
1604:HANcoder_E407_TTA_CombineModel.c ****      *  Store in Global RAM
1605:HANcoder_E407_TTA_CombineModel.c ****      */
1606:HANcoder_E407_TTA_CombineModel.c ****     rtDWork.DelayInput1_DSTATE = 0.0;
 3090              		.loc 1 1606 32 is_stmt 0 view .LVU1047
 3091 0666 0022     		movs	r2, #0
 3092 0668 0023     		movs	r3, #0
 3093 066a C4E90023 		strd	r2, [r4]
1593:HANcoder_E407_TTA_CombineModel.c **** 
 3094              		.loc 1 1593 30 view .LVU1048
 3095 066e 84F86070 		strb	r7, [r4, #96]
1598:HANcoder_E407_TTA_CombineModel.c **** 
 3096              		.loc 1 1598 5 is_stmt 1 view .LVU1049
1598:HANcoder_E407_TTA_CombineModel.c **** 
 3097              		.loc 1 1598 34 is_stmt 0 view .LVU1050
 3098 0672 84F86D80 		strb	r8, [r4, #109]
 3099              		.loc 1 1606 5 is_stmt 1 view .LVU1051
1607:HANcoder_E407_TTA_CombineModel.c **** 
1608:HANcoder_E407_TTA_CombineModel.c ****     /* Update for M-S-Function: '<S85>/Level-2 M-file S-Function' */
1609:HANcoder_E407_TTA_CombineModel.c ****     /* update digital output */
1610:HANcoder_E407_TTA_CombineModel.c ****     if (rtB.Switch1 == 0) {
 3100              		.loc 1 1610 5 view .LVU1052
 3101              		.loc 1 1610 8 is_stmt 0 view .LVU1053
 3102 0676 B9F1000F 		cmp	r9, #0
 3103 067a 40F09985 		bne	.L152
1611:HANcoder_E407_TTA_CombineModel.c ****       DigoutSet(DIGOUT_PORTE_PIN5, DIGOUT_LOW);
 3104              		.loc 1 1611 7 is_stmt 1 view .LVU1054
 3105 067e 4946     		mov	r1, r9
 3106 0680 0A20     		movs	r0, #10
 3107 0682 FFF7FEFF 		bl	DigoutSet
 3108              	.LVL247:
 3109              	.L153:
1612:HANcoder_E407_TTA_CombineModel.c ****     } else {
1613:HANcoder_E407_TTA_CombineModel.c ****       DigoutSet(DIGOUT_PORTE_PIN5, DIGOUT_HIGH);
1614:HANcoder_E407_TTA_CombineModel.c ****     }
1615:HANcoder_E407_TTA_CombineModel.c **** 
1616:HANcoder_E407_TTA_CombineModel.c ****     /* Update for M-S-Function: '<S86>/Level-2 M-file S-Function' */
1617:HANcoder_E407_TTA_CombineModel.c ****     /* update digital output */
1618:HANcoder_E407_TTA_CombineModel.c ****     if (rtB.Switch2 == 0) {
 3110              		.loc 1 1618 5 view .LVU1055
 3111              		.loc 1 1618 8 is_stmt 0 view .LVU1056
 3112 0686 297D     		ldrb	r1, [r5, #20]	@ zero_extendqisi2
 3113 0688 01B1     		cbz	r1, .L343
1619:HANcoder_E407_TTA_CombineModel.c ****       DigoutSet(DIGOUT_PORTE_PIN6, DIGOUT_LOW);
1620:HANcoder_E407_TTA_CombineModel.c ****     } else {
1621:HANcoder_E407_TTA_CombineModel.c ****       DigoutSet(DIGOUT_PORTE_PIN6, DIGOUT_HIGH);
 3114              		.loc 1 1621 7 is_stmt 1 view .LVU1057
 3115 068a 0121     		movs	r1, #1
 3116              	.L343:
 3117 068c 0B20     		movs	r0, #11
 3118 068e FFF7FEFF 		bl	DigoutSet
 3119              	.LVL248:
1622:HANcoder_E407_TTA_CombineModel.c ****     }
1623:HANcoder_E407_TTA_CombineModel.c **** 
1624:HANcoder_E407_TTA_CombineModel.c ****     /* Update for M-S-Function: '<S88>/Level-2 M-file S-Function' */
1625:HANcoder_E407_TTA_CombineModel.c ****     /* set the new duty cycle */
1626:HANcoder_E407_TTA_CombineModel.c ****     PwmoutSet(PWMOUT_TIM14_PIN_PF9, rtB.Switch);
 3120              		.loc 1 1626 5 view .LVU1058
 3121 0692 2988     		ldrh	r1, [r5]
 3122 0694 1020     		movs	r0, #16
 3123 0696 FFF7FEFF 		bl	PwmoutSet
 3124              	.LVL249:
1627:HANcoder_E407_TTA_CombineModel.c **** 
1628:HANcoder_E407_TTA_CombineModel.c ****     /* Update for M-S-Function: '<S87>/Level-2 M-file S-Function' */
1629:HANcoder_E407_TTA_CombineModel.c ****     /* update digital output */
1630:HANcoder_E407_TTA_CombineModel.c ****     if (rtB.NotEqual == 0) {
 3125              		.loc 1 1630 5 view .LVU1059
 3126              		.loc 1 1630 8 is_stmt 0 view .LVU1060
 3127 069a 697D     		ldrb	r1, [r5, #21]	@ zero_extendqisi2
 3128 069c 01B1     		cbz	r1, .L345
1631:HANcoder_E407_TTA_CombineModel.c ****       DigoutSet(DIGOUT_PORTC_PIN13, DIGOUT_LOW);
1632:HANcoder_E407_TTA_CombineModel.c ****     } else {
1633:HANcoder_E407_TTA_CombineModel.c ****       DigoutSet(DIGOUT_PORTC_PIN13, DIGOUT_HIGH);
 3129              		.loc 1 1633 7 is_stmt 1 view .LVU1061
 3130 069e 0121     		movs	r1, #1
 3131              	.L345:
 3132 06a0 4720     		movs	r0, #71
 3133 06a2 FFF7FEFF 		bl	DigoutSet
 3134              	.LVL250:
1125:HANcoder_E407_TTA_CombineModel.c **** 
 3135              		.loc 1 1125 11 is_stmt 0 view .LVU1062
 3136 06a6 0123     		movs	r3, #1
1634:HANcoder_E407_TTA_CombineModel.c ****     }
1635:HANcoder_E407_TTA_CombineModel.c ****   }
1636:HANcoder_E407_TTA_CombineModel.c **** 
1637:HANcoder_E407_TTA_CombineModel.c ****   /* Outputs for Triggered SubSystem: '<S1>/Control execution' incorporates:
1638:HANcoder_E407_TTA_CombineModel.c ****    *  TriggerPort: '<S5>/Trigger'
1639:HANcoder_E407_TTA_CombineModel.c ****    */
1640:HANcoder_E407_TTA_CombineModel.c ****   rtPrevZCSigState.IOexecution_Trig_ZCE = rtb_OR1;
 3137              		.loc 1 1640 3 is_stmt 1 view .LVU1063
 3138              		.loc 1 1640 41 is_stmt 0 view .LVU1064
 3139 06a8 8AF80B30 		strb	r3, [r10, #11]
1641:HANcoder_E407_TTA_CombineModel.c **** 
1642:HANcoder_E407_TTA_CombineModel.c ****   /* End of Outputs for SubSystem: '<S1>/Control execution' */
1643:HANcoder_E407_TTA_CombineModel.c ****   /* End of Outputs for SubSystem: '<S1>/IO execution' */
1644:HANcoder_E407_TTA_CombineModel.c **** 
1645:HANcoder_E407_TTA_CombineModel.c ****   /* Outputs for Enabled SubSystem: '<S1>/Message selector' incorporates:
1646:HANcoder_E407_TTA_CombineModel.c ****    *  EnablePort: '<S13>/Enable'
1647:HANcoder_E407_TTA_CombineModel.c ****    *
1648:HANcoder_E407_TTA_CombineModel.c ****    * Block description for '<S1>/Message selector':
1649:HANcoder_E407_TTA_CombineModel.c ****    *  Truck 1
1650:HANcoder_E407_TTA_CombineModel.c ****    */
1651:HANcoder_E407_TTA_CombineModel.c ****   if (canActive) {
 3140              		.loc 1 1651 3 is_stmt 1 view .LVU1065
 3141              		.loc 1 1651 6 is_stmt 0 view .LVU1066
 3142 06ac 3378     		ldrb	r3, [r6]	@ zero_extendqisi2
 3143 06ae 002B     		cmp	r3, #0
 3144 06b0 40F0BA80 		bne	.L357
 3145 06b4 2EE0     		b	.L381
 3146              	.L382:
 3147 06b6 00BF     		.align	3
 3148              	.L380:
 3149 06b8 00000000 		.word	0
 3150 06bc 00C07240 		.word	1081262080
 3151 06c0 00000040 		.word	1073741824
 3152 06c4 1BB98E3F 		.word	1066318107
 3153 06c8 00000000 		.word	.LANCHOR22
 3154 06cc 00000000 		.word	.LANCHOR21
 3155 06d0 00000000 		.word	.LANCHOR23
 3156 06d4 00000000 		.word	.LANCHOR24
 3157 06d8 00000000 		.word	.LANCHOR25
 3158 06dc 00000000 		.word	rtConstP
 3159 06e0 00000000 		.word	.LANCHOR26
 3160 06e4 F0000000 		.word	.LANCHOR2+240
 3161 06e8 D4000000 		.word	.LANCHOR0+212
 3162 06ec 00000000 		.word	.LANCHOR27
 3163 06f0 00000000 		.word	.LANCHOR28
 3164 06f4 7C000000 		.word	.LANCHOR2+124
 3165 06f8 D0000000 		.word	.LANCHOR0+208
 3166 06fc 00000000 		.word	.LANCHOR30
 3167 0700 00000000 		.word	.LANCHOR29
 3168 0704 00000000 		.word	.LANCHOR31
 3169 0708 00000000 		.word	.LANCHOR1
 3170 070c 58000000 		.word	.LANCHOR2+88
 3171 0710 00005940 		.word	1079574528
 3172              	.L381:
 3173              	.LVL251:
 3174              	.L158:
1652:HANcoder_E407_TTA_CombineModel.c ****     rtDWork.Messageselector_MODE = true;
1653:HANcoder_E407_TTA_CombineModel.c **** 
1654:HANcoder_E407_TTA_CombineModel.c ****     /* M-S-Function: '<S9>/Level-2 M-file S-Function' incorporates:
1655:HANcoder_E407_TTA_CombineModel.c ****      *  Constant: '<S13>/Constant1'
1656:HANcoder_E407_TTA_CombineModel.c ****      *  RelationalOperator: '<S13>/Equal1'
1657:HANcoder_E407_TTA_CombineModel.c ****      */
1658:HANcoder_E407_TTA_CombineModel.c ****     rtb_Level2MfileSFunction_j = (slotSelected == 2.0);
1659:HANcoder_E407_TTA_CombineModel.c **** 
1660:HANcoder_E407_TTA_CombineModel.c ****     /* RelationalOperator: '<S13>/Equal11' incorporates:
1661:HANcoder_E407_TTA_CombineModel.c ****      *  Constant: '<S13>/Constant13'
1662:HANcoder_E407_TTA_CombineModel.c ****      *  DataStoreRead: '<S1>/Data Store Read'
1663:HANcoder_E407_TTA_CombineModel.c ****      */
1664:HANcoder_E407_TTA_CombineModel.c ****     rtb_OR1 = (rtDWork.nodeRole == 1.0);
1665:HANcoder_E407_TTA_CombineModel.c **** 
1666:HANcoder_E407_TTA_CombineModel.c ****     /* Logic: '<S13>/AND3' incorporates:
1667:HANcoder_E407_TTA_CombineModel.c ****      *  Logic: '<S13>/NOT1'
1668:HANcoder_E407_TTA_CombineModel.c ****      */
1669:HANcoder_E407_TTA_CombineModel.c ****     AND3 = (rtb_Level2MfileSFunction_j && (!rtb_OR1));
1670:HANcoder_E407_TTA_CombineModel.c **** 
1671:HANcoder_E407_TTA_CombineModel.c ****     /* Outputs for Enabled SubSystem: '<S13>/MMBS1_RX' */
1672:HANcoder_E407_TTA_CombineModel.c ****     /* Constant: '<S13>/Constant12' */
1673:HANcoder_E407_TTA_CombineModel.c ****     MMBS1_RX(AND3, MMBS1_ID, &rtB.MMBS1_RX_j, &rtDWork.MMBS1_RX_j);
1674:HANcoder_E407_TTA_CombineModel.c **** 
1675:HANcoder_E407_TTA_CombineModel.c ****     /* End of Outputs for SubSystem: '<S13>/MMBS1_RX' */
1676:HANcoder_E407_TTA_CombineModel.c **** 
1677:HANcoder_E407_TTA_CombineModel.c ****     /* Logic: '<S13>/AND2' */
1678:HANcoder_E407_TTA_CombineModel.c ****     rtb_AND2 = (rtb_Level2MfileSFunction_j && rtb_OR1);
1679:HANcoder_E407_TTA_CombineModel.c **** 
1680:HANcoder_E407_TTA_CombineModel.c ****     /* Outputs for Triggered SubSystem: '<S13>/MMBS1_TX' */
1681:HANcoder_E407_TTA_CombineModel.c ****     /* Constant: '<S13>/Constant12' */
1682:HANcoder_E407_TTA_CombineModel.c ****     MMBS1_TX(rtb_AND2, MMBS1_ID, &rtPrevZCSigState.MMBS1_TX_a);
1683:HANcoder_E407_TTA_CombineModel.c **** 
1684:HANcoder_E407_TTA_CombineModel.c ****     /* End of Outputs for SubSystem: '<S13>/MMBS1_TX' */
1685:HANcoder_E407_TTA_CombineModel.c **** 
1686:HANcoder_E407_TTA_CombineModel.c ****     /* M-S-Function: '<S9>/Level-2 M-file S-Function' incorporates:
1687:HANcoder_E407_TTA_CombineModel.c ****      *  Constant: '<S13>/Constant2'
1688:HANcoder_E407_TTA_CombineModel.c ****      *  RelationalOperator: '<S13>/Equal2'
1689:HANcoder_E407_TTA_CombineModel.c ****      */
1690:HANcoder_E407_TTA_CombineModel.c ****     rtb_Level2MfileSFunction_j = (slotSelected == 3.0);
1691:HANcoder_E407_TTA_CombineModel.c **** 
1692:HANcoder_E407_TTA_CombineModel.c ****     /* RelationalOperator: '<S13>/Equal12' incorporates:
1693:HANcoder_E407_TTA_CombineModel.c ****      *  Constant: '<S13>/Constant15'
1694:HANcoder_E407_TTA_CombineModel.c ****      *  DataStoreRead: '<S1>/Data Store Read'
1695:HANcoder_E407_TTA_CombineModel.c ****      */
1696:HANcoder_E407_TTA_CombineModel.c ****     rtb_OR1 = (rtDWork.nodeRole == 1.0);
1697:HANcoder_E407_TTA_CombineModel.c **** 
1698:HANcoder_E407_TTA_CombineModel.c ****     /* Logic: '<S13>/AND5' incorporates:
1699:HANcoder_E407_TTA_CombineModel.c ****      *  Logic: '<S13>/NOT2'
1700:HANcoder_E407_TTA_CombineModel.c ****      */
1701:HANcoder_E407_TTA_CombineModel.c ****     AND5 = (rtb_Level2MfileSFunction_j && (!rtb_OR1));
1702:HANcoder_E407_TTA_CombineModel.c **** 
1703:HANcoder_E407_TTA_CombineModel.c ****     /* Outputs for Enabled SubSystem: '<S13>/SSTM1_RX' */
1704:HANcoder_E407_TTA_CombineModel.c ****     /* Constant: '<S13>/Constant14' */
1705:HANcoder_E407_TTA_CombineModel.c ****     MMBS1_RX(AND5, SSTM1_ID, &rtB.SSTM1_RX, &rtDWork.SSTM1_RX);
1706:HANcoder_E407_TTA_CombineModel.c **** 
1707:HANcoder_E407_TTA_CombineModel.c ****     /* End of Outputs for SubSystem: '<S13>/SSTM1_RX' */
1708:HANcoder_E407_TTA_CombineModel.c **** 
1709:HANcoder_E407_TTA_CombineModel.c ****     /* Logic: '<S13>/AND4' */
1710:HANcoder_E407_TTA_CombineModel.c ****     rtb_AND4 = (rtb_Level2MfileSFunction_j && rtb_OR1);
1711:HANcoder_E407_TTA_CombineModel.c **** 
1712:HANcoder_E407_TTA_CombineModel.c ****     /* Outputs for Triggered SubSystem: '<S13>/SSTM1_TX' */
1713:HANcoder_E407_TTA_CombineModel.c ****     /* Constant: '<S13>/Constant14' */
1714:HANcoder_E407_TTA_CombineModel.c ****     MMBS1_TX(rtb_AND4, SSTM1_ID, &rtPrevZCSigState.SSTM1_TX);
1715:HANcoder_E407_TTA_CombineModel.c **** 
1716:HANcoder_E407_TTA_CombineModel.c ****     /* End of Outputs for SubSystem: '<S13>/SSTM1_TX' */
1717:HANcoder_E407_TTA_CombineModel.c **** 
1718:HANcoder_E407_TTA_CombineModel.c ****     /* M-S-Function: '<S9>/Level-2 M-file S-Function' incorporates:
1719:HANcoder_E407_TTA_CombineModel.c ****      *  Constant: '<S13>/Constant'
1720:HANcoder_E407_TTA_CombineModel.c ****      *  RelationalOperator: '<S13>/Equal'
1721:HANcoder_E407_TTA_CombineModel.c ****      */
1722:HANcoder_E407_TTA_CombineModel.c ****     rtb_Level2MfileSFunction_j = (slotSelected == ((uint8_T)1U));
1723:HANcoder_E407_TTA_CombineModel.c **** 
1724:HANcoder_E407_TTA_CombineModel.c ****     /* RelationalOperator: '<S13>/Equal10' incorporates:
1725:HANcoder_E407_TTA_CombineModel.c ****      *  Constant: '<S13>/Constant11'
1726:HANcoder_E407_TTA_CombineModel.c ****      *  DataStoreRead: '<S1>/Data Store Read'
1727:HANcoder_E407_TTA_CombineModel.c ****      */
1728:HANcoder_E407_TTA_CombineModel.c ****     rtb_OR1 = (rtDWork.nodeRole == ((uint8_T)1U));
1729:HANcoder_E407_TTA_CombineModel.c **** 
1730:HANcoder_E407_TTA_CombineModel.c ****     /* Logic: '<S13>/AND1' incorporates:
1731:HANcoder_E407_TTA_CombineModel.c ****      *  Logic: '<S13>/NOT'
1732:HANcoder_E407_TTA_CombineModel.c ****      */
1733:HANcoder_E407_TTA_CombineModel.c ****     rtb_AND1_k = (rtb_Level2MfileSFunction_j && (!rtb_OR1));
1734:HANcoder_E407_TTA_CombineModel.c **** 
1735:HANcoder_E407_TTA_CombineModel.c ****     /* Outputs for Enabled SubSystem: '<S13>/SYNC1_RX' incorporates:
1736:HANcoder_E407_TTA_CombineModel.c ****      *  EnablePort: '<S103>/Enable'
1737:HANcoder_E407_TTA_CombineModel.c ****      */
1738:HANcoder_E407_TTA_CombineModel.c ****     if (rtb_AND1_k) {
1739:HANcoder_E407_TTA_CombineModel.c ****       rtDWork.SYNC1_RX_MODE = true;
1740:HANcoder_E407_TTA_CombineModel.c **** 
1741:HANcoder_E407_TTA_CombineModel.c ****       /* M-S-Function: '<S121>/S-Function' incorporates:
1742:HANcoder_E407_TTA_CombineModel.c ****        *  Constant: '<S13>/Constant10'
1743:HANcoder_E407_TTA_CombineModel.c ****        */
1744:HANcoder_E407_TTA_CombineModel.c **** 
1745:HANcoder_E407_TTA_CombineModel.c ****       /* read the message data and store the new parameter */
1746:HANcoder_E407_TTA_CombineModel.c ****       rtb_SFunction_o1_h = CanIoGetMessage(0, SYNC1_ID, NULL,
1747:HANcoder_E407_TTA_CombineModel.c ****         &canRxData_0_SYNC1_ID.uint8_T_info[0], NULL);
1748:HANcoder_E407_TTA_CombineModel.c **** 
1749:HANcoder_E407_TTA_CombineModel.c ****       /* process the message data */
1750:HANcoder_E407_TTA_CombineModel.c ****       if (rtb_SFunction_o1_h > 0) {
1751:HANcoder_E407_TTA_CombineModel.c ****         /* read the data */
1752:HANcoder_E407_TTA_CombineModel.c ****         rtb_SFunction_o2_ib = canRxData_0_SYNC1_ID.uint8_T_info[0];
1753:HANcoder_E407_TTA_CombineModel.c ****         rtb_SFunction_o3_g = canRxData_0_SYNC1_ID.uint8_T_info[1];
1754:HANcoder_E407_TTA_CombineModel.c ****         rtb_SFunction_o4_j = canRxData_0_SYNC1_ID.uint8_T_info[2];
1755:HANcoder_E407_TTA_CombineModel.c ****         rtb_SFunction_o5_f = canRxData_0_SYNC1_ID.uint8_T_info[3];
1756:HANcoder_E407_TTA_CombineModel.c ****         rtb_SFunction_o6_gy = canRxData_0_SYNC1_ID.uint8_T_info[4];
1757:HANcoder_E407_TTA_CombineModel.c ****         rtb_SFunction_o7_k = canRxData_0_SYNC1_ID.uint8_T_info[5];
1758:HANcoder_E407_TTA_CombineModel.c ****         rtb_SFunction_o8_n = canRxData_0_SYNC1_ID.uint8_T_info[6];
1759:HANcoder_E407_TTA_CombineModel.c ****         rtb_SFunction_o9_b1 = canRxData_0_SYNC1_ID.uint8_T_info[7];
1760:HANcoder_E407_TTA_CombineModel.c ****       }
1761:HANcoder_E407_TTA_CombineModel.c **** 
1762:HANcoder_E407_TTA_CombineModel.c ****       /* Outputs for Enabled SubSystem: '<S121>/Enabled Subsystem' */
1763:HANcoder_E407_TTA_CombineModel.c ****       EnabledSubsystem(rtb_SFunction_o1_h, rtb_SFunction_o2_ib,
1764:HANcoder_E407_TTA_CombineModel.c ****                        rtb_SFunction_o3_g, rtb_SFunction_o4_j,
1765:HANcoder_E407_TTA_CombineModel.c ****                        rtb_SFunction_o5_f, rtb_SFunction_o6_gy,
1766:HANcoder_E407_TTA_CombineModel.c ****                        rtb_SFunction_o7_k, rtb_SFunction_o8_n,
1767:HANcoder_E407_TTA_CombineModel.c ****                        rtb_SFunction_o9_b1, &rtB.EnabledSubsystem_c);
1768:HANcoder_E407_TTA_CombineModel.c **** 
1769:HANcoder_E407_TTA_CombineModel.c ****       /* End of Outputs for SubSystem: '<S121>/Enabled Subsystem' */
1770:HANcoder_E407_TTA_CombineModel.c **** 
1771:HANcoder_E407_TTA_CombineModel.c ****       /* Outputs for Triggered SubSystem: '<S103>/Subsystem' incorporates:
1772:HANcoder_E407_TTA_CombineModel.c ****        *  TriggerPort: '<S122>/Trigger'
1773:HANcoder_E407_TTA_CombineModel.c ****        */
1774:HANcoder_E407_TTA_CombineModel.c ****       zcEvent = rt_I32ZCFcn(RISING_ZERO_CROSSING,
1775:HANcoder_E407_TTA_CombineModel.c ****                             &rtPrevZCSigState.Subsystem_Trig_ZCE_h,
1776:HANcoder_E407_TTA_CombineModel.c ****                             (rtb_SFunction_o1_h));
1777:HANcoder_E407_TTA_CombineModel.c ****       if (zcEvent != NO_ZCEVENT) {
1778:HANcoder_E407_TTA_CombineModel.c ****         /* DataStoreWrite: '<S122>/Data Store Write' */
1779:HANcoder_E407_TTA_CombineModel.c ****         rtDWork.SlotTime = rtB.EnabledSubsystem_c.In1;
1780:HANcoder_E407_TTA_CombineModel.c **** 
1781:HANcoder_E407_TTA_CombineModel.c ****         /* DataStoreWrite: '<S122>/Data Store Write1' incorporates:
1782:HANcoder_E407_TTA_CombineModel.c ****          *  Constant: '<S122>/Constant'
1783:HANcoder_E407_TTA_CombineModel.c ****          */
1784:HANcoder_E407_TTA_CombineModel.c ****         rtDWork.Local_Ticks = ((uint8_T)1U);
1785:HANcoder_E407_TTA_CombineModel.c **** 
1786:HANcoder_E407_TTA_CombineModel.c ****         /* DataStoreWrite: '<S122>/Data Store Write2' incorporates:
1787:HANcoder_E407_TTA_CombineModel.c ****          *  Constant: '<S122>/Constant1'
1788:HANcoder_E407_TTA_CombineModel.c ****          */
1789:HANcoder_E407_TTA_CombineModel.c ****         rtDWork.slot = ((uint8_T)1U);
1790:HANcoder_E407_TTA_CombineModel.c ****       }
1791:HANcoder_E407_TTA_CombineModel.c **** 
1792:HANcoder_E407_TTA_CombineModel.c ****       /* End of Outputs for SubSystem: '<S103>/Subsystem' */
1793:HANcoder_E407_TTA_CombineModel.c ****     } else if (rtDWork.SYNC1_RX_MODE) {
1794:HANcoder_E407_TTA_CombineModel.c ****       rtDWork.SYNC1_RX_MODE = false;
1795:HANcoder_E407_TTA_CombineModel.c ****     }
1796:HANcoder_E407_TTA_CombineModel.c **** 
1797:HANcoder_E407_TTA_CombineModel.c ****     /* End of Outputs for SubSystem: '<S13>/SYNC1_RX' */
1798:HANcoder_E407_TTA_CombineModel.c **** 
1799:HANcoder_E407_TTA_CombineModel.c ****     /* Logic: '<S13>/AND' */
1800:HANcoder_E407_TTA_CombineModel.c ****     boolCan = (rtb_Level2MfileSFunction_j && rtb_OR1);
1801:HANcoder_E407_TTA_CombineModel.c **** 
1802:HANcoder_E407_TTA_CombineModel.c ****     /* Outputs for Triggered SubSystem: '<S13>/SYNC1_TX' incorporates:
1803:HANcoder_E407_TTA_CombineModel.c ****      *  TriggerPort: '<S104>/Trigger'
1804:HANcoder_E407_TTA_CombineModel.c ****      */
1805:HANcoder_E407_TTA_CombineModel.c ****     if (boolCan && (rtPrevZCSigState.SYNC1_TX_Trig_ZCE != POS_ZCSIG)) {
1806:HANcoder_E407_TTA_CombineModel.c ****       /* DataStoreRead: '<S104>/Data Store Read1' */
1807:HANcoder_E407_TTA_CombineModel.c ****       testCounter = rtDWork.testCount;
1808:HANcoder_E407_TTA_CombineModel.c **** 
1809:HANcoder_E407_TTA_CombineModel.c ****       /* Sum: '<S104>/Add' incorporates:
1810:HANcoder_E407_TTA_CombineModel.c ****        *  Constant: '<S104>/Constant7'
1811:HANcoder_E407_TTA_CombineModel.c ****        *  DataStoreWrite: '<S104>/Data Store Write'
1812:HANcoder_E407_TTA_CombineModel.c ****        */
1813:HANcoder_E407_TTA_CombineModel.c ****       rtDWork.testCount = (uint16_T)((uint32_T)testCounter + ((uint16_T)1U));
1814:HANcoder_E407_TTA_CombineModel.c **** 
1815:HANcoder_E407_TTA_CombineModel.c ****       /* DataStoreRead: '<S104>/Data Store Read' */
1816:HANcoder_E407_TTA_CombineModel.c ****       rtB.DataStoreRead = rtDWork.SlotTime;
1817:HANcoder_E407_TTA_CombineModel.c **** 
1818:HANcoder_E407_TTA_CombineModel.c ****       /* Update for M-S-Function: '<S124>/S-Function' incorporates:
1819:HANcoder_E407_TTA_CombineModel.c ****        *  Constant: '<S104>/Constant'
1820:HANcoder_E407_TTA_CombineModel.c ****        *  Constant: '<S104>/Constant1'
1821:HANcoder_E407_TTA_CombineModel.c ****        *  Constant: '<S104>/Constant2'
1822:HANcoder_E407_TTA_CombineModel.c ****        *  Constant: '<S104>/Constant3'
1823:HANcoder_E407_TTA_CombineModel.c ****        *  Constant: '<S104>/Constant4'
1824:HANcoder_E407_TTA_CombineModel.c ****        *  Constant: '<S104>/Constant5'
1825:HANcoder_E407_TTA_CombineModel.c ****        *  Constant: '<S104>/Constant6'
1826:HANcoder_E407_TTA_CombineModel.c ****        *  Constant: '<S13>/Constant10'
1827:HANcoder_E407_TTA_CombineModel.c ****        */
1828:HANcoder_E407_TTA_CombineModel.c ****       {
1829:HANcoder_E407_TTA_CombineModel.c ****         /* prepare the data */
1830:HANcoder_E407_TTA_CombineModel.c ****         canTxData.uint8_T_info[0] = rtB.DataStoreRead;
1831:HANcoder_E407_TTA_CombineModel.c ****         canTxData.uint8_T_info[1] = ((uint8_T)1U);
1832:HANcoder_E407_TTA_CombineModel.c ****         canTxData.uint8_T_info[2] = ((uint8_T)0U);
1833:HANcoder_E407_TTA_CombineModel.c ****         canTxData.uint8_T_info[3] = ((uint8_T)0U);
1834:HANcoder_E407_TTA_CombineModel.c ****         canTxData.uint8_T_info[4] = ((uint8_T)0U);
1835:HANcoder_E407_TTA_CombineModel.c ****         canTxData.uint8_T_info[5] = ((uint8_T)0U);
1836:HANcoder_E407_TTA_CombineModel.c ****         canTxData.uint8_T_info[6] = ((uint8_T)0U);
1837:HANcoder_E407_TTA_CombineModel.c ****         canTxData.uint8_T_info[7] = ((uint8_T)1U);
1838:HANcoder_E407_TTA_CombineModel.c **** 
1839:HANcoder_E407_TTA_CombineModel.c ****         /* send the data */
1840:HANcoder_E407_TTA_CombineModel.c ****         CanTransmit(0, SYNC1_ID, 8, &canTxData.uint8_T_info[0]);
1841:HANcoder_E407_TTA_CombineModel.c ****       }
1842:HANcoder_E407_TTA_CombineModel.c ****     }
1843:HANcoder_E407_TTA_CombineModel.c **** 
1844:HANcoder_E407_TTA_CombineModel.c ****     rtPrevZCSigState.SYNC1_TX_Trig_ZCE = boolCan;
1845:HANcoder_E407_TTA_CombineModel.c **** 
1846:HANcoder_E407_TTA_CombineModel.c ****     /* End of Outputs for SubSystem: '<S13>/SYNC1_TX' */
1847:HANcoder_E407_TTA_CombineModel.c **** 
1848:HANcoder_E407_TTA_CombineModel.c ****     /* M-S-Function: '<S9>/Level-2 M-file S-Function' incorporates:
1849:HANcoder_E407_TTA_CombineModel.c ****      *  Constant: '<S13>/Constant7'
1850:HANcoder_E407_TTA_CombineModel.c ****      *  RelationalOperator: '<S13>/Equal6'
1851:HANcoder_E407_TTA_CombineModel.c ****      */
1852:HANcoder_E407_TTA_CombineModel.c ****     rtb_Level2MfileSFunction_j = (slotSelected == 6.0);
1853:HANcoder_E407_TTA_CombineModel.c **** 
1854:HANcoder_E407_TTA_CombineModel.c ****     /* RelationalOperator: '<S13>/Equal5' incorporates:
1855:HANcoder_E407_TTA_CombineModel.c ****      *  Constant: '<S13>/Constant6'
1856:HANcoder_E407_TTA_CombineModel.c ****      *  DataStoreRead: '<S1>/Data Store Read'
1857:HANcoder_E407_TTA_CombineModel.c ****      */
1858:HANcoder_E407_TTA_CombineModel.c ****     rtb_OR1 = (rtDWork.nodeRole == 2.0);
1859:HANcoder_E407_TTA_CombineModel.c **** 
1860:HANcoder_E407_TTA_CombineModel.c ****     /* Logic: '<S13>/AND9' incorporates:
1861:HANcoder_E407_TTA_CombineModel.c ****      *  Logic: '<S13>/NOT4'
1862:HANcoder_E407_TTA_CombineModel.c ****      */
1863:HANcoder_E407_TTA_CombineModel.c ****     rtb_AND9 = (rtb_Level2MfileSFunction_j && (!rtb_OR1));
1864:HANcoder_E407_TTA_CombineModel.c **** 
1865:HANcoder_E407_TTA_CombineModel.c ****     /* Outputs for Enabled SubSystem: '<S13>/TRCK1_ID2_RX' incorporates:
1866:HANcoder_E407_TTA_CombineModel.c ****      *  EnablePort: '<S105>/Enable'
1867:HANcoder_E407_TTA_CombineModel.c ****      */
1868:HANcoder_E407_TTA_CombineModel.c ****     if (rtb_AND9) {
1869:HANcoder_E407_TTA_CombineModel.c ****       rtDWork.TRCK1_ID2_RX_MODE = true;
1870:HANcoder_E407_TTA_CombineModel.c **** 
1871:HANcoder_E407_TTA_CombineModel.c ****       /* M-S-Function: '<S127>/S-Function' incorporates:
1872:HANcoder_E407_TTA_CombineModel.c ****        *  Constant: '<S13>/Constant5'
1873:HANcoder_E407_TTA_CombineModel.c ****        */
1874:HANcoder_E407_TTA_CombineModel.c **** 
1875:HANcoder_E407_TTA_CombineModel.c ****       /* read the message data and store the new parameter */
1876:HANcoder_E407_TTA_CombineModel.c ****       rtb_SFunction_o1_p = CanIoGetMessage(0, TRCK1_ID2, NULL,
1877:HANcoder_E407_TTA_CombineModel.c ****         &canRxData_0_TRCK1_ID2.uint8_T_info[0], NULL);
1878:HANcoder_E407_TTA_CombineModel.c **** 
1879:HANcoder_E407_TTA_CombineModel.c ****       /* process the message data */
1880:HANcoder_E407_TTA_CombineModel.c ****       if (rtb_SFunction_o1_p > 0) {
1881:HANcoder_E407_TTA_CombineModel.c ****         /* read the data */
1882:HANcoder_E407_TTA_CombineModel.c ****         rtb_SFunction_o2_n = canRxData_0_TRCK1_ID2.uint8_T_info[0];
1883:HANcoder_E407_TTA_CombineModel.c ****         rtb_SFunction_o3_l = canRxData_0_TRCK1_ID2.uint8_T_info[1];
1884:HANcoder_E407_TTA_CombineModel.c ****         rtb_SFunction_o4_m = canRxData_0_TRCK1_ID2.uint8_T_info[2];
1885:HANcoder_E407_TTA_CombineModel.c ****         rtb_SFunction_o5_i = canRxData_0_TRCK1_ID2.uint8_T_info[3];
1886:HANcoder_E407_TTA_CombineModel.c ****         rtb_SFunction_o6_o = canRxData_0_TRCK1_ID2.uint8_T_info[4];
1887:HANcoder_E407_TTA_CombineModel.c ****         rtb_SFunction_o7_j = canRxData_0_TRCK1_ID2.uint8_T_info[5];
1888:HANcoder_E407_TTA_CombineModel.c ****         rtb_SFunction_o8_d = canRxData_0_TRCK1_ID2.uint8_T_info[6];
1889:HANcoder_E407_TTA_CombineModel.c ****         rtb_SFunction_o9_lv = canRxData_0_TRCK1_ID2.uint8_T_info[7];
1890:HANcoder_E407_TTA_CombineModel.c ****       }
1891:HANcoder_E407_TTA_CombineModel.c **** 
1892:HANcoder_E407_TTA_CombineModel.c ****       /* Outputs for Enabled SubSystem: '<S127>/Enabled Subsystem' */
1893:HANcoder_E407_TTA_CombineModel.c ****       EnabledSubsystem(rtb_SFunction_o1_p, rtb_SFunction_o2_n,
1894:HANcoder_E407_TTA_CombineModel.c ****                        rtb_SFunction_o3_l, rtb_SFunction_o4_m,
1895:HANcoder_E407_TTA_CombineModel.c ****                        rtb_SFunction_o5_i, rtb_SFunction_o6_o,
1896:HANcoder_E407_TTA_CombineModel.c ****                        rtb_SFunction_o7_j, rtb_SFunction_o8_d,
1897:HANcoder_E407_TTA_CombineModel.c ****                        rtb_SFunction_o9_lv, &rtB.EnabledSubsystem_b);
1898:HANcoder_E407_TTA_CombineModel.c **** 
1899:HANcoder_E407_TTA_CombineModel.c ****       /* End of Outputs for SubSystem: '<S127>/Enabled Subsystem' */
1900:HANcoder_E407_TTA_CombineModel.c **** 
1901:HANcoder_E407_TTA_CombineModel.c ****       /* DataTypeConversion: '<S126>/Cast' */
1902:HANcoder_E407_TTA_CombineModel.c ****       rtb_Cast_i = rtB.EnabledSubsystem_b.In1;
1903:HANcoder_E407_TTA_CombineModel.c **** 
1904:HANcoder_E407_TTA_CombineModel.c ****       /* Outputs for Atomic SubSystem: '<S126>/Bit Shift' */
1905:HANcoder_E407_TTA_CombineModel.c ****       BitShift(rtb_Cast_i, &rtB.BitShift_gvk);
1906:HANcoder_E407_TTA_CombineModel.c **** 
1907:HANcoder_E407_TTA_CombineModel.c ****       /* End of Outputs for SubSystem: '<S126>/Bit Shift' */
1908:HANcoder_E407_TTA_CombineModel.c **** 
1909:HANcoder_E407_TTA_CombineModel.c ****       /* Sum: '<S126>/Add' incorporates:
1910:HANcoder_E407_TTA_CombineModel.c ****        *  DataTypeConversion: '<S126>/Cast1'
1911:HANcoder_E407_TTA_CombineModel.c ****        */
1912:HANcoder_E407_TTA_CombineModel.c ****       pot21 = (uint16_T)((uint32_T)rtB.BitShift_gvk.y +
1913:HANcoder_E407_TTA_CombineModel.c ****                          rtB.EnabledSubsystem_b.In2);
1914:HANcoder_E407_TTA_CombineModel.c **** 
1915:HANcoder_E407_TTA_CombineModel.c ****       /* DataTypeConversion: '<S125>/Cast' */
1916:HANcoder_E407_TTA_CombineModel.c ****       rtb_Cast_b0 = rtB.EnabledSubsystem_b.In3;
1917:HANcoder_E407_TTA_CombineModel.c **** 
1918:HANcoder_E407_TTA_CombineModel.c ****       /* Outputs for Atomic SubSystem: '<S125>/Bit Shift' */
1919:HANcoder_E407_TTA_CombineModel.c ****       BitShift(rtb_Cast_b0, &rtB.BitShift_gv);
1920:HANcoder_E407_TTA_CombineModel.c **** 
1921:HANcoder_E407_TTA_CombineModel.c ****       /* End of Outputs for SubSystem: '<S125>/Bit Shift' */
1922:HANcoder_E407_TTA_CombineModel.c **** 
1923:HANcoder_E407_TTA_CombineModel.c ****       /* Sum: '<S125>/Add' incorporates:
1924:HANcoder_E407_TTA_CombineModel.c ****        *  DataTypeConversion: '<S125>/Cast1'
1925:HANcoder_E407_TTA_CombineModel.c ****        */
1926:HANcoder_E407_TTA_CombineModel.c ****       pot22 = (uint16_T)((uint32_T)rtB.BitShift_gv.y +
1927:HANcoder_E407_TTA_CombineModel.c ****                          rtB.EnabledSubsystem_b.In4);
1928:HANcoder_E407_TTA_CombineModel.c **** 
1929:HANcoder_E407_TTA_CombineModel.c ****       /* Outputs for Atomic SubSystem: '<S128>/Bit Shift' */
1930:HANcoder_E407_TTA_CombineModel.c ****       BitShift_g(rtB.EnabledSubsystem_b.In7, &rtB.BitShift_gy3);
1931:HANcoder_E407_TTA_CombineModel.c **** 
1932:HANcoder_E407_TTA_CombineModel.c ****       /* End of Outputs for SubSystem: '<S128>/Bit Shift' */
1933:HANcoder_E407_TTA_CombineModel.c **** 
1934:HANcoder_E407_TTA_CombineModel.c ****       /* Outputs for Atomic SubSystem: '<S128>/Bit Shift1' */
1935:HANcoder_E407_TTA_CombineModel.c ****       BitShift1(rtB.EnabledSubsystem_b.In7, &rtB.BitShift1_g);
1936:HANcoder_E407_TTA_CombineModel.c **** 
1937:HANcoder_E407_TTA_CombineModel.c ****       /* End of Outputs for SubSystem: '<S128>/Bit Shift1' */
1938:HANcoder_E407_TTA_CombineModel.c **** 
1939:HANcoder_E407_TTA_CombineModel.c ****       /* Outputs for Atomic SubSystem: '<S128>/Bit Shift2' */
1940:HANcoder_E407_TTA_CombineModel.c ****       BitShift2(rtB.EnabledSubsystem_b.In7, &rtB.BitShift2_i);
1941:HANcoder_E407_TTA_CombineModel.c **** 
1942:HANcoder_E407_TTA_CombineModel.c ****       /* End of Outputs for SubSystem: '<S128>/Bit Shift2' */
1943:HANcoder_E407_TTA_CombineModel.c **** 
1944:HANcoder_E407_TTA_CombineModel.c ****       /* Outputs for Atomic SubSystem: '<S128>/Bit Shift3' */
1945:HANcoder_E407_TTA_CombineModel.c ****       BitShift3(rtB.EnabledSubsystem_b.In7, &rtB.BitShift3_c);
1946:HANcoder_E407_TTA_CombineModel.c **** 
1947:HANcoder_E407_TTA_CombineModel.c ****       /* End of Outputs for SubSystem: '<S128>/Bit Shift3' */
1948:HANcoder_E407_TTA_CombineModel.c **** 
1949:HANcoder_E407_TTA_CombineModel.c ****       /* Outputs for Atomic SubSystem: '<S128>/Bit Shift4' */
1950:HANcoder_E407_TTA_CombineModel.c ****       BitShift4(rtB.EnabledSubsystem_b.In7, &rtB.BitShift4_e);
1951:HANcoder_E407_TTA_CombineModel.c **** 
1952:HANcoder_E407_TTA_CombineModel.c ****       /* End of Outputs for SubSystem: '<S128>/Bit Shift4' */
1953:HANcoder_E407_TTA_CombineModel.c **** 
1954:HANcoder_E407_TTA_CombineModel.c ****       /* Outputs for Atomic SubSystem: '<S128>/Bit Shift5' */
1955:HANcoder_E407_TTA_CombineModel.c ****       BitShift5(rtB.EnabledSubsystem_b.In7, &rtB.BitShift5_b);
1956:HANcoder_E407_TTA_CombineModel.c **** 
1957:HANcoder_E407_TTA_CombineModel.c ****       /* End of Outputs for SubSystem: '<S128>/Bit Shift5' */
1958:HANcoder_E407_TTA_CombineModel.c **** 
1959:HANcoder_E407_TTA_CombineModel.c ****       /* Outputs for Atomic SubSystem: '<S128>/Bit Shift6' */
1960:HANcoder_E407_TTA_CombineModel.c ****       BitShift6(rtB.EnabledSubsystem_b.In7, &rtB.BitShift6_o);
1961:HANcoder_E407_TTA_CombineModel.c **** 
1962:HANcoder_E407_TTA_CombineModel.c ****       /* End of Outputs for SubSystem: '<S128>/Bit Shift6' */
1963:HANcoder_E407_TTA_CombineModel.c **** 
1964:HANcoder_E407_TTA_CombineModel.c ****       /* Outputs for Atomic SubSystem: '<S128>/Bit Shift7' */
1965:HANcoder_E407_TTA_CombineModel.c ****       BitShift_g(rtB.EnabledSubsystem_b.In7, &rtB.BitShift7);
1966:HANcoder_E407_TTA_CombineModel.c **** 
1967:HANcoder_E407_TTA_CombineModel.c ****       /* End of Outputs for SubSystem: '<S128>/Bit Shift7' */
1968:HANcoder_E407_TTA_CombineModel.c ****     } else if (rtDWork.TRCK1_ID2_RX_MODE) {
1969:HANcoder_E407_TTA_CombineModel.c ****       rtDWork.TRCK1_ID2_RX_MODE = false;
1970:HANcoder_E407_TTA_CombineModel.c ****     }
1971:HANcoder_E407_TTA_CombineModel.c **** 
1972:HANcoder_E407_TTA_CombineModel.c ****     /* End of Outputs for SubSystem: '<S13>/TRCK1_ID2_RX' */
1973:HANcoder_E407_TTA_CombineModel.c **** 
1974:HANcoder_E407_TTA_CombineModel.c ****     /* Logic: '<S13>/AND8' */
1975:HANcoder_E407_TTA_CombineModel.c ****     rtb_AND8 = (rtb_Level2MfileSFunction_j && rtb_OR1);
1976:HANcoder_E407_TTA_CombineModel.c **** 
1977:HANcoder_E407_TTA_CombineModel.c ****     /* Outputs for Triggered SubSystem: '<S13>/TRCK1_ID2_TX' */
1978:HANcoder_E407_TTA_CombineModel.c ****     /* Constant: '<S13>/Constant5' */
1979:HANcoder_E407_TTA_CombineModel.c ****     TRCK1_ID2_TX(rtb_AND8, TRCK1_ID2, &rtDWork.Local_Ticks, &rtDWork.motorFailed,
1980:HANcoder_E407_TTA_CombineModel.c ****                  &rtDWork.potFault, &rtDWork.potentiometer1,
1981:HANcoder_E407_TTA_CombineModel.c ****                  &rtDWork.potentiometer2, &rtB.TRCK1_ID2_TX_f,
1982:HANcoder_E407_TTA_CombineModel.c ****                  &rtConstB.TRCK1_ID2_TX_f, &rtPrevZCSigState.TRCK1_ID2_TX_f);
1983:HANcoder_E407_TTA_CombineModel.c **** 
1984:HANcoder_E407_TTA_CombineModel.c ****     /* End of Outputs for SubSystem: '<S13>/TRCK1_ID2_TX' */
1985:HANcoder_E407_TTA_CombineModel.c **** 
1986:HANcoder_E407_TTA_CombineModel.c ****     /* M-S-Function: '<S9>/Level-2 M-file S-Function' incorporates:
1987:HANcoder_E407_TTA_CombineModel.c ****      *  Constant: '<S13>/Constant20'
1988:HANcoder_E407_TTA_CombineModel.c ****      *  RelationalOperator: '<S13>/Equal14'
1989:HANcoder_E407_TTA_CombineModel.c ****      */
1990:HANcoder_E407_TTA_CombineModel.c ****     rtb_Level2MfileSFunction_j = (slotSelected == 7.0);
1991:HANcoder_E407_TTA_CombineModel.c **** 
1992:HANcoder_E407_TTA_CombineModel.c ****     /* RelationalOperator: '<S13>/Equal7' incorporates:
1993:HANcoder_E407_TTA_CombineModel.c ****      *  Constant: '<S13>/Constant19'
1994:HANcoder_E407_TTA_CombineModel.c ****      *  DataStoreRead: '<S1>/Data Store Read'
1995:HANcoder_E407_TTA_CombineModel.c ****      */
1996:HANcoder_E407_TTA_CombineModel.c ****     rtb_OR1 = (rtDWork.nodeRole == 3.0);
1997:HANcoder_E407_TTA_CombineModel.c **** 
1998:HANcoder_E407_TTA_CombineModel.c ****     /* Logic: '<S13>/AND10' */
1999:HANcoder_E407_TTA_CombineModel.c ****     rtb_AND10 = (rtb_Level2MfileSFunction_j && rtb_OR1);
2000:HANcoder_E407_TTA_CombineModel.c **** 
2001:HANcoder_E407_TTA_CombineModel.c ****     /* Outputs for Triggered SubSystem: '<S13>/TRCK1_ID3_TX' */
2002:HANcoder_E407_TTA_CombineModel.c ****     /* Constant: '<S13>/Constant26' */
2003:HANcoder_E407_TTA_CombineModel.c ****     TRCK1_ID2_TX(rtb_AND10, TRCK1_ID3, &rtDWork.Local_Ticks,
2004:HANcoder_E407_TTA_CombineModel.c ****                  &rtDWork.motorFailed, &rtDWork.potFault,
2005:HANcoder_E407_TTA_CombineModel.c ****                  &rtDWork.potentiometer1, &rtDWork.potentiometer2,
2006:HANcoder_E407_TTA_CombineModel.c ****                  &rtB.TRCK1_ID3_TX, &rtConstB.TRCK1_ID3_TX,
2007:HANcoder_E407_TTA_CombineModel.c ****                  &rtPrevZCSigState.TRCK1_ID3_TX);
2008:HANcoder_E407_TTA_CombineModel.c **** 
2009:HANcoder_E407_TTA_CombineModel.c ****     /* End of Outputs for SubSystem: '<S13>/TRCK1_ID3_TX' */
2010:HANcoder_E407_TTA_CombineModel.c **** 
2011:HANcoder_E407_TTA_CombineModel.c ****     /* RelationalOperator: '<S13>/Equal13' incorporates:
2012:HANcoder_E407_TTA_CombineModel.c ****      *  Constant: '<S13>/Constant17'
2013:HANcoder_E407_TTA_CombineModel.c ****      */
2014:HANcoder_E407_TTA_CombineModel.c ****     rtb_Logic_idx_0 = (slotSelected == 4.0);
2015:HANcoder_E407_TTA_CombineModel.c **** 
2016:HANcoder_E407_TTA_CombineModel.c ****     /* RelationalOperator: '<S13>/Equal3' incorporates:
2017:HANcoder_E407_TTA_CombineModel.c ****      *  Constant: '<S13>/Constant16'
2018:HANcoder_E407_TTA_CombineModel.c ****      *  DataStoreRead: '<S1>/Data Store Read'
2019:HANcoder_E407_TTA_CombineModel.c ****      */
2020:HANcoder_E407_TTA_CombineModel.c ****     rtb_Equal17 = (rtDWork.nodeRole == 1.0);
2021:HANcoder_E407_TTA_CombineModel.c **** 
2022:HANcoder_E407_TTA_CombineModel.c ****     /* Logic: '<S13>/AND7' incorporates:
2023:HANcoder_E407_TTA_CombineModel.c ****      *  Logic: '<S13>/NOT3'
2024:HANcoder_E407_TTA_CombineModel.c ****      */
2025:HANcoder_E407_TTA_CombineModel.c ****     rtb_AND7 = (rtb_Logic_idx_0 && (!rtb_Equal17));
2026:HANcoder_E407_TTA_CombineModel.c **** 
2027:HANcoder_E407_TTA_CombineModel.c ****     /* Outputs for Enabled SubSystem: '<S13>/TRCK1_RX' incorporates:
2028:HANcoder_E407_TTA_CombineModel.c ****      *  EnablePort: '<S108>/Enable'
2029:HANcoder_E407_TTA_CombineModel.c ****      */
2030:HANcoder_E407_TTA_CombineModel.c ****     if (rtb_AND7) {
2031:HANcoder_E407_TTA_CombineModel.c ****       rtDWork.TRCK1_RX_MODE = true;
2032:HANcoder_E407_TTA_CombineModel.c **** 
2033:HANcoder_E407_TTA_CombineModel.c ****       /* M-S-Function: '<S196>/S-Function' incorporates:
2034:HANcoder_E407_TTA_CombineModel.c ****        *  Constant: '<S13>/Constant3'
2035:HANcoder_E407_TTA_CombineModel.c ****        */
2036:HANcoder_E407_TTA_CombineModel.c **** 
2037:HANcoder_E407_TTA_CombineModel.c ****       /* read the message data and store the new parameter */
2038:HANcoder_E407_TTA_CombineModel.c ****       rtb_SFunction_o1_ns = CanIoGetMessage(0, TRCK1_ID1, NULL,
2039:HANcoder_E407_TTA_CombineModel.c ****         &canRxData_0_TRCK1_ID1.uint8_T_info[0], NULL);
2040:HANcoder_E407_TTA_CombineModel.c **** 
2041:HANcoder_E407_TTA_CombineModel.c ****       /* process the message data */
2042:HANcoder_E407_TTA_CombineModel.c ****       if (rtb_SFunction_o1_ns > 0) {
2043:HANcoder_E407_TTA_CombineModel.c ****         /* read the data */
2044:HANcoder_E407_TTA_CombineModel.c ****         rtb_SFunction_o2_i = canRxData_0_TRCK1_ID1.uint8_T_info[0];
2045:HANcoder_E407_TTA_CombineModel.c ****         rtb_SFunction_o3_i = canRxData_0_TRCK1_ID1.uint8_T_info[1];
2046:HANcoder_E407_TTA_CombineModel.c ****         rtb_SFunction_o4_n = canRxData_0_TRCK1_ID1.uint8_T_info[2];
2047:HANcoder_E407_TTA_CombineModel.c ****         rtb_SFunction_o5_p = canRxData_0_TRCK1_ID1.uint8_T_info[3];
2048:HANcoder_E407_TTA_CombineModel.c ****         rtb_SFunction_o6_g = canRxData_0_TRCK1_ID1.uint8_T_info[4];
2049:HANcoder_E407_TTA_CombineModel.c ****         rtb_SFunction_o7_fg = canRxData_0_TRCK1_ID1.uint8_T_info[5];
2050:HANcoder_E407_TTA_CombineModel.c ****         rtb_SFunction_o8_i = canRxData_0_TRCK1_ID1.uint8_T_info[6];
2051:HANcoder_E407_TTA_CombineModel.c ****         rtb_SFunction_o9_o = canRxData_0_TRCK1_ID1.uint8_T_info[7];
2052:HANcoder_E407_TTA_CombineModel.c ****       }
2053:HANcoder_E407_TTA_CombineModel.c **** 
2054:HANcoder_E407_TTA_CombineModel.c ****       /* Outputs for Enabled SubSystem: '<S196>/Enabled Subsystem' */
2055:HANcoder_E407_TTA_CombineModel.c ****       EnabledSubsystem(rtb_SFunction_o1_ns, rtb_SFunction_o2_i,
2056:HANcoder_E407_TTA_CombineModel.c ****                        rtb_SFunction_o3_i, rtb_SFunction_o4_n,
2057:HANcoder_E407_TTA_CombineModel.c ****                        rtb_SFunction_o5_p, rtb_SFunction_o6_g,
2058:HANcoder_E407_TTA_CombineModel.c ****                        rtb_SFunction_o7_fg, rtb_SFunction_o8_i,
2059:HANcoder_E407_TTA_CombineModel.c ****                        rtb_SFunction_o9_o, &rtB.EnabledSubsystem_h);
2060:HANcoder_E407_TTA_CombineModel.c **** 
2061:HANcoder_E407_TTA_CombineModel.c ****       /* End of Outputs for SubSystem: '<S196>/Enabled Subsystem' */
2062:HANcoder_E407_TTA_CombineModel.c **** 
2063:HANcoder_E407_TTA_CombineModel.c ****       /* DataTypeConversion: '<S195>/Cast' */
2064:HANcoder_E407_TTA_CombineModel.c ****       rtb_Cast_ci = rtB.EnabledSubsystem_h.In1;
2065:HANcoder_E407_TTA_CombineModel.c **** 
2066:HANcoder_E407_TTA_CombineModel.c ****       /* Outputs for Atomic SubSystem: '<S195>/Bit Shift' */
2067:HANcoder_E407_TTA_CombineModel.c ****       BitShift(rtb_Cast_ci, &rtB.BitShift_j);
2068:HANcoder_E407_TTA_CombineModel.c **** 
2069:HANcoder_E407_TTA_CombineModel.c ****       /* End of Outputs for SubSystem: '<S195>/Bit Shift' */
2070:HANcoder_E407_TTA_CombineModel.c **** 
2071:HANcoder_E407_TTA_CombineModel.c ****       /* Sum: '<S195>/Add' incorporates:
2072:HANcoder_E407_TTA_CombineModel.c ****        *  DataTypeConversion: '<S195>/Cast1'
2073:HANcoder_E407_TTA_CombineModel.c ****        */
2074:HANcoder_E407_TTA_CombineModel.c ****       pot11 = (uint16_T)((uint32_T)rtB.BitShift_j.y + rtB.EnabledSubsystem_h.In2);
2075:HANcoder_E407_TTA_CombineModel.c **** 
2076:HANcoder_E407_TTA_CombineModel.c ****       /* DataTypeConversion: '<S194>/Cast' */
2077:HANcoder_E407_TTA_CombineModel.c ****       rtb_Cast_o = rtB.EnabledSubsystem_h.In3;
2078:HANcoder_E407_TTA_CombineModel.c **** 
2079:HANcoder_E407_TTA_CombineModel.c ****       /* Outputs for Atomic SubSystem: '<S194>/Bit Shift' */
2080:HANcoder_E407_TTA_CombineModel.c ****       BitShift(rtb_Cast_o, &rtB.BitShift_k);
2081:HANcoder_E407_TTA_CombineModel.c **** 
2082:HANcoder_E407_TTA_CombineModel.c ****       /* End of Outputs for SubSystem: '<S194>/Bit Shift' */
2083:HANcoder_E407_TTA_CombineModel.c **** 
2084:HANcoder_E407_TTA_CombineModel.c ****       /* Sum: '<S194>/Add' incorporates:
2085:HANcoder_E407_TTA_CombineModel.c ****        *  DataTypeConversion: '<S194>/Cast1'
2086:HANcoder_E407_TTA_CombineModel.c ****        */
2087:HANcoder_E407_TTA_CombineModel.c ****       pot12 = (uint16_T)((uint32_T)rtB.BitShift_k.y + rtB.EnabledSubsystem_h.In4);
2088:HANcoder_E407_TTA_CombineModel.c **** 
2089:HANcoder_E407_TTA_CombineModel.c ****       /* Outputs for Atomic SubSystem: '<S197>/Bit Shift' */
2090:HANcoder_E407_TTA_CombineModel.c ****       BitShift_g(rtB.EnabledSubsystem_h.In7, &rtB.BitShift_c);
2091:HANcoder_E407_TTA_CombineModel.c **** 
2092:HANcoder_E407_TTA_CombineModel.c ****       /* End of Outputs for SubSystem: '<S197>/Bit Shift' */
2093:HANcoder_E407_TTA_CombineModel.c **** 
2094:HANcoder_E407_TTA_CombineModel.c ****       /* Outputs for Atomic SubSystem: '<S197>/Bit Shift1' */
2095:HANcoder_E407_TTA_CombineModel.c ****       BitShift1(rtB.EnabledSubsystem_h.In7, &rtB.BitShift1_l);
2096:HANcoder_E407_TTA_CombineModel.c **** 
2097:HANcoder_E407_TTA_CombineModel.c ****       /* End of Outputs for SubSystem: '<S197>/Bit Shift1' */
2098:HANcoder_E407_TTA_CombineModel.c **** 
2099:HANcoder_E407_TTA_CombineModel.c ****       /* Outputs for Atomic SubSystem: '<S197>/Bit Shift2' */
2100:HANcoder_E407_TTA_CombineModel.c ****       BitShift2(rtB.EnabledSubsystem_h.In7, &rtB.BitShift2_c);
2101:HANcoder_E407_TTA_CombineModel.c **** 
2102:HANcoder_E407_TTA_CombineModel.c ****       /* End of Outputs for SubSystem: '<S197>/Bit Shift2' */
2103:HANcoder_E407_TTA_CombineModel.c **** 
2104:HANcoder_E407_TTA_CombineModel.c ****       /* Outputs for Atomic SubSystem: '<S197>/Bit Shift3' */
2105:HANcoder_E407_TTA_CombineModel.c ****       BitShift3(rtB.EnabledSubsystem_h.In7, &rtB.BitShift3_lj);
2106:HANcoder_E407_TTA_CombineModel.c **** 
2107:HANcoder_E407_TTA_CombineModel.c ****       /* End of Outputs for SubSystem: '<S197>/Bit Shift3' */
2108:HANcoder_E407_TTA_CombineModel.c **** 
2109:HANcoder_E407_TTA_CombineModel.c ****       /* Outputs for Atomic SubSystem: '<S197>/Bit Shift4' */
2110:HANcoder_E407_TTA_CombineModel.c ****       BitShift4(rtB.EnabledSubsystem_h.In7, &rtB.BitShift4_a);
2111:HANcoder_E407_TTA_CombineModel.c **** 
2112:HANcoder_E407_TTA_CombineModel.c ****       /* End of Outputs for SubSystem: '<S197>/Bit Shift4' */
2113:HANcoder_E407_TTA_CombineModel.c **** 
2114:HANcoder_E407_TTA_CombineModel.c ****       /* Outputs for Atomic SubSystem: '<S197>/Bit Shift5' */
2115:HANcoder_E407_TTA_CombineModel.c ****       BitShift5(rtB.EnabledSubsystem_h.In7, &rtB.BitShift5_bs);
2116:HANcoder_E407_TTA_CombineModel.c **** 
2117:HANcoder_E407_TTA_CombineModel.c ****       /* End of Outputs for SubSystem: '<S197>/Bit Shift5' */
2118:HANcoder_E407_TTA_CombineModel.c **** 
2119:HANcoder_E407_TTA_CombineModel.c ****       /* Outputs for Atomic SubSystem: '<S197>/Bit Shift6' */
2120:HANcoder_E407_TTA_CombineModel.c ****       BitShift6(rtB.EnabledSubsystem_h.In7, &rtB.BitShift6_i);
2121:HANcoder_E407_TTA_CombineModel.c **** 
2122:HANcoder_E407_TTA_CombineModel.c ****       /* End of Outputs for SubSystem: '<S197>/Bit Shift6' */
2123:HANcoder_E407_TTA_CombineModel.c **** 
2124:HANcoder_E407_TTA_CombineModel.c ****       /* Outputs for Atomic SubSystem: '<S197>/Bit Shift7' */
2125:HANcoder_E407_TTA_CombineModel.c ****       BitShift_g(rtB.EnabledSubsystem_h.In7, &rtB.BitShift7_e);
2126:HANcoder_E407_TTA_CombineModel.c **** 
2127:HANcoder_E407_TTA_CombineModel.c ****       /* End of Outputs for SubSystem: '<S197>/Bit Shift7' */
2128:HANcoder_E407_TTA_CombineModel.c ****     } else if (rtDWork.TRCK1_RX_MODE) {
2129:HANcoder_E407_TTA_CombineModel.c ****       rtDWork.TRCK1_RX_MODE = false;
2130:HANcoder_E407_TTA_CombineModel.c ****     }
2131:HANcoder_E407_TTA_CombineModel.c **** 
2132:HANcoder_E407_TTA_CombineModel.c ****     /* End of Outputs for SubSystem: '<S13>/TRCK1_RX' */
2133:HANcoder_E407_TTA_CombineModel.c **** 
2134:HANcoder_E407_TTA_CombineModel.c ****     /* Logic: '<S13>/AND6' */
2135:HANcoder_E407_TTA_CombineModel.c ****     rtb_AND6 = (rtb_Logic_idx_0 && rtb_Equal17);
2136:HANcoder_E407_TTA_CombineModel.c **** 
2137:HANcoder_E407_TTA_CombineModel.c ****     /* Outputs for Triggered SubSystem: '<S13>/TRCK1_TX' */
2138:HANcoder_E407_TTA_CombineModel.c ****     /* Constant: '<S13>/Constant3' */
2139:HANcoder_E407_TTA_CombineModel.c ****     TRCK1_ID2_TX(rtb_AND6, TRCK1_ID1, &rtDWork.Local_Ticks, &rtDWork.motorFailed,
2140:HANcoder_E407_TTA_CombineModel.c ****                  &rtDWork.potFault, &rtDWork.potentiometer1,
2141:HANcoder_E407_TTA_CombineModel.c ****                  &rtDWork.potentiometer2, &rtB.TRCK1_TX, &rtConstB.TRCK1_TX,
2142:HANcoder_E407_TTA_CombineModel.c ****                  &rtPrevZCSigState.TRCK1_TX);
2143:HANcoder_E407_TTA_CombineModel.c **** 
2144:HANcoder_E407_TTA_CombineModel.c ****     /* End of Outputs for SubSystem: '<S13>/TRCK1_TX' */
2145:HANcoder_E407_TTA_CombineModel.c **** 
2146:HANcoder_E407_TTA_CombineModel.c ****     /* Outputs for Enabled SubSystem: '<S13>/TRCK_ID3_RX' incorporates:
2147:HANcoder_E407_TTA_CombineModel.c ****      *  EnablePort: '<S110>/Enable'
2148:HANcoder_E407_TTA_CombineModel.c ****      */
2149:HANcoder_E407_TTA_CombineModel.c ****     /* Logic: '<S13>/AND11' incorporates:
2150:HANcoder_E407_TTA_CombineModel.c ****      *  Logic: '<S13>/NOT5'
2151:HANcoder_E407_TTA_CombineModel.c ****      */
2152:HANcoder_E407_TTA_CombineModel.c ****     if (rtb_Level2MfileSFunction_j && (!rtb_OR1)) {
2153:HANcoder_E407_TTA_CombineModel.c ****       rtDWork.TRCK_ID3_RX_MODE = true;
2154:HANcoder_E407_TTA_CombineModel.c **** 
2155:HANcoder_E407_TTA_CombineModel.c ****       /* M-S-Function: '<S243>/S-Function' incorporates:
2156:HANcoder_E407_TTA_CombineModel.c ****        *  Constant: '<S13>/Constant26'
2157:HANcoder_E407_TTA_CombineModel.c ****        */
2158:HANcoder_E407_TTA_CombineModel.c **** 
2159:HANcoder_E407_TTA_CombineModel.c ****       /* read the message data and store the new parameter */
2160:HANcoder_E407_TTA_CombineModel.c ****       rtb_SFunction_o1_k1 = CanIoGetMessage(0, TRCK1_ID3, NULL,
2161:HANcoder_E407_TTA_CombineModel.c ****         &canRxData_0_TRCK1_ID3.uint8_T_info[0], NULL);
2162:HANcoder_E407_TTA_CombineModel.c **** 
2163:HANcoder_E407_TTA_CombineModel.c ****       /* process the message data */
2164:HANcoder_E407_TTA_CombineModel.c ****       if (rtb_SFunction_o1_k1 > 0) {
2165:HANcoder_E407_TTA_CombineModel.c ****         /* read the data */
2166:HANcoder_E407_TTA_CombineModel.c ****         rtb_SFunction_o2_j = canRxData_0_TRCK1_ID3.uint8_T_info[0];
2167:HANcoder_E407_TTA_CombineModel.c ****         rtb_SFunction_o3_a = canRxData_0_TRCK1_ID3.uint8_T_info[1];
2168:HANcoder_E407_TTA_CombineModel.c ****         rtb_SFunction_o4_i = canRxData_0_TRCK1_ID3.uint8_T_info[2];
2169:HANcoder_E407_TTA_CombineModel.c ****         rtb_SFunction_o5_k = canRxData_0_TRCK1_ID3.uint8_T_info[3];
2170:HANcoder_E407_TTA_CombineModel.c ****         rtb_SFunction_o6_c = canRxData_0_TRCK1_ID3.uint8_T_info[4];
2171:HANcoder_E407_TTA_CombineModel.c ****         rtb_SFunction_o7_d = canRxData_0_TRCK1_ID3.uint8_T_info[5];
2172:HANcoder_E407_TTA_CombineModel.c ****         rtb_SFunction_o8_h = canRxData_0_TRCK1_ID3.uint8_T_info[6];
2173:HANcoder_E407_TTA_CombineModel.c ****         rtb_SFunction_o9_b = canRxData_0_TRCK1_ID3.uint8_T_info[7];
2174:HANcoder_E407_TTA_CombineModel.c ****       }
2175:HANcoder_E407_TTA_CombineModel.c **** 
2176:HANcoder_E407_TTA_CombineModel.c ****       /* Outputs for Enabled SubSystem: '<S243>/Enabled Subsystem' */
2177:HANcoder_E407_TTA_CombineModel.c ****       EnabledSubsystem(rtb_SFunction_o1_k1, rtb_SFunction_o2_j,
2178:HANcoder_E407_TTA_CombineModel.c ****                        rtb_SFunction_o3_a, rtb_SFunction_o4_i,
2179:HANcoder_E407_TTA_CombineModel.c ****                        rtb_SFunction_o5_k, rtb_SFunction_o6_c,
2180:HANcoder_E407_TTA_CombineModel.c ****                        rtb_SFunction_o7_d, rtb_SFunction_o8_h,
2181:HANcoder_E407_TTA_CombineModel.c ****                        rtb_SFunction_o9_b, &rtB.EnabledSubsystem_bj);
2182:HANcoder_E407_TTA_CombineModel.c **** 
2183:HANcoder_E407_TTA_CombineModel.c ****       /* End of Outputs for SubSystem: '<S243>/Enabled Subsystem' */
2184:HANcoder_E407_TTA_CombineModel.c **** 
2185:HANcoder_E407_TTA_CombineModel.c ****       /* DataTypeConversion: '<S242>/Cast' */
2186:HANcoder_E407_TTA_CombineModel.c ****       rtb_Cast_k = rtB.EnabledSubsystem_bj.In1;
2187:HANcoder_E407_TTA_CombineModel.c **** 
2188:HANcoder_E407_TTA_CombineModel.c ****       /* Outputs for Atomic SubSystem: '<S242>/Bit Shift' */
2189:HANcoder_E407_TTA_CombineModel.c ****       BitShift(rtb_Cast_k, &rtB.BitShift_p);
2190:HANcoder_E407_TTA_CombineModel.c **** 
2191:HANcoder_E407_TTA_CombineModel.c ****       /* End of Outputs for SubSystem: '<S242>/Bit Shift' */
2192:HANcoder_E407_TTA_CombineModel.c **** 
2193:HANcoder_E407_TTA_CombineModel.c ****       /* Sum: '<S242>/Add' incorporates:
2194:HANcoder_E407_TTA_CombineModel.c ****        *  DataTypeConversion: '<S242>/Cast1'
2195:HANcoder_E407_TTA_CombineModel.c ****        */
2196:HANcoder_E407_TTA_CombineModel.c ****       pot31 = (uint16_T)((uint32_T)rtB.BitShift_p.y +
2197:HANcoder_E407_TTA_CombineModel.c ****                          rtB.EnabledSubsystem_bj.In2);
2198:HANcoder_E407_TTA_CombineModel.c **** 
2199:HANcoder_E407_TTA_CombineModel.c ****       /* DataTypeConversion: '<S241>/Cast' */
2200:HANcoder_E407_TTA_CombineModel.c ****       rtb_Cast_d1 = rtB.EnabledSubsystem_bj.In3;
2201:HANcoder_E407_TTA_CombineModel.c **** 
2202:HANcoder_E407_TTA_CombineModel.c ****       /* Outputs for Atomic SubSystem: '<S241>/Bit Shift' */
2203:HANcoder_E407_TTA_CombineModel.c ****       BitShift(rtb_Cast_d1, &rtB.BitShift_e);
2204:HANcoder_E407_TTA_CombineModel.c **** 
2205:HANcoder_E407_TTA_CombineModel.c ****       /* End of Outputs for SubSystem: '<S241>/Bit Shift' */
2206:HANcoder_E407_TTA_CombineModel.c **** 
2207:HANcoder_E407_TTA_CombineModel.c ****       /* Sum: '<S241>/Add' incorporates:
2208:HANcoder_E407_TTA_CombineModel.c ****        *  DataTypeConversion: '<S241>/Cast1'
2209:HANcoder_E407_TTA_CombineModel.c ****        */
2210:HANcoder_E407_TTA_CombineModel.c ****       pot32 = (uint16_T)((uint32_T)rtB.BitShift_e.y +
2211:HANcoder_E407_TTA_CombineModel.c ****                          rtB.EnabledSubsystem_bj.In4);
2212:HANcoder_E407_TTA_CombineModel.c **** 
2213:HANcoder_E407_TTA_CombineModel.c ****       /* Outputs for Atomic SubSystem: '<S244>/Bit Shift' */
2214:HANcoder_E407_TTA_CombineModel.c ****       BitShift_g(rtB.EnabledSubsystem_bj.In7, &rtB.BitShift_f);
2215:HANcoder_E407_TTA_CombineModel.c **** 
2216:HANcoder_E407_TTA_CombineModel.c ****       /* End of Outputs for SubSystem: '<S244>/Bit Shift' */
2217:HANcoder_E407_TTA_CombineModel.c **** 
2218:HANcoder_E407_TTA_CombineModel.c ****       /* Outputs for Atomic SubSystem: '<S244>/Bit Shift1' */
2219:HANcoder_E407_TTA_CombineModel.c ****       BitShift1(rtB.EnabledSubsystem_bj.In7, &rtB.BitShift1_a);
2220:HANcoder_E407_TTA_CombineModel.c **** 
2221:HANcoder_E407_TTA_CombineModel.c ****       /* End of Outputs for SubSystem: '<S244>/Bit Shift1' */
2222:HANcoder_E407_TTA_CombineModel.c **** 
2223:HANcoder_E407_TTA_CombineModel.c ****       /* Outputs for Atomic SubSystem: '<S244>/Bit Shift2' */
2224:HANcoder_E407_TTA_CombineModel.c ****       BitShift2(rtB.EnabledSubsystem_bj.In7, &rtB.BitShift2_cw);
2225:HANcoder_E407_TTA_CombineModel.c **** 
2226:HANcoder_E407_TTA_CombineModel.c ****       /* End of Outputs for SubSystem: '<S244>/Bit Shift2' */
2227:HANcoder_E407_TTA_CombineModel.c **** 
2228:HANcoder_E407_TTA_CombineModel.c ****       /* Outputs for Atomic SubSystem: '<S244>/Bit Shift3' */
2229:HANcoder_E407_TTA_CombineModel.c ****       BitShift3(rtB.EnabledSubsystem_bj.In7, &rtB.BitShift3_d);
2230:HANcoder_E407_TTA_CombineModel.c **** 
2231:HANcoder_E407_TTA_CombineModel.c ****       /* End of Outputs for SubSystem: '<S244>/Bit Shift3' */
2232:HANcoder_E407_TTA_CombineModel.c **** 
2233:HANcoder_E407_TTA_CombineModel.c ****       /* Outputs for Atomic SubSystem: '<S244>/Bit Shift4' */
2234:HANcoder_E407_TTA_CombineModel.c ****       BitShift4(rtB.EnabledSubsystem_bj.In7, &rtB.BitShift4_d);
2235:HANcoder_E407_TTA_CombineModel.c **** 
2236:HANcoder_E407_TTA_CombineModel.c ****       /* End of Outputs for SubSystem: '<S244>/Bit Shift4' */
2237:HANcoder_E407_TTA_CombineModel.c **** 
2238:HANcoder_E407_TTA_CombineModel.c ****       /* Outputs for Atomic SubSystem: '<S244>/Bit Shift5' */
2239:HANcoder_E407_TTA_CombineModel.c ****       BitShift5(rtB.EnabledSubsystem_bj.In7, &rtB.BitShift5_c);
2240:HANcoder_E407_TTA_CombineModel.c **** 
2241:HANcoder_E407_TTA_CombineModel.c ****       /* End of Outputs for SubSystem: '<S244>/Bit Shift5' */
2242:HANcoder_E407_TTA_CombineModel.c **** 
2243:HANcoder_E407_TTA_CombineModel.c ****       /* Outputs for Atomic SubSystem: '<S244>/Bit Shift6' */
2244:HANcoder_E407_TTA_CombineModel.c ****       BitShift6(rtB.EnabledSubsystem_bj.In7, &rtB.BitShift6_b);
2245:HANcoder_E407_TTA_CombineModel.c **** 
2246:HANcoder_E407_TTA_CombineModel.c ****       /* End of Outputs for SubSystem: '<S244>/Bit Shift6' */
2247:HANcoder_E407_TTA_CombineModel.c **** 
2248:HANcoder_E407_TTA_CombineModel.c ****       /* Outputs for Atomic SubSystem: '<S244>/Bit Shift7' */
2249:HANcoder_E407_TTA_CombineModel.c ****       BitShift_g(rtB.EnabledSubsystem_bj.In7, &rtB.BitShift7_j);
2250:HANcoder_E407_TTA_CombineModel.c **** 
2251:HANcoder_E407_TTA_CombineModel.c ****       /* End of Outputs for SubSystem: '<S244>/Bit Shift7' */
2252:HANcoder_E407_TTA_CombineModel.c ****     } else if (rtDWork.TRCK_ID3_RX_MODE) {
2253:HANcoder_E407_TTA_CombineModel.c ****       rtDWork.TRCK_ID3_RX_MODE = false;
2254:HANcoder_E407_TTA_CombineModel.c ****     }
2255:HANcoder_E407_TTA_CombineModel.c **** 
2256:HANcoder_E407_TTA_CombineModel.c ****     /* End of Logic: '<S13>/AND11' */
2257:HANcoder_E407_TTA_CombineModel.c ****     /* End of Outputs for SubSystem: '<S13>/TRCK_ID3_RX' */
2258:HANcoder_E407_TTA_CombineModel.c **** 
2259:HANcoder_E407_TTA_CombineModel.c ****     /* RelationalOperator: '<S13>/Equal15' incorporates:
2260:HANcoder_E407_TTA_CombineModel.c ****      *  Constant: '<S13>/Constant22'
2261:HANcoder_E407_TTA_CombineModel.c ****      */
2262:HANcoder_E407_TTA_CombineModel.c ****     rtb_Equal17 = (slotSelected == 8.0);
2263:HANcoder_E407_TTA_CombineModel.c **** 
2264:HANcoder_E407_TTA_CombineModel.c ****     /* RelationalOperator: '<S13>/Equal8' incorporates:
2265:HANcoder_E407_TTA_CombineModel.c ****      *  Constant: '<S13>/Constant21'
2266:HANcoder_E407_TTA_CombineModel.c ****      *  DataStoreRead: '<S1>/Data Store Read'
2267:HANcoder_E407_TTA_CombineModel.c ****      */
2268:HANcoder_E407_TTA_CombineModel.c ****     rtb_Logic_idx_0 = (rtDWork.nodeRole == 4.0);
2269:HANcoder_E407_TTA_CombineModel.c **** 
2270:HANcoder_E407_TTA_CombineModel.c ****     /* Logic: '<S13>/AND13' incorporates:
2271:HANcoder_E407_TTA_CombineModel.c ****      *  Logic: '<S13>/NOT6'
2272:HANcoder_E407_TTA_CombineModel.c ****      */
2273:HANcoder_E407_TTA_CombineModel.c ****     rtb_AND13 = (rtb_Equal17 && (!rtb_Logic_idx_0));
2274:HANcoder_E407_TTA_CombineModel.c **** 
2275:HANcoder_E407_TTA_CombineModel.c ****     /* Outputs for Enabled SubSystem: '<S13>/TRLS_ID4_RX' incorporates:
2276:HANcoder_E407_TTA_CombineModel.c ****      *  EnablePort: '<S111>/Enable'
2277:HANcoder_E407_TTA_CombineModel.c ****      */
2278:HANcoder_E407_TTA_CombineModel.c ****     if (rtb_AND13) {
2279:HANcoder_E407_TTA_CombineModel.c ****       rtDWork.TRLS_ID4_RX_MODE = true;
2280:HANcoder_E407_TTA_CombineModel.c **** 
2281:HANcoder_E407_TTA_CombineModel.c ****       /* M-S-Function: '<S268>/S-Function' incorporates:
2282:HANcoder_E407_TTA_CombineModel.c ****        *  Constant: '<S13>/Constant8'
2283:HANcoder_E407_TTA_CombineModel.c ****        */
2284:HANcoder_E407_TTA_CombineModel.c **** 
2285:HANcoder_E407_TTA_CombineModel.c ****       /* read the message data and store the new parameter */
2286:HANcoder_E407_TTA_CombineModel.c ****       rtb_SFunction_o1_k = CanIoGetMessage(0, TRLS1_ID4, NULL,
2287:HANcoder_E407_TTA_CombineModel.c ****         &canRxData_0_TRLS1_ID4.uint8_T_info[0], NULL);
2288:HANcoder_E407_TTA_CombineModel.c **** 
2289:HANcoder_E407_TTA_CombineModel.c ****       /* process the message data */
2290:HANcoder_E407_TTA_CombineModel.c ****       if (rtb_SFunction_o1_k > 0) {
2291:HANcoder_E407_TTA_CombineModel.c ****         /* read the data */
2292:HANcoder_E407_TTA_CombineModel.c ****         rtb_SFunction_o2_e = canRxData_0_TRLS1_ID4.uint8_T_info[0];
2293:HANcoder_E407_TTA_CombineModel.c ****         rtb_SFunction_o3_p = canRxData_0_TRLS1_ID4.uint8_T_info[1];
2294:HANcoder_E407_TTA_CombineModel.c ****         rtb_SFunction_o4_c = canRxData_0_TRLS1_ID4.uint8_T_info[2];
2295:HANcoder_E407_TTA_CombineModel.c ****         rtb_SFunction_o5_c = canRxData_0_TRLS1_ID4.uint8_T_info[3];
2296:HANcoder_E407_TTA_CombineModel.c ****         rtb_SFunction_o6_e = canRxData_0_TRLS1_ID4.uint8_T_info[4];
2297:HANcoder_E407_TTA_CombineModel.c ****         rtb_SFunction_o7_l = canRxData_0_TRLS1_ID4.uint8_T_info[5];
2298:HANcoder_E407_TTA_CombineModel.c ****         rtb_SFunction_o8_f = canRxData_0_TRLS1_ID4.uint8_T_info[6];
2299:HANcoder_E407_TTA_CombineModel.c ****         rtb_SFunction_o9_h = canRxData_0_TRLS1_ID4.uint8_T_info[7];
2300:HANcoder_E407_TTA_CombineModel.c ****       }
2301:HANcoder_E407_TTA_CombineModel.c **** 
2302:HANcoder_E407_TTA_CombineModel.c ****       /* Outputs for Enabled SubSystem: '<S268>/Enabled Subsystem' */
2303:HANcoder_E407_TTA_CombineModel.c ****       EnabledSubsystem(rtb_SFunction_o1_k, rtb_SFunction_o2_e,
2304:HANcoder_E407_TTA_CombineModel.c ****                        rtb_SFunction_o3_p, rtb_SFunction_o4_c,
2305:HANcoder_E407_TTA_CombineModel.c ****                        rtb_SFunction_o5_c, rtb_SFunction_o6_e,
2306:HANcoder_E407_TTA_CombineModel.c ****                        rtb_SFunction_o7_l, rtb_SFunction_o8_f,
2307:HANcoder_E407_TTA_CombineModel.c ****                        rtb_SFunction_o9_h, &rtB.EnabledSubsystem_g);
2308:HANcoder_E407_TTA_CombineModel.c **** 
2309:HANcoder_E407_TTA_CombineModel.c ****       /* End of Outputs for SubSystem: '<S268>/Enabled Subsystem' */
2310:HANcoder_E407_TTA_CombineModel.c **** 
2311:HANcoder_E407_TTA_CombineModel.c ****       /* DataTypeConversion: '<S267>/Cast' */
2312:HANcoder_E407_TTA_CombineModel.c ****       rtb_Cast_p = rtB.EnabledSubsystem_g.In1;
2313:HANcoder_E407_TTA_CombineModel.c **** 
2314:HANcoder_E407_TTA_CombineModel.c ****       /* Outputs for Atomic SubSystem: '<S267>/Bit Shift' */
2315:HANcoder_E407_TTA_CombineModel.c ****       BitShift(rtb_Cast_p, &rtB.BitShift_n);
2316:HANcoder_E407_TTA_CombineModel.c **** 
2317:HANcoder_E407_TTA_CombineModel.c ****       /* End of Outputs for SubSystem: '<S267>/Bit Shift' */
2318:HANcoder_E407_TTA_CombineModel.c **** 
2319:HANcoder_E407_TTA_CombineModel.c ****       /* Sum: '<S267>/Add' incorporates:
2320:HANcoder_E407_TTA_CombineModel.c ****        *  DataStoreWrite: '<S111>/Data Store Write1'
2321:HANcoder_E407_TTA_CombineModel.c ****        *  DataTypeConversion: '<S267>/Cast1'
2322:HANcoder_E407_TTA_CombineModel.c ****        */
2323:HANcoder_E407_TTA_CombineModel.c ****       rtDWork.pot4_1 = (uint16_T)((uint32_T)rtB.BitShift_n.y +
2324:HANcoder_E407_TTA_CombineModel.c ****         rtB.EnabledSubsystem_g.In2);
2325:HANcoder_E407_TTA_CombineModel.c **** 
2326:HANcoder_E407_TTA_CombineModel.c ****       /* DataTypeConversion: '<S266>/Cast' */
2327:HANcoder_E407_TTA_CombineModel.c ****       rtb_Cast_c = rtB.EnabledSubsystem_g.In3;
2328:HANcoder_E407_TTA_CombineModel.c **** 
2329:HANcoder_E407_TTA_CombineModel.c ****       /* Outputs for Atomic SubSystem: '<S266>/Bit Shift' */
2330:HANcoder_E407_TTA_CombineModel.c ****       BitShift(rtb_Cast_c, &rtB.BitShift_gu);
2331:HANcoder_E407_TTA_CombineModel.c **** 
2332:HANcoder_E407_TTA_CombineModel.c ****       /* End of Outputs for SubSystem: '<S266>/Bit Shift' */
2333:HANcoder_E407_TTA_CombineModel.c **** 
2334:HANcoder_E407_TTA_CombineModel.c ****       /* Sum: '<S266>/Add' incorporates:
2335:HANcoder_E407_TTA_CombineModel.c ****        *  DataStoreWrite: '<S111>/Data Store Write2'
2336:HANcoder_E407_TTA_CombineModel.c ****        *  DataTypeConversion: '<S266>/Cast1'
2337:HANcoder_E407_TTA_CombineModel.c ****        */
2338:HANcoder_E407_TTA_CombineModel.c ****       rtDWork.pot4_2 = (uint16_T)((uint32_T)rtB.BitShift_gu.y +
2339:HANcoder_E407_TTA_CombineModel.c ****         rtB.EnabledSubsystem_g.In4);
2340:HANcoder_E407_TTA_CombineModel.c **** 
2341:HANcoder_E407_TTA_CombineModel.c ****       /* Outputs for Atomic SubSystem: '<S269>/Bit Shift' */
2342:HANcoder_E407_TTA_CombineModel.c ****       BitShift_g(rtB.EnabledSubsystem_g.In7, &rtB.BitShift_l);
2343:HANcoder_E407_TTA_CombineModel.c **** 
2344:HANcoder_E407_TTA_CombineModel.c ****       /* End of Outputs for SubSystem: '<S269>/Bit Shift' */
2345:HANcoder_E407_TTA_CombineModel.c **** 
2346:HANcoder_E407_TTA_CombineModel.c ****       /* Outputs for Atomic SubSystem: '<S269>/Bit Shift1' */
2347:HANcoder_E407_TTA_CombineModel.c ****       BitShift1(rtB.EnabledSubsystem_g.In7, &rtB.BitShift1_e);
2348:HANcoder_E407_TTA_CombineModel.c **** 
2349:HANcoder_E407_TTA_CombineModel.c ****       /* End of Outputs for SubSystem: '<S269>/Bit Shift1' */
2350:HANcoder_E407_TTA_CombineModel.c **** 
2351:HANcoder_E407_TTA_CombineModel.c ****       /* Outputs for Atomic SubSystem: '<S269>/Bit Shift2' */
2352:HANcoder_E407_TTA_CombineModel.c ****       BitShift2(rtB.EnabledSubsystem_g.In7, &rtB.BitShift2_l);
2353:HANcoder_E407_TTA_CombineModel.c **** 
2354:HANcoder_E407_TTA_CombineModel.c ****       /* End of Outputs for SubSystem: '<S269>/Bit Shift2' */
2355:HANcoder_E407_TTA_CombineModel.c **** 
2356:HANcoder_E407_TTA_CombineModel.c ****       /* Outputs for Atomic SubSystem: '<S269>/Bit Shift3' */
2357:HANcoder_E407_TTA_CombineModel.c ****       BitShift3(rtB.EnabledSubsystem_g.In7, &rtB.BitShift3_f);
2358:HANcoder_E407_TTA_CombineModel.c **** 
2359:HANcoder_E407_TTA_CombineModel.c ****       /* End of Outputs for SubSystem: '<S269>/Bit Shift3' */
2360:HANcoder_E407_TTA_CombineModel.c **** 
2361:HANcoder_E407_TTA_CombineModel.c ****       /* Outputs for Atomic SubSystem: '<S269>/Bit Shift4' */
2362:HANcoder_E407_TTA_CombineModel.c ****       BitShift4(rtB.EnabledSubsystem_g.In7, &rtB.BitShift4_j);
2363:HANcoder_E407_TTA_CombineModel.c **** 
2364:HANcoder_E407_TTA_CombineModel.c ****       /* End of Outputs for SubSystem: '<S269>/Bit Shift4' */
2365:HANcoder_E407_TTA_CombineModel.c **** 
2366:HANcoder_E407_TTA_CombineModel.c ****       /* Outputs for Atomic SubSystem: '<S269>/Bit Shift5' */
2367:HANcoder_E407_TTA_CombineModel.c ****       BitShift5(rtB.EnabledSubsystem_g.In7, &rtB.BitShift5_o);
2368:HANcoder_E407_TTA_CombineModel.c **** 
2369:HANcoder_E407_TTA_CombineModel.c ****       /* End of Outputs for SubSystem: '<S269>/Bit Shift5' */
2370:HANcoder_E407_TTA_CombineModel.c **** 
2371:HANcoder_E407_TTA_CombineModel.c ****       /* Outputs for Atomic SubSystem: '<S269>/Bit Shift6' */
2372:HANcoder_E407_TTA_CombineModel.c ****       BitShift6(rtB.EnabledSubsystem_g.In7, &rtB.BitShift6_o5);
2373:HANcoder_E407_TTA_CombineModel.c **** 
2374:HANcoder_E407_TTA_CombineModel.c ****       /* End of Outputs for SubSystem: '<S269>/Bit Shift6' */
2375:HANcoder_E407_TTA_CombineModel.c **** 
2376:HANcoder_E407_TTA_CombineModel.c ****       /* Outputs for Atomic SubSystem: '<S269>/Bit Shift7' */
2377:HANcoder_E407_TTA_CombineModel.c ****       BitShift_g(rtB.EnabledSubsystem_g.In7, &rtB.BitShift7_m);
2378:HANcoder_E407_TTA_CombineModel.c **** 
2379:HANcoder_E407_TTA_CombineModel.c ****       /* End of Outputs for SubSystem: '<S269>/Bit Shift7' */
2380:HANcoder_E407_TTA_CombineModel.c ****     } else if (rtDWork.TRLS_ID4_RX_MODE) {
2381:HANcoder_E407_TTA_CombineModel.c ****       rtDWork.TRLS_ID4_RX_MODE = false;
2382:HANcoder_E407_TTA_CombineModel.c ****     }
2383:HANcoder_E407_TTA_CombineModel.c **** 
2384:HANcoder_E407_TTA_CombineModel.c ****     /* End of Outputs for SubSystem: '<S13>/TRLS_ID4_RX' */
2385:HANcoder_E407_TTA_CombineModel.c **** 
2386:HANcoder_E407_TTA_CombineModel.c ****     /* Logic: '<S13>/AND12' */
2387:HANcoder_E407_TTA_CombineModel.c ****     rtb_Equal17 = (rtb_Equal17 && rtb_Logic_idx_0);
2388:HANcoder_E407_TTA_CombineModel.c **** 
2389:HANcoder_E407_TTA_CombineModel.c ****     /* Outputs for Triggered SubSystem: '<S13>/TRLS_ID4_TX' incorporates:
2390:HANcoder_E407_TTA_CombineModel.c ****      *  TriggerPort: '<S112>/Trigger'
2391:HANcoder_E407_TTA_CombineModel.c ****      */
2392:HANcoder_E407_TTA_CombineModel.c ****     if (rtb_Equal17 && (rtPrevZCSigState.TRLS_ID4_TX_Trig_ZCE != POS_ZCSIG)) {
2393:HANcoder_E407_TTA_CombineModel.c ****       /* DataStoreRead: '<S112>/Data Store Read2' */
2394:HANcoder_E407_TTA_CombineModel.c ****       rtB.DataStoreRead2 = rtDWork.Local_Ticks;
2395:HANcoder_E407_TTA_CombineModel.c **** 
2396:HANcoder_E407_TTA_CombineModel.c ****       /* DataTypeConversion: '<S292>/Cast1' incorporates:
2397:HANcoder_E407_TTA_CombineModel.c ****        *  DataStoreRead: '<S112>/Data Store Read4'
2398:HANcoder_E407_TTA_CombineModel.c ****        */
2399:HANcoder_E407_TTA_CombineModel.c ****       rtb_Cast1_l = rtDWork.potFault;
2400:HANcoder_E407_TTA_CombineModel.c **** 
2401:HANcoder_E407_TTA_CombineModel.c ****       /* Outputs for Atomic SubSystem: '<S292>/Bit Shift1' */
2402:HANcoder_E407_TTA_CombineModel.c ****       BitShift1_b(rtb_Cast1_l, &rtB.BitShift1_c);
2403:HANcoder_E407_TTA_CombineModel.c **** 
2404:HANcoder_E407_TTA_CombineModel.c ****       /* End of Outputs for SubSystem: '<S292>/Bit Shift1' */
2405:HANcoder_E407_TTA_CombineModel.c **** 
2406:HANcoder_E407_TTA_CombineModel.c ****       /* Outputs for Atomic SubSystem: '<S292>/Bit Shift' */
2407:HANcoder_E407_TTA_CombineModel.c ****       BitShift_gy(rtConstB.Cast_j, &rtB.BitShift_eg);
2408:HANcoder_E407_TTA_CombineModel.c **** 
2409:HANcoder_E407_TTA_CombineModel.c ****       /* End of Outputs for SubSystem: '<S292>/Bit Shift' */
2410:HANcoder_E407_TTA_CombineModel.c **** 
2411:HANcoder_E407_TTA_CombineModel.c ****       /* Outputs for Atomic SubSystem: '<S292>/Bit Shift2' */
2412:HANcoder_E407_TTA_CombineModel.c ****       BitShift2_p(rtConstB.Cast2_o, &rtB.BitShift2_l4);
2413:HANcoder_E407_TTA_CombineModel.c **** 
2414:HANcoder_E407_TTA_CombineModel.c ****       /* End of Outputs for SubSystem: '<S292>/Bit Shift2' */
2415:HANcoder_E407_TTA_CombineModel.c **** 
2416:HANcoder_E407_TTA_CombineModel.c ****       /* Outputs for Atomic SubSystem: '<S292>/Bit Shift3' */
2417:HANcoder_E407_TTA_CombineModel.c ****       BitShift3_l(rtConstB.Cast3_g, &rtB.BitShift3_m);
2418:HANcoder_E407_TTA_CombineModel.c **** 
2419:HANcoder_E407_TTA_CombineModel.c ****       /* End of Outputs for SubSystem: '<S292>/Bit Shift3' */
2420:HANcoder_E407_TTA_CombineModel.c **** 
2421:HANcoder_E407_TTA_CombineModel.c ****       /* Outputs for Atomic SubSystem: '<S292>/Bit Shift4' */
2422:HANcoder_E407_TTA_CombineModel.c ****       BitShift4_g(rtConstB.Cast4_l, &rtB.BitShift4_c);
2423:HANcoder_E407_TTA_CombineModel.c **** 
2424:HANcoder_E407_TTA_CombineModel.c ****       /* End of Outputs for SubSystem: '<S292>/Bit Shift4' */
2425:HANcoder_E407_TTA_CombineModel.c **** 
2426:HANcoder_E407_TTA_CombineModel.c ****       /* Outputs for Atomic SubSystem: '<S292>/Bit Shift5' */
2427:HANcoder_E407_TTA_CombineModel.c ****       BitShift5_n(rtConstB.Cast5_h, &rtB.BitShift5_og);
2428:HANcoder_E407_TTA_CombineModel.c **** 
2429:HANcoder_E407_TTA_CombineModel.c ****       /* End of Outputs for SubSystem: '<S292>/Bit Shift5' */
2430:HANcoder_E407_TTA_CombineModel.c **** 
2431:HANcoder_E407_TTA_CombineModel.c ****       /* Outputs for Atomic SubSystem: '<S292>/Bit Shift6' */
2432:HANcoder_E407_TTA_CombineModel.c ****       BitShift6_d(rtConstB.Cast6_e, &rtB.BitShift6_k);
2433:HANcoder_E407_TTA_CombineModel.c **** 
2434:HANcoder_E407_TTA_CombineModel.c ****       /* End of Outputs for SubSystem: '<S292>/Bit Shift6' */
2435:HANcoder_E407_TTA_CombineModel.c **** 
2436:HANcoder_E407_TTA_CombineModel.c ****       /* Sum: '<S292>/Add' */
2437:HANcoder_E407_TTA_CombineModel.c ****       rtB.Add_f = (uint8_T)((uint32_T)(uint8_T)((uint32_T)(uint8_T)((uint32_T)
2438:HANcoder_E407_TTA_CombineModel.c ****         (uint8_T)((uint32_T)(uint8_T)((uint32_T)(uint8_T)((uint32_T)(uint8_T)
2439:HANcoder_E407_TTA_CombineModel.c ****         ((uint32_T)rtConstB.Cast7_e + rtB.BitShift1_c.y) + rtB.BitShift_eg.y) +
2440:HANcoder_E407_TTA_CombineModel.c ****         rtB.BitShift2_l4.y) + rtB.BitShift3_m.y) + rtB.BitShift4_c.y) +
2441:HANcoder_E407_TTA_CombineModel.c ****         rtB.BitShift5_og.y) + rtB.BitShift6_k.y);
2442:HANcoder_E407_TTA_CombineModel.c **** 
2443:HANcoder_E407_TTA_CombineModel.c ****       /* Outputs for Atomic SubSystem: '<S293>/Bit Shift' */
2444:HANcoder_E407_TTA_CombineModel.c ****       /* DataStoreRead: '<S112>/Data Store Read1' */
2445:HANcoder_E407_TTA_CombineModel.c ****       BitShift_o(rtDWork.potentiometer2, &rtB.BitShift_h);
2446:HANcoder_E407_TTA_CombineModel.c **** 
2447:HANcoder_E407_TTA_CombineModel.c ****       /* End of Outputs for SubSystem: '<S293>/Bit Shift' */
2448:HANcoder_E407_TTA_CombineModel.c **** 
2449:HANcoder_E407_TTA_CombineModel.c ****       /* DataTypeConversion: '<S293>/Cast' */
2450:HANcoder_E407_TTA_CombineModel.c ****       rtB.Cast_d = (uint8_T)rtB.BitShift_h.y;
2451:HANcoder_E407_TTA_CombineModel.c **** 
2452:HANcoder_E407_TTA_CombineModel.c ****       /* DataTypeConversion: '<S293>/Cast1' incorporates:
2453:HANcoder_E407_TTA_CombineModel.c ****        *  DataStoreRead: '<S112>/Data Store Read1'
2454:HANcoder_E407_TTA_CombineModel.c ****        */
2455:HANcoder_E407_TTA_CombineModel.c ****       rtB.Cast1_c = (uint8_T)rtDWork.potentiometer2;
2456:HANcoder_E407_TTA_CombineModel.c **** 
2457:HANcoder_E407_TTA_CombineModel.c ****       /* Outputs for Atomic SubSystem: '<S294>/Bit Shift' */
2458:HANcoder_E407_TTA_CombineModel.c ****       /* DataStoreRead: '<S112>/Data Store Read' */
2459:HANcoder_E407_TTA_CombineModel.c ****       BitShift_o(rtDWork.potentiometer1, &rtB.BitShift_d);
2460:HANcoder_E407_TTA_CombineModel.c **** 
2461:HANcoder_E407_TTA_CombineModel.c ****       /* End of Outputs for SubSystem: '<S294>/Bit Shift' */
2462:HANcoder_E407_TTA_CombineModel.c **** 
2463:HANcoder_E407_TTA_CombineModel.c ****       /* DataTypeConversion: '<S294>/Cast' */
2464:HANcoder_E407_TTA_CombineModel.c ****       rtB.Cast_n = (uint8_T)rtB.BitShift_d.y;
2465:HANcoder_E407_TTA_CombineModel.c **** 
2466:HANcoder_E407_TTA_CombineModel.c ****       /* DataTypeConversion: '<S294>/Cast1' incorporates:
2467:HANcoder_E407_TTA_CombineModel.c ****        *  DataStoreRead: '<S112>/Data Store Read'
2468:HANcoder_E407_TTA_CombineModel.c ****        */
2469:HANcoder_E407_TTA_CombineModel.c ****       rtB.Cast1_i = (uint8_T)rtDWork.potentiometer1;
2470:HANcoder_E407_TTA_CombineModel.c **** 
2471:HANcoder_E407_TTA_CombineModel.c ****       /* Update for M-S-Function: '<S291>/S-Function' incorporates:
2472:HANcoder_E407_TTA_CombineModel.c ****        *  Constant: '<S112>/Constant'
2473:HANcoder_E407_TTA_CombineModel.c ****        *  Constant: '<S112>/Constant1'
2474:HANcoder_E407_TTA_CombineModel.c ****        *  Constant: '<S13>/Constant8'
2475:HANcoder_E407_TTA_CombineModel.c ****        */
2476:HANcoder_E407_TTA_CombineModel.c ****       {
2477:HANcoder_E407_TTA_CombineModel.c ****         /* prepare the data */
2478:HANcoder_E407_TTA_CombineModel.c ****         canTxData.uint8_T_info[0] = rtB.Cast_n;
2479:HANcoder_E407_TTA_CombineModel.c ****         canTxData.uint8_T_info[1] = rtB.Cast1_i;
2480:HANcoder_E407_TTA_CombineModel.c ****         canTxData.uint8_T_info[2] = rtB.Cast_d;
2481:HANcoder_E407_TTA_CombineModel.c ****         canTxData.uint8_T_info[3] = rtB.Cast1_c;
2482:HANcoder_E407_TTA_CombineModel.c ****         canTxData.uint8_T_info[4] = rtB.DataStoreRead2;
2483:HANcoder_E407_TTA_CombineModel.c ****         canTxData.uint8_T_info[5] = ((uint8_T)0U);
2484:HANcoder_E407_TTA_CombineModel.c ****         canTxData.uint8_T_info[6] = rtB.Add_f;
2485:HANcoder_E407_TTA_CombineModel.c ****         canTxData.uint8_T_info[7] = ((uint8_T)0U);
2486:HANcoder_E407_TTA_CombineModel.c **** 
2487:HANcoder_E407_TTA_CombineModel.c ****         /* send the data */
2488:HANcoder_E407_TTA_CombineModel.c ****         CanTransmit(0, TRLS1_ID4, 8, &canTxData.uint8_T_info[0]);
2489:HANcoder_E407_TTA_CombineModel.c ****       }
2490:HANcoder_E407_TTA_CombineModel.c ****     }
2491:HANcoder_E407_TTA_CombineModel.c **** 
2492:HANcoder_E407_TTA_CombineModel.c ****     rtPrevZCSigState.TRLS_ID4_TX_Trig_ZCE = rtb_Equal17;
2493:HANcoder_E407_TTA_CombineModel.c **** 
2494:HANcoder_E407_TTA_CombineModel.c ****     /* End of Outputs for SubSystem: '<S13>/TRLS_ID4_TX' */
2495:HANcoder_E407_TTA_CombineModel.c **** 
2496:HANcoder_E407_TTA_CombineModel.c ****     /* RelationalOperator: '<S13>/Equal17' incorporates:
2497:HANcoder_E407_TTA_CombineModel.c ****      *  Constant: '<S13>/Constant25'
2498:HANcoder_E407_TTA_CombineModel.c ****      */
2499:HANcoder_E407_TTA_CombineModel.c ****     rtb_Equal17 = (slotSelected == 9.0);
2500:HANcoder_E407_TTA_CombineModel.c **** 
2501:HANcoder_E407_TTA_CombineModel.c ****     /* RelationalOperator: '<S13>/Equal16' incorporates:
2502:HANcoder_E407_TTA_CombineModel.c ****      *  Constant: '<S13>/Constant24'
2503:HANcoder_E407_TTA_CombineModel.c ****      *  DataStoreRead: '<S1>/Data Store Read'
2504:HANcoder_E407_TTA_CombineModel.c ****      */
2505:HANcoder_E407_TTA_CombineModel.c ****     rtb_Logic_idx_0 = (rtDWork.nodeRole == 5.0);
2506:HANcoder_E407_TTA_CombineModel.c **** 
2507:HANcoder_E407_TTA_CombineModel.c ****     /* Logic: '<S13>/AND15' incorporates:
2508:HANcoder_E407_TTA_CombineModel.c ****      *  Logic: '<S13>/NOT7'
2509:HANcoder_E407_TTA_CombineModel.c ****      */
2510:HANcoder_E407_TTA_CombineModel.c ****     rtb_AND15 = (rtb_Equal17 && (!rtb_Logic_idx_0));
2511:HANcoder_E407_TTA_CombineModel.c **** 
2512:HANcoder_E407_TTA_CombineModel.c ****     /* Outputs for Enabled SubSystem: '<S13>/TRLS_ID5_RX' incorporates:
2513:HANcoder_E407_TTA_CombineModel.c ****      *  EnablePort: '<S113>/Enable'
2514:HANcoder_E407_TTA_CombineModel.c ****      */
2515:HANcoder_E407_TTA_CombineModel.c ****     if (rtb_AND15) {
2516:HANcoder_E407_TTA_CombineModel.c ****       rtDWork.TRLS_ID5_RX_MODE = true;
2517:HANcoder_E407_TTA_CombineModel.c **** 
2518:HANcoder_E407_TTA_CombineModel.c ****       /* M-S-Function: '<S315>/S-Function' incorporates:
2519:HANcoder_E407_TTA_CombineModel.c ****        *  Constant: '<S13>/Constant18'
2520:HANcoder_E407_TTA_CombineModel.c ****        */
2521:HANcoder_E407_TTA_CombineModel.c **** 
2522:HANcoder_E407_TTA_CombineModel.c ****       /* read the message data and store the new parameter */
2523:HANcoder_E407_TTA_CombineModel.c ****       rtb_SFunction_o1_n = CanIoGetMessage(0, TRLS1_ID5, NULL,
2524:HANcoder_E407_TTA_CombineModel.c ****         &canRxData_0_TRLS1_ID5.uint8_T_info[0], NULL);
2525:HANcoder_E407_TTA_CombineModel.c **** 
2526:HANcoder_E407_TTA_CombineModel.c ****       /* process the message data */
2527:HANcoder_E407_TTA_CombineModel.c ****       if (rtb_SFunction_o1_n > 0) {
2528:HANcoder_E407_TTA_CombineModel.c ****         /* read the data */
2529:HANcoder_E407_TTA_CombineModel.c ****         rtb_SFunction_o2_l = canRxData_0_TRLS1_ID5.uint8_T_info[0];
2530:HANcoder_E407_TTA_CombineModel.c ****         rtb_SFunction_o3_m = canRxData_0_TRLS1_ID5.uint8_T_info[1];
2531:HANcoder_E407_TTA_CombineModel.c ****         rtb_SFunction_o4_b = canRxData_0_TRLS1_ID5.uint8_T_info[2];
2532:HANcoder_E407_TTA_CombineModel.c ****         rtb_SFunction_o5_o = canRxData_0_TRLS1_ID5.uint8_T_info[3];
2533:HANcoder_E407_TTA_CombineModel.c ****         rtb_SFunction_o6_i = canRxData_0_TRLS1_ID5.uint8_T_info[4];
2534:HANcoder_E407_TTA_CombineModel.c ****         rtb_SFunction_o7_f = canRxData_0_TRLS1_ID5.uint8_T_info[5];
2535:HANcoder_E407_TTA_CombineModel.c ****         rtb_SFunction_o8_p = canRxData_0_TRLS1_ID5.uint8_T_info[6];
2536:HANcoder_E407_TTA_CombineModel.c ****         rtb_SFunction_o9_l = canRxData_0_TRLS1_ID5.uint8_T_info[7];
2537:HANcoder_E407_TTA_CombineModel.c ****       }
2538:HANcoder_E407_TTA_CombineModel.c **** 
2539:HANcoder_E407_TTA_CombineModel.c ****       /* Outputs for Enabled SubSystem: '<S315>/Enabled Subsystem' */
2540:HANcoder_E407_TTA_CombineModel.c ****       EnabledSubsystem(rtb_SFunction_o1_n, rtb_SFunction_o2_l,
2541:HANcoder_E407_TTA_CombineModel.c ****                        rtb_SFunction_o3_m, rtb_SFunction_o4_b,
2542:HANcoder_E407_TTA_CombineModel.c ****                        rtb_SFunction_o5_o, rtb_SFunction_o6_i,
2543:HANcoder_E407_TTA_CombineModel.c ****                        rtb_SFunction_o7_f, rtb_SFunction_o8_p,
2544:HANcoder_E407_TTA_CombineModel.c ****                        rtb_SFunction_o9_l, &rtB.EnabledSubsystem_e);
2545:HANcoder_E407_TTA_CombineModel.c **** 
2546:HANcoder_E407_TTA_CombineModel.c ****       /* End of Outputs for SubSystem: '<S315>/Enabled Subsystem' */
2547:HANcoder_E407_TTA_CombineModel.c **** 
2548:HANcoder_E407_TTA_CombineModel.c ****       /* DataTypeConversion: '<S314>/Cast' */
2549:HANcoder_E407_TTA_CombineModel.c ****       rtb_Cast_gr = rtB.EnabledSubsystem_e.In1;
2550:HANcoder_E407_TTA_CombineModel.c **** 
2551:HANcoder_E407_TTA_CombineModel.c ****       /* Outputs for Atomic SubSystem: '<S314>/Bit Shift' */
2552:HANcoder_E407_TTA_CombineModel.c ****       BitShift(rtb_Cast_gr, &rtB.BitShift_jx);
2553:HANcoder_E407_TTA_CombineModel.c **** 
2554:HANcoder_E407_TTA_CombineModel.c ****       /* End of Outputs for SubSystem: '<S314>/Bit Shift' */
2555:HANcoder_E407_TTA_CombineModel.c **** 
2556:HANcoder_E407_TTA_CombineModel.c ****       /* Sum: '<S314>/Add' incorporates:
2557:HANcoder_E407_TTA_CombineModel.c ****        *  DataStoreWrite: '<S113>/Data Store Write1'
2558:HANcoder_E407_TTA_CombineModel.c ****        *  DataTypeConversion: '<S314>/Cast1'
2559:HANcoder_E407_TTA_CombineModel.c ****        */
2560:HANcoder_E407_TTA_CombineModel.c ****       rtDWork.pot5_1 = (uint16_T)((uint32_T)rtB.BitShift_jx.y +
2561:HANcoder_E407_TTA_CombineModel.c ****         rtB.EnabledSubsystem_e.In2);
2562:HANcoder_E407_TTA_CombineModel.c **** 
2563:HANcoder_E407_TTA_CombineModel.c ****       /* DataTypeConversion: '<S313>/Cast' */
2564:HANcoder_E407_TTA_CombineModel.c ****       rtb_Cast_i1 = rtB.EnabledSubsystem_e.In3;
2565:HANcoder_E407_TTA_CombineModel.c **** 
2566:HANcoder_E407_TTA_CombineModel.c ****       /* Outputs for Atomic SubSystem: '<S313>/Bit Shift' */
2567:HANcoder_E407_TTA_CombineModel.c ****       BitShift(rtb_Cast_i1, &rtB.BitShift_a);
2568:HANcoder_E407_TTA_CombineModel.c **** 
2569:HANcoder_E407_TTA_CombineModel.c ****       /* End of Outputs for SubSystem: '<S313>/Bit Shift' */
2570:HANcoder_E407_TTA_CombineModel.c **** 
2571:HANcoder_E407_TTA_CombineModel.c ****       /* Outputs for Atomic SubSystem: '<S316>/Bit Shift' */
2572:HANcoder_E407_TTA_CombineModel.c ****       BitShift_g(rtB.EnabledSubsystem_e.In7, &rtB.BitShift_dp);
2573:HANcoder_E407_TTA_CombineModel.c **** 
2574:HANcoder_E407_TTA_CombineModel.c ****       /* End of Outputs for SubSystem: '<S316>/Bit Shift' */
2575:HANcoder_E407_TTA_CombineModel.c **** 
2576:HANcoder_E407_TTA_CombineModel.c ****       /* Outputs for Atomic SubSystem: '<S316>/Bit Shift1' */
2577:HANcoder_E407_TTA_CombineModel.c ****       BitShift1(rtB.EnabledSubsystem_e.In7, &rtB.BitShift1_au);
2578:HANcoder_E407_TTA_CombineModel.c **** 
2579:HANcoder_E407_TTA_CombineModel.c ****       /* End of Outputs for SubSystem: '<S316>/Bit Shift1' */
2580:HANcoder_E407_TTA_CombineModel.c **** 
2581:HANcoder_E407_TTA_CombineModel.c ****       /* Outputs for Atomic SubSystem: '<S316>/Bit Shift2' */
2582:HANcoder_E407_TTA_CombineModel.c ****       BitShift2(rtB.EnabledSubsystem_e.In7, &rtB.BitShift2_d);
2583:HANcoder_E407_TTA_CombineModel.c **** 
2584:HANcoder_E407_TTA_CombineModel.c ****       /* End of Outputs for SubSystem: '<S316>/Bit Shift2' */
2585:HANcoder_E407_TTA_CombineModel.c **** 
2586:HANcoder_E407_TTA_CombineModel.c ****       /* Outputs for Atomic SubSystem: '<S316>/Bit Shift3' */
2587:HANcoder_E407_TTA_CombineModel.c ****       BitShift3(rtB.EnabledSubsystem_e.In7, &rtB.BitShift3_dx);
2588:HANcoder_E407_TTA_CombineModel.c **** 
2589:HANcoder_E407_TTA_CombineModel.c ****       /* End of Outputs for SubSystem: '<S316>/Bit Shift3' */
2590:HANcoder_E407_TTA_CombineModel.c **** 
2591:HANcoder_E407_TTA_CombineModel.c ****       /* Outputs for Atomic SubSystem: '<S316>/Bit Shift4' */
2592:HANcoder_E407_TTA_CombineModel.c ****       BitShift4(rtB.EnabledSubsystem_e.In7, &rtB.BitShift4_o);
2593:HANcoder_E407_TTA_CombineModel.c **** 
2594:HANcoder_E407_TTA_CombineModel.c ****       /* End of Outputs for SubSystem: '<S316>/Bit Shift4' */
2595:HANcoder_E407_TTA_CombineModel.c **** 
2596:HANcoder_E407_TTA_CombineModel.c ****       /* Outputs for Atomic SubSystem: '<S316>/Bit Shift5' */
2597:HANcoder_E407_TTA_CombineModel.c ****       BitShift5(rtB.EnabledSubsystem_e.In7, &rtB.BitShift5_ni);
2598:HANcoder_E407_TTA_CombineModel.c **** 
2599:HANcoder_E407_TTA_CombineModel.c ****       /* End of Outputs for SubSystem: '<S316>/Bit Shift5' */
2600:HANcoder_E407_TTA_CombineModel.c **** 
2601:HANcoder_E407_TTA_CombineModel.c ****       /* Outputs for Atomic SubSystem: '<S316>/Bit Shift6' */
2602:HANcoder_E407_TTA_CombineModel.c ****       BitShift6(rtB.EnabledSubsystem_e.In7, &rtB.BitShift6_a);
2603:HANcoder_E407_TTA_CombineModel.c **** 
2604:HANcoder_E407_TTA_CombineModel.c ****       /* End of Outputs for SubSystem: '<S316>/Bit Shift6' */
2605:HANcoder_E407_TTA_CombineModel.c **** 
2606:HANcoder_E407_TTA_CombineModel.c ****       /* Outputs for Atomic SubSystem: '<S316>/Bit Shift7' */
2607:HANcoder_E407_TTA_CombineModel.c ****       BitShift_g(rtB.EnabledSubsystem_e.In7, &rtB.BitShift7_ms);
2608:HANcoder_E407_TTA_CombineModel.c **** 
2609:HANcoder_E407_TTA_CombineModel.c ****       /* End of Outputs for SubSystem: '<S316>/Bit Shift7' */
2610:HANcoder_E407_TTA_CombineModel.c ****     } else if (rtDWork.TRLS_ID5_RX_MODE) {
2611:HANcoder_E407_TTA_CombineModel.c ****       rtDWork.TRLS_ID5_RX_MODE = false;
2612:HANcoder_E407_TTA_CombineModel.c ****     }
2613:HANcoder_E407_TTA_CombineModel.c **** 
2614:HANcoder_E407_TTA_CombineModel.c ****     /* End of Outputs for SubSystem: '<S13>/TRLS_ID5_RX' */
2615:HANcoder_E407_TTA_CombineModel.c **** 
2616:HANcoder_E407_TTA_CombineModel.c ****     /* Logic: '<S13>/AND14' */
2617:HANcoder_E407_TTA_CombineModel.c ****     rtb_Equal17 = (rtb_Equal17 && rtb_Logic_idx_0);
2618:HANcoder_E407_TTA_CombineModel.c **** 
2619:HANcoder_E407_TTA_CombineModel.c ****     /* Outputs for Triggered SubSystem: '<S13>/TRLS_ID5_TX' incorporates:
2620:HANcoder_E407_TTA_CombineModel.c ****      *  TriggerPort: '<S114>/Trigger'
2621:HANcoder_E407_TTA_CombineModel.c ****      */
2622:HANcoder_E407_TTA_CombineModel.c ****     if (rtb_Equal17 && (rtPrevZCSigState.TRLS_ID5_TX_Trig_ZCE != POS_ZCSIG)) {
2623:HANcoder_E407_TTA_CombineModel.c ****       /* DataStoreRead: '<S114>/Data Store Read3' */
2624:HANcoder_E407_TTA_CombineModel.c ****       rtB.DataStoreRead3 = rtDWork.Local_Ticks;
2625:HANcoder_E407_TTA_CombineModel.c **** 
2626:HANcoder_E407_TTA_CombineModel.c ****       /* DataTypeConversion: '<S339>/Cast1' incorporates:
2627:HANcoder_E407_TTA_CombineModel.c ****        *  DataStoreRead: '<S114>/Data Store Read5'
2628:HANcoder_E407_TTA_CombineModel.c ****        */
2629:HANcoder_E407_TTA_CombineModel.c ****       rtb_Cast1_e = rtDWork.potFault;
2630:HANcoder_E407_TTA_CombineModel.c **** 
2631:HANcoder_E407_TTA_CombineModel.c ****       /* Outputs for Atomic SubSystem: '<S339>/Bit Shift1' */
2632:HANcoder_E407_TTA_CombineModel.c ****       BitShift1_b(rtb_Cast1_e, &rtB.BitShift1_n);
2633:HANcoder_E407_TTA_CombineModel.c **** 
2634:HANcoder_E407_TTA_CombineModel.c ****       /* End of Outputs for SubSystem: '<S339>/Bit Shift1' */
2635:HANcoder_E407_TTA_CombineModel.c **** 
2636:HANcoder_E407_TTA_CombineModel.c ****       /* Outputs for Atomic SubSystem: '<S339>/Bit Shift' */
2637:HANcoder_E407_TTA_CombineModel.c ****       BitShift_gy(rtConstB.Cast_h, &rtB.BitShift_a0);
2638:HANcoder_E407_TTA_CombineModel.c **** 
2639:HANcoder_E407_TTA_CombineModel.c ****       /* End of Outputs for SubSystem: '<S339>/Bit Shift' */
2640:HANcoder_E407_TTA_CombineModel.c **** 
2641:HANcoder_E407_TTA_CombineModel.c ****       /* Outputs for Atomic SubSystem: '<S339>/Bit Shift2' */
2642:HANcoder_E407_TTA_CombineModel.c ****       BitShift2_p(rtConstB.Cast2, &rtB.BitShift2_f);
2643:HANcoder_E407_TTA_CombineModel.c **** 
2644:HANcoder_E407_TTA_CombineModel.c ****       /* End of Outputs for SubSystem: '<S339>/Bit Shift2' */
2645:HANcoder_E407_TTA_CombineModel.c **** 
2646:HANcoder_E407_TTA_CombineModel.c ****       /* Outputs for Atomic SubSystem: '<S339>/Bit Shift3' */
2647:HANcoder_E407_TTA_CombineModel.c ****       BitShift3_l(rtConstB.Cast3, &rtB.BitShift3_a);
2648:HANcoder_E407_TTA_CombineModel.c **** 
2649:HANcoder_E407_TTA_CombineModel.c ****       /* End of Outputs for SubSystem: '<S339>/Bit Shift3' */
2650:HANcoder_E407_TTA_CombineModel.c **** 
2651:HANcoder_E407_TTA_CombineModel.c ****       /* Outputs for Atomic SubSystem: '<S339>/Bit Shift4' */
2652:HANcoder_E407_TTA_CombineModel.c ****       BitShift4_g(rtConstB.Cast4, &rtB.BitShift4_ew);
2653:HANcoder_E407_TTA_CombineModel.c **** 
2654:HANcoder_E407_TTA_CombineModel.c ****       /* End of Outputs for SubSystem: '<S339>/Bit Shift4' */
2655:HANcoder_E407_TTA_CombineModel.c **** 
2656:HANcoder_E407_TTA_CombineModel.c ****       /* Outputs for Atomic SubSystem: '<S339>/Bit Shift5' */
2657:HANcoder_E407_TTA_CombineModel.c ****       BitShift5_n(rtConstB.Cast5, &rtB.BitShift5_nm);
2658:HANcoder_E407_TTA_CombineModel.c **** 
2659:HANcoder_E407_TTA_CombineModel.c ****       /* End of Outputs for SubSystem: '<S339>/Bit Shift5' */
2660:HANcoder_E407_TTA_CombineModel.c **** 
2661:HANcoder_E407_TTA_CombineModel.c ****       /* Outputs for Atomic SubSystem: '<S339>/Bit Shift6' */
2662:HANcoder_E407_TTA_CombineModel.c ****       BitShift6_d(rtConstB.Cast6, &rtB.BitShift6_ab);
2663:HANcoder_E407_TTA_CombineModel.c **** 
2664:HANcoder_E407_TTA_CombineModel.c ****       /* End of Outputs for SubSystem: '<S339>/Bit Shift6' */
2665:HANcoder_E407_TTA_CombineModel.c **** 
2666:HANcoder_E407_TTA_CombineModel.c ****       /* Sum: '<S339>/Add' */
2667:HANcoder_E407_TTA_CombineModel.c ****       rtB.Add = (uint8_T)((uint32_T)(uint8_T)((uint32_T)(uint8_T)((uint32_T)
2668:HANcoder_E407_TTA_CombineModel.c ****         (uint8_T)((uint32_T)(uint8_T)((uint32_T)(uint8_T)((uint32_T)(uint8_T)
2669:HANcoder_E407_TTA_CombineModel.c ****         ((uint32_T)rtConstB.Cast7 + rtB.BitShift1_n.y) + rtB.BitShift_a0.y) +
2670:HANcoder_E407_TTA_CombineModel.c ****         rtB.BitShift2_f.y) + rtB.BitShift3_a.y) + rtB.BitShift4_ew.y) +
2671:HANcoder_E407_TTA_CombineModel.c ****         rtB.BitShift5_nm.y) + rtB.BitShift6_ab.y);
2672:HANcoder_E407_TTA_CombineModel.c **** 
2673:HANcoder_E407_TTA_CombineModel.c ****       /* Outputs for Atomic SubSystem: '<S340>/Bit Shift' */
2674:HANcoder_E407_TTA_CombineModel.c ****       /* DataStoreRead: '<S114>/Data Store Read2' */
2675:HANcoder_E407_TTA_CombineModel.c ****       BitShift_o(rtDWork.potentiometer2, &rtB.BitShift_g3);
2676:HANcoder_E407_TTA_CombineModel.c **** 
2677:HANcoder_E407_TTA_CombineModel.c ****       /* End of Outputs for SubSystem: '<S340>/Bit Shift' */
2678:HANcoder_E407_TTA_CombineModel.c **** 
2679:HANcoder_E407_TTA_CombineModel.c ****       /* DataTypeConversion: '<S340>/Cast' */
2680:HANcoder_E407_TTA_CombineModel.c ****       rtB.Cast = (uint8_T)rtB.BitShift_g3.y;
2681:HANcoder_E407_TTA_CombineModel.c **** 
2682:HANcoder_E407_TTA_CombineModel.c ****       /* DataTypeConversion: '<S340>/Cast1' incorporates:
2683:HANcoder_E407_TTA_CombineModel.c ****        *  DataStoreRead: '<S114>/Data Store Read2'
2684:HANcoder_E407_TTA_CombineModel.c ****        */
2685:HANcoder_E407_TTA_CombineModel.c ****       rtB.Cast1 = (uint8_T)rtDWork.potentiometer2;
2686:HANcoder_E407_TTA_CombineModel.c **** 
2687:HANcoder_E407_TTA_CombineModel.c ****       /* Outputs for Atomic SubSystem: '<S341>/Bit Shift' */
2688:HANcoder_E407_TTA_CombineModel.c ****       /* DataStoreRead: '<S114>/Data Store Read1' */
2689:HANcoder_E407_TTA_CombineModel.c ****       BitShift_o(rtDWork.potentiometer1, &rtB.BitShift_gul);
2690:HANcoder_E407_TTA_CombineModel.c **** 
2691:HANcoder_E407_TTA_CombineModel.c ****       /* End of Outputs for SubSystem: '<S341>/Bit Shift' */
2692:HANcoder_E407_TTA_CombineModel.c **** 
2693:HANcoder_E407_TTA_CombineModel.c ****       /* DataTypeConversion: '<S341>/Cast' */
2694:HANcoder_E407_TTA_CombineModel.c ****       rtB.Cast_f = (uint8_T)rtB.BitShift_gul.y;
2695:HANcoder_E407_TTA_CombineModel.c **** 
2696:HANcoder_E407_TTA_CombineModel.c ****       /* DataTypeConversion: '<S341>/Cast1' incorporates:
2697:HANcoder_E407_TTA_CombineModel.c ****        *  DataStoreRead: '<S114>/Data Store Read1'
2698:HANcoder_E407_TTA_CombineModel.c ****        */
2699:HANcoder_E407_TTA_CombineModel.c ****       rtB.Cast1_m = (uint8_T)rtDWork.potentiometer1;
2700:HANcoder_E407_TTA_CombineModel.c **** 
2701:HANcoder_E407_TTA_CombineModel.c ****       /* Update for M-S-Function: '<S338>/S-Function' incorporates:
2702:HANcoder_E407_TTA_CombineModel.c ****        *  Constant: '<S114>/Constant'
2703:HANcoder_E407_TTA_CombineModel.c ****        *  Constant: '<S114>/Constant1'
2704:HANcoder_E407_TTA_CombineModel.c ****        *  Constant: '<S13>/Constant18'
2705:HANcoder_E407_TTA_CombineModel.c ****        */
2706:HANcoder_E407_TTA_CombineModel.c ****       {
2707:HANcoder_E407_TTA_CombineModel.c ****         /* prepare the data */
2708:HANcoder_E407_TTA_CombineModel.c ****         canTxData.uint8_T_info[0] = rtB.Cast_f;
2709:HANcoder_E407_TTA_CombineModel.c ****         canTxData.uint8_T_info[1] = rtB.Cast1_m;
2710:HANcoder_E407_TTA_CombineModel.c ****         canTxData.uint8_T_info[2] = rtB.Cast;
2711:HANcoder_E407_TTA_CombineModel.c ****         canTxData.uint8_T_info[3] = rtB.Cast1;
2712:HANcoder_E407_TTA_CombineModel.c ****         canTxData.uint8_T_info[4] = rtB.DataStoreRead3;
2713:HANcoder_E407_TTA_CombineModel.c ****         canTxData.uint8_T_info[5] = ((uint8_T)0U);
2714:HANcoder_E407_TTA_CombineModel.c ****         canTxData.uint8_T_info[6] = rtB.Add;
2715:HANcoder_E407_TTA_CombineModel.c ****         canTxData.uint8_T_info[7] = ((uint8_T)0U);
2716:HANcoder_E407_TTA_CombineModel.c **** 
2717:HANcoder_E407_TTA_CombineModel.c ****         /* send the data */
2718:HANcoder_E407_TTA_CombineModel.c ****         CanTransmit(0, TRLS1_ID5, 8, &canTxData.uint8_T_info[0]);
2719:HANcoder_E407_TTA_CombineModel.c ****       }
2720:HANcoder_E407_TTA_CombineModel.c ****     }
2721:HANcoder_E407_TTA_CombineModel.c **** 
2722:HANcoder_E407_TTA_CombineModel.c ****     rtPrevZCSigState.TRLS_ID5_TX_Trig_ZCE = rtb_Equal17;
2723:HANcoder_E407_TTA_CombineModel.c **** 
2724:HANcoder_E407_TTA_CombineModel.c ****     /* End of Outputs for SubSystem: '<S13>/TRLS_ID5_TX' */
2725:HANcoder_E407_TTA_CombineModel.c ****   } else if (rtDWork.Messageselector_MODE) {
 3175              		.loc 1 2725 10 is_stmt 1 view .LVU1067
 3176              		.loc 1 2725 13 is_stmt 0 view .LVU1068
 3177 0714 94F86F20 		ldrb	r2, [r4, #111]	@ zero_extendqisi2
 3178 0718 82B3     		cbz	r2, .L346
2726:HANcoder_E407_TTA_CombineModel.c ****     /* Disable for Enabled SubSystem: '<S13>/MMBS1_RX' */
2727:HANcoder_E407_TTA_CombineModel.c ****     if (rtDWork.MMBS1_RX_j.MMBS1_RX_MODE) {
 3179              		.loc 1 2727 5 is_stmt 1 view .LVU1069
 3180              		.loc 1 2727 8 is_stmt 0 view .LVU1070
 3181 071a 94F87820 		ldrb	r2, [r4, #120]	@ zero_extendqisi2
 3182 071e 0AB1     		cbz	r2, .L192
2728:HANcoder_E407_TTA_CombineModel.c ****       /* Constant: '<S13>/Constant12' */
2729:HANcoder_E407_TTA_CombineModel.c ****       MMBS1_RX_Disable(&rtDWork.MMBS1_RX_j);
 3183              		.loc 1 2729 7 is_stmt 1 view .LVU1071
 3184              	.LVL252:
 3185              	.LBB402:
 3186              	.LBI402:
 463:HANcoder_E407_TTA_CombineModel.c **** {
 3187              		.loc 1 463 6 view .LVU1072
 3188              	.LBB403:
 465:HANcoder_E407_TTA_CombineModel.c **** }
 3189              		.loc 1 465 3 view .LVU1073
 465:HANcoder_E407_TTA_CombineModel.c **** }
 3190              		.loc 1 465 26 is_stmt 0 view .LVU1074
 3191 0720 84F87830 		strb	r3, [r4, #120]
 3192              	.LVL253:
 3193              	.L192:
 465:HANcoder_E407_TTA_CombineModel.c **** }
 3194              		.loc 1 465 26 view .LVU1075
 3195              	.LBE403:
 3196              	.LBE402:
2730:HANcoder_E407_TTA_CombineModel.c ****     }
2731:HANcoder_E407_TTA_CombineModel.c **** 
2732:HANcoder_E407_TTA_CombineModel.c ****     /* End of Disable for SubSystem: '<S13>/MMBS1_RX' */
2733:HANcoder_E407_TTA_CombineModel.c **** 
2734:HANcoder_E407_TTA_CombineModel.c ****     /* Disable for Triggered SubSystem: '<S13>/MMBS1_TX' */
2735:HANcoder_E407_TTA_CombineModel.c ****     /* Constant: '<S13>/Constant12' */
2736:HANcoder_E407_TTA_CombineModel.c ****     /* Disable for Enabled SubSystem: '<S13>/SSTM1_RX' */
2737:HANcoder_E407_TTA_CombineModel.c ****     if (rtDWork.SSTM1_RX.MMBS1_RX_MODE) {
 3197              		.loc 1 2737 5 is_stmt 1 view .LVU1076
 3198              		.loc 1 2737 8 is_stmt 0 view .LVU1077
 3199 0724 94F87730 		ldrb	r3, [r4, #119]	@ zero_extendqisi2
 3200 0728 13B1     		cbz	r3, .L193
2738:HANcoder_E407_TTA_CombineModel.c ****       /* Constant: '<S13>/Constant14' */
2739:HANcoder_E407_TTA_CombineModel.c ****       MMBS1_RX_Disable(&rtDWork.SSTM1_RX);
 3201              		.loc 1 2739 7 is_stmt 1 view .LVU1078
 3202              	.LVL254:
 3203              	.LBB404:
 3204              	.LBI404:
 463:HANcoder_E407_TTA_CombineModel.c **** {
 3205              		.loc 1 463 6 view .LVU1079
 3206              	.LBB405:
 465:HANcoder_E407_TTA_CombineModel.c **** }
 3207              		.loc 1 465 3 view .LVU1080
 465:HANcoder_E407_TTA_CombineModel.c **** }
 3208              		.loc 1 465 26 is_stmt 0 view .LVU1081
 3209 072a 0023     		movs	r3, #0
 3210 072c 84F87730 		strb	r3, [r4, #119]
 3211              	.LVL255:
 3212              	.L193:
 465:HANcoder_E407_TTA_CombineModel.c **** }
 3213              		.loc 1 465 26 view .LVU1082
 3214              	.LBE405:
 3215              	.LBE404:
2740:HANcoder_E407_TTA_CombineModel.c ****     }
2741:HANcoder_E407_TTA_CombineModel.c **** 
2742:HANcoder_E407_TTA_CombineModel.c ****     /* End of Disable for SubSystem: '<S13>/SSTM1_RX' */
2743:HANcoder_E407_TTA_CombineModel.c **** 
2744:HANcoder_E407_TTA_CombineModel.c ****     /* Disable for Triggered SubSystem: '<S13>/SSTM1_TX' */
2745:HANcoder_E407_TTA_CombineModel.c ****     /* Constant: '<S13>/Constant14' */
2746:HANcoder_E407_TTA_CombineModel.c ****     /* Disable for Enabled SubSystem: '<S13>/SYNC1_RX' */
2747:HANcoder_E407_TTA_CombineModel.c ****     if (rtDWork.SYNC1_RX_MODE) {
 3216              		.loc 1 2747 5 is_stmt 1 view .LVU1083
 3217              		.loc 1 2747 8 is_stmt 0 view .LVU1084
 3218 0730 94F87530 		ldrb	r3, [r4, #117]	@ zero_extendqisi2
 3219 0734 13B1     		cbz	r3, .L194
2748:HANcoder_E407_TTA_CombineModel.c ****       rtDWork.SYNC1_RX_MODE = false;
 3220              		.loc 1 2748 7 is_stmt 1 view .LVU1085
 3221              		.loc 1 2748 29 is_stmt 0 view .LVU1086
 3222 0736 0023     		movs	r3, #0
 3223 0738 84F87530 		strb	r3, [r4, #117]
 3224              	.L194:
2749:HANcoder_E407_TTA_CombineModel.c ****     }
2750:HANcoder_E407_TTA_CombineModel.c **** 
2751:HANcoder_E407_TTA_CombineModel.c ****     /* End of Disable for SubSystem: '<S13>/SYNC1_RX' */
2752:HANcoder_E407_TTA_CombineModel.c ****     /* Disable for Enabled SubSystem: '<S13>/TRCK1_ID2_RX' */
2753:HANcoder_E407_TTA_CombineModel.c ****     if (rtDWork.TRCK1_ID2_RX_MODE) {
 3225              		.loc 1 2753 5 is_stmt 1 view .LVU1087
 3226              		.loc 1 2753 8 is_stmt 0 view .LVU1088
 3227 073c 94F87430 		ldrb	r3, [r4, #116]	@ zero_extendqisi2
 3228 0740 13B1     		cbz	r3, .L195
2754:HANcoder_E407_TTA_CombineModel.c ****       rtDWork.TRCK1_ID2_RX_MODE = false;
 3229              		.loc 1 2754 7 is_stmt 1 view .LVU1089
 3230              		.loc 1 2754 33 is_stmt 0 view .LVU1090
 3231 0742 0023     		movs	r3, #0
 3232 0744 84F87430 		strb	r3, [r4, #116]
 3233              	.L195:
2755:HANcoder_E407_TTA_CombineModel.c ****     }
2756:HANcoder_E407_TTA_CombineModel.c **** 
2757:HANcoder_E407_TTA_CombineModel.c ****     /* End of Disable for SubSystem: '<S13>/TRCK1_ID2_RX' */
2758:HANcoder_E407_TTA_CombineModel.c **** 
2759:HANcoder_E407_TTA_CombineModel.c ****     /* Disable for Triggered SubSystem: '<S13>/TRCK1_ID2_TX' */
2760:HANcoder_E407_TTA_CombineModel.c ****     /* Constant: '<S13>/Constant5' */
2761:HANcoder_E407_TTA_CombineModel.c ****     /* Disable for Triggered SubSystem: '<S13>/TRCK1_ID3_TX' */
2762:HANcoder_E407_TTA_CombineModel.c ****     /* Constant: '<S13>/Constant26' */
2763:HANcoder_E407_TTA_CombineModel.c ****     /* Disable for Enabled SubSystem: '<S13>/TRCK1_RX' */
2764:HANcoder_E407_TTA_CombineModel.c ****     if (rtDWork.TRCK1_RX_MODE) {
 3234              		.loc 1 2764 5 is_stmt 1 view .LVU1091
 3235              		.loc 1 2764 8 is_stmt 0 view .LVU1092
 3236 0748 94F87330 		ldrb	r3, [r4, #115]	@ zero_extendqisi2
 3237 074c 13B1     		cbz	r3, .L196
2765:HANcoder_E407_TTA_CombineModel.c ****       rtDWork.TRCK1_RX_MODE = false;
 3238              		.loc 1 2765 7 is_stmt 1 view .LVU1093
 3239              		.loc 1 2765 29 is_stmt 0 view .LVU1094
 3240 074e 0023     		movs	r3, #0
 3241 0750 84F87330 		strb	r3, [r4, #115]
 3242              	.L196:
2766:HANcoder_E407_TTA_CombineModel.c ****     }
2767:HANcoder_E407_TTA_CombineModel.c **** 
2768:HANcoder_E407_TTA_CombineModel.c ****     /* End of Disable for SubSystem: '<S13>/TRCK1_RX' */
2769:HANcoder_E407_TTA_CombineModel.c **** 
2770:HANcoder_E407_TTA_CombineModel.c ****     /* Disable for Triggered SubSystem: '<S13>/TRCK1_TX' */
2771:HANcoder_E407_TTA_CombineModel.c ****     /* Constant: '<S13>/Constant3' */
2772:HANcoder_E407_TTA_CombineModel.c ****     /* Disable for Enabled SubSystem: '<S13>/TRCK_ID3_RX' */
2773:HANcoder_E407_TTA_CombineModel.c ****     if (rtDWork.TRCK_ID3_RX_MODE) {
 3243              		.loc 1 2773 5 is_stmt 1 view .LVU1095
 3244              		.loc 1 2773 8 is_stmt 0 view .LVU1096
 3245 0754 94F87230 		ldrb	r3, [r4, #114]	@ zero_extendqisi2
 3246 0758 13B1     		cbz	r3, .L197
2774:HANcoder_E407_TTA_CombineModel.c ****       rtDWork.TRCK_ID3_RX_MODE = false;
 3247              		.loc 1 2774 7 is_stmt 1 view .LVU1097
 3248              		.loc 1 2774 32 is_stmt 0 view .LVU1098
 3249 075a 0023     		movs	r3, #0
 3250 075c 84F87230 		strb	r3, [r4, #114]
 3251              	.L197:
2775:HANcoder_E407_TTA_CombineModel.c ****     }
2776:HANcoder_E407_TTA_CombineModel.c **** 
2777:HANcoder_E407_TTA_CombineModel.c ****     /* End of Disable for SubSystem: '<S13>/TRCK_ID3_RX' */
2778:HANcoder_E407_TTA_CombineModel.c **** 
2779:HANcoder_E407_TTA_CombineModel.c ****     /* Disable for Enabled SubSystem: '<S13>/TRLS_ID4_RX' */
2780:HANcoder_E407_TTA_CombineModel.c ****     if (rtDWork.TRLS_ID4_RX_MODE) {
 3252              		.loc 1 2780 5 is_stmt 1 view .LVU1099
 3253              		.loc 1 2780 8 is_stmt 0 view .LVU1100
 3254 0760 94F87130 		ldrb	r3, [r4, #113]	@ zero_extendqisi2
 3255 0764 13B1     		cbz	r3, .L198
2781:HANcoder_E407_TTA_CombineModel.c ****       rtDWork.TRLS_ID4_RX_MODE = false;
 3256              		.loc 1 2781 7 is_stmt 1 view .LVU1101
 3257              		.loc 1 2781 32 is_stmt 0 view .LVU1102
 3258 0766 0023     		movs	r3, #0
 3259 0768 84F87130 		strb	r3, [r4, #113]
 3260              	.L198:
2782:HANcoder_E407_TTA_CombineModel.c ****     }
2783:HANcoder_E407_TTA_CombineModel.c **** 
2784:HANcoder_E407_TTA_CombineModel.c ****     /* End of Disable for SubSystem: '<S13>/TRLS_ID4_RX' */
2785:HANcoder_E407_TTA_CombineModel.c ****     /* Disable for Enabled SubSystem: '<S13>/TRLS_ID5_RX' */
2786:HANcoder_E407_TTA_CombineModel.c ****     if (rtDWork.TRLS_ID5_RX_MODE) {
 3261              		.loc 1 2786 5 is_stmt 1 view .LVU1103
 3262              		.loc 1 2786 8 is_stmt 0 view .LVU1104
 3263 076c 94F87030 		ldrb	r3, [r4, #112]	@ zero_extendqisi2
 3264 0770 002B     		cmp	r3, #0
 3265 0772 40F01084 		bne	.L358
 3266              	.L199:
2787:HANcoder_E407_TTA_CombineModel.c ****       rtDWork.TRLS_ID5_RX_MODE = false;
2788:HANcoder_E407_TTA_CombineModel.c ****     }
2789:HANcoder_E407_TTA_CombineModel.c **** 
2790:HANcoder_E407_TTA_CombineModel.c ****     /* End of Disable for SubSystem: '<S13>/TRLS_ID5_RX' */
2791:HANcoder_E407_TTA_CombineModel.c ****     rtDWork.Messageselector_MODE = false;
 3267              		.loc 1 2791 5 is_stmt 1 view .LVU1105
 3268              		.loc 1 2791 34 is_stmt 0 view .LVU1106
 3269 0776 0023     		movs	r3, #0
 3270 0778 84F86F30 		strb	r3, [r4, #111]
 3271              	.L346:
2792:HANcoder_E407_TTA_CombineModel.c ****   }
2793:HANcoder_E407_TTA_CombineModel.c **** 
2794:HANcoder_E407_TTA_CombineModel.c ****   /* End of Outputs for SubSystem: '<S1>/Message selector' */
2795:HANcoder_E407_TTA_CombineModel.c **** 
2796:HANcoder_E407_TTA_CombineModel.c ****   /* Outputs for Triggered SubSystem: '<S15>/Subsystem' incorporates:
2797:HANcoder_E407_TTA_CombineModel.c ****    *  TriggerPort: '<S360>/Trigger'
2798:HANcoder_E407_TTA_CombineModel.c ****    */
2799:HANcoder_E407_TTA_CombineModel.c ****   if (rtb_AND && (rtPrevZCSigState.Subsystem_Trig_ZCE != POS_ZCSIG)) {
2800:HANcoder_E407_TTA_CombineModel.c ****     /* DataStoreWrite: '<S360>/Data Store Write1' incorporates:
2801:HANcoder_E407_TTA_CombineModel.c ****      *  Constant: '<S360>/Constant1'
2802:HANcoder_E407_TTA_CombineModel.c ****      */
2803:HANcoder_E407_TTA_CombineModel.c ****     rtDWork.Local_Ticks = ((uint8_T)0U);
2804:HANcoder_E407_TTA_CombineModel.c **** 
2805:HANcoder_E407_TTA_CombineModel.c ****     /* DataStoreWrite: '<S360>/Data Store Write' incorporates:
2806:HANcoder_E407_TTA_CombineModel.c ****      *  Constant: '<S360>/Constant3'
2807:HANcoder_E407_TTA_CombineModel.c ****      */
2808:HANcoder_E407_TTA_CombineModel.c ****     rtDWork.SlotTime = slotTime;
2809:HANcoder_E407_TTA_CombineModel.c ****   }
2810:HANcoder_E407_TTA_CombineModel.c **** 
2811:HANcoder_E407_TTA_CombineModel.c ****   rtPrevZCSigState.Subsystem_Trig_ZCE = rtb_AND;
2812:HANcoder_E407_TTA_CombineModel.c **** 
2813:HANcoder_E407_TTA_CombineModel.c ****   /* End of Outputs for SubSystem: '<S15>/Subsystem' */
2814:HANcoder_E407_TTA_CombineModel.c **** 
2815:HANcoder_E407_TTA_CombineModel.c ****   /* Outputs for Enabled SubSystem: '<S15>/Subsystem2' incorporates:
2816:HANcoder_E407_TTA_CombineModel.c ****    *  EnablePort: '<S361>/Enable'
2817:HANcoder_E407_TTA_CombineModel.c ****    */
2818:HANcoder_E407_TTA_CombineModel.c ****   /* Logic: '<S15>/AND1' incorporates:
2819:HANcoder_E407_TTA_CombineModel.c ****    *  Constant: '<S15>/Constant1'
2820:HANcoder_E407_TTA_CombineModel.c ****    *  DataStoreRead: '<S15>/Data Store Read'
2821:HANcoder_E407_TTA_CombineModel.c ****    *  DataStoreRead: '<S15>/Data Store Read1'
2822:HANcoder_E407_TTA_CombineModel.c ****    *  Logic: '<S15>/NOT'
2823:HANcoder_E407_TTA_CombineModel.c ****    *  RelationalOperator: '<S15>/GreaterThan'
2824:HANcoder_E407_TTA_CombineModel.c ****    */
2825:HANcoder_E407_TTA_CombineModel.c ****   if ((rtDWork.nodeRole > ((uint8_T)1U)) && (!rtDWork.slaveClockOn)) {
 3272              		.loc 1 2825 15 view .LVU1107
 3273 077c 94F86330 		ldrb	r3, [r4, #99]	@ zero_extendqisi2
 3274              	.L190:
2799:HANcoder_E407_TTA_CombineModel.c ****     /* DataStoreWrite: '<S360>/Data Store Write1' incorporates:
 3275              		.loc 1 2799 3 is_stmt 1 view .LVU1108
2799:HANcoder_E407_TTA_CombineModel.c ****     /* DataStoreWrite: '<S360>/Data Store Write1' incorporates:
 3276              		.loc 1 2799 6 is_stmt 0 view .LVU1109
 3277 0780 089A     		ldr	r2, [sp, #32]
 3278 0782 52B1     		cbz	r2, .L200
2799:HANcoder_E407_TTA_CombineModel.c ****     /* DataStoreWrite: '<S360>/Data Store Write1' incorporates:
 3279              		.loc 1 2799 15 discriminator 1 view .LVU1110
 3280 0784 9AF80120 		ldrb	r2, [r10, #1]	@ zero_extendqisi2
 3281 0788 012A     		cmp	r2, #1
 3282 078a 06D0     		beq	.L200
2803:HANcoder_E407_TTA_CombineModel.c **** 
 3283              		.loc 1 2803 5 is_stmt 1 view .LVU1111
2808:HANcoder_E407_TTA_CombineModel.c ****   }
 3284              		.loc 1 2808 22 is_stmt 0 view .LVU1112
 3285 078c C24A     		ldr	r2, .L383
 3286 078e 1278     		ldrb	r2, [r2]	@ zero_extendqisi2
 3287 0790 84F86520 		strb	r2, [r4, #101]
2803:HANcoder_E407_TTA_CombineModel.c **** 
 3288              		.loc 1 2803 25 view .LVU1113
 3289 0794 0022     		movs	r2, #0
 3290 0796 84F86220 		strb	r2, [r4, #98]
2808:HANcoder_E407_TTA_CombineModel.c ****   }
 3291              		.loc 1 2808 5 is_stmt 1 view .LVU1114
 3292              	.L200:
2811:HANcoder_E407_TTA_CombineModel.c **** 
 3293              		.loc 1 2811 3 view .LVU1115
2811:HANcoder_E407_TTA_CombineModel.c **** 
 3294              		.loc 1 2811 39 is_stmt 0 view .LVU1116
 3295 079a 079A     		ldr	r2, [sp, #28]
 3296 079c 8AF80120 		strb	r2, [r10, #1]
 3297              		.loc 1 2825 3 is_stmt 1 view .LVU1117
 3298              		.loc 1 2825 6 is_stmt 0 view .LVU1118
 3299 07a0 012B     		cmp	r3, #1
 3300 07a2 04D9     		bls	.L201
 3301              		.loc 1 2825 42 discriminator 1 view .LVU1119
 3302 07a4 94F86620 		ldrb	r2, [r4, #102]	@ zero_extendqisi2
 3303 07a8 002A     		cmp	r2, #0
 3304 07aa 00F0D184 		beq	.L359
 3305              	.L201:
2826:HANcoder_E407_TTA_CombineModel.c ****     rtDWork.Subsystem2_MODE = true;
2827:HANcoder_E407_TTA_CombineModel.c **** 
2828:HANcoder_E407_TTA_CombineModel.c ****     /* M-S-Function: '<S362>/S-Function' incorporates:
2829:HANcoder_E407_TTA_CombineModel.c ****      *  Constant: '<S361>/Constant10'
2830:HANcoder_E407_TTA_CombineModel.c ****      */
2831:HANcoder_E407_TTA_CombineModel.c **** 
2832:HANcoder_E407_TTA_CombineModel.c ****     /* read the message data and store the new parameter */
2833:HANcoder_E407_TTA_CombineModel.c ****     rtb_SFunction_o1 = CanIoGetMessage(0, SYNC1_ID, NULL,
2834:HANcoder_E407_TTA_CombineModel.c ****       &canRxData_0_SYNC1_ID.uint8_T_info[0], NULL);
2835:HANcoder_E407_TTA_CombineModel.c **** 
2836:HANcoder_E407_TTA_CombineModel.c ****     /* process the message data */
2837:HANcoder_E407_TTA_CombineModel.c ****     if (rtb_SFunction_o1 > 0) {
2838:HANcoder_E407_TTA_CombineModel.c ****       /* read the data */
2839:HANcoder_E407_TTA_CombineModel.c ****       rtb_SFunction_o2 = canRxData_0_SYNC1_ID.uint8_T_info[0];
2840:HANcoder_E407_TTA_CombineModel.c ****       rtb_SFunction_o3 = canRxData_0_SYNC1_ID.uint8_T_info[1];
2841:HANcoder_E407_TTA_CombineModel.c ****       rtb_SFunction_o4 = canRxData_0_SYNC1_ID.uint8_T_info[2];
2842:HANcoder_E407_TTA_CombineModel.c ****       rtb_SFunction_o5 = canRxData_0_SYNC1_ID.uint8_T_info[3];
2843:HANcoder_E407_TTA_CombineModel.c ****       rtb_SFunction_o6 = canRxData_0_SYNC1_ID.uint8_T_info[4];
2844:HANcoder_E407_TTA_CombineModel.c ****       rtb_SFunction_o7 = canRxData_0_SYNC1_ID.uint8_T_info[5];
2845:HANcoder_E407_TTA_CombineModel.c ****       rtb_SFunction_o8 = canRxData_0_SYNC1_ID.uint8_T_info[6];
2846:HANcoder_E407_TTA_CombineModel.c ****       rtb_SFunction_o9 = canRxData_0_SYNC1_ID.uint8_T_info[7];
2847:HANcoder_E407_TTA_CombineModel.c ****     }
2848:HANcoder_E407_TTA_CombineModel.c **** 
2849:HANcoder_E407_TTA_CombineModel.c ****     /* Outputs for Enabled SubSystem: '<S362>/Enabled Subsystem' */
2850:HANcoder_E407_TTA_CombineModel.c ****     EnabledSubsystem(rtb_SFunction_o1, rtb_SFunction_o2, rtb_SFunction_o3,
2851:HANcoder_E407_TTA_CombineModel.c ****                      rtb_SFunction_o4, rtb_SFunction_o5, rtb_SFunction_o6,
2852:HANcoder_E407_TTA_CombineModel.c ****                      rtb_SFunction_o7, rtb_SFunction_o8, rtb_SFunction_o9,
2853:HANcoder_E407_TTA_CombineModel.c ****                      &rtB.EnabledSubsystem_i);
2854:HANcoder_E407_TTA_CombineModel.c **** 
2855:HANcoder_E407_TTA_CombineModel.c ****     /* End of Outputs for SubSystem: '<S362>/Enabled Subsystem' */
2856:HANcoder_E407_TTA_CombineModel.c **** 
2857:HANcoder_E407_TTA_CombineModel.c ****     /* Outputs for Triggered SubSystem: '<S361>/Subsystem1' incorporates:
2858:HANcoder_E407_TTA_CombineModel.c ****      *  TriggerPort: '<S363>/Trigger'
2859:HANcoder_E407_TTA_CombineModel.c ****      */
2860:HANcoder_E407_TTA_CombineModel.c ****     zcEvent = rt_I32ZCFcn(RISING_ZERO_CROSSING,
2861:HANcoder_E407_TTA_CombineModel.c ****                           &rtPrevZCSigState.Subsystem1_Trig_ZCE,
2862:HANcoder_E407_TTA_CombineModel.c ****                           (rtb_SFunction_o1));
2863:HANcoder_E407_TTA_CombineModel.c ****     if (zcEvent != NO_ZCEVENT) {
2864:HANcoder_E407_TTA_CombineModel.c ****       /* DataStoreWrite: '<S363>/Data Store Write' */
2865:HANcoder_E407_TTA_CombineModel.c ****       rtDWork.SlotTime = rtB.EnabledSubsystem_i.In1;
2866:HANcoder_E407_TTA_CombineModel.c **** 
2867:HANcoder_E407_TTA_CombineModel.c ****       /* DataStoreWrite: '<S363>/Data Store Write1' incorporates:
2868:HANcoder_E407_TTA_CombineModel.c ****        *  Constant: '<S363>/Constant'
2869:HANcoder_E407_TTA_CombineModel.c ****        */
2870:HANcoder_E407_TTA_CombineModel.c ****       rtDWork.Local_Ticks = ((uint8_T)0U);
2871:HANcoder_E407_TTA_CombineModel.c **** 
2872:HANcoder_E407_TTA_CombineModel.c ****       /* DataStoreWrite: '<S363>/Data Store Write2' incorporates:
2873:HANcoder_E407_TTA_CombineModel.c ****        *  Constant: '<S363>/Constant1'
2874:HANcoder_E407_TTA_CombineModel.c ****        */
2875:HANcoder_E407_TTA_CombineModel.c ****       rtDWork.slaveClockOn = true;
2876:HANcoder_E407_TTA_CombineModel.c **** 
2877:HANcoder_E407_TTA_CombineModel.c ****       /* DataStoreWrite: '<S363>/Data Store Write3' incorporates:
2878:HANcoder_E407_TTA_CombineModel.c ****        *  Constant: '<S363>/Constant2'
2879:HANcoder_E407_TTA_CombineModel.c ****        */
2880:HANcoder_E407_TTA_CombineModel.c ****       rtDWork.slot = ((uint8_T)1U);
2881:HANcoder_E407_TTA_CombineModel.c ****     }
2882:HANcoder_E407_TTA_CombineModel.c **** 
2883:HANcoder_E407_TTA_CombineModel.c ****     /* End of Outputs for SubSystem: '<S361>/Subsystem1' */
2884:HANcoder_E407_TTA_CombineModel.c ****   } else if (rtDWork.Subsystem2_MODE) {
 3306              		.loc 1 2884 10 is_stmt 1 view .LVU1120
 3307              		.loc 1 2884 13 is_stmt 0 view .LVU1121
 3308 07ae 94F86E30 		ldrb	r3, [r4, #110]	@ zero_extendqisi2
 3309 07b2 13B1     		cbz	r3, .L204
2885:HANcoder_E407_TTA_CombineModel.c ****     rtDWork.Subsystem2_MODE = false;
 3310              		.loc 1 2885 5 is_stmt 1 view .LVU1122
 3311              		.loc 1 2885 29 is_stmt 0 view .LVU1123
 3312 07b4 0023     		movs	r3, #0
 3313 07b6 84F86E30 		strb	r3, [r4, #110]
 3314              	.L204:
2886:HANcoder_E407_TTA_CombineModel.c ****   }
2887:HANcoder_E407_TTA_CombineModel.c **** 
2888:HANcoder_E407_TTA_CombineModel.c ****   /* End of Logic: '<S15>/AND1' */
2889:HANcoder_E407_TTA_CombineModel.c ****   /* End of Outputs for SubSystem: '<S15>/Subsystem2' */
2890:HANcoder_E407_TTA_CombineModel.c **** 
2891:HANcoder_E407_TTA_CombineModel.c ****   /* M-S-Function: '<S7>/Level-2 M-file S-Function' */
2892:HANcoder_E407_TTA_CombineModel.c ****   /* read from digital input */
2893:HANcoder_E407_TTA_CombineModel.c ****   rtb_Level2MfileSFunction_j = DiginGet(DIGIN_PORTG_PIN12);
 3315              		.loc 1 2893 3 is_stmt 1 view .LVU1124
 3316              		.loc 1 2893 32 is_stmt 0 view .LVU1125
 3317 07ba 0E20     		movs	r0, #14
 3318 07bc FFF7FEFF 		bl	DiginGet
 3319              	.LVL256:
 3320 07c0 0546     		mov	r5, r0
 3321              	.LVL257:
2894:HANcoder_E407_TTA_CombineModel.c **** 
2895:HANcoder_E407_TTA_CombineModel.c ****   /* Gain: '<S1>/Multiply' */
2896:HANcoder_E407_TTA_CombineModel.c ****   rtb_Multiply = (uint8_T)(rtb_Level2MfileSFunction_j ? (int32_T)((uint32_T)
 3322              		.loc 1 2896 3 is_stmt 1 view .LVU1126
 3323              		.loc 1 2896 18 is_stmt 0 view .LVU1127
 3324 07c2 003D     		subs	r5, r5, #0
 3325              	.LVL258:
2897:HANcoder_E407_TTA_CombineModel.c ****     ((uint8_T)128U) >> 7) : 0);
2898:HANcoder_E407_TTA_CombineModel.c **** 
2899:HANcoder_E407_TTA_CombineModel.c ****   /* M-S-Function: '<S8>/Level-2 M-file S-Function' */
2900:HANcoder_E407_TTA_CombineModel.c ****   /* read from digital input */
2901:HANcoder_E407_TTA_CombineModel.c ****   rtb_Level2MfileSFunction_j = DiginGet(DIGIN_PORTG_PIN15);
 3326              		.loc 1 2901 32 view .LVU1128
 3327 07c4 4FF00F00 		mov	r0, #15
2896:HANcoder_E407_TTA_CombineModel.c ****     ((uint8_T)128U) >> 7) : 0);
 3328              		.loc 1 2896 18 view .LVU1129
 3329 07c8 18BF     		it	ne
 3330 07ca 0125     		movne	r5, #1
 3331              	.LVL259:
 3332              		.loc 1 2901 3 is_stmt 1 view .LVU1130
 3333              		.loc 1 2901 32 is_stmt 0 view .LVU1131
 3334 07cc FFF7FEFF 		bl	DiginGet
 3335              	.LVL260:
2902:HANcoder_E407_TTA_CombineModel.c **** 
2903:HANcoder_E407_TTA_CombineModel.c ****   /* Gain: '<S1>/Multiply1' */
2904:HANcoder_E407_TTA_CombineModel.c ****   rtb_Multiply1 = (uint8_T)(rtb_Level2MfileSFunction_j ? (int32_T)((uint32_T)
 3336              		.loc 1 2904 3 is_stmt 1 view .LVU1132
 3337              		.loc 1 2904 19 is_stmt 0 view .LVU1133
 3338 07d0 00B1     		cbz	r0, .L206
2905:HANcoder_E407_TTA_CombineModel.c ****     ((uint8_T)128U) >> 6) : 0);
2906:HANcoder_E407_TTA_CombineModel.c **** 
2907:HANcoder_E407_TTA_CombineModel.c ****   /* M-S-Function: '<S9>/Level-2 M-file S-Function' */
2908:HANcoder_E407_TTA_CombineModel.c ****   /* read from digital input */
2909:HANcoder_E407_TTA_CombineModel.c ****   rtb_Level2MfileSFunction_j = DiginGet(DIGIN_PORTA_PIN4);
2910:HANcoder_E407_TTA_CombineModel.c **** 
2911:HANcoder_E407_TTA_CombineModel.c ****   /* Sum: '<S1>/Add' incorporates:
2912:HANcoder_E407_TTA_CombineModel.c ****    *  DataStoreWrite: '<S1>/Data Store Write'
2913:HANcoder_E407_TTA_CombineModel.c ****    *  Gain: '<S1>/Multiply2'
2914:HANcoder_E407_TTA_CombineModel.c ****    */
2915:HANcoder_E407_TTA_CombineModel.c ****   rtDWork.nodeRole = (uint8_T)(((uint32_T)rtb_Multiply + rtb_Multiply1) +
 3339              		.loc 1 2915 56 view .LVU1134
 3340 07d2 0235     		adds	r5, r5, #2
 3341              	.LVL261:
 3342              	.L206:
2909:HANcoder_E407_TTA_CombineModel.c **** 
 3343              		.loc 1 2909 3 is_stmt 1 discriminator 4 view .LVU1135
2909:HANcoder_E407_TTA_CombineModel.c **** 
 3344              		.loc 1 2909 32 is_stmt 0 discriminator 4 view .LVU1136
 3345 07d4 1020     		movs	r0, #16
 3346              	.LVL262:
2909:HANcoder_E407_TTA_CombineModel.c **** 
 3347              		.loc 1 2909 32 discriminator 4 view .LVU1137
 3348 07d6 FFF7FEFF 		bl	DiginGet
 3349              	.LVL263:
 3350              		.loc 1 2915 3 is_stmt 1 discriminator 4 view .LVU1138
 3351              		.loc 1 2915 22 is_stmt 0 discriminator 4 view .LVU1139
 3352 07da 08B1     		cbz	r0, .L207
 3353              		.loc 1 2915 22 view .LVU1140
 3354 07dc 0435     		adds	r5, r5, #4
 3355 07de EDB2     		uxtb	r5, r5
 3356              	.L207:
 3357              		.loc 1 2915 20 discriminator 4 view .LVU1141
 3358 07e0 84F86350 		strb	r5, [r4, #99]
2916:HANcoder_E407_TTA_CombineModel.c ****     (uint32_T)(rtb_Level2MfileSFunction_j ? (int32_T)((uint32_T)((uint8_T)128U) >>
2917:HANcoder_E407_TTA_CombineModel.c ****     5) : 0));
2918:HANcoder_E407_TTA_CombineModel.c **** 
2919:HANcoder_E407_TTA_CombineModel.c ****   /* M-S-Function: '<S365>/Level-2 M-file S-Function' */
2920:HANcoder_E407_TTA_CombineModel.c ****   /* read the current CPU load */
2921:HANcoder_E407_TTA_CombineModel.c ****   SI_CPUload = OsGetCpuLoad();
 3359              		.loc 1 2921 3 is_stmt 1 discriminator 4 view .LVU1142
 3360              		.loc 1 2921 16 is_stmt 0 discriminator 4 view .LVU1143
 3361 07e4 FFF7FEFF 		bl	OsGetCpuLoad
 3362              	.LVL264:
 3363              		.loc 1 2921 14 discriminator 4 view .LVU1144
 3364 07e8 AC4B     		ldr	r3, .L383+4
 3365 07ea 1870     		strb	r0, [r3]
2922:HANcoder_E407_TTA_CombineModel.c **** 
2923:HANcoder_E407_TTA_CombineModel.c ****   /* M-S-Function: '<S366>/Level-2 M-file S-Function' */
2924:HANcoder_E407_TTA_CombineModel.c ****   /* read the free heap size */
2925:HANcoder_E407_TTA_CombineModel.c ****   SI_FreeHeap = OsGetFreeHeapSize();
 3366              		.loc 1 2925 3 is_stmt 1 discriminator 4 view .LVU1145
 3367              		.loc 1 2925 17 is_stmt 0 discriminator 4 view .LVU1146
 3368 07ec FFF7FEFF 		bl	OsGetFreeHeapSize
 3369              	.LVL265:
 3370              		.loc 1 2925 15 discriminator 4 view .LVU1147
 3371 07f0 AB4B     		ldr	r3, .L383+8
 3372              		.loc 1 2925 17 discriminator 4 view .LVU1148
 3373 07f2 0246     		mov	r2, r0
2926:HANcoder_E407_TTA_CombineModel.c **** 
2927:HANcoder_E407_TTA_CombineModel.c ****   /* M-S-Function: '<S367>/Level-2 M-file S-Function' */
2928:HANcoder_E407_TTA_CombineModel.c ****   /* read the task's free stack size */
2929:HANcoder_E407_TTA_CombineModel.c ****   SI_FreeStack = OsGetTaskFreeStackSize("AppCtrlTask");
 3374              		.loc 1 2929 18 discriminator 4 view .LVU1149
 3375 07f4 AB48     		ldr	r0, .L383+12
2925:HANcoder_E407_TTA_CombineModel.c **** 
 3376              		.loc 1 2925 15 discriminator 4 view .LVU1150
 3377 07f6 1A60     		str	r2, [r3]
 3378              		.loc 1 2929 3 is_stmt 1 discriminator 4 view .LVU1151
 3379              		.loc 1 2929 18 is_stmt 0 discriminator 4 view .LVU1152
 3380 07f8 FFF7FEFF 		bl	OsGetTaskFreeStackSize
 3381              	.LVL266:
 3382              		.loc 1 2929 16 discriminator 4 view .LVU1153
 3383 07fc AA4B     		ldr	r3, .L383+16
 3384 07fe 1860     		str	r0, [r3]
2930:HANcoder_E407_TTA_CombineModel.c **** }
 3385              		.loc 1 2930 1 discriminator 4 view .LVU1154
 3386 0800 0BB0     		add	sp, sp, #44
 3387              		.cfi_remember_state
 3388              		.cfi_def_cfa_offset 68
 3389              		@ sp needed
 3390 0802 BDEC088B 		vldm	sp!, {d8-d11}
 3391              		.cfi_restore 86
 3392              		.cfi_restore 87
 3393              		.cfi_restore 84
 3394              		.cfi_restore 85
 3395              		.cfi_restore 82
 3396              		.cfi_restore 83
 3397              		.cfi_restore 80
 3398              		.cfi_restore 81
 3399              		.cfi_def_cfa_offset 36
 3400 0806 BDE8F08F 		pop	{r4, r5, r6, r7, r8, r9, r10, fp, pc}
 3401              	.L349:
 3402              		.cfi_restore_state
1094:HANcoder_E407_TTA_CombineModel.c ****   }
 3403              		.loc 1 1094 5 is_stmt 1 view .LVU1155
1094:HANcoder_E407_TTA_CombineModel.c ****   }
 3404              		.loc 1 1094 42 is_stmt 0 view .LVU1156
 3405 080a 84F87600 		strb	r0, [r4, #118]
 3406 080e 0BE4     		b	.L119
 3407              	.LVL267:
 3408              	.L351:
1130:HANcoder_E407_TTA_CombineModel.c ****     /* DataStoreRead: '<S5>/Data Store Read' */
 3409              		.loc 1 1130 3 is_stmt 1 view .LVU1157
1364:HANcoder_E407_TTA_CombineModel.c **** 
 3410              		.loc 1 1364 3 view .LVU1158
1364:HANcoder_E407_TTA_CombineModel.c **** 
 3411              		.loc 1 1364 46 is_stmt 0 view .LVU1159
 3412 0810 DFF8DCA2 		ldr	r10, .L383+88
 3413 0814 0023     		movs	r3, #0
 3414 0816 8AF80C30 		strb	r3, [r10, #12]
 3415              	.LVL268:
 3416              	.L344:
1371:HANcoder_E407_TTA_CombineModel.c ****     /* CombinatorialLogic: '<S90>/Logic' incorporates:
 3417              		.loc 1 1371 3 is_stmt 1 view .LVU1160
1640:HANcoder_E407_TTA_CombineModel.c **** 
 3418              		.loc 1 1640 3 view .LVU1161
 3419 081a A44E     		ldr	r6, .L383+20
1640:HANcoder_E407_TTA_CombineModel.c **** 
 3420              		.loc 1 1640 41 is_stmt 0 view .LVU1162
 3421 081c 8AF80B30 		strb	r3, [r10, #11]
1651:HANcoder_E407_TTA_CombineModel.c ****     rtDWork.Messageselector_MODE = true;
 3422              		.loc 1 1651 3 is_stmt 1 view .LVU1163
1651:HANcoder_E407_TTA_CombineModel.c ****     rtDWork.Messageselector_MODE = true;
 3423              		.loc 1 1651 6 is_stmt 0 view .LVU1164
 3424 0820 3378     		ldrb	r3, [r6]	@ zero_extendqisi2
 3425 0822 002B     		cmp	r3, #0
 3426 0824 3FF476AF 		beq	.L158
 3427              	.L357:
1652:HANcoder_E407_TTA_CombineModel.c **** 
 3428              		.loc 1 1652 5 is_stmt 1 view .LVU1165
1658:HANcoder_E407_TTA_CombineModel.c **** 
 3429              		.loc 1 1658 48 is_stmt 0 view .LVU1166
 3430 0828 9BF80030 		ldrb	r3, [fp]	@ zero_extendqisi2
 3431 082c 07EE903A 		vmov	s15, r3	@ int
1664:HANcoder_E407_TTA_CombineModel.c **** 
 3432              		.loc 1 1664 23 view .LVU1167
 3433 0830 94F86330 		ldrb	r3, [r4, #99]	@ zero_extendqisi2
1658:HANcoder_E407_TTA_CombineModel.c **** 
 3434              		.loc 1 1658 48 view .LVU1168
 3435 0834 F8EEE77A 		vcvt.f32.s32	s15, s15
1669:HANcoder_E407_TTA_CombineModel.c **** 
 3436              		.loc 1 1669 40 view .LVU1169
 3437 0838 F0EE006A 		vmov.f32	s13, #2.0e+0
1664:HANcoder_E407_TTA_CombineModel.c **** 
 3438              		.loc 1 1664 33 view .LVU1170
 3439 083c 07EE103A 		vmov	s14, r3	@ int
1669:HANcoder_E407_TTA_CombineModel.c **** 
 3440              		.loc 1 1669 40 view .LVU1171
 3441 0840 F4EE667A 		vcmp.f32	s15, s13
1652:HANcoder_E407_TTA_CombineModel.c **** 
 3442              		.loc 1 1652 34 view .LVU1172
 3443 0844 0126     		movs	r6, #1
1669:HANcoder_E407_TTA_CombineModel.c **** 
 3444              		.loc 1 1669 40 view .LVU1173
 3445 0846 F1EE10FA 		vmrs	APSR_nzcv, FPSCR
1664:HANcoder_E407_TTA_CombineModel.c **** 
 3446              		.loc 1 1664 33 view .LVU1174
 3447 084a B8EEC77A 		vcvt.f32.s32	s14, s14
1652:HANcoder_E407_TTA_CombineModel.c **** 
 3448              		.loc 1 1652 34 view .LVU1175
 3449 084e 84F86F60 		strb	r6, [r4, #111]
1658:HANcoder_E407_TTA_CombineModel.c **** 
 3450              		.loc 1 1658 5 is_stmt 1 view .LVU1176
 3451              	.LVL269:
1664:HANcoder_E407_TTA_CombineModel.c **** 
 3452              		.loc 1 1664 5 view .LVU1177
1669:HANcoder_E407_TTA_CombineModel.c **** 
 3453              		.loc 1 1669 5 view .LVU1178
1669:HANcoder_E407_TTA_CombineModel.c **** 
 3454              		.loc 1 1669 40 is_stmt 0 view .LVU1179
 3455 0852 40F01781 		bne	.L159
1669:HANcoder_E407_TTA_CombineModel.c **** 
 3456              		.loc 1 1669 40 discriminator 1 view .LVU1180
 3457 0856 F7EE007A 		vmov.f32	s15, #1.0e+0
 3458 085a B4EE677A 		vcmp.f32	s14, s15
 3459 085e F1EE10FA 		vmrs	APSR_nzcv, FPSCR
 3460 0862 00F09E80 		beq	.L360
 3461              	.LVL270:
1673:HANcoder_E407_TTA_CombineModel.c **** 
 3462              		.loc 1 1673 5 is_stmt 1 view .LVU1181
 3463 0866 924B     		ldr	r3, .L383+24
 3464 0868 924A     		ldr	r2, .L383+28
 3465 086a 1968     		ldr	r1, [r3]
 3466 086c 924B     		ldr	r3, .L383+32
 3467 086e 3046     		mov	r0, r6
 3468 0870 FFF7FEFF 		bl	MMBS1_RX
 3469              	.LVL271:
1678:HANcoder_E407_TTA_CombineModel.c **** 
 3470              		.loc 1 1678 5 view .LVU1182
1682:HANcoder_E407_TTA_CombineModel.c **** 
 3471              		.loc 1 1682 5 view .LVU1183
 3472              	.LBB406:
 3473              	.LBI406:
 544:HANcoder_E407_TTA_CombineModel.c **** {
 3474              		.loc 1 544 6 view .LVU1184
 3475              	.LBB407:
 549:HANcoder_E407_TTA_CombineModel.c ****     /* Update for M-S-Function: '<S117>/S-Function' */
 3476              		.loc 1 549 3 view .LVU1185
 3477              	.LBE407:
 3478              	.LBE406:
1678:HANcoder_E407_TTA_CombineModel.c **** 
 3479              		.loc 1 1678 14 is_stmt 0 view .LVU1186
 3480 0874 0023     		movs	r3, #0
 3481              	.LVL272:
 3482              	.L226:
 3483              	.LBB411:
 3484              	.LBB408:
 560:HANcoder_E407_TTA_CombineModel.c **** 
 3485              		.loc 1 560 3 is_stmt 1 view .LVU1187
 560:HANcoder_E407_TTA_CombineModel.c **** 
 3486              		.loc 1 560 31 is_stmt 0 view .LVU1188
 3487 0876 8AF80A30 		strb	r3, [r10, #10]
 3488              	.LBE408:
 3489              	.LBE411:
1690:HANcoder_E407_TTA_CombineModel.c **** 
 3490              		.loc 1 1690 5 is_stmt 1 view .LVU1189
 3491              	.LVL273:
1696:HANcoder_E407_TTA_CombineModel.c **** 
 3492              		.loc 1 1696 5 view .LVU1190
1690:HANcoder_E407_TTA_CombineModel.c **** 
 3493              		.loc 1 1690 48 is_stmt 0 view .LVU1191
 3494 087a 9BF80030 		ldrb	r3, [fp]	@ zero_extendqisi2
 3495 087e 07EE903A 		vmov	s15, r3	@ int
1696:HANcoder_E407_TTA_CombineModel.c **** 
 3496              		.loc 1 1696 23 view .LVU1192
 3497 0882 94F86330 		ldrb	r3, [r4, #99]	@ zero_extendqisi2
1690:HANcoder_E407_TTA_CombineModel.c **** 
 3498              		.loc 1 1690 48 view .LVU1193
 3499 0886 F8EEE77A 		vcvt.f32.s32	s15, s15
1701:HANcoder_E407_TTA_CombineModel.c **** 
 3500              		.loc 1 1701 40 view .LVU1194
 3501 088a F0EE086A 		vmov.f32	s13, #3.0e+0
1696:HANcoder_E407_TTA_CombineModel.c **** 
 3502              		.loc 1 1696 33 view .LVU1195
 3503 088e 07EE103A 		vmov	s14, r3	@ int
1701:HANcoder_E407_TTA_CombineModel.c **** 
 3504              		.loc 1 1701 40 view .LVU1196
 3505 0892 F4EE667A 		vcmp.f32	s15, s13
 3506 0896 F1EE10FA 		vmrs	APSR_nzcv, FPSCR
1696:HANcoder_E407_TTA_CombineModel.c **** 
 3507              		.loc 1 1696 33 view .LVU1197
 3508 089a B8EEC77A 		vcvt.f32.s32	s14, s14
 3509              	.LVL274:
1701:HANcoder_E407_TTA_CombineModel.c **** 
 3510              		.loc 1 1701 5 is_stmt 1 view .LVU1198
1701:HANcoder_E407_TTA_CombineModel.c **** 
 3511              		.loc 1 1701 40 is_stmt 0 view .LVU1199
 3512 089e 40F0E880 		bne	.L162
1701:HANcoder_E407_TTA_CombineModel.c **** 
 3513              		.loc 1 1701 40 discriminator 1 view .LVU1200
 3514 08a2 F7EE007A 		vmov.f32	s15, #1.0e+0
 3515 08a6 B4EE677A 		vcmp.f32	s14, s15
 3516 08aa F1EE10FA 		vmrs	APSR_nzcv, FPSCR
 3517 08ae 00F08D80 		beq	.L361
 3518              	.LVL275:
1705:HANcoder_E407_TTA_CombineModel.c **** 
 3519              		.loc 1 1705 5 is_stmt 1 view .LVU1201
 3520 08b2 824B     		ldr	r3, .L383+36
 3521 08b4 824A     		ldr	r2, .L383+40
 3522 08b6 1968     		ldr	r1, [r3]
 3523 08b8 824B     		ldr	r3, .L383+44
 3524 08ba 0120     		movs	r0, #1
 3525 08bc FFF7FEFF 		bl	MMBS1_RX
 3526              	.LVL276:
1710:HANcoder_E407_TTA_CombineModel.c **** 
 3527              		.loc 1 1710 5 view .LVU1202
1714:HANcoder_E407_TTA_CombineModel.c **** 
 3528              		.loc 1 1714 5 view .LVU1203
 3529              	.LBB412:
 3530              	.LBI412:
 544:HANcoder_E407_TTA_CombineModel.c **** {
 3531              		.loc 1 544 6 view .LVU1204
 3532              	.LBB413:
 549:HANcoder_E407_TTA_CombineModel.c ****     /* Update for M-S-Function: '<S117>/S-Function' */
 3533              		.loc 1 549 3 view .LVU1205
 3534              	.LBE413:
 3535              	.LBE412:
1710:HANcoder_E407_TTA_CombineModel.c **** 
 3536              		.loc 1 1710 14 is_stmt 0 view .LVU1206
 3537 08c0 0023     		movs	r3, #0
 3538              	.LVL277:
 3539              	.L225:
 3540              	.LBB418:
 3541              	.LBB414:
 560:HANcoder_E407_TTA_CombineModel.c **** 
 3542              		.loc 1 560 3 is_stmt 1 view .LVU1207
 560:HANcoder_E407_TTA_CombineModel.c **** 
 3543              		.loc 1 560 31 is_stmt 0 view .LVU1208
 3544 08c2 8AF80930 		strb	r3, [r10, #9]
 3545              	.LBE414:
 3546              	.LBE418:
1722:HANcoder_E407_TTA_CombineModel.c **** 
 3547              		.loc 1 1722 5 is_stmt 1 view .LVU1209
1722:HANcoder_E407_TTA_CombineModel.c **** 
 3548              		.loc 1 1722 48 is_stmt 0 view .LVU1210
 3549 08c6 9BF80030 		ldrb	r3, [fp]	@ zero_extendqisi2
 3550              	.LVL278:
1728:HANcoder_E407_TTA_CombineModel.c **** 
 3551              		.loc 1 1728 5 is_stmt 1 view .LVU1211
1728:HANcoder_E407_TTA_CombineModel.c **** 
 3552              		.loc 1 1728 23 is_stmt 0 view .LVU1212
 3553 08ca 94F86320 		ldrb	r2, [r4, #99]	@ zero_extendqisi2
 3554              	.LVL279:
1733:HANcoder_E407_TTA_CombineModel.c **** 
 3555              		.loc 1 1733 5 is_stmt 1 view .LVU1213
1733:HANcoder_E407_TTA_CombineModel.c **** 
 3556              		.loc 1 1733 46 is_stmt 0 view .LVU1214
 3557 08ce 012B     		cmp	r3, #1
 3558 08d0 00F09980 		beq	.L362
 3559              	.LVL280:
 3560              	.L165:
1738:HANcoder_E407_TTA_CombineModel.c ****       rtDWork.SYNC1_RX_MODE = true;
 3561              		.loc 1 1738 5 is_stmt 1 view .LVU1215
1793:HANcoder_E407_TTA_CombineModel.c ****       rtDWork.SYNC1_RX_MODE = false;
 3562              		.loc 1 1793 12 view .LVU1216
1793:HANcoder_E407_TTA_CombineModel.c ****       rtDWork.SYNC1_RX_MODE = false;
 3563              		.loc 1 1793 15 is_stmt 0 view .LVU1217
 3564 08d4 94F87510 		ldrb	r1, [r4, #117]	@ zero_extendqisi2
 3565 08d8 0029     		cmp	r1, #0
 3566 08da 40F0FA82 		bne	.L363
 3567              	.LVL281:
 3568              	.L246:
1800:HANcoder_E407_TTA_CombineModel.c **** 
 3569              		.loc 1 1800 13 view .LVU1218
 3570 08de 7A48     		ldr	r0, .L383+48
 3571 08e0 0021     		movs	r1, #0
 3572 08e2 0170     		strb	r1, [r0]
1805:HANcoder_E407_TTA_CombineModel.c ****       /* DataStoreRead: '<S104>/Data Store Read1' */
 3573              		.loc 1 1805 5 is_stmt 1 view .LVU1219
 3574              	.L222:
1844:HANcoder_E407_TTA_CombineModel.c **** 
 3575              		.loc 1 1844 5 view .LVU1220
1852:HANcoder_E407_TTA_CombineModel.c **** 
 3576              		.loc 1 1852 48 is_stmt 0 view .LVU1221
 3577 08e4 07EE903A 		vmov	s15, r3	@ int
 3578 08e8 F8EEE77A 		vcvt.f32.s32	s15, s15
1863:HANcoder_E407_TTA_CombineModel.c **** 
 3579              		.loc 1 1863 44 view .LVU1222
 3580 08ec F1EE086A 		vmov.f32	s13, #6.0e+0
1858:HANcoder_E407_TTA_CombineModel.c **** 
 3581              		.loc 1 1858 33 view .LVU1223
 3582 08f0 07EE102A 		vmov	s14, r2	@ int
1863:HANcoder_E407_TTA_CombineModel.c **** 
 3583              		.loc 1 1863 44 view .LVU1224
 3584 08f4 F4EE667A 		vcmp.f32	s15, s13
 3585 08f8 F1EE10FA 		vmrs	APSR_nzcv, FPSCR
1858:HANcoder_E407_TTA_CombineModel.c **** 
 3586              		.loc 1 1858 33 view .LVU1225
 3587 08fc B8EEC77A 		vcvt.f32.s32	s14, s14
1844:HANcoder_E407_TTA_CombineModel.c **** 
 3588              		.loc 1 1844 40 view .LVU1226
 3589 0900 8AF80710 		strb	r1, [r10, #7]
1852:HANcoder_E407_TTA_CombineModel.c **** 
 3590              		.loc 1 1852 5 is_stmt 1 view .LVU1227
 3591              	.LVL282:
1858:HANcoder_E407_TTA_CombineModel.c **** 
 3592              		.loc 1 1858 5 view .LVU1228
1863:HANcoder_E407_TTA_CombineModel.c **** 
 3593              		.loc 1 1863 5 view .LVU1229
1863:HANcoder_E407_TTA_CombineModel.c **** 
 3594              		.loc 1 1863 44 is_stmt 0 view .LVU1230
 3595 0904 40F0F880 		bne	.L169
1863:HANcoder_E407_TTA_CombineModel.c **** 
 3596              		.loc 1 1863 44 discriminator 1 view .LVU1231
 3597 0908 F0EE007A 		vmov.f32	s15, #2.0e+0
 3598 090c B4EE677A 		vcmp.f32	s14, s15
 3599 0910 F1EE10FA 		vmrs	APSR_nzcv, FPSCR
 3600 0914 00F0B783 		beq	.L364
 3601              	.LVL283:
1868:HANcoder_E407_TTA_CombineModel.c ****       rtDWork.TRCK1_ID2_RX_MODE = true;
 3602              		.loc 1 1868 5 is_stmt 1 view .LVU1232
1869:HANcoder_E407_TTA_CombineModel.c **** 
 3603              		.loc 1 1869 7 view .LVU1233
1876:HANcoder_E407_TTA_CombineModel.c ****         &canRxData_0_TRCK1_ID2.uint8_T_info[0], NULL);
 3604              		.loc 1 1876 28 is_stmt 0 view .LVU1234
 3605 0918 0022     		movs	r2, #0
 3606 091a 6C4F     		ldr	r7, .L383+52
 3607 091c 6C4E     		ldr	r6, .L383+56
 3608 091e 0092     		str	r2, [sp]
1869:HANcoder_E407_TTA_CombineModel.c **** 
 3609              		.loc 1 1869 33 view .LVU1235
 3610 0920 0123     		movs	r3, #1
 3611              	.LVL284:
1869:HANcoder_E407_TTA_CombineModel.c **** 
 3612              		.loc 1 1869 33 view .LVU1236
 3613 0922 84F87430 		strb	r3, [r4, #116]
1876:HANcoder_E407_TTA_CombineModel.c ****         &canRxData_0_TRCK1_ID2.uint8_T_info[0], NULL);
 3614              		.loc 1 1876 7 is_stmt 1 view .LVU1237
1876:HANcoder_E407_TTA_CombineModel.c ****         &canRxData_0_TRCK1_ID2.uint8_T_info[0], NULL);
 3615              		.loc 1 1876 28 is_stmt 0 view .LVU1238
 3616 0926 3168     		ldr	r1, [r6]
 3617 0928 3B46     		mov	r3, r7
 3618 092a 1046     		mov	r0, r2
 3619 092c FFF7FEFF 		bl	CanIoGetMessage
 3620              	.LVL285:
1880:HANcoder_E407_TTA_CombineModel.c ****         /* read the data */
 3621              		.loc 1 1880 7 is_stmt 1 view .LVU1239
1880:HANcoder_E407_TTA_CombineModel.c ****         /* read the data */
 3622              		.loc 1 1880 10 is_stmt 0 view .LVU1240
 3623 0930 0028     		cmp	r0, #0
 3624 0932 40F39D84 		ble	.L365
1882:HANcoder_E407_TTA_CombineModel.c ****         rtb_SFunction_o3_l = canRxData_0_TRCK1_ID2.uint8_T_info[1];
 3625              		.loc 1 1882 9 is_stmt 1 view .LVU1241
1882:HANcoder_E407_TTA_CombineModel.c ****         rtb_SFunction_o3_l = canRxData_0_TRCK1_ID2.uint8_T_info[1];
 3626              		.loc 1 1882 28 is_stmt 0 view .LVU1242
 3627 0936 3978     		ldrb	r1, [r7]	@ zero_extendqisi2
 3628              	.LVL286:
1883:HANcoder_E407_TTA_CombineModel.c ****         rtb_SFunction_o4_m = canRxData_0_TRCK1_ID2.uint8_T_info[2];
 3629              		.loc 1 1883 9 is_stmt 1 view .LVU1243
1883:HANcoder_E407_TTA_CombineModel.c ****         rtb_SFunction_o4_m = canRxData_0_TRCK1_ID2.uint8_T_info[2];
 3630              		.loc 1 1883 28 is_stmt 0 view .LVU1244
 3631 0938 97F801C0 		ldrb	ip, [r7, #1]	@ zero_extendqisi2
 3632              	.LVL287:
1884:HANcoder_E407_TTA_CombineModel.c ****         rtb_SFunction_o5_i = canRxData_0_TRCK1_ID2.uint8_T_info[3];
 3633              		.loc 1 1884 9 is_stmt 1 view .LVU1245
1884:HANcoder_E407_TTA_CombineModel.c ****         rtb_SFunction_o5_i = canRxData_0_TRCK1_ID2.uint8_T_info[3];
 3634              		.loc 1 1884 28 is_stmt 0 view .LVU1246
 3635 093c BA78     		ldrb	r2, [r7, #2]	@ zero_extendqisi2
 3636              	.LVL288:
1885:HANcoder_E407_TTA_CombineModel.c ****         rtb_SFunction_o6_o = canRxData_0_TRCK1_ID2.uint8_T_info[4];
 3637              		.loc 1 1885 9 is_stmt 1 view .LVU1247
1885:HANcoder_E407_TTA_CombineModel.c ****         rtb_SFunction_o6_o = canRxData_0_TRCK1_ID2.uint8_T_info[4];
 3638              		.loc 1 1885 28 is_stmt 0 view .LVU1248
 3639 093e F878     		ldrb	r0, [r7, #3]	@ zero_extendqisi2
 3640              	.LVL289:
1886:HANcoder_E407_TTA_CombineModel.c ****         rtb_SFunction_o7_j = canRxData_0_TRCK1_ID2.uint8_T_info[5];
 3641              		.loc 1 1886 9 is_stmt 1 view .LVU1249
1887:HANcoder_E407_TTA_CombineModel.c ****         rtb_SFunction_o8_d = canRxData_0_TRCK1_ID2.uint8_T_info[6];
 3642              		.loc 1 1887 9 view .LVU1250
1888:HANcoder_E407_TTA_CombineModel.c ****         rtb_SFunction_o9_lv = canRxData_0_TRCK1_ID2.uint8_T_info[7];
 3643              		.loc 1 1888 9 view .LVU1251
1888:HANcoder_E407_TTA_CombineModel.c ****         rtb_SFunction_o9_lv = canRxData_0_TRCK1_ID2.uint8_T_info[7];
 3644              		.loc 1 1888 28 is_stmt 0 view .LVU1252
 3645 0940 BB79     		ldrb	r3, [r7, #6]	@ zero_extendqisi2
 3646              	.LVL290:
1889:HANcoder_E407_TTA_CombineModel.c ****       }
 3647              		.loc 1 1889 9 is_stmt 1 view .LVU1253
1893:HANcoder_E407_TTA_CombineModel.c ****                        rtb_SFunction_o3_l, rtb_SFunction_o4_m,
 3648              		.loc 1 1893 7 view .LVU1254
 3649              	.LBB419:
 3650              	.LBI419:
 417:HANcoder_E407_TTA_CombineModel.c ****                       uint8_T rtu_In3, uint8_T rtu_In4, uint8_T rtu_In5, uint8_T
 3651              		.loc 1 417 6 view .LVU1255
 3652              	.LBB420:
 422:HANcoder_E407_TTA_CombineModel.c ****   uint8_T rtb_In6;
 3653              		.loc 1 422 3 view .LVU1256
 423:HANcoder_E407_TTA_CombineModel.c ****   uint8_T rtb_In8;
 3654              		.loc 1 423 3 view .LVU1257
 424:HANcoder_E407_TTA_CombineModel.c **** 
 3655              		.loc 1 424 3 view .LVU1258
 429:HANcoder_E407_TTA_CombineModel.c ****     /* SignalConversion generated from: '<S116>/In1' */
 3656              		.loc 1 429 3 view .LVU1259
 431:HANcoder_E407_TTA_CombineModel.c **** 
 3657              		.loc 1 431 5 view .LVU1260
 434:HANcoder_E407_TTA_CombineModel.c **** 
 3658              		.loc 1 434 5 view .LVU1261
 437:HANcoder_E407_TTA_CombineModel.c **** 
 3659              		.loc 1 437 5 view .LVU1262
 440:HANcoder_E407_TTA_CombineModel.c **** 
 3660              		.loc 1 440 5 view .LVU1263
 431:HANcoder_E407_TTA_CombineModel.c **** 
 3661              		.loc 1 431 17 is_stmt 0 view .LVU1264
 3662 0942 85F8B610 		strb	r1, [r5, #182]
 434:HANcoder_E407_TTA_CombineModel.c **** 
 3663              		.loc 1 434 17 view .LVU1265
 3664 0946 85F8B7C0 		strb	ip, [r5, #183]
 437:HANcoder_E407_TTA_CombineModel.c **** 
 3665              		.loc 1 437 17 view .LVU1266
 3666 094a 85F8B820 		strb	r2, [r5, #184]
 440:HANcoder_E407_TTA_CombineModel.c **** 
 3667              		.loc 1 440 17 view .LVU1267
 3668 094e 85F8B900 		strb	r0, [r5, #185]
 443:HANcoder_E407_TTA_CombineModel.c **** 
 3669              		.loc 1 443 5 is_stmt 1 view .LVU1268
 446:HANcoder_E407_TTA_CombineModel.c **** 
 3670              		.loc 1 446 5 view .LVU1269
 449:HANcoder_E407_TTA_CombineModel.c **** 
 3671              		.loc 1 449 5 view .LVU1270
 449:HANcoder_E407_TTA_CombineModel.c **** 
 3672              		.loc 1 449 17 is_stmt 0 view .LVU1271
 3673 0952 85F8BA30 		strb	r3, [r5, #186]
 452:HANcoder_E407_TTA_CombineModel.c ****   }
 3674              		.loc 1 452 5 is_stmt 1 view .LVU1272
 3675              	.LVL291:
 3676              	.L219:
 452:HANcoder_E407_TTA_CombineModel.c ****   }
 3677              		.loc 1 452 5 is_stmt 0 view .LVU1273
 3678              	.LBE420:
 3679              	.LBE419:
1902:HANcoder_E407_TTA_CombineModel.c **** 
 3680              		.loc 1 1902 7 is_stmt 1 view .LVU1274
1905:HANcoder_E407_TTA_CombineModel.c **** 
 3681              		.loc 1 1905 7 view .LVU1275
 3682              	.LBB421:
 3683              	.LBI421:
 578:HANcoder_E407_TTA_CombineModel.c **** {
 3684              		.loc 1 578 6 view .LVU1276
 3685              	.LBB422:
 583:HANcoder_E407_TTA_CombineModel.c **** }
 3686              		.loc 1 583 3 view .LVU1277
 3687              	.LBE422:
 3688              	.LBE421:
 3689              	.LBB425:
 3690              	.LBB426:
 583:HANcoder_E407_TTA_CombineModel.c **** }
 3691              		.loc 1 583 15 is_stmt 0 view .LVU1278
 3692 0956 1202     		lsls	r2, r2, #8
 3693              	.LBE426:
 3694              	.LBE425:
1926:HANcoder_E407_TTA_CombineModel.c ****                          rtB.EnabledSubsystem_b.In4);
 3695              		.loc 1 1926 15 view .LVU1279
 3696 0958 1044     		add	r0, r0, r2
 3697              	.LBB429:
 3698              	.LBB423:
 583:HANcoder_E407_TTA_CombineModel.c **** }
 3699              		.loc 1 583 15 view .LVU1280
 3700 095a 0902     		lsls	r1, r1, #8
 3701              	.LVL292:
 583:HANcoder_E407_TTA_CombineModel.c **** }
 3702              		.loc 1 583 15 view .LVU1281
 3703              	.LBE423:
 3704              	.LBE429:
 3705              	.LBB430:
 3706              	.LBB427:
 583:HANcoder_E407_TTA_CombineModel.c **** }
 3707              		.loc 1 583 13 view .LVU1282
 3708 095c A5F8BE20 		strh	r2, [r5, #190]	@ movhi
 3709              	.LBE427:
 3710              	.LBE430:
1912:HANcoder_E407_TTA_CombineModel.c ****                          rtB.EnabledSubsystem_b.In2);
 3711              		.loc 1 1912 13 view .LVU1283
 3712 0960 5C4A     		ldr	r2, .L383+60
 3713              	.LBB431:
 3714              	.LBB424:
 583:HANcoder_E407_TTA_CombineModel.c **** }
 3715              		.loc 1 583 13 view .LVU1284
 3716 0962 A5F8BC10 		strh	r1, [r5, #188]	@ movhi
 3717              	.LVL293:
 583:HANcoder_E407_TTA_CombineModel.c **** }
 3718              		.loc 1 583 13 view .LVU1285
 3719              	.LBE424:
 3720              	.LBE431:
1912:HANcoder_E407_TTA_CombineModel.c ****                          rtB.EnabledSubsystem_b.In2);
 3721              		.loc 1 1912 7 is_stmt 1 view .LVU1286
1912:HANcoder_E407_TTA_CombineModel.c ****                          rtB.EnabledSubsystem_b.In2);
 3722              		.loc 1 1912 15 is_stmt 0 view .LVU1287
 3723 0966 8C44     		add	ip, ip, r1
1912:HANcoder_E407_TTA_CombineModel.c ****                          rtB.EnabledSubsystem_b.In2);
 3724              		.loc 1 1912 13 view .LVU1288
 3725 0968 A2F800C0 		strh	ip, [r2]	@ movhi
1916:HANcoder_E407_TTA_CombineModel.c **** 
 3726              		.loc 1 1916 7 is_stmt 1 view .LVU1289
 3727              	.LVL294:
1919:HANcoder_E407_TTA_CombineModel.c **** 
 3728              		.loc 1 1919 7 view .LVU1290
 3729              	.LBB432:
 3730              	.LBI425:
 578:HANcoder_E407_TTA_CombineModel.c **** {
 3731              		.loc 1 578 6 view .LVU1291
 3732              	.LBB428:
 583:HANcoder_E407_TTA_CombineModel.c **** }
 3733              		.loc 1 583 3 view .LVU1292
 583:HANcoder_E407_TTA_CombineModel.c **** }
 3734              		.loc 1 583 3 is_stmt 0 view .LVU1293
 3735              	.LBE428:
 3736              	.LBE432:
1926:HANcoder_E407_TTA_CombineModel.c ****                          rtB.EnabledSubsystem_b.In4);
 3737              		.loc 1 1926 7 is_stmt 1 view .LVU1294
1926:HANcoder_E407_TTA_CombineModel.c ****                          rtB.EnabledSubsystem_b.In4);
 3738              		.loc 1 1926 13 is_stmt 0 view .LVU1295
 3739 096c 5A4A     		ldr	r2, .L383+64
 3740 096e 1080     		strh	r0, [r2]	@ movhi
1930:HANcoder_E407_TTA_CombineModel.c **** 
 3741              		.loc 1 1930 7 is_stmt 1 view .LVU1296
 3742              	.LVL295:
 3743              	.LBB433:
 3744              	.LBI433:
 599:HANcoder_E407_TTA_CombineModel.c **** {
 3745              		.loc 1 599 6 view .LVU1297
 3746              	.LBB434:
 604:HANcoder_E407_TTA_CombineModel.c **** }
 3747              		.loc 1 604 3 view .LVU1298
 604:HANcoder_E407_TTA_CombineModel.c **** }
 3748              		.loc 1 604 15 is_stmt 0 view .LVU1299
 3749 0970 5A08     		lsrs	r2, r3, #1
 604:HANcoder_E407_TTA_CombineModel.c **** }
 3750              		.loc 1 604 13 view .LVU1300
 3751 0972 85F8B520 		strb	r2, [r5, #181]
 3752              	.LVL296:
 604:HANcoder_E407_TTA_CombineModel.c **** }
 3753              		.loc 1 604 13 view .LVU1301
 3754              	.LBE434:
 3755              	.LBE433:
1935:HANcoder_E407_TTA_CombineModel.c **** 
 3756              		.loc 1 1935 7 is_stmt 1 view .LVU1302
 3757              	.LBB435:
 3758              	.LBI435:
 615:HANcoder_E407_TTA_CombineModel.c **** {
 3759              		.loc 1 615 6 view .LVU1303
 3760              	.LBB436:
 620:HANcoder_E407_TTA_CombineModel.c **** }
 3761              		.loc 1 620 3 view .LVU1304
 3762              	.LBE436:
 3763              	.LBE435:
 3764              	.LBB438:
 3765              	.LBB439:
 604:HANcoder_E407_TTA_CombineModel.c **** }
 3766              		.loc 1 604 13 is_stmt 0 view .LVU1305
 3767 0976 85F8AE20 		strb	r2, [r5, #174]
 3768              	.LBE439:
 3769              	.LBE438:
 3770              	.LBB442:
 3771              	.LBB437:
 620:HANcoder_E407_TTA_CombineModel.c **** }
 3772              		.loc 1 620 15 view .LVU1306
 3773 097a 9A08     		lsrs	r2, r3, #2
 620:HANcoder_E407_TTA_CombineModel.c **** }
 3774              		.loc 1 620 13 view .LVU1307
 3775 097c 85F8B420 		strb	r2, [r5, #180]
 3776              	.LVL297:
 620:HANcoder_E407_TTA_CombineModel.c **** }
 3777              		.loc 1 620 13 view .LVU1308
 3778              	.LBE437:
 3779              	.LBE442:
1940:HANcoder_E407_TTA_CombineModel.c **** 
 3780              		.loc 1 1940 7 is_stmt 1 view .LVU1309
 3781              	.LBB443:
 3782              	.LBI443:
 631:HANcoder_E407_TTA_CombineModel.c **** {
 3783              		.loc 1 631 6 view .LVU1310
 3784              	.LBB444:
 636:HANcoder_E407_TTA_CombineModel.c **** }
 3785              		.loc 1 636 3 view .LVU1311
 636:HANcoder_E407_TTA_CombineModel.c **** }
 3786              		.loc 1 636 15 is_stmt 0 view .LVU1312
 3787 0980 DA08     		lsrs	r2, r3, #3
 636:HANcoder_E407_TTA_CombineModel.c **** }
 3788              		.loc 1 636 13 view .LVU1313
 3789 0982 85F8B320 		strb	r2, [r5, #179]
 3790              	.LVL298:
 636:HANcoder_E407_TTA_CombineModel.c **** }
 3791              		.loc 1 636 13 view .LVU1314
 3792              	.LBE444:
 3793              	.LBE443:
1945:HANcoder_E407_TTA_CombineModel.c **** 
 3794              		.loc 1 1945 7 is_stmt 1 view .LVU1315
 3795              	.LBB445:
 3796              	.LBI445:
 647:HANcoder_E407_TTA_CombineModel.c **** {
 3797              		.loc 1 647 6 view .LVU1316
 3798              	.LBB446:
 652:HANcoder_E407_TTA_CombineModel.c **** }
 3799              		.loc 1 652 3 view .LVU1317
 652:HANcoder_E407_TTA_CombineModel.c **** }
 3800              		.loc 1 652 15 is_stmt 0 view .LVU1318
 3801 0986 1A09     		lsrs	r2, r3, #4
 652:HANcoder_E407_TTA_CombineModel.c **** }
 3802              		.loc 1 652 13 view .LVU1319
 3803 0988 85F8B220 		strb	r2, [r5, #178]
 3804              	.LVL299:
 652:HANcoder_E407_TTA_CombineModel.c **** }
 3805              		.loc 1 652 13 view .LVU1320
 3806              	.LBE446:
 3807              	.LBE445:
1950:HANcoder_E407_TTA_CombineModel.c **** 
 3808              		.loc 1 1950 7 is_stmt 1 view .LVU1321
 3809              	.LBB447:
 3810              	.LBI447:
 663:HANcoder_E407_TTA_CombineModel.c **** {
 3811              		.loc 1 663 6 view .LVU1322
 3812              	.LBB448:
 668:HANcoder_E407_TTA_CombineModel.c **** }
 3813              		.loc 1 668 3 view .LVU1323
 668:HANcoder_E407_TTA_CombineModel.c **** }
 3814              		.loc 1 668 15 is_stmt 0 view .LVU1324
 3815 098c 5A09     		lsrs	r2, r3, #5
 668:HANcoder_E407_TTA_CombineModel.c **** }
 3816              		.loc 1 668 13 view .LVU1325
 3817 098e 85F8B120 		strb	r2, [r5, #177]
 3818              	.LVL300:
 668:HANcoder_E407_TTA_CombineModel.c **** }
 3819              		.loc 1 668 13 view .LVU1326
 3820              	.LBE448:
 3821              	.LBE447:
1955:HANcoder_E407_TTA_CombineModel.c **** 
 3822              		.loc 1 1955 7 is_stmt 1 view .LVU1327
 3823              	.LBB449:
 3824              	.LBI449:
 679:HANcoder_E407_TTA_CombineModel.c **** {
 3825              		.loc 1 679 6 view .LVU1328
 3826              	.LBB450:
 684:HANcoder_E407_TTA_CombineModel.c **** }
 3827              		.loc 1 684 3 view .LVU1329
 684:HANcoder_E407_TTA_CombineModel.c **** }
 3828              		.loc 1 684 15 is_stmt 0 view .LVU1330
 3829 0992 9A09     		lsrs	r2, r3, #6
 3830              	.LBE450:
 3831              	.LBE449:
 3832              	.LBB452:
 3833              	.LBB453:
 700:HANcoder_E407_TTA_CombineModel.c **** }
 3834              		.loc 1 700 15 view .LVU1331
 3835 0994 DB09     		lsrs	r3, r3, #7
 3836              	.LBE453:
 3837              	.LBE452:
 3838              	.LBB455:
 3839              	.LBB451:
 684:HANcoder_E407_TTA_CombineModel.c **** }
 3840              		.loc 1 684 13 view .LVU1332
 3841 0996 85F8B020 		strb	r2, [r5, #176]
 3842              	.LVL301:
 684:HANcoder_E407_TTA_CombineModel.c **** }
 3843              		.loc 1 684 13 view .LVU1333
 3844              	.LBE451:
 3845              	.LBE455:
1960:HANcoder_E407_TTA_CombineModel.c **** 
 3846              		.loc 1 1960 7 is_stmt 1 view .LVU1334
 3847              	.LBB456:
 3848              	.LBI452:
 695:HANcoder_E407_TTA_CombineModel.c **** {
 3849              		.loc 1 695 6 view .LVU1335
 3850              	.LBB454:
 700:HANcoder_E407_TTA_CombineModel.c **** }
 3851              		.loc 1 700 3 view .LVU1336
 700:HANcoder_E407_TTA_CombineModel.c **** }
 3852              		.loc 1 700 13 is_stmt 0 view .LVU1337
 3853 099a 85F8AF30 		strb	r3, [r5, #175]
 3854              	.LVL302:
 700:HANcoder_E407_TTA_CombineModel.c **** }
 3855              		.loc 1 700 13 view .LVU1338
 3856              	.LBE454:
 3857              	.LBE456:
1965:HANcoder_E407_TTA_CombineModel.c **** 
 3858              		.loc 1 1965 7 is_stmt 1 view .LVU1339
 3859              	.LBB457:
 3860              	.LBI438:
 599:HANcoder_E407_TTA_CombineModel.c **** {
 3861              		.loc 1 599 6 view .LVU1340
 3862              	.LBB440:
 604:HANcoder_E407_TTA_CombineModel.c **** }
 3863              		.loc 1 604 3 view .LVU1341
 604:HANcoder_E407_TTA_CombineModel.c **** }
 3864              		.loc 1 604 3 is_stmt 0 view .LVU1342
 3865              	.LBE440:
 3866              	.LBE457:
1975:HANcoder_E407_TTA_CombineModel.c **** 
 3867              		.loc 1 1975 5 is_stmt 1 view .LVU1343
 3868              	.LBB458:
 3869              	.LBB441:
 604:HANcoder_E407_TTA_CombineModel.c **** }
 3870              		.loc 1 604 13 is_stmt 0 view .LVU1344
 3871 099e 0020     		movs	r0, #0
 3872 09a0 B1E0     		b	.L172
 3873              	.LVL303:
 3874              	.L360:
 604:HANcoder_E407_TTA_CombineModel.c **** }
 3875              		.loc 1 604 13 view .LVU1345
 3876              	.LBE441:
 3877              	.LBE458:
1673:HANcoder_E407_TTA_CombineModel.c **** 
 3878              		.loc 1 1673 5 is_stmt 1 view .LVU1346
 3879 09a2 434F     		ldr	r7, .L383+24
 3880 09a4 444B     		ldr	r3, .L383+32
 3881 09a6 434A     		ldr	r2, .L383+28
 3882 09a8 3968     		ldr	r1, [r7]
 3883 09aa 0020     		movs	r0, #0
 3884 09ac FFF7FEFF 		bl	MMBS1_RX
 3885              	.LVL304:
1678:HANcoder_E407_TTA_CombineModel.c **** 
 3886              		.loc 1 1678 5 view .LVU1347
1682:HANcoder_E407_TTA_CombineModel.c **** 
 3887              		.loc 1 1682 5 view .LVU1348
 3888              	.LBB459:
 544:HANcoder_E407_TTA_CombineModel.c **** {
 3889              		.loc 1 544 6 view .LVU1349
 3890              	.LBB409:
 549:HANcoder_E407_TTA_CombineModel.c ****     /* Update for M-S-Function: '<S117>/S-Function' */
 3891              		.loc 1 549 3 view .LVU1350
 549:HANcoder_E407_TTA_CombineModel.c ****     /* Update for M-S-Function: '<S117>/S-Function' */
 3892              		.loc 1 549 31 is_stmt 0 view .LVU1351
 3893 09b0 9AF80A30 		ldrb	r3, [r10, #10]	@ zero_extendqisi2
 549:HANcoder_E407_TTA_CombineModel.c ****     /* Update for M-S-Function: '<S117>/S-Function' */
 3894              		.loc 1 549 19 view .LVU1352
 3895 09b4 012B     		cmp	r3, #1
 3896 09b6 3FF45EAF 		beq	.L226
 553:HANcoder_E407_TTA_CombineModel.c **** 
 3897              		.loc 1 553 7 is_stmt 1 view .LVU1353
 553:HANcoder_E407_TTA_CombineModel.c **** 
 3898              		.loc 1 553 33 is_stmt 0 view .LVU1354
 3899 09ba 484B     		ldr	r3, .L383+68
 556:HANcoder_E407_TTA_CombineModel.c ****     }
 3900              		.loc 1 556 7 view .LVU1355
 3901 09bc 3968     		ldr	r1, [r7]
 553:HANcoder_E407_TTA_CombineModel.c **** 
 3902              		.loc 1 553 33 view .LVU1356
 3903 09be 0020     		movs	r0, #0
 3904 09c0 1870     		strb	r0, [r3]
 556:HANcoder_E407_TTA_CombineModel.c ****     }
 3905              		.loc 1 556 7 is_stmt 1 view .LVU1357
 3906 09c2 3246     		mov	r2, r6
 3907 09c4 FFF7FEFF 		bl	CanTransmit
 3908              	.LVL305:
 556:HANcoder_E407_TTA_CombineModel.c ****     }
 3909              		.loc 1 556 7 is_stmt 0 view .LVU1358
 3910              	.LBE409:
 3911              	.LBE459:
1678:HANcoder_E407_TTA_CombineModel.c **** 
 3912              		.loc 1 1678 14 view .LVU1359
 3913 09c8 3346     		mov	r3, r6
 3914 09ca 54E7     		b	.L226
 3915              	.LVL306:
 3916              	.L361:
1705:HANcoder_E407_TTA_CombineModel.c **** 
 3917              		.loc 1 1705 5 is_stmt 1 view .LVU1360
 3918 09cc 3B4E     		ldr	r6, .L383+36
 3919 09ce 3D4B     		ldr	r3, .L383+44
 3920 09d0 3B4A     		ldr	r2, .L383+40
 3921 09d2 3168     		ldr	r1, [r6]
 3922 09d4 0020     		movs	r0, #0
 3923 09d6 FFF7FEFF 		bl	MMBS1_RX
 3924              	.LVL307:
1710:HANcoder_E407_TTA_CombineModel.c **** 
 3925              		.loc 1 1710 5 view .LVU1361
1714:HANcoder_E407_TTA_CombineModel.c **** 
 3926              		.loc 1 1714 5 view .LVU1362
 3927              	.LBB460:
 544:HANcoder_E407_TTA_CombineModel.c **** {
 3928              		.loc 1 544 6 view .LVU1363
 3929              	.LBB415:
 549:HANcoder_E407_TTA_CombineModel.c ****     /* Update for M-S-Function: '<S117>/S-Function' */
 3930              		.loc 1 549 3 view .LVU1364
 549:HANcoder_E407_TTA_CombineModel.c ****     /* Update for M-S-Function: '<S117>/S-Function' */
 3931              		.loc 1 549 31 is_stmt 0 view .LVU1365
 3932 09da 9AF80930 		ldrb	r3, [r10, #9]	@ zero_extendqisi2
 549:HANcoder_E407_TTA_CombineModel.c ****     /* Update for M-S-Function: '<S117>/S-Function' */
 3933              		.loc 1 549 19 view .LVU1366
 3934 09de 012B     		cmp	r3, #1
 3935 09e0 3FF46FAF 		beq	.L225
 553:HANcoder_E407_TTA_CombineModel.c **** 
 3936              		.loc 1 553 7 is_stmt 1 view .LVU1367
 553:HANcoder_E407_TTA_CombineModel.c **** 
 3937              		.loc 1 553 33 is_stmt 0 view .LVU1368
 3938 09e4 3D4B     		ldr	r3, .L383+68
 556:HANcoder_E407_TTA_CombineModel.c ****     }
 3939              		.loc 1 556 7 view .LVU1369
 3940 09e6 3168     		ldr	r1, [r6]
 553:HANcoder_E407_TTA_CombineModel.c **** 
 3941              		.loc 1 553 33 view .LVU1370
 3942 09e8 0020     		movs	r0, #0
 3943 09ea 1870     		strb	r0, [r3]
 556:HANcoder_E407_TTA_CombineModel.c ****     }
 3944              		.loc 1 556 7 is_stmt 1 view .LVU1371
 3945 09ec 0122     		movs	r2, #1
 3946 09ee FFF7FEFF 		bl	CanTransmit
 3947              	.LVL308:
 556:HANcoder_E407_TTA_CombineModel.c ****     }
 3948              		.loc 1 556 7 is_stmt 0 view .LVU1372
 3949              	.LBE415:
 3950              	.LBE460:
1710:HANcoder_E407_TTA_CombineModel.c **** 
 3951              		.loc 1 1710 14 view .LVU1373
 3952 09f2 0123     		movs	r3, #1
 3953              	.LVL309:
 3954              	.LBB461:
 3955              	.LBB416:
 560:HANcoder_E407_TTA_CombineModel.c **** 
 3956              		.loc 1 560 3 is_stmt 1 view .LVU1374
 560:HANcoder_E407_TTA_CombineModel.c **** 
 3957              		.loc 1 560 31 is_stmt 0 view .LVU1375
 3958 09f4 8AF80930 		strb	r3, [r10, #9]
 3959              	.LBE416:
 3960              	.LBE461:
1722:HANcoder_E407_TTA_CombineModel.c **** 
 3961              		.loc 1 1722 5 is_stmt 1 view .LVU1376
1722:HANcoder_E407_TTA_CombineModel.c **** 
 3962              		.loc 1 1722 48 is_stmt 0 view .LVU1377
 3963 09f8 9BF80030 		ldrb	r3, [fp]	@ zero_extendqisi2
 3964              	.LVL310:
1728:HANcoder_E407_TTA_CombineModel.c **** 
 3965              		.loc 1 1728 5 is_stmt 1 view .LVU1378
1728:HANcoder_E407_TTA_CombineModel.c **** 
 3966              		.loc 1 1728 23 is_stmt 0 view .LVU1379
 3967 09fc 94F86320 		ldrb	r2, [r4, #99]	@ zero_extendqisi2
 3968              	.LVL311:
1733:HANcoder_E407_TTA_CombineModel.c **** 
 3969              		.loc 1 1733 5 is_stmt 1 view .LVU1380
1733:HANcoder_E407_TTA_CombineModel.c **** 
 3970              		.loc 1 1733 46 is_stmt 0 view .LVU1381
 3971 0a00 012B     		cmp	r3, #1
 3972 0a02 7FF467AF 		bne	.L165
 3973              	.LVL312:
 3974              	.L362:
1733:HANcoder_E407_TTA_CombineModel.c **** 
 3975              		.loc 1 1733 46 discriminator 1 view .LVU1382
 3976 0a06 012A     		cmp	r2, #1
 3977 0a08 00F07D84 		beq	.L366
 3978              	.LVL313:
1738:HANcoder_E407_TTA_CombineModel.c ****       rtDWork.SYNC1_RX_MODE = true;
 3979              		.loc 1 1738 5 is_stmt 1 view .LVU1383
1739:HANcoder_E407_TTA_CombineModel.c **** 
 3980              		.loc 1 1739 7 view .LVU1384
1739:HANcoder_E407_TTA_CombineModel.c **** 
 3981              		.loc 1 1739 29 is_stmt 0 view .LVU1385
 3982 0a0c 84F87530 		strb	r3, [r4, #117]
1746:HANcoder_E407_TTA_CombineModel.c ****         &canRxData_0_SYNC1_ID.uint8_T_info[0], NULL);
 3983              		.loc 1 1746 7 is_stmt 1 view .LVU1386
1746:HANcoder_E407_TTA_CombineModel.c ****         &canRxData_0_SYNC1_ID.uint8_T_info[0], NULL);
 3984              		.loc 1 1746 28 is_stmt 0 view .LVU1387
 3985 0a10 334E     		ldr	r6, .L383+72
 3986 0a12 344B     		ldr	r3, .L383+76
 3987 0a14 0022     		movs	r2, #0
 3988 0a16 1968     		ldr	r1, [r3]
 3989 0a18 0092     		str	r2, [sp]
 3990 0a1a 1046     		mov	r0, r2
 3991 0a1c 3346     		mov	r3, r6
 3992 0a1e FFF7FEFF 		bl	CanIoGetMessage
 3993              	.LVL314:
1750:HANcoder_E407_TTA_CombineModel.c ****         /* read the data */
 3994              		.loc 1 1750 7 is_stmt 1 view .LVU1388
1750:HANcoder_E407_TTA_CombineModel.c ****         /* read the data */
 3995              		.loc 1 1750 10 is_stmt 0 view .LVU1389
 3996 0a22 021E     		subs	r2, r0, #0
 3997 0a24 05DD     		ble	.L224
1752:HANcoder_E407_TTA_CombineModel.c ****         rtb_SFunction_o3_g = canRxData_0_SYNC1_ID.uint8_T_info[1];
 3998              		.loc 1 1752 9 is_stmt 1 view .LVU1390
 3999              	.LVL315:
1753:HANcoder_E407_TTA_CombineModel.c ****         rtb_SFunction_o4_j = canRxData_0_SYNC1_ID.uint8_T_info[2];
 4000              		.loc 1 1753 9 view .LVU1391
1754:HANcoder_E407_TTA_CombineModel.c ****         rtb_SFunction_o5_f = canRxData_0_SYNC1_ID.uint8_T_info[3];
 4001              		.loc 1 1754 9 view .LVU1392
1755:HANcoder_E407_TTA_CombineModel.c ****         rtb_SFunction_o6_gy = canRxData_0_SYNC1_ID.uint8_T_info[4];
 4002              		.loc 1 1755 9 view .LVU1393
1756:HANcoder_E407_TTA_CombineModel.c ****         rtb_SFunction_o7_k = canRxData_0_SYNC1_ID.uint8_T_info[5];
 4003              		.loc 1 1756 9 view .LVU1394
1757:HANcoder_E407_TTA_CombineModel.c ****         rtb_SFunction_o8_n = canRxData_0_SYNC1_ID.uint8_T_info[6];
 4004              		.loc 1 1757 9 view .LVU1395
1758:HANcoder_E407_TTA_CombineModel.c ****         rtb_SFunction_o9_b1 = canRxData_0_SYNC1_ID.uint8_T_info[7];
 4005              		.loc 1 1758 9 view .LVU1396
1758:HANcoder_E407_TTA_CombineModel.c ****         rtb_SFunction_o9_b1 = canRxData_0_SYNC1_ID.uint8_T_info[7];
 4006              		.loc 1 1758 28 is_stmt 0 view .LVU1397
 4007 0a26 B379     		ldrb	r3, [r6, #6]	@ zero_extendqisi2
 4008              	.LVL316:
1759:HANcoder_E407_TTA_CombineModel.c ****       }
 4009              		.loc 1 1759 9 is_stmt 1 view .LVU1398
1763:HANcoder_E407_TTA_CombineModel.c ****                        rtb_SFunction_o3_g, rtb_SFunction_o4_j,
 4010              		.loc 1 1763 7 view .LVU1399
 4011              	.LBB462:
 4012              	.LBI462:
 417:HANcoder_E407_TTA_CombineModel.c ****                       uint8_T rtu_In3, uint8_T rtu_In4, uint8_T rtu_In5, uint8_T
 4013              		.loc 1 417 6 view .LVU1400
 4014              	.LBB463:
 422:HANcoder_E407_TTA_CombineModel.c ****   uint8_T rtb_In6;
 4015              		.loc 1 422 3 view .LVU1401
 423:HANcoder_E407_TTA_CombineModel.c ****   uint8_T rtb_In8;
 4016              		.loc 1 423 3 view .LVU1402
 424:HANcoder_E407_TTA_CombineModel.c **** 
 4017              		.loc 1 424 3 view .LVU1403
 429:HANcoder_E407_TTA_CombineModel.c ****     /* SignalConversion generated from: '<S116>/In1' */
 4018              		.loc 1 429 3 view .LVU1404
 431:HANcoder_E407_TTA_CombineModel.c **** 
 4019              		.loc 1 431 5 view .LVU1405
 434:HANcoder_E407_TTA_CombineModel.c **** 
 4020              		.loc 1 434 5 view .LVU1406
 437:HANcoder_E407_TTA_CombineModel.c **** 
 4021              		.loc 1 437 5 view .LVU1407
 440:HANcoder_E407_TTA_CombineModel.c **** 
 4022              		.loc 1 440 5 view .LVU1408
 449:HANcoder_E407_TTA_CombineModel.c **** 
 4023              		.loc 1 449 17 is_stmt 0 view .LVU1409
 4024 0a28 85F8C430 		strb	r3, [r5, #196]
 431:HANcoder_E407_TTA_CombineModel.c **** 
 4025              		.loc 1 431 17 view .LVU1410
 4026 0a2c 3368     		ldr	r3, [r6]
 4027              	.LVL317:
 431:HANcoder_E407_TTA_CombineModel.c **** 
 4028              		.loc 1 431 17 view .LVU1411
 4029 0a2e C5F8C030 		str	r3, [r5, #192]
 443:HANcoder_E407_TTA_CombineModel.c **** 
 4030              		.loc 1 443 5 is_stmt 1 view .LVU1412
 446:HANcoder_E407_TTA_CombineModel.c **** 
 4031              		.loc 1 446 5 view .LVU1413
 449:HANcoder_E407_TTA_CombineModel.c **** 
 4032              		.loc 1 449 5 view .LVU1414
 452:HANcoder_E407_TTA_CombineModel.c ****   }
 4033              		.loc 1 452 5 view .LVU1415
 4034              	.LVL318:
 4035              	.L224:
 452:HANcoder_E407_TTA_CombineModel.c ****   }
 4036              		.loc 1 452 5 is_stmt 0 view .LVU1416
 4037              	.LBE463:
 4038              	.LBE462:
1774:HANcoder_E407_TTA_CombineModel.c ****                             &rtPrevZCSigState.Subsystem_Trig_ZCE_h,
 4039              		.loc 1 1774 7 is_stmt 1 view .LVU1417
1774:HANcoder_E407_TTA_CombineModel.c ****                             &rtPrevZCSigState.Subsystem_Trig_ZCE_h,
 4040              		.loc 1 1774 17 is_stmt 0 view .LVU1418
 4041 0a32 2D49     		ldr	r1, .L383+80
 4042 0a34 0120     		movs	r0, #1
 4043              	.LVL319:
1774:HANcoder_E407_TTA_CombineModel.c ****                             &rtPrevZCSigState.Subsystem_Trig_ZCE_h,
 4044              		.loc 1 1774 17 view .LVU1419
 4045 0a36 FFF7FEFF 		bl	rt_I32ZCFcn
 4046              	.LVL320:
1777:HANcoder_E407_TTA_CombineModel.c ****         /* DataStoreWrite: '<S122>/Data Store Write' */
 4047              		.loc 1 1777 7 is_stmt 1 view .LVU1420
1777:HANcoder_E407_TTA_CombineModel.c ****         /* DataStoreWrite: '<S122>/Data Store Write' */
 4048              		.loc 1 1777 10 is_stmt 0 view .LVU1421
 4049 0a3a 40B1     		cbz	r0, .L168
1779:HANcoder_E407_TTA_CombineModel.c **** 
 4050              		.loc 1 1779 9 is_stmt 1 view .LVU1422
1784:HANcoder_E407_TTA_CombineModel.c **** 
 4051              		.loc 1 1784 29 is_stmt 0 view .LVU1423
 4052 0a3c 0123     		movs	r3, #1
 4053 0a3e 84F86230 		strb	r3, [r4, #98]
1789:HANcoder_E407_TTA_CombineModel.c ****       }
 4054              		.loc 1 1789 22 view .LVU1424
 4055 0a42 84F86430 		strb	r3, [r4, #100]
1779:HANcoder_E407_TTA_CombineModel.c **** 
 4056              		.loc 1 1779 26 view .LVU1425
 4057 0a46 95F8C030 		ldrb	r3, [r5, #192]	@ zero_extendqisi2
 4058 0a4a 84F86530 		strb	r3, [r4, #101]
1784:HANcoder_E407_TTA_CombineModel.c **** 
 4059              		.loc 1 1784 9 is_stmt 1 view .LVU1426
1789:HANcoder_E407_TTA_CombineModel.c ****       }
 4060              		.loc 1 1789 9 view .LVU1427
 4061              	.L168:
1800:HANcoder_E407_TTA_CombineModel.c **** 
 4062              		.loc 1 1800 5 view .LVU1428
1852:HANcoder_E407_TTA_CombineModel.c **** 
 4063              		.loc 1 1852 48 is_stmt 0 view .LVU1429
 4064 0a4e 9BF80030 		ldrb	r3, [fp]	@ zero_extendqisi2
1858:HANcoder_E407_TTA_CombineModel.c **** 
 4065              		.loc 1 1858 23 view .LVU1430
 4066 0a52 94F86320 		ldrb	r2, [r4, #99]	@ zero_extendqisi2
 4067 0a56 42E7     		b	.L246
 4068              	.LVL321:
 4069              	.L348:
1079:HANcoder_E407_TTA_CombineModel.c **** 
 4070              		.loc 1 1079 5 is_stmt 1 view .LVU1431
1084:HANcoder_E407_TTA_CombineModel.c **** 
 4071              		.loc 1 1084 24 is_stmt 0 view .LVU1432
 4072 0a58 244F     		ldr	r7, .L383+84
 4073 0a5a 0026     		movs	r6, #0
1079:HANcoder_E407_TTA_CombineModel.c **** 
 4074              		.loc 1 1079 42 view .LVU1433
 4075 0a5c 0121     		movs	r1, #1
1091:HANcoder_E407_TTA_CombineModel.c ****       (tTimeoutAction)((uint8_T)3U));
 4076              		.loc 1 1091 5 view .LVU1434
 4077 0a5e 0322     		movs	r2, #3
 4078 0a60 0720     		movs	r0, #7
1084:HANcoder_E407_TTA_CombineModel.c **** 
 4079              		.loc 1 1084 24 view .LVU1435
 4080 0a62 C4E90A67 		strd	r6, [r4, #40]
1079:HANcoder_E407_TTA_CombineModel.c **** 
 4081              		.loc 1 1079 42 view .LVU1436
 4082 0a66 84F87610 		strb	r1, [r4, #118]
1084:HANcoder_E407_TTA_CombineModel.c **** 
 4083              		.loc 1 1084 5 is_stmt 1 view .LVU1437
1091:HANcoder_E407_TTA_CombineModel.c ****       (tTimeoutAction)((uint8_T)3U));
 4084              		.loc 1 1091 5 view .LVU1438
 4085 0a6a FFF7FEFF 		bl	TimeoutScheduleCompareEvent
 4086              	.LVL322:
 4087 0a6e FFF7DBBA 		b	.L119
 4088              	.LVL323:
 4089              	.L162:
1705:HANcoder_E407_TTA_CombineModel.c **** 
 4090              		.loc 1 1705 5 view .LVU1439
 4091 0a72 124B     		ldr	r3, .L383+36
 4092 0a74 124A     		ldr	r2, .L383+40
 4093 0a76 1968     		ldr	r1, [r3]
 4094 0a78 124B     		ldr	r3, .L383+44
 4095 0a7a 0020     		movs	r0, #0
 4096 0a7c FFF7FEFF 		bl	MMBS1_RX
 4097              	.LVL324:
1710:HANcoder_E407_TTA_CombineModel.c **** 
 4098              		.loc 1 1710 5 view .LVU1440
1714:HANcoder_E407_TTA_CombineModel.c **** 
 4099              		.loc 1 1714 5 view .LVU1441
 4100              	.LBB464:
 544:HANcoder_E407_TTA_CombineModel.c **** {
 4101              		.loc 1 544 6 view .LVU1442
 4102              	.LBB417:
 549:HANcoder_E407_TTA_CombineModel.c ****     /* Update for M-S-Function: '<S117>/S-Function' */
 4103              		.loc 1 549 3 view .LVU1443
 4104              	.LBE417:
 4105              	.LBE464:
1710:HANcoder_E407_TTA_CombineModel.c **** 
 4106              		.loc 1 1710 14 is_stmt 0 view .LVU1444
 4107 0a80 0023     		movs	r3, #0
 4108 0a82 1EE7     		b	.L225
 4109              	.LVL325:
 4110              	.L159:
1673:HANcoder_E407_TTA_CombineModel.c **** 
 4111              		.loc 1 1673 5 is_stmt 1 view .LVU1445
 4112 0a84 0A4B     		ldr	r3, .L383+24
 4113 0a86 0B4A     		ldr	r2, .L383+28
 4114 0a88 1968     		ldr	r1, [r3]
 4115 0a8a 0B4B     		ldr	r3, .L383+32
 4116 0a8c 0020     		movs	r0, #0
 4117 0a8e FFF7FEFF 		bl	MMBS1_RX
 4118              	.LVL326:
1678:HANcoder_E407_TTA_CombineModel.c **** 
 4119              		.loc 1 1678 5 view .LVU1446
1682:HANcoder_E407_TTA_CombineModel.c **** 
 4120              		.loc 1 1682 5 view .LVU1447
 4121              	.LBB465:
 544:HANcoder_E407_TTA_CombineModel.c **** {
 4122              		.loc 1 544 6 view .LVU1448
 4123              	.LBB410:
 549:HANcoder_E407_TTA_CombineModel.c ****     /* Update for M-S-Function: '<S117>/S-Function' */
 4124              		.loc 1 549 3 view .LVU1449
 4125              	.LBE410:
 4126              	.LBE465:
1678:HANcoder_E407_TTA_CombineModel.c **** 
 4127              		.loc 1 1678 14 is_stmt 0 view .LVU1450
 4128 0a92 0023     		movs	r3, #0
 4129 0a94 EFE6     		b	.L226
 4130              	.L384:
 4131 0a96 00BF     		.align	2
 4132              	.L383:
 4133 0a98 00000000 		.word	.LANCHOR54
 4134 0a9c 00000000 		.word	.LANCHOR55
 4135 0aa0 00000000 		.word	.LANCHOR56
 4136 0aa4 00000000 		.word	.LC0
 4137 0aa8 00000000 		.word	.LANCHOR57
 4138 0aac 00000000 		.word	.LANCHOR1
 4139 0ab0 00000000 		.word	.LANCHOR32
 4140 0ab4 CA000000 		.word	.LANCHOR0+202
 4141 0ab8 78000000 		.word	.LANCHOR2+120
 4142 0abc 00000000 		.word	.LANCHOR33
 4143 0ac0 C5000000 		.word	.LANCHOR0+197
 4144 0ac4 77000000 		.word	.LANCHOR2+119
 4145 0ac8 00000000 		.word	.LANCHOR37
 4146 0acc 00000000 		.word	.LANCHOR38
 4147 0ad0 00000000 		.word	.LANCHOR41
 4148 0ad4 00000000 		.word	.LANCHOR39
 4149 0ad8 00000000 		.word	.LANCHOR40
 4150 0adc 00000000 		.word	.LANCHOR9
 4151 0ae0 00000000 		.word	.LANCHOR34
 4152 0ae4 00000000 		.word	.LANCHOR36
 4153 0ae8 08000000 		.word	.LANCHOR5+8
 4154 0aec 0000F03F 		.word	1072693248
 4155 0af0 00000000 		.word	.LANCHOR5
 4156              	.LVL327:
 4157              	.L340:
1844:HANcoder_E407_TTA_CombineModel.c **** 
 4158              		.loc 1 1844 5 is_stmt 1 view .LVU1451
1844:HANcoder_E407_TTA_CombineModel.c **** 
 4159              		.loc 1 1844 40 is_stmt 0 view .LVU1452
 4160 0af4 8AF80730 		strb	r3, [r10, #7]
1852:HANcoder_E407_TTA_CombineModel.c **** 
 4161              		.loc 1 1852 5 is_stmt 1 view .LVU1453
 4162              	.LVL328:
1858:HANcoder_E407_TTA_CombineModel.c **** 
 4163              		.loc 1 1858 5 view .LVU1454
1863:HANcoder_E407_TTA_CombineModel.c **** 
 4164              		.loc 1 1863 5 view .LVU1455
 4165              	.L169:
1868:HANcoder_E407_TTA_CombineModel.c ****       rtDWork.TRCK1_ID2_RX_MODE = true;
 4166              		.loc 1 1868 5 view .LVU1456
1968:HANcoder_E407_TTA_CombineModel.c ****       rtDWork.TRCK1_ID2_RX_MODE = false;
 4167              		.loc 1 1968 12 view .LVU1457
1968:HANcoder_E407_TTA_CombineModel.c ****       rtDWork.TRCK1_ID2_RX_MODE = false;
 4168              		.loc 1 1968 15 is_stmt 0 view .LVU1458
 4169 0af8 94F87430 		ldrb	r3, [r4, #116]	@ zero_extendqisi2
 4170 0afc 002B     		cmp	r3, #0
 4171 0afe 40F04F82 		bne	.L244
 4172              	.L245:
 4173 0b02 A04E     		ldr	r6, .L385
1800:HANcoder_E407_TTA_CombineModel.c **** 
 4174              		.loc 1 1800 13 view .LVU1459
 4175 0b04 0020     		movs	r0, #0
 4176              	.LVL329:
 4177              	.L172:
1979:HANcoder_E407_TTA_CombineModel.c ****                  &rtDWork.potFault, &rtDWork.potentiometer1,
 4178              		.loc 1 1979 5 is_stmt 1 discriminator 6 view .LVU1460
 4179 0b06 3168     		ldr	r1, [r6]
 4180 0b08 9F4B     		ldr	r3, .L385+4
 4181 0b0a A04E     		ldr	r6, .L385+8
 4182 0b0c 0593     		str	r3, [sp, #20]
 4183 0b0e A04B     		ldr	r3, .L385+12
 4184 0b10 0493     		str	r3, [sp, #16]
 4185 0b12 A6F10C07 		sub	r7, r6, #12
 4186 0b16 9F4B     		ldr	r3, .L385+16
 4187 0b18 0393     		str	r3, [sp, #12]
 4188 0b1a 06F12408 		add	r8, r6, #36
 4189 0b1e 06F12303 		add	r3, r6, #35
 4190 0b22 0296     		str	r6, [sp, #8]
 4191 0b24 0197     		str	r7, [sp, #4]
 4192 0b26 CDF80080 		str	r8, [sp]
 4193 0b2a 06F11A02 		add	r2, r6, #26
 4194 0b2e FFF7FEFF 		bl	TRCK1_ID2_TX
 4195              	.LVL330:
1990:HANcoder_E407_TTA_CombineModel.c **** 
 4196              		.loc 1 1990 5 discriminator 6 view .LVU1461
1990:HANcoder_E407_TTA_CombineModel.c **** 
 4197              		.loc 1 1990 48 is_stmt 0 discriminator 6 view .LVU1462
 4198 0b32 9BF80030 		ldrb	r3, [fp]	@ zero_extendqisi2
 4199 0b36 08EE103A 		vmov	s16, r3	@ int
1996:HANcoder_E407_TTA_CombineModel.c **** 
 4200              		.loc 1 1996 23 discriminator 6 view .LVU1463
 4201 0b3a 94F86330 		ldrb	r3, [r4, #99]	@ zero_extendqisi2
1990:HANcoder_E407_TTA_CombineModel.c **** 
 4202              		.loc 1 1990 48 discriminator 6 view .LVU1464
 4203 0b3e B8EEC88A 		vcvt.f32.s32	s16, s16
 4204              	.LVL331:
1996:HANcoder_E407_TTA_CombineModel.c **** 
 4205              		.loc 1 1996 5 is_stmt 1 discriminator 6 view .LVU1465
1999:HANcoder_E407_TTA_CombineModel.c **** 
 4206              		.loc 1 1999 45 is_stmt 0 discriminator 6 view .LVU1466
 4207 0b42 F1EE0C7A 		vmov.f32	s15, #7.0e+0
1996:HANcoder_E407_TTA_CombineModel.c **** 
 4208              		.loc 1 1996 33 discriminator 6 view .LVU1467
 4209 0b46 07EE103A 		vmov	s14, r3	@ int
1999:HANcoder_E407_TTA_CombineModel.c **** 
 4210              		.loc 1 1999 45 discriminator 6 view .LVU1468
 4211 0b4a B4EE678A 		vcmp.f32	s16, s15
 4212 0b4e F1EE10FA 		vmrs	APSR_nzcv, FPSCR
1996:HANcoder_E407_TTA_CombineModel.c **** 
 4213              		.loc 1 1996 33 discriminator 6 view .LVU1469
 4214 0b52 F8EEC78A 		vcvt.f32.s32	s17, s14
 4215              	.LVL332:
1999:HANcoder_E407_TTA_CombineModel.c **** 
 4216              		.loc 1 1999 5 is_stmt 1 discriminator 6 view .LVU1470
1999:HANcoder_E407_TTA_CombineModel.c **** 
 4217              		.loc 1 1999 45 is_stmt 0 discriminator 6 view .LVU1471
 4218 0b56 78D1     		bne	.L265
1999:HANcoder_E407_TTA_CombineModel.c **** 
 4219              		.loc 1 1999 45 discriminator 1 view .LVU1472
 4220 0b58 F0EE087A 		vmov.f32	s15, #3.0e+0
 4221 0b5c F4EE678A 		vcmp.f32	s17, s15
 4222 0b60 F1EE10FA 		vmrs	APSR_nzcv, FPSCR
 4223 0b64 0CBF     		ite	eq
 4224 0b66 0120     		moveq	r0, #1
 4225 0b68 0020     		movne	r0, #0
 4226              	.L173:
2003:HANcoder_E407_TTA_CombineModel.c ****                  &rtDWork.motorFailed, &rtDWork.potFault,
 4227              		.loc 1 2003 5 is_stmt 1 discriminator 6 view .LVU1473
 4228 0b6a 8B4A     		ldr	r2, .L385+20
 4229 0b6c 0592     		str	r2, [sp, #20]
 4230 0b6e 8B4A     		ldr	r2, .L385+24
 4231 0b70 0492     		str	r2, [sp, #16]
 4232 0b72 CDE90176 		strd	r7, r6, [sp, #4]
 4233 0b76 8A4A     		ldr	r2, .L385+28
 4234 0b78 8A4B     		ldr	r3, .L385+32
 4235 0b7a 0392     		str	r2, [sp, #12]
 4236 0b7c 8A4A     		ldr	r2, .L385+36
 4237 0b7e CDF80080 		str	r8, [sp]
 4238 0b82 1168     		ldr	r1, [r2]
 4239 0b84 A3F10902 		sub	r2, r3, #9
 4240 0b88 FFF7FEFF 		bl	TRCK1_ID2_TX
 4241              	.LVL333:
2014:HANcoder_E407_TTA_CombineModel.c **** 
 4242              		.loc 1 2014 5 discriminator 6 view .LVU1474
2020:HANcoder_E407_TTA_CombineModel.c **** 
 4243              		.loc 1 2020 5 discriminator 6 view .LVU1475
2014:HANcoder_E407_TTA_CombineModel.c **** 
 4244              		.loc 1 2014 37 is_stmt 0 discriminator 6 view .LVU1476
 4245 0b8c 9BF80030 		ldrb	r3, [fp]	@ zero_extendqisi2
 4246 0b90 07EE903A 		vmov	s15, r3	@ int
2020:HANcoder_E407_TTA_CombineModel.c **** 
 4247              		.loc 1 2020 27 discriminator 6 view .LVU1477
 4248 0b94 94F86330 		ldrb	r3, [r4, #99]	@ zero_extendqisi2
2014:HANcoder_E407_TTA_CombineModel.c **** 
 4249              		.loc 1 2014 37 discriminator 6 view .LVU1478
 4250 0b98 F8EEE77A 		vcvt.f32.s32	s15, s15
2025:HANcoder_E407_TTA_CombineModel.c **** 
 4251              		.loc 1 2025 33 discriminator 6 view .LVU1479
 4252 0b9c F1EE006A 		vmov.f32	s13, #4.0e+0
2020:HANcoder_E407_TTA_CombineModel.c **** 
 4253              		.loc 1 2020 37 discriminator 6 view .LVU1480
 4254 0ba0 07EE103A 		vmov	s14, r3	@ int
2025:HANcoder_E407_TTA_CombineModel.c **** 
 4255              		.loc 1 2025 33 discriminator 6 view .LVU1481
 4256 0ba4 F4EE667A 		vcmp.f32	s15, s13
 4257 0ba8 F1EE10FA 		vmrs	APSR_nzcv, FPSCR
2020:HANcoder_E407_TTA_CombineModel.c **** 
 4258              		.loc 1 2020 37 discriminator 6 view .LVU1482
 4259 0bac B8EEC77A 		vcvt.f32.s32	s14, s14
 4260              	.LVL334:
2025:HANcoder_E407_TTA_CombineModel.c **** 
 4261              		.loc 1 2025 5 is_stmt 1 discriminator 6 view .LVU1483
2025:HANcoder_E407_TTA_CombineModel.c **** 
 4262              		.loc 1 2025 33 is_stmt 0 discriminator 6 view .LVU1484
 4263 0bb0 4DD1     		bne	.L174
2025:HANcoder_E407_TTA_CombineModel.c **** 
 4264              		.loc 1 2025 33 discriminator 1 view .LVU1485
 4265 0bb2 F7EE007A 		vmov.f32	s15, #1.0e+0
 4266 0bb6 B4EE677A 		vcmp.f32	s14, s15
 4267 0bba F1EE10FA 		vmrs	APSR_nzcv, FPSCR
 4268 0bbe 00F05982 		beq	.L367
 4269              	.LVL335:
2030:HANcoder_E407_TTA_CombineModel.c ****       rtDWork.TRCK1_RX_MODE = true;
 4270              		.loc 1 2030 5 is_stmt 1 view .LVU1486
2031:HANcoder_E407_TTA_CombineModel.c **** 
 4271              		.loc 1 2031 7 view .LVU1487
2038:HANcoder_E407_TTA_CombineModel.c ****         &canRxData_0_TRCK1_ID1.uint8_T_info[0], NULL);
 4272              		.loc 1 2038 29 is_stmt 0 view .LVU1488
 4273 0bc2 0022     		movs	r2, #0
 4274 0bc4 DFF80492 		ldr	r9, .L385+72
 4275 0bc8 0092     		str	r2, [sp]
2031:HANcoder_E407_TTA_CombineModel.c **** 
 4276              		.loc 1 2031 29 view .LVU1489
 4277 0bca 0120     		movs	r0, #1
2038:HANcoder_E407_TTA_CombineModel.c ****         &canRxData_0_TRCK1_ID1.uint8_T_info[0], NULL);
 4278              		.loc 1 2038 29 view .LVU1490
 4279 0bcc 774B     		ldr	r3, .L385+40
2031:HANcoder_E407_TTA_CombineModel.c **** 
 4280              		.loc 1 2031 29 view .LVU1491
 4281 0bce 84F87300 		strb	r0, [r4, #115]
2038:HANcoder_E407_TTA_CombineModel.c ****         &canRxData_0_TRCK1_ID1.uint8_T_info[0], NULL);
 4282              		.loc 1 2038 7 is_stmt 1 view .LVU1492
2038:HANcoder_E407_TTA_CombineModel.c ****         &canRxData_0_TRCK1_ID1.uint8_T_info[0], NULL);
 4283              		.loc 1 2038 29 is_stmt 0 view .LVU1493
 4284 0bd2 D9F80010 		ldr	r1, [r9]
 4285 0bd6 1046     		mov	r0, r2
 4286 0bd8 FFF7FEFF 		bl	CanIoGetMessage
 4287              	.LVL336:
2042:HANcoder_E407_TTA_CombineModel.c ****         /* read the data */
 4288              		.loc 1 2042 7 is_stmt 1 view .LVU1494
2042:HANcoder_E407_TTA_CombineModel.c ****         /* read the data */
 4289              		.loc 1 2042 10 is_stmt 0 view .LVU1495
 4290 0bdc 0028     		cmp	r0, #0
 4291 0bde 734B     		ldr	r3, .L385+40
 4292 0be0 40F33B83 		ble	.L368
2044:HANcoder_E407_TTA_CombineModel.c ****         rtb_SFunction_o3_i = canRxData_0_TRCK1_ID1.uint8_T_info[1];
 4293              		.loc 1 2044 9 is_stmt 1 view .LVU1496
 4294              	.LBB466:
 4295              	.LBB467:
 431:HANcoder_E407_TTA_CombineModel.c **** 
 4296              		.loc 1 431 17 is_stmt 0 view .LVU1497
 4297 0be4 1968     		ldr	r1, [r3]
 4298              	.LBE467:
 4299              	.LBE466:
2050:HANcoder_E407_TTA_CombineModel.c ****         rtb_SFunction_o9_o = canRxData_0_TRCK1_ID1.uint8_T_info[7];
 4300              		.loc 1 2050 28 view .LVU1498
 4301 0be6 9A79     		ldrb	r2, [r3, #6]	@ zero_extendqisi2
 4302              	.LBB470:
 4303              	.LBB468:
 431:HANcoder_E407_TTA_CombineModel.c **** 
 4304              		.loc 1 431 17 view .LVU1499
 4305 0be8 C5F88010 		str	r1, [r5, #128]
 4306              	.LBE468:
 4307              	.LBE470:
2045:HANcoder_E407_TTA_CombineModel.c ****         rtb_SFunction_o4_n = canRxData_0_TRCK1_ID1.uint8_T_info[2];
 4308              		.loc 1 2045 28 view .LVU1500
 4309 0bec 93F801C0 		ldrb	ip, [r3, #1]	@ zero_extendqisi2
2044:HANcoder_E407_TTA_CombineModel.c ****         rtb_SFunction_o3_i = canRxData_0_TRCK1_ID1.uint8_T_info[1];
 4310              		.loc 1 2044 28 view .LVU1501
 4311 0bf0 1978     		ldrb	r1, [r3]	@ zero_extendqisi2
 4312              	.LVL337:
2045:HANcoder_E407_TTA_CombineModel.c ****         rtb_SFunction_o4_n = canRxData_0_TRCK1_ID1.uint8_T_info[2];
 4313              		.loc 1 2045 9 is_stmt 1 view .LVU1502
2046:HANcoder_E407_TTA_CombineModel.c ****         rtb_SFunction_o5_p = canRxData_0_TRCK1_ID1.uint8_T_info[3];
 4314              		.loc 1 2046 9 view .LVU1503
2046:HANcoder_E407_TTA_CombineModel.c ****         rtb_SFunction_o5_p = canRxData_0_TRCK1_ID1.uint8_T_info[3];
 4315              		.loc 1 2046 28 is_stmt 0 view .LVU1504
 4316 0bf2 9878     		ldrb	r0, [r3, #2]	@ zero_extendqisi2
 4317              	.LVL338:
2047:HANcoder_E407_TTA_CombineModel.c ****         rtb_SFunction_o6_g = canRxData_0_TRCK1_ID1.uint8_T_info[4];
 4318              		.loc 1 2047 9 is_stmt 1 view .LVU1505
2047:HANcoder_E407_TTA_CombineModel.c ****         rtb_SFunction_o6_g = canRxData_0_TRCK1_ID1.uint8_T_info[4];
 4319              		.loc 1 2047 28 is_stmt 0 view .LVU1506
 4320 0bf4 93F803E0 		ldrb	lr, [r3, #3]	@ zero_extendqisi2
 4321              	.LVL339:
2048:HANcoder_E407_TTA_CombineModel.c ****         rtb_SFunction_o7_fg = canRxData_0_TRCK1_ID1.uint8_T_info[5];
 4322              		.loc 1 2048 9 is_stmt 1 view .LVU1507
2049:HANcoder_E407_TTA_CombineModel.c ****         rtb_SFunction_o8_i = canRxData_0_TRCK1_ID1.uint8_T_info[6];
 4323              		.loc 1 2049 9 view .LVU1508
2050:HANcoder_E407_TTA_CombineModel.c ****         rtb_SFunction_o9_o = canRxData_0_TRCK1_ID1.uint8_T_info[7];
 4324              		.loc 1 2050 9 view .LVU1509
2051:HANcoder_E407_TTA_CombineModel.c ****       }
 4325              		.loc 1 2051 9 view .LVU1510
2055:HANcoder_E407_TTA_CombineModel.c ****                        rtb_SFunction_o3_i, rtb_SFunction_o4_n,
 4326              		.loc 1 2055 7 view .LVU1511
 4327              	.LBB471:
 4328              	.LBI466:
 417:HANcoder_E407_TTA_CombineModel.c ****                       uint8_T rtu_In3, uint8_T rtu_In4, uint8_T rtu_In5, uint8_T
 4329              		.loc 1 417 6 view .LVU1512
 4330              	.LBB469:
 422:HANcoder_E407_TTA_CombineModel.c ****   uint8_T rtb_In6;
 4331              		.loc 1 422 3 view .LVU1513
 423:HANcoder_E407_TTA_CombineModel.c ****   uint8_T rtb_In8;
 4332              		.loc 1 423 3 view .LVU1514
 424:HANcoder_E407_TTA_CombineModel.c **** 
 4333              		.loc 1 424 3 view .LVU1515
 429:HANcoder_E407_TTA_CombineModel.c ****     /* SignalConversion generated from: '<S116>/In1' */
 4334              		.loc 1 429 3 view .LVU1516
 431:HANcoder_E407_TTA_CombineModel.c **** 
 4335              		.loc 1 431 5 view .LVU1517
 434:HANcoder_E407_TTA_CombineModel.c **** 
 4336              		.loc 1 434 5 view .LVU1518
 437:HANcoder_E407_TTA_CombineModel.c **** 
 4337              		.loc 1 437 5 view .LVU1519
 440:HANcoder_E407_TTA_CombineModel.c **** 
 4338              		.loc 1 440 5 view .LVU1520
 443:HANcoder_E407_TTA_CombineModel.c **** 
 4339              		.loc 1 443 5 view .LVU1521
 446:HANcoder_E407_TTA_CombineModel.c **** 
 4340              		.loc 1 446 5 view .LVU1522
 449:HANcoder_E407_TTA_CombineModel.c **** 
 4341              		.loc 1 449 5 view .LVU1523
 452:HANcoder_E407_TTA_CombineModel.c ****   }
 4342              		.loc 1 452 5 view .LVU1524
 449:HANcoder_E407_TTA_CombineModel.c **** 
 4343              		.loc 1 449 17 is_stmt 0 view .LVU1525
 4344 0bf8 85F88420 		strb	r2, [r5, #132]
 4345              	.LVL340:
 4346              	.L217:
 449:HANcoder_E407_TTA_CombineModel.c **** 
 4347              		.loc 1 449 17 view .LVU1526
 4348              	.LBE469:
 4349              	.LBE471:
2064:HANcoder_E407_TTA_CombineModel.c **** 
 4350              		.loc 1 2064 7 is_stmt 1 view .LVU1527
2067:HANcoder_E407_TTA_CombineModel.c **** 
 4351              		.loc 1 2067 7 view .LVU1528
 4352              	.LBB472:
 4353              	.LBI472:
 578:HANcoder_E407_TTA_CombineModel.c **** {
 4354              		.loc 1 578 6 view .LVU1529
 4355              	.LBB473:
 583:HANcoder_E407_TTA_CombineModel.c **** }
 4356              		.loc 1 583 3 view .LVU1530
 583:HANcoder_E407_TTA_CombineModel.c **** }
 4357              		.loc 1 583 15 is_stmt 0 view .LVU1531
 4358 0bfc 0B02     		lsls	r3, r1, #8
 4359              	.LBE473:
 4360              	.LBE472:
2074:HANcoder_E407_TTA_CombineModel.c **** 
 4361              		.loc 1 2074 15 view .LVU1532
 4362 0bfe 9C44     		add	ip, ip, r3
 4363              	.LBB475:
 4364              	.LBB474:
 583:HANcoder_E407_TTA_CombineModel.c **** }
 4365              		.loc 1 583 13 view .LVU1533
 4366 0c00 A5F88630 		strh	r3, [r5, #134]	@ movhi
 4367              	.LVL341:
 583:HANcoder_E407_TTA_CombineModel.c **** }
 4368              		.loc 1 583 13 view .LVU1534
 4369              	.LBE474:
 4370              	.LBE475:
2074:HANcoder_E407_TTA_CombineModel.c **** 
 4371              		.loc 1 2074 7 is_stmt 1 view .LVU1535
2074:HANcoder_E407_TTA_CombineModel.c **** 
 4372              		.loc 1 2074 13 is_stmt 0 view .LVU1536
 4373 0c04 6A4B     		ldr	r3, .L385+44
 4374              	.LBB476:
 4375              	.LBB477:
 583:HANcoder_E407_TTA_CombineModel.c **** }
 4376              		.loc 1 583 15 view .LVU1537
 4377 0c06 0002     		lsls	r0, r0, #8
 4378              	.LBE477:
 4379              	.LBE476:
2074:HANcoder_E407_TTA_CombineModel.c **** 
 4380              		.loc 1 2074 13 view .LVU1538
 4381 0c08 A3F800C0 		strh	ip, [r3]	@ movhi
2077:HANcoder_E407_TTA_CombineModel.c **** 
 4382              		.loc 1 2077 7 is_stmt 1 view .LVU1539
 4383              	.LVL342:
2080:HANcoder_E407_TTA_CombineModel.c **** 
 4384              		.loc 1 2080 7 view .LVU1540
 4385              	.LBB480:
 4386              	.LBI476:
 578:HANcoder_E407_TTA_CombineModel.c **** {
 4387              		.loc 1 578 6 view .LVU1541
 4388              	.LBB478:
 583:HANcoder_E407_TTA_CombineModel.c **** }
 4389              		.loc 1 583 3 view .LVU1542
 583:HANcoder_E407_TTA_CombineModel.c **** }
 4390              		.loc 1 583 3 is_stmt 0 view .LVU1543
 4391              	.LBE478:
 4392              	.LBE480:
2087:HANcoder_E407_TTA_CombineModel.c **** 
 4393              		.loc 1 2087 7 is_stmt 1 view .LVU1544
2087:HANcoder_E407_TTA_CombineModel.c **** 
 4394              		.loc 1 2087 13 is_stmt 0 view .LVU1545
 4395 0c0c 694B     		ldr	r3, .L385+48
 4396              	.LBB481:
 4397              	.LBB479:
 583:HANcoder_E407_TTA_CombineModel.c **** }
 4398              		.loc 1 583 13 view .LVU1546
 4399 0c0e A5F88800 		strh	r0, [r5, #136]	@ movhi
 4400              	.LBE479:
 4401              	.LBE481:
2087:HANcoder_E407_TTA_CombineModel.c **** 
 4402              		.loc 1 2087 15 view .LVU1547
 4403 0c12 8644     		add	lr, lr, r0
2087:HANcoder_E407_TTA_CombineModel.c **** 
 4404              		.loc 1 2087 13 view .LVU1548
 4405 0c14 A3F800E0 		strh	lr, [r3]	@ movhi
2090:HANcoder_E407_TTA_CombineModel.c **** 
 4406              		.loc 1 2090 7 is_stmt 1 view .LVU1549
 4407              	.LVL343:
 4408              	.LBB482:
 4409              	.LBI482:
 599:HANcoder_E407_TTA_CombineModel.c **** {
 4410              		.loc 1 599 6 view .LVU1550
 4411              	.LBB483:
 604:HANcoder_E407_TTA_CombineModel.c **** }
 4412              		.loc 1 604 3 view .LVU1551
 604:HANcoder_E407_TTA_CombineModel.c **** }
 4413              		.loc 1 604 15 is_stmt 0 view .LVU1552
 4414 0c18 5308     		lsrs	r3, r2, #1
 604:HANcoder_E407_TTA_CombineModel.c **** }
 4415              		.loc 1 604 13 view .LVU1553
 4416 0c1a 85F87F30 		strb	r3, [r5, #127]
 4417              	.LVL344:
 604:HANcoder_E407_TTA_CombineModel.c **** }
 4418              		.loc 1 604 13 view .LVU1554
 4419              	.LBE483:
 4420              	.LBE482:
2095:HANcoder_E407_TTA_CombineModel.c **** 
 4421              		.loc 1 2095 7 is_stmt 1 view .LVU1555
 4422              	.LBB484:
 4423              	.LBI484:
 615:HANcoder_E407_TTA_CombineModel.c **** {
 4424              		.loc 1 615 6 view .LVU1556
 4425              	.LBB485:
 620:HANcoder_E407_TTA_CombineModel.c **** }
 4426              		.loc 1 620 3 view .LVU1557
 4427              	.LBE485:
 4428              	.LBE484:
 4429              	.LBB487:
 4430              	.LBB488:
 604:HANcoder_E407_TTA_CombineModel.c **** }
 4431              		.loc 1 604 13 is_stmt 0 view .LVU1558
 4432 0c1e 85F87830 		strb	r3, [r5, #120]
 4433              	.LBE488:
 4434              	.LBE487:
 4435              	.LBB491:
 4436              	.LBB486:
 620:HANcoder_E407_TTA_CombineModel.c **** }
 4437              		.loc 1 620 15 view .LVU1559
 4438 0c22 9308     		lsrs	r3, r2, #2
 620:HANcoder_E407_TTA_CombineModel.c **** }
 4439              		.loc 1 620 13 view .LVU1560
 4440 0c24 85F87E30 		strb	r3, [r5, #126]
 4441              	.LVL345:
 620:HANcoder_E407_TTA_CombineModel.c **** }
 4442              		.loc 1 620 13 view .LVU1561
 4443              	.LBE486:
 4444              	.LBE491:
2100:HANcoder_E407_TTA_CombineModel.c **** 
 4445              		.loc 1 2100 7 is_stmt 1 view .LVU1562
 4446              	.LBB492:
 4447              	.LBI492:
 631:HANcoder_E407_TTA_CombineModel.c **** {
 4448              		.loc 1 631 6 view .LVU1563
 4449              	.LBB493:
 636:HANcoder_E407_TTA_CombineModel.c **** }
 4450              		.loc 1 636 3 view .LVU1564
 636:HANcoder_E407_TTA_CombineModel.c **** }
 4451              		.loc 1 636 15 is_stmt 0 view .LVU1565
 4452 0c28 D308     		lsrs	r3, r2, #3
 636:HANcoder_E407_TTA_CombineModel.c **** }
 4453              		.loc 1 636 13 view .LVU1566
 4454 0c2a 85F87D30 		strb	r3, [r5, #125]
 4455              	.LVL346:
 636:HANcoder_E407_TTA_CombineModel.c **** }
 4456              		.loc 1 636 13 view .LVU1567
 4457              	.LBE493:
 4458              	.LBE492:
2105:HANcoder_E407_TTA_CombineModel.c **** 
 4459              		.loc 1 2105 7 is_stmt 1 view .LVU1568
 4460              	.LBB494:
 4461              	.LBI494:
 647:HANcoder_E407_TTA_CombineModel.c **** {
 4462              		.loc 1 647 6 view .LVU1569
 4463              	.LBB495:
 652:HANcoder_E407_TTA_CombineModel.c **** }
 4464              		.loc 1 652 3 view .LVU1570
 652:HANcoder_E407_TTA_CombineModel.c **** }
 4465              		.loc 1 652 15 is_stmt 0 view .LVU1571
 4466 0c2e 1309     		lsrs	r3, r2, #4
 652:HANcoder_E407_TTA_CombineModel.c **** }
 4467              		.loc 1 652 13 view .LVU1572
 4468 0c30 85F87C30 		strb	r3, [r5, #124]
 4469              	.LVL347:
 652:HANcoder_E407_TTA_CombineModel.c **** }
 4470              		.loc 1 652 13 view .LVU1573
 4471              	.LBE495:
 4472              	.LBE494:
2110:HANcoder_E407_TTA_CombineModel.c **** 
 4473              		.loc 1 2110 7 is_stmt 1 view .LVU1574
 4474              	.LBB496:
 4475              	.LBI496:
 663:HANcoder_E407_TTA_CombineModel.c **** {
 4476              		.loc 1 663 6 view .LVU1575
 4477              	.LBB497:
 668:HANcoder_E407_TTA_CombineModel.c **** }
 4478              		.loc 1 668 3 view .LVU1576
 668:HANcoder_E407_TTA_CombineModel.c **** }
 4479              		.loc 1 668 15 is_stmt 0 view .LVU1577
 4480 0c34 5309     		lsrs	r3, r2, #5
 668:HANcoder_E407_TTA_CombineModel.c **** }
 4481              		.loc 1 668 13 view .LVU1578
 4482 0c36 85F87B30 		strb	r3, [r5, #123]
 4483              	.LVL348:
 668:HANcoder_E407_TTA_CombineModel.c **** }
 4484              		.loc 1 668 13 view .LVU1579
 4485              	.LBE497:
 4486              	.LBE496:
2115:HANcoder_E407_TTA_CombineModel.c **** 
 4487              		.loc 1 2115 7 is_stmt 1 view .LVU1580
 4488              	.LBB498:
 4489              	.LBI498:
 679:HANcoder_E407_TTA_CombineModel.c **** {
 4490              		.loc 1 679 6 view .LVU1581
 4491              	.LBB499:
 684:HANcoder_E407_TTA_CombineModel.c **** }
 4492              		.loc 1 684 3 view .LVU1582
 684:HANcoder_E407_TTA_CombineModel.c **** }
 4493              		.loc 1 684 15 is_stmt 0 view .LVU1583
 4494 0c3a 9309     		lsrs	r3, r2, #6
 4495              	.LBE499:
 4496              	.LBE498:
 4497              	.LBB501:
 4498              	.LBB502:
 700:HANcoder_E407_TTA_CombineModel.c **** }
 4499              		.loc 1 700 15 view .LVU1584
 4500 0c3c D209     		lsrs	r2, r2, #7
 4501              	.LBE502:
 4502              	.LBE501:
 4503              	.LBB504:
 4504              	.LBB500:
 684:HANcoder_E407_TTA_CombineModel.c **** }
 4505              		.loc 1 684 13 view .LVU1585
 4506 0c3e 85F87A30 		strb	r3, [r5, #122]
 4507              	.LVL349:
 684:HANcoder_E407_TTA_CombineModel.c **** }
 4508              		.loc 1 684 13 view .LVU1586
 4509              	.LBE500:
 4510              	.LBE504:
2120:HANcoder_E407_TTA_CombineModel.c **** 
 4511              		.loc 1 2120 7 is_stmt 1 view .LVU1587
 4512              	.LBB505:
 4513              	.LBI501:
 695:HANcoder_E407_TTA_CombineModel.c **** {
 4514              		.loc 1 695 6 view .LVU1588
 4515              	.LBB503:
 700:HANcoder_E407_TTA_CombineModel.c **** }
 4516              		.loc 1 700 3 view .LVU1589
 700:HANcoder_E407_TTA_CombineModel.c **** }
 4517              		.loc 1 700 13 is_stmt 0 view .LVU1590
 4518 0c42 85F87920 		strb	r2, [r5, #121]
 4519              	.LVL350:
 700:HANcoder_E407_TTA_CombineModel.c **** }
 4520              		.loc 1 700 13 view .LVU1591
 4521              	.LBE503:
 4522              	.LBE505:
2125:HANcoder_E407_TTA_CombineModel.c **** 
 4523              		.loc 1 2125 7 is_stmt 1 view .LVU1592
 4524              	.LBB506:
 4525              	.LBI487:
 599:HANcoder_E407_TTA_CombineModel.c **** {
 4526              		.loc 1 599 6 view .LVU1593
 4527              	.LBB489:
 604:HANcoder_E407_TTA_CombineModel.c **** }
 4528              		.loc 1 604 3 view .LVU1594
 604:HANcoder_E407_TTA_CombineModel.c **** }
 4529              		.loc 1 604 3 is_stmt 0 view .LVU1595
 4530              	.LBE489:
 4531              	.LBE506:
2135:HANcoder_E407_TTA_CombineModel.c **** 
 4532              		.loc 1 2135 5 is_stmt 1 view .LVU1596
 4533              	.LBB507:
 4534              	.LBB490:
 604:HANcoder_E407_TTA_CombineModel.c **** }
 4535              		.loc 1 604 13 is_stmt 0 view .LVU1597
 4536 0c46 0020     		movs	r0, #0
 4537 0c48 09E0     		b	.L177
 4538              	.LVL351:
 4539              	.L265:
 604:HANcoder_E407_TTA_CombineModel.c **** }
 4540              		.loc 1 604 13 view .LVU1598
 4541              	.LBE490:
 4542              	.LBE507:
 4543 0c4a 0020     		movs	r0, #0
 4544 0c4c 8DE7     		b	.L173
 4545              	.LVL352:
 4546              	.L174:
2030:HANcoder_E407_TTA_CombineModel.c ****       rtDWork.TRCK1_RX_MODE = true;
 4547              		.loc 1 2030 5 is_stmt 1 view .LVU1599
2128:HANcoder_E407_TTA_CombineModel.c ****       rtDWork.TRCK1_RX_MODE = false;
 4548              		.loc 1 2128 12 view .LVU1600
2128:HANcoder_E407_TTA_CombineModel.c ****       rtDWork.TRCK1_RX_MODE = false;
 4549              		.loc 1 2128 15 is_stmt 0 view .LVU1601
 4550 0c4e 94F87330 		ldrb	r3, [r4, #115]	@ zero_extendqisi2
 4551 0c52 002B     		cmp	r3, #0
 4552 0c54 40F0A881 		bne	.L240
 4553              	.L241:
 4554 0c58 DFF87091 		ldr	r9, .L385+72
 4555 0c5c 0020     		movs	r0, #0
 4556              	.LVL353:
 4557              	.L177:
2139:HANcoder_E407_TTA_CombineModel.c ****                  &rtDWork.potFault, &rtDWork.potentiometer1,
 4558              		.loc 1 2139 5 is_stmt 1 discriminator 6 view .LVU1602
 4559 0c5e CDE90176 		strd	r7, r6, [sp, #4]
 4560 0c62 554A     		ldr	r2, .L385+52
 4561 0c64 CDF80080 		str	r8, [sp]
 4562 0c68 D9F80010 		ldr	r1, [r9]
 4563 0c6c 4D4B     		ldr	r3, .L385+32
 4564 0c6e 0592     		str	r2, [sp, #20]
 4565 0c70 524A     		ldr	r2, .L385+56
 4566 0c72 0492     		str	r2, [sp, #16]
 4567 0c74 524A     		ldr	r2, .L385+60
 4568 0c76 0392     		str	r2, [sp, #12]
 4569 0c78 A3F10902 		sub	r2, r3, #9
 4570 0c7c FFF7FEFF 		bl	TRCK1_ID2_TX
 4571              	.LVL354:
2152:HANcoder_E407_TTA_CombineModel.c ****       rtDWork.TRCK_ID3_RX_MODE = true;
 4572              		.loc 1 2152 5 discriminator 6 view .LVU1603
2152:HANcoder_E407_TTA_CombineModel.c ****       rtDWork.TRCK_ID3_RX_MODE = true;
 4573              		.loc 1 2152 8 is_stmt 0 discriminator 6 view .LVU1604
 4574 0c80 F1EE0C7A 		vmov.f32	s15, #7.0e+0
 4575 0c84 B4EE678A 		vcmp.f32	s16, s15
 4576 0c88 F1EE10FA 		vmrs	APSR_nzcv, FPSCR
 4577 0c8c 07D1     		bne	.L178
2152:HANcoder_E407_TTA_CombineModel.c ****       rtDWork.TRCK_ID3_RX_MODE = true;
 4578              		.loc 1 2152 36 discriminator 1 view .LVU1605
 4579 0c8e F0EE087A 		vmov.f32	s15, #3.0e+0
 4580 0c92 F4EE678A 		vcmp.f32	s17, s15
 4581 0c96 F1EE10FA 		vmrs	APSR_nzcv, FPSCR
 4582 0c9a 40F00082 		bne	.L369
 4583              	.L178:
2252:HANcoder_E407_TTA_CombineModel.c ****       rtDWork.TRCK_ID3_RX_MODE = false;
 4584              		.loc 1 2252 12 is_stmt 1 view .LVU1606
2252:HANcoder_E407_TTA_CombineModel.c ****       rtDWork.TRCK_ID3_RX_MODE = false;
 4585              		.loc 1 2252 15 is_stmt 0 view .LVU1607
 4586 0c9e 94F87230 		ldrb	r3, [r4, #114]	@ zero_extendqisi2
 4587 0ca2 13B1     		cbz	r3, .L181
2253:HANcoder_E407_TTA_CombineModel.c ****     }
 4588              		.loc 1 2253 7 is_stmt 1 view .LVU1608
2253:HANcoder_E407_TTA_CombineModel.c ****     }
 4589              		.loc 1 2253 32 is_stmt 0 view .LVU1609
 4590 0ca4 0023     		movs	r3, #0
 4591 0ca6 84F87230 		strb	r3, [r4, #114]
 4592              	.L181:
2262:HANcoder_E407_TTA_CombineModel.c **** 
 4593              		.loc 1 2262 5 is_stmt 1 view .LVU1610
2262:HANcoder_E407_TTA_CombineModel.c **** 
 4594              		.loc 1 2262 33 is_stmt 0 view .LVU1611
 4595 0caa 9BF80030 		ldrb	r3, [fp]	@ zero_extendqisi2
 4596 0cae 07EE903A 		vmov	s15, r3	@ int
2268:HANcoder_E407_TTA_CombineModel.c **** 
 4597              		.loc 1 2268 31 view .LVU1612
 4598 0cb2 94F86330 		ldrb	r3, [r4, #99]	@ zero_extendqisi2
2262:HANcoder_E407_TTA_CombineModel.c **** 
 4599              		.loc 1 2262 33 view .LVU1613
 4600 0cb6 F8EEE77A 		vcvt.f32.s32	s15, s15
 4601              	.LVL355:
2268:HANcoder_E407_TTA_CombineModel.c **** 
 4602              		.loc 1 2268 5 is_stmt 1 view .LVU1614
2273:HANcoder_E407_TTA_CombineModel.c **** 
 4603              		.loc 1 2273 30 is_stmt 0 view .LVU1615
 4604 0cba F2EE006A 		vmov.f32	s13, #8.0e+0
2268:HANcoder_E407_TTA_CombineModel.c **** 
 4605              		.loc 1 2268 41 view .LVU1616
 4606 0cbe 07EE103A 		vmov	s14, r3	@ int
2273:HANcoder_E407_TTA_CombineModel.c **** 
 4607              		.loc 1 2273 30 view .LVU1617
 4608 0cc2 F4EE667A 		vcmp.f32	s15, s13
 4609 0cc6 F1EE10FA 		vmrs	APSR_nzcv, FPSCR
2268:HANcoder_E407_TTA_CombineModel.c **** 
 4610              		.loc 1 2268 41 view .LVU1618
 4611 0cca B8EEC77A 		vcvt.f32.s32	s14, s14
 4612              	.LVL356:
2273:HANcoder_E407_TTA_CombineModel.c **** 
 4613              		.loc 1 2273 5 is_stmt 1 view .LVU1619
2273:HANcoder_E407_TTA_CombineModel.c **** 
 4614              		.loc 1 2273 30 is_stmt 0 view .LVU1620
 4615 0cce 7FD0     		beq	.L370
 4616              	.LVL357:
2278:HANcoder_E407_TTA_CombineModel.c ****       rtDWork.TRLS_ID4_RX_MODE = true;
 4617              		.loc 1 2278 5 is_stmt 1 view .LVU1621
2380:HANcoder_E407_TTA_CombineModel.c ****       rtDWork.TRLS_ID4_RX_MODE = false;
 4618              		.loc 1 2380 12 view .LVU1622
2380:HANcoder_E407_TTA_CombineModel.c ****       rtDWork.TRLS_ID4_RX_MODE = false;
 4619              		.loc 1 2380 15 is_stmt 0 view .LVU1623
 4620 0cd0 94F87120 		ldrb	r2, [r4, #113]	@ zero_extendqisi2
 4621 0cd4 002A     		cmp	r2, #0
 4622 0cd6 40F0DE81 		bne	.L235
 4623              	.LVL358:
 4624              	.L185:
2392:HANcoder_E407_TTA_CombineModel.c ****       /* DataStoreRead: '<S112>/Data Store Read2' */
 4625              		.loc 1 2392 5 is_stmt 1 view .LVU1624
2387:HANcoder_E407_TTA_CombineModel.c **** 
 4626              		.loc 1 2387 17 is_stmt 0 view .LVU1625
 4627 0cda 0022     		movs	r2, #0
 4628              	.LVL359:
 4629              	.L212:
2492:HANcoder_E407_TTA_CombineModel.c **** 
 4630              		.loc 1 2492 5 is_stmt 1 view .LVU1626
2510:HANcoder_E407_TTA_CombineModel.c **** 
 4631              		.loc 1 2510 30 is_stmt 0 view .LVU1627
 4632 0cdc F2EE026A 		vmov.f32	s13, #9.0e+0
 4633 0ce0 F4EE667A 		vcmp.f32	s15, s13
 4634 0ce4 F1EE10FA 		vmrs	APSR_nzcv, FPSCR
2492:HANcoder_E407_TTA_CombineModel.c **** 
 4635              		.loc 1 2492 43 view .LVU1628
 4636 0ce8 8AF80320 		strb	r2, [r10, #3]
2499:HANcoder_E407_TTA_CombineModel.c **** 
 4637              		.loc 1 2499 5 is_stmt 1 view .LVU1629
 4638              	.LVL360:
2505:HANcoder_E407_TTA_CombineModel.c **** 
 4639              		.loc 1 2505 5 view .LVU1630
2510:HANcoder_E407_TTA_CombineModel.c **** 
 4640              		.loc 1 2510 5 view .LVU1631
2510:HANcoder_E407_TTA_CombineModel.c **** 
 4641              		.loc 1 2510 30 is_stmt 0 view .LVU1632
 4642 0cec 40F0E580 		bne	.L186
2510:HANcoder_E407_TTA_CombineModel.c **** 
 4643              		.loc 1 2510 30 discriminator 1 view .LVU1633
 4644 0cf0 F1EE047A 		vmov.f32	s15, #5.0e+0
 4645 0cf4 B4EE677A 		vcmp.f32	s14, s15
 4646 0cf8 F1EE10FA 		vmrs	APSR_nzcv, FPSCR
 4647 0cfc 00F05881 		beq	.L371
 4648              	.LVL361:
2515:HANcoder_E407_TTA_CombineModel.c ****       rtDWork.TRLS_ID5_RX_MODE = true;
 4649              		.loc 1 2515 5 is_stmt 1 view .LVU1634
2516:HANcoder_E407_TTA_CombineModel.c **** 
 4650              		.loc 1 2516 7 view .LVU1635
2523:HANcoder_E407_TTA_CombineModel.c ****         &canRxData_0_TRLS1_ID5.uint8_T_info[0], NULL);
 4651              		.loc 1 2523 28 is_stmt 0 view .LVU1636
 4652 0d00 304B     		ldr	r3, .L385+64
 4653 0d02 314E     		ldr	r6, .L385+68
 4654 0d04 1968     		ldr	r1, [r3]
 4655 0d06 0022     		movs	r2, #0
2516:HANcoder_E407_TTA_CombineModel.c **** 
 4656              		.loc 1 2516 32 view .LVU1637
 4657 0d08 0123     		movs	r3, #1
 4658 0d0a 84F87030 		strb	r3, [r4, #112]
2523:HANcoder_E407_TTA_CombineModel.c ****         &canRxData_0_TRLS1_ID5.uint8_T_info[0], NULL);
 4659              		.loc 1 2523 7 is_stmt 1 view .LVU1638
2523:HANcoder_E407_TTA_CombineModel.c ****         &canRxData_0_TRLS1_ID5.uint8_T_info[0], NULL);
 4660              		.loc 1 2523 28 is_stmt 0 view .LVU1639
 4661 0d0e 0092     		str	r2, [sp]
 4662 0d10 3346     		mov	r3, r6
 4663 0d12 1046     		mov	r0, r2
 4664 0d14 FFF7FEFF 		bl	CanIoGetMessage
 4665              	.LVL362:
2527:HANcoder_E407_TTA_CombineModel.c ****         /* read the data */
 4666              		.loc 1 2527 7 is_stmt 1 view .LVU1640
2527:HANcoder_E407_TTA_CombineModel.c ****         /* read the data */
 4667              		.loc 1 2527 10 is_stmt 0 view .LVU1641
 4668 0d18 0028     		cmp	r0, #0
 4669 0d1a 40F3B582 		ble	.L372
2529:HANcoder_E407_TTA_CombineModel.c ****         rtb_SFunction_o3_m = canRxData_0_TRLS1_ID5.uint8_T_info[1];
 4670              		.loc 1 2529 9 is_stmt 1 view .LVU1642
2532:HANcoder_E407_TTA_CombineModel.c ****         rtb_SFunction_o6_i = canRxData_0_TRLS1_ID5.uint8_T_info[4];
 4671              		.loc 1 2532 28 is_stmt 0 view .LVU1643
 4672 0d1e F378     		ldrb	r3, [r6, #3]	@ zero_extendqisi2
2529:HANcoder_E407_TTA_CombineModel.c ****         rtb_SFunction_o3_m = canRxData_0_TRLS1_ID5.uint8_T_info[1];
 4673              		.loc 1 2529 28 view .LVU1644
 4674 0d20 3278     		ldrb	r2, [r6]	@ zero_extendqisi2
 4675              	.LVL363:
2530:HANcoder_E407_TTA_CombineModel.c ****         rtb_SFunction_o4_b = canRxData_0_TRLS1_ID5.uint8_T_info[2];
 4676              		.loc 1 2530 9 is_stmt 1 view .LVU1645
2530:HANcoder_E407_TTA_CombineModel.c ****         rtb_SFunction_o4_b = canRxData_0_TRLS1_ID5.uint8_T_info[2];
 4677              		.loc 1 2530 28 is_stmt 0 view .LVU1646
 4678 0d22 7078     		ldrb	r0, [r6, #1]	@ zero_extendqisi2
 4679              	.LVL364:
2531:HANcoder_E407_TTA_CombineModel.c ****         rtb_SFunction_o5_o = canRxData_0_TRLS1_ID5.uint8_T_info[3];
 4680              		.loc 1 2531 9 is_stmt 1 view .LVU1647
2531:HANcoder_E407_TTA_CombineModel.c ****         rtb_SFunction_o5_o = canRxData_0_TRLS1_ID5.uint8_T_info[3];
 4681              		.loc 1 2531 28 is_stmt 0 view .LVU1648
 4682 0d24 B178     		ldrb	r1, [r6, #2]	@ zero_extendqisi2
 4683              	.LVL365:
2532:HANcoder_E407_TTA_CombineModel.c ****         rtb_SFunction_o6_i = canRxData_0_TRLS1_ID5.uint8_T_info[4];
 4684              		.loc 1 2532 9 is_stmt 1 view .LVU1649
2533:HANcoder_E407_TTA_CombineModel.c ****         rtb_SFunction_o7_f = canRxData_0_TRLS1_ID5.uint8_T_info[5];
 4685              		.loc 1 2533 9 view .LVU1650
2534:HANcoder_E407_TTA_CombineModel.c ****         rtb_SFunction_o8_p = canRxData_0_TRLS1_ID5.uint8_T_info[6];
 4686              		.loc 1 2534 9 view .LVU1651
2535:HANcoder_E407_TTA_CombineModel.c ****         rtb_SFunction_o9_l = canRxData_0_TRLS1_ID5.uint8_T_info[7];
 4687              		.loc 1 2535 9 view .LVU1652
 4688              	.LBB508:
 4689              	.LBB509:
 440:HANcoder_E407_TTA_CombineModel.c **** 
 4690              		.loc 1 440 17 is_stmt 0 view .LVU1653
 4691 0d26 85F83230 		strb	r3, [r5, #50]
 4692              	.LBE509:
 4693              	.LBE508:
2535:HANcoder_E407_TTA_CombineModel.c ****         rtb_SFunction_o9_l = canRxData_0_TRLS1_ID5.uint8_T_info[7];
 4694              		.loc 1 2535 28 view .LVU1654
 4695 0d2a B379     		ldrb	r3, [r6, #6]	@ zero_extendqisi2
 4696              	.LVL366:
2536:HANcoder_E407_TTA_CombineModel.c ****       }
 4697              		.loc 1 2536 9 is_stmt 1 view .LVU1655
2540:HANcoder_E407_TTA_CombineModel.c ****                        rtb_SFunction_o3_m, rtb_SFunction_o4_b,
 4698              		.loc 1 2540 7 view .LVU1656
 4699              	.LBB511:
 4700              	.LBI508:
 417:HANcoder_E407_TTA_CombineModel.c ****                       uint8_T rtu_In3, uint8_T rtu_In4, uint8_T rtu_In5, uint8_T
 4701              		.loc 1 417 6 view .LVU1657
 4702              	.LBB510:
 422:HANcoder_E407_TTA_CombineModel.c ****   uint8_T rtb_In6;
 4703              		.loc 1 422 3 view .LVU1658
 423:HANcoder_E407_TTA_CombineModel.c ****   uint8_T rtb_In8;
 4704              		.loc 1 423 3 view .LVU1659
 424:HANcoder_E407_TTA_CombineModel.c **** 
 4705              		.loc 1 424 3 view .LVU1660
 429:HANcoder_E407_TTA_CombineModel.c ****     /* SignalConversion generated from: '<S116>/In1' */
 4706              		.loc 1 429 3 view .LVU1661
 431:HANcoder_E407_TTA_CombineModel.c **** 
 4707              		.loc 1 431 5 view .LVU1662
 434:HANcoder_E407_TTA_CombineModel.c **** 
 4708              		.loc 1 434 5 view .LVU1663
 437:HANcoder_E407_TTA_CombineModel.c **** 
 4709              		.loc 1 437 5 view .LVU1664
 440:HANcoder_E407_TTA_CombineModel.c **** 
 4710              		.loc 1 440 5 view .LVU1665
 443:HANcoder_E407_TTA_CombineModel.c **** 
 4711              		.loc 1 443 5 view .LVU1666
 446:HANcoder_E407_TTA_CombineModel.c **** 
 4712              		.loc 1 446 5 view .LVU1667
 449:HANcoder_E407_TTA_CombineModel.c **** 
 4713              		.loc 1 449 5 view .LVU1668
 431:HANcoder_E407_TTA_CombineModel.c **** 
 4714              		.loc 1 431 17 is_stmt 0 view .LVU1669
 4715 0d2c 85F82F20 		strb	r2, [r5, #47]
 434:HANcoder_E407_TTA_CombineModel.c **** 
 4716              		.loc 1 434 17 view .LVU1670
 4717 0d30 85F83000 		strb	r0, [r5, #48]
 437:HANcoder_E407_TTA_CombineModel.c **** 
 4718              		.loc 1 437 17 view .LVU1671
 4719 0d34 85F83110 		strb	r1, [r5, #49]
 449:HANcoder_E407_TTA_CombineModel.c **** 
 4720              		.loc 1 449 17 view .LVU1672
 4721 0d38 85F83330 		strb	r3, [r5, #51]
 452:HANcoder_E407_TTA_CombineModel.c ****   }
 4722              		.loc 1 452 5 is_stmt 1 view .LVU1673
 4723              	.LVL367:
 4724              	.L211:
 452:HANcoder_E407_TTA_CombineModel.c ****   }
 4725              		.loc 1 452 5 is_stmt 0 view .LVU1674
 4726              	.LBE510:
 4727              	.LBE511:
2549:HANcoder_E407_TTA_CombineModel.c **** 
 4728              		.loc 1 2549 7 is_stmt 1 view .LVU1675
2552:HANcoder_E407_TTA_CombineModel.c **** 
 4729              		.loc 1 2552 7 view .LVU1676
 4730              	.LBB512:
 4731              	.LBI512:
 578:HANcoder_E407_TTA_CombineModel.c **** {
 4732              		.loc 1 578 6 view .LVU1677
 4733              	.LBB513:
 583:HANcoder_E407_TTA_CombineModel.c **** }
 4734              		.loc 1 583 3 view .LVU1678
 583:HANcoder_E407_TTA_CombineModel.c **** }
 4735              		.loc 1 583 15 is_stmt 0 view .LVU1679
 4736 0d3c 1202     		lsls	r2, r2, #8
 4737              	.LVL368:
 583:HANcoder_E407_TTA_CombineModel.c **** }
 4738              		.loc 1 583 15 view .LVU1680
 4739              	.LBE513:
 4740              	.LBE512:
2560:HANcoder_E407_TTA_CombineModel.c ****         rtB.EnabledSubsystem_e.In2);
 4741              		.loc 1 2560 24 view .LVU1681
 4742 0d3e 1044     		add	r0, r0, r2
 4743              	.LBB515:
 4744              	.LBB514:
 583:HANcoder_E407_TTA_CombineModel.c **** }
 4745              		.loc 1 583 13 view .LVU1682
 4746 0d40 AA86     		strh	r2, [r5, #52]	@ movhi
 4747              	.LVL369:
 583:HANcoder_E407_TTA_CombineModel.c **** }
 4748              		.loc 1 583 13 view .LVU1683
 4749              	.LBE514:
 4750              	.LBE515:
2560:HANcoder_E407_TTA_CombineModel.c ****         rtB.EnabledSubsystem_e.In2);
 4751              		.loc 1 2560 7 is_stmt 1 view .LVU1684
 4752              	.LBB516:
 4753              	.LBB517:
 604:HANcoder_E407_TTA_CombineModel.c **** }
 4754              		.loc 1 604 15 is_stmt 0 view .LVU1685
 4755 0d42 5A08     		lsrs	r2, r3, #1
 604:HANcoder_E407_TTA_CombineModel.c **** }
 4756              		.loc 1 604 13 view .LVU1686
 4757 0d44 85F82E20 		strb	r2, [r5, #46]
 4758              	.LBE517:
 4759              	.LBE516:
 4760              	.LBB519:
 4761              	.LBB520:
 4762 0d48 85F82720 		strb	r2, [r5, #39]
 4763              	.LBE520:
 4764              	.LBE519:
 4765              	.LBB522:
 4766              	.LBB523:
 620:HANcoder_E407_TTA_CombineModel.c **** }
 4767              		.loc 1 620 15 view .LVU1687
 4768 0d4c 9A08     		lsrs	r2, r3, #2
 620:HANcoder_E407_TTA_CombineModel.c **** }
 4769              		.loc 1 620 13 view .LVU1688
 4770 0d4e 85F82D20 		strb	r2, [r5, #45]
 4771              	.LBE523:
 4772              	.LBE522:
 4773              	.LBB525:
 4774              	.LBB526:
 636:HANcoder_E407_TTA_CombineModel.c **** }
 4775              		.loc 1 636 15 view .LVU1689
 4776 0d52 DA08     		lsrs	r2, r3, #3
 636:HANcoder_E407_TTA_CombineModel.c **** }
 4777              		.loc 1 636 13 view .LVU1690
 4778 0d54 85F82C20 		strb	r2, [r5, #44]
 4779              	.LBE526:
 4780              	.LBE525:
 4781              	.LBB528:
 4782              	.LBB529:
 652:HANcoder_E407_TTA_CombineModel.c **** }
 4783              		.loc 1 652 15 view .LVU1691
 4784 0d58 1A09     		lsrs	r2, r3, #4
 652:HANcoder_E407_TTA_CombineModel.c **** }
 4785              		.loc 1 652 13 view .LVU1692
 4786 0d5a 85F82B20 		strb	r2, [r5, #43]
 4787              	.LBE529:
 4788              	.LBE528:
 4789              	.LBB531:
 4790              	.LBB532:
 668:HANcoder_E407_TTA_CombineModel.c **** }
 4791              		.loc 1 668 15 view .LVU1693
 4792 0d5e 5A09     		lsrs	r2, r3, #5
 668:HANcoder_E407_TTA_CombineModel.c **** }
 4793              		.loc 1 668 13 view .LVU1694
 4794 0d60 85F82A20 		strb	r2, [r5, #42]
 4795              	.LBE532:
 4796              	.LBE531:
 4797              	.LBB534:
 4798              	.LBB535:
 684:HANcoder_E407_TTA_CombineModel.c **** }
 4799              		.loc 1 684 15 view .LVU1695
 4800 0d64 9A09     		lsrs	r2, r3, #6
 4801              	.LBE535:
 4802              	.LBE534:
 4803              	.LBB537:
 4804              	.LBB538:
 700:HANcoder_E407_TTA_CombineModel.c **** }
 4805              		.loc 1 700 15 view .LVU1696
 4806 0d66 DB09     		lsrs	r3, r3, #7
 4807              	.LBE538:
 4808              	.LBE537:
 4809              	.LBB541:
 4810              	.LBB542:
 583:HANcoder_E407_TTA_CombineModel.c **** }
 4811              		.loc 1 583 15 view .LVU1697
 4812 0d68 0902     		lsls	r1, r1, #8
 4813              	.LBE542:
 4814              	.LBE541:
 4815              	.LBB544:
 4816              	.LBB539:
 700:HANcoder_E407_TTA_CombineModel.c **** }
 4817              		.loc 1 700 13 view .LVU1698
 4818 0d6a 85F82830 		strb	r3, [r5, #40]
 4819              	.LBE539:
 4820              	.LBE544:
2825:HANcoder_E407_TTA_CombineModel.c ****     rtDWork.Subsystem2_MODE = true;
 4821              		.loc 1 2825 15 view .LVU1699
 4822 0d6e 94F86330 		ldrb	r3, [r4, #99]	@ zero_extendqisi2
2560:HANcoder_E407_TTA_CombineModel.c ****         rtB.EnabledSubsystem_e.In2);
 4823              		.loc 1 2560 22 view .LVU1700
 4824 0d72 A4F84000 		strh	r0, [r4, #64]	@ movhi
2564:HANcoder_E407_TTA_CombineModel.c **** 
 4825              		.loc 1 2564 7 is_stmt 1 view .LVU1701
2567:HANcoder_E407_TTA_CombineModel.c **** 
 4826              		.loc 1 2567 7 view .LVU1702
 4827              	.LVL370:
 4828              	.LBB545:
 4829              	.LBI541:
 578:HANcoder_E407_TTA_CombineModel.c **** {
 4830              		.loc 1 578 6 view .LVU1703
 4831              	.LBB543:
 583:HANcoder_E407_TTA_CombineModel.c **** }
 4832              		.loc 1 583 3 view .LVU1704
 583:HANcoder_E407_TTA_CombineModel.c **** }
 4833              		.loc 1 583 13 is_stmt 0 view .LVU1705
 4834 0d76 E986     		strh	r1, [r5, #54]	@ movhi
 4835              	.LVL371:
 583:HANcoder_E407_TTA_CombineModel.c **** }
 4836              		.loc 1 583 13 view .LVU1706
 4837              	.LBE543:
 4838              	.LBE545:
2572:HANcoder_E407_TTA_CombineModel.c **** 
 4839              		.loc 1 2572 7 is_stmt 1 view .LVU1707
 4840              	.LBB546:
 4841              	.LBI516:
 599:HANcoder_E407_TTA_CombineModel.c **** {
 4842              		.loc 1 599 6 view .LVU1708
 4843              	.LBB518:
 604:HANcoder_E407_TTA_CombineModel.c **** }
 4844              		.loc 1 604 3 view .LVU1709
 604:HANcoder_E407_TTA_CombineModel.c **** }
 4845              		.loc 1 604 3 is_stmt 0 view .LVU1710
 4846              	.LBE518:
 4847              	.LBE546:
2577:HANcoder_E407_TTA_CombineModel.c **** 
 4848              		.loc 1 2577 7 is_stmt 1 view .LVU1711
 4849              	.LBB547:
 4850              	.LBI522:
 615:HANcoder_E407_TTA_CombineModel.c **** {
 4851              		.loc 1 615 6 view .LVU1712
 4852              	.LBB524:
 620:HANcoder_E407_TTA_CombineModel.c **** }
 4853              		.loc 1 620 3 view .LVU1713
 620:HANcoder_E407_TTA_CombineModel.c **** }
 4854              		.loc 1 620 3 is_stmt 0 view .LVU1714
 4855              	.LBE524:
 4856              	.LBE547:
2582:HANcoder_E407_TTA_CombineModel.c **** 
 4857              		.loc 1 2582 7 is_stmt 1 view .LVU1715
 4858              	.LBB548:
 4859              	.LBI525:
 631:HANcoder_E407_TTA_CombineModel.c **** {
 4860              		.loc 1 631 6 view .LVU1716
 4861              	.LBB527:
 636:HANcoder_E407_TTA_CombineModel.c **** }
 4862              		.loc 1 636 3 view .LVU1717
 636:HANcoder_E407_TTA_CombineModel.c **** }
 4863              		.loc 1 636 3 is_stmt 0 view .LVU1718
 4864              	.LBE527:
 4865              	.LBE548:
2587:HANcoder_E407_TTA_CombineModel.c **** 
 4866              		.loc 1 2587 7 is_stmt 1 view .LVU1719
 4867              	.LBB549:
 4868              	.LBI528:
 647:HANcoder_E407_TTA_CombineModel.c **** {
 4869              		.loc 1 647 6 view .LVU1720
 4870              	.LBB530:
 652:HANcoder_E407_TTA_CombineModel.c **** }
 4871              		.loc 1 652 3 view .LVU1721
 652:HANcoder_E407_TTA_CombineModel.c **** }
 4872              		.loc 1 652 3 is_stmt 0 view .LVU1722
 4873              	.LBE530:
 4874              	.LBE549:
2592:HANcoder_E407_TTA_CombineModel.c **** 
 4875              		.loc 1 2592 7 is_stmt 1 view .LVU1723
 4876              	.LBB550:
 4877              	.LBI531:
 663:HANcoder_E407_TTA_CombineModel.c **** {
 4878              		.loc 1 663 6 view .LVU1724
 4879              	.LBB533:
 668:HANcoder_E407_TTA_CombineModel.c **** }
 4880              		.loc 1 668 3 view .LVU1725
 668:HANcoder_E407_TTA_CombineModel.c **** }
 4881              		.loc 1 668 3 is_stmt 0 view .LVU1726
 4882              	.LBE533:
 4883              	.LBE550:
2597:HANcoder_E407_TTA_CombineModel.c **** 
 4884              		.loc 1 2597 7 is_stmt 1 view .LVU1727
 4885              	.LBB551:
 4886              	.LBI534:
 679:HANcoder_E407_TTA_CombineModel.c **** {
 4887              		.loc 1 679 6 view .LVU1728
 4888              	.LBB536:
 684:HANcoder_E407_TTA_CombineModel.c **** }
 4889              		.loc 1 684 3 view .LVU1729
 684:HANcoder_E407_TTA_CombineModel.c **** }
 4890              		.loc 1 684 13 is_stmt 0 view .LVU1730
 4891 0d78 85F82920 		strb	r2, [r5, #41]
 4892              	.LVL372:
 684:HANcoder_E407_TTA_CombineModel.c **** }
 4893              		.loc 1 684 13 view .LVU1731
 4894              	.LBE536:
 4895              	.LBE551:
2602:HANcoder_E407_TTA_CombineModel.c **** 
 4896              		.loc 1 2602 7 is_stmt 1 view .LVU1732
 4897              	.LBB552:
 4898              	.LBI537:
 695:HANcoder_E407_TTA_CombineModel.c **** {
 4899              		.loc 1 695 6 view .LVU1733
 4900              	.LBB540:
 700:HANcoder_E407_TTA_CombineModel.c **** }
 4901              		.loc 1 700 3 view .LVU1734
 700:HANcoder_E407_TTA_CombineModel.c **** }
 4902              		.loc 1 700 3 is_stmt 0 view .LVU1735
 4903              	.LBE540:
 4904              	.LBE552:
2607:HANcoder_E407_TTA_CombineModel.c **** 
 4905              		.loc 1 2607 7 is_stmt 1 view .LVU1736
 4906              	.LBB553:
 4907              	.LBI519:
 599:HANcoder_E407_TTA_CombineModel.c **** {
 4908              		.loc 1 599 6 view .LVU1737
 4909              	.LBB521:
 604:HANcoder_E407_TTA_CombineModel.c **** }
 4910              		.loc 1 604 3 view .LVU1738
 604:HANcoder_E407_TTA_CombineModel.c **** }
 4911              		.loc 1 604 3 is_stmt 0 view .LVU1739
 4912              	.LBE521:
 4913              	.LBE553:
2617:HANcoder_E407_TTA_CombineModel.c **** 
 4914              		.loc 1 2617 5 is_stmt 1 view .LVU1740
 4915              	.L189:
2622:HANcoder_E407_TTA_CombineModel.c ****       /* DataStoreRead: '<S114>/Data Store Read3' */
 4916              		.loc 1 2622 5 view .LVU1741
2617:HANcoder_E407_TTA_CombineModel.c **** 
 4917              		.loc 1 2617 17 is_stmt 0 view .LVU1742
 4918 0d7c 0022     		movs	r2, #0
 4919              	.LVL373:
 4920              	.L209:
2722:HANcoder_E407_TTA_CombineModel.c **** 
 4921              		.loc 1 2722 5 is_stmt 1 view .LVU1743
2722:HANcoder_E407_TTA_CombineModel.c **** 
 4922              		.loc 1 2722 43 is_stmt 0 view .LVU1744
 4923 0d7e 8AF80220 		strb	r2, [r10, #2]
 4924 0d82 FDE4     		b	.L190
 4925              	.L386:
 4926              		.align	2
 4927              	.L385:
 4928 0d84 00000000 		.word	.LANCHOR41
 4929 0d88 06000000 		.word	.LANCHOR5+6
 4930 0d8c 48000000 		.word	.LANCHOR2+72
 4931 0d90 3E000000 		.word	rtConstB+62
 4932 0d94 9C000000 		.word	.LANCHOR0+156
 4933 0d98 05000000 		.word	.LANCHOR5+5
 4934 0d9c 38000000 		.word	rtConstB+56
 4935 0da0 8A000000 		.word	.LANCHOR0+138
 4936 0da4 6B000000 		.word	.LANCHOR2+107
 4937 0da8 00000000 		.word	.LANCHOR42
 4938 0dac 00000000 		.word	.LANCHOR43
 4939 0db0 00000000 		.word	.LANCHOR44
 4940 0db4 00000000 		.word	.LANCHOR45
 4941 0db8 04000000 		.word	.LANCHOR5+4
 4942 0dbc 32000000 		.word	rtConstB+50
 4943 0dc0 66000000 		.word	.LANCHOR0+102
 4944 0dc4 00000000 		.word	.LANCHOR53
 4945 0dc8 00000000 		.word	.LANCHOR52
 4946 0dcc 00000000 		.word	.LANCHOR46
 4947              	.LVL374:
 4948              	.L370:
2273:HANcoder_E407_TTA_CombineModel.c **** 
 4949              		.loc 1 2273 30 discriminator 1 view .LVU1745
 4950 0dd0 F1EE006A 		vmov.f32	s13, #4.0e+0
 4951 0dd4 B4EE667A 		vcmp.f32	s14, s13
 4952 0dd8 F1EE10FA 		vmrs	APSR_nzcv, FPSCR
 4953 0ddc 40F08C80 		bne	.L183
 4954              	.LVL375:
2278:HANcoder_E407_TTA_CombineModel.c ****       rtDWork.TRLS_ID4_RX_MODE = true;
 4955              		.loc 1 2278 5 is_stmt 1 view .LVU1746
2380:HANcoder_E407_TTA_CombineModel.c ****       rtDWork.TRLS_ID4_RX_MODE = false;
 4956              		.loc 1 2380 12 view .LVU1747
2380:HANcoder_E407_TTA_CombineModel.c ****       rtDWork.TRLS_ID4_RX_MODE = false;
 4957              		.loc 1 2380 15 is_stmt 0 view .LVU1748
 4958 0de0 94F87120 		ldrb	r2, [r4, #113]	@ zero_extendqisi2
 4959 0de4 12B1     		cbz	r2, .L237
2381:HANcoder_E407_TTA_CombineModel.c ****     }
 4960              		.loc 1 2381 7 is_stmt 1 view .LVU1749
2381:HANcoder_E407_TTA_CombineModel.c ****     }
 4961              		.loc 1 2381 32 is_stmt 0 view .LVU1750
 4962 0de6 0022     		movs	r2, #0
 4963 0de8 84F87120 		strb	r2, [r4, #113]
2387:HANcoder_E407_TTA_CombineModel.c **** 
 4964              		.loc 1 2387 5 is_stmt 1 view .LVU1751
 4965              	.L237:
 4966              	.LVL376:
2392:HANcoder_E407_TTA_CombineModel.c ****       /* DataStoreRead: '<S112>/Data Store Read2' */
 4967              		.loc 1 2392 5 view .LVU1752
2392:HANcoder_E407_TTA_CombineModel.c ****       /* DataStoreRead: '<S112>/Data Store Read2' */
 4968              		.loc 1 2392 41 is_stmt 0 view .LVU1753
 4969 0dec 9AF80320 		ldrb	r2, [r10, #3]	@ zero_extendqisi2
2392:HANcoder_E407_TTA_CombineModel.c ****       /* DataStoreRead: '<S112>/Data Store Read2' */
 4970              		.loc 1 2392 21 view .LVU1754
 4971 0df0 012A     		cmp	r2, #1
 4972 0df2 3FF473AF 		beq	.L212
2394:HANcoder_E407_TTA_CombineModel.c **** 
 4973              		.loc 1 2394 7 is_stmt 1 view .LVU1755
2407:HANcoder_E407_TTA_CombineModel.c **** 
 4974              		.loc 1 2407 7 is_stmt 0 view .LVU1756
 4975 0df6 CA49     		ldr	r1, .L387
 4976              	.LBB554:
 4977              	.LBB555:
 732:HANcoder_E407_TTA_CombineModel.c **** }
 4978              		.loc 1 732 15 view .LVU1757
 4979 0df8 94F86C00 		ldrb	r0, [r4, #108]	@ zero_extendqisi2
 4980              	.LBE555:
 4981              	.LBE554:
 4982              	.LBB559:
 4983              	.LBB560:
 716:HANcoder_E407_TTA_CombineModel.c **** }
 4984              		.loc 1 716 15 view .LVU1758
 4985 0dfc 91F82930 		ldrb	r3, [r1, #41]	@ zero_extendqisi2
 4986              	.LBE560:
 4987              	.LBE559:
 4988              	.LBB564:
 4989              	.LBB565:
 748:HANcoder_E407_TTA_CombineModel.c **** }
 4990              		.loc 1 748 15 view .LVU1759
 4991 0e00 91F82A20 		ldrb	r2, [r1, #42]	@ zero_extendqisi2
 4992              	.LBE565:
 4993              	.LBE564:
2438:HANcoder_E407_TTA_CombineModel.c ****         ((uint32_T)rtConstB.Cast7_e + rtB.BitShift1_c.y) + rtB.BitShift_eg.y) +
 4994              		.loc 1 2438 49 view .LVU1760
 4995 0e04 91F82F60 		ldrb	r6, [r1, #47]	@ zero_extendqisi2
 4996              	.LBB569:
 4997              	.LBB556:
 732:HANcoder_E407_TTA_CombineModel.c **** }
 4998              		.loc 1 732 15 view .LVU1761
 4999 0e08 4000     		lsls	r0, r0, #1
 5000              	.LBE556:
 5001              	.LBE569:
 5002              	.LBB570:
 5003              	.LBB561:
 716:HANcoder_E407_TTA_CombineModel.c **** }
 5004              		.loc 1 716 15 view .LVU1762
 5005 0e0a 9B00     		lsls	r3, r3, #2
 5006 0e0c DBB2     		uxtb	r3, r3
 5007              	.LBE561:
 5008              	.LBE570:
 5009              	.LBB571:
 5010              	.LBB557:
 732:HANcoder_E407_TTA_CombineModel.c **** }
 5011              		.loc 1 732 15 view .LVU1763
 5012 0e0e C0B2     		uxtb	r0, r0
 732:HANcoder_E407_TTA_CombineModel.c **** }
 5013              		.loc 1 732 13 view .LVU1764
 5014 0e10 85F84100 		strb	r0, [r5, #65]
 5015              	.LBE557:
 5016              	.LBE571:
 5017              	.LBB572:
 5018              	.LBB562:
 716:HANcoder_E407_TTA_CombineModel.c **** }
 5019              		.loc 1 716 13 view .LVU1765
 5020 0e14 85F84230 		strb	r3, [r5, #66]
 5021              	.LBE562:
 5022              	.LBE572:
2438:HANcoder_E407_TTA_CombineModel.c ****         ((uint32_T)rtConstB.Cast7_e + rtB.BitShift1_c.y) + rtB.BitShift_eg.y) +
 5023              		.loc 1 2438 49 view .LVU1766
 5024 0e18 1844     		add	r0, r0, r3
 5025              	.LBB573:
 5026              	.LBB574:
 764:HANcoder_E407_TTA_CombineModel.c **** }
 5027              		.loc 1 764 15 view .LVU1767
 5028 0e1a 91F82B30 		ldrb	r3, [r1, #43]	@ zero_extendqisi2
 5029              	.LBE574:
 5030              	.LBE573:
 5031              	.LBB579:
 5032              	.LBB566:
 748:HANcoder_E407_TTA_CombineModel.c **** }
 5033              		.loc 1 748 15 view .LVU1768
 5034 0e1e D200     		lsls	r2, r2, #3
 5035 0e20 D2B2     		uxtb	r2, r2
 5036              	.LBE566:
 5037              	.LBE579:
2438:HANcoder_E407_TTA_CombineModel.c ****         ((uint32_T)rtConstB.Cast7_e + rtB.BitShift1_c.y) + rtB.BitShift_eg.y) +
 5038              		.loc 1 2438 49 view .LVU1769
 5039 0e22 3044     		add	r0, r0, r6
 5040              	.LBB580:
 5041              	.LBB575:
 764:HANcoder_E407_TTA_CombineModel.c **** }
 5042              		.loc 1 764 15 view .LVU1770
 5043 0e24 1B01     		lsls	r3, r3, #4
 5044              	.LBE575:
 5045              	.LBE580:
 5046              	.LBB581:
 5047              	.LBB567:
 748:HANcoder_E407_TTA_CombineModel.c **** }
 5048              		.loc 1 748 13 view .LVU1771
 5049 0e26 85F84020 		strb	r2, [r5, #64]
 5050              	.LBE567:
 5051              	.LBE581:
 5052              	.LBB582:
 5053              	.LBB576:
 764:HANcoder_E407_TTA_CombineModel.c **** }
 5054              		.loc 1 764 15 view .LVU1772
 5055 0e2a DBB2     		uxtb	r3, r3
 5056              	.LBE576:
 5057              	.LBE582:
2438:HANcoder_E407_TTA_CombineModel.c ****         ((uint32_T)rtConstB.Cast7_e + rtB.BitShift1_c.y) + rtB.BitShift_eg.y) +
 5058              		.loc 1 2438 29 view .LVU1773
 5059 0e2c 0244     		add	r2, r2, r0
 5060              	.LBB583:
 5061              	.LBB577:
 764:HANcoder_E407_TTA_CombineModel.c **** }
 5062              		.loc 1 764 13 view .LVU1774
 5063 0e2e 85F83F30 		strb	r3, [r5, #63]
 5064              	.LBE577:
 5065              	.LBE583:
2438:HANcoder_E407_TTA_CombineModel.c ****         ((uint32_T)rtConstB.Cast7_e + rtB.BitShift1_c.y) + rtB.BitShift_eg.y) +
 5066              		.loc 1 2438 9 view .LVU1775
 5067 0e32 1344     		add	r3, r3, r2
 5068              	.LBB584:
 5069              	.LBB585:
 780:HANcoder_E407_TTA_CombineModel.c **** }
 5070              		.loc 1 780 15 view .LVU1776
 5071 0e34 91F82C20 		ldrb	r2, [r1, #44]	@ zero_extendqisi2
 5072              	.LBE585:
 5073              	.LBE584:
 5074              	.LBB589:
 5075              	.LBB590:
 796:HANcoder_E407_TTA_CombineModel.c **** }
 5076              		.loc 1 796 15 view .LVU1777
 5077 0e38 91F82D00 		ldrb	r0, [r1, #45]	@ zero_extendqisi2
 5078              	.LBE590:
 5079              	.LBE589:
 5080              	.LBB594:
 5081              	.LBB595:
 812:HANcoder_E407_TTA_CombineModel.c **** }
 5082              		.loc 1 812 15 view .LVU1778
 5083 0e3c 91F82E10 		ldrb	r1, [r1, #46]	@ zero_extendqisi2
 5084              	.LBE595:
 5085              	.LBE594:
 5086              	.LBB600:
 5087              	.LBB586:
 780:HANcoder_E407_TTA_CombineModel.c **** }
 5088              		.loc 1 780 15 view .LVU1779
 5089 0e40 5201     		lsls	r2, r2, #5
 5090 0e42 D2B2     		uxtb	r2, r2
 5091              	.LBE586:
 5092              	.LBE600:
 5093              	.LBB601:
 5094              	.LBB591:
 796:HANcoder_E407_TTA_CombineModel.c **** }
 5095              		.loc 1 796 15 view .LVU1780
 5096 0e44 8001     		lsls	r0, r0, #6
 5097 0e46 C0B2     		uxtb	r0, r0
 5098              	.LBE591:
 5099              	.LBE601:
2437:HANcoder_E407_TTA_CombineModel.c ****         (uint8_T)((uint32_T)(uint8_T)((uint32_T)(uint8_T)((uint32_T)(uint8_T)
 5100              		.loc 1 2437 59 view .LVU1781
 5101 0e48 1344     		add	r3, r3, r2
 5102              	.LBB602:
 5103              	.LBB587:
 780:HANcoder_E407_TTA_CombineModel.c **** }
 5104              		.loc 1 780 13 view .LVU1782
 5105 0e4a 85F83E20 		strb	r2, [r5, #62]
 5106              	.LBE587:
 5107              	.LBE602:
2437:HANcoder_E407_TTA_CombineModel.c ****         (uint8_T)((uint32_T)(uint8_T)((uint32_T)(uint8_T)((uint32_T)(uint8_T)
 5108              		.loc 1 2437 39 view .LVU1783
 5109 0e4e C218     		adds	r2, r0, r3
 5110              	.LBB603:
 5111              	.LBB604:
 833:HANcoder_E407_TTA_CombineModel.c **** }
 5112              		.loc 1 833 15 view .LVU1784
 5113 0e50 B4F84830 		ldrh	r3, [r4, #72]
 5114              	.LBE604:
 5115              	.LBE603:
 5116              	.LBB607:
 5117              	.LBB592:
 796:HANcoder_E407_TTA_CombineModel.c **** }
 5118              		.loc 1 796 13 view .LVU1785
 5119 0e54 85F83D00 		strb	r0, [r5, #61]
 5120              	.LBE592:
 5121              	.LBE607:
 5122              	.LBB608:
 5123              	.LBB605:
 833:HANcoder_E407_TTA_CombineModel.c **** }
 5124              		.loc 1 833 15 view .LVU1786
 5125 0e58 1B0A     		lsrs	r3, r3, #8
 833:HANcoder_E407_TTA_CombineModel.c **** }
 5126              		.loc 1 833 13 view .LVU1787
 5127 0e5a 6B87     		strh	r3, [r5, #58]	@ movhi
 5128              	.LBE605:
 5129              	.LBE608:
 5130              	.LBB609:
 5131              	.LBB596:
 812:HANcoder_E407_TTA_CombineModel.c **** }
 5132              		.loc 1 812 15 view .LVU1788
 5133 0e5c C901     		lsls	r1, r1, #7
 5134              	.LBE596:
 5135              	.LBE609:
 5136              	.LBB610:
 5137              	.LBB611:
 833:HANcoder_E407_TTA_CombineModel.c **** }
 5138              		.loc 1 833 15 view .LVU1789
 5139 0e5e A38F     		ldrh	r3, [r4, #60]
 5140 0e60 A08F     		ldrh	r0, [r4, #60]
 5141              	.LBE611:
 5142              	.LBE610:
 5143              	.LBB614:
 5144              	.LBB597:
 812:HANcoder_E407_TTA_CombineModel.c **** }
 5145              		.loc 1 812 15 view .LVU1790
 5146 0e62 C9B2     		uxtb	r1, r1
 5147              	.LBE597:
 5148              	.LBE614:
2437:HANcoder_E407_TTA_CombineModel.c ****         (uint8_T)((uint32_T)(uint8_T)((uint32_T)(uint8_T)((uint32_T)(uint8_T)
 5149              		.loc 1 2437 19 view .LVU1791
 5150 0e64 0A44     		add	r2, r2, r1
 5151              	.LBB615:
 5152              	.LBB598:
 812:HANcoder_E407_TTA_CombineModel.c **** }
 5153              		.loc 1 812 13 view .LVU1792
 5154 0e66 85F83C10 		strb	r1, [r5, #60]
 5155              	.LBE598:
 5156              	.LBE615:
 5157              	.LBB616:
 5158              	.LBB612:
 833:HANcoder_E407_TTA_CombineModel.c **** }
 5159              		.loc 1 833 15 view .LVU1793
 5160 0e6a 1B0A     		lsrs	r3, r3, #8
 5161 0e6c B4F84810 		ldrh	r1, [r4, #72]
 833:HANcoder_E407_TTA_CombineModel.c **** }
 5162              		.loc 1 833 13 view .LVU1794
 5163 0e70 2B87     		strh	r3, [r5, #56]	@ movhi
 5164              	.LBE612:
 5165              	.LBE616:
2478:HANcoder_E407_TTA_CombineModel.c ****         canTxData.uint8_T_info[1] = rtB.Cast1_i;
 5166              		.loc 1 2478 35 view .LVU1795
 5167 0e72 AC4B     		ldr	r3, .L387+4
 5168 0e74 49BA     		rev16	r1, r1
2480:HANcoder_E407_TTA_CombineModel.c ****         canTxData.uint8_T_info[3] = rtB.Cast1_c;
 5169              		.loc 1 2480 35 view .LVU1796
 5170 0e76 5980     		strh	r1, [r3, #2]	@ movhi
2437:HANcoder_E407_TTA_CombineModel.c ****         (uint8_T)((uint32_T)(uint8_T)((uint32_T)(uint8_T)((uint32_T)(uint8_T)
 5171              		.loc 1 2437 19 view .LVU1797
 5172 0e78 D2B2     		uxtb	r2, r2
 5173 0e7a 40BA     		rev16	r0, r0
2450:HANcoder_E407_TTA_CombineModel.c **** 
 5174              		.loc 1 2450 18 view .LVU1798
 5175 0e7c A981     		strh	r1, [r5, #12]	@ movhi
2488:HANcoder_E407_TTA_CombineModel.c ****       }
 5176              		.loc 1 2488 9 view .LVU1799
 5177 0e7e AA49     		ldr	r1, .L387+8
2478:HANcoder_E407_TTA_CombineModel.c ****         canTxData.uint8_T_info[1] = rtB.Cast1_i;
 5178              		.loc 1 2478 35 view .LVU1800
 5179 0e80 1880     		strh	r0, [r3]	@ movhi
2484:HANcoder_E407_TTA_CombineModel.c ****         canTxData.uint8_T_info[7] = ((uint8_T)0U);
 5180              		.loc 1 2484 35 view .LVU1801
 5181 0e82 9A71     		strb	r2, [r3, #6]
2437:HANcoder_E407_TTA_CombineModel.c ****         (uint8_T)((uint32_T)(uint8_T)((uint32_T)(uint8_T)((uint32_T)(uint8_T)
 5182              		.loc 1 2437 17 view .LVU1802
 5183 0e84 EA72     		strb	r2, [r5, #11]
2464:HANcoder_E407_TTA_CombineModel.c **** 
 5184              		.loc 1 2464 18 view .LVU1803
 5185 0e86 E881     		strh	r0, [r5, #14]	@ movhi
2394:HANcoder_E407_TTA_CombineModel.c **** 
 5186              		.loc 1 2394 35 view .LVU1804
 5187 0e88 94F86220 		ldrb	r2, [r4, #98]	@ zero_extendqisi2
2482:HANcoder_E407_TTA_CombineModel.c ****         canTxData.uint8_T_info[5] = ((uint8_T)0U);
 5188              		.loc 1 2482 35 view .LVU1805
 5189 0e8c 1A71     		strb	r2, [r3, #4]
2483:HANcoder_E407_TTA_CombineModel.c ****         canTxData.uint8_T_info[6] = rtB.Add_f;
 5190              		.loc 1 2483 35 view .LVU1806
 5191 0e8e 0020     		movs	r0, #0
 5192 0e90 5871     		strb	r0, [r3, #5]
2485:HANcoder_E407_TTA_CombineModel.c **** 
 5193              		.loc 1 2485 35 view .LVU1807
 5194 0e92 D871     		strb	r0, [r3, #7]
2394:HANcoder_E407_TTA_CombineModel.c **** 
 5195              		.loc 1 2394 26 view .LVU1808
 5196 0e94 AA72     		strb	r2, [r5, #10]
2399:HANcoder_E407_TTA_CombineModel.c **** 
 5197              		.loc 1 2399 7 is_stmt 1 view .LVU1809
 5198              	.LVL377:
2402:HANcoder_E407_TTA_CombineModel.c **** 
 5199              		.loc 1 2402 7 view .LVU1810
 5200              	.LBB617:
 5201              	.LBI554:
 727:HANcoder_E407_TTA_CombineModel.c **** {
 5202              		.loc 1 727 6 view .LVU1811
 5203              	.LBB558:
 732:HANcoder_E407_TTA_CombineModel.c **** }
 5204              		.loc 1 732 3 view .LVU1812
 732:HANcoder_E407_TTA_CombineModel.c **** }
 5205              		.loc 1 732 3 is_stmt 0 view .LVU1813
 5206              	.LBE558:
 5207              	.LBE617:
2407:HANcoder_E407_TTA_CombineModel.c **** 
 5208              		.loc 1 2407 7 is_stmt 1 view .LVU1814
 5209              	.LBB618:
 5210              	.LBI559:
 711:HANcoder_E407_TTA_CombineModel.c **** {
 5211              		.loc 1 711 6 view .LVU1815
 5212              	.LBB563:
 716:HANcoder_E407_TTA_CombineModel.c **** }
 5213              		.loc 1 716 3 view .LVU1816
 716:HANcoder_E407_TTA_CombineModel.c **** }
 5214              		.loc 1 716 3 is_stmt 0 view .LVU1817
 5215              	.LBE563:
 5216              	.LBE618:
2412:HANcoder_E407_TTA_CombineModel.c **** 
 5217              		.loc 1 2412 7 is_stmt 1 view .LVU1818
 5218              	.LBB619:
 5219              	.LBI564:
 743:HANcoder_E407_TTA_CombineModel.c **** {
 5220              		.loc 1 743 6 view .LVU1819
 5221              	.LBB568:
 748:HANcoder_E407_TTA_CombineModel.c **** }
 5222              		.loc 1 748 3 view .LVU1820
 748:HANcoder_E407_TTA_CombineModel.c **** }
 5223              		.loc 1 748 3 is_stmt 0 view .LVU1821
 5224              	.LBE568:
 5225              	.LBE619:
2417:HANcoder_E407_TTA_CombineModel.c **** 
 5226              		.loc 1 2417 7 is_stmt 1 view .LVU1822
 5227              	.LBB620:
 5228              	.LBI573:
 759:HANcoder_E407_TTA_CombineModel.c **** {
 5229              		.loc 1 759 6 view .LVU1823
 5230              	.LBB578:
 764:HANcoder_E407_TTA_CombineModel.c **** }
 5231              		.loc 1 764 3 view .LVU1824
 764:HANcoder_E407_TTA_CombineModel.c **** }
 5232              		.loc 1 764 3 is_stmt 0 view .LVU1825
 5233              	.LBE578:
 5234              	.LBE620:
2422:HANcoder_E407_TTA_CombineModel.c **** 
 5235              		.loc 1 2422 7 is_stmt 1 view .LVU1826
 5236              	.LBB621:
 5237              	.LBI584:
 775:HANcoder_E407_TTA_CombineModel.c **** {
 5238              		.loc 1 775 6 view .LVU1827
 5239              	.LBB588:
 780:HANcoder_E407_TTA_CombineModel.c **** }
 5240              		.loc 1 780 3 view .LVU1828
 780:HANcoder_E407_TTA_CombineModel.c **** }
 5241              		.loc 1 780 3 is_stmt 0 view .LVU1829
 5242              	.LBE588:
 5243              	.LBE621:
2427:HANcoder_E407_TTA_CombineModel.c **** 
 5244              		.loc 1 2427 7 is_stmt 1 view .LVU1830
 5245              	.LBB622:
 5246              	.LBI589:
 791:HANcoder_E407_TTA_CombineModel.c **** {
 5247              		.loc 1 791 6 view .LVU1831
 5248              	.LBB593:
 796:HANcoder_E407_TTA_CombineModel.c **** }
 5249              		.loc 1 796 3 view .LVU1832
 796:HANcoder_E407_TTA_CombineModel.c **** }
 5250              		.loc 1 796 3 is_stmt 0 view .LVU1833
 5251              	.LBE593:
 5252              	.LBE622:
2432:HANcoder_E407_TTA_CombineModel.c **** 
 5253              		.loc 1 2432 7 is_stmt 1 view .LVU1834
 5254              	.LBB623:
 5255              	.LBI594:
 807:HANcoder_E407_TTA_CombineModel.c **** {
 5256              		.loc 1 807 6 view .LVU1835
 5257              	.LBB599:
 812:HANcoder_E407_TTA_CombineModel.c **** }
 5258              		.loc 1 812 3 view .LVU1836
 812:HANcoder_E407_TTA_CombineModel.c **** }
 5259              		.loc 1 812 3 is_stmt 0 view .LVU1837
 5260              	.LBE599:
 5261              	.LBE623:
2437:HANcoder_E407_TTA_CombineModel.c ****         (uint8_T)((uint32_T)(uint8_T)((uint32_T)(uint8_T)((uint32_T)(uint8_T)
 5262              		.loc 1 2437 7 is_stmt 1 view .LVU1838
2445:HANcoder_E407_TTA_CombineModel.c **** 
 5263              		.loc 1 2445 7 view .LVU1839
 5264              	.LBB624:
 5265              	.LBI603:
 828:HANcoder_E407_TTA_CombineModel.c **** {
 5266              		.loc 1 828 6 view .LVU1840
 5267              	.LBB606:
 833:HANcoder_E407_TTA_CombineModel.c **** }
 5268              		.loc 1 833 3 view .LVU1841
 833:HANcoder_E407_TTA_CombineModel.c **** }
 5269              		.loc 1 833 3 is_stmt 0 view .LVU1842
 5270              	.LBE606:
 5271              	.LBE624:
2450:HANcoder_E407_TTA_CombineModel.c **** 
 5272              		.loc 1 2450 7 is_stmt 1 view .LVU1843
2455:HANcoder_E407_TTA_CombineModel.c **** 
 5273              		.loc 1 2455 7 view .LVU1844
2459:HANcoder_E407_TTA_CombineModel.c **** 
 5274              		.loc 1 2459 7 view .LVU1845
 5275              	.LBB625:
 5276              	.LBI610:
 828:HANcoder_E407_TTA_CombineModel.c **** {
 5277              		.loc 1 828 6 view .LVU1846
 5278              	.LBB613:
 833:HANcoder_E407_TTA_CombineModel.c **** }
 5279              		.loc 1 833 3 view .LVU1847
 833:HANcoder_E407_TTA_CombineModel.c **** }
 5280              		.loc 1 833 3 is_stmt 0 view .LVU1848
 5281              	.LBE613:
 5282              	.LBE625:
2464:HANcoder_E407_TTA_CombineModel.c **** 
 5283              		.loc 1 2464 7 is_stmt 1 view .LVU1849
2469:HANcoder_E407_TTA_CombineModel.c **** 
 5284              		.loc 1 2469 7 view .LVU1850
2478:HANcoder_E407_TTA_CombineModel.c ****         canTxData.uint8_T_info[1] = rtB.Cast1_i;
 5285              		.loc 1 2478 9 view .LVU1851
2479:HANcoder_E407_TTA_CombineModel.c ****         canTxData.uint8_T_info[2] = rtB.Cast_d;
 5286              		.loc 1 2479 9 view .LVU1852
2480:HANcoder_E407_TTA_CombineModel.c ****         canTxData.uint8_T_info[3] = rtB.Cast1_c;
 5287              		.loc 1 2480 9 view .LVU1853
2481:HANcoder_E407_TTA_CombineModel.c ****         canTxData.uint8_T_info[4] = rtB.DataStoreRead2;
 5288              		.loc 1 2481 9 view .LVU1854
2482:HANcoder_E407_TTA_CombineModel.c ****         canTxData.uint8_T_info[5] = ((uint8_T)0U);
 5289              		.loc 1 2482 9 view .LVU1855
2483:HANcoder_E407_TTA_CombineModel.c ****         canTxData.uint8_T_info[6] = rtB.Add_f;
 5290              		.loc 1 2483 9 view .LVU1856
2484:HANcoder_E407_TTA_CombineModel.c ****         canTxData.uint8_T_info[7] = ((uint8_T)0U);
 5291              		.loc 1 2484 9 view .LVU1857
2485:HANcoder_E407_TTA_CombineModel.c **** 
 5292              		.loc 1 2485 9 view .LVU1858
2488:HANcoder_E407_TTA_CombineModel.c ****       }
 5293              		.loc 1 2488 9 view .LVU1859
 5294 0e96 0822     		movs	r2, #8
 5295 0e98 0968     		ldr	r1, [r1]
 5296 0e9a FFF7FEFF 		bl	CanTransmit
 5297              	.LVL378:
2499:HANcoder_E407_TTA_CombineModel.c **** 
 5298              		.loc 1 2499 33 is_stmt 0 view .LVU1860
 5299 0e9e 9BF80030 		ldrb	r3, [fp]	@ zero_extendqisi2
 5300 0ea2 07EE903A 		vmov	s15, r3	@ int
2505:HANcoder_E407_TTA_CombineModel.c **** 
 5301              		.loc 1 2505 31 view .LVU1861
 5302 0ea6 94F86330 		ldrb	r3, [r4, #99]	@ zero_extendqisi2
2505:HANcoder_E407_TTA_CombineModel.c **** 
 5303              		.loc 1 2505 41 view .LVU1862
 5304 0eaa 07EE103A 		vmov	s14, r3	@ int
2499:HANcoder_E407_TTA_CombineModel.c **** 
 5305              		.loc 1 2499 33 view .LVU1863
 5306 0eae F8EEE77A 		vcvt.f32.s32	s15, s15
2505:HANcoder_E407_TTA_CombineModel.c **** 
 5307              		.loc 1 2505 41 view .LVU1864
 5308 0eb2 B8EEC77A 		vcvt.f32.s32	s14, s14
2387:HANcoder_E407_TTA_CombineModel.c **** 
 5309              		.loc 1 2387 17 view .LVU1865
 5310 0eb6 0122     		movs	r2, #1
 5311 0eb8 10E7     		b	.L212
 5312              	.LVL379:
 5313              	.L186:
2515:HANcoder_E407_TTA_CombineModel.c ****       rtDWork.TRLS_ID5_RX_MODE = true;
 5314              		.loc 1 2515 5 is_stmt 1 view .LVU1866
2610:HANcoder_E407_TTA_CombineModel.c ****       rtDWork.TRLS_ID5_RX_MODE = false;
 5315              		.loc 1 2610 12 view .LVU1867
2610:HANcoder_E407_TTA_CombineModel.c ****       rtDWork.TRLS_ID5_RX_MODE = false;
 5316              		.loc 1 2610 15 is_stmt 0 view .LVU1868
 5317 0eba 94F87020 		ldrb	r2, [r4, #112]	@ zero_extendqisi2
 5318 0ebe 002A     		cmp	r2, #0
 5319 0ec0 3FF45CAF 		beq	.L189
2611:HANcoder_E407_TTA_CombineModel.c ****     }
 5320              		.loc 1 2611 7 is_stmt 1 view .LVU1869
2611:HANcoder_E407_TTA_CombineModel.c ****     }
 5321              		.loc 1 2611 32 is_stmt 0 view .LVU1870
 5322 0ec4 0022     		movs	r2, #0
 5323 0ec6 84F87020 		strb	r2, [r4, #112]
2617:HANcoder_E407_TTA_CombineModel.c **** 
 5324              		.loc 1 2617 5 is_stmt 1 view .LVU1871
 5325 0eca 57E7     		b	.L189
 5326              	.LVL380:
 5327              	.L350:
1106:HANcoder_E407_TTA_CombineModel.c **** 
 5328              		.loc 1 1106 31 is_stmt 0 view .LVU1872
 5329 0ecc 0893     		str	r3, [sp, #32]
 5330 0ece FFF7C1B8 		b	.L231
 5331              	.LVL381:
 5332              	.L363:
1794:HANcoder_E407_TTA_CombineModel.c ****     }
 5333              		.loc 1 1794 7 is_stmt 1 view .LVU1873
1794:HANcoder_E407_TTA_CombineModel.c ****     }
 5334              		.loc 1 1794 29 is_stmt 0 view .LVU1874
 5335 0ed2 0021     		movs	r1, #0
 5336 0ed4 84F87510 		strb	r1, [r4, #117]
1800:HANcoder_E407_TTA_CombineModel.c **** 
 5337              		.loc 1 1800 5 is_stmt 1 view .LVU1875
 5338 0ed8 01E5     		b	.L246
 5339              	.LVL382:
 5340              	.L355:
1389:HANcoder_E407_TTA_CombineModel.c **** 
 5341              		.loc 1 1389 44 is_stmt 0 discriminator 1 view .LVU1876
 5342 0eda 94F86330 		ldrb	r3, [r4, #99]	@ zero_extendqisi2
 5343 0ede A3F10103 		sub	r3, #1
 5344 0ee2 B3FA83F3 		clz	r3, r3
 5345 0ee6 5B09     		lsrs	r3, r3, #5
 5346 0ee8 FFF713BB 		b	.L145
 5347              	.LVL383:
 5348              	.L255:
1203:HANcoder_E407_TTA_CombineModel.c ****     } else {
 5349              		.loc 1 1203 11 view .LVU1877
 5350 0eec DFF85892 		ldr	r9, .L387+40
 5351 0ef0 4FF00008 		mov	r8, #0
 5352 0ef4 FFF772B9 		b	.L124
 5353              	.LVL384:
 5354              	.L183:
2278:HANcoder_E407_TTA_CombineModel.c ****       rtDWork.TRLS_ID4_RX_MODE = true;
 5355              		.loc 1 2278 5 is_stmt 1 view .LVU1878
2279:HANcoder_E407_TTA_CombineModel.c **** 
 5356              		.loc 1 2279 7 view .LVU1879
2286:HANcoder_E407_TTA_CombineModel.c ****         &canRxData_0_TRLS1_ID4.uint8_T_info[0], NULL);
 5357              		.loc 1 2286 28 is_stmt 0 view .LVU1880
 5358 0ef8 8B4B     		ldr	r3, .L387+8
 5359 0efa 8C4E     		ldr	r6, .L387+12
 5360 0efc 1968     		ldr	r1, [r3]
 5361 0efe 0022     		movs	r2, #0
2279:HANcoder_E407_TTA_CombineModel.c **** 
 5362              		.loc 1 2279 32 view .LVU1881
 5363 0f00 0123     		movs	r3, #1
 5364 0f02 84F87130 		strb	r3, [r4, #113]
2286:HANcoder_E407_TTA_CombineModel.c ****         &canRxData_0_TRLS1_ID4.uint8_T_info[0], NULL);
 5365              		.loc 1 2286 7 is_stmt 1 view .LVU1882
2286:HANcoder_E407_TTA_CombineModel.c ****         &canRxData_0_TRLS1_ID4.uint8_T_info[0], NULL);
 5366              		.loc 1 2286 28 is_stmt 0 view .LVU1883
 5367 0f06 0092     		str	r2, [sp]
 5368 0f08 3346     		mov	r3, r6
 5369 0f0a 1046     		mov	r0, r2
 5370 0f0c FFF7FEFF 		bl	CanIoGetMessage
 5371              	.LVL385:
2290:HANcoder_E407_TTA_CombineModel.c ****         /* read the data */
 5372              		.loc 1 2290 7 is_stmt 1 view .LVU1884
2290:HANcoder_E407_TTA_CombineModel.c ****         /* read the data */
 5373              		.loc 1 2290 10 is_stmt 0 view .LVU1885
 5374 0f10 0028     		cmp	r0, #0
 5375 0f12 40F3C281 		ble	.L373
2292:HANcoder_E407_TTA_CombineModel.c ****         rtb_SFunction_o3_p = canRxData_0_TRLS1_ID4.uint8_T_info[1];
 5376              		.loc 1 2292 9 is_stmt 1 view .LVU1886
2292:HANcoder_E407_TTA_CombineModel.c ****         rtb_SFunction_o3_p = canRxData_0_TRLS1_ID4.uint8_T_info[1];
 5377              		.loc 1 2292 28 is_stmt 0 view .LVU1887
 5378 0f16 3078     		ldrb	r0, [r6]	@ zero_extendqisi2
 5379              	.LVL386:
2293:HANcoder_E407_TTA_CombineModel.c ****         rtb_SFunction_o4_c = canRxData_0_TRLS1_ID4.uint8_T_info[2];
 5380              		.loc 1 2293 9 is_stmt 1 view .LVU1888
2293:HANcoder_E407_TTA_CombineModel.c ****         rtb_SFunction_o4_c = canRxData_0_TRLS1_ID4.uint8_T_info[2];
 5381              		.loc 1 2293 28 is_stmt 0 view .LVU1889
 5382 0f18 96F801C0 		ldrb	ip, [r6, #1]	@ zero_extendqisi2
 5383              	.LVL387:
2294:HANcoder_E407_TTA_CombineModel.c ****         rtb_SFunction_o5_c = canRxData_0_TRLS1_ID4.uint8_T_info[3];
 5384              		.loc 1 2294 9 is_stmt 1 view .LVU1890
2294:HANcoder_E407_TTA_CombineModel.c ****         rtb_SFunction_o5_c = canRxData_0_TRLS1_ID4.uint8_T_info[3];
 5385              		.loc 1 2294 28 is_stmt 0 view .LVU1891
 5386 0f1c B178     		ldrb	r1, [r6, #2]	@ zero_extendqisi2
 5387              	.LVL388:
2295:HANcoder_E407_TTA_CombineModel.c ****         rtb_SFunction_o6_e = canRxData_0_TRLS1_ID4.uint8_T_info[4];
 5388              		.loc 1 2295 9 is_stmt 1 view .LVU1892
2295:HANcoder_E407_TTA_CombineModel.c ****         rtb_SFunction_o6_e = canRxData_0_TRLS1_ID4.uint8_T_info[4];
 5389              		.loc 1 2295 28 is_stmt 0 view .LVU1893
 5390 0f1e F778     		ldrb	r7, [r6, #3]	@ zero_extendqisi2
 5391              	.LVL389:
2296:HANcoder_E407_TTA_CombineModel.c ****         rtb_SFunction_o7_l = canRxData_0_TRLS1_ID4.uint8_T_info[5];
 5392              		.loc 1 2296 9 is_stmt 1 view .LVU1894
2297:HANcoder_E407_TTA_CombineModel.c ****         rtb_SFunction_o8_f = canRxData_0_TRLS1_ID4.uint8_T_info[6];
 5393              		.loc 1 2297 9 view .LVU1895
2298:HANcoder_E407_TTA_CombineModel.c ****         rtb_SFunction_o9_h = canRxData_0_TRLS1_ID4.uint8_T_info[7];
 5394              		.loc 1 2298 9 view .LVU1896
2298:HANcoder_E407_TTA_CombineModel.c ****         rtb_SFunction_o9_h = canRxData_0_TRLS1_ID4.uint8_T_info[7];
 5395              		.loc 1 2298 28 is_stmt 0 view .LVU1897
 5396 0f20 B279     		ldrb	r2, [r6, #6]	@ zero_extendqisi2
 5397              	.LVL390:
2299:HANcoder_E407_TTA_CombineModel.c ****       }
 5398              		.loc 1 2299 9 is_stmt 1 view .LVU1898
2303:HANcoder_E407_TTA_CombineModel.c ****                        rtb_SFunction_o3_p, rtb_SFunction_o4_c,
 5399              		.loc 1 2303 7 view .LVU1899
 5400              	.LBB626:
 5401              	.LBI626:
 417:HANcoder_E407_TTA_CombineModel.c ****                       uint8_T rtu_In3, uint8_T rtu_In4, uint8_T rtu_In5, uint8_T
 5402              		.loc 1 417 6 view .LVU1900
 5403              	.LBB627:
 422:HANcoder_E407_TTA_CombineModel.c ****   uint8_T rtb_In6;
 5404              		.loc 1 422 3 view .LVU1901
 423:HANcoder_E407_TTA_CombineModel.c ****   uint8_T rtb_In8;
 5405              		.loc 1 423 3 view .LVU1902
 424:HANcoder_E407_TTA_CombineModel.c **** 
 5406              		.loc 1 424 3 view .LVU1903
 429:HANcoder_E407_TTA_CombineModel.c ****     /* SignalConversion generated from: '<S116>/In1' */
 5407              		.loc 1 429 3 view .LVU1904
 431:HANcoder_E407_TTA_CombineModel.c **** 
 5408              		.loc 1 431 5 view .LVU1905
 434:HANcoder_E407_TTA_CombineModel.c **** 
 5409              		.loc 1 434 5 view .LVU1906
 437:HANcoder_E407_TTA_CombineModel.c **** 
 5410              		.loc 1 437 5 view .LVU1907
 440:HANcoder_E407_TTA_CombineModel.c **** 
 5411              		.loc 1 440 5 view .LVU1908
 431:HANcoder_E407_TTA_CombineModel.c **** 
 5412              		.loc 1 431 17 is_stmt 0 view .LVU1909
 5413 0f22 85F84B00 		strb	r0, [r5, #75]
 434:HANcoder_E407_TTA_CombineModel.c **** 
 5414              		.loc 1 434 17 view .LVU1910
 5415 0f26 85F84CC0 		strb	ip, [r5, #76]
 437:HANcoder_E407_TTA_CombineModel.c **** 
 5416              		.loc 1 437 17 view .LVU1911
 5417 0f2a 85F84D10 		strb	r1, [r5, #77]
 440:HANcoder_E407_TTA_CombineModel.c **** 
 5418              		.loc 1 440 17 view .LVU1912
 5419 0f2e 85F84E70 		strb	r7, [r5, #78]
 443:HANcoder_E407_TTA_CombineModel.c **** 
 5420              		.loc 1 443 5 is_stmt 1 view .LVU1913
 446:HANcoder_E407_TTA_CombineModel.c **** 
 5421              		.loc 1 446 5 view .LVU1914
 449:HANcoder_E407_TTA_CombineModel.c **** 
 5422              		.loc 1 449 5 view .LVU1915
 449:HANcoder_E407_TTA_CombineModel.c **** 
 5423              		.loc 1 449 17 is_stmt 0 view .LVU1916
 5424 0f32 85F84F20 		strb	r2, [r5, #79]
 452:HANcoder_E407_TTA_CombineModel.c ****   }
 5425              		.loc 1 452 5 is_stmt 1 view .LVU1917
 5426              	.LVL391:
 5427              	.L215:
 452:HANcoder_E407_TTA_CombineModel.c ****   }
 5428              		.loc 1 452 5 is_stmt 0 view .LVU1918
 5429              	.LBE627:
 5430              	.LBE626:
2312:HANcoder_E407_TTA_CombineModel.c **** 
 5431              		.loc 1 2312 7 is_stmt 1 view .LVU1919
2315:HANcoder_E407_TTA_CombineModel.c **** 
 5432              		.loc 1 2315 7 view .LVU1920
 5433              	.LBB628:
 5434              	.LBI628:
 578:HANcoder_E407_TTA_CombineModel.c **** {
 5435              		.loc 1 578 6 view .LVU1921
 5436              	.LBB629:
 583:HANcoder_E407_TTA_CombineModel.c **** }
 5437              		.loc 1 583 3 view .LVU1922
 5438              	.LBE629:
 5439              	.LBE628:
 5440              	.LBB632:
 5441              	.LBB633:
 583:HANcoder_E407_TTA_CombineModel.c **** }
 5442              		.loc 1 583 15 is_stmt 0 view .LVU1923
 5443 0f36 0B02     		lsls	r3, r1, #8
 5444              	.LBE633:
 5445              	.LBE632:
2499:HANcoder_E407_TTA_CombineModel.c **** 
 5446              		.loc 1 2499 33 view .LVU1924
 5447 0f38 9BF80010 		ldrb	r1, [fp]	@ zero_extendqisi2
 5448              	.LBB636:
 5449              	.LBB634:
 583:HANcoder_E407_TTA_CombineModel.c **** }
 5450              		.loc 1 583 13 view .LVU1925
 5451 0f3c A5F85230 		strh	r3, [r5, #82]	@ movhi
 5452              	.LBE634:
 5453              	.LBE636:
2499:HANcoder_E407_TTA_CombineModel.c **** 
 5454              		.loc 1 2499 33 view .LVU1926
 5455 0f40 07EE901A 		vmov	s15, r1	@ int
 5456              	.LBB637:
 5457              	.LBB638:
 604:HANcoder_E407_TTA_CombineModel.c **** }
 5458              		.loc 1 604 15 view .LVU1927
 5459 0f44 5108     		lsrs	r1, r2, #1
 604:HANcoder_E407_TTA_CombineModel.c **** }
 5460              		.loc 1 604 13 view .LVU1928
 5461 0f46 85F84A10 		strb	r1, [r5, #74]
 5462              	.LBE638:
 5463              	.LBE637:
 5464              	.LBB640:
 5465              	.LBB641:
 5466 0f4a 85F84310 		strb	r1, [r5, #67]
 5467              	.LBE641:
 5468              	.LBE640:
 5469              	.LBB643:
 5470              	.LBB644:
 620:HANcoder_E407_TTA_CombineModel.c **** }
 5471              		.loc 1 620 15 view .LVU1929
 5472 0f4e 9108     		lsrs	r1, r2, #2
 5473              	.LBE644:
 5474              	.LBE643:
2338:HANcoder_E407_TTA_CombineModel.c ****         rtB.EnabledSubsystem_g.In4);
 5475              		.loc 1 2338 24 view .LVU1930
 5476 0f50 1F44     		add	r7, r7, r3
 5477              	.LBB647:
 5478              	.LBB645:
 620:HANcoder_E407_TTA_CombineModel.c **** }
 5479              		.loc 1 620 13 view .LVU1931
 5480 0f52 85F84910 		strb	r1, [r5, #73]
 5481              	.LBE645:
 5482              	.LBE647:
2505:HANcoder_E407_TTA_CombineModel.c **** 
 5483              		.loc 1 2505 31 view .LVU1932
 5484 0f56 94F86330 		ldrb	r3, [r4, #99]	@ zero_extendqisi2
2338:HANcoder_E407_TTA_CombineModel.c ****         rtB.EnabledSubsystem_g.In4);
 5485              		.loc 1 2338 22 view .LVU1933
 5486 0f5a A4F84470 		strh	r7, [r4, #68]	@ movhi
 5487              	.LBB648:
 5488              	.LBB649:
 636:HANcoder_E407_TTA_CombineModel.c **** }
 5489              		.loc 1 636 15 view .LVU1934
 5490 0f5e D108     		lsrs	r1, r2, #3
 636:HANcoder_E407_TTA_CombineModel.c **** }
 5491              		.loc 1 636 13 view .LVU1935
 5492 0f60 85F84810 		strb	r1, [r5, #72]
 5493              	.LBE649:
 5494              	.LBE648:
 5495              	.LBB651:
 5496              	.LBB652:
 652:HANcoder_E407_TTA_CombineModel.c **** }
 5497              		.loc 1 652 15 view .LVU1936
 5498 0f64 1109     		lsrs	r1, r2, #4
 5499              	.LBE652:
 5500              	.LBE651:
 5501              	.LBB655:
 5502              	.LBB630:
 583:HANcoder_E407_TTA_CombineModel.c **** }
 5503              		.loc 1 583 15 view .LVU1937
 5504 0f66 0002     		lsls	r0, r0, #8
 5505              	.LVL392:
 583:HANcoder_E407_TTA_CombineModel.c **** }
 5506              		.loc 1 583 15 view .LVU1938
 5507              	.LBE630:
 5508              	.LBE655:
2505:HANcoder_E407_TTA_CombineModel.c **** 
 5509              		.loc 1 2505 41 view .LVU1939
 5510 0f68 07EE103A 		vmov	s14, r3	@ int
 5511              	.LBB656:
 5512              	.LBB653:
 652:HANcoder_E407_TTA_CombineModel.c **** }
 5513              		.loc 1 652 13 view .LVU1940
 5514 0f6c 85F84710 		strb	r1, [r5, #71]
 5515              	.LBE653:
 5516              	.LBE656:
 5517              	.LBB657:
 5518              	.LBB658:
 668:HANcoder_E407_TTA_CombineModel.c **** }
 5519              		.loc 1 668 15 view .LVU1941
 5520 0f70 5109     		lsrs	r1, r2, #5
 5521              	.LBE658:
 5522              	.LBE657:
2323:HANcoder_E407_TTA_CombineModel.c ****         rtB.EnabledSubsystem_g.In2);
 5523              		.loc 1 2323 24 view .LVU1942
 5524 0f72 8444     		add	ip, ip, r0
 5525              	.LBB661:
 5526              	.LBB659:
 668:HANcoder_E407_TTA_CombineModel.c **** }
 5527              		.loc 1 668 13 view .LVU1943
 5528 0f74 85F84610 		strb	r1, [r5, #70]
 5529              	.LBE659:
 5530              	.LBE661:
 5531              	.LBB662:
 5532              	.LBB663:
 684:HANcoder_E407_TTA_CombineModel.c **** }
 5533              		.loc 1 684 15 view .LVU1944
 5534 0f78 9109     		lsrs	r1, r2, #6
 5535              	.LBE663:
 5536              	.LBE662:
 5537              	.LBB665:
 5538              	.LBB666:
 700:HANcoder_E407_TTA_CombineModel.c **** }
 5539              		.loc 1 700 15 view .LVU1945
 5540 0f7a D209     		lsrs	r2, r2, #7
 5541              	.LBE666:
 5542              	.LBE665:
2499:HANcoder_E407_TTA_CombineModel.c **** 
 5543              		.loc 1 2499 33 view .LVU1946
 5544 0f7c F8EEE77A 		vcvt.f32.s32	s15, s15
2505:HANcoder_E407_TTA_CombineModel.c **** 
 5545              		.loc 1 2505 41 view .LVU1947
 5546 0f80 B8EEC77A 		vcvt.f32.s32	s14, s14
 5547              	.LBB668:
 5548              	.LBB631:
 583:HANcoder_E407_TTA_CombineModel.c **** }
 5549              		.loc 1 583 13 view .LVU1948
 5550 0f84 A5F85000 		strh	r0, [r5, #80]	@ movhi
 5551              	.LVL393:
 583:HANcoder_E407_TTA_CombineModel.c **** }
 5552              		.loc 1 583 13 view .LVU1949
 5553              	.LBE631:
 5554              	.LBE668:
2323:HANcoder_E407_TTA_CombineModel.c ****         rtB.EnabledSubsystem_g.In2);
 5555              		.loc 1 2323 7 is_stmt 1 view .LVU1950
2323:HANcoder_E407_TTA_CombineModel.c ****         rtB.EnabledSubsystem_g.In2);
 5556              		.loc 1 2323 22 is_stmt 0 view .LVU1951
 5557 0f88 A4F842C0 		strh	ip, [r4, #66]	@ movhi
2327:HANcoder_E407_TTA_CombineModel.c **** 
 5558              		.loc 1 2327 7 is_stmt 1 view .LVU1952
 5559              	.LVL394:
2330:HANcoder_E407_TTA_CombineModel.c **** 
 5560              		.loc 1 2330 7 view .LVU1953
 5561              	.LBB669:
 5562              	.LBI632:
 578:HANcoder_E407_TTA_CombineModel.c **** {
 5563              		.loc 1 578 6 view .LVU1954
 5564              	.LBB635:
 583:HANcoder_E407_TTA_CombineModel.c **** }
 5565              		.loc 1 583 3 view .LVU1955
 583:HANcoder_E407_TTA_CombineModel.c **** }
 5566              		.loc 1 583 3 is_stmt 0 view .LVU1956
 5567              	.LBE635:
 5568              	.LBE669:
2338:HANcoder_E407_TTA_CombineModel.c ****         rtB.EnabledSubsystem_g.In4);
 5569              		.loc 1 2338 7 is_stmt 1 view .LVU1957
2342:HANcoder_E407_TTA_CombineModel.c **** 
 5570              		.loc 1 2342 7 view .LVU1958
 5571              	.LBB670:
 5572              	.LBI637:
 599:HANcoder_E407_TTA_CombineModel.c **** {
 5573              		.loc 1 599 6 view .LVU1959
 5574              	.LBB639:
 604:HANcoder_E407_TTA_CombineModel.c **** }
 5575              		.loc 1 604 3 view .LVU1960
 604:HANcoder_E407_TTA_CombineModel.c **** }
 5576              		.loc 1 604 3 is_stmt 0 view .LVU1961
 5577              	.LBE639:
 5578              	.LBE670:
2347:HANcoder_E407_TTA_CombineModel.c **** 
 5579              		.loc 1 2347 7 is_stmt 1 view .LVU1962
 5580              	.LBB671:
 5581              	.LBI643:
 615:HANcoder_E407_TTA_CombineModel.c **** {
 5582              		.loc 1 615 6 view .LVU1963
 5583              	.LBB646:
 620:HANcoder_E407_TTA_CombineModel.c **** }
 5584              		.loc 1 620 3 view .LVU1964
 620:HANcoder_E407_TTA_CombineModel.c **** }
 5585              		.loc 1 620 3 is_stmt 0 view .LVU1965
 5586              	.LBE646:
 5587              	.LBE671:
2352:HANcoder_E407_TTA_CombineModel.c **** 
 5588              		.loc 1 2352 7 is_stmt 1 view .LVU1966
 5589              	.LBB672:
 5590              	.LBI648:
 631:HANcoder_E407_TTA_CombineModel.c **** {
 5591              		.loc 1 631 6 view .LVU1967
 5592              	.LBB650:
 636:HANcoder_E407_TTA_CombineModel.c **** }
 5593              		.loc 1 636 3 view .LVU1968
 636:HANcoder_E407_TTA_CombineModel.c **** }
 5594              		.loc 1 636 3 is_stmt 0 view .LVU1969
 5595              	.LBE650:
 5596              	.LBE672:
2357:HANcoder_E407_TTA_CombineModel.c **** 
 5597              		.loc 1 2357 7 is_stmt 1 view .LVU1970
 5598              	.LBB673:
 5599              	.LBI651:
 647:HANcoder_E407_TTA_CombineModel.c **** {
 5600              		.loc 1 647 6 view .LVU1971
 5601              	.LBB654:
 652:HANcoder_E407_TTA_CombineModel.c **** }
 5602              		.loc 1 652 3 view .LVU1972
 652:HANcoder_E407_TTA_CombineModel.c **** }
 5603              		.loc 1 652 3 is_stmt 0 view .LVU1973
 5604              	.LBE654:
 5605              	.LBE673:
2362:HANcoder_E407_TTA_CombineModel.c **** 
 5606              		.loc 1 2362 7 is_stmt 1 view .LVU1974
 5607              	.LBB674:
 5608              	.LBI657:
 663:HANcoder_E407_TTA_CombineModel.c **** {
 5609              		.loc 1 663 6 view .LVU1975
 5610              	.LBB660:
 668:HANcoder_E407_TTA_CombineModel.c **** }
 5611              		.loc 1 668 3 view .LVU1976
 668:HANcoder_E407_TTA_CombineModel.c **** }
 5612              		.loc 1 668 3 is_stmt 0 view .LVU1977
 5613              	.LBE660:
 5614              	.LBE674:
2367:HANcoder_E407_TTA_CombineModel.c **** 
 5615              		.loc 1 2367 7 is_stmt 1 view .LVU1978
 5616              	.LBB675:
 5617              	.LBI662:
 679:HANcoder_E407_TTA_CombineModel.c **** {
 5618              		.loc 1 679 6 view .LVU1979
 5619              	.LBB664:
 684:HANcoder_E407_TTA_CombineModel.c **** }
 5620              		.loc 1 684 3 view .LVU1980
 684:HANcoder_E407_TTA_CombineModel.c **** }
 5621              		.loc 1 684 13 is_stmt 0 view .LVU1981
 5622 0f8c 85F84510 		strb	r1, [r5, #69]
 5623              	.LVL395:
 684:HANcoder_E407_TTA_CombineModel.c **** }
 5624              		.loc 1 684 13 view .LVU1982
 5625              	.LBE664:
 5626              	.LBE675:
2372:HANcoder_E407_TTA_CombineModel.c **** 
 5627              		.loc 1 2372 7 is_stmt 1 view .LVU1983
 5628              	.LBB676:
 5629              	.LBI665:
 695:HANcoder_E407_TTA_CombineModel.c **** {
 5630              		.loc 1 695 6 view .LVU1984
 5631              	.LBB667:
 700:HANcoder_E407_TTA_CombineModel.c **** }
 5632              		.loc 1 700 3 view .LVU1985
 700:HANcoder_E407_TTA_CombineModel.c **** }
 5633              		.loc 1 700 13 is_stmt 0 view .LVU1986
 5634 0f90 85F84420 		strb	r2, [r5, #68]
 5635              	.LVL396:
 700:HANcoder_E407_TTA_CombineModel.c **** }
 5636              		.loc 1 700 13 view .LVU1987
 5637              	.LBE667:
 5638              	.LBE676:
2377:HANcoder_E407_TTA_CombineModel.c **** 
 5639              		.loc 1 2377 7 is_stmt 1 view .LVU1988
 5640              	.LBB677:
 5641              	.LBI640:
 599:HANcoder_E407_TTA_CombineModel.c **** {
 5642              		.loc 1 599 6 view .LVU1989
 5643              	.LBB642:
 604:HANcoder_E407_TTA_CombineModel.c **** }
 5644              		.loc 1 604 3 view .LVU1990
 604:HANcoder_E407_TTA_CombineModel.c **** }
 5645              		.loc 1 604 3 is_stmt 0 view .LVU1991
 5646              	.LBE642:
 5647              	.LBE677:
2387:HANcoder_E407_TTA_CombineModel.c **** 
 5648              		.loc 1 2387 5 is_stmt 1 view .LVU1992
 5649 0f94 A1E6     		b	.L185
 5650              	.LVL397:
 5651              	.L358:
2787:HANcoder_E407_TTA_CombineModel.c ****     }
 5652              		.loc 1 2787 7 view .LVU1993
2787:HANcoder_E407_TTA_CombineModel.c ****     }
 5653              		.loc 1 2787 32 is_stmt 0 view .LVU1994
 5654 0f96 0023     		movs	r3, #0
 5655 0f98 84F87030 		strb	r3, [r4, #112]
 5656 0f9c FFF7EBBB 		b	.L199
 5657              	.LVL398:
 5658              	.L244:
1969:HANcoder_E407_TTA_CombineModel.c ****     }
 5659              		.loc 1 1969 7 is_stmt 1 view .LVU1995
1969:HANcoder_E407_TTA_CombineModel.c ****     }
 5660              		.loc 1 1969 33 is_stmt 0 view .LVU1996
 5661 0fa0 0023     		movs	r3, #0
 5662 0fa2 84F87430 		strb	r3, [r4, #116]
1975:HANcoder_E407_TTA_CombineModel.c **** 
 5663              		.loc 1 1975 5 is_stmt 1 view .LVU1997
 5664 0fa6 ACE5     		b	.L245
 5665              	.LVL399:
 5666              	.L240:
2129:HANcoder_E407_TTA_CombineModel.c ****     }
 5667              		.loc 1 2129 7 view .LVU1998
2129:HANcoder_E407_TTA_CombineModel.c ****     }
 5668              		.loc 1 2129 29 is_stmt 0 view .LVU1999
 5669 0fa8 0023     		movs	r3, #0
 5670 0faa 84F87330 		strb	r3, [r4, #115]
2135:HANcoder_E407_TTA_CombineModel.c **** 
 5671              		.loc 1 2135 5 is_stmt 1 view .LVU2000
 5672 0fae 53E6     		b	.L241
 5673              	.LVL400:
 5674              	.L371:
2515:HANcoder_E407_TTA_CombineModel.c ****       rtDWork.TRLS_ID5_RX_MODE = true;
 5675              		.loc 1 2515 5 view .LVU2001
2610:HANcoder_E407_TTA_CombineModel.c ****       rtDWork.TRLS_ID5_RX_MODE = false;
 5676              		.loc 1 2610 12 view .LVU2002
2610:HANcoder_E407_TTA_CombineModel.c ****       rtDWork.TRLS_ID5_RX_MODE = false;
 5677              		.loc 1 2610 15 is_stmt 0 view .LVU2003
 5678 0fb0 94F87020 		ldrb	r2, [r4, #112]	@ zero_extendqisi2
 5679 0fb4 002A     		cmp	r2, #0
 5680 0fb6 40F09781 		bne	.L232
 5681              	.L233:
 5682              	.LVL401:
2622:HANcoder_E407_TTA_CombineModel.c ****       /* DataStoreRead: '<S114>/Data Store Read3' */
 5683              		.loc 1 2622 5 is_stmt 1 view .LVU2004
2622:HANcoder_E407_TTA_CombineModel.c ****       /* DataStoreRead: '<S114>/Data Store Read3' */
 5684              		.loc 1 2622 41 is_stmt 0 view .LVU2005
 5685 0fba 9AF80220 		ldrb	r2, [r10, #2]	@ zero_extendqisi2
2622:HANcoder_E407_TTA_CombineModel.c ****       /* DataStoreRead: '<S114>/Data Store Read3' */
 5686              		.loc 1 2622 21 view .LVU2006
 5687 0fbe 012A     		cmp	r2, #1
 5688 0fc0 3FF4DDAE 		beq	.L209
2624:HANcoder_E407_TTA_CombineModel.c **** 
 5689              		.loc 1 2624 7 is_stmt 1 view .LVU2007
2637:HANcoder_E407_TTA_CombineModel.c **** 
 5690              		.loc 1 2637 7 is_stmt 0 view .LVU2008
 5691 0fc4 5649     		ldr	r1, .L387
 5692              	.LBB678:
 5693              	.LBB679:
 732:HANcoder_E407_TTA_CombineModel.c **** }
 5694              		.loc 1 732 15 view .LVU2009
 5695 0fc6 94F86C20 		ldrb	r2, [r4, #108]	@ zero_extendqisi2
 5696              	.LBE679:
 5697              	.LBE678:
 5698              	.LBB684:
 5699              	.LBB685:
 716:HANcoder_E407_TTA_CombineModel.c **** }
 5700              		.loc 1 716 15 view .LVU2010
 5701 0fca 91F82230 		ldrb	r3, [r1, #34]	@ zero_extendqisi2
 5702              	.LBE685:
 5703              	.LBE684:
2668:HANcoder_E407_TTA_CombineModel.c ****         ((uint32_T)rtConstB.Cast7 + rtB.BitShift1_n.y) + rtB.BitShift_a0.y) +
 5704              		.loc 1 2668 49 view .LVU2011
 5705 0fce 91F82860 		ldrb	r6, [r1, #40]	@ zero_extendqisi2
 5706              	.LBB690:
 5707              	.LBB680:
 732:HANcoder_E407_TTA_CombineModel.c **** }
 5708              		.loc 1 732 15 view .LVU2012
 5709 0fd2 5200     		lsls	r2, r2, #1
 5710              	.LBE680:
 5711              	.LBE690:
 5712              	.LBB691:
 5713              	.LBB686:
 716:HANcoder_E407_TTA_CombineModel.c **** }
 5714              		.loc 1 716 15 view .LVU2013
 5715 0fd4 9B00     		lsls	r3, r3, #2
 5716              	.LBE686:
 5717              	.LBE691:
 5718              	.LBB692:
 5719              	.LBB681:
 732:HANcoder_E407_TTA_CombineModel.c **** }
 5720              		.loc 1 732 15 view .LVU2014
 5721 0fd6 D2B2     		uxtb	r2, r2
 5722              	.LBE681:
 5723              	.LBE692:
 5724              	.LBB693:
 5725              	.LBB687:
 716:HANcoder_E407_TTA_CombineModel.c **** }
 5726              		.loc 1 716 15 view .LVU2015
 5727 0fd8 DBB2     		uxtb	r3, r3
 5728              	.LBE687:
 5729              	.LBE693:
2668:HANcoder_E407_TTA_CombineModel.c ****         ((uint32_T)rtConstB.Cast7 + rtB.BitShift1_n.y) + rtB.BitShift_a0.y) +
 5730              		.loc 1 2668 49 view .LVU2016
 5731 0fda 9818     		adds	r0, r3, r2
 5732              	.LBB694:
 5733              	.LBB682:
 732:HANcoder_E407_TTA_CombineModel.c **** }
 5734              		.loc 1 732 13 view .LVU2017
 5735 0fdc 85F82520 		strb	r2, [r5, #37]
 5736              	.LBE682:
 5737              	.LBE694:
 5738              	.LBB695:
 5739              	.LBB696:
 748:HANcoder_E407_TTA_CombineModel.c **** }
 5740              		.loc 1 748 15 view .LVU2018
 5741 0fe0 91F82320 		ldrb	r2, [r1, #35]	@ zero_extendqisi2
 5742              	.LBE696:
 5743              	.LBE695:
 5744              	.LBB700:
 5745              	.LBB688:
 716:HANcoder_E407_TTA_CombineModel.c **** }
 5746              		.loc 1 716 13 view .LVU2019
 5747 0fe4 85F82630 		strb	r3, [r5, #38]
 5748              	.LBE688:
 5749              	.LBE700:
 5750              	.LBB701:
 5751              	.LBB702:
 764:HANcoder_E407_TTA_CombineModel.c **** }
 5752              		.loc 1 764 15 view .LVU2020
 5753 0fe8 91F82430 		ldrb	r3, [r1, #36]	@ zero_extendqisi2
 5754              	.LBE702:
 5755              	.LBE701:
 5756              	.LBB706:
 5757              	.LBB697:
 748:HANcoder_E407_TTA_CombineModel.c **** }
 5758              		.loc 1 748 15 view .LVU2021
 5759 0fec D200     		lsls	r2, r2, #3
 5760 0fee D2B2     		uxtb	r2, r2
 5761              	.LBE697:
 5762              	.LBE706:
2668:HANcoder_E407_TTA_CombineModel.c ****         ((uint32_T)rtConstB.Cast7 + rtB.BitShift1_n.y) + rtB.BitShift_a0.y) +
 5763              		.loc 1 2668 49 view .LVU2022
 5764 0ff0 3044     		add	r0, r0, r6
 5765              	.LBB707:
 5766              	.LBB703:
 764:HANcoder_E407_TTA_CombineModel.c **** }
 5767              		.loc 1 764 15 view .LVU2023
 5768 0ff2 1B01     		lsls	r3, r3, #4
 5769 0ff4 DBB2     		uxtb	r3, r3
 5770              	.LBE703:
 5771              	.LBE707:
 5772              	.LBB708:
 5773              	.LBB698:
 748:HANcoder_E407_TTA_CombineModel.c **** }
 5774              		.loc 1 748 13 view .LVU2024
 5775 0ff6 85F82420 		strb	r2, [r5, #36]
 5776              	.LBE698:
 5777              	.LBE708:
2668:HANcoder_E407_TTA_CombineModel.c ****         ((uint32_T)rtConstB.Cast7 + rtB.BitShift1_n.y) + rtB.BitShift_a0.y) +
 5778              		.loc 1 2668 29 view .LVU2025
 5779 0ffa 0244     		add	r2, r2, r0
 5780              	.LBB709:
 5781              	.LBB704:
 764:HANcoder_E407_TTA_CombineModel.c **** }
 5782              		.loc 1 764 13 view .LVU2026
 5783 0ffc 85F82330 		strb	r3, [r5, #35]
 5784              	.LBE704:
 5785              	.LBE709:
2668:HANcoder_E407_TTA_CombineModel.c ****         ((uint32_T)rtConstB.Cast7 + rtB.BitShift1_n.y) + rtB.BitShift_a0.y) +
 5786              		.loc 1 2668 9 view .LVU2027
 5787 1000 1A44     		add	r2, r2, r3
 5788              	.LBB710:
 5789              	.LBB711:
 780:HANcoder_E407_TTA_CombineModel.c **** }
 5790              		.loc 1 780 15 view .LVU2028
 5791 1002 91F82530 		ldrb	r3, [r1, #37]	@ zero_extendqisi2
 5792              	.LBE711:
 5793              	.LBE710:
 5794              	.LBB715:
 5795              	.LBB716:
 796:HANcoder_E407_TTA_CombineModel.c **** }
 5796              		.loc 1 796 15 view .LVU2029
 5797 1006 91F82600 		ldrb	r0, [r1, #38]	@ zero_extendqisi2
 5798              	.LBE716:
 5799              	.LBE715:
 5800              	.LBB720:
 5801              	.LBB712:
 780:HANcoder_E407_TTA_CombineModel.c **** }
 5802              		.loc 1 780 15 view .LVU2030
 5803 100a 5B01     		lsls	r3, r3, #5
 5804 100c DBB2     		uxtb	r3, r3
 5805              	.LBE712:
 5806              	.LBE720:
2667:HANcoder_E407_TTA_CombineModel.c ****         (uint8_T)((uint32_T)(uint8_T)((uint32_T)(uint8_T)((uint32_T)(uint8_T)
 5807              		.loc 1 2667 57 view .LVU2031
 5808 100e 1A44     		add	r2, r2, r3
 5809              	.LBB721:
 5810              	.LBB713:
 780:HANcoder_E407_TTA_CombineModel.c **** }
 5811              		.loc 1 780 13 view .LVU2032
 5812 1010 85F82230 		strb	r3, [r5, #34]
 5813              	.LBE713:
 5814              	.LBE721:
 5815              	.LBB722:
 5816              	.LBB723:
 812:HANcoder_E407_TTA_CombineModel.c **** }
 5817              		.loc 1 812 15 view .LVU2033
 5818 1014 91F82730 		ldrb	r3, [r1, #39]	@ zero_extendqisi2
 5819              	.LBE723:
 5820              	.LBE722:
 5821              	.LBB727:
 5822              	.LBB717:
 796:HANcoder_E407_TTA_CombineModel.c **** }
 5823              		.loc 1 796 15 view .LVU2034
 5824 1018 8101     		lsls	r1, r0, #6
 5825 101a C9B2     		uxtb	r1, r1
 5826              	.LBE717:
 5827              	.LBE727:
 5828              	.LBB728:
 5829              	.LBB724:
 812:HANcoder_E407_TTA_CombineModel.c **** }
 5830              		.loc 1 812 15 view .LVU2035
 5831 101c DB01     		lsls	r3, r3, #7
 5832 101e DBB2     		uxtb	r3, r3
 5833              	.LBE724:
 5834              	.LBE728:
2667:HANcoder_E407_TTA_CombineModel.c ****         (uint8_T)((uint32_T)(uint8_T)((uint32_T)(uint8_T)((uint32_T)(uint8_T)
 5835              		.loc 1 2667 37 view .LVU2036
 5836 1020 0A44     		add	r2, r2, r1
2667:HANcoder_E407_TTA_CombineModel.c ****         (uint8_T)((uint32_T)(uint8_T)((uint32_T)(uint8_T)((uint32_T)(uint8_T)
 5837              		.loc 1 2667 17 view .LVU2037
 5838 1022 1A44     		add	r2, r2, r3
 5839              	.LBB729:
 5840              	.LBB725:
 812:HANcoder_E407_TTA_CombineModel.c **** }
 5841              		.loc 1 812 13 view .LVU2038
 5842 1024 85F82030 		strb	r3, [r5, #32]
 5843              	.LBE725:
 5844              	.LBE729:
 5845              	.LBB730:
 5846              	.LBB731:
 833:HANcoder_E407_TTA_CombineModel.c **** }
 5847              		.loc 1 833 15 view .LVU2039
 5848 1028 B4F84830 		ldrh	r3, [r4, #72]
 5849              	.LBE731:
 5850              	.LBE730:
 5851              	.LBB734:
 5852              	.LBB718:
 796:HANcoder_E407_TTA_CombineModel.c **** }
 5853              		.loc 1 796 13 view .LVU2040
 5854 102c 85F82110 		strb	r1, [r5, #33]
 5855              	.LBE718:
 5856              	.LBE734:
 5857              	.LBB735:
 5858              	.LBB732:
 833:HANcoder_E407_TTA_CombineModel.c **** }
 5859              		.loc 1 833 15 view .LVU2041
 5860 1030 1B0A     		lsrs	r3, r3, #8
 833:HANcoder_E407_TTA_CombineModel.c **** }
 5861              		.loc 1 833 13 view .LVU2042
 5862 1032 EB83     		strh	r3, [r5, #30]	@ movhi
 5863              	.LBE732:
 5864              	.LBE735:
 5865              	.LBB736:
 5866              	.LBB737:
 833:HANcoder_E407_TTA_CombineModel.c **** }
 5867              		.loc 1 833 15 view .LVU2043
 5868 1034 A38F     		ldrh	r3, [r4, #60]
 5869 1036 B4F84810 		ldrh	r1, [r4, #72]
 5870 103a A08F     		ldrh	r0, [r4, #60]
 5871 103c 1B0A     		lsrs	r3, r3, #8
 833:HANcoder_E407_TTA_CombineModel.c **** }
 5872              		.loc 1 833 13 view .LVU2044
 5873 103e AB83     		strh	r3, [r5, #28]	@ movhi
 5874              	.LBE737:
 5875              	.LBE736:
2708:HANcoder_E407_TTA_CombineModel.c ****         canTxData.uint8_T_info[1] = rtB.Cast1_m;
 5876              		.loc 1 2708 35 view .LVU2045
 5877 1040 384B     		ldr	r3, .L387+4
 5878 1042 49BA     		rev16	r1, r1
2710:HANcoder_E407_TTA_CombineModel.c ****         canTxData.uint8_T_info[3] = rtB.Cast1;
 5879              		.loc 1 2710 35 view .LVU2046
 5880 1044 5980     		strh	r1, [r3, #2]	@ movhi
2667:HANcoder_E407_TTA_CombineModel.c ****         (uint8_T)((uint32_T)(uint8_T)((uint32_T)(uint8_T)((uint32_T)(uint8_T)
 5881              		.loc 1 2667 17 view .LVU2047
 5882 1046 D2B2     		uxtb	r2, r2
 5883 1048 40BA     		rev16	r0, r0
2680:HANcoder_E407_TTA_CombineModel.c **** 
 5884              		.loc 1 2680 16 view .LVU2048
 5885 104a E980     		strh	r1, [r5, #6]	@ movhi
2718:HANcoder_E407_TTA_CombineModel.c ****       }
 5886              		.loc 1 2718 9 view .LVU2049
 5887 104c 3849     		ldr	r1, .L387+16
2708:HANcoder_E407_TTA_CombineModel.c ****         canTxData.uint8_T_info[1] = rtB.Cast1_m;
 5888              		.loc 1 2708 35 view .LVU2050
 5889 104e 1880     		strh	r0, [r3]	@ movhi
2714:HANcoder_E407_TTA_CombineModel.c ****         canTxData.uint8_T_info[7] = ((uint8_T)0U);
 5890              		.loc 1 2714 35 view .LVU2051
 5891 1050 9A71     		strb	r2, [r3, #6]
2667:HANcoder_E407_TTA_CombineModel.c ****         (uint8_T)((uint32_T)(uint8_T)((uint32_T)(uint8_T)((uint32_T)(uint8_T)
 5892              		.loc 1 2667 15 view .LVU2052
 5893 1052 6A71     		strb	r2, [r5, #5]
2694:HANcoder_E407_TTA_CombineModel.c **** 
 5894              		.loc 1 2694 18 view .LVU2053
 5895 1054 2881     		strh	r0, [r5, #8]	@ movhi
2624:HANcoder_E407_TTA_CombineModel.c **** 
 5896              		.loc 1 2624 35 view .LVU2054
 5897 1056 94F86220 		ldrb	r2, [r4, #98]	@ zero_extendqisi2
2712:HANcoder_E407_TTA_CombineModel.c ****         canTxData.uint8_T_info[5] = ((uint8_T)0U);
 5898              		.loc 1 2712 35 view .LVU2055
 5899 105a 1A71     		strb	r2, [r3, #4]
2713:HANcoder_E407_TTA_CombineModel.c ****         canTxData.uint8_T_info[6] = rtB.Add;
 5900              		.loc 1 2713 35 view .LVU2056
 5901 105c 0020     		movs	r0, #0
 5902 105e 5871     		strb	r0, [r3, #5]
2715:HANcoder_E407_TTA_CombineModel.c **** 
 5903              		.loc 1 2715 35 view .LVU2057
 5904 1060 D871     		strb	r0, [r3, #7]
2624:HANcoder_E407_TTA_CombineModel.c **** 
 5905              		.loc 1 2624 26 view .LVU2058
 5906 1062 2A71     		strb	r2, [r5, #4]
2629:HANcoder_E407_TTA_CombineModel.c **** 
 5907              		.loc 1 2629 7 is_stmt 1 view .LVU2059
 5908              	.LVL402:
2632:HANcoder_E407_TTA_CombineModel.c **** 
 5909              		.loc 1 2632 7 view .LVU2060
 5910              	.LBB739:
 5911              	.LBI678:
 727:HANcoder_E407_TTA_CombineModel.c **** {
 5912              		.loc 1 727 6 view .LVU2061
 5913              	.LBB683:
 732:HANcoder_E407_TTA_CombineModel.c **** }
 5914              		.loc 1 732 3 view .LVU2062
 732:HANcoder_E407_TTA_CombineModel.c **** }
 5915              		.loc 1 732 3 is_stmt 0 view .LVU2063
 5916              	.LBE683:
 5917              	.LBE739:
2637:HANcoder_E407_TTA_CombineModel.c **** 
 5918              		.loc 1 2637 7 is_stmt 1 view .LVU2064
 5919              	.LBB740:
 5920              	.LBI684:
 711:HANcoder_E407_TTA_CombineModel.c **** {
 5921              		.loc 1 711 6 view .LVU2065
 5922              	.LBB689:
 716:HANcoder_E407_TTA_CombineModel.c **** }
 5923              		.loc 1 716 3 view .LVU2066
 716:HANcoder_E407_TTA_CombineModel.c **** }
 5924              		.loc 1 716 3 is_stmt 0 view .LVU2067
 5925              	.LBE689:
 5926              	.LBE740:
2642:HANcoder_E407_TTA_CombineModel.c **** 
 5927              		.loc 1 2642 7 is_stmt 1 view .LVU2068
 5928              	.LBB741:
 5929              	.LBI695:
 743:HANcoder_E407_TTA_CombineModel.c **** {
 5930              		.loc 1 743 6 view .LVU2069
 5931              	.LBB699:
 748:HANcoder_E407_TTA_CombineModel.c **** }
 5932              		.loc 1 748 3 view .LVU2070
 748:HANcoder_E407_TTA_CombineModel.c **** }
 5933              		.loc 1 748 3 is_stmt 0 view .LVU2071
 5934              	.LBE699:
 5935              	.LBE741:
2647:HANcoder_E407_TTA_CombineModel.c **** 
 5936              		.loc 1 2647 7 is_stmt 1 view .LVU2072
 5937              	.LBB742:
 5938              	.LBI701:
 759:HANcoder_E407_TTA_CombineModel.c **** {
 5939              		.loc 1 759 6 view .LVU2073
 5940              	.LBB705:
 764:HANcoder_E407_TTA_CombineModel.c **** }
 5941              		.loc 1 764 3 view .LVU2074
 764:HANcoder_E407_TTA_CombineModel.c **** }
 5942              		.loc 1 764 3 is_stmt 0 view .LVU2075
 5943              	.LBE705:
 5944              	.LBE742:
2652:HANcoder_E407_TTA_CombineModel.c **** 
 5945              		.loc 1 2652 7 is_stmt 1 view .LVU2076
 5946              	.LBB743:
 5947              	.LBI710:
 775:HANcoder_E407_TTA_CombineModel.c **** {
 5948              		.loc 1 775 6 view .LVU2077
 5949              	.LBB714:
 780:HANcoder_E407_TTA_CombineModel.c **** }
 5950              		.loc 1 780 3 view .LVU2078
 780:HANcoder_E407_TTA_CombineModel.c **** }
 5951              		.loc 1 780 3 is_stmt 0 view .LVU2079
 5952              	.LBE714:
 5953              	.LBE743:
2657:HANcoder_E407_TTA_CombineModel.c **** 
 5954              		.loc 1 2657 7 is_stmt 1 view .LVU2080
 5955              	.LBB744:
 5956              	.LBI715:
 791:HANcoder_E407_TTA_CombineModel.c **** {
 5957              		.loc 1 791 6 view .LVU2081
 5958              	.LBB719:
 796:HANcoder_E407_TTA_CombineModel.c **** }
 5959              		.loc 1 796 3 view .LVU2082
 796:HANcoder_E407_TTA_CombineModel.c **** }
 5960              		.loc 1 796 3 is_stmt 0 view .LVU2083
 5961              	.LBE719:
 5962              	.LBE744:
2662:HANcoder_E407_TTA_CombineModel.c **** 
 5963              		.loc 1 2662 7 is_stmt 1 view .LVU2084
 5964              	.LBB745:
 5965              	.LBI722:
 807:HANcoder_E407_TTA_CombineModel.c **** {
 5966              		.loc 1 807 6 view .LVU2085
 5967              	.LBB726:
 812:HANcoder_E407_TTA_CombineModel.c **** }
 5968              		.loc 1 812 3 view .LVU2086
 812:HANcoder_E407_TTA_CombineModel.c **** }
 5969              		.loc 1 812 3 is_stmt 0 view .LVU2087
 5970              	.LBE726:
 5971              	.LBE745:
2667:HANcoder_E407_TTA_CombineModel.c ****         (uint8_T)((uint32_T)(uint8_T)((uint32_T)(uint8_T)((uint32_T)(uint8_T)
 5972              		.loc 1 2667 7 is_stmt 1 view .LVU2088
2675:HANcoder_E407_TTA_CombineModel.c **** 
 5973              		.loc 1 2675 7 view .LVU2089
 5974              	.LBB746:
 5975              	.LBI730:
 828:HANcoder_E407_TTA_CombineModel.c **** {
 5976              		.loc 1 828 6 view .LVU2090
 5977              	.LBB733:
 833:HANcoder_E407_TTA_CombineModel.c **** }
 5978              		.loc 1 833 3 view .LVU2091
 833:HANcoder_E407_TTA_CombineModel.c **** }
 5979              		.loc 1 833 3 is_stmt 0 view .LVU2092
 5980              	.LBE733:
 5981              	.LBE746:
2680:HANcoder_E407_TTA_CombineModel.c **** 
 5982              		.loc 1 2680 7 is_stmt 1 view .LVU2093
2685:HANcoder_E407_TTA_CombineModel.c **** 
 5983              		.loc 1 2685 7 view .LVU2094
2689:HANcoder_E407_TTA_CombineModel.c **** 
 5984              		.loc 1 2689 7 view .LVU2095
 5985              	.LBB747:
 5986              	.LBI736:
 828:HANcoder_E407_TTA_CombineModel.c **** {
 5987              		.loc 1 828 6 view .LVU2096
 5988              	.LBB738:
 833:HANcoder_E407_TTA_CombineModel.c **** }
 5989              		.loc 1 833 3 view .LVU2097
 833:HANcoder_E407_TTA_CombineModel.c **** }
 5990              		.loc 1 833 3 is_stmt 0 view .LVU2098
 5991              	.LBE738:
 5992              	.LBE747:
2694:HANcoder_E407_TTA_CombineModel.c **** 
 5993              		.loc 1 2694 7 is_stmt 1 view .LVU2099
2699:HANcoder_E407_TTA_CombineModel.c **** 
 5994              		.loc 1 2699 7 view .LVU2100
2708:HANcoder_E407_TTA_CombineModel.c ****         canTxData.uint8_T_info[1] = rtB.Cast1_m;
 5995              		.loc 1 2708 9 view .LVU2101
2709:HANcoder_E407_TTA_CombineModel.c ****         canTxData.uint8_T_info[2] = rtB.Cast;
 5996              		.loc 1 2709 9 view .LVU2102
2710:HANcoder_E407_TTA_CombineModel.c ****         canTxData.uint8_T_info[3] = rtB.Cast1;
 5997              		.loc 1 2710 9 view .LVU2103
2711:HANcoder_E407_TTA_CombineModel.c ****         canTxData.uint8_T_info[4] = rtB.DataStoreRead3;
 5998              		.loc 1 2711 9 view .LVU2104
2712:HANcoder_E407_TTA_CombineModel.c ****         canTxData.uint8_T_info[5] = ((uint8_T)0U);
 5999              		.loc 1 2712 9 view .LVU2105
2713:HANcoder_E407_TTA_CombineModel.c ****         canTxData.uint8_T_info[6] = rtB.Add;
 6000              		.loc 1 2713 9 view .LVU2106
2714:HANcoder_E407_TTA_CombineModel.c ****         canTxData.uint8_T_info[7] = ((uint8_T)0U);
 6001              		.loc 1 2714 9 view .LVU2107
2715:HANcoder_E407_TTA_CombineModel.c **** 
 6002              		.loc 1 2715 9 view .LVU2108
2718:HANcoder_E407_TTA_CombineModel.c ****       }
 6003              		.loc 1 2718 9 view .LVU2109
 6004 1064 0822     		movs	r2, #8
 6005 1066 0968     		ldr	r1, [r1]
 6006 1068 FFF7FEFF 		bl	CanTransmit
 6007              	.LVL403:
2825:HANcoder_E407_TTA_CombineModel.c ****     rtDWork.Subsystem2_MODE = true;
 6008              		.loc 1 2825 15 is_stmt 0 view .LVU2110
 6009 106c 94F86330 		ldrb	r3, [r4, #99]	@ zero_extendqisi2
2617:HANcoder_E407_TTA_CombineModel.c **** 
 6010              		.loc 1 2617 17 view .LVU2111
 6011 1070 0122     		movs	r2, #1
 6012 1072 84E6     		b	.L209
 6013              	.LVL404:
 6014              	.L367:
2030:HANcoder_E407_TTA_CombineModel.c ****       rtDWork.TRCK1_RX_MODE = true;
 6015              		.loc 1 2030 5 is_stmt 1 view .LVU2112
2128:HANcoder_E407_TTA_CombineModel.c ****       rtDWork.TRCK1_RX_MODE = false;
 6016              		.loc 1 2128 12 view .LVU2113
2128:HANcoder_E407_TTA_CombineModel.c ****       rtDWork.TRCK1_RX_MODE = false;
 6017              		.loc 1 2128 15 is_stmt 0 view .LVU2114
 6018 1074 94F87330 		ldrb	r3, [r4, #115]	@ zero_extendqisi2
 6019 1078 002B     		cmp	r3, #0
 6020 107a 40F03181 		bne	.L374
 6021              	.L239:
 6022 107e DFF8CC90 		ldr	r9, .L387+44
 6023 1082 0120     		movs	r0, #1
 6024 1084 EBE5     		b	.L177
 6025              	.LVL405:
 6026              	.L364:
1868:HANcoder_E407_TTA_CombineModel.c ****       rtDWork.TRCK1_ID2_RX_MODE = true;
 6027              		.loc 1 1868 5 is_stmt 1 view .LVU2115
1968:HANcoder_E407_TTA_CombineModel.c ****       rtDWork.TRCK1_ID2_RX_MODE = false;
 6028              		.loc 1 1968 12 view .LVU2116
1968:HANcoder_E407_TTA_CombineModel.c ****       rtDWork.TRCK1_ID2_RX_MODE = false;
 6029              		.loc 1 1968 15 is_stmt 0 view .LVU2117
 6030 1086 94F87430 		ldrb	r3, [r4, #116]	@ zero_extendqisi2
 6031              	.LVL406:
1968:HANcoder_E407_TTA_CombineModel.c ****       rtDWork.TRCK1_ID2_RX_MODE = false;
 6032              		.loc 1 1968 15 view .LVU2118
 6033 108a 002B     		cmp	r3, #0
 6034 108c 40F02481 		bne	.L375
 6035              	.L243:
 6036 1090 284E     		ldr	r6, .L387+20
1800:HANcoder_E407_TTA_CombineModel.c **** 
 6037              		.loc 1 1800 13 view .LVU2119
 6038 1092 0120     		movs	r0, #1
 6039 1094 37E5     		b	.L172
 6040              	.LVL407:
 6041              	.L235:
2381:HANcoder_E407_TTA_CombineModel.c ****     }
 6042              		.loc 1 2381 7 is_stmt 1 view .LVU2120
2381:HANcoder_E407_TTA_CombineModel.c ****     }
 6043              		.loc 1 2381 32 is_stmt 0 view .LVU2121
 6044 1096 0022     		movs	r2, #0
 6045 1098 84F87120 		strb	r2, [r4, #113]
2387:HANcoder_E407_TTA_CombineModel.c **** 
 6046              		.loc 1 2387 5 is_stmt 1 view .LVU2122
 6047 109c 1DE6     		b	.L185
 6048              	.LVL408:
 6049              	.L369:
2153:HANcoder_E407_TTA_CombineModel.c **** 
 6050              		.loc 1 2153 7 view .LVU2123
2160:HANcoder_E407_TTA_CombineModel.c ****         &canRxData_0_TRCK1_ID3.uint8_T_info[0], NULL);
 6051              		.loc 1 2160 29 is_stmt 0 view .LVU2124
 6052 109e 264B     		ldr	r3, .L387+24
 6053 10a0 264E     		ldr	r6, .L387+28
 6054 10a2 1968     		ldr	r1, [r3]
 6055 10a4 0022     		movs	r2, #0
2153:HANcoder_E407_TTA_CombineModel.c **** 
 6056              		.loc 1 2153 32 view .LVU2125
 6057 10a6 0123     		movs	r3, #1
 6058 10a8 84F87230 		strb	r3, [r4, #114]
2160:HANcoder_E407_TTA_CombineModel.c ****         &canRxData_0_TRCK1_ID3.uint8_T_info[0], NULL);
 6059              		.loc 1 2160 7 is_stmt 1 view .LVU2126
2160:HANcoder_E407_TTA_CombineModel.c ****         &canRxData_0_TRCK1_ID3.uint8_T_info[0], NULL);
 6060              		.loc 1 2160 29 is_stmt 0 view .LVU2127
 6061 10ac 0092     		str	r2, [sp]
 6062 10ae 3346     		mov	r3, r6
 6063 10b0 1046     		mov	r0, r2
 6064 10b2 FFF7FEFF 		bl	CanIoGetMessage
 6065              	.LVL409:
2164:HANcoder_E407_TTA_CombineModel.c ****         /* read the data */
 6066              		.loc 1 2164 7 is_stmt 1 view .LVU2128
2164:HANcoder_E407_TTA_CombineModel.c ****         /* read the data */
 6067              		.loc 1 2164 10 is_stmt 0 view .LVU2129
 6068 10b6 0028     		cmp	r0, #0
 6069 10b8 40F31A81 		ble	.L376
2166:HANcoder_E407_TTA_CombineModel.c ****         rtb_SFunction_o3_a = canRxData_0_TRCK1_ID3.uint8_T_info[1];
 6070              		.loc 1 2166 9 is_stmt 1 view .LVU2130
 6071              	.LBB748:
 6072              	.LBB749:
 431:HANcoder_E407_TTA_CombineModel.c **** 
 6073              		.loc 1 431 17 is_stmt 0 view .LVU2131
 6074 10bc 3368     		ldr	r3, [r6]
 6075              	.LBE749:
 6076              	.LBE748:
2172:HANcoder_E407_TTA_CombineModel.c ****         rtb_SFunction_o9_b = canRxData_0_TRCK1_ID3.uint8_T_info[7];
 6077              		.loc 1 2172 28 view .LVU2132
 6078 10be B279     		ldrb	r2, [r6, #6]	@ zero_extendqisi2
 6079              	.LBB752:
 6080              	.LBB750:
 431:HANcoder_E407_TTA_CombineModel.c **** 
 6081              		.loc 1 431 17 view .LVU2133
 6082 10c0 EB65     		str	r3, [r5, #92]
 6083              	.LBE750:
 6084              	.LBE752:
2166:HANcoder_E407_TTA_CombineModel.c ****         rtb_SFunction_o3_a = canRxData_0_TRCK1_ID3.uint8_T_info[1];
 6085              		.loc 1 2166 28 view .LVU2134
 6086 10c2 3178     		ldrb	r1, [r6]	@ zero_extendqisi2
 6087              	.LVL410:
2167:HANcoder_E407_TTA_CombineModel.c ****         rtb_SFunction_o4_i = canRxData_0_TRCK1_ID3.uint8_T_info[2];
 6088              		.loc 1 2167 9 is_stmt 1 view .LVU2135
2167:HANcoder_E407_TTA_CombineModel.c ****         rtb_SFunction_o4_i = canRxData_0_TRCK1_ID3.uint8_T_info[2];
 6089              		.loc 1 2167 28 is_stmt 0 view .LVU2136
 6090 10c4 7778     		ldrb	r7, [r6, #1]	@ zero_extendqisi2
 6091              	.LVL411:
2168:HANcoder_E407_TTA_CombineModel.c ****         rtb_SFunction_o5_k = canRxData_0_TRCK1_ID3.uint8_T_info[3];
 6092              		.loc 1 2168 9 is_stmt 1 view .LVU2137
2168:HANcoder_E407_TTA_CombineModel.c ****         rtb_SFunction_o5_k = canRxData_0_TRCK1_ID3.uint8_T_info[3];
 6093              		.loc 1 2168 28 is_stmt 0 view .LVU2138
 6094 10c6 B378     		ldrb	r3, [r6, #2]	@ zero_extendqisi2
 6095              	.LVL412:
2169:HANcoder_E407_TTA_CombineModel.c ****         rtb_SFunction_o6_c = canRxData_0_TRCK1_ID3.uint8_T_info[4];
 6096              		.loc 1 2169 9 is_stmt 1 view .LVU2139
2169:HANcoder_E407_TTA_CombineModel.c ****         rtb_SFunction_o6_c = canRxData_0_TRCK1_ID3.uint8_T_info[4];
 6097              		.loc 1 2169 28 is_stmt 0 view .LVU2140
 6098 10c8 F078     		ldrb	r0, [r6, #3]	@ zero_extendqisi2
 6099              	.LVL413:
2170:HANcoder_E407_TTA_CombineModel.c ****         rtb_SFunction_o7_d = canRxData_0_TRCK1_ID3.uint8_T_info[5];
 6100              		.loc 1 2170 9 is_stmt 1 view .LVU2141
2171:HANcoder_E407_TTA_CombineModel.c ****         rtb_SFunction_o8_h = canRxData_0_TRCK1_ID3.uint8_T_info[6];
 6101              		.loc 1 2171 9 view .LVU2142
2172:HANcoder_E407_TTA_CombineModel.c ****         rtb_SFunction_o9_b = canRxData_0_TRCK1_ID3.uint8_T_info[7];
 6102              		.loc 1 2172 9 view .LVU2143
2173:HANcoder_E407_TTA_CombineModel.c ****       }
 6103              		.loc 1 2173 9 view .LVU2144
2177:HANcoder_E407_TTA_CombineModel.c ****                        rtb_SFunction_o3_a, rtb_SFunction_o4_i,
 6104              		.loc 1 2177 7 view .LVU2145
 6105              	.LBB753:
 6106              	.LBI748:
 417:HANcoder_E407_TTA_CombineModel.c ****                       uint8_T rtu_In3, uint8_T rtu_In4, uint8_T rtu_In5, uint8_T
 6107              		.loc 1 417 6 view .LVU2146
 6108              	.LBB751:
 422:HANcoder_E407_TTA_CombineModel.c ****   uint8_T rtb_In6;
 6109              		.loc 1 422 3 view .LVU2147
 423:HANcoder_E407_TTA_CombineModel.c ****   uint8_T rtb_In8;
 6110              		.loc 1 423 3 view .LVU2148
 424:HANcoder_E407_TTA_CombineModel.c **** 
 6111              		.loc 1 424 3 view .LVU2149
 429:HANcoder_E407_TTA_CombineModel.c ****     /* SignalConversion generated from: '<S116>/In1' */
 6112              		.loc 1 429 3 view .LVU2150
 431:HANcoder_E407_TTA_CombineModel.c **** 
 6113              		.loc 1 431 5 view .LVU2151
 434:HANcoder_E407_TTA_CombineModel.c **** 
 6114              		.loc 1 434 5 view .LVU2152
 437:HANcoder_E407_TTA_CombineModel.c **** 
 6115              		.loc 1 437 5 view .LVU2153
 440:HANcoder_E407_TTA_CombineModel.c **** 
 6116              		.loc 1 440 5 view .LVU2154
 443:HANcoder_E407_TTA_CombineModel.c **** 
 6117              		.loc 1 443 5 view .LVU2155
 446:HANcoder_E407_TTA_CombineModel.c **** 
 6118              		.loc 1 446 5 view .LVU2156
 449:HANcoder_E407_TTA_CombineModel.c **** 
 6119              		.loc 1 449 5 view .LVU2157
 452:HANcoder_E407_TTA_CombineModel.c ****   }
 6120              		.loc 1 452 5 view .LVU2158
 449:HANcoder_E407_TTA_CombineModel.c **** 
 6121              		.loc 1 449 17 is_stmt 0 view .LVU2159
 6122 10ca 85F86020 		strb	r2, [r5, #96]
 6123              	.LVL414:
 6124              	.L180:
 449:HANcoder_E407_TTA_CombineModel.c **** 
 6125              		.loc 1 449 17 view .LVU2160
 6126              	.LBE751:
 6127              	.LBE753:
2186:HANcoder_E407_TTA_CombineModel.c **** 
 6128              		.loc 1 2186 7 is_stmt 1 view .LVU2161
2189:HANcoder_E407_TTA_CombineModel.c **** 
 6129              		.loc 1 2189 7 view .LVU2162
 6130              	.LBB754:
 6131              	.LBI754:
 578:HANcoder_E407_TTA_CombineModel.c **** {
 6132              		.loc 1 578 6 view .LVU2163
 6133              	.LBB755:
 583:HANcoder_E407_TTA_CombineModel.c **** }
 6134              		.loc 1 583 3 view .LVU2164
 583:HANcoder_E407_TTA_CombineModel.c **** }
 6135              		.loc 1 583 15 is_stmt 0 view .LVU2165
 6136 10ce 0902     		lsls	r1, r1, #8
 6137              	.LVL415:
 583:HANcoder_E407_TTA_CombineModel.c **** }
 6138              		.loc 1 583 15 view .LVU2166
 6139              	.LBE755:
 6140              	.LBE754:
 6141              	.LBB757:
 6142              	.LBB758:
 6143 10d0 1B02     		lsls	r3, r3, #8
 6144              	.LBE758:
 6145              	.LBE757:
2196:HANcoder_E407_TTA_CombineModel.c ****                          rtB.EnabledSubsystem_bj.In2);
 6146              		.loc 1 2196 15 view .LVU2167
 6147 10d2 CE19     		adds	r6, r1, r7
 6148              	.LBB761:
 6149              	.LBB756:
 583:HANcoder_E407_TTA_CombineModel.c **** }
 6150              		.loc 1 583 13 view .LVU2168
 6151 10d4 A5F86210 		strh	r1, [r5, #98]	@ movhi
 6152              	.LVL416:
 583:HANcoder_E407_TTA_CombineModel.c **** }
 6153              		.loc 1 583 13 view .LVU2169
 6154              	.LBE756:
 6155              	.LBE761:
2196:HANcoder_E407_TTA_CombineModel.c ****                          rtB.EnabledSubsystem_bj.In2);
 6156              		.loc 1 2196 7 is_stmt 1 view .LVU2170
 6157              	.LBB762:
 6158              	.LBB759:
 583:HANcoder_E407_TTA_CombineModel.c **** }
 6159              		.loc 1 583 13 is_stmt 0 view .LVU2171
 6160 10d8 A5F86430 		strh	r3, [r5, #100]	@ movhi
 6161              	.LBE759:
 6162              	.LBE762:
2210:HANcoder_E407_TTA_CombineModel.c ****                          rtB.EnabledSubsystem_bj.In4);
 6163              		.loc 1 2210 15 view .LVU2172
 6164 10dc 1918     		adds	r1, r3, r0
2196:HANcoder_E407_TTA_CombineModel.c ****                          rtB.EnabledSubsystem_bj.In2);
 6165              		.loc 1 2196 13 view .LVU2173
 6166 10de 184B     		ldr	r3, .L387+32
 6167 10e0 1E80     		strh	r6, [r3]	@ movhi
2200:HANcoder_E407_TTA_CombineModel.c **** 
 6168              		.loc 1 2200 7 is_stmt 1 view .LVU2174
 6169              	.LVL417:
2203:HANcoder_E407_TTA_CombineModel.c **** 
 6170              		.loc 1 2203 7 view .LVU2175
 6171              	.LBB763:
 6172              	.LBI757:
 578:HANcoder_E407_TTA_CombineModel.c **** {
 6173              		.loc 1 578 6 view .LVU2176
 6174              	.LBB760:
 583:HANcoder_E407_TTA_CombineModel.c **** }
 6175              		.loc 1 583 3 view .LVU2177
 583:HANcoder_E407_TTA_CombineModel.c **** }
 6176              		.loc 1 583 3 is_stmt 0 view .LVU2178
 6177              	.LBE760:
 6178              	.LBE763:
2210:HANcoder_E407_TTA_CombineModel.c ****                          rtB.EnabledSubsystem_bj.In4);
 6179              		.loc 1 2210 7 is_stmt 1 view .LVU2179
2210:HANcoder_E407_TTA_CombineModel.c ****                          rtB.EnabledSubsystem_bj.In4);
 6180              		.loc 1 2210 13 is_stmt 0 view .LVU2180
 6181 10e2 184B     		ldr	r3, .L387+36
 6182 10e4 1980     		strh	r1, [r3]	@ movhi
2214:HANcoder_E407_TTA_CombineModel.c **** 
 6183              		.loc 1 2214 7 is_stmt 1 view .LVU2181
 6184              	.LVL418:
 6185              	.LBB764:
 6186              	.LBI764:
 599:HANcoder_E407_TTA_CombineModel.c **** {
 6187              		.loc 1 599 6 view .LVU2182
 6188              	.LBB765:
 604:HANcoder_E407_TTA_CombineModel.c **** }
 6189              		.loc 1 604 3 view .LVU2183
 604:HANcoder_E407_TTA_CombineModel.c **** }
 6190              		.loc 1 604 15 is_stmt 0 view .LVU2184
 6191 10e6 5308     		lsrs	r3, r2, #1
 604:HANcoder_E407_TTA_CombineModel.c **** }
 6192              		.loc 1 604 13 view .LVU2185
 6193 10e8 85F85B30 		strb	r3, [r5, #91]
 6194              	.LVL419:
 604:HANcoder_E407_TTA_CombineModel.c **** }
 6195              		.loc 1 604 13 view .LVU2186
 6196              	.LBE765:
 6197              	.LBE764:
2219:HANcoder_E407_TTA_CombineModel.c **** 
 6198              		.loc 1 2219 7 is_stmt 1 view .LVU2187
 6199              	.LBB766:
 6200              	.LBI766:
 615:HANcoder_E407_TTA_CombineModel.c **** {
 6201              		.loc 1 615 6 view .LVU2188
 6202              	.LBB767:
 620:HANcoder_E407_TTA_CombineModel.c **** }
 6203              		.loc 1 620 3 view .LVU2189
 6204              	.LBE767:
 6205              	.LBE766:
 6206              	.LBB769:
 6207              	.LBB770:
 604:HANcoder_E407_TTA_CombineModel.c **** }
 6208              		.loc 1 604 13 is_stmt 0 view .LVU2190
 6209 10ec 85F85430 		strb	r3, [r5, #84]
 6210              	.LBE770:
 6211              	.LBE769:
 6212              	.LBB772:
 6213              	.LBB768:
 620:HANcoder_E407_TTA_CombineModel.c **** }
 6214              		.loc 1 620 15 view .LVU2191
 6215 10f0 9308     		lsrs	r3, r2, #2
 620:HANcoder_E407_TTA_CombineModel.c **** }
 6216              		.loc 1 620 13 view .LVU2192
 6217 10f2 85F85A30 		strb	r3, [r5, #90]
 6218              	.LVL420:
 620:HANcoder_E407_TTA_CombineModel.c **** }
 6219              		.loc 1 620 13 view .LVU2193
 6220              	.LBE768:
 6221              	.LBE772:
2224:HANcoder_E407_TTA_CombineModel.c **** 
 6222              		.loc 1 2224 7 is_stmt 1 view .LVU2194
 6223              	.LBB773:
 6224              	.LBI773:
 631:HANcoder_E407_TTA_CombineModel.c **** {
 6225              		.loc 1 631 6 view .LVU2195
 6226              	.LBB774:
 636:HANcoder_E407_TTA_CombineModel.c **** }
 6227              		.loc 1 636 3 view .LVU2196
 636:HANcoder_E407_TTA_CombineModel.c **** }
 6228              		.loc 1 636 15 is_stmt 0 view .LVU2197
 6229 10f6 D308     		lsrs	r3, r2, #3
 636:HANcoder_E407_TTA_CombineModel.c **** }
 6230              		.loc 1 636 13 view .LVU2198
 6231 10f8 85F85930 		strb	r3, [r5, #89]
 6232              	.LVL421:
 636:HANcoder_E407_TTA_CombineModel.c **** }
 6233              		.loc 1 636 13 view .LVU2199
 6234              	.LBE774:
 6235              	.LBE773:
2229:HANcoder_E407_TTA_CombineModel.c **** 
 6236              		.loc 1 2229 7 is_stmt 1 view .LVU2200
 6237              	.LBB775:
 6238              	.LBI775:
 647:HANcoder_E407_TTA_CombineModel.c **** {
 6239              		.loc 1 647 6 view .LVU2201
 6240              	.LBB776:
 652:HANcoder_E407_TTA_CombineModel.c **** }
 6241              		.loc 1 652 3 view .LVU2202
 652:HANcoder_E407_TTA_CombineModel.c **** }
 6242              		.loc 1 652 15 is_stmt 0 view .LVU2203
 6243 10fc 1309     		lsrs	r3, r2, #4
 652:HANcoder_E407_TTA_CombineModel.c **** }
 6244              		.loc 1 652 13 view .LVU2204
 6245 10fe 85F85830 		strb	r3, [r5, #88]
 6246              	.LVL422:
 652:HANcoder_E407_TTA_CombineModel.c **** }
 6247              		.loc 1 652 13 view .LVU2205
 6248              	.LBE776:
 6249              	.LBE775:
2234:HANcoder_E407_TTA_CombineModel.c **** 
 6250              		.loc 1 2234 7 is_stmt 1 view .LVU2206
 6251              	.LBB777:
 6252              	.LBI777:
 663:HANcoder_E407_TTA_CombineModel.c **** {
 6253              		.loc 1 663 6 view .LVU2207
 6254              	.LBB778:
 668:HANcoder_E407_TTA_CombineModel.c **** }
 6255              		.loc 1 668 3 view .LVU2208
 668:HANcoder_E407_TTA_CombineModel.c **** }
 6256              		.loc 1 668 15 is_stmt 0 view .LVU2209
 6257 1102 5309     		lsrs	r3, r2, #5
 668:HANcoder_E407_TTA_CombineModel.c **** }
 6258              		.loc 1 668 13 view .LVU2210
 6259 1104 85F85730 		strb	r3, [r5, #87]
 6260              	.LVL423:
 668:HANcoder_E407_TTA_CombineModel.c **** }
 6261              		.loc 1 668 13 view .LVU2211
 6262              	.LBE778:
 6263              	.LBE777:
2239:HANcoder_E407_TTA_CombineModel.c **** 
 6264              		.loc 1 2239 7 is_stmt 1 view .LVU2212
 6265              	.LBB779:
 6266              	.LBI779:
 679:HANcoder_E407_TTA_CombineModel.c **** {
 6267              		.loc 1 679 6 view .LVU2213
 6268              	.LBB780:
 684:HANcoder_E407_TTA_CombineModel.c **** }
 6269              		.loc 1 684 3 view .LVU2214
 684:HANcoder_E407_TTA_CombineModel.c **** }
 6270              		.loc 1 684 15 is_stmt 0 view .LVU2215
 6271 1108 9309     		lsrs	r3, r2, #6
 6272              	.LBE780:
 6273              	.LBE779:
 6274              	.LBB782:
 6275              	.LBB783:
 700:HANcoder_E407_TTA_CombineModel.c **** }
 6276              		.loc 1 700 15 view .LVU2216
 6277 110a D209     		lsrs	r2, r2, #7
 6278              	.LBE783:
 6279              	.LBE782:
 6280              	.LBB785:
 6281              	.LBB781:
 684:HANcoder_E407_TTA_CombineModel.c **** }
 6282              		.loc 1 684 13 view .LVU2217
 6283 110c 85F85630 		strb	r3, [r5, #86]
 6284              	.LVL424:
 684:HANcoder_E407_TTA_CombineModel.c **** }
 6285              		.loc 1 684 13 view .LVU2218
 6286              	.LBE781:
 6287              	.LBE785:
2244:HANcoder_E407_TTA_CombineModel.c **** 
 6288              		.loc 1 2244 7 is_stmt 1 view .LVU2219
 6289              	.LBB786:
 6290              	.LBI782:
 695:HANcoder_E407_TTA_CombineModel.c **** {
 6291              		.loc 1 695 6 view .LVU2220
 6292              	.LBB784:
 700:HANcoder_E407_TTA_CombineModel.c **** }
 6293              		.loc 1 700 3 view .LVU2221
 700:HANcoder_E407_TTA_CombineModel.c **** }
 6294              		.loc 1 700 13 is_stmt 0 view .LVU2222
 6295 1110 85F85520 		strb	r2, [r5, #85]
 6296              	.LVL425:
 700:HANcoder_E407_TTA_CombineModel.c **** }
 6297              		.loc 1 700 13 view .LVU2223
 6298              	.LBE784:
 6299              	.LBE786:
2249:HANcoder_E407_TTA_CombineModel.c **** 
 6300              		.loc 1 2249 7 is_stmt 1 view .LVU2224
 6301              	.LBB787:
 6302              	.LBI769:
 599:HANcoder_E407_TTA_CombineModel.c **** {
 6303              		.loc 1 599 6 view .LVU2225
 6304              	.LBB771:
 604:HANcoder_E407_TTA_CombineModel.c **** }
 6305              		.loc 1 604 3 view .LVU2226
 605:HANcoder_E407_TTA_CombineModel.c **** 
 6306              		.loc 1 605 1 is_stmt 0 view .LVU2227
 6307 1114 C9E5     		b	.L181
 6308              	.LVL426:
 6309              	.L347:
 605:HANcoder_E407_TTA_CombineModel.c **** 
 6310              		.loc 1 605 1 view .LVU2228
 6311              	.LBE771:
 6312              	.LBE787:
1358:HANcoder_E407_TTA_CombineModel.c ****     }
 6313              		.loc 1 1358 7 is_stmt 1 view .LVU2229
1358:HANcoder_E407_TTA_CombineModel.c ****     }
 6314              		.loc 1 1358 33 is_stmt 0 view .LVU2230
 6315 1116 C4E90289 		strd	r8, [r4, #8]
 6316 111a FFF7DBB9 		b	.L141
 6317              	.L388:
 6318 111e 00BF     		.align	2
 6319              	.L387:
 6320 1120 00000000 		.word	rtConstB
 6321 1124 00000000 		.word	.LANCHOR9
 6322 1128 00000000 		.word	.LANCHOR51
 6323 112c 00000000 		.word	.LANCHOR50
 6324 1130 00000000 		.word	.LANCHOR53
 6325 1134 00000000 		.word	.LANCHOR41
 6326 1138 00000000 		.word	.LANCHOR42
 6327 113c 00000000 		.word	.LANCHOR47
 6328 1140 00000000 		.word	.LANCHOR48
 6329 1144 00000000 		.word	.LANCHOR49
 6330 1148 0000F0BF 		.word	-1074790400
 6331 114c 00000000 		.word	.LANCHOR46
 6332              	.LVL427:
 6333              	.L359:
2826:HANcoder_E407_TTA_CombineModel.c **** 
 6334              		.loc 1 2826 5 is_stmt 1 view .LVU2231
2833:HANcoder_E407_TTA_CombineModel.c ****       &canRxData_0_SYNC1_ID.uint8_T_info[0], NULL);
 6335              		.loc 1 2833 24 is_stmt 0 view .LVU2232
 6336 1150 834B     		ldr	r3, .L389
 6337 1152 844E     		ldr	r6, .L389+4
2826:HANcoder_E407_TTA_CombineModel.c **** 
 6338              		.loc 1 2826 29 view .LVU2233
 6339 1154 0121     		movs	r1, #1
 6340 1156 84F86E10 		strb	r1, [r4, #110]
2833:HANcoder_E407_TTA_CombineModel.c ****       &canRxData_0_SYNC1_ID.uint8_T_info[0], NULL);
 6341              		.loc 1 2833 5 is_stmt 1 view .LVU2234
2833:HANcoder_E407_TTA_CombineModel.c ****       &canRxData_0_SYNC1_ID.uint8_T_info[0], NULL);
 6342              		.loc 1 2833 24 is_stmt 0 view .LVU2235
 6343 115a 1046     		mov	r0, r2
 6344 115c 1968     		ldr	r1, [r3]
 6345 115e 0092     		str	r2, [sp]
 6346 1160 3346     		mov	r3, r6
 6347 1162 FFF7FEFF 		bl	CanIoGetMessage
 6348              	.LVL428:
2837:HANcoder_E407_TTA_CombineModel.c ****       /* read the data */
 6349              		.loc 1 2837 5 is_stmt 1 view .LVU2236
2837:HANcoder_E407_TTA_CombineModel.c ****       /* read the data */
 6350              		.loc 1 2837 8 is_stmt 0 view .LVU2237
 6351 1166 021E     		subs	r2, r0, #0
 6352 1168 05DD     		ble	.L202
2839:HANcoder_E407_TTA_CombineModel.c ****       rtb_SFunction_o3 = canRxData_0_SYNC1_ID.uint8_T_info[1];
 6353              		.loc 1 2839 7 is_stmt 1 view .LVU2238
 6354              	.LVL429:
2840:HANcoder_E407_TTA_CombineModel.c ****       rtb_SFunction_o4 = canRxData_0_SYNC1_ID.uint8_T_info[2];
 6355              		.loc 1 2840 7 view .LVU2239
2841:HANcoder_E407_TTA_CombineModel.c ****       rtb_SFunction_o5 = canRxData_0_SYNC1_ID.uint8_T_info[3];
 6356              		.loc 1 2841 7 view .LVU2240
2842:HANcoder_E407_TTA_CombineModel.c ****       rtb_SFunction_o6 = canRxData_0_SYNC1_ID.uint8_T_info[4];
 6357              		.loc 1 2842 7 view .LVU2241
2841:HANcoder_E407_TTA_CombineModel.c ****       rtb_SFunction_o5 = canRxData_0_SYNC1_ID.uint8_T_info[3];
 6358              		.loc 1 2841 24 is_stmt 0 view .LVU2242
 6359 116a 7388     		ldrh	r3, [r6, #2]
 6360              	.LVL430:
2843:HANcoder_E407_TTA_CombineModel.c ****       rtb_SFunction_o7 = canRxData_0_SYNC1_ID.uint8_T_info[5];
 6361              		.loc 1 2843 7 is_stmt 1 view .LVU2243
2844:HANcoder_E407_TTA_CombineModel.c ****       rtb_SFunction_o8 = canRxData_0_SYNC1_ID.uint8_T_info[6];
 6362              		.loc 1 2844 7 view .LVU2244
2845:HANcoder_E407_TTA_CombineModel.c ****       rtb_SFunction_o9 = canRxData_0_SYNC1_ID.uint8_T_info[7];
 6363              		.loc 1 2845 7 view .LVU2245
 6364              	.LBB788:
 6365              	.LBB789:
 437:HANcoder_E407_TTA_CombineModel.c **** 
 6366              		.loc 1 437 17 is_stmt 0 view .LVU2246
 6367 116c 2B83     		strh	r3, [r5, #24]	@ movhi
 6368              	.LBE789:
 6369              	.LBE788:
2845:HANcoder_E407_TTA_CombineModel.c ****       rtb_SFunction_o9 = canRxData_0_SYNC1_ID.uint8_T_info[7];
 6370              		.loc 1 2845 24 view .LVU2247
 6371 116e B379     		ldrb	r3, [r6, #6]	@ zero_extendqisi2
 6372              	.LVL431:
2846:HANcoder_E407_TTA_CombineModel.c ****     }
 6373              		.loc 1 2846 7 is_stmt 1 view .LVU2248
2850:HANcoder_E407_TTA_CombineModel.c ****                      rtb_SFunction_o4, rtb_SFunction_o5, rtb_SFunction_o6,
 6374              		.loc 1 2850 5 view .LVU2249
 6375              	.LBB791:
 6376              	.LBI788:
 417:HANcoder_E407_TTA_CombineModel.c ****                       uint8_T rtu_In3, uint8_T rtu_In4, uint8_T rtu_In5, uint8_T
 6377              		.loc 1 417 6 view .LVU2250
 6378              	.LBB790:
 422:HANcoder_E407_TTA_CombineModel.c ****   uint8_T rtb_In6;
 6379              		.loc 1 422 3 view .LVU2251
 423:HANcoder_E407_TTA_CombineModel.c ****   uint8_T rtb_In8;
 6380              		.loc 1 423 3 view .LVU2252
 424:HANcoder_E407_TTA_CombineModel.c **** 
 6381              		.loc 1 424 3 view .LVU2253
 429:HANcoder_E407_TTA_CombineModel.c ****     /* SignalConversion generated from: '<S116>/In1' */
 6382              		.loc 1 429 3 view .LVU2254
 431:HANcoder_E407_TTA_CombineModel.c **** 
 6383              		.loc 1 431 5 view .LVU2255
 434:HANcoder_E407_TTA_CombineModel.c **** 
 6384              		.loc 1 434 5 view .LVU2256
 437:HANcoder_E407_TTA_CombineModel.c **** 
 6385              		.loc 1 437 5 view .LVU2257
 440:HANcoder_E407_TTA_CombineModel.c **** 
 6386              		.loc 1 440 5 view .LVU2258
 443:HANcoder_E407_TTA_CombineModel.c **** 
 6387              		.loc 1 443 5 view .LVU2259
 446:HANcoder_E407_TTA_CombineModel.c **** 
 6388              		.loc 1 446 5 view .LVU2260
 449:HANcoder_E407_TTA_CombineModel.c **** 
 6389              		.loc 1 449 5 view .LVU2261
 449:HANcoder_E407_TTA_CombineModel.c **** 
 6390              		.loc 1 449 17 is_stmt 0 view .LVU2262
 6391 1170 AB76     		strb	r3, [r5, #26]
 452:HANcoder_E407_TTA_CombineModel.c ****   }
 6392              		.loc 1 452 5 is_stmt 1 view .LVU2263
 431:HANcoder_E407_TTA_CombineModel.c **** 
 6393              		.loc 1 431 17 is_stmt 0 view .LVU2264
 6394 1172 3388     		ldrh	r3, [r6]
 6395              	.LVL432:
 431:HANcoder_E407_TTA_CombineModel.c **** 
 6396              		.loc 1 431 17 view .LVU2265
 6397 1174 EB82     		strh	r3, [r5, #22]	@ movhi
 6398              	.LVL433:
 6399              	.L202:
 431:HANcoder_E407_TTA_CombineModel.c **** 
 6400              		.loc 1 431 17 view .LVU2266
 6401              	.LBE790:
 6402              	.LBE791:
2860:HANcoder_E407_TTA_CombineModel.c ****                           &rtPrevZCSigState.Subsystem1_Trig_ZCE,
 6403              		.loc 1 2860 5 is_stmt 1 view .LVU2267
2860:HANcoder_E407_TTA_CombineModel.c ****                           &rtPrevZCSigState.Subsystem1_Trig_ZCE,
 6404              		.loc 1 2860 15 is_stmt 0 view .LVU2268
 6405 1176 7C49     		ldr	r1, .L389+8
 6406 1178 0120     		movs	r0, #1
 6407              	.LVL434:
2860:HANcoder_E407_TTA_CombineModel.c ****                           &rtPrevZCSigState.Subsystem1_Trig_ZCE,
 6408              		.loc 1 2860 15 view .LVU2269
 6409 117a FFF7FEFF 		bl	rt_I32ZCFcn
 6410              	.LVL435:
2863:HANcoder_E407_TTA_CombineModel.c ****       /* DataStoreWrite: '<S363>/Data Store Write' */
 6411              		.loc 1 2863 5 is_stmt 1 view .LVU2270
2863:HANcoder_E407_TTA_CombineModel.c ****       /* DataStoreWrite: '<S363>/Data Store Write' */
 6412              		.loc 1 2863 8 is_stmt 0 view .LVU2271
 6413 117e 0028     		cmp	r0, #0
 6414 1180 3FF41BAB 		beq	.L204
2865:HANcoder_E407_TTA_CombineModel.c **** 
 6415              		.loc 1 2865 7 is_stmt 1 view .LVU2272
2875:HANcoder_E407_TTA_CombineModel.c **** 
 6416              		.loc 1 2875 28 is_stmt 0 view .LVU2273
 6417 1184 0123     		movs	r3, #1
2865:HANcoder_E407_TTA_CombineModel.c **** 
 6418              		.loc 1 2865 24 view .LVU2274
 6419 1186 A97D     		ldrb	r1, [r5, #22]	@ zero_extendqisi2
 6420 1188 84F86510 		strb	r1, [r4, #101]
2870:HANcoder_E407_TTA_CombineModel.c **** 
 6421              		.loc 1 2870 7 is_stmt 1 view .LVU2275
2870:HANcoder_E407_TTA_CombineModel.c **** 
 6422              		.loc 1 2870 27 is_stmt 0 view .LVU2276
 6423 118c 0022     		movs	r2, #0
 6424 118e 84F86220 		strb	r2, [r4, #98]
2875:HANcoder_E407_TTA_CombineModel.c **** 
 6425              		.loc 1 2875 7 is_stmt 1 view .LVU2277
2875:HANcoder_E407_TTA_CombineModel.c **** 
 6426              		.loc 1 2875 28 is_stmt 0 view .LVU2278
 6427 1192 84F86630 		strb	r3, [r4, #102]
2880:HANcoder_E407_TTA_CombineModel.c ****     }
 6428              		.loc 1 2880 7 is_stmt 1 view .LVU2279
2880:HANcoder_E407_TTA_CombineModel.c ****     }
 6429              		.loc 1 2880 20 is_stmt 0 view .LVU2280
 6430 1196 84F86430 		strb	r3, [r4, #100]
 6431 119a FFF70EBB 		b	.L204
 6432              	.LVL436:
 6433              	.L147:
1473:HANcoder_E407_TTA_CombineModel.c ****       /* Gain: '<S94>/Gain' incorporates:
 6434              		.loc 1 1473 5 is_stmt 1 view .LVU2281
1478:HANcoder_E407_TTA_CombineModel.c ****         rtDWork.pot5_1) >> 22);
 6435              		.loc 1 1478 7 view .LVU2282
1479:HANcoder_E407_TTA_CombineModel.c ****     }
 6436              		.loc 1 1479 16 is_stmt 0 view .LVU2283
 6437 119e B4F84030 		ldrh	r3, [r4, #64]
1478:HANcoder_E407_TTA_CombineModel.c ****         rtDWork.pot5_1) >> 22);
 6438              		.loc 1 1478 74 view .LVU2284
 6439 11a2 4FF28A42 		movw	r2, #62602
 6440              	.LVL437:
1478:HANcoder_E407_TTA_CombineModel.c ****         rtDWork.pot5_1) >> 22);
 6441              		.loc 1 1478 74 view .LVU2285
 6442 11a6 02FB03F3 		mul	r3, r2, r3
1478:HANcoder_E407_TTA_CombineModel.c ****         rtDWork.pot5_1) >> 22);
 6443              		.loc 1 1478 33 view .LVU2286
 6444 11aa 9B0D     		lsrs	r3, r3, #22
 6445 11ac FFF7D5B9 		b	.L227
 6446              	.LVL438:
 6447              	.L152:
1613:HANcoder_E407_TTA_CombineModel.c ****     }
 6448              		.loc 1 1613 7 is_stmt 1 view .LVU2287
 6449 11b0 0121     		movs	r1, #1
 6450 11b2 0A20     		movs	r0, #10
 6451 11b4 FFF7FEFF 		bl	DigoutSet
 6452              	.LVL439:
 6453 11b8 FFF765BA 		b	.L153
 6454              	.L150:
1561:HANcoder_E407_TTA_CombineModel.c **** 
 6455              		.loc 1 1561 7 view .LVU2288
1561:HANcoder_E407_TTA_CombineModel.c **** 
 6456              		.loc 1 1561 28 is_stmt 0 view .LVU2289
 6457 11bc 6B4B     		ldr	r3, .L389+12
1561:HANcoder_E407_TTA_CombineModel.c **** 
 6458              		.loc 1 1561 18 view .LVU2290
 6459 11be 1A8C     		ldrh	r2, [r3, #32]
1564:HANcoder_E407_TTA_CombineModel.c **** 
 6460              		.loc 1 1564 29 view .LVU2291
 6461 11c0 93F83090 		ldrb	r9, [r3, #48]	@ zero_extendqisi2
1567:HANcoder_E407_TTA_CombineModel.c ****     }
 6462              		.loc 1 1567 19 view .LVU2292
 6463 11c4 93F83130 		ldrb	r3, [r3, #49]	@ zero_extendqisi2
1561:HANcoder_E407_TTA_CombineModel.c **** 
 6464              		.loc 1 1561 18 view .LVU2293
 6465 11c8 2A80     		strh	r2, [r5]	@ movhi
1564:HANcoder_E407_TTA_CombineModel.c **** 
 6466              		.loc 1 1564 7 is_stmt 1 view .LVU2294
1567:HANcoder_E407_TTA_CombineModel.c ****     }
 6467              		.loc 1 1567 19 is_stmt 0 view .LVU2295
 6468 11ca 2B75     		strb	r3, [r5, #20]
1564:HANcoder_E407_TTA_CombineModel.c **** 
 6469              		.loc 1 1564 19 view .LVU2296
 6470 11cc 85F81390 		strb	r9, [r5, #19]
1567:HANcoder_E407_TTA_CombineModel.c ****     }
 6471              		.loc 1 1567 7 is_stmt 1 view .LVU2297
 6472 11d0 FFF726BA 		b	.L151
 6473              	.LVL440:
 6474              	.L329:
1303:HANcoder_E407_TTA_CombineModel.c ****       rtb_Uk1 = 0.0;
 6475              		.loc 1 1303 12 view .LVU2298
1303:HANcoder_E407_TTA_CombineModel.c ****       rtb_Uk1 = 0.0;
 6476              		.loc 1 1303 15 is_stmt 0 view .LVU2299
 6477 11d4 51EC190B 		vmov	r0, r1, d9
 6478 11d8 0022     		movs	r2, #0
 6479 11da 0023     		movs	r3, #0
 6480 11dc FFF7FEFF 		bl	__aeabi_dcmpge
 6481              	.LVL441:
 6482 11e0 0028     		cmp	r0, #0
 6483 11e2 3FF43AA9 		beq	.L135
 6484              	.LVL442:
1312:HANcoder_E407_TTA_CombineModel.c **** 
 6485              		.loc 1 1312 5 is_stmt 1 view .LVU2300
1312:HANcoder_E407_TTA_CombineModel.c **** 
 6486              		.loc 1 1312 22 is_stmt 0 view .LVU2301
 6487 11e6 624B     		ldr	r3, .L389+16
 6488 11e8 3046     		mov	r0, r6
 6489 11ea 3946     		mov	r1, r7
 6490 11ec D3E90023 		ldrd	r2, [r3]
 6491 11f0 FFF7FEFF 		bl	__aeabi_dmul
 6492              	.LVL443:
 6493 11f4 0646     		mov	r6, r0
 6494              	.LVL444:
1312:HANcoder_E407_TTA_CombineModel.c **** 
 6495              		.loc 1 1312 22 view .LVU2302
 6496 11f6 0F46     		mov	r7, r1
 6497              	.LVL445:
1320:HANcoder_E407_TTA_CombineModel.c ****       tmp_0 = 1;
 6498              		.loc 1 1320 5 is_stmt 1 view .LVU2303
1332:HANcoder_E407_TTA_CombineModel.c ****       tmp_1 = 1;
 6499              		.loc 1 1332 5 view .LVU2304
 6500 11f8 FFF74AB9 		b	.L138
 6501              	.LVL446:
 6502              	.L327:
1332:HANcoder_E407_TTA_CombineModel.c ****       tmp_1 = 1;
 6503              		.loc 1 1332 5 is_stmt 0 view .LVU2305
 6504 11fc 099B     		ldr	r3, [sp, #36]
 6505 11fe 83F00108 		eor	r8, r3, #1
1293:HANcoder_E407_TTA_CombineModel.c **** 
 6506              		.loc 1 1293 9 discriminator 6 view .LVU2306
 6507 1202 5C4B     		ldr	r3, .L389+20
 6508 1204 83F80080 		strb	r8, [r3]
1290:HANcoder_E407_TTA_CombineModel.c **** 
 6509              		.loc 1 1290 21 discriminator 6 view .LVU2307
 6510 1208 0023     		movs	r3, #0
 6511 120a 84F86730 		strb	r3, [r4, #103]
1293:HANcoder_E407_TTA_CombineModel.c **** 
 6512              		.loc 1 1293 5 is_stmt 1 discriminator 6 view .LVU2308
1298:HANcoder_E407_TTA_CombineModel.c **** 
 6513              		.loc 1 1298 5 discriminator 6 view .LVU2309
1298:HANcoder_E407_TTA_CombineModel.c **** 
 6514              		.loc 1 1298 37 is_stmt 0 discriminator 6 view .LVU2310
 6515 120e 51EC180B 		vmov	r0, r1, d8
 6516 1212 3246     		mov	r2, r6
 6517 1214 3B46     		mov	r3, r7
 6518 1216 FFF7FEFF 		bl	__aeabi_dcmplt
 6519              	.LVL447:
 6520 121a 0028     		cmp	r0, #0
 6521 121c 08BF     		it	eq
 6522 121e 4FF00008 		moveq	r8, #0
 6523 1222 FFF701B9 		b	.L131
 6524              	.LVL448:
 6525              	.L257:
1298:HANcoder_E407_TTA_CombineModel.c **** 
 6526              		.loc 1 1298 37 discriminator 6 view .LVU2311
 6527 1226 4FF44873 		mov	r3, #800
 6528 122a FFF7D1B8 		b	.L125
 6529              	.LVL449:
 6530              	.L356:
1521:HANcoder_E407_TTA_CombineModel.c ****     }
 6531              		.loc 1 1521 7 is_stmt 1 view .LVU2312
 6532 122e 0120     		movs	r0, #1
 6533 1230 FFF7FEFF 		bl	QuadEncResetCounter
 6534              	.LVL450:
 6535 1234 FFF7D6B9 		b	.L148
 6536              	.LVL451:
 6537              	.L353:
1293:HANcoder_E407_TTA_CombineModel.c **** 
 6538              		.loc 1 1293 9 is_stmt 0 view .LVU2313
 6539 1238 4E4B     		ldr	r3, .L389+20
1290:HANcoder_E407_TTA_CombineModel.c **** 
 6540              		.loc 1 1290 21 view .LVU2314
 6541 123a 84F86700 		strb	r0, [r4, #103]
1293:HANcoder_E407_TTA_CombineModel.c **** 
 6542              		.loc 1 1293 5 is_stmt 1 view .LVU2315
1293:HANcoder_E407_TTA_CombineModel.c **** 
 6543              		.loc 1 1293 9 is_stmt 0 view .LVU2316
 6544 123e 4FF00108 		mov	r8, #1
 6545 1242 83F80080 		strb	r8, [r3]
1298:HANcoder_E407_TTA_CombineModel.c **** 
 6546              		.loc 1 1298 5 is_stmt 1 view .LVU2317
 6547 1246 FFF7EFB8 		b	.L131
 6548              	.LVL452:
 6549              	.L352:
1205:HANcoder_E407_TTA_CombineModel.c ****     }
 6550              		.loc 1 1205 11 is_stmt 0 view .LVU2318
 6551 124a 4FF00009 		mov	r9, #0
 6552 124e FEF7C5BF 		b	.L124
 6553              	.LVL453:
 6554              	.L258:
1205:HANcoder_E407_TTA_CombineModel.c ****     }
 6555              		.loc 1 1205 11 view .LVU2319
 6556 1252 4FF4FA73 		mov	r3, #500
 6557 1256 FFF7BBB8 		b	.L125
 6558              	.LVL454:
 6559              	.L368:
2064:HANcoder_E407_TTA_CombineModel.c **** 
 6560              		.loc 1 2064 43 view .LVU2320
 6561 125a 95F88010 		ldrb	r1, [r5, #128]	@ zero_extendqisi2
2074:HANcoder_E407_TTA_CombineModel.c **** 
 6562              		.loc 1 2074 77 view .LVU2321
 6563 125e 95F881C0 		ldrb	ip, [r5, #129]	@ zero_extendqisi2
2077:HANcoder_E407_TTA_CombineModel.c **** 
 6564              		.loc 1 2077 42 view .LVU2322
 6565 1262 95F88200 		ldrb	r0, [r5, #130]	@ zero_extendqisi2
 6566              	.LVL455:
2087:HANcoder_E407_TTA_CombineModel.c **** 
 6567              		.loc 1 2087 77 view .LVU2323
 6568 1266 95F883E0 		ldrb	lr, [r5, #131]	@ zero_extendqisi2
2090:HANcoder_E407_TTA_CombineModel.c **** 
 6569              		.loc 1 2090 7 view .LVU2324
 6570 126a 95F88420 		ldrb	r2, [r5, #132]	@ zero_extendqisi2
 6571 126e C5E4     		b	.L217
 6572              	.LVL456:
 6573              	.L365:
1902:HANcoder_E407_TTA_CombineModel.c **** 
 6574              		.loc 1 1902 42 view .LVU2325
 6575 1270 95F8B610 		ldrb	r1, [r5, #182]	@ zero_extendqisi2
1913:HANcoder_E407_TTA_CombineModel.c **** 
 6576              		.loc 1 1913 48 view .LVU2326
 6577 1274 95F8B7C0 		ldrb	ip, [r5, #183]	@ zero_extendqisi2
1916:HANcoder_E407_TTA_CombineModel.c **** 
 6578              		.loc 1 1916 43 view .LVU2327
 6579 1278 95F8B820 		ldrb	r2, [r5, #184]	@ zero_extendqisi2
1927:HANcoder_E407_TTA_CombineModel.c **** 
 6580              		.loc 1 1927 48 view .LVU2328
 6581 127c 95F8B900 		ldrb	r0, [r5, #185]	@ zero_extendqisi2
 6582              	.LVL457:
1930:HANcoder_E407_TTA_CombineModel.c **** 
 6583              		.loc 1 1930 7 view .LVU2329
 6584 1280 95F8BA30 		ldrb	r3, [r5, #186]	@ zero_extendqisi2
 6585 1284 FFF767BB 		b	.L219
 6586              	.LVL458:
 6587              	.L372:
2549:HANcoder_E407_TTA_CombineModel.c **** 
 6588              		.loc 1 2549 43 view .LVU2330
 6589 1288 95F82F20 		ldrb	r2, [r5, #47]	@ zero_extendqisi2
2561:HANcoder_E407_TTA_CombineModel.c **** 
 6590              		.loc 1 2561 31 view .LVU2331
 6591 128c 95F83000 		ldrb	r0, [r5, #48]	@ zero_extendqisi2
 6592              	.LVL459:
2564:HANcoder_E407_TTA_CombineModel.c **** 
 6593              		.loc 1 2564 43 view .LVU2332
 6594 1290 95F83110 		ldrb	r1, [r5, #49]	@ zero_extendqisi2
2572:HANcoder_E407_TTA_CombineModel.c **** 
 6595              		.loc 1 2572 7 view .LVU2333
 6596 1294 95F83330 		ldrb	r3, [r5, #51]	@ zero_extendqisi2
 6597 1298 50E5     		b	.L211
 6598              	.LVL460:
 6599              	.L373:
2312:HANcoder_E407_TTA_CombineModel.c **** 
 6600              		.loc 1 2312 42 view .LVU2334
 6601 129a 95F84B00 		ldrb	r0, [r5, #75]	@ zero_extendqisi2
 6602              	.LVL461:
2324:HANcoder_E407_TTA_CombineModel.c **** 
 6603              		.loc 1 2324 31 view .LVU2335
 6604 129e 95F84CC0 		ldrb	ip, [r5, #76]	@ zero_extendqisi2
2327:HANcoder_E407_TTA_CombineModel.c **** 
 6605              		.loc 1 2327 42 view .LVU2336
 6606 12a2 95F84D10 		ldrb	r1, [r5, #77]	@ zero_extendqisi2
2339:HANcoder_E407_TTA_CombineModel.c **** 
 6607              		.loc 1 2339 31 view .LVU2337
 6608 12a6 95F84E70 		ldrb	r7, [r5, #78]	@ zero_extendqisi2
2342:HANcoder_E407_TTA_CombineModel.c **** 
 6609              		.loc 1 2342 7 view .LVU2338
 6610 12aa 95F84F20 		ldrb	r2, [r5, #79]	@ zero_extendqisi2
 6611 12ae 42E6     		b	.L215
 6612              	.LVL462:
 6613              	.L354:
1323:HANcoder_E407_TTA_CombineModel.c ****     }
 6614              		.loc 1 1323 7 is_stmt 1 view .LVU2339
1332:HANcoder_E407_TTA_CombineModel.c ****       tmp_1 = 1;
 6615              		.loc 1 1332 5 view .LVU2340
1332:HANcoder_E407_TTA_CombineModel.c ****       tmp_1 = 1;
 6616              		.loc 1 1332 8 is_stmt 0 view .LVU2341
 6617 12b0 3046     		mov	r0, r6
 6618 12b2 3946     		mov	r1, r7
 6619 12b4 FFF7FEFF 		bl	__aeabi_dcmpgt
 6620              	.LVL463:
 6621 12b8 0028     		cmp	r0, #0
 6622 12ba 7FF4E9A8 		bne	.L138
1335:HANcoder_E407_TTA_CombineModel.c ****     }
 6623              		.loc 1 1335 7 is_stmt 1 view .LVU2342
 6624              	.LVL464:
1347:HANcoder_E407_TTA_CombineModel.c ****       rtb_IntegralGain = 0.0;
 6625              		.loc 1 1347 5 view .LVU2343
1347:HANcoder_E407_TTA_CombineModel.c ****       rtb_IntegralGain = 0.0;
 6626              		.loc 1 1347 8 is_stmt 0 view .LVU2344
 6627 12be 51EC190B 		vmov	r0, r1, d9
 6628 12c2 0022     		movs	r2, #0
 6629 12c4 0023     		movs	r3, #0
 6630 12c6 FFF7FEFF 		bl	__aeabi_dcmpeq
 6631              	.LVL465:
 6632 12ca 0028     		cmp	r0, #0
 6633 12cc 7FF4E0A8 		bne	.L138
 6634              	.LVL466:
 6635              	.L342:
1348:HANcoder_E407_TTA_CombineModel.c ****     }
 6636              		.loc 1 1348 24 view .LVU2345
 6637 12d0 0026     		movs	r6, #0
 6638              	.LVL467:
1348:HANcoder_E407_TTA_CombineModel.c ****     }
 6639              		.loc 1 1348 24 view .LVU2346
 6640 12d2 0027     		movs	r7, #0
 6641 12d4 FFF7DCB8 		b	.L138
 6642              	.LVL468:
 6643              	.L375:
1969:HANcoder_E407_TTA_CombineModel.c ****     }
 6644              		.loc 1 1969 7 is_stmt 1 view .LVU2347
1969:HANcoder_E407_TTA_CombineModel.c ****     }
 6645              		.loc 1 1969 33 is_stmt 0 view .LVU2348
 6646 12d8 0023     		movs	r3, #0
 6647 12da 84F87430 		strb	r3, [r4, #116]
1975:HANcoder_E407_TTA_CombineModel.c **** 
 6648              		.loc 1 1975 5 is_stmt 1 view .LVU2349
 6649 12de D7E6     		b	.L243
 6650              	.LVL469:
 6651              	.L374:
2129:HANcoder_E407_TTA_CombineModel.c ****     }
 6652              		.loc 1 2129 7 view .LVU2350
2129:HANcoder_E407_TTA_CombineModel.c ****     }
 6653              		.loc 1 2129 29 is_stmt 0 view .LVU2351
 6654 12e0 0023     		movs	r3, #0
 6655 12e2 84F87330 		strb	r3, [r4, #115]
2135:HANcoder_E407_TTA_CombineModel.c **** 
 6656              		.loc 1 2135 5 is_stmt 1 view .LVU2352
 6657 12e6 CAE6     		b	.L239
 6658              	.LVL470:
 6659              	.L232:
2611:HANcoder_E407_TTA_CombineModel.c ****     }
 6660              		.loc 1 2611 7 view .LVU2353
2611:HANcoder_E407_TTA_CombineModel.c ****     }
 6661              		.loc 1 2611 32 is_stmt 0 view .LVU2354
 6662 12e8 0022     		movs	r2, #0
 6663 12ea 84F87020 		strb	r2, [r4, #112]
2617:HANcoder_E407_TTA_CombineModel.c **** 
 6664              		.loc 1 2617 5 is_stmt 1 view .LVU2355
 6665 12ee 64E6     		b	.L233
 6666              	.LVL471:
 6667              	.L376:
2186:HANcoder_E407_TTA_CombineModel.c **** 
 6668              		.loc 1 2186 43 is_stmt 0 view .LVU2356
 6669 12f0 95F85C10 		ldrb	r1, [r5, #92]	@ zero_extendqisi2
2197:HANcoder_E407_TTA_CombineModel.c **** 
 6670              		.loc 1 2197 49 view .LVU2357
 6671 12f4 95F85D70 		ldrb	r7, [r5, #93]	@ zero_extendqisi2
2200:HANcoder_E407_TTA_CombineModel.c **** 
 6672              		.loc 1 2200 44 view .LVU2358
 6673 12f8 95F85E30 		ldrb	r3, [r5, #94]	@ zero_extendqisi2
2211:HANcoder_E407_TTA_CombineModel.c **** 
 6674              		.loc 1 2211 49 view .LVU2359
 6675 12fc 95F85F00 		ldrb	r0, [r5, #95]	@ zero_extendqisi2
 6676              	.LVL472:
2214:HANcoder_E407_TTA_CombineModel.c **** 
 6677              		.loc 1 2214 7 view .LVU2360
 6678 1300 95F86020 		ldrb	r2, [r5, #96]	@ zero_extendqisi2
 6679 1304 E3E6     		b	.L180
 6680              	.LVL473:
 6681              	.L366:
1738:HANcoder_E407_TTA_CombineModel.c ****       rtDWork.SYNC1_RX_MODE = true;
 6682              		.loc 1 1738 5 is_stmt 1 view .LVU2361
1793:HANcoder_E407_TTA_CombineModel.c ****       rtDWork.SYNC1_RX_MODE = false;
 6683              		.loc 1 1793 12 view .LVU2362
1793:HANcoder_E407_TTA_CombineModel.c ****       rtDWork.SYNC1_RX_MODE = false;
 6684              		.loc 1 1793 15 is_stmt 0 view .LVU2363
 6685 1306 94F87530 		ldrb	r3, [r4, #117]	@ zero_extendqisi2
 6686 130a 13B1     		cbz	r3, .L248
1794:HANcoder_E407_TTA_CombineModel.c ****     }
 6687              		.loc 1 1794 7 is_stmt 1 view .LVU2364
1794:HANcoder_E407_TTA_CombineModel.c ****     }
 6688              		.loc 1 1794 29 is_stmt 0 view .LVU2365
 6689 130c 0023     		movs	r3, #0
 6690 130e 84F87530 		strb	r3, [r4, #117]
1800:HANcoder_E407_TTA_CombineModel.c **** 
 6691              		.loc 1 1800 5 is_stmt 1 view .LVU2366
 6692              	.L248:
1805:HANcoder_E407_TTA_CombineModel.c ****       /* DataStoreRead: '<S104>/Data Store Read1' */
 6693              		.loc 1 1805 17 is_stmt 0 view .LVU2367
 6694 1312 9AF80730 		ldrb	r3, [r10, #7]	@ zero_extendqisi2
1800:HANcoder_E407_TTA_CombineModel.c **** 
 6695              		.loc 1 1800 13 view .LVU2368
 6696 1316 184E     		ldr	r6, .L389+24
 6697 1318 0122     		movs	r2, #1
1805:HANcoder_E407_TTA_CombineModel.c ****       /* DataStoreRead: '<S104>/Data Store Read1' */
 6698              		.loc 1 1805 17 view .LVU2369
 6699 131a 9342     		cmp	r3, r2
1800:HANcoder_E407_TTA_CombineModel.c **** 
 6700              		.loc 1 1800 13 view .LVU2370
 6701 131c 3270     		strb	r2, [r6]
1805:HANcoder_E407_TTA_CombineModel.c ****       /* DataStoreRead: '<S104>/Data Store Read1' */
 6702              		.loc 1 1805 5 is_stmt 1 view .LVU2371
1805:HANcoder_E407_TTA_CombineModel.c ****       /* DataStoreRead: '<S104>/Data Store Read1' */
 6703              		.loc 1 1805 17 is_stmt 0 view .LVU2372
 6704 131e 3FF4E9AB 		beq	.L340
1807:HANcoder_E407_TTA_CombineModel.c **** 
 6705              		.loc 1 1807 7 is_stmt 1 view .LVU2373
1830:HANcoder_E407_TTA_CombineModel.c ****         canTxData.uint8_T_info[1] = ((uint8_T)1U);
 6706              		.loc 1 1830 35 is_stmt 0 view .LVU2374
 6707 1322 164B     		ldr	r3, .L389+28
1807:HANcoder_E407_TTA_CombineModel.c **** 
 6708              		.loc 1 1807 19 view .LVU2375
 6709 1324 164F     		ldr	r7, .L389+32
1831:HANcoder_E407_TTA_CombineModel.c ****         canTxData.uint8_T_info[2] = ((uint8_T)0U);
 6710              		.loc 1 1831 35 view .LVU2376
 6711 1326 5A70     		strb	r2, [r3, #1]
1807:HANcoder_E407_TTA_CombineModel.c **** 
 6712              		.loc 1 1807 28 view .LVU2377
 6713 1328 B4F84E20 		ldrh	r2, [r4, #78]
1807:HANcoder_E407_TTA_CombineModel.c **** 
 6714              		.loc 1 1807 19 view .LVU2378
 6715 132c 3A80     		strh	r2, [r7]	@ movhi
1813:HANcoder_E407_TTA_CombineModel.c **** 
 6716              		.loc 1 1813 7 is_stmt 1 view .LVU2379
1813:HANcoder_E407_TTA_CombineModel.c **** 
 6717              		.loc 1 1813 27 is_stmt 0 view .LVU2380
 6718 132e 0132     		adds	r2, r2, #1
1813:HANcoder_E407_TTA_CombineModel.c **** 
 6719              		.loc 1 1813 25 view .LVU2381
 6720 1330 A4F84E20 		strh	r2, [r4, #78]	@ movhi
1816:HANcoder_E407_TTA_CombineModel.c **** 
 6721              		.loc 1 1816 7 is_stmt 1 view .LVU2382
1840:HANcoder_E407_TTA_CombineModel.c ****       }
 6722              		.loc 1 1840 9 is_stmt 0 view .LVU2383
 6723 1334 0A49     		ldr	r1, .L389
1816:HANcoder_E407_TTA_CombineModel.c **** 
 6724              		.loc 1 1816 34 view .LVU2384
 6725 1336 94F86520 		ldrb	r2, [r4, #101]	@ zero_extendqisi2
1830:HANcoder_E407_TTA_CombineModel.c ****         canTxData.uint8_T_info[1] = ((uint8_T)1U);
 6726              		.loc 1 1830 35 view .LVU2385
 6727 133a 1A70     		strb	r2, [r3]
1832:HANcoder_E407_TTA_CombineModel.c ****         canTxData.uint8_T_info[3] = ((uint8_T)0U);
 6728              		.loc 1 1832 35 view .LVU2386
 6729 133c 0020     		movs	r0, #0
1816:HANcoder_E407_TTA_CombineModel.c **** 
 6730              		.loc 1 1816 25 view .LVU2387
 6731 133e 2A74     		strb	r2, [r5, #16]
1830:HANcoder_E407_TTA_CombineModel.c ****         canTxData.uint8_T_info[1] = ((uint8_T)1U);
 6732              		.loc 1 1830 9 is_stmt 1 view .LVU2388
1831:HANcoder_E407_TTA_CombineModel.c ****         canTxData.uint8_T_info[2] = ((uint8_T)0U);
 6733              		.loc 1 1831 9 view .LVU2389
1832:HANcoder_E407_TTA_CombineModel.c ****         canTxData.uint8_T_info[3] = ((uint8_T)0U);
 6734              		.loc 1 1832 9 view .LVU2390
1833:HANcoder_E407_TTA_CombineModel.c ****         canTxData.uint8_T_info[4] = ((uint8_T)0U);
 6735              		.loc 1 1833 9 view .LVU2391
1834:HANcoder_E407_TTA_CombineModel.c ****         canTxData.uint8_T_info[5] = ((uint8_T)0U);
 6736              		.loc 1 1834 9 view .LVU2392
1835:HANcoder_E407_TTA_CombineModel.c ****         canTxData.uint8_T_info[6] = ((uint8_T)0U);
 6737              		.loc 1 1835 9 view .LVU2393
1836:HANcoder_E407_TTA_CombineModel.c ****         canTxData.uint8_T_info[7] = ((uint8_T)1U);
 6738              		.loc 1 1836 9 view .LVU2394
1837:HANcoder_E407_TTA_CombineModel.c **** 
 6739              		.loc 1 1837 9 view .LVU2395
1834:HANcoder_E407_TTA_CombineModel.c ****         canTxData.uint8_T_info[5] = ((uint8_T)0U);
 6740              		.loc 1 1834 35 is_stmt 0 view .LVU2396
 6741 1340 4FF08072 		mov	r2, #16777216
 6742 1344 5A60     		str	r2, [r3, #4]
1840:HANcoder_E407_TTA_CombineModel.c ****       }
 6743              		.loc 1 1840 9 is_stmt 1 view .LVU2397
 6744 1346 0968     		ldr	r1, [r1]
1832:HANcoder_E407_TTA_CombineModel.c ****         canTxData.uint8_T_info[3] = ((uint8_T)0U);
 6745              		.loc 1 1832 35 is_stmt 0 view .LVU2398
 6746 1348 5880     		strh	r0, [r3, #2]	@ movhi
1840:HANcoder_E407_TTA_CombineModel.c ****       }
 6747              		.loc 1 1840 9 view .LVU2399
 6748 134a 0822     		movs	r2, #8
 6749 134c FFF7FEFF 		bl	CanTransmit
 6750              	.LVL474:
1844:HANcoder_E407_TTA_CombineModel.c **** 
 6751              		.loc 1 1844 40 view .LVU2400
 6752 1350 3178     		ldrb	r1, [r6]	@ zero_extendqisi2
1852:HANcoder_E407_TTA_CombineModel.c **** 
 6753              		.loc 1 1852 48 view .LVU2401
 6754 1352 9BF80030 		ldrb	r3, [fp]	@ zero_extendqisi2
1858:HANcoder_E407_TTA_CombineModel.c **** 
 6755              		.loc 1 1858 23 view .LVU2402
 6756 1356 94F86320 		ldrb	r2, [r4, #99]	@ zero_extendqisi2
 6757 135a FFF7C3BA 		b	.L222
 6758              	.L390:
 6759 135e 00BF     		.align	2
 6760              	.L389:
 6761 1360 00000000 		.word	.LANCHOR36
 6762 1364 00000000 		.word	.LANCHOR34
 6763 1368 00000000 		.word	.LANCHOR5
 6764 136c 00000000 		.word	rtConstB
 6765 1370 00000000 		.word	.LANCHOR25
 6766 1374 00000000 		.word	.LANCHOR24
 6767 1378 00000000 		.word	.LANCHOR37
 6768 137c 00000000 		.word	.LANCHOR9
 6769 1380 00000000 		.word	.LANCHOR35
 6770              		.cfi_endproc
 6771              	.LFE142:
 6773              		.section	.rodata.HANcoder_E407_TTA_CombineModel_initialize.str1.4,"aMS",%progbits,1
 6774              		.align	2
 6775              	.LC1:
 6776 0000 48414E63 		.ascii	"HANcoder_E407_TTA_CombineModel.c\000"
 6776      6F646572 
 6776      5F453430 
 6776      375F5454 
 6776      415F436F 
 6777              		.section	.text.HANcoder_E407_TTA_CombineModel_initialize,"ax",%progbits
 6778              		.align	1
 6779              		.p2align 2,,3
 6780              		.global	HANcoder_E407_TTA_CombineModel_initialize
 6781              		.syntax unified
 6782              		.thumb
 6783              		.thumb_func
 6785              	HANcoder_E407_TTA_CombineModel_initialize:
 6786              	.LFB143:
2931:HANcoder_E407_TTA_CombineModel.c **** 
2932:HANcoder_E407_TTA_CombineModel.c **** /* Model initialize function */
2933:HANcoder_E407_TTA_CombineModel.c **** void HANcoder_E407_TTA_CombineModel_initialize(void)
2934:HANcoder_E407_TTA_CombineModel.c **** {
 6787              		.loc 1 2934 1 is_stmt 1 view -0
 6788              		.cfi_startproc
 6789              		@ args = 0, pretend = 0, frame = 16
 6790              		@ frame_needed = 0, uses_anonymous_args = 0
 6791              	.LBB809:
2935:HANcoder_E407_TTA_CombineModel.c ****   {
2936:HANcoder_E407_TTA_CombineModel.c ****     /* user code (Start function Header) */
2937:HANcoder_E407_TTA_CombineModel.c ****     uint8_t canResult1;
 6792              		.loc 1 2937 5 view .LVU2404
2938:HANcoder_E407_TTA_CombineModel.c ****     tCanFilter canFilter1;
 6793              		.loc 1 2938 5 view .LVU2405
2939:HANcoder_E407_TTA_CombineModel.c **** 
2940:HANcoder_E407_TTA_CombineModel.c ****     /* user code (Start function Body) */
2941:HANcoder_E407_TTA_CombineModel.c **** 
2942:HANcoder_E407_TTA_CombineModel.c ****     /* initialize the CAN driver. */
2943:HANcoder_E407_TTA_CombineModel.c ****     CanInit(64, 8);
 6794              		.loc 1 2943 5 view .LVU2406
 6795              	.LBE809:
2934:HANcoder_E407_TTA_CombineModel.c ****   {
 6796              		.loc 1 2934 1 is_stmt 0 view .LVU2407
 6797 0000 70B5     		push	{r4, r5, r6, lr}
 6798              		.cfi_def_cfa_offset 16
 6799              		.cfi_offset 4, -16
 6800              		.cfi_offset 5, -12
 6801              		.cfi_offset 6, -8
 6802              		.cfi_offset 14, -4
 6803              	.LBB848:
 6804              		.loc 1 2943 5 view .LVU2408
 6805 0002 0821     		movs	r1, #8
 6806              	.LBE848:
2934:HANcoder_E407_TTA_CombineModel.c ****   {
 6807              		.loc 1 2934 1 view .LVU2409
 6808 0004 84B0     		sub	sp, sp, #16
 6809              		.cfi_def_cfa_offset 32
 6810              	.LBB849:
 6811              		.loc 1 2943 5 view .LVU2410
 6812 0006 4020     		movs	r0, #64
 6813 0008 FFF7FEFF 		bl	CanInit
 6814              	.LVL475:
2944:HANcoder_E407_TTA_CombineModel.c **** 
2945:HANcoder_E407_TTA_CombineModel.c ****     /* initialize the CAN I/O module for channel 1 */
2946:HANcoder_E407_TTA_CombineModel.c ****     CanIoInit(0);
 6815              		.loc 1 2946 5 is_stmt 1 view .LVU2411
 6816 000c 0020     		movs	r0, #0
 6817 000e FFF7FEFF 		bl	CanIoInit
 6818              	.LVL476:
2947:HANcoder_E407_TTA_CombineModel.c **** 
2948:HANcoder_E407_TTA_CombineModel.c ****     /* initialize the timer module for output compare. */
2949:HANcoder_E407_TTA_CombineModel.c ****     TimeoutInitModule(TIMEOUT_MODULE_TIM4, 1000000);
 6819              		.loc 1 2949 5 view .LVU2412
 6820 0012 6D49     		ldr	r1, .L399
 6821              	.LBB810:
 6822              	.LBB811:
 315:HANcoder_E407_TTA_CombineModel.c ****   localDW->objisempty = true;
 6823              		.loc 1 315 39 is_stmt 0 view .LVU2413
 6824 0014 6D4D     		ldr	r5, .L399+4
 6825              	.LBE811:
 6826              	.LBE810:
 6827              		.loc 1 2949 5 view .LVU2414
 6828 0016 0320     		movs	r0, #3
 6829              	.LBB823:
 6830              	.LBB820:
 315:HANcoder_E407_TTA_CombineModel.c ****   localDW->objisempty = true;
 6831              		.loc 1 315 39 view .LVU2415
 6832 0018 0024     		movs	r4, #0
 6833              	.LBE820:
 6834              	.LBE823:
 6835              		.loc 1 2949 5 view .LVU2416
 6836 001a FFF7FEFF 		bl	TimeoutInitModule
 6837              	.LVL477:
2950:HANcoder_E407_TTA_CombineModel.c **** 
2951:HANcoder_E407_TTA_CombineModel.c ****     /* register the callback handler */
2952:HANcoder_E407_TTA_CombineModel.c ****     TimeoutRegisterCompareEventCallback(TIMEOUT_TIM4_PIN_PD12,
 6838              		.loc 1 2952 5 is_stmt 1 view .LVU2417
 6839 001e 6C49     		ldr	r1, .L399+8
 6840 0020 0720     		movs	r0, #7
 6841 0022 FFF7FEFF 		bl	TimeoutRegisterCompareEventCallback
 6842              	.LVL478:
2953:HANcoder_E407_TTA_CombineModel.c ****       TimeoutEventIRQ_TIMEOUT_TIM4_PIN_PD12);
2954:HANcoder_E407_TTA_CombineModel.c **** 
2955:HANcoder_E407_TTA_CombineModel.c ****     /* End of Start for S-Function (sfcn_timeout_event_irq): '<S4>/S-Function' */
2956:HANcoder_E407_TTA_CombineModel.c **** 
2957:HANcoder_E407_TTA_CombineModel.c ****     /* Start for Triggered SubSystem: '<S1>/IO execution' */
2958:HANcoder_E407_TTA_CombineModel.c ****     /* Start for M-S-Function: '<S82>/Level-2 M-file S-Function' */
2959:HANcoder_E407_TTA_CombineModel.c **** 
2960:HANcoder_E407_TTA_CombineModel.c ****     /* configure the analog input for filtered inputs */
2961:HANcoder_E407_TTA_CombineModel.c ****     AninConfigure(ANIN_PORTF_PIN7,0);
 6843              		.loc 1 2961 5 view .LVU2418
 6844 0026 2146     		mov	r1, r4
 6845 0028 0420     		movs	r0, #4
 6846 002a FFF7FEFF 		bl	AninConfigure
 6847              	.LVL479:
2962:HANcoder_E407_TTA_CombineModel.c ****     MovingAverage_Start(&rtDWork.MovingAverage_p);
 6848              		.loc 1 2962 5 view .LVU2419
 6849              	.LBB824:
 6850              	.LBI810:
 309:HANcoder_E407_TTA_CombineModel.c **** {
 6851              		.loc 1 309 6 view .LVU2420
 6852              	.LBB821:
 312:HANcoder_E407_TTA_CombineModel.c ****   localDW->obj.NumChannels = -1;
 6853              		.loc 1 312 3 view .LVU2421
 313:HANcoder_E407_TTA_CombineModel.c ****   localDW->obj.FrameLength = -1;
 6854              		.loc 1 313 3 view .LVU2422
 314:HANcoder_E407_TTA_CombineModel.c ****   localDW->obj.matlabCodegenIsDeleted = false;
 6855              		.loc 1 314 3 view .LVU2423
 315:HANcoder_E407_TTA_CombineModel.c ****   localDW->objisempty = true;
 6856              		.loc 1 315 3 view .LVU2424
 316:HANcoder_E407_TTA_CombineModel.c ****   SystemCore_setup(&localDW->obj);
 6857              		.loc 1 316 23 is_stmt 0 view .LVU2425
 6858 002e 0126     		movs	r6, #1
 6859              	.LBB812:
 6860              	.LBB813:
 282:HANcoder_E407_TTA_CombineModel.c ****   obj->isSetupComplete = true;
 6861              		.loc 1 282 19 view .LVU2426
 6862 0030 05F59473 		add	r3, r5, #296
 279:HANcoder_E407_TTA_CombineModel.c ****   obj->_pobj0.isInitialized = 0;
 6863              		.loc 1 279 20 view .LVU2427
 6864 0034 C5E94866 		strd	r6, r6, [r5, #288]
 6865              	.LBE813:
 6866              	.LBE812:
 6867              	.LBE821:
 6868              	.LBE824:
2963:HANcoder_E407_TTA_CombineModel.c **** 
2964:HANcoder_E407_TTA_CombineModel.c ****     /* Start for M-S-Function: '<S83>/Level-2 M-file S-Function' */
2965:HANcoder_E407_TTA_CombineModel.c **** 
2966:HANcoder_E407_TTA_CombineModel.c ****     /* configure the analog input for filtered inputs */
2967:HANcoder_E407_TTA_CombineModel.c ****     AninConfigure(ANIN_PORTF_PIN8,0);
 6869              		.loc 1 2967 5 view .LVU2428
 6870 0038 2146     		mov	r1, r4
 6871 003a 0520     		movs	r0, #5
 6872              	.LBB825:
 6873              	.LBB822:
 6874              	.LBB817:
 6875              	.LBB814:
 282:HANcoder_E407_TTA_CombineModel.c ****   obj->isSetupComplete = true;
 6876              		.loc 1 282 19 view .LVU2429
 6877 003c C5F81C31 		str	r3, [r5, #284]
 6878              	.LBE814:
 6879              	.LBE817:
 316:HANcoder_E407_TTA_CombineModel.c ****   SystemCore_setup(&localDW->obj);
 6880              		.loc 1 316 23 view .LVU2430
 6881 0040 85F86061 		strb	r6, [r5, #352]
 6882              	.LBB818:
 6883              	.LBB815:
 277:HANcoder_E407_TTA_CombineModel.c ****   obj->NumChannels = 1;
 6884              		.loc 1 277 22 view .LVU2431
 6885 0044 C5F8F460 		str	r6, [r5, #244]
 283:HANcoder_E407_TTA_CombineModel.c ****   obj->TunablePropsChanged = false;
 6886              		.loc 1 283 24 view .LVU2432
 6887 0048 A5F8F860 		strh	r6, [r5, #248]	@ movhi
 6888              	.LBE815:
 6889              	.LBE818:
 315:HANcoder_E407_TTA_CombineModel.c ****   localDW->objisempty = true;
 6890              		.loc 1 315 39 view .LVU2433
 6891 004c 85F8F040 		strb	r4, [r5, #240]
 316:HANcoder_E407_TTA_CombineModel.c ****   SystemCore_setup(&localDW->obj);
 6892              		.loc 1 316 3 is_stmt 1 view .LVU2434
 317:HANcoder_E407_TTA_CombineModel.c **** }
 6893              		.loc 1 317 3 view .LVU2435
 6894              	.LVL480:
 6895              	.LBB819:
 6896              	.LBI812:
 274:HANcoder_E407_TTA_CombineModel.c **** {
 6897              		.loc 1 274 13 view .LVU2436
 6898              	.LBB816:
 276:HANcoder_E407_TTA_CombineModel.c ****   obj->isInitialized = 1;
 6899              		.loc 1 276 3 view .LVU2437
 277:HANcoder_E407_TTA_CombineModel.c ****   obj->NumChannels = 1;
 6900              		.loc 1 277 3 view .LVU2438
 278:HANcoder_E407_TTA_CombineModel.c ****   obj->FrameLength = 1;
 6901              		.loc 1 278 3 view .LVU2439
 280:HANcoder_E407_TTA_CombineModel.c ****   obj->_pobj0.isInitialized = 0;
 6902              		.loc 1 280 3 view .LVU2440
 280:HANcoder_E407_TTA_CombineModel.c ****   obj->_pobj0.isInitialized = 0;
 6903              		.loc 1 280 29 is_stmt 0 view .LVU2441
 6904 0050 C5F82841 		str	r4, [r5, #296]
 281:HANcoder_E407_TTA_CombineModel.c ****   obj->pStatistic = &obj->_pobj0;
 6905              		.loc 1 281 3 is_stmt 1 view .LVU2442
 282:HANcoder_E407_TTA_CombineModel.c ****   obj->isSetupComplete = true;
 6906              		.loc 1 282 3 view .LVU2443
 283:HANcoder_E407_TTA_CombineModel.c ****   obj->TunablePropsChanged = false;
 6907              		.loc 1 283 3 view .LVU2444
 284:HANcoder_E407_TTA_CombineModel.c **** }
 6908              		.loc 1 284 3 view .LVU2445
 6909              	.LVL481:
 284:HANcoder_E407_TTA_CombineModel.c **** }
 6910              		.loc 1 284 3 is_stmt 0 view .LVU2446
 6911              	.LBE816:
 6912              	.LBE819:
 6913              	.LBE822:
 6914              	.LBE825:
 6915              		.loc 1 2967 5 is_stmt 1 view .LVU2447
 6916 0054 FFF7FEFF 		bl	AninConfigure
 6917              	.LVL482:
2968:HANcoder_E407_TTA_CombineModel.c ****     MovingAverage_Start(&rtDWork.MovingAverage1);
 6918              		.loc 1 2968 5 view .LVU2448
 6919              	.LBB826:
 6920              	.LBI826:
 309:HANcoder_E407_TTA_CombineModel.c **** {
 6921              		.loc 1 309 6 view .LVU2449
 6922              	.LBB827:
 312:HANcoder_E407_TTA_CombineModel.c ****   localDW->obj.NumChannels = -1;
 6923              		.loc 1 312 3 view .LVU2450
 313:HANcoder_E407_TTA_CombineModel.c ****   localDW->obj.FrameLength = -1;
 6924              		.loc 1 313 3 view .LVU2451
 314:HANcoder_E407_TTA_CombineModel.c ****   localDW->obj.matlabCodegenIsDeleted = false;
 6925              		.loc 1 314 3 view .LVU2452
 315:HANcoder_E407_TTA_CombineModel.c ****   localDW->objisempty = true;
 6926              		.loc 1 315 3 view .LVU2453
 6927              	.LBB828:
 6928              	.LBB829:
 280:HANcoder_E407_TTA_CombineModel.c ****   obj->_pobj0.isInitialized = 0;
 6929              		.loc 1 280 29 is_stmt 0 view .LVU2454
 6930 0058 2B46     		mov	r3, r5
 6931              	.LBE829:
 6932              	.LBE828:
 6933              	.LBE827:
 6934              	.LBE826:
2969:HANcoder_E407_TTA_CombineModel.c **** 
2970:HANcoder_E407_TTA_CombineModel.c ****     /* Start for M-S-Function: '<S81>/Level-2 M-file S-Function' */
2971:HANcoder_E407_TTA_CombineModel.c **** 
2972:HANcoder_E407_TTA_CombineModel.c ****     /* configure the quadrature encoder module */
2973:HANcoder_E407_TTA_CombineModel.c ****     QuadEncConfigure(QUADENC_TIM3_PA6_PB5, QUADENC_CFG_FLOATING);
 6935              		.loc 1 2973 5 view .LVU2455
 6936 005a 3046     		mov	r0, r6
 6937              	.LBB838:
 6938              	.LBB836:
 6939              	.LBB833:
 6940              	.LBB830:
 280:HANcoder_E407_TTA_CombineModel.c ****   obj->_pobj0.isInitialized = 0;
 6941              		.loc 1 280 29 view .LVU2456
 6942 005c 43F8B44F 		str	r4, [r3, #180]!
 279:HANcoder_E407_TTA_CombineModel.c ****   obj->_pobj0.isInitialized = 0;
 6943              		.loc 1 279 20 view .LVU2457
 6944 0060 C5E92B66 		strd	r6, r6, [r5, #172]
 282:HANcoder_E407_TTA_CombineModel.c ****   obj->isSetupComplete = true;
 6945              		.loc 1 282 19 view .LVU2458
 6946 0064 C5F8A830 		str	r3, [r5, #168]
 6947              	.LBE830:
 6948              	.LBE833:
 6949              	.LBE836:
 6950              	.LBE838:
 6951              		.loc 1 2973 5 view .LVU2459
 6952 0068 2146     		mov	r1, r4
 6953              	.LBB839:
 6954              	.LBB837:
 316:HANcoder_E407_TTA_CombineModel.c ****   SystemCore_setup(&localDW->obj);
 6955              		.loc 1 316 23 view .LVU2460
 6956 006a 85F8EC60 		strb	r6, [r5, #236]
 6957              	.LBB834:
 6958              	.LBB831:
 277:HANcoder_E407_TTA_CombineModel.c ****   obj->NumChannels = 1;
 6959              		.loc 1 277 22 view .LVU2461
 6960 006e C5F88060 		str	r6, [r5, #128]
 283:HANcoder_E407_TTA_CombineModel.c ****   obj->TunablePropsChanged = false;
 6961              		.loc 1 283 24 view .LVU2462
 6962 0072 A5F88460 		strh	r6, [r5, #132]	@ movhi
 6963              	.LBE831:
 6964              	.LBE834:
 315:HANcoder_E407_TTA_CombineModel.c ****   localDW->objisempty = true;
 6965              		.loc 1 315 39 view .LVU2463
 6966 0076 85F87C40 		strb	r4, [r5, #124]
 316:HANcoder_E407_TTA_CombineModel.c ****   SystemCore_setup(&localDW->obj);
 6967              		.loc 1 316 3 is_stmt 1 view .LVU2464
 317:HANcoder_E407_TTA_CombineModel.c **** }
 6968              		.loc 1 317 3 view .LVU2465
 6969              	.LVL483:
 6970              	.LBB835:
 6971              	.LBI828:
 274:HANcoder_E407_TTA_CombineModel.c **** {
 6972              		.loc 1 274 13 view .LVU2466
 6973              	.LBB832:
 276:HANcoder_E407_TTA_CombineModel.c ****   obj->isInitialized = 1;
 6974              		.loc 1 276 3 view .LVU2467
 277:HANcoder_E407_TTA_CombineModel.c ****   obj->NumChannels = 1;
 6975              		.loc 1 277 3 view .LVU2468
 278:HANcoder_E407_TTA_CombineModel.c ****   obj->FrameLength = 1;
 6976              		.loc 1 278 3 view .LVU2469
 280:HANcoder_E407_TTA_CombineModel.c ****   obj->_pobj0.isInitialized = 0;
 6977              		.loc 1 280 3 view .LVU2470
 281:HANcoder_E407_TTA_CombineModel.c ****   obj->pStatistic = &obj->_pobj0;
 6978              		.loc 1 281 3 view .LVU2471
 282:HANcoder_E407_TTA_CombineModel.c ****   obj->isSetupComplete = true;
 6979              		.loc 1 282 3 view .LVU2472
 283:HANcoder_E407_TTA_CombineModel.c ****   obj->TunablePropsChanged = false;
 6980              		.loc 1 283 3 view .LVU2473
 284:HANcoder_E407_TTA_CombineModel.c **** }
 6981              		.loc 1 284 3 view .LVU2474
 284:HANcoder_E407_TTA_CombineModel.c **** }
 6982              		.loc 1 284 3 is_stmt 0 view .LVU2475
 6983              	.LBE832:
 6984              	.LBE835:
 6985              	.LBE837:
 6986              	.LBE839:
 6987              		.loc 1 2973 5 is_stmt 1 view .LVU2476
 6988 007a FFF7FEFF 		bl	QuadEncConfigure
 6989              	.LVL484:
2974:HANcoder_E407_TTA_CombineModel.c **** 
2975:HANcoder_E407_TTA_CombineModel.c ****     /* Start for M-S-Function: '<S85>/Level-2 M-file S-Function' */
2976:HANcoder_E407_TTA_CombineModel.c **** 
2977:HANcoder_E407_TTA_CombineModel.c ****     /* configure the digital output */
2978:HANcoder_E407_TTA_CombineModel.c ****     DigoutConfigure(DIGOUT_PORTE_PIN5, DIGOUT_CFG_PUSHPULL);
 6990              		.loc 1 2978 5 view .LVU2477
 6991 007e 3146     		mov	r1, r6
 6992 0080 0A20     		movs	r0, #10
 6993 0082 FFF7FEFF 		bl	DigoutConfigure
 6994              	.LVL485:
2979:HANcoder_E407_TTA_CombineModel.c **** 
2980:HANcoder_E407_TTA_CombineModel.c ****     /* Start for M-S-Function: '<S86>/Level-2 M-file S-Function' */
2981:HANcoder_E407_TTA_CombineModel.c **** 
2982:HANcoder_E407_TTA_CombineModel.c ****     /* configure the digital output */
2983:HANcoder_E407_TTA_CombineModel.c ****     DigoutConfigure(DIGOUT_PORTE_PIN6, DIGOUT_CFG_PUSHPULL);
 6995              		.loc 1 2983 5 view .LVU2478
 6996 0086 3146     		mov	r1, r6
 6997 0088 0B20     		movs	r0, #11
 6998 008a FFF7FEFF 		bl	DigoutConfigure
 6999              	.LVL486:
2984:HANcoder_E407_TTA_CombineModel.c **** 
2985:HANcoder_E407_TTA_CombineModel.c ****     /* Start for M-S-Function: '<S87>/Level-2 M-file S-Function' */
2986:HANcoder_E407_TTA_CombineModel.c **** 
2987:HANcoder_E407_TTA_CombineModel.c ****     /* configure the digital output */
2988:HANcoder_E407_TTA_CombineModel.c ****     DigoutConfigure(DIGOUT_PORTC_PIN13, DIGOUT_CFG_PUSHPULL);
 7000              		.loc 1 2988 5 view .LVU2479
 7001 008e 3146     		mov	r1, r6
 7002 0090 4720     		movs	r0, #71
 7003 0092 FFF7FEFF 		bl	DigoutConfigure
 7004              	.LVL487:
2989:HANcoder_E407_TTA_CombineModel.c **** 
2990:HANcoder_E407_TTA_CombineModel.c ****     /* Start for S-Function (sfcn_pwmout_init): '<S89>/S-Function' */
2991:HANcoder_E407_TTA_CombineModel.c **** 
2992:HANcoder_E407_TTA_CombineModel.c ****     /* initialize the PWM module and register the callback handler */
2993:HANcoder_E407_TTA_CombineModel.c ****     PwmoutInit(PWMOUT_MODULE_TIM14, 10253, PWMOUT_EDGE_ALIGNMENT);
 7005              		.loc 1 2993 5 view .LVU2480
 7006 0096 2246     		mov	r2, r4
 7007 0098 42F60D01 		movw	r1, #10253
 7008 009c 0920     		movs	r0, #9
 7009 009e FFF7FEFF 		bl	PwmoutInit
 7010              	.LVL488:
2994:HANcoder_E407_TTA_CombineModel.c ****     PwmoutRegisterPeriodCompleteCallback(PWMOUT_MODULE_TIM14,
 7011              		.loc 1 2994 5 view .LVU2481
 7012 00a2 4C49     		ldr	r1, .L399+12
2995:HANcoder_E407_TTA_CombineModel.c ****       PwmoutIRQ_PWMOUT_MODULE_TIM14);
2996:HANcoder_E407_TTA_CombineModel.c **** 
2997:HANcoder_E407_TTA_CombineModel.c ****     /* configures channel 1 */
2998:HANcoder_E407_TTA_CombineModel.c ****     PwmoutConfigure(PWMOUT_TIM14_PIN_PF9, PWMOUT_ACTIVE_HIGH,
2999:HANcoder_E407_TTA_CombineModel.c ****                     PWMOUT_INVERTED_OUTPUT_OFF);
3000:HANcoder_E407_TTA_CombineModel.c **** 
3001:HANcoder_E407_TTA_CombineModel.c ****     /* End of Start for SubSystem: '<S1>/IO execution' */
3002:HANcoder_E407_TTA_CombineModel.c **** 
3003:HANcoder_E407_TTA_CombineModel.c ****     /* Start for Enabled SubSystem: '<S1>/Message selector'
3004:HANcoder_E407_TTA_CombineModel.c ****      *
3005:HANcoder_E407_TTA_CombineModel.c ****      * Block description for '<S1>/Message selector':
3006:HANcoder_E407_TTA_CombineModel.c ****      *  Truck 1
3007:HANcoder_E407_TTA_CombineModel.c ****      */
3008:HANcoder_E407_TTA_CombineModel.c ****     /* Start for Enabled SubSystem: '<S13>/MMBS1_RX' */
3009:HANcoder_E407_TTA_CombineModel.c ****     /* Constant: '<S13>/Constant12' */
3010:HANcoder_E407_TTA_CombineModel.c ****     MMBS1_RX_Start(MMBS1_ID);
3011:HANcoder_E407_TTA_CombineModel.c **** 
3012:HANcoder_E407_TTA_CombineModel.c ****     /* End of Start for SubSystem: '<S13>/MMBS1_RX' */
3013:HANcoder_E407_TTA_CombineModel.c **** 
3014:HANcoder_E407_TTA_CombineModel.c ****     /* Start for Enabled SubSystem: '<S13>/SSTM1_RX' */
3015:HANcoder_E407_TTA_CombineModel.c ****     /* Constant: '<S13>/Constant14' */
3016:HANcoder_E407_TTA_CombineModel.c ****     MMBS1_RX_Start(SSTM1_ID);
3017:HANcoder_E407_TTA_CombineModel.c **** 
3018:HANcoder_E407_TTA_CombineModel.c ****     /* End of Start for SubSystem: '<S13>/SSTM1_RX' */
3019:HANcoder_E407_TTA_CombineModel.c **** 
3020:HANcoder_E407_TTA_CombineModel.c ****     /* Start for Enabled SubSystem: '<S13>/SYNC1_RX' */
3021:HANcoder_E407_TTA_CombineModel.c ****     /* Start for M-S-Function: '<S121>/S-Function' incorporates:
3022:HANcoder_E407_TTA_CombineModel.c ****      *  Constant: '<S13>/Constant10'
3023:HANcoder_E407_TTA_CombineModel.c ****      */
3024:HANcoder_E407_TTA_CombineModel.c **** 
3025:HANcoder_E407_TTA_CombineModel.c ****     /* register a CAN storage buffer for the message with this ID */
3026:HANcoder_E407_TTA_CombineModel.c ****     CanIoCreateMessageReceivedStorage(0, SYNC1_ID);
 7013              		.loc 1 3026 5 is_stmt 0 view .LVU2482
 7014 00a4 4C4E     		ldr	r6, .L399+16
2994:HANcoder_E407_TTA_CombineModel.c ****     PwmoutRegisterPeriodCompleteCallback(PWMOUT_MODULE_TIM14,
 7015              		.loc 1 2994 5 view .LVU2483
 7016 00a6 0920     		movs	r0, #9
 7017 00a8 FFF7FEFF 		bl	PwmoutRegisterPeriodCompleteCallback
 7018              	.LVL489:
2998:HANcoder_E407_TTA_CombineModel.c ****                     PWMOUT_INVERTED_OUTPUT_OFF);
 7019              		.loc 1 2998 5 is_stmt 1 view .LVU2484
 7020 00ac 2246     		mov	r2, r4
 7021 00ae 2146     		mov	r1, r4
 7022 00b0 1020     		movs	r0, #16
 7023 00b2 FFF7FEFF 		bl	PwmoutConfigure
 7024              	.LVL490:
3010:HANcoder_E407_TTA_CombineModel.c **** 
 7025              		.loc 1 3010 5 view .LVU2485
 7026              	.LBB840:
 7027              	.LBI840:
 473:HANcoder_E407_TTA_CombineModel.c **** {
 7028              		.loc 1 473 6 view .LVU2486
 7029              	.LBB841:
 478:HANcoder_E407_TTA_CombineModel.c **** }
 7030              		.loc 1 478 3 view .LVU2487
 7031              	.LBE841:
 7032              	.LBE840:
3010:HANcoder_E407_TTA_CombineModel.c **** 
 7033              		.loc 1 3010 5 is_stmt 0 view .LVU2488
 7034 00b6 494B     		ldr	r3, .L399+20
 7035              	.LBB843:
 7036              	.LBB842:
 478:HANcoder_E407_TTA_CombineModel.c **** }
 7037              		.loc 1 478 3 view .LVU2489
 7038 00b8 2046     		mov	r0, r4
 7039 00ba 1968     		ldr	r1, [r3]
 7040 00bc FFF7FEFF 		bl	CanIoCreateMessageReceivedStorage
 7041              	.LVL491:
 478:HANcoder_E407_TTA_CombineModel.c **** }
 7042              		.loc 1 478 3 view .LVU2490
 7043              	.LBE842:
 7044              	.LBE843:
3016:HANcoder_E407_TTA_CombineModel.c **** 
 7045              		.loc 1 3016 5 is_stmt 1 view .LVU2491
 7046              	.LBB844:
 7047              	.LBI844:
 473:HANcoder_E407_TTA_CombineModel.c **** {
 7048              		.loc 1 473 6 view .LVU2492
 7049              	.LBB845:
 478:HANcoder_E407_TTA_CombineModel.c **** }
 7050              		.loc 1 478 3 view .LVU2493
 7051              	.LBE845:
 7052              	.LBE844:
3016:HANcoder_E407_TTA_CombineModel.c **** 
 7053              		.loc 1 3016 5 is_stmt 0 view .LVU2494
 7054 00c0 474B     		ldr	r3, .L399+24
 7055              	.LBB847:
 7056              	.LBB846:
 478:HANcoder_E407_TTA_CombineModel.c **** }
 7057              		.loc 1 478 3 view .LVU2495
 7058 00c2 2046     		mov	r0, r4
 7059 00c4 1968     		ldr	r1, [r3]
 7060 00c6 FFF7FEFF 		bl	CanIoCreateMessageReceivedStorage
 7061              	.LVL492:
 478:HANcoder_E407_TTA_CombineModel.c **** }
 7062              		.loc 1 478 3 view .LVU2496
 7063              	.LBE846:
 7064              	.LBE847:
 7065              		.loc 1 3026 5 is_stmt 1 view .LVU2497
 7066 00ca 3168     		ldr	r1, [r6]
 7067 00cc 2046     		mov	r0, r4
 7068 00ce FFF7FEFF 		bl	CanIoCreateMessageReceivedStorage
 7069              	.LVL493:
3027:HANcoder_E407_TTA_CombineModel.c **** 
3028:HANcoder_E407_TTA_CombineModel.c ****     /* End of Start for SubSystem: '<S13>/SYNC1_RX' */
3029:HANcoder_E407_TTA_CombineModel.c **** 
3030:HANcoder_E407_TTA_CombineModel.c ****     /* Start for Enabled SubSystem: '<S13>/TRCK1_ID2_RX' */
3031:HANcoder_E407_TTA_CombineModel.c ****     /* Start for M-S-Function: '<S127>/S-Function' incorporates:
3032:HANcoder_E407_TTA_CombineModel.c ****      *  Constant: '<S13>/Constant5'
3033:HANcoder_E407_TTA_CombineModel.c ****      */
3034:HANcoder_E407_TTA_CombineModel.c **** 
3035:HANcoder_E407_TTA_CombineModel.c ****     /* register a CAN storage buffer for the message with this ID */
3036:HANcoder_E407_TTA_CombineModel.c ****     CanIoCreateMessageReceivedStorage(0, TRCK1_ID2);
 7070              		.loc 1 3036 5 view .LVU2498
 7071 00d2 444B     		ldr	r3, .L399+28
 7072 00d4 2046     		mov	r0, r4
 7073 00d6 1968     		ldr	r1, [r3]
 7074 00d8 FFF7FEFF 		bl	CanIoCreateMessageReceivedStorage
 7075              	.LVL494:
3037:HANcoder_E407_TTA_CombineModel.c **** 
3038:HANcoder_E407_TTA_CombineModel.c ****     /* End of Start for SubSystem: '<S13>/TRCK1_ID2_RX' */
3039:HANcoder_E407_TTA_CombineModel.c **** 
3040:HANcoder_E407_TTA_CombineModel.c ****     /* Start for Enabled SubSystem: '<S13>/TRCK1_RX' */
3041:HANcoder_E407_TTA_CombineModel.c ****     /* Start for M-S-Function: '<S196>/S-Function' incorporates:
3042:HANcoder_E407_TTA_CombineModel.c ****      *  Constant: '<S13>/Constant3'
3043:HANcoder_E407_TTA_CombineModel.c ****      */
3044:HANcoder_E407_TTA_CombineModel.c **** 
3045:HANcoder_E407_TTA_CombineModel.c ****     /* register a CAN storage buffer for the message with this ID */
3046:HANcoder_E407_TTA_CombineModel.c ****     CanIoCreateMessageReceivedStorage(0, TRCK1_ID1);
 7076              		.loc 1 3046 5 view .LVU2499
 7077 00dc 424B     		ldr	r3, .L399+32
 7078 00de 2046     		mov	r0, r4
 7079 00e0 1968     		ldr	r1, [r3]
 7080 00e2 FFF7FEFF 		bl	CanIoCreateMessageReceivedStorage
 7081              	.LVL495:
3047:HANcoder_E407_TTA_CombineModel.c **** 
3048:HANcoder_E407_TTA_CombineModel.c ****     /* End of Start for SubSystem: '<S13>/TRCK1_RX' */
3049:HANcoder_E407_TTA_CombineModel.c **** 
3050:HANcoder_E407_TTA_CombineModel.c ****     /* Start for Enabled SubSystem: '<S13>/TRCK_ID3_RX' */
3051:HANcoder_E407_TTA_CombineModel.c ****     /* Start for M-S-Function: '<S243>/S-Function' incorporates:
3052:HANcoder_E407_TTA_CombineModel.c ****      *  Constant: '<S13>/Constant26'
3053:HANcoder_E407_TTA_CombineModel.c ****      */
3054:HANcoder_E407_TTA_CombineModel.c **** 
3055:HANcoder_E407_TTA_CombineModel.c ****     /* register a CAN storage buffer for the message with this ID */
3056:HANcoder_E407_TTA_CombineModel.c ****     CanIoCreateMessageReceivedStorage(0, TRCK1_ID3);
 7082              		.loc 1 3056 5 view .LVU2500
 7083 00e6 414B     		ldr	r3, .L399+36
 7084 00e8 2046     		mov	r0, r4
 7085 00ea 1968     		ldr	r1, [r3]
 7086 00ec FFF7FEFF 		bl	CanIoCreateMessageReceivedStorage
 7087              	.LVL496:
3057:HANcoder_E407_TTA_CombineModel.c **** 
3058:HANcoder_E407_TTA_CombineModel.c ****     /* End of Start for SubSystem: '<S13>/TRCK_ID3_RX' */
3059:HANcoder_E407_TTA_CombineModel.c **** 
3060:HANcoder_E407_TTA_CombineModel.c ****     /* Start for Enabled SubSystem: '<S13>/TRLS_ID4_RX' */
3061:HANcoder_E407_TTA_CombineModel.c ****     /* Start for M-S-Function: '<S268>/S-Function' incorporates:
3062:HANcoder_E407_TTA_CombineModel.c ****      *  Constant: '<S13>/Constant8'
3063:HANcoder_E407_TTA_CombineModel.c ****      */
3064:HANcoder_E407_TTA_CombineModel.c **** 
3065:HANcoder_E407_TTA_CombineModel.c ****     /* register a CAN storage buffer for the message with this ID */
3066:HANcoder_E407_TTA_CombineModel.c ****     CanIoCreateMessageReceivedStorage(0, TRLS1_ID4);
 7088              		.loc 1 3066 5 view .LVU2501
 7089 00f0 3F4B     		ldr	r3, .L399+40
 7090 00f2 2046     		mov	r0, r4
 7091 00f4 1968     		ldr	r1, [r3]
 7092 00f6 FFF7FEFF 		bl	CanIoCreateMessageReceivedStorage
 7093              	.LVL497:
3067:HANcoder_E407_TTA_CombineModel.c **** 
3068:HANcoder_E407_TTA_CombineModel.c ****     /* End of Start for SubSystem: '<S13>/TRLS_ID4_RX' */
3069:HANcoder_E407_TTA_CombineModel.c **** 
3070:HANcoder_E407_TTA_CombineModel.c ****     /* Start for Enabled SubSystem: '<S13>/TRLS_ID5_RX' */
3071:HANcoder_E407_TTA_CombineModel.c ****     /* Start for M-S-Function: '<S315>/S-Function' incorporates:
3072:HANcoder_E407_TTA_CombineModel.c ****      *  Constant: '<S13>/Constant18'
3073:HANcoder_E407_TTA_CombineModel.c ****      */
3074:HANcoder_E407_TTA_CombineModel.c **** 
3075:HANcoder_E407_TTA_CombineModel.c ****     /* register a CAN storage buffer for the message with this ID */
3076:HANcoder_E407_TTA_CombineModel.c ****     CanIoCreateMessageReceivedStorage(0, TRLS1_ID5);
 7094              		.loc 1 3076 5 view .LVU2502
 7095 00fa 3E4B     		ldr	r3, .L399+44
 7096 00fc 2046     		mov	r0, r4
 7097 00fe 1968     		ldr	r1, [r3]
 7098 0100 FFF7FEFF 		bl	CanIoCreateMessageReceivedStorage
 7099              	.LVL498:
3077:HANcoder_E407_TTA_CombineModel.c **** 
3078:HANcoder_E407_TTA_CombineModel.c ****     /* End of Start for SubSystem: '<S13>/TRLS_ID5_RX' */
3079:HANcoder_E407_TTA_CombineModel.c ****     /* End of Start for SubSystem: '<S1>/Message selector' */
3080:HANcoder_E407_TTA_CombineModel.c **** 
3081:HANcoder_E407_TTA_CombineModel.c ****     /* Start for Enabled SubSystem: '<S15>/Subsystem2' */
3082:HANcoder_E407_TTA_CombineModel.c ****     /* Start for M-S-Function: '<S362>/S-Function' incorporates:
3083:HANcoder_E407_TTA_CombineModel.c ****      *  Constant: '<S361>/Constant10'
3084:HANcoder_E407_TTA_CombineModel.c ****      */
3085:HANcoder_E407_TTA_CombineModel.c **** 
3086:HANcoder_E407_TTA_CombineModel.c ****     /* register a CAN storage buffer for the message with this ID */
3087:HANcoder_E407_TTA_CombineModel.c ****     CanIoCreateMessageReceivedStorage(0, SYNC1_ID);
 7100              		.loc 1 3087 5 view .LVU2503
 7101 0104 3168     		ldr	r1, [r6]
 7102 0106 2046     		mov	r0, r4
 7103 0108 FFF7FEFF 		bl	CanIoCreateMessageReceivedStorage
 7104              	.LVL499:
3088:HANcoder_E407_TTA_CombineModel.c **** 
3089:HANcoder_E407_TTA_CombineModel.c ****     /* End of Start for SubSystem: '<S15>/Subsystem2' */
3090:HANcoder_E407_TTA_CombineModel.c **** 
3091:HANcoder_E407_TTA_CombineModel.c ****     /* Start for M-S-Function: '<S7>/Level-2 M-file S-Function' */
3092:HANcoder_E407_TTA_CombineModel.c **** 
3093:HANcoder_E407_TTA_CombineModel.c ****     /* configure the digital input */
3094:HANcoder_E407_TTA_CombineModel.c ****     DiginConfigure(DIGIN_PORTG_PIN12, DIGIN_CFG_PULLDOWN);
 7105              		.loc 1 3094 5 view .LVU2504
 7106 010c 0221     		movs	r1, #2
 7107 010e 0E20     		movs	r0, #14
 7108 0110 FFF7FEFF 		bl	DiginConfigure
 7109              	.LVL500:
3095:HANcoder_E407_TTA_CombineModel.c **** 
3096:HANcoder_E407_TTA_CombineModel.c ****     /* Start for M-S-Function: '<S8>/Level-2 M-file S-Function' */
3097:HANcoder_E407_TTA_CombineModel.c **** 
3098:HANcoder_E407_TTA_CombineModel.c ****     /* configure the digital input */
3099:HANcoder_E407_TTA_CombineModel.c ****     DiginConfigure(DIGIN_PORTG_PIN15, DIGIN_CFG_PULLDOWN);
 7110              		.loc 1 3099 5 view .LVU2505
 7111 0114 0221     		movs	r1, #2
 7112 0116 0F20     		movs	r0, #15
 7113 0118 FFF7FEFF 		bl	DiginConfigure
 7114              	.LVL501:
3100:HANcoder_E407_TTA_CombineModel.c **** 
3101:HANcoder_E407_TTA_CombineModel.c ****     /* Start for M-S-Function: '<S9>/Level-2 M-file S-Function' */
3102:HANcoder_E407_TTA_CombineModel.c **** 
3103:HANcoder_E407_TTA_CombineModel.c ****     /* configure the digital input */
3104:HANcoder_E407_TTA_CombineModel.c ****     DiginConfigure(DIGIN_PORTA_PIN4, DIGIN_CFG_PULLDOWN);
 7115              		.loc 1 3104 5 view .LVU2506
 7116 011c 0221     		movs	r1, #2
 7117 011e 1020     		movs	r0, #16
 7118 0120 FFF7FEFF 		bl	DiginConfigure
 7119              	.LVL502:
3105:HANcoder_E407_TTA_CombineModel.c **** 
3106:HANcoder_E407_TTA_CombineModel.c ****     /* Start for M-S-Function: '<S2>/Level-2 M-file S-Function' */
3107:HANcoder_E407_TTA_CombineModel.c **** 
3108:HANcoder_E407_TTA_CombineModel.c ****     /* configure the stack size for the task that executes the model */
3109:HANcoder_E407_TTA_CombineModel.c ****     AppCtrlTaskSetStackSize((configMINIMAL_STACK_SIZE*sizeof(portBASE_TYPE)) +
 7120              		.loc 1 3109 5 view .LVU2507
 7121 0124 4FF41970 		mov	r0, #612
 7122 0128 FFF7FEFF 		bl	AppCtrlTaskSetStackSize
 7123              	.LVL503:
3110:HANcoder_E407_TTA_CombineModel.c ****       100);
3111:HANcoder_E407_TTA_CombineModel.c **** 
3112:HANcoder_E407_TTA_CombineModel.c ****     /* configure the sample time of the model in microseconds */
3113:HANcoder_E407_TTA_CombineModel.c ****     AppCtrlTaskSetPeriod(1000);
 7124              		.loc 1 3113 5 view .LVU2508
 7125 012c 4FF47A70 		mov	r0, #1000
 7126 0130 FFF7FEFF 		bl	AppCtrlTaskSetPeriod
 7127              	.LVL504:
3114:HANcoder_E407_TTA_CombineModel.c **** 
3115:HANcoder_E407_TTA_CombineModel.c ****     /* Run the ADC conversions ten times faster than the Simulink model */
3116:HANcoder_E407_TTA_CombineModel.c ****     ADCconversionTaskSetPeriod(1000/10);
 7128              		.loc 1 3116 5 view .LVU2509
 7129 0134 6420     		movs	r0, #100
 7130 0136 FFF7FEFF 		bl	ADCconversionTaskSetPeriod
 7131              	.LVL505:
3117:HANcoder_E407_TTA_CombineModel.c **** 
3118:HANcoder_E407_TTA_CombineModel.c ****     /* Start for M-S-Function: '<S3>/Level-2 M-file S-Function' */
3119:HANcoder_E407_TTA_CombineModel.c **** 
3120:HANcoder_E407_TTA_CombineModel.c ****     /* store the CAN controller's filter configuration */
3121:HANcoder_E407_TTA_CombineModel.c ****     canFilter1.mask = 0x00000000;
 7132              		.loc 1 3121 5 view .LVU2510
3122:HANcoder_E407_TTA_CombineModel.c ****     canFilter1.code = 0x00000000;
3123:HANcoder_E407_TTA_CombineModel.c ****     canFilter1.mode = CAN_FILTER_MODE_STDID_ONLY;
3124:HANcoder_E407_TTA_CombineModel.c **** 
3125:HANcoder_E407_TTA_CombineModel.c ****     /* connect and synchronize the CAN bus */
3126:HANcoder_E407_TTA_CombineModel.c ****     canResult1 = CanConnect(0, 1000000, &canFilter1);
 7133              		.loc 1 3126 18 is_stmt 0 view .LVU2511
 7134 013a 2349     		ldr	r1, .L399
3123:HANcoder_E407_TTA_CombineModel.c **** 
 7135              		.loc 1 3123 21 view .LVU2512
 7136 013c 8DF80C40 		strb	r4, [sp, #12]
 7137              		.loc 1 3126 18 view .LVU2513
 7138 0140 01AA     		add	r2, sp, #4
 7139 0142 2046     		mov	r0, r4
3122:HANcoder_E407_TTA_CombineModel.c ****     canFilter1.code = 0x00000000;
 7140              		.loc 1 3122 21 view .LVU2514
 7141 0144 CDE90144 		strd	r4, r4, [sp, #4]
3123:HANcoder_E407_TTA_CombineModel.c **** 
 7142              		.loc 1 3123 5 is_stmt 1 view .LVU2515
 7143              		.loc 1 3126 5 view .LVU2516
 7144              		.loc 1 3126 18 is_stmt 0 view .LVU2517
 7145 0148 FFF7FEFF 		bl	CanConnect
 7146              	.LVL506:
3127:HANcoder_E407_TTA_CombineModel.c ****     configASSERT(canResult1 == TRUE);
 7147              		.loc 1 3127 5 is_stmt 1 view .LVU2518
 7148 014c 0128     		cmp	r0, #1
 7149 014e 04D0     		beq	.L392
 7150              		.loc 1 3127 5 discriminator 2 view .LVU2519
 7151 0150 2948     		ldr	r0, .L399+48
 7152              	.LVL507:
 7153              		.loc 1 3127 5 is_stmt 0 discriminator 2 view .LVU2520
 7154 0152 40F63741 		movw	r1, #3127
 7155 0156 FFF7FEFF 		bl	AssertFailure
 7156              	.LVL508:
 7157              	.L392:
3128:HANcoder_E407_TTA_CombineModel.c **** 
3129:HANcoder_E407_TTA_CombineModel.c ****     /* Start for S-Function (sfcn_timeout_init): '<S14>/S-Function' */
3130:HANcoder_E407_TTA_CombineModel.c **** 
3131:HANcoder_E407_TTA_CombineModel.c ****     /* register the free running counter overflow callback handler */
3132:HANcoder_E407_TTA_CombineModel.c ****     TimeoutRegisterOverflowCallback(TIMEOUT_MODULE_TIM4,
 7158              		.loc 1 3132 5 is_stmt 1 view .LVU2521
 7159 015a 2849     		ldr	r1, .L399+52
 7160 015c 0320     		movs	r0, #3
 7161 015e FFF7FEFF 		bl	TimeoutRegisterOverflowCallback
 7162              	.LVL509:
3133:HANcoder_E407_TTA_CombineModel.c ****       TimeoutOverflowIRQ_TIMEOUT_MODULE_TIM4);
3134:HANcoder_E407_TTA_CombineModel.c **** 
3135:HANcoder_E407_TTA_CombineModel.c ****     /* Start for M-S-Function: '<S18>/Level-2 M-file S-Function' */
3136:HANcoder_E407_TTA_CombineModel.c **** 
3137:HANcoder_E407_TTA_CombineModel.c ****     /* initialize the measurement and calibration interface */
3138:HANcoder_E407_TTA_CombineModel.c ****     MacUsbComInit();
 7163              		.loc 1 3138 5 view .LVU2522
 7164 0162 FFF7FEFF 		bl	MacUsbComInit
 7165              	.LVL510:
3139:HANcoder_E407_TTA_CombineModel.c ****     MacInit();
 7166              		.loc 1 3139 5 view .LVU2523
 7167 0166 FFF7FEFF 		bl	MacInit
 7168              	.LVL511:
 7169              	.LBE849:
3140:HANcoder_E407_TTA_CombineModel.c ****   }
3141:HANcoder_E407_TTA_CombineModel.c **** 
3142:HANcoder_E407_TTA_CombineModel.c ****   rtPrevZCSigState.EnabledSubsystem_Trig_ZCE = POS_ZCSIG;
 7170              		.loc 1 3142 3 view .LVU2524
3143:HANcoder_E407_TTA_CombineModel.c ****   rtPrevZCSigState.Controlexecution_Trig_ZCE = POS_ZCSIG;
 7171              		.loc 1 3143 3 view .LVU2525
3144:HANcoder_E407_TTA_CombineModel.c ****   rtPrevZCSigState.IOexecution_Trig_ZCE = POS_ZCSIG;
 7172              		.loc 1 3144 3 view .LVU2526
3145:HANcoder_E407_TTA_CombineModel.c ****   rtPrevZCSigState.Subsystem_Trig_ZCE_h = UNINITIALIZED_ZCSIG;
 7173              		.loc 1 3145 3 view .LVU2527
3146:HANcoder_E407_TTA_CombineModel.c ****   rtPrevZCSigState.SYNC1_TX_Trig_ZCE = POS_ZCSIG;
 7174              		.loc 1 3146 3 view .LVU2528
3147:HANcoder_E407_TTA_CombineModel.c ****   rtPrevZCSigState.TRLS_ID4_TX_Trig_ZCE = POS_ZCSIG;
 7175              		.loc 1 3147 3 view .LVU2529
3148:HANcoder_E407_TTA_CombineModel.c ****   rtPrevZCSigState.TRLS_ID5_TX_Trig_ZCE = POS_ZCSIG;
 7176              		.loc 1 3148 3 view .LVU2530
3149:HANcoder_E407_TTA_CombineModel.c ****   rtPrevZCSigState.Subsystem_Trig_ZCE = POS_ZCSIG;
 7177              		.loc 1 3149 3 view .LVU2531
3150:HANcoder_E407_TTA_CombineModel.c ****   rtPrevZCSigState.Subsystem1_Trig_ZCE = UNINITIALIZED_ZCSIG;
 7178              		.loc 1 3150 3 view .LVU2532
3151:HANcoder_E407_TTA_CombineModel.c ****   rtPrevZCSigState.TRCK1_TX.TRCK1_ID2_TX_Trig_ZCE = POS_ZCSIG;
 7179              		.loc 1 3151 3 view .LVU2533
3152:HANcoder_E407_TTA_CombineModel.c ****   rtPrevZCSigState.TRCK1_ID3_TX.TRCK1_ID2_TX_Trig_ZCE = POS_ZCSIG;
 7180              		.loc 1 3152 3 view .LVU2534
3153:HANcoder_E407_TTA_CombineModel.c ****   rtPrevZCSigState.TRCK1_ID2_TX_f.TRCK1_ID2_TX_Trig_ZCE = POS_ZCSIG;
 7181              		.loc 1 3153 3 view .LVU2535
3154:HANcoder_E407_TTA_CombineModel.c ****   rtPrevZCSigState.SSTM1_TX.MMBS1_TX_Trig_ZCE = POS_ZCSIG;
 7182              		.loc 1 3154 3 view .LVU2536
3155:HANcoder_E407_TTA_CombineModel.c ****   rtPrevZCSigState.MMBS1_TX_a.MMBS1_TX_Trig_ZCE = POS_ZCSIG;
 7183              		.loc 1 3155 3 view .LVU2537
3150:HANcoder_E407_TTA_CombineModel.c ****   rtPrevZCSigState.TRCK1_TX.TRCK1_ID2_TX_Trig_ZCE = POS_ZCSIG;
 7184              		.loc 1 3150 40 is_stmt 0 view .LVU2538
 7185 016a 254B     		ldr	r3, .L399+56
 7186 016c 254A     		ldr	r2, .L399+60
 7187              	.LBB850:
 7188              	.LBB851:
 294:HANcoder_E407_TTA_CombineModel.c ****   if (obj->isInitialized == 1) {
 7189              		.loc 1 294 7 view .LVU2539
 7190 016e D5F81C41 		ldr	r4, [r5, #284]
 7191              	.LBE851:
 7192              	.LBE850:
3145:HANcoder_E407_TTA_CombineModel.c ****   rtPrevZCSigState.SYNC1_TX_Trig_ZCE = POS_ZCSIG;
 7193              		.loc 1 3145 41 view .LVU2540
 7194 0172 9A60     		str	r2, [r3, #8]
3151:HANcoder_E407_TTA_CombineModel.c ****   rtPrevZCSigState.TRCK1_ID3_TX.TRCK1_ID2_TX_Trig_ZCE = POS_ZCSIG;
 7195              		.loc 1 3151 51 view .LVU2541
 7196 0174 4FF00131 		mov	r1, #16843009
 7197 0178 C3E90021 		strd	r2, r1, [r3]
3143:HANcoder_E407_TTA_CombineModel.c ****   rtPrevZCSigState.IOexecution_Trig_ZCE = POS_ZCSIG;
 7198              		.loc 1 3143 46 view .LVU2542
 7199 017c 40F20111 		movw	r1, #257
 7200 0180 9981     		strh	r1, [r3, #12]	@ movhi
3156:HANcoder_E407_TTA_CombineModel.c **** 
3157:HANcoder_E407_TTA_CombineModel.c ****   /* SystemInitialize for Triggered SubSystem: '<S1>/IO execution' */
3158:HANcoder_E407_TTA_CombineModel.c ****   MovingAverage_Init(&rtDWork.MovingAverage_p);
 7201              		.loc 1 3158 3 is_stmt 1 view .LVU2543
 7202              	.LVL512:
 7203              	.LBB853:
 7204              	.LBI850:
 288:HANcoder_E407_TTA_CombineModel.c **** {
 7205              		.loc 1 288 6 view .LVU2544
 7206              	.LBB852:
 290:HANcoder_E407_TTA_CombineModel.c ****   int32_T i;
 7207              		.loc 1 290 3 view .LVU2545
 291:HANcoder_E407_TTA_CombineModel.c **** 
 7208              		.loc 1 291 3 view .LVU2546
 294:HANcoder_E407_TTA_CombineModel.c ****   if (obj->isInitialized == 1) {
 7209              		.loc 1 294 3 view .LVU2547
 295:HANcoder_E407_TTA_CombineModel.c ****     obj->pCumSum = 0.0F;
 7210              		.loc 1 295 3 view .LVU2548
 295:HANcoder_E407_TTA_CombineModel.c ****     obj->pCumSum = 0.0F;
 7211              		.loc 1 295 6 is_stmt 0 view .LVU2549
 7212 0182 2368     		ldr	r3, [r4]
 7213 0184 012B     		cmp	r3, #1
 7214 0186 0BD1     		bne	.L393
 296:HANcoder_E407_TTA_CombineModel.c ****     for (i = 0; i < 9; i++) {
 7215              		.loc 1 296 5 is_stmt 1 view .LVU2550
 296:HANcoder_E407_TTA_CombineModel.c ****     for (i = 0; i < 9; i++) {
 7216              		.loc 1 296 18 is_stmt 0 view .LVU2551
 7217 0188 0026     		movs	r6, #0
 298:HANcoder_E407_TTA_CombineModel.c ****     }
 7218              		.loc 1 298 26 view .LVU2552
 7219 018a 2422     		movs	r2, #36
 296:HANcoder_E407_TTA_CombineModel.c ****     for (i = 0; i < 9; i++) {
 7220              		.loc 1 296 18 view .LVU2553
 7221 018c A660     		str	r6, [r4, #8]	@ float
 297:HANcoder_E407_TTA_CombineModel.c ****       obj->pCumSumRev[i] = 0.0F;
 7222              		.loc 1 297 5 is_stmt 1 view .LVU2554
 7223              	.LVL513:
 297:HANcoder_E407_TTA_CombineModel.c ****       obj->pCumSumRev[i] = 0.0F;
 7224              		.loc 1 297 17 view .LVU2555
 298:HANcoder_E407_TTA_CombineModel.c ****     }
 7225              		.loc 1 298 26 is_stmt 0 view .LVU2556
 7226 018e 0021     		movs	r1, #0
 7227 0190 04F10C00 		add	r0, r4, #12
 7228 0194 FFF7FEFF 		bl	memset
 7229              	.LVL514:
 301:HANcoder_E407_TTA_CombineModel.c ****     obj->pModValueRev = 0.0F;
 7230              		.loc 1 301 5 is_stmt 1 view .LVU2557
 301:HANcoder_E407_TTA_CombineModel.c ****     obj->pModValueRev = 0.0F;
 7231              		.loc 1 301 23 is_stmt 0 view .LVU2558
 7232 0198 4FF07E53 		mov	r3, #1065353216
 7233 019c 2363     		str	r3, [r4, #48]	@ float
 302:HANcoder_E407_TTA_CombineModel.c ****   }
 7234              		.loc 1 302 5 is_stmt 1 view .LVU2559
 302:HANcoder_E407_TTA_CombineModel.c ****   }
 7235              		.loc 1 302 23 is_stmt 0 view .LVU2560
 7236 019e 6663     		str	r6, [r4, #52]	@ float
 7237              	.L393:
 7238              	.LVL515:
 302:HANcoder_E407_TTA_CombineModel.c ****   }
 7239              		.loc 1 302 23 view .LVU2561
 7240              	.LBE852:
 7241              	.LBE853:
3159:HANcoder_E407_TTA_CombineModel.c ****   MovingAverage_Init(&rtDWork.MovingAverage1);
 7242              		.loc 1 3159 3 is_stmt 1 view .LVU2562
 7243              	.LBB854:
 7244              	.LBI854:
 288:HANcoder_E407_TTA_CombineModel.c **** {
 7245              		.loc 1 288 6 view .LVU2563
 7246              	.LBB855:
 290:HANcoder_E407_TTA_CombineModel.c ****   int32_T i;
 7247              		.loc 1 290 3 view .LVU2564
 291:HANcoder_E407_TTA_CombineModel.c **** 
 7248              		.loc 1 291 3 view .LVU2565
 294:HANcoder_E407_TTA_CombineModel.c ****   if (obj->isInitialized == 1) {
 7249              		.loc 1 294 3 view .LVU2566
 294:HANcoder_E407_TTA_CombineModel.c ****   if (obj->isInitialized == 1) {
 7250              		.loc 1 294 7 is_stmt 0 view .LVU2567
 7251 01a0 D5F8A840 		ldr	r4, [r5, #168]
 7252              	.LVL516:
 295:HANcoder_E407_TTA_CombineModel.c ****     obj->pCumSum = 0.0F;
 7253              		.loc 1 295 3 is_stmt 1 view .LVU2568
 295:HANcoder_E407_TTA_CombineModel.c ****     obj->pCumSum = 0.0F;
 7254              		.loc 1 295 6 is_stmt 0 view .LVU2569
 7255 01a4 2368     		ldr	r3, [r4]
 7256 01a6 012B     		cmp	r3, #1
 7257 01a8 0BD1     		bne	.L391
 296:HANcoder_E407_TTA_CombineModel.c ****     for (i = 0; i < 9; i++) {
 7258              		.loc 1 296 5 is_stmt 1 view .LVU2570
 296:HANcoder_E407_TTA_CombineModel.c ****     for (i = 0; i < 9; i++) {
 7259              		.loc 1 296 18 is_stmt 0 view .LVU2571
 7260 01aa 0025     		movs	r5, #0
 298:HANcoder_E407_TTA_CombineModel.c ****     }
 7261              		.loc 1 298 26 view .LVU2572
 7262 01ac 2422     		movs	r2, #36
 296:HANcoder_E407_TTA_CombineModel.c ****     for (i = 0; i < 9; i++) {
 7263              		.loc 1 296 18 view .LVU2573
 7264 01ae A560     		str	r5, [r4, #8]	@ float
 297:HANcoder_E407_TTA_CombineModel.c ****       obj->pCumSumRev[i] = 0.0F;
 7265              		.loc 1 297 5 is_stmt 1 view .LVU2574
 7266              	.LVL517:
 297:HANcoder_E407_TTA_CombineModel.c ****       obj->pCumSumRev[i] = 0.0F;
 7267              		.loc 1 297 17 view .LVU2575
 298:HANcoder_E407_TTA_CombineModel.c ****     }
 7268              		.loc 1 298 26 is_stmt 0 view .LVU2576
 7269 01b0 0021     		movs	r1, #0
 7270 01b2 04F10C00 		add	r0, r4, #12
 7271 01b6 FFF7FEFF 		bl	memset
 7272              	.LVL518:
 301:HANcoder_E407_TTA_CombineModel.c ****     obj->pModValueRev = 0.0F;
 7273              		.loc 1 301 5 is_stmt 1 view .LVU2577
 301:HANcoder_E407_TTA_CombineModel.c ****     obj->pModValueRev = 0.0F;
 7274              		.loc 1 301 23 is_stmt 0 view .LVU2578
 7275 01ba 4FF07E53 		mov	r3, #1065353216
 7276 01be 2363     		str	r3, [r4, #48]	@ float
 302:HANcoder_E407_TTA_CombineModel.c ****   }
 7277              		.loc 1 302 5 is_stmt 1 view .LVU2579
 302:HANcoder_E407_TTA_CombineModel.c ****   }
 7278              		.loc 1 302 23 is_stmt 0 view .LVU2580
 7279 01c0 6563     		str	r5, [r4, #52]	@ float
 7280              	.LVL519:
 7281              	.L391:
 302:HANcoder_E407_TTA_CombineModel.c ****   }
 7282              		.loc 1 302 23 view .LVU2581
 7283              	.LBE855:
 7284              	.LBE854:
3160:HANcoder_E407_TTA_CombineModel.c **** 
3161:HANcoder_E407_TTA_CombineModel.c ****   /* End of SystemInitialize for SubSystem: '<S1>/IO execution' */
3162:HANcoder_E407_TTA_CombineModel.c **** }
 7285              		.loc 1 3162 1 view .LVU2582
 7286 01c2 04B0     		add	sp, sp, #16
 7287              		.cfi_def_cfa_offset 16
 7288              		@ sp needed
 7289 01c4 70BD     		pop	{r4, r5, r6, pc}
 7290              	.L400:
 7291 01c6 00BF     		.align	2
 7292              	.L399:
 7293 01c8 40420F00 		.word	1000000
 7294 01cc 00000000 		.word	.LANCHOR2
 7295 01d0 00000000 		.word	TimeoutEventIRQ_TIMEOUT_TIM4_PIN_PD12
 7296 01d4 00000000 		.word	PwmoutIRQ_PWMOUT_MODULE_TIM14
 7297 01d8 00000000 		.word	.LANCHOR36
 7298 01dc 00000000 		.word	.LANCHOR32
 7299 01e0 00000000 		.word	.LANCHOR33
 7300 01e4 00000000 		.word	.LANCHOR41
 7301 01e8 00000000 		.word	.LANCHOR46
 7302 01ec 00000000 		.word	.LANCHOR42
 7303 01f0 00000000 		.word	.LANCHOR51
 7304 01f4 00000000 		.word	.LANCHOR53
 7305 01f8 00000000 		.word	.LC1
 7306 01fc 00000000 		.word	TimeoutOverflowIRQ_TIMEOUT_MODULE_TIM4
 7307 0200 00000000 		.word	.LANCHOR5
 7308 0204 03010101 		.word	16843011
 7309              		.cfi_endproc
 7310              	.LFE143:
 7312              		.global	rtPrevZCSigState
 7313              		.global	rtDWork
 7314              		.global	rtB
 7315              		.global	slotTime
 7316              		.global	TRLS1_ID5
 7317              		.global	TRLS1_ID4
 7318              		.global	TRCK1_ID3
 7319              		.global	TRCK1_ID2
 7320              		.global	TRCK1_ID1
 7321              		.global	SYNC1_ID
 7322              		.global	SSTM1_ID
 7323              		.global	MMBS1_ID
 7324              		.global	propVal
 7325              		.global	matrixRows
 7326              		.global	intVal
 7327              		.global	desiredAngle
 7328              		.global	controlWidth
 7329              		.global	ClockOn
 7330              		.global	canActive
 7331              		.global	ccw
 7332              		.global	cw
 7333              		.global	boolCan
 7334              		.global	slotSelected
 7335              		.global	setSlotTime
 7336              		.global	local_ticks_interrupt
 7337              		.global	SI_CPUload
 7338              		.global	mospeed
 7339              		.global	Gamma2
 7340              		.global	t1Angle
 7341              		.global	t2Angle
 7342              		.global	pot2
 7343              		.global	analogPot2
 7344              		.global	pot1
 7345              		.global	analogPot1
 7346              		.global	testCounter
 7347              		.global	pot22
 7348              		.global	pot21
 7349              		.global	pot12
 7350              		.global	pot11
 7351              		.global	pot32
 7352              		.global	pot31
 7353              		.global	motorPos
 7354              		.global	delta12K
 7355              		.global	SI_FreeStack
 7356              		.global	SI_FreeHeap
 7357              		.global	control
 7358              		.global	position
 7359              		.global	steering
 7360              		.global	Gamma1
 7361              		.global	reqAngle
 7362              		.section	.bss.Gamma1,"aw",%nobits
 7363              		.align	3
 7364              		.set	.LANCHOR15,. + 0
 7367              	Gamma1:
 7368 0000 00000000 		.space	8
 7368      00000000 
 7369              		.section	.bss.Gamma2,"aw",%nobits
 7370              		.align	1
 7371              		.set	.LANCHOR14,. + 0
 7374              	Gamma2:
 7375 0000 0000     		.space	2
 7376              		.section	.bss.SI_CPUload,"aw",%nobits
 7377              		.set	.LANCHOR55,. + 0
 7380              	SI_CPUload:
 7381 0000 00       		.space	1
 7382              		.section	.bss.SI_FreeHeap,"aw",%nobits
 7383              		.align	2
 7384              		.set	.LANCHOR56,. + 0
 7387              	SI_FreeHeap:
 7388 0000 00000000 		.space	4
 7389              		.section	.bss.SI_FreeStack,"aw",%nobits
 7390              		.align	2
 7391              		.set	.LANCHOR57,. + 0
 7394              	SI_FreeStack:
 7395 0000 00000000 		.space	4
 7396              		.section	.bss.analogPot1,"aw",%nobits
 7397              		.align	1
 7398              		.set	.LANCHOR26,. + 0
 7401              	analogPot1:
 7402 0000 0000     		.space	2
 7403              		.section	.bss.analogPot2,"aw",%nobits
 7404              		.align	1
 7405              		.set	.LANCHOR28,. + 0
 7408              	analogPot2:
 7409 0000 0000     		.space	2
 7410              		.section	.bss.boolCan,"aw",%nobits
 7411              		.set	.LANCHOR37,. + 0
 7414              	boolCan:
 7415 0000 00       		.space	1
 7416              		.section	.bss.canActive,"aw",%nobits
 7417              		.set	.LANCHOR1,. + 0
 7420              	canActive:
 7421 0000 00       		.space	1
 7422              		.section	.bss.canRxData_0_SYNC1_ID,"aw",%nobits
 7423              		.align	2
 7424              		.set	.LANCHOR34,. + 0
 7427              	canRxData_0_SYNC1_ID:
 7428 0000 00000000 		.space	8
 7428      00000000 
 7429              		.section	.bss.canRxData_0_TRCK1_ID1,"aw",%nobits
 7430              		.align	2
 7431              		.set	.LANCHOR43,. + 0
 7434              	canRxData_0_TRCK1_ID1:
 7435 0000 00000000 		.space	8
 7435      00000000 
 7436              		.section	.bss.canRxData_0_TRCK1_ID2,"aw",%nobits
 7437              		.align	2
 7438              		.set	.LANCHOR38,. + 0
 7441              	canRxData_0_TRCK1_ID2:
 7442 0000 00000000 		.space	8
 7442      00000000 
 7443              		.section	.bss.canRxData_0_TRCK1_ID3,"aw",%nobits
 7444              		.align	2
 7445              		.set	.LANCHOR47,. + 0
 7448              	canRxData_0_TRCK1_ID3:
 7449 0000 00000000 		.space	8
 7449      00000000 
 7450              		.section	.bss.canRxData_0_TRLS1_ID4,"aw",%nobits
 7451              		.align	2
 7452              		.set	.LANCHOR50,. + 0
 7455              	canRxData_0_TRLS1_ID4:
 7456 0000 00000000 		.space	8
 7456      00000000 
 7457              		.section	.bss.canRxData_0_TRLS1_ID5,"aw",%nobits
 7458              		.align	2
 7459              		.set	.LANCHOR52,. + 0
 7462              	canRxData_0_TRLS1_ID5:
 7463 0000 00000000 		.space	8
 7463      00000000 
 7464              		.section	.bss.canRxData_0_rtu_In1,"aw",%nobits
 7465              		.align	2
 7466              		.set	.LANCHOR8,. + 0
 7469              	canRxData_0_rtu_In1:
 7470 0000 00000000 		.space	8
 7470      00000000 
 7471              		.section	.bss.canTxData,"aw",%nobits
 7472              		.align	2
 7473              		.set	.LANCHOR9,. + 0
 7476              	canTxData:
 7477 0000 00000000 		.space	8
 7477      00000000 
 7478              		.section	.bss.ccw,"aw",%nobits
 7479              		.set	.LANCHOR24,. + 0
 7482              	ccw:
 7483 0000 00       		.space	1
 7484              		.section	.bss.control,"aw",%nobits
 7485              		.align	3
 7486              		.set	.LANCHOR19,. + 0
 7489              	control:
 7490 0000 00000000 		.space	8
 7490      00000000 
 7491              		.section	.bss.cw,"aw",%nobits
 7492              		.set	.LANCHOR23,. + 0
 7495              	cw:
 7496 0000 00       		.space	1
 7497              		.section	.bss.delta12K,"aw",%nobits
 7498              		.align	2
 7499              		.set	.LANCHOR16,. + 0
 7502              	delta12K:
 7503 0000 00000000 		.space	4
 7504              		.section	.bss.local_ticks_interrupt,"aw",%nobits
 7505              		.set	.LANCHOR3,. + 0
 7508              	local_ticks_interrupt:
 7509 0000 00       		.space	1
 7510              		.section	.bss.mospeed,"aw",%nobits
 7511              		.align	1
 7512              		.set	.LANCHOR21,. + 0
 7515              	mospeed:
 7516 0000 0000     		.space	2
 7517              		.section	.bss.motorPos,"aw",%nobits
 7518              		.align	2
 7519              		.set	.LANCHOR31,. + 0
 7522              	motorPos:
 7523 0000 00000000 		.space	4
 7524              		.section	.bss.position,"aw",%nobits
 7525              		.align	3
 7526              		.set	.LANCHOR18,. + 0
 7529              	position:
 7530 0000 00000000 		.space	8
 7530      00000000 
 7531              		.section	.bss.pot1,"aw",%nobits
 7532              		.align	1
 7533              		.set	.LANCHOR27,. + 0
 7536              	pot1:
 7537 0000 0000     		.space	2
 7538              		.section	.bss.pot11,"aw",%nobits
 7539              		.align	1
 7540              		.set	.LANCHOR44,. + 0
 7543              	pot11:
 7544 0000 0000     		.space	2
 7545              		.section	.bss.pot12,"aw",%nobits
 7546              		.align	1
 7547              		.set	.LANCHOR45,. + 0
 7550              	pot12:
 7551 0000 0000     		.space	2
 7552              		.section	.bss.pot2,"aw",%nobits
 7553              		.align	1
 7554              		.set	.LANCHOR29,. + 0
 7557              	pot2:
 7558 0000 0000     		.space	2
 7559              		.section	.bss.pot21,"aw",%nobits
 7560              		.align	1
 7561              		.set	.LANCHOR39,. + 0
 7564              	pot21:
 7565 0000 0000     		.space	2
 7566              		.section	.bss.pot22,"aw",%nobits
 7567              		.align	1
 7568              		.set	.LANCHOR40,. + 0
 7571              	pot22:
 7572 0000 0000     		.space	2
 7573              		.section	.bss.pot31,"aw",%nobits
 7574              		.align	1
 7575              		.set	.LANCHOR48,. + 0
 7578              	pot31:
 7579 0000 0000     		.space	2
 7580              		.section	.bss.pot32,"aw",%nobits
 7581              		.align	1
 7582              		.set	.LANCHOR49,. + 0
 7585              	pot32:
 7586 0000 0000     		.space	2
 7587              		.section	.bss.reqAngle,"aw",%nobits
 7588              		.align	3
 7589              		.set	.LANCHOR11,. + 0
 7592              	reqAngle:
 7593 0000 00000000 		.space	8
 7593      00000000 
 7594              		.section	.bss.rtB,"aw",%nobits
 7595              		.align	2
 7596              		.set	.LANCHOR0,. + 0
 7599              	rtB:
 7600 0000 00000000 		.space	216
 7600      00000000 
 7600      00000000 
 7600      00000000 
 7600      00000000 
 7601              		.section	.bss.rtDWork,"aw",%nobits
 7602              		.align	3
 7603              		.set	.LANCHOR2,. + 0
 7606              	rtDWork:
 7607 0000 00000000 		.space	360
 7607      00000000 
 7607      00000000 
 7607      00000000 
 7607      00000000 
 7608              		.section	.bss.rtPrevZCSigState,"aw",%nobits
 7609              		.align	2
 7610              		.set	.LANCHOR5,. + 0
 7613              	rtPrevZCSigState:
 7614 0000 00000000 		.space	14
 7614      00000000 
 7614      00000000 
 7614      0000
 7615              		.section	.bss.setSlotTime,"aw",%nobits
 7616              		.set	.LANCHOR4,. + 0
 7619              	setSlotTime:
 7620 0000 00       		.space	1
 7621              		.section	.bss.slotSelected,"aw",%nobits
 7622              		.set	.LANCHOR7,. + 0
 7625              	slotSelected:
 7626 0000 00       		.space	1
 7627              		.section	.bss.steering,"aw",%nobits
 7628              		.align	3
 7629              		.set	.LANCHOR17,. + 0
 7632              	steering:
 7633 0000 00000000 		.space	8
 7633      00000000 
 7634              		.section	.bss.t1Angle,"aw",%nobits
 7635              		.align	1
 7636              		.set	.LANCHOR13,. + 0
 7639              	t1Angle:
 7640 0000 0000     		.space	2
 7641              		.section	.bss.t2Angle,"aw",%nobits
 7642              		.align	1
 7643              		.set	.LANCHOR12,. + 0
 7646              	t2Angle:
 7647 0000 0000     		.space	2
 7648              		.section	.bss.testCounter,"aw",%nobits
 7649              		.align	1
 7650              		.set	.LANCHOR35,. + 0
 7653              	testCounter:
 7654 0000 0000     		.space	2
 7655              		.section	.data.ClockOn,"aw"
 7656              		.align	3
 7657              		.set	.LANCHOR10,. + 0
 7660              	ClockOn:
 7661 0000 00000000 		.space	8
 7661      00000000 
 7662              		.section	.data.MMBS1_ID,"aw"
 7663              		.align	2
 7664              		.set	.LANCHOR32,. + 0
 7667              	MMBS1_ID:
 7668 0000 0C000000 		.word	12
 7669              		.section	.data.SSTM1_ID,"aw"
 7670              		.align	2
 7671              		.set	.LANCHOR33,. + 0
 7674              	SSTM1_ID:
 7675 0000 0D000000 		.word	13
 7676              		.section	.data.SYNC1_ID,"aw"
 7677              		.align	2
 7678              		.set	.LANCHOR36,. + 0
 7681              	SYNC1_ID:
 7682 0000 0B000000 		.word	11
 7683              		.section	.data.TRCK1_ID1,"aw"
 7684              		.align	2
 7685              		.set	.LANCHOR46,. + 0
 7688              	TRCK1_ID1:
 7689 0000 0E000000 		.word	14
 7690              		.section	.data.TRCK1_ID2,"aw"
 7691              		.align	2
 7692              		.set	.LANCHOR41,. + 0
 7695              	TRCK1_ID2:
 7696 0000 1A000000 		.word	26
 7697              		.section	.data.TRCK1_ID3,"aw"
 7698              		.align	2
 7699              		.set	.LANCHOR42,. + 0
 7702              	TRCK1_ID3:
 7703 0000 25000000 		.word	37
 7704              		.section	.data.TRLS1_ID4,"aw"
 7705              		.align	2
 7706              		.set	.LANCHOR51,. + 0
 7709              	TRLS1_ID4:
 7710 0000 30000000 		.word	48
 7711              		.section	.data.TRLS1_ID5,"aw"
 7712              		.align	2
 7713              		.set	.LANCHOR53,. + 0
 7716              	TRLS1_ID5:
 7717 0000 3B000000 		.word	59
 7718              		.section	.data.controlWidth,"aw"
 7719              		.align	3
 7720              		.set	.LANCHOR22,. + 0
 7723              	controlWidth:
 7724 0000 00000000 		.word	0
 7725 0004 00000840 		.word	1074266112
 7726              		.section	.data.desiredAngle,"aw"
 7727              		.align	3
 7728              		.set	.LANCHOR30,. + 0
 7731              	desiredAngle:
 7732 0000 00000000 		.space	8
 7732      00000000 
 7733              		.section	.data.intVal,"aw"
 7734              		.align	3
 7735              		.set	.LANCHOR25,. + 0
 7738              	intVal:
 7739 0000 00000040 		.word	1073741824
 7740 0004 3333C33F 		.word	1069757235
 7741              		.section	.data.matrixRows,"aw"
 7742              		.align	3
 7743              		.set	.LANCHOR6,. + 0
 7746              	matrixRows:
 7747 0000 00000000 		.word	0
 7748 0004 00002440 		.word	1076101120
 7749              		.section	.data.propVal,"aw"
 7750              		.align	3
 7751              		.set	.LANCHOR20,. + 0
 7754              	propVal:
 7755 0000 00000000 		.word	0
 7756 0004 0000F03F 		.word	1072693248
 7757              		.section	.data.slotTime,"aw"
 7758              		.set	.LANCHOR54,. + 0
 7761              	slotTime:
 7762 0000 32       		.byte	50
 7763              		.text
 7764              	.Letext0:
 7765              		.file 2 "rtwtypes.h"
 7766              		.file 3 "c:\\program files (x86)\\gnu arm embedded toolchain\\10 2021.10\\arm-none-eabi\\include\\
 7767              		.file 4 "c:\\program files (x86)\\gnu arm embedded toolchain\\10 2021.10\\arm-none-eabi\\include\\
 7768              		.file 5 "../blockset/rtw/STM32/inc/STM32_E407/timeout.h"
 7769              		.file 6 "../blockset/rtw/STM32/inc/STM32_E407/quadencoder.h"
 7770              		.file 7 "../blockset/rtw/STM32/inc/STM32_E407/digout.h"
 7771              		.file 8 "../blockset/rtw/STM32/inc/STM32_E407/pwmout.h"
 7772              		.file 9 "../blockset/rtw/STM32/inc/STM32_E407/can.h"
 7773              		.file 10 "../blockset/rtw/STM32/inc/STM32_E407/digin.h"
 7774              		.file 11 "c:\\program files (x86)\\gnu arm embedded toolchain\\10 2021.10\\lib\\gcc\\arm-none-eabi
 7775              		.file 12 "HANcoder_E407_TTA_CombineModel_types.h"
 7776              		.file 13 "zero_crossing_types.h"
 7777              		.file 14 "HANcoder_E407_TTA_CombineModel.h"
 7778              		.file 15 "../blockset/rtw/STM32/inc/STM32_E407/canio.h"
 7779              		.file 16 "../blockset/rtw/STM32/inc/STM32_E407/anin.h"
 7780              		.file 17 "../blockset/rtw/STM32/inc/app.h"
 7781              		.file 18 "../blockset/rtw/STM32/inc/STM32_E407/FreeRTOSConfig.h"
 7782              		.file 19 "../blockset/rtw/STM32/inc/STM32_E407/mac.h"
 7783              		.file 20 "c:\\program files (x86)\\gnu arm embedded toolchain\\10 2021.10\\arm-none-eabi\\include\
 7784              		.file 21 "<built-in>"
 7785              		.file 22 "../blockset/rtw/STM32/inc/os.h"
 7786              		.file 23 "rt_i32zcfcn.h"
DEFINED SYMBOLS
                            *ABS*:00000000 HANcoder_E407_TTA_CombineModel.c
C:\Users\ADMIN~1.CVA\AppData\Local\Temp\ccsCJARq.s:19     .text.PwmoutIRQ_PWMOUT_MODULE_TIM14:00000000 $t
C:\Users\ADMIN~1.CVA\AppData\Local\Temp\ccsCJARq.s:26     .text.PwmoutIRQ_PWMOUT_MODULE_TIM14:00000000 PwmoutIRQ_PWMOUT_MODULE_TIM14
C:\Users\ADMIN~1.CVA\AppData\Local\Temp\ccsCJARq.s:41     .text.TimeoutEventIRQ_TIMEOUT_TIM4_PIN_PD12:00000000 $t
C:\Users\ADMIN~1.CVA\AppData\Local\Temp\ccsCJARq.s:48     .text.TimeoutEventIRQ_TIMEOUT_TIM4_PIN_PD12:00000000 TimeoutEventIRQ_TIMEOUT_TIM4_PIN_PD12
C:\Users\ADMIN~1.CVA\AppData\Local\Temp\ccsCJARq.s:195    .text.TimeoutEventIRQ_TIMEOUT_TIM4_PIN_PD12:00000090 $d
C:\Users\ADMIN~1.CVA\AppData\Local\Temp\ccsCJARq.s:208    .text.TimeoutOverflowIRQ_TIMEOUT_MODULE_TIM4:00000000 $t
C:\Users\ADMIN~1.CVA\AppData\Local\Temp\ccsCJARq.s:215    .text.TimeoutOverflowIRQ_TIMEOUT_MODULE_TIM4:00000000 TimeoutOverflowIRQ_TIMEOUT_MODULE_TIM4
C:\Users\ADMIN~1.CVA\AppData\Local\Temp\ccsCJARq.s:226    .text.ByteSwap_x:00000000 $t
C:\Users\ADMIN~1.CVA\AppData\Local\Temp\ccsCJARq.s:233    .text.ByteSwap_x:00000000 ByteSwap_x
C:\Users\ADMIN~1.CVA\AppData\Local\Temp\ccsCJARq.s:311    .text.MovingAverage_Init:00000000 $t
C:\Users\ADMIN~1.CVA\AppData\Local\Temp\ccsCJARq.s:318    .text.MovingAverage_Init:00000000 MovingAverage_Init
C:\Users\ADMIN~1.CVA\AppData\Local\Temp\ccsCJARq.s:378    .text.MovingAverage_Start:00000000 $t
C:\Users\ADMIN~1.CVA\AppData\Local\Temp\ccsCJARq.s:385    .text.MovingAverage_Start:00000000 MovingAverage_Start
C:\Users\ADMIN~1.CVA\AppData\Local\Temp\ccsCJARq.s:450    .text.MovingAverage:00000000 $t
C:\Users\ADMIN~1.CVA\AppData\Local\Temp\ccsCJARq.s:457    .text.MovingAverage:00000000 MovingAverage
C:\Users\ADMIN~1.CVA\AppData\Local\Temp\ccsCJARq.s:790    .text.MovingAverage:000001b8 $d
C:\Users\ADMIN~1.CVA\AppData\Local\Temp\ccsCJARq.s:795    .text.EnabledSubsystem:00000000 $t
C:\Users\ADMIN~1.CVA\AppData\Local\Temp\ccsCJARq.s:802    .text.EnabledSubsystem:00000000 EnabledSubsystem
C:\Users\ADMIN~1.CVA\AppData\Local\Temp\ccsCJARq.s:854    .text.MMBS1_RX_Disable:00000000 $t
C:\Users\ADMIN~1.CVA\AppData\Local\Temp\ccsCJARq.s:861    .text.MMBS1_RX_Disable:00000000 MMBS1_RX_Disable
C:\Users\ADMIN~1.CVA\AppData\Local\Temp\ccsCJARq.s:879    .text.MMBS1_RX_Start:00000000 $t
C:\Users\ADMIN~1.CVA\AppData\Local\Temp\ccsCJARq.s:886    .text.MMBS1_RX_Start:00000000 MMBS1_RX_Start
C:\Users\ADMIN~1.CVA\AppData\Local\Temp\ccsCJARq.s:908    .text.MMBS1_RX:00000000 $t
C:\Users\ADMIN~1.CVA\AppData\Local\Temp\ccsCJARq.s:915    .text.MMBS1_RX:00000000 MMBS1_RX
C:\Users\ADMIN~1.CVA\AppData\Local\Temp\ccsCJARq.s:1063   .text.MMBS1_RX:00000040 $d
C:\Users\ADMIN~1.CVA\AppData\Local\Temp\ccsCJARq.s:1068   .text.MMBS1_TX:00000000 $t
C:\Users\ADMIN~1.CVA\AppData\Local\Temp\ccsCJARq.s:1075   .text.MMBS1_TX:00000000 MMBS1_TX
C:\Users\ADMIN~1.CVA\AppData\Local\Temp\ccsCJARq.s:1129   .text.MMBS1_TX:00000024 $d
C:\Users\ADMIN~1.CVA\AppData\Local\Temp\ccsCJARq.s:1134   .text.BitShift:00000000 $t
C:\Users\ADMIN~1.CVA\AppData\Local\Temp\ccsCJARq.s:1141   .text.BitShift:00000000 BitShift
C:\Users\ADMIN~1.CVA\AppData\Local\Temp\ccsCJARq.s:1161   .text.BitShift_g:00000000 $t
C:\Users\ADMIN~1.CVA\AppData\Local\Temp\ccsCJARq.s:1168   .text.BitShift_g:00000000 BitShift_g
C:\Users\ADMIN~1.CVA\AppData\Local\Temp\ccsCJARq.s:1188   .text.BitShift1:00000000 $t
C:\Users\ADMIN~1.CVA\AppData\Local\Temp\ccsCJARq.s:1195   .text.BitShift1:00000000 BitShift1
C:\Users\ADMIN~1.CVA\AppData\Local\Temp\ccsCJARq.s:1215   .text.BitShift2:00000000 $t
C:\Users\ADMIN~1.CVA\AppData\Local\Temp\ccsCJARq.s:1222   .text.BitShift2:00000000 BitShift2
C:\Users\ADMIN~1.CVA\AppData\Local\Temp\ccsCJARq.s:1242   .text.BitShift3:00000000 $t
C:\Users\ADMIN~1.CVA\AppData\Local\Temp\ccsCJARq.s:1249   .text.BitShift3:00000000 BitShift3
C:\Users\ADMIN~1.CVA\AppData\Local\Temp\ccsCJARq.s:1269   .text.BitShift4:00000000 $t
C:\Users\ADMIN~1.CVA\AppData\Local\Temp\ccsCJARq.s:1276   .text.BitShift4:00000000 BitShift4
C:\Users\ADMIN~1.CVA\AppData\Local\Temp\ccsCJARq.s:1296   .text.BitShift5:00000000 $t
C:\Users\ADMIN~1.CVA\AppData\Local\Temp\ccsCJARq.s:1303   .text.BitShift5:00000000 BitShift5
C:\Users\ADMIN~1.CVA\AppData\Local\Temp\ccsCJARq.s:1323   .text.BitShift6:00000000 $t
C:\Users\ADMIN~1.CVA\AppData\Local\Temp\ccsCJARq.s:1330   .text.BitShift6:00000000 BitShift6
C:\Users\ADMIN~1.CVA\AppData\Local\Temp\ccsCJARq.s:1350   .text.BitShift_gy:00000000 $t
C:\Users\ADMIN~1.CVA\AppData\Local\Temp\ccsCJARq.s:1357   .text.BitShift_gy:00000000 BitShift_gy
C:\Users\ADMIN~1.CVA\AppData\Local\Temp\ccsCJARq.s:1377   .text.BitShift1_b:00000000 $t
C:\Users\ADMIN~1.CVA\AppData\Local\Temp\ccsCJARq.s:1384   .text.BitShift1_b:00000000 BitShift1_b
C:\Users\ADMIN~1.CVA\AppData\Local\Temp\ccsCJARq.s:1404   .text.BitShift2_p:00000000 $t
C:\Users\ADMIN~1.CVA\AppData\Local\Temp\ccsCJARq.s:1411   .text.BitShift2_p:00000000 BitShift2_p
C:\Users\ADMIN~1.CVA\AppData\Local\Temp\ccsCJARq.s:1431   .text.BitShift3_l:00000000 $t
C:\Users\ADMIN~1.CVA\AppData\Local\Temp\ccsCJARq.s:1438   .text.BitShift3_l:00000000 BitShift3_l
C:\Users\ADMIN~1.CVA\AppData\Local\Temp\ccsCJARq.s:1458   .text.BitShift4_g:00000000 $t
C:\Users\ADMIN~1.CVA\AppData\Local\Temp\ccsCJARq.s:1465   .text.BitShift4_g:00000000 BitShift4_g
C:\Users\ADMIN~1.CVA\AppData\Local\Temp\ccsCJARq.s:1485   .text.BitShift5_n:00000000 $t
C:\Users\ADMIN~1.CVA\AppData\Local\Temp\ccsCJARq.s:1492   .text.BitShift5_n:00000000 BitShift5_n
C:\Users\ADMIN~1.CVA\AppData\Local\Temp\ccsCJARq.s:1512   .text.BitShift6_d:00000000 $t
C:\Users\ADMIN~1.CVA\AppData\Local\Temp\ccsCJARq.s:1519   .text.BitShift6_d:00000000 BitShift6_d
C:\Users\ADMIN~1.CVA\AppData\Local\Temp\ccsCJARq.s:1539   .text.BitShift_o:00000000 $t
C:\Users\ADMIN~1.CVA\AppData\Local\Temp\ccsCJARq.s:1546   .text.BitShift_o:00000000 BitShift_o
C:\Users\ADMIN~1.CVA\AppData\Local\Temp\ccsCJARq.s:1566   .text.TRCK1_ID2_TX:00000000 $t
C:\Users\ADMIN~1.CVA\AppData\Local\Temp\ccsCJARq.s:1573   .text.TRCK1_ID2_TX:00000000 TRCK1_ID2_TX
C:\Users\ADMIN~1.CVA\AppData\Local\Temp\ccsCJARq.s:1880   .text.TRCK1_ID2_TX:000000ec $d
C:\Users\ADMIN~1.CVA\AppData\Local\Temp\ccsCJARq.s:1898   .rodata.HANcoder_E407_TTA_CombineModel_step.str1.4:00000000 $d
C:\Users\ADMIN~1.CVA\AppData\Local\Temp\ccsCJARq.s:1902   .text.HANcoder_E407_TTA_CombineModel_step:00000000 $t
C:\Users\ADMIN~1.CVA\AppData\Local\Temp\ccsCJARq.s:1909   .text.HANcoder_E407_TTA_CombineModel_step:00000000 HANcoder_E407_TTA_CombineModel_step
C:\Users\ADMIN~1.CVA\AppData\Local\Temp\ccsCJARq.s:2580   .text.HANcoder_E407_TTA_CombineModel_step:00000348 $d
C:\Users\ADMIN~1.CVA\AppData\Local\Temp\ccsCJARq.s:2609   .text.HANcoder_E407_TTA_CombineModel_step:000003b0 $t
C:\Users\ADMIN~1.CVA\AppData\Local\Temp\ccsCJARq.s:3149   .text.HANcoder_E407_TTA_CombineModel_step:000006b8 $d
C:\Users\ADMIN~1.CVA\AppData\Local\Temp\ccsCJARq.s:3177   .text.HANcoder_E407_TTA_CombineModel_step:00000714 $t
C:\Users\ADMIN~1.CVA\AppData\Local\Temp\ccsCJARq.s:4133   .text.HANcoder_E407_TTA_CombineModel_step:00000a98 $d
C:\Users\ADMIN~1.CVA\AppData\Local\Temp\ccsCJARq.s:4160   .text.HANcoder_E407_TTA_CombineModel_step:00000af4 $t
C:\Users\ADMIN~1.CVA\AppData\Local\Temp\ccsCJARq.s:4928   .text.HANcoder_E407_TTA_CombineModel_step:00000d84 $d
C:\Users\ADMIN~1.CVA\AppData\Local\Temp\ccsCJARq.s:4950   .text.HANcoder_E407_TTA_CombineModel_step:00000dd0 $t
C:\Users\ADMIN~1.CVA\AppData\Local\Temp\ccsCJARq.s:6320   .text.HANcoder_E407_TTA_CombineModel_step:00001120 $d
C:\Users\ADMIN~1.CVA\AppData\Local\Temp\ccsCJARq.s:6336   .text.HANcoder_E407_TTA_CombineModel_step:00001150 $t
C:\Users\ADMIN~1.CVA\AppData\Local\Temp\ccsCJARq.s:6761   .text.HANcoder_E407_TTA_CombineModel_step:00001360 $d
C:\Users\ADMIN~1.CVA\AppData\Local\Temp\ccsCJARq.s:6774   .rodata.HANcoder_E407_TTA_CombineModel_initialize.str1.4:00000000 $d
C:\Users\ADMIN~1.CVA\AppData\Local\Temp\ccsCJARq.s:6778   .text.HANcoder_E407_TTA_CombineModel_initialize:00000000 $t
C:\Users\ADMIN~1.CVA\AppData\Local\Temp\ccsCJARq.s:6785   .text.HANcoder_E407_TTA_CombineModel_initialize:00000000 HANcoder_E407_TTA_CombineModel_initialize
C:\Users\ADMIN~1.CVA\AppData\Local\Temp\ccsCJARq.s:7293   .text.HANcoder_E407_TTA_CombineModel_initialize:000001c8 $d
C:\Users\ADMIN~1.CVA\AppData\Local\Temp\ccsCJARq.s:7613   .bss.rtPrevZCSigState:00000000 rtPrevZCSigState
C:\Users\ADMIN~1.CVA\AppData\Local\Temp\ccsCJARq.s:7606   .bss.rtDWork:00000000 rtDWork
C:\Users\ADMIN~1.CVA\AppData\Local\Temp\ccsCJARq.s:7599   .bss.rtB:00000000 rtB
C:\Users\ADMIN~1.CVA\AppData\Local\Temp\ccsCJARq.s:7761   .data.slotTime:00000000 slotTime
C:\Users\ADMIN~1.CVA\AppData\Local\Temp\ccsCJARq.s:7716   .data.TRLS1_ID5:00000000 TRLS1_ID5
C:\Users\ADMIN~1.CVA\AppData\Local\Temp\ccsCJARq.s:7709   .data.TRLS1_ID4:00000000 TRLS1_ID4
C:\Users\ADMIN~1.CVA\AppData\Local\Temp\ccsCJARq.s:7702   .data.TRCK1_ID3:00000000 TRCK1_ID3
C:\Users\ADMIN~1.CVA\AppData\Local\Temp\ccsCJARq.s:7695   .data.TRCK1_ID2:00000000 TRCK1_ID2
C:\Users\ADMIN~1.CVA\AppData\Local\Temp\ccsCJARq.s:7688   .data.TRCK1_ID1:00000000 TRCK1_ID1
C:\Users\ADMIN~1.CVA\AppData\Local\Temp\ccsCJARq.s:7681   .data.SYNC1_ID:00000000 SYNC1_ID
C:\Users\ADMIN~1.CVA\AppData\Local\Temp\ccsCJARq.s:7674   .data.SSTM1_ID:00000000 SSTM1_ID
C:\Users\ADMIN~1.CVA\AppData\Local\Temp\ccsCJARq.s:7667   .data.MMBS1_ID:00000000 MMBS1_ID
C:\Users\ADMIN~1.CVA\AppData\Local\Temp\ccsCJARq.s:7754   .data.propVal:00000000 propVal
C:\Users\ADMIN~1.CVA\AppData\Local\Temp\ccsCJARq.s:7746   .data.matrixRows:00000000 matrixRows
C:\Users\ADMIN~1.CVA\AppData\Local\Temp\ccsCJARq.s:7738   .data.intVal:00000000 intVal
C:\Users\ADMIN~1.CVA\AppData\Local\Temp\ccsCJARq.s:7731   .data.desiredAngle:00000000 desiredAngle
C:\Users\ADMIN~1.CVA\AppData\Local\Temp\ccsCJARq.s:7723   .data.controlWidth:00000000 controlWidth
C:\Users\ADMIN~1.CVA\AppData\Local\Temp\ccsCJARq.s:7660   .data.ClockOn:00000000 ClockOn
C:\Users\ADMIN~1.CVA\AppData\Local\Temp\ccsCJARq.s:7420   .bss.canActive:00000000 canActive
C:\Users\ADMIN~1.CVA\AppData\Local\Temp\ccsCJARq.s:7482   .bss.ccw:00000000 ccw
C:\Users\ADMIN~1.CVA\AppData\Local\Temp\ccsCJARq.s:7495   .bss.cw:00000000 cw
C:\Users\ADMIN~1.CVA\AppData\Local\Temp\ccsCJARq.s:7414   .bss.boolCan:00000000 boolCan
C:\Users\ADMIN~1.CVA\AppData\Local\Temp\ccsCJARq.s:7625   .bss.slotSelected:00000000 slotSelected
C:\Users\ADMIN~1.CVA\AppData\Local\Temp\ccsCJARq.s:7619   .bss.setSlotTime:00000000 setSlotTime
C:\Users\ADMIN~1.CVA\AppData\Local\Temp\ccsCJARq.s:7508   .bss.local_ticks_interrupt:00000000 local_ticks_interrupt
C:\Users\ADMIN~1.CVA\AppData\Local\Temp\ccsCJARq.s:7380   .bss.SI_CPUload:00000000 SI_CPUload
C:\Users\ADMIN~1.CVA\AppData\Local\Temp\ccsCJARq.s:7515   .bss.mospeed:00000000 mospeed
C:\Users\ADMIN~1.CVA\AppData\Local\Temp\ccsCJARq.s:7374   .bss.Gamma2:00000000 Gamma2
C:\Users\ADMIN~1.CVA\AppData\Local\Temp\ccsCJARq.s:7639   .bss.t1Angle:00000000 t1Angle
C:\Users\ADMIN~1.CVA\AppData\Local\Temp\ccsCJARq.s:7646   .bss.t2Angle:00000000 t2Angle
C:\Users\ADMIN~1.CVA\AppData\Local\Temp\ccsCJARq.s:7557   .bss.pot2:00000000 pot2
C:\Users\ADMIN~1.CVA\AppData\Local\Temp\ccsCJARq.s:7408   .bss.analogPot2:00000000 analogPot2
C:\Users\ADMIN~1.CVA\AppData\Local\Temp\ccsCJARq.s:7536   .bss.pot1:00000000 pot1
C:\Users\ADMIN~1.CVA\AppData\Local\Temp\ccsCJARq.s:7401   .bss.analogPot1:00000000 analogPot1
C:\Users\ADMIN~1.CVA\AppData\Local\Temp\ccsCJARq.s:7653   .bss.testCounter:00000000 testCounter
C:\Users\ADMIN~1.CVA\AppData\Local\Temp\ccsCJARq.s:7571   .bss.pot22:00000000 pot22
C:\Users\ADMIN~1.CVA\AppData\Local\Temp\ccsCJARq.s:7564   .bss.pot21:00000000 pot21
C:\Users\ADMIN~1.CVA\AppData\Local\Temp\ccsCJARq.s:7550   .bss.pot12:00000000 pot12
C:\Users\ADMIN~1.CVA\AppData\Local\Temp\ccsCJARq.s:7543   .bss.pot11:00000000 pot11
C:\Users\ADMIN~1.CVA\AppData\Local\Temp\ccsCJARq.s:7585   .bss.pot32:00000000 pot32
C:\Users\ADMIN~1.CVA\AppData\Local\Temp\ccsCJARq.s:7578   .bss.pot31:00000000 pot31
C:\Users\ADMIN~1.CVA\AppData\Local\Temp\ccsCJARq.s:7522   .bss.motorPos:00000000 motorPos
C:\Users\ADMIN~1.CVA\AppData\Local\Temp\ccsCJARq.s:7502   .bss.delta12K:00000000 delta12K
C:\Users\ADMIN~1.CVA\AppData\Local\Temp\ccsCJARq.s:7394   .bss.SI_FreeStack:00000000 SI_FreeStack
C:\Users\ADMIN~1.CVA\AppData\Local\Temp\ccsCJARq.s:7387   .bss.SI_FreeHeap:00000000 SI_FreeHeap
C:\Users\ADMIN~1.CVA\AppData\Local\Temp\ccsCJARq.s:7489   .bss.control:00000000 control
C:\Users\ADMIN~1.CVA\AppData\Local\Temp\ccsCJARq.s:7529   .bss.position:00000000 position
C:\Users\ADMIN~1.CVA\AppData\Local\Temp\ccsCJARq.s:7632   .bss.steering:00000000 steering
C:\Users\ADMIN~1.CVA\AppData\Local\Temp\ccsCJARq.s:7367   .bss.Gamma1:00000000 Gamma1
C:\Users\ADMIN~1.CVA\AppData\Local\Temp\ccsCJARq.s:7592   .bss.reqAngle:00000000 reqAngle
C:\Users\ADMIN~1.CVA\AppData\Local\Temp\ccsCJARq.s:7363   .bss.Gamma1:00000000 $d
C:\Users\ADMIN~1.CVA\AppData\Local\Temp\ccsCJARq.s:7370   .bss.Gamma2:00000000 $d
C:\Users\ADMIN~1.CVA\AppData\Local\Temp\ccsCJARq.s:7381   .bss.SI_CPUload:00000000 $d
C:\Users\ADMIN~1.CVA\AppData\Local\Temp\ccsCJARq.s:7383   .bss.SI_FreeHeap:00000000 $d
C:\Users\ADMIN~1.CVA\AppData\Local\Temp\ccsCJARq.s:7390   .bss.SI_FreeStack:00000000 $d
C:\Users\ADMIN~1.CVA\AppData\Local\Temp\ccsCJARq.s:7397   .bss.analogPot1:00000000 $d
C:\Users\ADMIN~1.CVA\AppData\Local\Temp\ccsCJARq.s:7404   .bss.analogPot2:00000000 $d
C:\Users\ADMIN~1.CVA\AppData\Local\Temp\ccsCJARq.s:7415   .bss.boolCan:00000000 $d
C:\Users\ADMIN~1.CVA\AppData\Local\Temp\ccsCJARq.s:7421   .bss.canActive:00000000 $d
C:\Users\ADMIN~1.CVA\AppData\Local\Temp\ccsCJARq.s:7423   .bss.canRxData_0_SYNC1_ID:00000000 $d
C:\Users\ADMIN~1.CVA\AppData\Local\Temp\ccsCJARq.s:7427   .bss.canRxData_0_SYNC1_ID:00000000 canRxData_0_SYNC1_ID
C:\Users\ADMIN~1.CVA\AppData\Local\Temp\ccsCJARq.s:7430   .bss.canRxData_0_TRCK1_ID1:00000000 $d
C:\Users\ADMIN~1.CVA\AppData\Local\Temp\ccsCJARq.s:7434   .bss.canRxData_0_TRCK1_ID1:00000000 canRxData_0_TRCK1_ID1
C:\Users\ADMIN~1.CVA\AppData\Local\Temp\ccsCJARq.s:7437   .bss.canRxData_0_TRCK1_ID2:00000000 $d
C:\Users\ADMIN~1.CVA\AppData\Local\Temp\ccsCJARq.s:7441   .bss.canRxData_0_TRCK1_ID2:00000000 canRxData_0_TRCK1_ID2
C:\Users\ADMIN~1.CVA\AppData\Local\Temp\ccsCJARq.s:7444   .bss.canRxData_0_TRCK1_ID3:00000000 $d
C:\Users\ADMIN~1.CVA\AppData\Local\Temp\ccsCJARq.s:7448   .bss.canRxData_0_TRCK1_ID3:00000000 canRxData_0_TRCK1_ID3
C:\Users\ADMIN~1.CVA\AppData\Local\Temp\ccsCJARq.s:7451   .bss.canRxData_0_TRLS1_ID4:00000000 $d
C:\Users\ADMIN~1.CVA\AppData\Local\Temp\ccsCJARq.s:7455   .bss.canRxData_0_TRLS1_ID4:00000000 canRxData_0_TRLS1_ID4
C:\Users\ADMIN~1.CVA\AppData\Local\Temp\ccsCJARq.s:7458   .bss.canRxData_0_TRLS1_ID5:00000000 $d
C:\Users\ADMIN~1.CVA\AppData\Local\Temp\ccsCJARq.s:7462   .bss.canRxData_0_TRLS1_ID5:00000000 canRxData_0_TRLS1_ID5
C:\Users\ADMIN~1.CVA\AppData\Local\Temp\ccsCJARq.s:7465   .bss.canRxData_0_rtu_In1:00000000 $d
C:\Users\ADMIN~1.CVA\AppData\Local\Temp\ccsCJARq.s:7469   .bss.canRxData_0_rtu_In1:00000000 canRxData_0_rtu_In1
C:\Users\ADMIN~1.CVA\AppData\Local\Temp\ccsCJARq.s:7472   .bss.canTxData:00000000 $d
C:\Users\ADMIN~1.CVA\AppData\Local\Temp\ccsCJARq.s:7476   .bss.canTxData:00000000 canTxData
C:\Users\ADMIN~1.CVA\AppData\Local\Temp\ccsCJARq.s:7483   .bss.ccw:00000000 $d
C:\Users\ADMIN~1.CVA\AppData\Local\Temp\ccsCJARq.s:7485   .bss.control:00000000 $d
C:\Users\ADMIN~1.CVA\AppData\Local\Temp\ccsCJARq.s:7496   .bss.cw:00000000 $d
C:\Users\ADMIN~1.CVA\AppData\Local\Temp\ccsCJARq.s:7498   .bss.delta12K:00000000 $d
C:\Users\ADMIN~1.CVA\AppData\Local\Temp\ccsCJARq.s:7509   .bss.local_ticks_interrupt:00000000 $d
C:\Users\ADMIN~1.CVA\AppData\Local\Temp\ccsCJARq.s:7511   .bss.mospeed:00000000 $d
C:\Users\ADMIN~1.CVA\AppData\Local\Temp\ccsCJARq.s:7518   .bss.motorPos:00000000 $d
C:\Users\ADMIN~1.CVA\AppData\Local\Temp\ccsCJARq.s:7525   .bss.position:00000000 $d
C:\Users\ADMIN~1.CVA\AppData\Local\Temp\ccsCJARq.s:7532   .bss.pot1:00000000 $d
C:\Users\ADMIN~1.CVA\AppData\Local\Temp\ccsCJARq.s:7539   .bss.pot11:00000000 $d
C:\Users\ADMIN~1.CVA\AppData\Local\Temp\ccsCJARq.s:7546   .bss.pot12:00000000 $d
C:\Users\ADMIN~1.CVA\AppData\Local\Temp\ccsCJARq.s:7553   .bss.pot2:00000000 $d
C:\Users\ADMIN~1.CVA\AppData\Local\Temp\ccsCJARq.s:7560   .bss.pot21:00000000 $d
C:\Users\ADMIN~1.CVA\AppData\Local\Temp\ccsCJARq.s:7567   .bss.pot22:00000000 $d
C:\Users\ADMIN~1.CVA\AppData\Local\Temp\ccsCJARq.s:7574   .bss.pot31:00000000 $d
C:\Users\ADMIN~1.CVA\AppData\Local\Temp\ccsCJARq.s:7581   .bss.pot32:00000000 $d
C:\Users\ADMIN~1.CVA\AppData\Local\Temp\ccsCJARq.s:7588   .bss.reqAngle:00000000 $d
C:\Users\ADMIN~1.CVA\AppData\Local\Temp\ccsCJARq.s:7595   .bss.rtB:00000000 $d
C:\Users\ADMIN~1.CVA\AppData\Local\Temp\ccsCJARq.s:7602   .bss.rtDWork:00000000 $d
C:\Users\ADMIN~1.CVA\AppData\Local\Temp\ccsCJARq.s:7609   .bss.rtPrevZCSigState:00000000 $d
C:\Users\ADMIN~1.CVA\AppData\Local\Temp\ccsCJARq.s:7620   .bss.setSlotTime:00000000 $d
C:\Users\ADMIN~1.CVA\AppData\Local\Temp\ccsCJARq.s:7626   .bss.slotSelected:00000000 $d
C:\Users\ADMIN~1.CVA\AppData\Local\Temp\ccsCJARq.s:7628   .bss.steering:00000000 $d
C:\Users\ADMIN~1.CVA\AppData\Local\Temp\ccsCJARq.s:7635   .bss.t1Angle:00000000 $d
C:\Users\ADMIN~1.CVA\AppData\Local\Temp\ccsCJARq.s:7642   .bss.t2Angle:00000000 $d
C:\Users\ADMIN~1.CVA\AppData\Local\Temp\ccsCJARq.s:7649   .bss.testCounter:00000000 $d
C:\Users\ADMIN~1.CVA\AppData\Local\Temp\ccsCJARq.s:7656   .data.ClockOn:00000000 $d
C:\Users\ADMIN~1.CVA\AppData\Local\Temp\ccsCJARq.s:7663   .data.MMBS1_ID:00000000 $d
C:\Users\ADMIN~1.CVA\AppData\Local\Temp\ccsCJARq.s:7670   .data.SSTM1_ID:00000000 $d
C:\Users\ADMIN~1.CVA\AppData\Local\Temp\ccsCJARq.s:7677   .data.SYNC1_ID:00000000 $d
C:\Users\ADMIN~1.CVA\AppData\Local\Temp\ccsCJARq.s:7684   .data.TRCK1_ID1:00000000 $d
C:\Users\ADMIN~1.CVA\AppData\Local\Temp\ccsCJARq.s:7691   .data.TRCK1_ID2:00000000 $d
C:\Users\ADMIN~1.CVA\AppData\Local\Temp\ccsCJARq.s:7698   .data.TRCK1_ID3:00000000 $d
C:\Users\ADMIN~1.CVA\AppData\Local\Temp\ccsCJARq.s:7705   .data.TRLS1_ID4:00000000 $d
C:\Users\ADMIN~1.CVA\AppData\Local\Temp\ccsCJARq.s:7712   .data.TRLS1_ID5:00000000 $d
C:\Users\ADMIN~1.CVA\AppData\Local\Temp\ccsCJARq.s:7719   .data.controlWidth:00000000 $d
C:\Users\ADMIN~1.CVA\AppData\Local\Temp\ccsCJARq.s:7727   .data.desiredAngle:00000000 $d
C:\Users\ADMIN~1.CVA\AppData\Local\Temp\ccsCJARq.s:7734   .data.intVal:00000000 $d
C:\Users\ADMIN~1.CVA\AppData\Local\Temp\ccsCJARq.s:7742   .data.matrixRows:00000000 $d
C:\Users\ADMIN~1.CVA\AppData\Local\Temp\ccsCJARq.s:7750   .data.propVal:00000000 $d

UNDEFINED SYMBOLS
__aeabi_d2uiz
TimeoutGetLastEventCounter
TimeoutScheduleCompareEvent
memset
CanIoCreateMessageReceivedStorage
CanIoGetMessage
CanTransmit
__aeabi_dcmpeq
__aeabi_dmul
__aeabi_ui2d
__aeabi_dadd
__aeabi_dsub
__aeabi_dcmplt
__aeabi_dcmpgt
__aeabi_ddiv
__aeabi_d2f
__aeabi_f2d
__aeabi_i2d
__aeabi_dcmpge
__aeabi_dcmple
tan
sin
cos
atan
floor
rtConstB
AninGet
QuadEncGetCounter
memmove
DigoutSet
PwmoutSet
rtConstP
DiginGet
OsGetCpuLoad
OsGetFreeHeapSize
OsGetTaskFreeStackSize
rt_I32ZCFcn
QuadEncResetCounter
CanInit
CanIoInit
TimeoutInitModule
TimeoutRegisterCompareEventCallback
AninConfigure
QuadEncConfigure
DigoutConfigure
PwmoutInit
PwmoutRegisterPeriodCompleteCallback
PwmoutConfigure
DiginConfigure
AppCtrlTaskSetStackSize
AppCtrlTaskSetPeriod
ADCconversionTaskSetPeriod
CanConnect
AssertFailure
TimeoutRegisterOverflowCallback
MacUsbComInit
MacInit
