   1              		.cpu cortex-m4
   2              		.arch armv7e-m
   3              		.fpu fpv4-sp-d16
   4              		.eabi_attribute 27, 1
   5              		.eabi_attribute 20, 1
   6              		.eabi_attribute 21, 1
   7              		.eabi_attribute 23, 3
   8              		.eabi_attribute 24, 1
   9              		.eabi_attribute 25, 1
  10              		.eabi_attribute 26, 1
  11              		.eabi_attribute 30, 2
  12              		.eabi_attribute 34, 1
  13              		.eabi_attribute 18, 4
  14              		.file	"HANcoder_E407_TTA_CombineModel.c"
  15              		.text
  16              	.Ltext0:
  17              		.cfi_sections	.debug_frame
  18              		.section	.text.PwmoutIRQ_PWMOUT_MODULE_TIM14,"ax",%progbits
  19              		.align	1
  20              		.p2align 2,,3
  21              		.global	PwmoutIRQ_PWMOUT_MODULE_TIM14
  22              		.syntax unified
  23              		.thumb
  24              		.thumb_func
  26              	PwmoutIRQ_PWMOUT_MODULE_TIM14:
  27              	.LFB114:
  28              		.file 1 "HANcoder_E407_TTA_CombineModel.c"
   1:HANcoder_E407_TTA_CombineModel.c **** /*
   2:HANcoder_E407_TTA_CombineModel.c ****  * Academic License - for use in teaching, academic research, and meeting
   3:HANcoder_E407_TTA_CombineModel.c ****  * course requirements at degree granting institutions only.  Not for
   4:HANcoder_E407_TTA_CombineModel.c ****  * government, commercial, or other organizational use.
   5:HANcoder_E407_TTA_CombineModel.c ****  *
   6:HANcoder_E407_TTA_CombineModel.c ****  * File: HANcoder_E407_TTA_CombineModel.c
   7:HANcoder_E407_TTA_CombineModel.c ****  *
   8:HANcoder_E407_TTA_CombineModel.c ****  * Code generated for Simulink model 'HANcoder_E407_TTA_CombineModel'.
   9:HANcoder_E407_TTA_CombineModel.c ****  *
  10:HANcoder_E407_TTA_CombineModel.c ****  * Model version                  : 17.15
  11:HANcoder_E407_TTA_CombineModel.c ****  * Simulink Coder version         : 9.8 (R2022b) 13-May-2022
  12:HANcoder_E407_TTA_CombineModel.c ****  * C/C++ source code generated on : Tue May 30 19:08:35 2023
  13:HANcoder_E407_TTA_CombineModel.c ****  *
  14:HANcoder_E407_TTA_CombineModel.c ****  * Target selection: ert.tlc
  15:HANcoder_E407_TTA_CombineModel.c ****  * Embedded hardware selection: ARM Compatible->ARM Cortex
  16:HANcoder_E407_TTA_CombineModel.c ****  * Code generation objectives: Unspecified
  17:HANcoder_E407_TTA_CombineModel.c ****  * Validation result: Not run
  18:HANcoder_E407_TTA_CombineModel.c ****  */
  19:HANcoder_E407_TTA_CombineModel.c **** 
  20:HANcoder_E407_TTA_CombineModel.c **** #include "HANcoder_E407_TTA_CombineModel.h"
  21:HANcoder_E407_TTA_CombineModel.c **** #include "rtwtypes.h"
  22:HANcoder_E407_TTA_CombineModel.c **** #include "HANcoder_E407_TTA_CombineModel_types.h"
  23:HANcoder_E407_TTA_CombineModel.c **** #include "HANcoder_E407_TTA_CombineModel_private.h"
  24:HANcoder_E407_TTA_CombineModel.c **** #include <math.h>
  25:HANcoder_E407_TTA_CombineModel.c **** #include "zero_crossing_types.h"
  26:HANcoder_E407_TTA_CombineModel.c **** 
  27:HANcoder_E407_TTA_CombineModel.c **** /* map ByteSwap function */
  28:HANcoder_E407_TTA_CombineModel.c **** #define ByteSwap(x)                    (ByteSwap_x((uint8_t *) &x, sizeof(x)))
  29:HANcoder_E407_TTA_CombineModel.c **** 
  30:HANcoder_E407_TTA_CombineModel.c **** void PwmoutIRQ_PWMOUT_MODULE_TIM14(void);
  31:HANcoder_E407_TTA_CombineModel.c **** void TimeoutEventIRQ_TIMEOUT_TIM4_PIN_PD12(void);
  32:HANcoder_E407_TTA_CombineModel.c **** void TimeoutOverflowIRQ_TIMEOUT_MODULE_TIM4(void);
  33:HANcoder_E407_TTA_CombineModel.c **** 
  34:HANcoder_E407_TTA_CombineModel.c **** /* Exported block signals */
  35:HANcoder_E407_TTA_CombineModel.c **** real_T Gamma2;                         /* '<S80>/Sum2' */
  36:HANcoder_E407_TTA_CombineModel.c **** real_T Gamma1;                         /* '<S80>/Sum1' */
  37:HANcoder_E407_TTA_CombineModel.c **** real_T steering;                       /* '<S78>/Gain2' */
  38:HANcoder_E407_TTA_CombineModel.c **** real_T position;                       /* '<S78>/Gain1' */
  39:HANcoder_E407_TTA_CombineModel.c **** real_T control;                        /* '<S78>/Sum' */
  40:HANcoder_E407_TTA_CombineModel.c **** uint32_T SI_FreeHeap;                  /* '<S149>/Level-2 M-file S-Function' */
  41:HANcoder_E407_TTA_CombineModel.c **** uint32_T SI_FreeStack;                 /* '<S150>/Level-2 M-file S-Function' */
  42:HANcoder_E407_TTA_CombineModel.c **** uint16_T mospeed;                      /* '<S78>/Add' */
  43:HANcoder_E407_TTA_CombineModel.c **** uint16_T testCounter;                  /* '<S26>/Data Store Read1' */
  44:HANcoder_E407_TTA_CombineModel.c **** uint16_T local_ticks_interrupt;        /* '<S10>/Switch' */
  45:HANcoder_E407_TTA_CombineModel.c **** uint8_T SI_CPUload;                    /* '<S148>/Level-2 M-file S-Function' */
  46:HANcoder_E407_TTA_CombineModel.c **** uint8_T dataArx;                       /* '<S46>/In1' */
  47:HANcoder_E407_TTA_CombineModel.c **** uint8_T setSlotTime;                   /* '<S10>/Data Store Read3' */
  48:HANcoder_E407_TTA_CombineModel.c **** uint8_T slotSelected;                  /* '<S18>/Switch' */
  49:HANcoder_E407_TTA_CombineModel.c **** boolean_T cw;                          /* '<S78>/Cast1' */
  50:HANcoder_E407_TTA_CombineModel.c **** boolean_T ccw;                         /* '<S78>/NOT' */
  51:HANcoder_E407_TTA_CombineModel.c **** boolean_T boolCan;                     /* '<S11>/AND' */
  52:HANcoder_E407_TTA_CombineModel.c **** boolean_T canActive;                   /* '<S10>/Clock_State' */
  53:HANcoder_E407_TTA_CombineModel.c **** 
  54:HANcoder_E407_TTA_CombineModel.c **** /* Exported block parameters */
  55:HANcoder_E407_TTA_CombineModel.c **** real_T ClockOn = 0.0;                  /* Variable: ClockOn
  56:HANcoder_E407_TTA_CombineModel.c ****                                         * Referenced by: '<S13>/Constant'
  57:HANcoder_E407_TTA_CombineModel.c ****                                         */
  58:HANcoder_E407_TTA_CombineModel.c **** real_T desiredAngle = 0.0;             /* Variable: desiredAngle
  59:HANcoder_E407_TTA_CombineModel.c ****                                         * Referenced by: '<S79>/Constant2'
  60:HANcoder_E407_TTA_CombineModel.c ****                                         */
  61:HANcoder_E407_TTA_CombineModel.c **** real_T intVal = 0.0;                   /* Variable: intVal
  62:HANcoder_E407_TTA_CombineModel.c ****                                         * Referenced by: '<S112>/Integral Gain'
  63:HANcoder_E407_TTA_CombineModel.c ****                                         */
  64:HANcoder_E407_TTA_CombineModel.c **** real_T matrixRows = 10.0;              /* Variable: matrixRows
  65:HANcoder_E407_TTA_CombineModel.c ****                                         * Referenced by: '<S18>/Constant1'
  66:HANcoder_E407_TTA_CombineModel.c ****                                         */
  67:HANcoder_E407_TTA_CombineModel.c **** real_T propVal = 0.0;                  /* Variable: propVal
  68:HANcoder_E407_TTA_CombineModel.c ****                                         * Referenced by: '<S120>/Proportional Gain'
  69:HANcoder_E407_TTA_CombineModel.c ****                                         */
  70:HANcoder_E407_TTA_CombineModel.c **** uint32_T MMBS1_ID = 12U;               /* Variable: MMBS1_ID
  71:HANcoder_E407_TTA_CombineModel.c ****                                         * Referenced by: '<S11>/Constant12'
  72:HANcoder_E407_TTA_CombineModel.c ****                                         */
  73:HANcoder_E407_TTA_CombineModel.c **** uint32_T SSTM1_ID = 13U;               /* Variable: SSTM1_ID
  74:HANcoder_E407_TTA_CombineModel.c ****                                         * Referenced by: '<S11>/Constant14'
  75:HANcoder_E407_TTA_CombineModel.c ****                                         */
  76:HANcoder_E407_TTA_CombineModel.c **** uint32_T SYNC1_ID = 11U;               /* Variable: SYNC1_ID
  77:HANcoder_E407_TTA_CombineModel.c ****                                         * Referenced by:
  78:HANcoder_E407_TTA_CombineModel.c ****                                         *   '<S11>/Constant10'
  79:HANcoder_E407_TTA_CombineModel.c ****                                         *   '<S73>/Constant1'
  80:HANcoder_E407_TTA_CombineModel.c ****                                         */
  81:HANcoder_E407_TTA_CombineModel.c **** uint32_T TRCK1_ID1 = 14U;              /* Variable: TRCK1_ID1
  82:HANcoder_E407_TTA_CombineModel.c ****                                         * Referenced by: '<S11>/Constant3'
  83:HANcoder_E407_TTA_CombineModel.c ****                                         */
  84:HANcoder_E407_TTA_CombineModel.c **** uint32_T TRCK1_ID2 = 26U;              /* Variable: TRCK1_ID2
  85:HANcoder_E407_TTA_CombineModel.c ****                                         * Referenced by: '<S11>/Constant5'
  86:HANcoder_E407_TTA_CombineModel.c ****                                         */
  87:HANcoder_E407_TTA_CombineModel.c **** uint32_T TRCK1_ID3 = 37U;              /* Variable: TRCK1_ID3
  88:HANcoder_E407_TTA_CombineModel.c ****                                         * Referenced by: '<S11>/Constant26'
  89:HANcoder_E407_TTA_CombineModel.c ****                                         */
  90:HANcoder_E407_TTA_CombineModel.c **** uint32_T TRLS1_ID4 = 48U;              /* Variable: TRLS1_ID4
  91:HANcoder_E407_TTA_CombineModel.c ****                                         * Referenced by: '<S11>/Constant8'
  92:HANcoder_E407_TTA_CombineModel.c ****                                         */
  93:HANcoder_E407_TTA_CombineModel.c **** uint32_T TRLS1_ID5 = 59U;              /* Variable: TRLS1_ID5
  94:HANcoder_E407_TTA_CombineModel.c ****                                         * Referenced by: '<S11>/Constant18'
  95:HANcoder_E407_TTA_CombineModel.c ****                                         */
  96:HANcoder_E407_TTA_CombineModel.c **** uint8_T nodeRole = 1U;                 /* Variable: nodeRole
  97:HANcoder_E407_TTA_CombineModel.c ****                                         * Referenced by: '<S14>/Constant1'
  98:HANcoder_E407_TTA_CombineModel.c ****                                         */
  99:HANcoder_E407_TTA_CombineModel.c **** uint8_T slotTime = 50U;                /* Variable: slotTime
 100:HANcoder_E407_TTA_CombineModel.c ****                                         * Referenced by: '<S72>/Constant3'
 101:HANcoder_E407_TTA_CombineModel.c ****                                         */
 102:HANcoder_E407_TTA_CombineModel.c **** 
 103:HANcoder_E407_TTA_CombineModel.c **** /* Block signals (default storage) */
 104:HANcoder_E407_TTA_CombineModel.c **** BlockIO rtB;
 105:HANcoder_E407_TTA_CombineModel.c **** 
 106:HANcoder_E407_TTA_CombineModel.c **** /* Block states (default storage) */
 107:HANcoder_E407_TTA_CombineModel.c **** D_Work rtDWork;
 108:HANcoder_E407_TTA_CombineModel.c **** 
 109:HANcoder_E407_TTA_CombineModel.c **** /* Previous zero-crossings (trigger) states */
 110:HANcoder_E407_TTA_CombineModel.c **** PrevZCSigStates rtPrevZCSigState;
 111:HANcoder_E407_TTA_CombineModel.c **** 
 112:HANcoder_E407_TTA_CombineModel.c **** /* Real-time model */
 113:HANcoder_E407_TTA_CombineModel.c **** static RT_MODEL rtM_;
 114:HANcoder_E407_TTA_CombineModel.c **** RT_MODEL *const rtM = &rtM_;
 115:HANcoder_E407_TTA_CombineModel.c **** 
 116:HANcoder_E407_TTA_CombineModel.c **** /* Forward declaration for local functions */
 117:HANcoder_E407_TTA_CombineModel.c **** static void SystemCore_setup(dsp_simulink_MovingAverage *obj);
 118:HANcoder_E407_TTA_CombineModel.c **** static tCanDataTypes canRxData_0_rtu_In1;
 119:HANcoder_E407_TTA_CombineModel.c **** static tCanDataTypes canTxData;
 120:HANcoder_E407_TTA_CombineModel.c **** static tCanDataTypes canRxData_0_SYNC1_ID;
 121:HANcoder_E407_TTA_CombineModel.c **** static tCanDataTypes canRxData_0_TRCK1_ID3;
 122:HANcoder_E407_TTA_CombineModel.c **** static tCanDataTypes canRxData_0_TRLS1_ID4;
 123:HANcoder_E407_TTA_CombineModel.c **** static tCanDataTypes canRxData_0_TRLS1_ID5;
 124:HANcoder_E407_TTA_CombineModel.c **** static tCanDataTypes canRxData_0_SYNC1_ID;
 125:HANcoder_E407_TTA_CombineModel.c **** 
 126:HANcoder_E407_TTA_CombineModel.c **** /*
 127:HANcoder_E407_TTA_CombineModel.c ****  * Swaps the values of two bytes.
 128:HANcoder_E407_TTA_CombineModel.c ****  * a, b pointers to data values that need swapping
 129:HANcoder_E407_TTA_CombineModel.c ****  */
 130:HANcoder_E407_TTA_CombineModel.c **** static void swap(unsigned char *a, unsigned char *b)
 131:HANcoder_E407_TTA_CombineModel.c **** {
 132:HANcoder_E407_TTA_CombineModel.c ****   register char i = *a;
 133:HANcoder_E407_TTA_CombineModel.c ****   *a = *b;
 134:HANcoder_E407_TTA_CombineModel.c ****   *b = i;
 135:HANcoder_E407_TTA_CombineModel.c **** }                                      /*** end of swap ***/
 136:HANcoder_E407_TTA_CombineModel.c **** 
 137:HANcoder_E407_TTA_CombineModel.c **** /*
 138:HANcoder_E407_TTA_CombineModel.c ****  * Swaps all bytes in b. Typically used to fix endianes.
 139:HANcoder_E407_TTA_CombineModel.c ****  * b pointer to data with bytes to swap
 140:HANcoder_E407_TTA_CombineModel.c ****  * n number of bytes to swap
 141:HANcoder_E407_TTA_CombineModel.c ****  */
 142:HANcoder_E407_TTA_CombineModel.c **** void ByteSwap_x(uint8_t *b, size_t n)
 143:HANcoder_E407_TTA_CombineModel.c **** {
 144:HANcoder_E407_TTA_CombineModel.c ****   int i = 0;
 145:HANcoder_E407_TTA_CombineModel.c ****   int j = n-1;
 146:HANcoder_E407_TTA_CombineModel.c ****   while (i<j) {
 147:HANcoder_E407_TTA_CombineModel.c ****     swap(&b[i], &b[j]);
 148:HANcoder_E407_TTA_CombineModel.c ****     i++, j--;
 149:HANcoder_E407_TTA_CombineModel.c ****   }
 150:HANcoder_E407_TTA_CombineModel.c **** }
 151:HANcoder_E407_TTA_CombineModel.c **** 
 152:HANcoder_E407_TTA_CombineModel.c **** void TimeoutEventIRQ_TIMEOUT_TIM4_PIN_PD12(void)
 153:HANcoder_E407_TTA_CombineModel.c **** {
 154:HANcoder_E407_TTA_CombineModel.c ****   /* Output and update for function-call system: '<S1>/Local Time generation' */
 155:HANcoder_E407_TTA_CombineModel.c ****   {
 156:HANcoder_E407_TTA_CombineModel.c ****     /* local block i/o variables */
 157:HANcoder_E407_TTA_CombineModel.c ****     uint16_T rtb_Level2MfileSFunction;
 158:HANcoder_E407_TTA_CombineModel.c ****     boolean_T rtb_Equal;
 159:HANcoder_E407_TTA_CombineModel.c **** 
 160:HANcoder_E407_TTA_CombineModel.c ****     /* SignalConversion generated from: '<S10>/Clock_State' */
 161:HANcoder_E407_TTA_CombineModel.c ****     canActive = rtB.OR;
 162:HANcoder_E407_TTA_CombineModel.c **** 
 163:HANcoder_E407_TTA_CombineModel.c ****     /* Switch: '<S10>/Switch' */
 164:HANcoder_E407_TTA_CombineModel.c ****     if (canActive) {
 165:HANcoder_E407_TTA_CombineModel.c ****       /* Switch: '<S10>/Switch' incorporates:
 166:HANcoder_E407_TTA_CombineModel.c ****        *  Constant: '<S10>/Constant2'
 167:HANcoder_E407_TTA_CombineModel.c ****        *  DataStoreRead: '<S10>/Data Store Read'
 168:HANcoder_E407_TTA_CombineModel.c ****        *  Sum: '<S10>/Sum1'
 169:HANcoder_E407_TTA_CombineModel.c ****        */
 170:HANcoder_E407_TTA_CombineModel.c ****       local_ticks_interrupt = (uint16_T)((uint32_T)rtDWork.Local_Ticks +
 171:HANcoder_E407_TTA_CombineModel.c ****         ((uint16_T)1U));
 172:HANcoder_E407_TTA_CombineModel.c ****     } else {
 173:HANcoder_E407_TTA_CombineModel.c ****       /* Switch: '<S10>/Switch' incorporates:
 174:HANcoder_E407_TTA_CombineModel.c ****        *  DataStoreRead: '<S10>/Data Store Read1'
 175:HANcoder_E407_TTA_CombineModel.c ****        */
 176:HANcoder_E407_TTA_CombineModel.c ****       local_ticks_interrupt = rtDWork.Local_Ticks;
 177:HANcoder_E407_TTA_CombineModel.c ****     }
 178:HANcoder_E407_TTA_CombineModel.c **** 
 179:HANcoder_E407_TTA_CombineModel.c ****     /* End of Switch: '<S10>/Switch' */
 180:HANcoder_E407_TTA_CombineModel.c **** 
 181:HANcoder_E407_TTA_CombineModel.c ****     /* DataStoreWrite: '<S10>/Data Store Write' */
 182:HANcoder_E407_TTA_CombineModel.c ****     rtDWork.Local_Ticks = local_ticks_interrupt;
 183:HANcoder_E407_TTA_CombineModel.c **** 
 184:HANcoder_E407_TTA_CombineModel.c ****     /* DataStoreRead: '<S10>/Data Store Read3' */
 185:HANcoder_E407_TTA_CombineModel.c ****     setSlotTime = rtDWork.SlotTime;
 186:HANcoder_E407_TTA_CombineModel.c **** 
 187:HANcoder_E407_TTA_CombineModel.c ****     /* RelationalOperator: '<S10>/Equal' incorporates:
 188:HANcoder_E407_TTA_CombineModel.c ****      *  DataStoreRead: '<S10>/Data Store Read2'
 189:HANcoder_E407_TTA_CombineModel.c ****      *  Gain: '<S10>/Gain'
 190:HANcoder_E407_TTA_CombineModel.c ****      */
 191:HANcoder_E407_TTA_CombineModel.c ****     rtb_Equal = (rtDWork.Local_Ticks >= (int32_T)(((uint32_T)((uint8_T)160U) *
 192:HANcoder_E407_TTA_CombineModel.c ****       setSlotTime) >> 4));
 193:HANcoder_E407_TTA_CombineModel.c **** 
 194:HANcoder_E407_TTA_CombineModel.c ****     /* Outputs for Triggered SubSystem: '<S10>/Enabled Subsystem' incorporates:
 195:HANcoder_E407_TTA_CombineModel.c ****      *  TriggerPort: '<S18>/Trigger'
 196:HANcoder_E407_TTA_CombineModel.c ****      */
 197:HANcoder_E407_TTA_CombineModel.c ****     if (rtb_Equal && (rtPrevZCSigState.EnabledSubsystem_Trig_ZCE != POS_ZCSIG))
 198:HANcoder_E407_TTA_CombineModel.c ****     {
 199:HANcoder_E407_TTA_CombineModel.c ****       /* Switch: '<S18>/Switch' incorporates:
 200:HANcoder_E407_TTA_CombineModel.c ****        *  Constant: '<S18>/Constant1'
 201:HANcoder_E407_TTA_CombineModel.c ****        *  DataStoreRead: '<S18>/Data Store Read1'
 202:HANcoder_E407_TTA_CombineModel.c ****        *  DataTypeConversion: '<S18>/Cast'
 203:HANcoder_E407_TTA_CombineModel.c ****        *  RelationalOperator: '<S18>/Equal'
 204:HANcoder_E407_TTA_CombineModel.c ****        */
 205:HANcoder_E407_TTA_CombineModel.c ****       if (rtDWork.slot < (uint8_T)matrixRows) {
 206:HANcoder_E407_TTA_CombineModel.c ****         /* Switch: '<S18>/Switch' incorporates:
 207:HANcoder_E407_TTA_CombineModel.c ****          *  Constant: '<S18>/Constant'
 208:HANcoder_E407_TTA_CombineModel.c ****          *  DataStoreRead: '<S18>/Data Store Read'
 209:HANcoder_E407_TTA_CombineModel.c ****          *  Sum: '<S18>/Plus'
 210:HANcoder_E407_TTA_CombineModel.c ****          */
 211:HANcoder_E407_TTA_CombineModel.c ****         slotSelected = (uint8_T)((uint32_T)rtDWork.slot + ((uint8_T)1U));
 212:HANcoder_E407_TTA_CombineModel.c ****       } else {
 213:HANcoder_E407_TTA_CombineModel.c ****         /* Switch: '<S18>/Switch' incorporates:
 214:HANcoder_E407_TTA_CombineModel.c ****          *  Constant: '<S18>/Constant2'
 215:HANcoder_E407_TTA_CombineModel.c ****          */
 216:HANcoder_E407_TTA_CombineModel.c ****         slotSelected = (uint8_T)1.0;
 217:HANcoder_E407_TTA_CombineModel.c ****       }
 218:HANcoder_E407_TTA_CombineModel.c **** 
 219:HANcoder_E407_TTA_CombineModel.c ****       /* End of Switch: '<S18>/Switch' */
 220:HANcoder_E407_TTA_CombineModel.c **** 
 221:HANcoder_E407_TTA_CombineModel.c ****       /* DataStoreWrite: '<S18>/Data Store Write' */
 222:HANcoder_E407_TTA_CombineModel.c ****       rtDWork.slot = slotSelected;
 223:HANcoder_E407_TTA_CombineModel.c **** 
 224:HANcoder_E407_TTA_CombineModel.c ****       /* DataStoreWrite: '<S18>/Data Store Write1' incorporates:
 225:HANcoder_E407_TTA_CombineModel.c ****        *  Constant: '<S18>/Constant3'
 226:HANcoder_E407_TTA_CombineModel.c ****        */
 227:HANcoder_E407_TTA_CombineModel.c ****       rtDWork.Local_Ticks = ((uint16_T)0U);
 228:HANcoder_E407_TTA_CombineModel.c ****     }
 229:HANcoder_E407_TTA_CombineModel.c **** 
 230:HANcoder_E407_TTA_CombineModel.c ****     rtPrevZCSigState.EnabledSubsystem_Trig_ZCE = rtb_Equal;
 231:HANcoder_E407_TTA_CombineModel.c **** 
 232:HANcoder_E407_TTA_CombineModel.c ****     /* End of Outputs for SubSystem: '<S10>/Enabled Subsystem' */
 233:HANcoder_E407_TTA_CombineModel.c ****     /* M-S-Function: '<S19>/Level-2 M-file S-Function' */
 234:HANcoder_E407_TTA_CombineModel.c ****     /* read 16-bit free running counter timestamp of the last output compare event */
 235:HANcoder_E407_TTA_CombineModel.c ****     rtb_Level2MfileSFunction = TimeoutGetLastEventCounter(TIMEOUT_TIM4_PIN_PD12);
 236:HANcoder_E407_TTA_CombineModel.c **** 
 237:HANcoder_E407_TTA_CombineModel.c ****     /* Sum: '<S10>/Sum' incorporates:
 238:HANcoder_E407_TTA_CombineModel.c ****      *  Constant: '<S10>/Constant'
 239:HANcoder_E407_TTA_CombineModel.c ****      */
 240:HANcoder_E407_TTA_CombineModel.c ****     rtB.Sum = (uint16_T)((uint32_T)rtb_Level2MfileSFunction + ((uint16_T)1000U));
 241:HANcoder_E407_TTA_CombineModel.c **** 
 242:HANcoder_E407_TTA_CombineModel.c ****     /* Update for M-S-Function: '<S20>/Level-2 M-file S-Function' incorporates:
 243:HANcoder_E407_TTA_CombineModel.c ****      *  Constant: '<S10>/Constant1'
 244:HANcoder_E407_TTA_CombineModel.c ****      */
 245:HANcoder_E407_TTA_CombineModel.c ****     /* schedule the next output compare event */
 246:HANcoder_E407_TTA_CombineModel.c ****     TimeoutScheduleCompareEvent(TIMEOUT_TIM4_PIN_PD12, rtB.Sum, (tTimeoutAction)
 247:HANcoder_E407_TTA_CombineModel.c ****       ((uint8_T)3U));
 248:HANcoder_E407_TTA_CombineModel.c ****   }
 249:HANcoder_E407_TTA_CombineModel.c **** }
 250:HANcoder_E407_TTA_CombineModel.c **** 
 251:HANcoder_E407_TTA_CombineModel.c **** void PwmoutIRQ_PWMOUT_MODULE_TIM14(void)
 252:HANcoder_E407_TTA_CombineModel.c **** {
  29              		.loc 1 252 1 view -0
  30              		.cfi_startproc
  31              		@ args = 0, pretend = 0, frame = 0
  32              		@ frame_needed = 0, uses_anonymous_args = 0
  33              		@ link register save eliminated.
 253:HANcoder_E407_TTA_CombineModel.c **** }
  34              		.loc 1 253 1 view .LVU1
  35 0000 7047     		bx	lr
  36              		.cfi_endproc
  37              	.LFE114:
  39              		.global	__aeabi_d2uiz
  40 0002 00BF     		.section	.text.TimeoutEventIRQ_TIMEOUT_TIM4_PIN_PD12,"ax",%progbits
  41              		.align	1
  42              		.p2align 2,,3
  43              		.global	TimeoutEventIRQ_TIMEOUT_TIM4_PIN_PD12
  44              		.syntax unified
  45              		.thumb
  46              		.thumb_func
  48              	TimeoutEventIRQ_TIMEOUT_TIM4_PIN_PD12:
  49              	.LFB113:
 153:HANcoder_E407_TTA_CombineModel.c ****   /* Output and update for function-call system: '<S1>/Local Time generation' */
  50              		.loc 1 153 1 view -0
  51              		.cfi_startproc
  52              		@ args = 0, pretend = 0, frame = 0
  53              		@ frame_needed = 0, uses_anonymous_args = 0
  54              	.LBB44:
 157:HANcoder_E407_TTA_CombineModel.c ****     boolean_T rtb_Equal;
  55              		.loc 1 157 5 view .LVU3
 158:HANcoder_E407_TTA_CombineModel.c **** 
  56              		.loc 1 158 5 view .LVU4
 161:HANcoder_E407_TTA_CombineModel.c **** 
  57              		.loc 1 161 5 view .LVU5
  58              	.LBE44:
 153:HANcoder_E407_TTA_CombineModel.c ****   /* Output and update for function-call system: '<S1>/Local Time generation' */
  59              		.loc 1 153 1 is_stmt 0 view .LVU6
  60 0000 2DE9F041 		push	{r4, r5, r6, r7, r8, lr}
  61              		.cfi_def_cfa_offset 24
  62              		.cfi_offset 4, -24
  63              		.cfi_offset 5, -20
  64              		.cfi_offset 6, -16
  65              		.cfi_offset 7, -12
  66              		.cfi_offset 8, -8
  67              		.cfi_offset 14, -4
  68              	.LBB45:
 161:HANcoder_E407_TTA_CombineModel.c **** 
  69              		.loc 1 161 20 view .LVU7
  70 0004 214C     		ldr	r4, .L15
 161:HANcoder_E407_TTA_CombineModel.c **** 
  71              		.loc 1 161 15 view .LVU8
  72 0006 224A     		ldr	r2, .L15+4
 161:HANcoder_E407_TTA_CombineModel.c **** 
  73              		.loc 1 161 20 view .LVU9
  74 0008 6379     		ldrb	r3, [r4, #5]	@ zero_extendqisi2
 170:HANcoder_E407_TTA_CombineModel.c ****         ((uint16_T)1U));
  75              		.loc 1 170 59 view .LVU10
  76 000a 224D     		ldr	r5, .L15+8
 161:HANcoder_E407_TTA_CombineModel.c **** 
  77              		.loc 1 161 15 view .LVU11
  78 000c 1370     		strb	r3, [r2]
 164:HANcoder_E407_TTA_CombineModel.c ****       /* Switch: '<S10>/Switch' incorporates:
  79              		.loc 1 164 5 is_stmt 1 view .LVU12
 170:HANcoder_E407_TTA_CombineModel.c ****         ((uint16_T)1U));
  80              		.loc 1 170 31 is_stmt 0 view .LVU13
  81 000e B5F8C020 		ldrh	r2, [r5, #192]
 164:HANcoder_E407_TTA_CombineModel.c ****       /* Switch: '<S10>/Switch' incorporates:
  82              		.loc 1 164 8 view .LVU14
  83 0012 0BB1     		cbz	r3, .L5
 170:HANcoder_E407_TTA_CombineModel.c ****         ((uint16_T)1U));
  84              		.loc 1 170 7 is_stmt 1 view .LVU15
 170:HANcoder_E407_TTA_CombineModel.c ****         ((uint16_T)1U));
  85              		.loc 1 170 31 is_stmt 0 view .LVU16
  86 0014 0132     		adds	r2, r2, #1
  87 0016 92B2     		uxth	r2, r2
  88              	.L5:
  89 0018 1F49     		ldr	r1, .L15+12
 185:HANcoder_E407_TTA_CombineModel.c **** 
  90              		.loc 1 185 26 view .LVU17
  91 001a 95F8C930 		ldrb	r3, [r5, #201]	@ zero_extendqisi2
  92 001e 0A80     		strh	r2, [r1]	@ movhi
 182:HANcoder_E407_TTA_CombineModel.c **** 
  93              		.loc 1 182 5 is_stmt 1 view .LVU18
 185:HANcoder_E407_TTA_CombineModel.c **** 
  94              		.loc 1 185 5 view .LVU19
 185:HANcoder_E407_TTA_CombineModel.c **** 
  95              		.loc 1 185 17 is_stmt 0 view .LVU20
  96 0020 1E49     		ldr	r1, .L15+16
 197:HANcoder_E407_TTA_CombineModel.c ****     {
  97              		.loc 1 197 39 view .LVU21
  98 0022 1F4E     		ldr	r6, .L15+20
 185:HANcoder_E407_TTA_CombineModel.c **** 
  99              		.loc 1 185 17 view .LVU22
 100 0024 0B70     		strb	r3, [r1]
 191:HANcoder_E407_TTA_CombineModel.c ****       setSlotTime) >> 4));
 101              		.loc 1 191 5 is_stmt 1 view .LVU23
 191:HANcoder_E407_TTA_CombineModel.c ****       setSlotTime) >> 4));
 102              		.loc 1 191 78 is_stmt 0 view .LVU24
 103 0026 03EB8303 		add	r3, r3, r3, lsl #2
 191:HANcoder_E407_TTA_CombineModel.c ****       setSlotTime) >> 4));
 104              		.loc 1 191 38 view .LVU25
 105 002a B2EB430F 		cmp	r2, r3, lsl #1
 182:HANcoder_E407_TTA_CombineModel.c **** 
 106              		.loc 1 182 25 view .LVU26
 107 002e A5F8C020 		strh	r2, [r5, #192]	@ movhi
 191:HANcoder_E407_TTA_CombineModel.c ****       setSlotTime) >> 4));
 108              		.loc 1 191 15 view .LVU27
 109 0032 ACBF     		ite	ge
 110 0034 4FF00108 		movge	r8, #1
 111 0038 4FF00008 		movlt	r8, #0
 112              	.LVL0:
 197:HANcoder_E407_TTA_CombineModel.c ****     {
 113              		.loc 1 197 5 is_stmt 1 view .LVU28
 197:HANcoder_E407_TTA_CombineModel.c ****     {
 114              		.loc 1 197 8 is_stmt 0 view .LVU29
 115 003c 17DB     		blt	.L6
 197:HANcoder_E407_TTA_CombineModel.c ****     {
 116              		.loc 1 197 19 discriminator 1 view .LVU30
 117 003e F37A     		ldrb	r3, [r6, #11]	@ zero_extendqisi2
 118 0040 012B     		cmp	r3, #1
 119 0042 14D0     		beq	.L6
 205:HANcoder_E407_TTA_CombineModel.c ****         /* Switch: '<S18>/Switch' incorporates:
 120              		.loc 1 205 7 is_stmt 1 view .LVU31
 205:HANcoder_E407_TTA_CombineModel.c ****         /* Switch: '<S18>/Switch' incorporates:
 121              		.loc 1 205 26 is_stmt 0 view .LVU32
 122 0044 174B     		ldr	r3, .L15+24
 205:HANcoder_E407_TTA_CombineModel.c ****         /* Switch: '<S18>/Switch' incorporates:
 123              		.loc 1 205 18 view .LVU33
 124 0046 95F8CA70 		ldrb	r7, [r5, #202]	@ zero_extendqisi2
 205:HANcoder_E407_TTA_CombineModel.c ****         /* Switch: '<S18>/Switch' incorporates:
 125              		.loc 1 205 26 view .LVU34
 126 004a D3E90001 		ldrd	r0, [r3]
 127 004e FFF7FEFF 		bl	__aeabi_d2uiz
 128              	.LVL1:
 205:HANcoder_E407_TTA_CombineModel.c ****         /* Switch: '<S18>/Switch' incorporates:
 129              		.loc 1 205 10 view .LVU35
 130 0052 C0B2     		uxtb	r0, r0
 131 0054 B842     		cmp	r0, r7
 211:HANcoder_E407_TTA_CombineModel.c ****       } else {
 132              		.loc 1 211 9 is_stmt 1 view .LVU36
 211:HANcoder_E407_TTA_CombineModel.c ****       } else {
 133              		.loc 1 211 24 is_stmt 0 view .LVU37
 134 0056 88BF     		it	hi
 135 0058 7B1C     		addhi	r3, r7, #1
 136 005a 134A     		ldr	r2, .L15+28
 137 005c 8CBF     		ite	hi
 138 005e DBB2     		uxtbhi	r3, r3
 216:HANcoder_E407_TTA_CombineModel.c ****       }
 139              		.loc 1 216 22 view .LVU38
 140 0060 0123     		movls	r3, #1
 222:HANcoder_E407_TTA_CombineModel.c **** 
 141              		.loc 1 222 20 view .LVU39
 142 0062 85F8CA30 		strb	r3, [r5, #202]
 143 0066 1370     		strb	r3, [r2]
 222:HANcoder_E407_TTA_CombineModel.c **** 
 144              		.loc 1 222 7 is_stmt 1 view .LVU40
 227:HANcoder_E407_TTA_CombineModel.c ****     }
 145              		.loc 1 227 7 view .LVU41
 227:HANcoder_E407_TTA_CombineModel.c ****     }
 146              		.loc 1 227 27 is_stmt 0 view .LVU42
 147 0068 0023     		movs	r3, #0
 148 006a A5F8C030 		strh	r3, [r5, #192]	@ movhi
 149              	.L6:
 230:HANcoder_E407_TTA_CombineModel.c **** 
 150              		.loc 1 230 5 is_stmt 1 view .LVU43
 235:HANcoder_E407_TTA_CombineModel.c **** 
 151              		.loc 1 235 32 is_stmt 0 view .LVU44
 152 006e 0720     		movs	r0, #7
 230:HANcoder_E407_TTA_CombineModel.c **** 
 153              		.loc 1 230 48 view .LVU45
 154 0070 86F80B80 		strb	r8, [r6, #11]
 235:HANcoder_E407_TTA_CombineModel.c **** 
 155              		.loc 1 235 5 is_stmt 1 view .LVU46
 235:HANcoder_E407_TTA_CombineModel.c **** 
 156              		.loc 1 235 32 is_stmt 0 view .LVU47
 157 0074 FFF7FEFF 		bl	TimeoutGetLastEventCounter
 158              	.LVL2:
 240:HANcoder_E407_TTA_CombineModel.c **** 
 159              		.loc 1 240 5 is_stmt 1 view .LVU48
 240:HANcoder_E407_TTA_CombineModel.c **** 
 160              		.loc 1 240 15 is_stmt 0 view .LVU49
 161 0078 00F57A70 		add	r0, r0, #1000
 162              	.LVL3:
 240:HANcoder_E407_TTA_CombineModel.c **** 
 163              		.loc 1 240 15 view .LVU50
 164 007c 81B2     		uxth	r1, r0
 240:HANcoder_E407_TTA_CombineModel.c **** 
 165              		.loc 1 240 13 view .LVU51
 166 007e 2180     		strh	r1, [r4]	@ movhi
 246:HANcoder_E407_TTA_CombineModel.c ****       ((uint8_T)3U));
 167              		.loc 1 246 5 is_stmt 1 view .LVU52
 168 0080 0322     		movs	r2, #3
 169              	.LBE45:
 249:HANcoder_E407_TTA_CombineModel.c **** 
 170              		.loc 1 249 1 is_stmt 0 view .LVU53
 171 0082 BDE8F041 		pop	{r4, r5, r6, r7, r8, lr}
 172              		.cfi_restore 14
 173              		.cfi_restore 8
 174              		.cfi_restore 7
 175              		.cfi_restore 6
 176              		.cfi_restore 5
 177              		.cfi_restore 4
 178              		.cfi_def_cfa_offset 0
 179              	.LVL4:
 180              	.LBB46:
 246:HANcoder_E407_TTA_CombineModel.c ****       ((uint8_T)3U));
 181              		.loc 1 246 5 view .LVU54
 182 0086 0720     		movs	r0, #7
 183 0088 FFF7FEBF 		b	TimeoutScheduleCompareEvent
 184              	.LVL5:
 185              	.L16:
 186              		.align	2
 187              	.L15:
 188 008c 00000000 		.word	.LANCHOR0
 189 0090 00000000 		.word	.LANCHOR1
 190 0094 00000000 		.word	.LANCHOR2
 191 0098 00000000 		.word	.LANCHOR3
 192 009c 00000000 		.word	.LANCHOR4
 193 00a0 00000000 		.word	.LANCHOR5
 194 00a4 00000000 		.word	.LANCHOR6
 195 00a8 00000000 		.word	.LANCHOR7
 196              	.LBE46:
 197              		.cfi_endproc
 198              	.LFE113:
 200              		.section	.text.TimeoutOverflowIRQ_TIMEOUT_MODULE_TIM4,"ax",%progbits
 201              		.align	1
 202              		.p2align 2,,3
 203              		.global	TimeoutOverflowIRQ_TIMEOUT_MODULE_TIM4
 204              		.syntax unified
 205              		.thumb
 206              		.thumb_func
 208              	TimeoutOverflowIRQ_TIMEOUT_MODULE_TIM4:
 209              	.LFB127:
 210              		.cfi_startproc
 211              		@ args = 0, pretend = 0, frame = 0
 212              		@ frame_needed = 0, uses_anonymous_args = 0
 213              		@ link register save eliminated.
 214 0000 7047     		bx	lr
 215              		.cfi_endproc
 216              	.LFE127:
 218 0002 00BF     		.section	.text.ByteSwap_x,"ax",%progbits
 219              		.align	1
 220              		.p2align 2,,3
 221              		.global	ByteSwap_x
 222              		.syntax unified
 223              		.thumb
 224              		.thumb_func
 226              	ByteSwap_x:
 227              	.LVL6:
 228              	.LFB112:
 143:HANcoder_E407_TTA_CombineModel.c ****   int i = 0;
 229              		.loc 1 143 1 is_stmt 1 view -0
 230              		.cfi_startproc
 231              		@ args = 0, pretend = 0, frame = 0
 232              		@ frame_needed = 0, uses_anonymous_args = 0
 144:HANcoder_E407_TTA_CombineModel.c ****   int j = n-1;
 233              		.loc 1 144 3 view .LVU56
 145:HANcoder_E407_TTA_CombineModel.c ****   while (i<j) {
 234              		.loc 1 145 3 view .LVU57
 143:HANcoder_E407_TTA_CombineModel.c ****   int i = 0;
 235              		.loc 1 143 1 is_stmt 0 view .LVU58
 236 0000 70B5     		push	{r4, r5, r6, lr}
 237              		.cfi_def_cfa_offset 16
 238              		.cfi_offset 4, -16
 239              		.cfi_offset 5, -12
 240              		.cfi_offset 6, -8
 241              		.cfi_offset 14, -4
 145:HANcoder_E407_TTA_CombineModel.c ****   while (i<j) {
 242              		.loc 1 145 12 view .LVU59
 243 0002 01F1FF3E 		add	lr, r1, #-1
 244              	.LVL7:
 146:HANcoder_E407_TTA_CombineModel.c ****     swap(&b[i], &b[j]);
 245              		.loc 1 146 3 is_stmt 1 view .LVU60
 146:HANcoder_E407_TTA_CombineModel.c ****     swap(&b[i], &b[j]);
 246              		.loc 1 146 9 view .LVU61
 247 0006 BEF1000F 		cmp	lr, #0
 248 000a 15DD     		ble	.L18
 249 000c 00F1FF3C 		add	ip, r0, #-1
 250 0010 8644     		add	lr, lr, r0
 251              	.LVL8:
 146:HANcoder_E407_TTA_CombineModel.c ****     swap(&b[i], &b[j]);
 252              		.loc 1 146 9 is_stmt 0 view .LVU62
 253 0012 6FF00106 		mvn	r6, #1
 254              	.LVL9:
 255              	.L20:
 147:HANcoder_E407_TTA_CombineModel.c ****     i++, j--;
 256              		.loc 1 147 5 is_stmt 1 view .LVU63
 257              	.LBB47:
 258              	.LBI47:
 130:HANcoder_E407_TTA_CombineModel.c **** {
 259              		.loc 1 130 13 view .LVU64
 260              	.LBB48:
 132:HANcoder_E407_TTA_CombineModel.c ****   *a = *b;
 261              		.loc 1 132 3 view .LVU65
 262 0016 6246     		mov	r2, ip
 132:HANcoder_E407_TTA_CombineModel.c ****   *a = *b;
 263              		.loc 1 132 17 is_stmt 0 view .LVU66
 264 0018 1CF8014F 		ldrb	r4, [ip, #1]!	@ zero_extendqisi2
 265              	.LVL10:
 133:HANcoder_E407_TTA_CombineModel.c ****   *b = i;
 266              		.loc 1 133 3 is_stmt 1 view .LVU67
 133:HANcoder_E407_TTA_CombineModel.c ****   *b = i;
 267              		.loc 1 133 8 is_stmt 0 view .LVU68
 268 001c 9EF80050 		ldrb	r5, [lr]	@ zero_extendqisi2
 133:HANcoder_E407_TTA_CombineModel.c ****   *b = i;
 269              		.loc 1 133 6 view .LVU69
 270 0020 8CF80050 		strb	r5, [ip]
 134:HANcoder_E407_TTA_CombineModel.c **** }                                      /*** end of swap ***/
 271              		.loc 1 134 3 is_stmt 1 view .LVU70
 272              	.LBE48:
 273              	.LBE47:
 146:HANcoder_E407_TTA_CombineModel.c ****     swap(&b[i], &b[j]);
 274              		.loc 1 146 9 is_stmt 0 view .LVU71
 275 0024 A6EB0C03 		sub	r3, r6, ip
 276 0028 0232     		adds	r2, r2, #2
 277              	.LVL11:
 146:HANcoder_E407_TTA_CombineModel.c ****     swap(&b[i], &b[j]);
 278              		.loc 1 146 9 view .LVU72
 279 002a 0344     		add	r3, r3, r0
 280 002c 121A     		subs	r2, r2, r0
 281              	.LVL12:
 146:HANcoder_E407_TTA_CombineModel.c ****     swap(&b[i], &b[j]);
 282              		.loc 1 146 9 view .LVU73
 283 002e 0B44     		add	r3, r3, r1
 284 0030 9A42     		cmp	r2, r3
 285              	.LBB50:
 286              	.LBB49:
 134:HANcoder_E407_TTA_CombineModel.c **** }                                      /*** end of swap ***/
 287              		.loc 1 134 6 view .LVU74
 288 0032 0EF80149 		strb	r4, [lr], #-1
 289              	.LVL13:
 134:HANcoder_E407_TTA_CombineModel.c **** }                                      /*** end of swap ***/
 290              		.loc 1 134 6 view .LVU75
 291              	.LBE49:
 292              	.LBE50:
 148:HANcoder_E407_TTA_CombineModel.c ****   }
 293              		.loc 1 148 5 is_stmt 1 view .LVU76
 146:HANcoder_E407_TTA_CombineModel.c ****     swap(&b[i], &b[j]);
 294              		.loc 1 146 9 view .LVU77
 295 0036 EEDB     		blt	.L20
 296              	.LVL14:
 297              	.L18:
 150:HANcoder_E407_TTA_CombineModel.c **** 
 298              		.loc 1 150 1 is_stmt 0 view .LVU78
 299 0038 70BD     		pop	{r4, r5, r6, pc}
 300              		.cfi_endproc
 301              	.LFE112:
 303 003a 00BF     		.section	.text.EnabledSubsystem,"ax",%progbits
 304              		.align	1
 305              		.p2align 2,,3
 306              		.global	EnabledSubsystem
 307              		.syntax unified
 308              		.thumb
 309              		.thumb_func
 311              	EnabledSubsystem:
 312              	.LVL15:
 313              	.LFB116:
 254:HANcoder_E407_TTA_CombineModel.c **** 
 255:HANcoder_E407_TTA_CombineModel.c **** void TimeoutOverflowIRQ_TIMEOUT_MODULE_TIM4(void)
 256:HANcoder_E407_TTA_CombineModel.c **** {
 257:HANcoder_E407_TTA_CombineModel.c **** }
 258:HANcoder_E407_TTA_CombineModel.c **** 
 259:HANcoder_E407_TTA_CombineModel.c **** /*
 260:HANcoder_E407_TTA_CombineModel.c ****  * Output and update for enable system:
 261:HANcoder_E407_TTA_CombineModel.c ****  *    '<S39>/Enabled Subsystem'
 262:HANcoder_E407_TTA_CombineModel.c ****  *    '<S42>/Enabled Subsystem'
 263:HANcoder_E407_TTA_CombineModel.c ****  *    '<S48>/Enabled Subsystem'
 264:HANcoder_E407_TTA_CombineModel.c ****  *    '<S52>/Enabled Subsystem'
 265:HANcoder_E407_TTA_CombineModel.c ****  *    '<S55>/Enabled Subsystem'
 266:HANcoder_E407_TTA_CombineModel.c ****  *    '<S58>/Enabled Subsystem'
 267:HANcoder_E407_TTA_CombineModel.c ****  *    '<S67>/Enabled Subsystem'
 268:HANcoder_E407_TTA_CombineModel.c ****  *    '<S74>/Enabled Subsystem'
 269:HANcoder_E407_TTA_CombineModel.c ****  */
 270:HANcoder_E407_TTA_CombineModel.c **** void EnabledSubsystem(int8_T rtu_Enable, uint8_T rtu_In1, uint8_T rtu_In2,
 271:HANcoder_E407_TTA_CombineModel.c ****                       uint8_T rtu_In3, uint8_T rtu_In4, uint8_T rtu_In5, uint8_T
 272:HANcoder_E407_TTA_CombineModel.c ****                       rtu_In6, uint8_T rtu_In7, uint8_T rtu_In8,
 273:HANcoder_E407_TTA_CombineModel.c ****                       rtB_EnabledSubsystem *localB)
 274:HANcoder_E407_TTA_CombineModel.c **** {
 314              		.loc 1 274 1 is_stmt 1 view -0
 315              		.cfi_startproc
 316              		@ args = 24, pretend = 0, frame = 0
 317              		@ frame_needed = 0, uses_anonymous_args = 0
 318              		@ link register save eliminated.
 275:HANcoder_E407_TTA_CombineModel.c ****   uint8_T rtb_In3_f;
 319              		.loc 1 275 3 view .LVU80
 276:HANcoder_E407_TTA_CombineModel.c ****   uint8_T rtb_In4_c;
 320              		.loc 1 276 3 view .LVU81
 277:HANcoder_E407_TTA_CombineModel.c ****   uint8_T rtb_In5_a;
 321              		.loc 1 277 3 view .LVU82
 278:HANcoder_E407_TTA_CombineModel.c ****   uint8_T rtb_In6_j;
 322              		.loc 1 278 3 view .LVU83
 279:HANcoder_E407_TTA_CombineModel.c ****   uint8_T rtb_In7_h;
 323              		.loc 1 279 3 view .LVU84
 280:HANcoder_E407_TTA_CombineModel.c ****   uint8_T rtb_In8_m;
 324              		.loc 1 280 3 view .LVU85
 281:HANcoder_E407_TTA_CombineModel.c **** 
 282:HANcoder_E407_TTA_CombineModel.c ****   /* Outputs for Enabled SubSystem: '<S39>/Enabled Subsystem' incorporates:
 283:HANcoder_E407_TTA_CombineModel.c ****    *  EnablePort: '<S40>/Enable'
 284:HANcoder_E407_TTA_CombineModel.c ****    */
 285:HANcoder_E407_TTA_CombineModel.c ****   if (rtu_Enable > 0) {
 325              		.loc 1 285 3 view .LVU86
 274:HANcoder_E407_TTA_CombineModel.c ****   uint8_T rtb_In3_f;
 326              		.loc 1 274 1 is_stmt 0 view .LVU87
 327 0000 059B     		ldr	r3, [sp, #20]
 328              	.LVL16:
 329              		.loc 1 285 6 view .LVU88
 330 0002 0028     		cmp	r0, #0
 286:HANcoder_E407_TTA_CombineModel.c ****     /* SignalConversion generated from: '<S40>/In1' */
 287:HANcoder_E407_TTA_CombineModel.c ****     localB->In1 = rtu_In1;
 331              		.loc 1 287 5 is_stmt 1 view .LVU89
 332              		.loc 1 287 17 is_stmt 0 view .LVU90
 333 0004 C4BF     		itt	gt
 334 0006 1970     		strbgt	r1, [r3]
 288:HANcoder_E407_TTA_CombineModel.c **** 
 289:HANcoder_E407_TTA_CombineModel.c ****     /* SignalConversion generated from: '<S40>/In2' */
 290:HANcoder_E407_TTA_CombineModel.c ****     localB->In2 = rtu_In2;
 335              		.loc 1 290 5 is_stmt 1 view .LVU91
 336              		.loc 1 290 17 is_stmt 0 view .LVU92
 337 0008 5A70     		strbgt	r2, [r3, #1]
 291:HANcoder_E407_TTA_CombineModel.c **** 
 292:HANcoder_E407_TTA_CombineModel.c ****     /* SignalConversion generated from: '<S40>/In3' */
 293:HANcoder_E407_TTA_CombineModel.c ****     rtb_In3_f = rtu_In3;
 338              		.loc 1 293 5 is_stmt 1 view .LVU93
 339              	.LVL17:
 294:HANcoder_E407_TTA_CombineModel.c **** 
 295:HANcoder_E407_TTA_CombineModel.c ****     /* SignalConversion generated from: '<S40>/In4' */
 296:HANcoder_E407_TTA_CombineModel.c ****     rtb_In4_c = rtu_In4;
 340              		.loc 1 296 5 view .LVU94
 297:HANcoder_E407_TTA_CombineModel.c **** 
 298:HANcoder_E407_TTA_CombineModel.c ****     /* SignalConversion generated from: '<S40>/In5' */
 299:HANcoder_E407_TTA_CombineModel.c ****     rtb_In5_a = rtu_In5;
 341              		.loc 1 299 5 view .LVU95
 300:HANcoder_E407_TTA_CombineModel.c **** 
 301:HANcoder_E407_TTA_CombineModel.c ****     /* SignalConversion generated from: '<S40>/In6' */
 302:HANcoder_E407_TTA_CombineModel.c ****     rtb_In6_j = rtu_In6;
 342              		.loc 1 302 5 view .LVU96
 303:HANcoder_E407_TTA_CombineModel.c **** 
 304:HANcoder_E407_TTA_CombineModel.c ****     /* SignalConversion generated from: '<S40>/In7' */
 305:HANcoder_E407_TTA_CombineModel.c ****     rtb_In7_h = rtu_In7;
 343              		.loc 1 305 5 view .LVU97
 306:HANcoder_E407_TTA_CombineModel.c **** 
 307:HANcoder_E407_TTA_CombineModel.c ****     /* SignalConversion generated from: '<S40>/In8' */
 308:HANcoder_E407_TTA_CombineModel.c ****     rtb_In8_m = rtu_In8;
 344              		.loc 1 308 5 view .LVU98
 309:HANcoder_E407_TTA_CombineModel.c ****   }
 310:HANcoder_E407_TTA_CombineModel.c **** 
 311:HANcoder_E407_TTA_CombineModel.c ****   /* End of Outputs for SubSystem: '<S39>/Enabled Subsystem' */
 312:HANcoder_E407_TTA_CombineModel.c **** }
 345              		.loc 1 312 1 is_stmt 0 view .LVU99
 346 000a 7047     		bx	lr
 347              		.cfi_endproc
 348              	.LFE116:
 350              		.section	.text.MMBS1_RX_Disable,"ax",%progbits
 351              		.align	1
 352              		.p2align 2,,3
 353              		.global	MMBS1_RX_Disable
 354              		.syntax unified
 355              		.thumb
 356              		.thumb_func
 358              	MMBS1_RX_Disable:
 359              	.LVL18:
 360              	.LFB117:
 313:HANcoder_E407_TTA_CombineModel.c **** 
 314:HANcoder_E407_TTA_CombineModel.c **** /*
 315:HANcoder_E407_TTA_CombineModel.c ****  * Disable for enable system:
 316:HANcoder_E407_TTA_CombineModel.c ****  *    '<S11>/MMBS1_RX'
 317:HANcoder_E407_TTA_CombineModel.c ****  *    '<S11>/SSTM1_RX'
 318:HANcoder_E407_TTA_CombineModel.c ****  *    '<S11>/TRCK1_ID2_RX'
 319:HANcoder_E407_TTA_CombineModel.c ****  *    '<S11>/TRCK1_RX'
 320:HANcoder_E407_TTA_CombineModel.c ****  */
 321:HANcoder_E407_TTA_CombineModel.c **** void MMBS1_RX_Disable(rtDW_MMBS1_RX *localDW)
 322:HANcoder_E407_TTA_CombineModel.c **** {
 361              		.loc 1 322 1 is_stmt 1 view -0
 362              		.cfi_startproc
 363              		@ args = 0, pretend = 0, frame = 0
 364              		@ frame_needed = 0, uses_anonymous_args = 0
 365              		@ link register save eliminated.
 323:HANcoder_E407_TTA_CombineModel.c ****   localDW->MMBS1_RX_MODE = false;
 366              		.loc 1 323 3 view .LVU101
 367              		.loc 1 323 26 is_stmt 0 view .LVU102
 368 0000 0023     		movs	r3, #0
 369 0002 0370     		strb	r3, [r0]
 324:HANcoder_E407_TTA_CombineModel.c **** }
 370              		.loc 1 324 1 view .LVU103
 371 0004 7047     		bx	lr
 372              		.cfi_endproc
 373              	.LFE117:
 375 0006 00BF     		.section	.text.MMBS1_RX_Start,"ax",%progbits
 376              		.align	1
 377              		.p2align 2,,3
 378              		.global	MMBS1_RX_Start
 379              		.syntax unified
 380              		.thumb
 381              		.thumb_func
 383              	MMBS1_RX_Start:
 384              	.LVL19:
 385              	.LFB118:
 325:HANcoder_E407_TTA_CombineModel.c **** 
 326:HANcoder_E407_TTA_CombineModel.c **** /*
 327:HANcoder_E407_TTA_CombineModel.c ****  * Start for enable system:
 328:HANcoder_E407_TTA_CombineModel.c ****  *    '<S11>/MMBS1_RX'
 329:HANcoder_E407_TTA_CombineModel.c ****  *    '<S11>/SSTM1_RX'
 330:HANcoder_E407_TTA_CombineModel.c ****  *    '<S11>/TRCK1_ID2_RX'
 331:HANcoder_E407_TTA_CombineModel.c ****  *    '<S11>/TRCK1_RX'
 332:HANcoder_E407_TTA_CombineModel.c ****  */
 333:HANcoder_E407_TTA_CombineModel.c **** void MMBS1_RX_Start(uint32_T rtu_In1)
 334:HANcoder_E407_TTA_CombineModel.c **** {
 386              		.loc 1 334 1 is_stmt 1 view -0
 387              		.cfi_startproc
 388              		@ args = 0, pretend = 0, frame = 0
 389              		@ frame_needed = 0, uses_anonymous_args = 0
 390              		@ link register save eliminated.
 335:HANcoder_E407_TTA_CombineModel.c ****   /* Start for M-S-Function: '<S39>/S-Function' */
 336:HANcoder_E407_TTA_CombineModel.c **** 
 337:HANcoder_E407_TTA_CombineModel.c ****   /* register a CAN storage buffer for the message with this ID */
 338:HANcoder_E407_TTA_CombineModel.c ****   CanIoCreateMessageReceivedStorage(0, rtu_In1);
 391              		.loc 1 338 3 view .LVU105
 334:HANcoder_E407_TTA_CombineModel.c ****   /* Start for M-S-Function: '<S39>/S-Function' */
 392              		.loc 1 334 1 is_stmt 0 view .LVU106
 393 0000 0146     		mov	r1, r0
 394              		.loc 1 338 3 view .LVU107
 395 0002 0020     		movs	r0, #0
 396              	.LVL20:
 397              		.loc 1 338 3 view .LVU108
 398 0004 FFF7FEBF 		b	CanIoCreateMessageReceivedStorage
 399              	.LVL21:
 400              		.loc 1 338 3 view .LVU109
 401              		.cfi_endproc
 402              	.LFE118:
 404              		.section	.text.MMBS1_RX,"ax",%progbits
 405              		.align	1
 406              		.p2align 2,,3
 407              		.global	MMBS1_RX
 408              		.syntax unified
 409              		.thumb
 410              		.thumb_func
 412              	MMBS1_RX:
 413              	.LVL22:
 414              	.LFB119:
 339:HANcoder_E407_TTA_CombineModel.c **** }
 340:HANcoder_E407_TTA_CombineModel.c **** 
 341:HANcoder_E407_TTA_CombineModel.c **** /*
 342:HANcoder_E407_TTA_CombineModel.c ****  * Outputs for enable system:
 343:HANcoder_E407_TTA_CombineModel.c ****  *    '<S11>/MMBS1_RX'
 344:HANcoder_E407_TTA_CombineModel.c ****  *    '<S11>/SSTM1_RX'
 345:HANcoder_E407_TTA_CombineModel.c ****  *    '<S11>/TRCK1_ID2_RX'
 346:HANcoder_E407_TTA_CombineModel.c ****  *    '<S11>/TRCK1_RX'
 347:HANcoder_E407_TTA_CombineModel.c ****  */
 348:HANcoder_E407_TTA_CombineModel.c **** void MMBS1_RX(boolean_T rtu_Enable, uint32_T rtu_In1, rtB_MMBS1_RX *localB,
 349:HANcoder_E407_TTA_CombineModel.c ****               rtDW_MMBS1_RX *localDW)
 350:HANcoder_E407_TTA_CombineModel.c **** {
 415              		.loc 1 350 1 is_stmt 1 view -0
 416              		.cfi_startproc
 417              		@ args = 0, pretend = 0, frame = 0
 418              		@ frame_needed = 0, uses_anonymous_args = 0
 351:HANcoder_E407_TTA_CombineModel.c ****   /* local block i/o variables */
 352:HANcoder_E407_TTA_CombineModel.c ****   uint8_T rtb_SFunction_o2_n;
 419              		.loc 1 352 3 view .LVU111
 353:HANcoder_E407_TTA_CombineModel.c ****   uint8_T rtb_SFunction_o3_b;
 420              		.loc 1 353 3 view .LVU112
 354:HANcoder_E407_TTA_CombineModel.c ****   uint8_T rtb_SFunction_o4_l;
 421              		.loc 1 354 3 view .LVU113
 355:HANcoder_E407_TTA_CombineModel.c ****   uint8_T rtb_SFunction_o5_e;
 422              		.loc 1 355 3 view .LVU114
 356:HANcoder_E407_TTA_CombineModel.c ****   uint8_T rtb_SFunction_o6_k;
 423              		.loc 1 356 3 view .LVU115
 357:HANcoder_E407_TTA_CombineModel.c ****   uint8_T rtb_SFunction_o7_dj;
 424              		.loc 1 357 3 view .LVU116
 358:HANcoder_E407_TTA_CombineModel.c ****   uint8_T rtb_SFunction_o8_n1;
 425              		.loc 1 358 3 view .LVU117
 359:HANcoder_E407_TTA_CombineModel.c ****   uint8_T rtb_SFunction_o9_o;
 426              		.loc 1 359 3 view .LVU118
 360:HANcoder_E407_TTA_CombineModel.c ****   int8_T rtb_SFunction_o1_g;
 427              		.loc 1 360 3 view .LVU119
 361:HANcoder_E407_TTA_CombineModel.c **** 
 362:HANcoder_E407_TTA_CombineModel.c ****   /* Outputs for Enabled SubSystem: '<S11>/MMBS1_RX' incorporates:
 363:HANcoder_E407_TTA_CombineModel.c ****    *  EnablePort: '<S21>/Enable'
 364:HANcoder_E407_TTA_CombineModel.c ****    */
 365:HANcoder_E407_TTA_CombineModel.c ****   if (rtu_Enable) {
 428              		.loc 1 365 3 view .LVU120
 429              		.loc 1 365 6 is_stmt 0 view .LVU121
 430 0000 20B9     		cbnz	r0, .L39
 431              	.LVL23:
 432              	.LBB59:
 433              	.LBI59:
 348:HANcoder_E407_TTA_CombineModel.c ****               rtDW_MMBS1_RX *localDW)
 434              		.loc 1 348 6 is_stmt 1 view .LVU122
 435              	.LBB60:
 366:HANcoder_E407_TTA_CombineModel.c ****     localDW->MMBS1_RX_MODE = true;
 367:HANcoder_E407_TTA_CombineModel.c **** 
 368:HANcoder_E407_TTA_CombineModel.c ****     /* M-S-Function: '<S39>/S-Function' */
 369:HANcoder_E407_TTA_CombineModel.c **** 
 370:HANcoder_E407_TTA_CombineModel.c ****     /* read the message data and store the new parameter */
 371:HANcoder_E407_TTA_CombineModel.c ****     rtb_SFunction_o1_g = CanIoGetMessage(0, rtu_In1, NULL,
 372:HANcoder_E407_TTA_CombineModel.c ****       &canRxData_0_rtu_In1.uint8_T_info[0], NULL);
 373:HANcoder_E407_TTA_CombineModel.c **** 
 374:HANcoder_E407_TTA_CombineModel.c ****     /* process the message data */
 375:HANcoder_E407_TTA_CombineModel.c ****     if (rtb_SFunction_o1_g > 0) {
 376:HANcoder_E407_TTA_CombineModel.c ****       /* read the data */
 377:HANcoder_E407_TTA_CombineModel.c ****       rtb_SFunction_o2_n = canRxData_0_rtu_In1.uint8_T_info[0];
 378:HANcoder_E407_TTA_CombineModel.c ****       rtb_SFunction_o3_b = canRxData_0_rtu_In1.uint8_T_info[1];
 379:HANcoder_E407_TTA_CombineModel.c ****       rtb_SFunction_o4_l = canRxData_0_rtu_In1.uint8_T_info[2];
 380:HANcoder_E407_TTA_CombineModel.c ****       rtb_SFunction_o5_e = canRxData_0_rtu_In1.uint8_T_info[3];
 381:HANcoder_E407_TTA_CombineModel.c ****       rtb_SFunction_o6_k = canRxData_0_rtu_In1.uint8_T_info[4];
 382:HANcoder_E407_TTA_CombineModel.c ****       rtb_SFunction_o7_dj = canRxData_0_rtu_In1.uint8_T_info[5];
 383:HANcoder_E407_TTA_CombineModel.c ****       rtb_SFunction_o8_n1 = canRxData_0_rtu_In1.uint8_T_info[6];
 384:HANcoder_E407_TTA_CombineModel.c ****       rtb_SFunction_o9_o = canRxData_0_rtu_In1.uint8_T_info[7];
 385:HANcoder_E407_TTA_CombineModel.c ****     }
 386:HANcoder_E407_TTA_CombineModel.c **** 
 387:HANcoder_E407_TTA_CombineModel.c ****     /* Outputs for Enabled SubSystem: '<S39>/Enabled Subsystem' */
 388:HANcoder_E407_TTA_CombineModel.c ****     EnabledSubsystem(rtb_SFunction_o1_g, rtb_SFunction_o2_n, rtb_SFunction_o3_b,
 389:HANcoder_E407_TTA_CombineModel.c ****                      rtb_SFunction_o4_l, rtb_SFunction_o5_e, rtb_SFunction_o6_k,
 390:HANcoder_E407_TTA_CombineModel.c ****                      rtb_SFunction_o7_dj, rtb_SFunction_o8_n1,
 391:HANcoder_E407_TTA_CombineModel.c ****                      rtb_SFunction_o9_o, &localB->EnabledSubsystem_k);
 392:HANcoder_E407_TTA_CombineModel.c **** 
 393:HANcoder_E407_TTA_CombineModel.c ****     /* End of Outputs for SubSystem: '<S39>/Enabled Subsystem' */
 394:HANcoder_E407_TTA_CombineModel.c ****   } else if (localDW->MMBS1_RX_MODE) {
 436              		.loc 1 394 10 view .LVU123
 437              		.loc 1 394 13 is_stmt 0 view .LVU124
 438 0002 1A78     		ldrb	r2, [r3]	@ zero_extendqisi2
 439              	.LVL24:
 440              		.loc 1 394 13 view .LVU125
 441 0004 0AB1     		cbz	r2, .L36
 395:HANcoder_E407_TTA_CombineModel.c ****     MMBS1_RX_Disable(localDW);
 442              		.loc 1 395 5 is_stmt 1 view .LVU126
 443              	.LVL25:
 444              	.LBB61:
 445              	.LBI61:
 321:HANcoder_E407_TTA_CombineModel.c **** {
 446              		.loc 1 321 6 view .LVU127
 447              	.LBB62:
 323:HANcoder_E407_TTA_CombineModel.c **** }
 448              		.loc 1 323 3 view .LVU128
 323:HANcoder_E407_TTA_CombineModel.c **** }
 449              		.loc 1 323 26 is_stmt 0 view .LVU129
 450 0006 1870     		strb	r0, [r3]
 451              	.LVL26:
 323:HANcoder_E407_TTA_CombineModel.c **** }
 452              		.loc 1 323 26 view .LVU130
 453              	.LBE62:
 454              	.LBE61:
 455              	.LBE60:
 456              	.LBE59:
 396:HANcoder_E407_TTA_CombineModel.c ****   }
 397:HANcoder_E407_TTA_CombineModel.c **** 
 398:HANcoder_E407_TTA_CombineModel.c ****   /* End of Outputs for SubSystem: '<S11>/MMBS1_RX' */
 399:HANcoder_E407_TTA_CombineModel.c **** }
 457              		.loc 1 399 1 view .LVU131
 458 0008 7047     		bx	lr
 459              	.LVL27:
 460              	.L36:
 461              		.loc 1 399 1 view .LVU132
 462 000a 7047     		bx	lr
 463              	.LVL28:
 464              	.L39:
 366:HANcoder_E407_TTA_CombineModel.c **** 
 465              		.loc 1 366 5 is_stmt 1 view .LVU133
 350:HANcoder_E407_TTA_CombineModel.c ****   /* local block i/o variables */
 466              		.loc 1 350 1 is_stmt 0 view .LVU134
 467 000c 30B5     		push	{r4, r5, lr}
 468              		.cfi_def_cfa_offset 12
 469              		.cfi_offset 4, -12
 470              		.cfi_offset 5, -8
 471              		.cfi_offset 14, -4
 371:HANcoder_E407_TTA_CombineModel.c ****       &canRxData_0_rtu_In1.uint8_T_info[0], NULL);
 472              		.loc 1 371 26 view .LVU135
 473 000e 094D     		ldr	r5, .L40
 350:HANcoder_E407_TTA_CombineModel.c ****   /* local block i/o variables */
 474              		.loc 1 350 1 view .LVU136
 475 0010 83B0     		sub	sp, sp, #12
 476              		.cfi_def_cfa_offset 24
 366:HANcoder_E407_TTA_CombineModel.c **** 
 477              		.loc 1 366 28 view .LVU137
 478 0012 0120     		movs	r0, #1
 479              	.LVL29:
 366:HANcoder_E407_TTA_CombineModel.c **** 
 480              		.loc 1 366 28 view .LVU138
 481 0014 1446     		mov	r4, r2
 371:HANcoder_E407_TTA_CombineModel.c ****       &canRxData_0_rtu_In1.uint8_T_info[0], NULL);
 482              		.loc 1 371 26 view .LVU139
 483 0016 0022     		movs	r2, #0
 484              	.LVL30:
 366:HANcoder_E407_TTA_CombineModel.c **** 
 485              		.loc 1 366 28 view .LVU140
 486 0018 1870     		strb	r0, [r3]
 371:HANcoder_E407_TTA_CombineModel.c ****       &canRxData_0_rtu_In1.uint8_T_info[0], NULL);
 487              		.loc 1 371 5 is_stmt 1 view .LVU141
 371:HANcoder_E407_TTA_CombineModel.c ****       &canRxData_0_rtu_In1.uint8_T_info[0], NULL);
 488              		.loc 1 371 26 is_stmt 0 view .LVU142
 489 001a 0092     		str	r2, [sp]
 490 001c 2B46     		mov	r3, r5
 491              	.LVL31:
 371:HANcoder_E407_TTA_CombineModel.c ****       &canRxData_0_rtu_In1.uint8_T_info[0], NULL);
 492              		.loc 1 371 26 view .LVU143
 493 001e 1046     		mov	r0, r2
 494 0020 FFF7FEFF 		bl	CanIoGetMessage
 495              	.LVL32:
 375:HANcoder_E407_TTA_CombineModel.c ****       /* read the data */
 496              		.loc 1 375 5 is_stmt 1 view .LVU144
 375:HANcoder_E407_TTA_CombineModel.c ****       /* read the data */
 497              		.loc 1 375 8 is_stmt 0 view .LVU145
 498 0024 0028     		cmp	r0, #0
 499 0026 03DD     		ble	.L27
 377:HANcoder_E407_TTA_CombineModel.c ****       rtb_SFunction_o3_b = canRxData_0_rtu_In1.uint8_T_info[1];
 500              		.loc 1 377 7 is_stmt 1 view .LVU146
 501              	.LVL33:
 378:HANcoder_E407_TTA_CombineModel.c ****       rtb_SFunction_o4_l = canRxData_0_rtu_In1.uint8_T_info[2];
 502              		.loc 1 378 7 view .LVU147
 378:HANcoder_E407_TTA_CombineModel.c ****       rtb_SFunction_o4_l = canRxData_0_rtu_In1.uint8_T_info[2];
 503              		.loc 1 378 26 is_stmt 0 view .LVU148
 504 0028 6B78     		ldrb	r3, [r5, #1]	@ zero_extendqisi2
 505              	.LVL34:
 379:HANcoder_E407_TTA_CombineModel.c ****       rtb_SFunction_o5_e = canRxData_0_rtu_In1.uint8_T_info[3];
 506              		.loc 1 379 7 is_stmt 1 view .LVU149
 380:HANcoder_E407_TTA_CombineModel.c ****       rtb_SFunction_o6_k = canRxData_0_rtu_In1.uint8_T_info[4];
 507              		.loc 1 380 7 view .LVU150
 381:HANcoder_E407_TTA_CombineModel.c ****       rtb_SFunction_o7_dj = canRxData_0_rtu_In1.uint8_T_info[5];
 508              		.loc 1 381 7 view .LVU151
 382:HANcoder_E407_TTA_CombineModel.c ****       rtb_SFunction_o8_n1 = canRxData_0_rtu_In1.uint8_T_info[6];
 509              		.loc 1 382 7 view .LVU152
 383:HANcoder_E407_TTA_CombineModel.c ****       rtb_SFunction_o9_o = canRxData_0_rtu_In1.uint8_T_info[7];
 510              		.loc 1 383 7 view .LVU153
 384:HANcoder_E407_TTA_CombineModel.c ****     }
 511              		.loc 1 384 7 view .LVU154
 388:HANcoder_E407_TTA_CombineModel.c ****                      rtb_SFunction_o4_l, rtb_SFunction_o5_e, rtb_SFunction_o6_k,
 512              		.loc 1 388 5 view .LVU155
 513              	.LBB63:
 514              	.LBI63:
 270:HANcoder_E407_TTA_CombineModel.c ****                       uint8_T rtu_In3, uint8_T rtu_In4, uint8_T rtu_In5, uint8_T
 515              		.loc 1 270 6 view .LVU156
 516              	.LBB64:
 275:HANcoder_E407_TTA_CombineModel.c ****   uint8_T rtb_In4_c;
 517              		.loc 1 275 3 view .LVU157
 276:HANcoder_E407_TTA_CombineModel.c ****   uint8_T rtb_In5_a;
 518              		.loc 1 276 3 view .LVU158
 277:HANcoder_E407_TTA_CombineModel.c ****   uint8_T rtb_In6_j;
 519              		.loc 1 277 3 view .LVU159
 278:HANcoder_E407_TTA_CombineModel.c ****   uint8_T rtb_In7_h;
 520              		.loc 1 278 3 view .LVU160
 279:HANcoder_E407_TTA_CombineModel.c ****   uint8_T rtb_In8_m;
 521              		.loc 1 279 3 view .LVU161
 280:HANcoder_E407_TTA_CombineModel.c **** 
 522              		.loc 1 280 3 view .LVU162
 285:HANcoder_E407_TTA_CombineModel.c ****     /* SignalConversion generated from: '<S40>/In1' */
 523              		.loc 1 285 3 view .LVU163
 287:HANcoder_E407_TTA_CombineModel.c **** 
 524              		.loc 1 287 5 view .LVU164
 287:HANcoder_E407_TTA_CombineModel.c **** 
 525              		.loc 1 287 17 is_stmt 0 view .LVU165
 526 002a 2A78     		ldrb	r2, [r5]	@ zero_extendqisi2
 527 002c 2270     		strb	r2, [r4]
 528              	.LVL35:
 290:HANcoder_E407_TTA_CombineModel.c **** 
 529              		.loc 1 290 5 is_stmt 1 view .LVU166
 290:HANcoder_E407_TTA_CombineModel.c **** 
 530              		.loc 1 290 17 is_stmt 0 view .LVU167
 531 002e 6370     		strb	r3, [r4, #1]
 293:HANcoder_E407_TTA_CombineModel.c **** 
 532              		.loc 1 293 5 is_stmt 1 view .LVU168
 296:HANcoder_E407_TTA_CombineModel.c **** 
 533              		.loc 1 296 5 view .LVU169
 299:HANcoder_E407_TTA_CombineModel.c **** 
 534              		.loc 1 299 5 view .LVU170
 302:HANcoder_E407_TTA_CombineModel.c **** 
 535              		.loc 1 302 5 view .LVU171
 305:HANcoder_E407_TTA_CombineModel.c **** 
 536              		.loc 1 305 5 view .LVU172
 308:HANcoder_E407_TTA_CombineModel.c ****   }
 537              		.loc 1 308 5 view .LVU173
 538              	.LVL36:
 539              	.L27:
 308:HANcoder_E407_TTA_CombineModel.c ****   }
 540              		.loc 1 308 5 is_stmt 0 view .LVU174
 541              	.LBE64:
 542              	.LBE63:
 543              		.loc 1 399 1 view .LVU175
 544 0030 03B0     		add	sp, sp, #12
 545              		.cfi_def_cfa_offset 12
 546              		@ sp needed
 547 0032 30BD     		pop	{r4, r5, pc}
 548              	.LVL37:
 549              	.L41:
 550              		.loc 1 399 1 view .LVU176
 551              		.align	2
 552              	.L40:
 553 0034 00000000 		.word	.LANCHOR8
 554              		.cfi_endproc
 555              	.LFE119:
 557              		.section	.text.MMBS1_TX,"ax",%progbits
 558              		.align	1
 559              		.p2align 2,,3
 560              		.global	MMBS1_TX
 561              		.syntax unified
 562              		.thumb
 563              		.thumb_func
 565              	MMBS1_TX:
 566              	.LVL38:
 567              	.LFB120:
 400:HANcoder_E407_TTA_CombineModel.c **** 
 401:HANcoder_E407_TTA_CombineModel.c **** /*
 402:HANcoder_E407_TTA_CombineModel.c ****  * Output and update for trigger system:
 403:HANcoder_E407_TTA_CombineModel.c ****  *    '<S11>/MMBS1_TX'
 404:HANcoder_E407_TTA_CombineModel.c ****  *    '<S11>/SSTM1_TX'
 405:HANcoder_E407_TTA_CombineModel.c ****  *    '<S11>/TRCK1_ID2_TX'
 406:HANcoder_E407_TTA_CombineModel.c ****  *    '<S11>/TRCK1_ID3_TX'
 407:HANcoder_E407_TTA_CombineModel.c ****  *    '<S11>/TRCK1_TX'
 408:HANcoder_E407_TTA_CombineModel.c ****  *    '<S11>/TRLS_ID5_TX'
 409:HANcoder_E407_TTA_CombineModel.c ****  */
 410:HANcoder_E407_TTA_CombineModel.c **** void MMBS1_TX(boolean_T rtu_Trigger, uint32_T rtu_In1, rtZCE_MMBS1_TX *localZCE)
 411:HANcoder_E407_TTA_CombineModel.c **** {
 568              		.loc 1 411 1 is_stmt 1 view -0
 569              		.cfi_startproc
 570              		@ args = 0, pretend = 0, frame = 0
 571              		@ frame_needed = 0, uses_anonymous_args = 0
 412:HANcoder_E407_TTA_CombineModel.c ****   /* Outputs for Triggered SubSystem: '<S11>/MMBS1_TX' incorporates:
 413:HANcoder_E407_TTA_CombineModel.c ****    *  TriggerPort: '<S22>/Trigger'
 414:HANcoder_E407_TTA_CombineModel.c ****    */
 415:HANcoder_E407_TTA_CombineModel.c ****   if (rtu_Trigger && (localZCE->MMBS1_TX_Trig_ZCE != POS_ZCSIG)) {
 572              		.loc 1 415 3 view .LVU178
 411:HANcoder_E407_TTA_CombineModel.c ****   /* Outputs for Triggered SubSystem: '<S11>/MMBS1_TX' incorporates:
 573              		.loc 1 411 1 is_stmt 0 view .LVU179
 574 0000 38B5     		push	{r3, r4, r5, lr}
 575              		.cfi_def_cfa_offset 16
 576              		.cfi_offset 3, -16
 577              		.cfi_offset 4, -12
 578              		.cfi_offset 5, -8
 579              		.cfi_offset 14, -4
 411:HANcoder_E407_TTA_CombineModel.c ****   /* Outputs for Triggered SubSystem: '<S11>/MMBS1_TX' incorporates:
 580              		.loc 1 411 1 view .LVU180
 581 0002 1546     		mov	r5, r2
 582              		.loc 1 415 6 view .LVU181
 583 0004 0446     		mov	r4, r0
 584 0006 10B1     		cbz	r0, .L43
 585              		.loc 1 415 19 discriminator 1 view .LVU182
 586 0008 1378     		ldrb	r3, [r2]	@ zero_extendqisi2
 587 000a 012B     		cmp	r3, #1
 588 000c 01D1     		bne	.L51
 589              	.L43:
 416:HANcoder_E407_TTA_CombineModel.c ****     /* Update for M-S-Function: '<S41>/S-Function' */
 417:HANcoder_E407_TTA_CombineModel.c ****     {
 418:HANcoder_E407_TTA_CombineModel.c ****       /* prepare the data */
 419:HANcoder_E407_TTA_CombineModel.c ****       canTxData.uint8_T_info[0] = 0U;
 420:HANcoder_E407_TTA_CombineModel.c **** 
 421:HANcoder_E407_TTA_CombineModel.c ****       /* send the data */
 422:HANcoder_E407_TTA_CombineModel.c ****       CanTransmit(0, rtu_In1, 1, &canTxData.uint8_T_info[0]);
 423:HANcoder_E407_TTA_CombineModel.c ****     }
 424:HANcoder_E407_TTA_CombineModel.c ****   }
 425:HANcoder_E407_TTA_CombineModel.c **** 
 426:HANcoder_E407_TTA_CombineModel.c ****   localZCE->MMBS1_TX_Trig_ZCE = rtu_Trigger;
 590              		.loc 1 426 3 is_stmt 1 view .LVU183
 591              		.loc 1 426 31 is_stmt 0 view .LVU184
 592 000e 2C70     		strb	r4, [r5]
 427:HANcoder_E407_TTA_CombineModel.c **** 
 428:HANcoder_E407_TTA_CombineModel.c ****   /* End of Outputs for SubSystem: '<S11>/MMBS1_TX' */
 429:HANcoder_E407_TTA_CombineModel.c **** }
 593              		.loc 1 429 1 view .LVU185
 594 0010 38BD     		pop	{r3, r4, r5, pc}
 595              	.L51:
 419:HANcoder_E407_TTA_CombineModel.c **** 
 596              		.loc 1 419 7 is_stmt 1 view .LVU186
 419:HANcoder_E407_TTA_CombineModel.c **** 
 597              		.loc 1 419 33 is_stmt 0 view .LVU187
 598 0012 044B     		ldr	r3, .L52
 599 0014 0020     		movs	r0, #0
 600              	.LVL39:
 419:HANcoder_E407_TTA_CombineModel.c **** 
 601              		.loc 1 419 33 view .LVU188
 602 0016 1870     		strb	r0, [r3]
 422:HANcoder_E407_TTA_CombineModel.c ****     }
 603              		.loc 1 422 7 is_stmt 1 view .LVU189
 604 0018 0122     		movs	r2, #1
 605              	.LVL40:
 422:HANcoder_E407_TTA_CombineModel.c ****     }
 606              		.loc 1 422 7 is_stmt 0 view .LVU190
 607 001a FFF7FEFF 		bl	CanTransmit
 608              	.LVL41:
 426:HANcoder_E407_TTA_CombineModel.c **** 
 609              		.loc 1 426 3 is_stmt 1 view .LVU191
 426:HANcoder_E407_TTA_CombineModel.c **** 
 610              		.loc 1 426 31 is_stmt 0 view .LVU192
 611 001e 2C70     		strb	r4, [r5]
 612              		.loc 1 429 1 view .LVU193
 613 0020 38BD     		pop	{r3, r4, r5, pc}
 614              	.LVL42:
 615              	.L53:
 616              		.loc 1 429 1 view .LVU194
 617 0022 00BF     		.align	2
 618              	.L52:
 619 0024 00000000 		.word	.LANCHOR9
 620              		.cfi_endproc
 621              	.LFE120:
 623              		.section	.text.BitShift,"ax",%progbits
 624              		.align	1
 625              		.p2align 2,,3
 626              		.global	BitShift
 627              		.syntax unified
 628              		.thumb
 629              		.thumb_func
 631              	BitShift:
 632              	.LVL43:
 633              	.LFB121:
 430:HANcoder_E407_TTA_CombineModel.c **** 
 431:HANcoder_E407_TTA_CombineModel.c **** /*
 432:HANcoder_E407_TTA_CombineModel.c ****  * Output and update for atomic system:
 433:HANcoder_E407_TTA_CombineModel.c ****  *    '<S57>/Bit Shift'
 434:HANcoder_E407_TTA_CombineModel.c ****  *    '<S66>/Bit Shift'
 435:HANcoder_E407_TTA_CombineModel.c ****  */
 436:HANcoder_E407_TTA_CombineModel.c **** void BitShift(uint16_T rtu_u, rtB_BitShift *localB)
 437:HANcoder_E407_TTA_CombineModel.c **** {
 634              		.loc 1 437 1 is_stmt 1 view -0
 635              		.cfi_startproc
 636              		@ args = 0, pretend = 0, frame = 0
 637              		@ frame_needed = 0, uses_anonymous_args = 0
 638              		@ link register save eliminated.
 438:HANcoder_E407_TTA_CombineModel.c ****   /* MATLAB Function: '<S59>/bit_shift' */
 439:HANcoder_E407_TTA_CombineModel.c ****   /* MATLAB Function 'Logic and Bit Operations/Bit Shift/bit_shift': '<S60>:1' */
 440:HANcoder_E407_TTA_CombineModel.c ****   /* '<S60>:1:6' */
 441:HANcoder_E407_TTA_CombineModel.c ****   localB->y = (uint16_T)(rtu_u << 8);
 639              		.loc 1 441 3 view .LVU196
 640              		.loc 1 441 15 is_stmt 0 view .LVU197
 641 0000 0002     		lsls	r0, r0, #8
 642              	.LVL44:
 643              		.loc 1 441 13 view .LVU198
 644 0002 0880     		strh	r0, [r1]	@ movhi
 442:HANcoder_E407_TTA_CombineModel.c **** }
 645              		.loc 1 442 1 view .LVU199
 646 0004 7047     		bx	lr
 647              		.cfi_endproc
 648              	.LFE121:
 650              		.global	__aeabi_dcmpeq
 651              		.global	__aeabi_dmul
 652              		.global	__aeabi_ui2d
 653              		.global	__aeabi_dadd
 654              		.global	__aeabi_dsub
 655              		.global	__aeabi_dcmplt
 656              		.global	__aeabi_dcmpgt
 657              		.global	__aeabi_ddiv
 658              		.global	__aeabi_d2iz
 659              		.global	__aeabi_i2d
 660 0006 00BF     		.section	.rodata.HANcoder_E407_TTA_CombineModel_step.str1.4,"aMS",%progbits,1
 661              		.align	2
 662              	.LC0:
 663 0000 41707043 		.ascii	"AppCtrlTask\000"
 663      74726C54 
 663      61736B00 
 664              		.section	.text.HANcoder_E407_TTA_CombineModel_step,"ax",%progbits
 665              		.align	1
 666              		.p2align 2,,3
 667              		.global	HANcoder_E407_TTA_CombineModel_step
 668              		.syntax unified
 669              		.thumb
 670              		.thumb_func
 672              	HANcoder_E407_TTA_CombineModel_step:
 673              	.LFB123:
 443:HANcoder_E407_TTA_CombineModel.c **** 
 444:HANcoder_E407_TTA_CombineModel.c **** static void SystemCore_setup(dsp_simulink_MovingAverage *obj)
 445:HANcoder_E407_TTA_CombineModel.c **** {
 446:HANcoder_E407_TTA_CombineModel.c ****   obj->isSetupComplete = false;
 447:HANcoder_E407_TTA_CombineModel.c ****   obj->isInitialized = 1;
 448:HANcoder_E407_TTA_CombineModel.c ****   obj->NumChannels = 1;
 449:HANcoder_E407_TTA_CombineModel.c ****   obj->FrameLength = 1;
 450:HANcoder_E407_TTA_CombineModel.c ****   obj->_pobj0.isInitialized = 0;
 451:HANcoder_E407_TTA_CombineModel.c ****   obj->_pobj0.isInitialized = 0;
 452:HANcoder_E407_TTA_CombineModel.c ****   obj->pStatistic = &obj->_pobj0;
 453:HANcoder_E407_TTA_CombineModel.c ****   obj->isSetupComplete = true;
 454:HANcoder_E407_TTA_CombineModel.c ****   obj->TunablePropsChanged = false;
 455:HANcoder_E407_TTA_CombineModel.c **** }
 456:HANcoder_E407_TTA_CombineModel.c **** 
 457:HANcoder_E407_TTA_CombineModel.c **** /* Model step function */
 458:HANcoder_E407_TTA_CombineModel.c **** void HANcoder_E407_TTA_CombineModel_step(void)
 459:HANcoder_E407_TTA_CombineModel.c **** {
 674              		.loc 1 459 1 is_stmt 1 view -0
 675              		.cfi_startproc
 676              		@ args = 0, pretend = 0, frame = 96
 677              		@ frame_needed = 0, uses_anonymous_args = 0
 460:HANcoder_E407_TTA_CombineModel.c ****   /* local block i/o variables */
 461:HANcoder_E407_TTA_CombineModel.c ****   int32_T rtb_Level2MfileSFunction_k;
 678              		.loc 1 461 3 view .LVU201
 462:HANcoder_E407_TTA_CombineModel.c ****   uint16_T rtb_Level2MfileSFunction_g;
 679              		.loc 1 462 3 view .LVU202
 463:HANcoder_E407_TTA_CombineModel.c ****   uint16_T rtb_Level2MfileSFunction_d;
 680              		.loc 1 463 3 view .LVU203
 464:HANcoder_E407_TTA_CombineModel.c ****   uint16_T rtb_Switch1;
 681              		.loc 1 464 3 view .LVU204
 465:HANcoder_E407_TTA_CombineModel.c ****   uint8_T rtb_SFunction_o2;
 682              		.loc 1 465 3 view .LVU205
 466:HANcoder_E407_TTA_CombineModel.c ****   uint8_T rtb_SFunction_o3;
 683              		.loc 1 466 3 view .LVU206
 467:HANcoder_E407_TTA_CombineModel.c ****   uint8_T rtb_SFunction_o4;
 684              		.loc 1 467 3 view .LVU207
 468:HANcoder_E407_TTA_CombineModel.c ****   uint8_T rtb_SFunction_o5;
 685              		.loc 1 468 3 view .LVU208
 469:HANcoder_E407_TTA_CombineModel.c ****   uint8_T rtb_SFunction_o6;
 686              		.loc 1 469 3 view .LVU209
 470:HANcoder_E407_TTA_CombineModel.c ****   uint8_T rtb_SFunction_o7;
 687              		.loc 1 470 3 view .LVU210
 471:HANcoder_E407_TTA_CombineModel.c ****   uint8_T rtb_SFunction_o8;
 688              		.loc 1 471 3 view .LVU211
 472:HANcoder_E407_TTA_CombineModel.c ****   uint8_T rtb_SFunction_o9;
 689              		.loc 1 472 3 view .LVU212
 473:HANcoder_E407_TTA_CombineModel.c ****   uint8_T rtb_SFunction_o2_l;
 690              		.loc 1 473 3 view .LVU213
 474:HANcoder_E407_TTA_CombineModel.c ****   uint8_T rtb_SFunction_o3_m;
 691              		.loc 1 474 3 view .LVU214
 475:HANcoder_E407_TTA_CombineModel.c ****   uint8_T rtb_SFunction_o4_b;
 692              		.loc 1 475 3 view .LVU215
 476:HANcoder_E407_TTA_CombineModel.c ****   uint8_T rtb_SFunction_o5_o;
 693              		.loc 1 476 3 view .LVU216
 477:HANcoder_E407_TTA_CombineModel.c ****   uint8_T rtb_SFunction_o6_i;
 694              		.loc 1 477 3 view .LVU217
 478:HANcoder_E407_TTA_CombineModel.c ****   uint8_T rtb_SFunction_o7_f;
 695              		.loc 1 478 3 view .LVU218
 479:HANcoder_E407_TTA_CombineModel.c ****   uint8_T rtb_SFunction_o8_p;
 696              		.loc 1 479 3 view .LVU219
 480:HANcoder_E407_TTA_CombineModel.c ****   uint8_T rtb_SFunction_o9_l;
 697              		.loc 1 480 3 view .LVU220
 481:HANcoder_E407_TTA_CombineModel.c ****   uint8_T rtb_SFunction_o2_e;
 698              		.loc 1 481 3 view .LVU221
 482:HANcoder_E407_TTA_CombineModel.c ****   uint8_T rtb_SFunction_o3_p;
 699              		.loc 1 482 3 view .LVU222
 483:HANcoder_E407_TTA_CombineModel.c ****   uint8_T rtb_SFunction_o4_c;
 700              		.loc 1 483 3 view .LVU223
 484:HANcoder_E407_TTA_CombineModel.c ****   uint8_T rtb_SFunction_o5_c;
 701              		.loc 1 484 3 view .LVU224
 485:HANcoder_E407_TTA_CombineModel.c ****   uint8_T rtb_SFunction_o6_e;
 702              		.loc 1 485 3 view .LVU225
 486:HANcoder_E407_TTA_CombineModel.c ****   uint8_T rtb_SFunction_o7_l;
 703              		.loc 1 486 3 view .LVU226
 487:HANcoder_E407_TTA_CombineModel.c ****   uint8_T rtb_SFunction_o8_f;
 704              		.loc 1 487 3 view .LVU227
 488:HANcoder_E407_TTA_CombineModel.c ****   uint8_T rtb_SFunction_o9_h;
 705              		.loc 1 488 3 view .LVU228
 489:HANcoder_E407_TTA_CombineModel.c ****   uint8_T rtb_SFunction_o2_j;
 706              		.loc 1 489 3 view .LVU229
 490:HANcoder_E407_TTA_CombineModel.c ****   uint8_T rtb_SFunction_o3_a;
 707              		.loc 1 490 3 view .LVU230
 491:HANcoder_E407_TTA_CombineModel.c ****   uint8_T rtb_SFunction_o4_i;
 708              		.loc 1 491 3 view .LVU231
 492:HANcoder_E407_TTA_CombineModel.c ****   uint8_T rtb_SFunction_o5_k;
 709              		.loc 1 492 3 view .LVU232
 493:HANcoder_E407_TTA_CombineModel.c ****   uint8_T rtb_SFunction_o6_c;
 710              		.loc 1 493 3 view .LVU233
 494:HANcoder_E407_TTA_CombineModel.c ****   uint8_T rtb_SFunction_o7_d;
 711              		.loc 1 494 3 view .LVU234
 495:HANcoder_E407_TTA_CombineModel.c ****   uint8_T rtb_SFunction_o8_h;
 712              		.loc 1 495 3 view .LVU235
 496:HANcoder_E407_TTA_CombineModel.c ****   uint8_T rtb_SFunction_o9_b;
 713              		.loc 1 496 3 view .LVU236
 497:HANcoder_E407_TTA_CombineModel.c ****   uint8_T rtb_SFunction_o2_i;
 714              		.loc 1 497 3 view .LVU237
 498:HANcoder_E407_TTA_CombineModel.c ****   uint8_T rtb_SFunction_o3_g;
 715              		.loc 1 498 3 view .LVU238
 499:HANcoder_E407_TTA_CombineModel.c ****   uint8_T rtb_SFunction_o4_j;
 716              		.loc 1 499 3 view .LVU239
 500:HANcoder_E407_TTA_CombineModel.c ****   uint8_T rtb_SFunction_o5_f;
 717              		.loc 1 500 3 view .LVU240
 501:HANcoder_E407_TTA_CombineModel.c ****   uint8_T rtb_SFunction_o6_g;
 718              		.loc 1 501 3 view .LVU241
 502:HANcoder_E407_TTA_CombineModel.c ****   uint8_T rtb_SFunction_o7_k;
 719              		.loc 1 502 3 view .LVU242
 503:HANcoder_E407_TTA_CombineModel.c ****   uint8_T rtb_SFunction_o8_n;
 720              		.loc 1 503 3 view .LVU243
 504:HANcoder_E407_TTA_CombineModel.c ****   uint8_T rtb_SFunction_o9_b1;
 721              		.loc 1 504 3 view .LVU244
 505:HANcoder_E407_TTA_CombineModel.c ****   int8_T rtb_SFunction_o1;
 722              		.loc 1 505 3 view .LVU245
 506:HANcoder_E407_TTA_CombineModel.c ****   int8_T rtb_SFunction_o1_n;
 723              		.loc 1 506 3 view .LVU246
 507:HANcoder_E407_TTA_CombineModel.c ****   int8_T rtb_SFunction_o1_k;
 724              		.loc 1 507 3 view .LVU247
 508:HANcoder_E407_TTA_CombineModel.c ****   int8_T rtb_SFunction_o1_k1;
 725              		.loc 1 508 3 view .LVU248
 509:HANcoder_E407_TTA_CombineModel.c ****   int8_T rtb_SFunction_o1_h;
 726              		.loc 1 509 3 view .LVU249
 510:HANcoder_E407_TTA_CombineModel.c ****   boolean_T rtb_Level2MfileSFunction_j;
 727              		.loc 1 510 3 view .LVU250
 511:HANcoder_E407_TTA_CombineModel.c ****   g_dsp_internal_SlidingWindowAve *obj;
 728              		.loc 1 511 3 view .LVU251
 512:HANcoder_E407_TTA_CombineModel.c ****   real_T csumrev[3];
 729              		.loc 1 512 3 view .LVU252
 513:HANcoder_E407_TTA_CombineModel.c ****   real_T rtb_Integrator;
 730              		.loc 1 513 3 view .LVU253
 514:HANcoder_E407_TTA_CombineModel.c ****   real_T rtb_Sum;
 731              		.loc 1 514 3 view .LVU254
 515:HANcoder_E407_TTA_CombineModel.c ****   real_T rtb_Uk1;
 732              		.loc 1 515 3 view .LVU255
 516:HANcoder_E407_TTA_CombineModel.c ****   real_T rtb_Uk1_tmp;
 733              		.loc 1 516 3 view .LVU256
 517:HANcoder_E407_TTA_CombineModel.c ****   real_T z;
 734              		.loc 1 517 3 view .LVU257
 518:HANcoder_E407_TTA_CombineModel.c ****   uint32_T Slot5execution_ELAPS_T[2];
 735              		.loc 1 518 3 view .LVU258
 519:HANcoder_E407_TTA_CombineModel.c ****   uint32_T rowIdx;
 736              		.loc 1 519 3 view .LVU259
 520:HANcoder_E407_TTA_CombineModel.c ****   uint16_T rtb_Cast_b;
 737              		.loc 1 520 3 view .LVU260
 521:HANcoder_E407_TTA_CombineModel.c ****   uint16_T rtb_Cast_le;
 738              		.loc 1 521 3 view .LVU261
 522:HANcoder_E407_TTA_CombineModel.c ****   uint8_T rtb_Multiply;
 739              		.loc 1 522 3 view .LVU262
 523:HANcoder_E407_TTA_CombineModel.c ****   uint8_T rtb_Multiply1;
 740              		.loc 1 523 3 view .LVU263
 524:HANcoder_E407_TTA_CombineModel.c ****   boolean_T AND3;
 741              		.loc 1 524 3 view .LVU264
 525:HANcoder_E407_TTA_CombineModel.c ****   boolean_T AND5;
 742              		.loc 1 525 3 view .LVU265
 526:HANcoder_E407_TTA_CombineModel.c ****   boolean_T AND7;
 743              		.loc 1 526 3 view .LVU266
 527:HANcoder_E407_TTA_CombineModel.c ****   boolean_T AND9;
 744              		.loc 1 527 3 view .LVU267
 528:HANcoder_E407_TTA_CombineModel.c ****   boolean_T rtb_AND;
 745              		.loc 1 528 3 view .LVU268
 529:HANcoder_E407_TTA_CombineModel.c ****   boolean_T rtb_AND1;
 746              		.loc 1 529 3 view .LVU269
 530:HANcoder_E407_TTA_CombineModel.c ****   boolean_T rtb_AND10;
 747              		.loc 1 530 3 view .LVU270
 531:HANcoder_E407_TTA_CombineModel.c ****   boolean_T rtb_AND13;
 748              		.loc 1 531 3 view .LVU271
 532:HANcoder_E407_TTA_CombineModel.c ****   boolean_T rtb_AND14;
 749              		.loc 1 532 3 view .LVU272
 533:HANcoder_E407_TTA_CombineModel.c ****   boolean_T rtb_AND15;
 750              		.loc 1 533 3 view .LVU273
 534:HANcoder_E407_TTA_CombineModel.c ****   boolean_T rtb_AND2;
 751              		.loc 1 534 3 view .LVU274
 535:HANcoder_E407_TTA_CombineModel.c ****   boolean_T rtb_AND4;
 752              		.loc 1 535 3 view .LVU275
 536:HANcoder_E407_TTA_CombineModel.c ****   boolean_T rtb_AND6;
 753              		.loc 1 536 3 view .LVU276
 537:HANcoder_E407_TTA_CombineModel.c ****   boolean_T rtb_AND8;
 754              		.loc 1 537 3 view .LVU277
 538:HANcoder_E407_TTA_CombineModel.c ****   boolean_T rtb_Equal14;
 755              		.loc 1 538 3 view .LVU278
 539:HANcoder_E407_TTA_CombineModel.c ****   boolean_T rtb_Equal16;
 756              		.loc 1 539 3 view .LVU279
 540:HANcoder_E407_TTA_CombineModel.c ****   boolean_T rtb_Equal17;
 757              		.loc 1 540 3 view .LVU280
 541:HANcoder_E407_TTA_CombineModel.c **** 
 542:HANcoder_E407_TTA_CombineModel.c ****   /* Outputs for Enabled SubSystem: '<S1>/Initialize Clock Schedule' incorporates:
 543:HANcoder_E407_TTA_CombineModel.c ****    *  EnablePort: '<S9>/Enable'
 544:HANcoder_E407_TTA_CombineModel.c ****    */
 545:HANcoder_E407_TTA_CombineModel.c ****   /* Logic: '<S1>/NOT' incorporates:
 546:HANcoder_E407_TTA_CombineModel.c ****    *  DataStoreRead: '<S1>/If 1 -> Clock initialized '
 547:HANcoder_E407_TTA_CombineModel.c ****    */
 548:HANcoder_E407_TTA_CombineModel.c ****   if (rtDWork.init_clock == 0.0) {
 758              		.loc 1 548 3 view .LVU281
 459:HANcoder_E407_TTA_CombineModel.c ****   /* local block i/o variables */
 759              		.loc 1 459 1 is_stmt 0 view .LVU282
 760 0000 2DE9F04F 		push	{r4, r5, r6, r7, r8, r9, r10, fp, lr}
 761              		.cfi_def_cfa_offset 36
 762              		.cfi_offset 4, -36
 763              		.cfi_offset 5, -32
 764              		.cfi_offset 6, -28
 765              		.cfi_offset 7, -24
 766              		.cfi_offset 8, -20
 767              		.cfi_offset 9, -16
 768              		.cfi_offset 10, -12
 769              		.cfi_offset 11, -8
 770              		.cfi_offset 14, -4
 771 0004 2DED0C8B 		vpush.64	{d8, d9, d10, d11, d12, d13}
 772              		.cfi_def_cfa_offset 84
 773              		.cfi_offset 80, -84
 774              		.cfi_offset 81, -80
 775              		.cfi_offset 82, -76
 776              		.cfi_offset 83, -72
 777              		.cfi_offset 84, -68
 778              		.cfi_offset 85, -64
 779              		.cfi_offset 86, -60
 780              		.cfi_offset 87, -56
 781              		.cfi_offset 88, -52
 782              		.cfi_offset 89, -48
 783              		.cfi_offset 90, -44
 784              		.cfi_offset 91, -40
 785              		.loc 1 548 14 view .LVU283
 786 0008 C84C     		ldr	r4, .L280
 459:HANcoder_E407_TTA_CombineModel.c ****   /* local block i/o variables */
 787              		.loc 1 459 1 view .LVU284
 788 000a 9BB0     		sub	sp, sp, #108
 789              		.cfi_def_cfa_offset 192
 790              		.loc 1 548 6 view .LVU285
 791 000c D4E92C01 		ldrd	r0, [r4, #176]
 792 0010 0022     		movs	r2, #0
 793 0012 0023     		movs	r3, #0
 794 0014 FFF7FEFF 		bl	__aeabi_dcmpeq
 795              	.LVL45:
 796 0018 0028     		cmp	r0, #0
 797 001a 40F0F984 		bne	.L261
 549:HANcoder_E407_TTA_CombineModel.c ****     rtDWork.InitializeClockSchedule_MODE = true;
 550:HANcoder_E407_TTA_CombineModel.c **** 
 551:HANcoder_E407_TTA_CombineModel.c ****     /* DataStoreWrite: '<S9>/Data Store Write' incorporates:
 552:HANcoder_E407_TTA_CombineModel.c ****      *  Constant: '<S9>/Constant2'
 553:HANcoder_E407_TTA_CombineModel.c ****      */
 554:HANcoder_E407_TTA_CombineModel.c ****     rtDWork.init_clock = 1.0;
 555:HANcoder_E407_TTA_CombineModel.c **** 
 556:HANcoder_E407_TTA_CombineModel.c ****     /* Update for M-S-Function: '<S17>/Level-2 M-file S-Function' incorporates:
 557:HANcoder_E407_TTA_CombineModel.c ****      *  Constant: '<S9>/Constant'
 558:HANcoder_E407_TTA_CombineModel.c ****      *  Constant: '<S9>/Constant1'
 559:HANcoder_E407_TTA_CombineModel.c ****      */
 560:HANcoder_E407_TTA_CombineModel.c ****     /* schedule the next output compare event */
 561:HANcoder_E407_TTA_CombineModel.c ****     TimeoutScheduleCompareEvent(TIMEOUT_TIM4_PIN_PD12, ((uint16_T)1U),
 562:HANcoder_E407_TTA_CombineModel.c ****       (tTimeoutAction)((uint8_T)3U));
 563:HANcoder_E407_TTA_CombineModel.c ****   } else if (rtDWork.InitializeClockSchedule_MODE) {
 798              		.loc 1 563 10 is_stmt 1 view .LVU286
 799              		.loc 1 563 13 is_stmt 0 view .LVU287
 800 001e 94F8D230 		ldrb	r3, [r4, #210]	@ zero_extendqisi2
 801 0022 002B     		cmp	r3, #0
 802 0024 40F03281 		bne	.L262
 803              	.L58:
 564:HANcoder_E407_TTA_CombineModel.c ****     rtDWork.InitializeClockSchedule_MODE = false;
 565:HANcoder_E407_TTA_CombineModel.c ****   }
 566:HANcoder_E407_TTA_CombineModel.c **** 
 567:HANcoder_E407_TTA_CombineModel.c ****   /* End of Logic: '<S1>/NOT' */
 568:HANcoder_E407_TTA_CombineModel.c ****   /* End of Outputs for SubSystem: '<S1>/Initialize Clock Schedule' */
 569:HANcoder_E407_TTA_CombineModel.c **** 
 570:HANcoder_E407_TTA_CombineModel.c ****   /* Logic: '<S13>/AND' incorporates:
 571:HANcoder_E407_TTA_CombineModel.c ****    *  Constant: '<S13>/Constant'
 572:HANcoder_E407_TTA_CombineModel.c ****    *  Constant: '<S13>/Constant4'
 573:HANcoder_E407_TTA_CombineModel.c ****    *  DataStoreRead: '<S13>/Data Store Read1'
 574:HANcoder_E407_TTA_CombineModel.c ****    *  RelationalOperator: '<S13>/Less Than'
 575:HANcoder_E407_TTA_CombineModel.c ****    */
 576:HANcoder_E407_TTA_CombineModel.c ****   rtb_AND = ((ClockOn != 0.0) && (rtDWork.nodeRole_i < ((uint8_T)4U)));
 804              		.loc 1 576 3 is_stmt 1 view .LVU288
 805              		.loc 1 576 23 is_stmt 0 view .LVU289
 806 0028 C149     		ldr	r1, .L280+4
 807              		.loc 1 576 31 view .LVU290
 808 002a 0023     		movs	r3, #0
 809 002c D1E90001 		ldrd	r0, [r1]
 810 0030 0022     		movs	r2, #0
 811 0032 FFF7FEFF 		bl	__aeabi_dcmpeq
 812              	.LVL46:
 813 0036 94F8C830 		ldrb	r3, [r4, #200]	@ zero_extendqisi2
 814 003a 0028     		cmp	r0, #0
 815 003c 00F0ED81 		beq	.L59
 816              	.LVL47:
 577:HANcoder_E407_TTA_CombineModel.c **** 
 578:HANcoder_E407_TTA_CombineModel.c ****   /* Outputs for Enabled SubSystem: '<S13>/Subsystem1' incorporates:
 579:HANcoder_E407_TTA_CombineModel.c ****    *  EnablePort: '<S73>/Enable'
 580:HANcoder_E407_TTA_CombineModel.c ****    */
 581:HANcoder_E407_TTA_CombineModel.c ****   /* RelationalOperator: '<S13>/GreaterThan' incorporates:
 582:HANcoder_E407_TTA_CombineModel.c ****    *  Constant: '<S13>/Constant2'
 583:HANcoder_E407_TTA_CombineModel.c ****    *  DataStoreRead: '<S13>/Data Store Read1'
 584:HANcoder_E407_TTA_CombineModel.c ****    *  DataTypeConversion: '<S73>/Cast'
 585:HANcoder_E407_TTA_CombineModel.c ****    */
 586:HANcoder_E407_TTA_CombineModel.c ****   if (rtDWork.nodeRole_i > ((uint8_T)3U)) {
 817              		.loc 1 586 3 is_stmt 1 view .LVU291
 818              		.loc 1 586 6 is_stmt 0 view .LVU292
 819 0040 032B     		cmp	r3, #3
 820 0042 00F2BC81 		bhi	.L60
 587:HANcoder_E407_TTA_CombineModel.c ****     rtDWork.Subsystem1_MODE = true;
 588:HANcoder_E407_TTA_CombineModel.c **** 
 589:HANcoder_E407_TTA_CombineModel.c ****     /* M-S-Function: '<S74>/S-Function' incorporates:
 590:HANcoder_E407_TTA_CombineModel.c ****      *  Constant: '<S73>/Constant1'
 591:HANcoder_E407_TTA_CombineModel.c ****      */
 592:HANcoder_E407_TTA_CombineModel.c **** 
 593:HANcoder_E407_TTA_CombineModel.c ****     /* read the message data and store the new parameter */
 594:HANcoder_E407_TTA_CombineModel.c ****     rtb_SFunction_o1 = CanIoGetMessage(0, SYNC1_ID, NULL,
 595:HANcoder_E407_TTA_CombineModel.c ****       &canRxData_0_SYNC1_ID.uint8_T_info[0], NULL);
 596:HANcoder_E407_TTA_CombineModel.c **** 
 597:HANcoder_E407_TTA_CombineModel.c ****     /* process the message data */
 598:HANcoder_E407_TTA_CombineModel.c ****     if (rtb_SFunction_o1 > 0) {
 599:HANcoder_E407_TTA_CombineModel.c ****       /* read the data */
 600:HANcoder_E407_TTA_CombineModel.c ****       rtb_SFunction_o2 = canRxData_0_SYNC1_ID.uint8_T_info[0];
 601:HANcoder_E407_TTA_CombineModel.c ****       rtb_SFunction_o3 = canRxData_0_SYNC1_ID.uint8_T_info[1];
 602:HANcoder_E407_TTA_CombineModel.c ****     }
 603:HANcoder_E407_TTA_CombineModel.c **** 
 604:HANcoder_E407_TTA_CombineModel.c ****     /* Outputs for Enabled SubSystem: '<S74>/Enabled Subsystem' */
 605:HANcoder_E407_TTA_CombineModel.c ****     EnabledSubsystem(rtb_SFunction_o1, rtb_SFunction_o2, rtb_SFunction_o3,
 606:HANcoder_E407_TTA_CombineModel.c ****                      rtb_SFunction_o4, rtb_SFunction_o5, rtb_SFunction_o6,
 607:HANcoder_E407_TTA_CombineModel.c ****                      rtb_SFunction_o7, rtb_SFunction_o8, rtb_SFunction_o9,
 608:HANcoder_E407_TTA_CombineModel.c ****                      &rtB.EnabledSubsystem_ef);
 609:HANcoder_E407_TTA_CombineModel.c **** 
 610:HANcoder_E407_TTA_CombineModel.c ****     /* End of Outputs for SubSystem: '<S74>/Enabled Subsystem' */
 611:HANcoder_E407_TTA_CombineModel.c **** 
 612:HANcoder_E407_TTA_CombineModel.c ****     /* DataStoreWrite: '<S73>/Data Store Write' */
 613:HANcoder_E407_TTA_CombineModel.c ****     rtDWork.SlotTime = rtB.EnabledSubsystem_ef.In1;
 614:HANcoder_E407_TTA_CombineModel.c **** 
 615:HANcoder_E407_TTA_CombineModel.c ****     /* Outputs for Triggered SubSystem: '<S73>/Triggered Subsystem' incorporates:
 616:HANcoder_E407_TTA_CombineModel.c ****      *  TriggerPort: '<S76>/Trigger'
 617:HANcoder_E407_TTA_CombineModel.c ****      */
 618:HANcoder_E407_TTA_CombineModel.c ****     if ((rtb_SFunction_o1 != 0) && (rtPrevZCSigState.TriggeredSubsystem_Trig_ZCE
 619:HANcoder_E407_TTA_CombineModel.c ****          != POS_ZCSIG)) {
 620:HANcoder_E407_TTA_CombineModel.c ****       /* DataStoreWrite: '<S76>/Data Store Write' incorporates:
 621:HANcoder_E407_TTA_CombineModel.c ****        *  Constant: '<S76>/Constant'
 622:HANcoder_E407_TTA_CombineModel.c ****        */
 623:HANcoder_E407_TTA_CombineModel.c ****       rtDWork.Local_Ticks = ((uint16_T)0U);
 624:HANcoder_E407_TTA_CombineModel.c ****     }
 625:HANcoder_E407_TTA_CombineModel.c **** 
 626:HANcoder_E407_TTA_CombineModel.c ****     rtPrevZCSigState.TriggeredSubsystem_Trig_ZCE = (ZCSigState)(rtb_SFunction_o1
 627:HANcoder_E407_TTA_CombineModel.c ****       != 0);
 628:HANcoder_E407_TTA_CombineModel.c **** 
 629:HANcoder_E407_TTA_CombineModel.c ****     /* End of Outputs for SubSystem: '<S73>/Triggered Subsystem' */
 630:HANcoder_E407_TTA_CombineModel.c **** 
 631:HANcoder_E407_TTA_CombineModel.c ****     /* M-S-Function: '<S8>/Level-2 M-file S-Function' incorporates:
 632:HANcoder_E407_TTA_CombineModel.c ****      *  DataTypeConversion: '<S73>/Cast'
 633:HANcoder_E407_TTA_CombineModel.c ****      *  Memory: '<S75>/Memory'
 634:HANcoder_E407_TTA_CombineModel.c ****      */
 635:HANcoder_E407_TTA_CombineModel.c ****     rtb_Level2MfileSFunction_j = rtDWork.Memory_PreviousInput;
 636:HANcoder_E407_TTA_CombineModel.c **** 
 637:HANcoder_E407_TTA_CombineModel.c ****     /* CombinatorialLogic: '<S75>/Logic' incorporates:
 638:HANcoder_E407_TTA_CombineModel.c ****      *  DataTypeConversion: '<S73>/Cast'
 639:HANcoder_E407_TTA_CombineModel.c ****      */
 640:HANcoder_E407_TTA_CombineModel.c ****     rowIdx = ((((uint32_T)(rtb_SFunction_o1 != 0) << 1) + false) << 1) +
 641:HANcoder_E407_TTA_CombineModel.c ****       rtb_Level2MfileSFunction_j;
 642:HANcoder_E407_TTA_CombineModel.c ****     rtB.Logic[0U] = rtConstP.Logic_table[rowIdx];
 643:HANcoder_E407_TTA_CombineModel.c ****     rtB.Logic[1U] = rtConstP.Logic_table[rowIdx + 8U];
 644:HANcoder_E407_TTA_CombineModel.c **** 
 645:HANcoder_E407_TTA_CombineModel.c ****     /* Update for Memory: '<S75>/Memory' */
 646:HANcoder_E407_TTA_CombineModel.c ****     rtDWork.Memory_PreviousInput = rtB.Logic[0];
 647:HANcoder_E407_TTA_CombineModel.c ****   } else if (rtDWork.Subsystem1_MODE) {
 821              		.loc 1 647 10 is_stmt 1 view .LVU293
 822              		.loc 1 647 13 is_stmt 0 view .LVU294
 823 0046 94F8CC30 		ldrb	r3, [r4, #204]	@ zero_extendqisi2
 824 004a 002B     		cmp	r3, #0
 825 004c 40F09E85 		bne	.L243
 826 0050 B84F     		ldr	r7, .L280+8
 827 0052 B94D     		ldr	r5, .L280+12
 828              	.L65:
 648:HANcoder_E407_TTA_CombineModel.c ****     rtDWork.Subsystem1_MODE = false;
 649:HANcoder_E407_TTA_CombineModel.c ****   }
 650:HANcoder_E407_TTA_CombineModel.c **** 
 651:HANcoder_E407_TTA_CombineModel.c ****   /* End of RelationalOperator: '<S13>/GreaterThan' */
 652:HANcoder_E407_TTA_CombineModel.c ****   /* End of Outputs for SubSystem: '<S13>/Subsystem1' */
 653:HANcoder_E407_TTA_CombineModel.c **** 
 654:HANcoder_E407_TTA_CombineModel.c ****   /* Logic: '<S13>/OR' */
 655:HANcoder_E407_TTA_CombineModel.c ****   rtB.OR = (rtb_AND || rtB.Logic[0]);
 829              		.loc 1 655 21 discriminator 2 view .LVU295
 830 0054 FB79     		ldrb	r3, [r7, #7]	@ zero_extendqisi2
 831 0056 0022     		movs	r2, #0
 832              		.loc 1 655 10 discriminator 2 view .LVU296
 833 0058 9B1A     		subs	r3, r3, r2
 834 005a 0492     		str	r2, [sp, #16]
 835 005c 18BF     		it	ne
 836 005e 0123     		movne	r3, #1
 837 0060 0592     		str	r2, [sp, #20]
 838              	.LVL48:
 839              	.L66:
 840              		.loc 1 655 10 discriminator 6 view .LVU297
 841 0062 7B71     		strb	r3, [r7, #5]
 656:HANcoder_E407_TTA_CombineModel.c **** 
 657:HANcoder_E407_TTA_CombineModel.c ****   /* End of Outputs for S-Function (sfcn_timeout_event_irq): '<S4>/S-Function' */
 658:HANcoder_E407_TTA_CombineModel.c **** 
 659:HANcoder_E407_TTA_CombineModel.c ****   /* Outputs for Enabled SubSystem: '<S1>/Message selector' incorporates:
 660:HANcoder_E407_TTA_CombineModel.c ****    *  EnablePort: '<S11>/Enable'
 661:HANcoder_E407_TTA_CombineModel.c ****    *
 662:HANcoder_E407_TTA_CombineModel.c ****    * Block description for '<S1>/Message selector':
 663:HANcoder_E407_TTA_CombineModel.c ****    *  Truck 1
 664:HANcoder_E407_TTA_CombineModel.c ****    */
 665:HANcoder_E407_TTA_CombineModel.c ****   if (canActive) {
 842              		.loc 1 665 3 is_stmt 1 discriminator 6 view .LVU298
 843              		.loc 1 665 7 is_stmt 0 discriminator 6 view .LVU299
 844 0064 B54B     		ldr	r3, .L280+16
 845              		.loc 1 665 6 discriminator 6 view .LVU300
 846 0066 1B78     		ldrb	r3, [r3]	@ zero_extendqisi2
 847 0068 002B     		cmp	r3, #0
 848 006a 00F0EA81 		beq	.L67
 849              	.L274:
 666:HANcoder_E407_TTA_CombineModel.c ****     rtDWork.Messageselector_MODE = true;
 850              		.loc 1 666 5 is_stmt 1 view .LVU301
 667:HANcoder_E407_TTA_CombineModel.c **** 
 668:HANcoder_E407_TTA_CombineModel.c ****     /* M-S-Function: '<S8>/Level-2 M-file S-Function' incorporates:
 669:HANcoder_E407_TTA_CombineModel.c ****      *  Constant: '<S11>/Constant1'
 670:HANcoder_E407_TTA_CombineModel.c ****      *  RelationalOperator: '<S11>/Equal1'
 671:HANcoder_E407_TTA_CombineModel.c ****      */
 672:HANcoder_E407_TTA_CombineModel.c ****     rtb_Level2MfileSFunction_j = (slotSelected == 2.0);
 673:HANcoder_E407_TTA_CombineModel.c **** 
 674:HANcoder_E407_TTA_CombineModel.c ****     /* RelationalOperator: '<S11>/Equal11' incorporates:
 675:HANcoder_E407_TTA_CombineModel.c ****      *  Constant: '<S11>/Constant13'
 676:HANcoder_E407_TTA_CombineModel.c ****      *  DataStoreRead: '<S1>/Data Store Read'
 677:HANcoder_E407_TTA_CombineModel.c ****      */
 678:HANcoder_E407_TTA_CombineModel.c ****     rtb_Equal14 = (rtDWork.nodeRole_i == 1.0);
 851              		.loc 1 678 27 is_stmt 0 view .LVU302
 852 006e 94F8C830 		ldrb	r3, [r4, #200]	@ zero_extendqisi2
 672:HANcoder_E407_TTA_CombineModel.c **** 
 853              		.loc 1 672 48 view .LVU303
 854 0072 B34E     		ldr	r6, .L280+20
 855              		.loc 1 678 39 view .LVU304
 856 0074 07EE903A 		vmov	s15, r3	@ int
 672:HANcoder_E407_TTA_CombineModel.c **** 
 857              		.loc 1 672 48 view .LVU305
 858 0078 3378     		ldrb	r3, [r6]	@ zero_extendqisi2
 859              		.loc 1 678 39 view .LVU306
 860 007a B8EEE77A 		vcvt.f32.s32	s14, s15
 672:HANcoder_E407_TTA_CombineModel.c **** 
 861              		.loc 1 672 48 view .LVU307
 862 007e 07EE903A 		vmov	s15, r3	@ int
 863 0082 F8EEE77A 		vcvt.f32.s32	s15, s15
 679:HANcoder_E407_TTA_CombineModel.c **** 
 680:HANcoder_E407_TTA_CombineModel.c ****     /* Logic: '<S11>/AND3' incorporates:
 681:HANcoder_E407_TTA_CombineModel.c ****      *  Logic: '<S11>/NOT1'
 682:HANcoder_E407_TTA_CombineModel.c ****      */
 683:HANcoder_E407_TTA_CombineModel.c ****     AND3 = (rtb_Level2MfileSFunction_j && (!rtb_Equal14));
 864              		.loc 1 683 40 view .LVU308
 865 0086 F0EE006A 		vmov.f32	s13, #2.0e+0
 866 008a F4EE667A 		vcmp.f32	s15, s13
 666:HANcoder_E407_TTA_CombineModel.c **** 
 867              		.loc 1 666 34 view .LVU309
 868 008e 4FF00108 		mov	r8, #1
 869              		.loc 1 683 40 view .LVU310
 870 0092 F1EE10FA 		vmrs	APSR_nzcv, FPSCR
 666:HANcoder_E407_TTA_CombineModel.c **** 
 871              		.loc 1 666 34 view .LVU311
 872 0096 84F8CD80 		strb	r8, [r4, #205]
 672:HANcoder_E407_TTA_CombineModel.c **** 
 873              		.loc 1 672 5 is_stmt 1 view .LVU312
 874              	.LVL49:
 678:HANcoder_E407_TTA_CombineModel.c **** 
 875              		.loc 1 678 5 view .LVU313
 876              		.loc 1 683 5 view .LVU314
 877              		.loc 1 683 40 is_stmt 0 view .LVU315
 878 009a 40F04685 		bne	.L68
 879              		.loc 1 683 40 discriminator 1 view .LVU316
 880 009e F7EE007A 		vmov.f32	s15, #1.0e+0
 881 00a2 B4EE677A 		vcmp.f32	s14, s15
 882 00a6 F1EE10FA 		vmrs	APSR_nzcv, FPSCR
 883 00aa 00F0F280 		beq	.L263
 884              	.LVL50:
 684:HANcoder_E407_TTA_CombineModel.c **** 
 685:HANcoder_E407_TTA_CombineModel.c ****     /* Outputs for Enabled SubSystem: '<S11>/MMBS1_RX' */
 686:HANcoder_E407_TTA_CombineModel.c ****     /* Constant: '<S11>/Constant12' */
 687:HANcoder_E407_TTA_CombineModel.c ****     MMBS1_RX(AND3, MMBS1_ID, &rtB.MMBS1_RX_j, &rtDWork.MMBS1_RX_j);
 885              		.loc 1 687 5 is_stmt 1 view .LVU317
 886 00ae A54B     		ldr	r3, .L280+24
 887 00b0 A54A     		ldr	r2, .L280+28
 888 00b2 1968     		ldr	r1, [r3]
 889 00b4 A54B     		ldr	r3, .L280+32
 890 00b6 4046     		mov	r0, r8
 891 00b8 FFF7FEFF 		bl	MMBS1_RX
 892              	.LVL51:
 688:HANcoder_E407_TTA_CombineModel.c **** 
 689:HANcoder_E407_TTA_CombineModel.c ****     /* End of Outputs for SubSystem: '<S11>/MMBS1_RX' */
 690:HANcoder_E407_TTA_CombineModel.c **** 
 691:HANcoder_E407_TTA_CombineModel.c ****     /* Logic: '<S11>/AND2' */
 692:HANcoder_E407_TTA_CombineModel.c ****     rtb_AND2 = (rtb_Level2MfileSFunction_j && rtb_Equal14);
 893              		.loc 1 692 5 view .LVU318
 693:HANcoder_E407_TTA_CombineModel.c **** 
 694:HANcoder_E407_TTA_CombineModel.c ****     /* Outputs for Triggered SubSystem: '<S11>/MMBS1_TX' */
 695:HANcoder_E407_TTA_CombineModel.c ****     /* Constant: '<S11>/Constant12' */
 696:HANcoder_E407_TTA_CombineModel.c ****     MMBS1_TX(rtb_AND2, MMBS1_ID, &rtPrevZCSigState.MMBS1_TX_a);
 894              		.loc 1 696 5 view .LVU319
 895              	.LBB97:
 896              	.LBI97:
 410:HANcoder_E407_TTA_CombineModel.c **** {
 897              		.loc 1 410 6 view .LVU320
 898              	.LBB98:
 415:HANcoder_E407_TTA_CombineModel.c ****     /* Update for M-S-Function: '<S41>/S-Function' */
 899              		.loc 1 415 3 view .LVU321
 900              	.LBE98:
 901              	.LBE97:
 692:HANcoder_E407_TTA_CombineModel.c **** 
 902              		.loc 1 692 14 is_stmt 0 view .LVU322
 903 00bc 0023     		movs	r3, #0
 904              	.LVL52:
 905              	.L152:
 906              	.LBB102:
 907              	.LBB99:
 426:HANcoder_E407_TTA_CombineModel.c **** 
 908              		.loc 1 426 3 is_stmt 1 view .LVU323
 426:HANcoder_E407_TTA_CombineModel.c **** 
 909              		.loc 1 426 31 is_stmt 0 view .LVU324
 910 00be AB72     		strb	r3, [r5, #10]
 911              	.LBE99:
 912              	.LBE102:
 697:HANcoder_E407_TTA_CombineModel.c **** 
 698:HANcoder_E407_TTA_CombineModel.c ****     /* End of Outputs for SubSystem: '<S11>/MMBS1_TX' */
 699:HANcoder_E407_TTA_CombineModel.c **** 
 700:HANcoder_E407_TTA_CombineModel.c ****     /* RelationalOperator: '<S11>/Equal2' incorporates:
 701:HANcoder_E407_TTA_CombineModel.c ****      *  Constant: '<S11>/Constant2'
 702:HANcoder_E407_TTA_CombineModel.c ****      */
 703:HANcoder_E407_TTA_CombineModel.c ****     rtb_Equal14 = (slotSelected == 3.0);
 913              		.loc 1 703 5 is_stmt 1 view .LVU325
 914              	.LVL53:
 704:HANcoder_E407_TTA_CombineModel.c **** 
 705:HANcoder_E407_TTA_CombineModel.c ****     /* M-S-Function: '<S8>/Level-2 M-file S-Function' incorporates:
 706:HANcoder_E407_TTA_CombineModel.c ****      *  Constant: '<S11>/Constant15'
 707:HANcoder_E407_TTA_CombineModel.c ****      *  DataStoreRead: '<S1>/Data Store Read'
 708:HANcoder_E407_TTA_CombineModel.c ****      *  RelationalOperator: '<S11>/Equal12'
 709:HANcoder_E407_TTA_CombineModel.c ****      */
 710:HANcoder_E407_TTA_CombineModel.c ****     rtb_Level2MfileSFunction_j = (rtDWork.nodeRole_i == 1.0);
 915              		.loc 1 710 5 view .LVU326
 703:HANcoder_E407_TTA_CombineModel.c **** 
 916              		.loc 1 703 33 is_stmt 0 view .LVU327
 917 00c0 3378     		ldrb	r3, [r6]	@ zero_extendqisi2
 918 00c2 07EE903A 		vmov	s15, r3	@ int
 919              		.loc 1 710 42 view .LVU328
 920 00c6 94F8C830 		ldrb	r3, [r4, #200]	@ zero_extendqisi2
 703:HANcoder_E407_TTA_CombineModel.c **** 
 921              		.loc 1 703 33 view .LVU329
 922 00ca F8EEE77A 		vcvt.f32.s32	s15, s15
 711:HANcoder_E407_TTA_CombineModel.c **** 
 712:HANcoder_E407_TTA_CombineModel.c ****     /* Logic: '<S11>/AND5' incorporates:
 713:HANcoder_E407_TTA_CombineModel.c ****      *  Logic: '<S11>/NOT2'
 714:HANcoder_E407_TTA_CombineModel.c ****      */
 715:HANcoder_E407_TTA_CombineModel.c ****     AND5 = (rtb_Equal14 && (!rtb_Level2MfileSFunction_j));
 923              		.loc 1 715 25 view .LVU330
 924 00ce F0EE086A 		vmov.f32	s13, #3.0e+0
 710:HANcoder_E407_TTA_CombineModel.c **** 
 925              		.loc 1 710 54 view .LVU331
 926 00d2 07EE103A 		vmov	s14, r3	@ int
 927              		.loc 1 715 25 view .LVU332
 928 00d6 F4EE667A 		vcmp.f32	s15, s13
 929 00da F1EE10FA 		vmrs	APSR_nzcv, FPSCR
 710:HANcoder_E407_TTA_CombineModel.c **** 
 930              		.loc 1 710 54 view .LVU333
 931 00de B8EEC77A 		vcvt.f32.s32	s14, s14
 932              	.LVL54:
 933              		.loc 1 715 5 is_stmt 1 view .LVU334
 934              		.loc 1 715 25 is_stmt 0 view .LVU335
 935 00e2 40F0E384 		bne	.L71
 936              		.loc 1 715 25 discriminator 1 view .LVU336
 937 00e6 F7EE007A 		vmov.f32	s15, #1.0e+0
 938 00ea B4EE677A 		vcmp.f32	s14, s15
 939 00ee F1EE10FA 		vmrs	APSR_nzcv, FPSCR
 940 00f2 00F0E580 		beq	.L264
 941              	.LVL55:
 716:HANcoder_E407_TTA_CombineModel.c **** 
 717:HANcoder_E407_TTA_CombineModel.c ****     /* Outputs for Enabled SubSystem: '<S11>/SSTM1_RX' */
 718:HANcoder_E407_TTA_CombineModel.c ****     /* Constant: '<S11>/Constant14' */
 719:HANcoder_E407_TTA_CombineModel.c ****     MMBS1_RX(AND5, SSTM1_ID, &rtB.SSTM1_RX, &rtDWork.SSTM1_RX);
 942              		.loc 1 719 5 is_stmt 1 view .LVU337
 943 00f6 964B     		ldr	r3, .L280+36
 944 00f8 964A     		ldr	r2, .L280+40
 945 00fa 1968     		ldr	r1, [r3]
 946 00fc 964B     		ldr	r3, .L280+44
 947 00fe 0120     		movs	r0, #1
 948 0100 FFF7FEFF 		bl	MMBS1_RX
 949              	.LVL56:
 720:HANcoder_E407_TTA_CombineModel.c **** 
 721:HANcoder_E407_TTA_CombineModel.c ****     /* End of Outputs for SubSystem: '<S11>/SSTM1_RX' */
 722:HANcoder_E407_TTA_CombineModel.c **** 
 723:HANcoder_E407_TTA_CombineModel.c ****     /* Logic: '<S11>/AND4' */
 724:HANcoder_E407_TTA_CombineModel.c ****     rtb_AND4 = (rtb_Equal14 && rtb_Level2MfileSFunction_j);
 950              		.loc 1 724 5 view .LVU338
 725:HANcoder_E407_TTA_CombineModel.c **** 
 726:HANcoder_E407_TTA_CombineModel.c ****     /* Outputs for Triggered SubSystem: '<S11>/SSTM1_TX' */
 727:HANcoder_E407_TTA_CombineModel.c ****     /* Constant: '<S11>/Constant14' */
 728:HANcoder_E407_TTA_CombineModel.c ****     MMBS1_TX(rtb_AND4, SSTM1_ID, &rtPrevZCSigState.SSTM1_TX);
 951              		.loc 1 728 5 view .LVU339
 952              	.LBB103:
 953              	.LBI103:
 410:HANcoder_E407_TTA_CombineModel.c **** {
 954              		.loc 1 410 6 view .LVU340
 955              	.LBB104:
 415:HANcoder_E407_TTA_CombineModel.c ****     /* Update for M-S-Function: '<S41>/S-Function' */
 956              		.loc 1 415 3 view .LVU341
 957              	.LBE104:
 958              	.LBE103:
 724:HANcoder_E407_TTA_CombineModel.c **** 
 959              		.loc 1 724 14 is_stmt 0 view .LVU342
 960 0104 0023     		movs	r3, #0
 961              	.LVL57:
 962              	.L151:
 963              	.LBB109:
 964              	.LBB105:
 426:HANcoder_E407_TTA_CombineModel.c **** 
 965              		.loc 1 426 3 is_stmt 1 view .LVU343
 426:HANcoder_E407_TTA_CombineModel.c **** 
 966              		.loc 1 426 31 is_stmt 0 view .LVU344
 967 0106 6B72     		strb	r3, [r5, #9]
 968              	.LBE105:
 969              	.LBE109:
 729:HANcoder_E407_TTA_CombineModel.c **** 
 730:HANcoder_E407_TTA_CombineModel.c ****     /* End of Outputs for SubSystem: '<S11>/SSTM1_TX' */
 731:HANcoder_E407_TTA_CombineModel.c **** 
 732:HANcoder_E407_TTA_CombineModel.c ****     /* RelationalOperator: '<S11>/Equal' incorporates:
 733:HANcoder_E407_TTA_CombineModel.c ****      *  Constant: '<S11>/Constant'
 734:HANcoder_E407_TTA_CombineModel.c ****      */
 735:HANcoder_E407_TTA_CombineModel.c ****     rtb_Equal14 = (slotSelected == ((uint8_T)1U));
 970              		.loc 1 735 5 is_stmt 1 view .LVU345
 971              		.loc 1 735 33 is_stmt 0 view .LVU346
 972 0108 3378     		ldrb	r3, [r6]	@ zero_extendqisi2
 973              	.LVL58:
 736:HANcoder_E407_TTA_CombineModel.c **** 
 737:HANcoder_E407_TTA_CombineModel.c ****     /* M-S-Function: '<S8>/Level-2 M-file S-Function' incorporates:
 738:HANcoder_E407_TTA_CombineModel.c ****      *  Constant: '<S11>/Constant11'
 739:HANcoder_E407_TTA_CombineModel.c ****      *  DataStoreRead: '<S1>/Data Store Read'
 740:HANcoder_E407_TTA_CombineModel.c ****      *  RelationalOperator: '<S11>/Equal10'
 741:HANcoder_E407_TTA_CombineModel.c ****      */
 742:HANcoder_E407_TTA_CombineModel.c ****     rtb_Level2MfileSFunction_j = (rtDWork.nodeRole_i == ((uint8_T)1U));
 974              		.loc 1 742 5 is_stmt 1 view .LVU347
 975              		.loc 1 742 42 is_stmt 0 view .LVU348
 976 010a 94F8C820 		ldrb	r2, [r4, #200]	@ zero_extendqisi2
 977              	.LVL59:
 743:HANcoder_E407_TTA_CombineModel.c **** 
 744:HANcoder_E407_TTA_CombineModel.c ****     /* Logic: '<S11>/AND1' incorporates:
 745:HANcoder_E407_TTA_CombineModel.c ****      *  Logic: '<S11>/NOT'
 746:HANcoder_E407_TTA_CombineModel.c ****      */
 747:HANcoder_E407_TTA_CombineModel.c ****     rtb_AND1 = (rtb_Equal14 && (!rtb_Level2MfileSFunction_j));
 978              		.loc 1 747 5 is_stmt 1 view .LVU349
 979              		.loc 1 747 29 is_stmt 0 view .LVU350
 980 010e 012B     		cmp	r3, #1
 981 0110 00F0F380 		beq	.L265
 982              	.LVL60:
 983              	.L74:
 748:HANcoder_E407_TTA_CombineModel.c **** 
 749:HANcoder_E407_TTA_CombineModel.c ****     /* Outputs for Enabled SubSystem: '<S11>/SYNC1_RX' incorporates:
 750:HANcoder_E407_TTA_CombineModel.c ****      *  EnablePort: '<S25>/Enable'
 751:HANcoder_E407_TTA_CombineModel.c ****      */
 752:HANcoder_E407_TTA_CombineModel.c ****     if (rtb_AND1) {
 984              		.loc 1 752 5 is_stmt 1 view .LVU351
 753:HANcoder_E407_TTA_CombineModel.c ****       rtDWork.SYNC1_RX_MODE = true;
 754:HANcoder_E407_TTA_CombineModel.c **** 
 755:HANcoder_E407_TTA_CombineModel.c ****       /* M-S-Function: '<S45>/S-Function' incorporates:
 756:HANcoder_E407_TTA_CombineModel.c ****        *  Constant: '<S11>/Constant10'
 757:HANcoder_E407_TTA_CombineModel.c ****        */
 758:HANcoder_E407_TTA_CombineModel.c **** 
 759:HANcoder_E407_TTA_CombineModel.c ****       /* read the message data and store the new parameter */
 760:HANcoder_E407_TTA_CombineModel.c ****       rtb_SFunction_o1_h = CanIoGetMessage(0, SYNC1_ID, NULL,
 761:HANcoder_E407_TTA_CombineModel.c ****         &canRxData_0_SYNC1_ID.uint8_T_info[0], NULL);
 762:HANcoder_E407_TTA_CombineModel.c **** 
 763:HANcoder_E407_TTA_CombineModel.c ****       /* process the message data */
 764:HANcoder_E407_TTA_CombineModel.c ****       if (rtb_SFunction_o1_h > 0) {
 765:HANcoder_E407_TTA_CombineModel.c ****         /* read the data */
 766:HANcoder_E407_TTA_CombineModel.c ****         rtb_SFunction_o2_i = canRxData_0_SYNC1_ID.uint8_T_info[0];
 767:HANcoder_E407_TTA_CombineModel.c ****         rtb_SFunction_o3_g = canRxData_0_SYNC1_ID.uint8_T_info[1];
 768:HANcoder_E407_TTA_CombineModel.c ****         rtb_SFunction_o4_j = canRxData_0_SYNC1_ID.uint8_T_info[2];
 769:HANcoder_E407_TTA_CombineModel.c ****         rtb_SFunction_o5_f = canRxData_0_SYNC1_ID.uint8_T_info[3];
 770:HANcoder_E407_TTA_CombineModel.c ****         rtb_SFunction_o6_g = canRxData_0_SYNC1_ID.uint8_T_info[4];
 771:HANcoder_E407_TTA_CombineModel.c ****         rtb_SFunction_o7_k = canRxData_0_SYNC1_ID.uint8_T_info[5];
 772:HANcoder_E407_TTA_CombineModel.c ****         rtb_SFunction_o8_n = canRxData_0_SYNC1_ID.uint8_T_info[6];
 773:HANcoder_E407_TTA_CombineModel.c ****         rtb_SFunction_o9_b1 = canRxData_0_SYNC1_ID.uint8_T_info[7];
 774:HANcoder_E407_TTA_CombineModel.c ****       }
 775:HANcoder_E407_TTA_CombineModel.c **** 
 776:HANcoder_E407_TTA_CombineModel.c ****       /* Outputs for Enabled SubSystem: '<S45>/Enabled Subsystem' incorporates:
 777:HANcoder_E407_TTA_CombineModel.c ****        *  EnablePort: '<S46>/Enable'
 778:HANcoder_E407_TTA_CombineModel.c ****        */
 779:HANcoder_E407_TTA_CombineModel.c ****       if (rtb_SFunction_o1_h > 0) {
 780:HANcoder_E407_TTA_CombineModel.c ****         /* SignalConversion generated from: '<S46>/In1' */
 781:HANcoder_E407_TTA_CombineModel.c ****         dataArx = rtb_SFunction_o2_i;
 782:HANcoder_E407_TTA_CombineModel.c ****       }
 783:HANcoder_E407_TTA_CombineModel.c **** 
 784:HANcoder_E407_TTA_CombineModel.c ****       /* End of Outputs for SubSystem: '<S45>/Enabled Subsystem' */
 785:HANcoder_E407_TTA_CombineModel.c ****     } else if (rtDWork.SYNC1_RX_MODE) {
 985              		.loc 1 785 12 view .LVU352
 986              		.loc 1 785 15 is_stmt 0 view .LVU353
 987 0114 94F8D110 		ldrb	r1, [r4, #209]	@ zero_extendqisi2
 988 0118 0029     		cmp	r1, #0
 989 011a 40F03E85 		bne	.L167
 990              	.LVL61:
 991              	.L164:
 786:HANcoder_E407_TTA_CombineModel.c ****       rtDWork.SYNC1_RX_MODE = false;
 787:HANcoder_E407_TTA_CombineModel.c ****     }
 788:HANcoder_E407_TTA_CombineModel.c **** 
 789:HANcoder_E407_TTA_CombineModel.c ****     /* End of Outputs for SubSystem: '<S11>/SYNC1_RX' */
 790:HANcoder_E407_TTA_CombineModel.c **** 
 791:HANcoder_E407_TTA_CombineModel.c ****     /* Logic: '<S11>/AND' */
 792:HANcoder_E407_TTA_CombineModel.c ****     boolCan = (rtb_Equal14 && rtb_Level2MfileSFunction_j);
 992              		.loc 1 792 13 view .LVU354
 993 011e 8F48     		ldr	r0, .L280+48
 994 0120 0021     		movs	r1, #0
 995 0122 0170     		strb	r1, [r0]
 793:HANcoder_E407_TTA_CombineModel.c **** 
 794:HANcoder_E407_TTA_CombineModel.c ****     /* Outputs for Triggered SubSystem: '<S11>/SYNC1_TX' incorporates:
 795:HANcoder_E407_TTA_CombineModel.c ****      *  TriggerPort: '<S26>/Trigger'
 796:HANcoder_E407_TTA_CombineModel.c ****      */
 797:HANcoder_E407_TTA_CombineModel.c ****     if (boolCan && (rtPrevZCSigState.SYNC1_TX_Trig_ZCE != POS_ZCSIG)) {
 996              		.loc 1 797 5 is_stmt 1 view .LVU355
 997              	.L149:
 798:HANcoder_E407_TTA_CombineModel.c ****       /* DataStoreRead: '<S26>/Data Store Read1' */
 799:HANcoder_E407_TTA_CombineModel.c ****       testCounter = rtDWork.testCount;
 800:HANcoder_E407_TTA_CombineModel.c **** 
 801:HANcoder_E407_TTA_CombineModel.c ****       /* Sum: '<S26>/Add' incorporates:
 802:HANcoder_E407_TTA_CombineModel.c ****        *  Constant: '<S26>/Constant7'
 803:HANcoder_E407_TTA_CombineModel.c ****        *  DataStoreWrite: '<S26>/Data Store Write'
 804:HANcoder_E407_TTA_CombineModel.c ****        */
 805:HANcoder_E407_TTA_CombineModel.c ****       rtDWork.testCount = (uint16_T)((uint32_T)testCounter + ((uint16_T)1U));
 806:HANcoder_E407_TTA_CombineModel.c **** 
 807:HANcoder_E407_TTA_CombineModel.c ****       /* DataStoreRead: '<S26>/Data Store Read' */
 808:HANcoder_E407_TTA_CombineModel.c ****       rtB.DataStoreRead = rtDWork.SlotTime;
 809:HANcoder_E407_TTA_CombineModel.c **** 
 810:HANcoder_E407_TTA_CombineModel.c ****       /* Update for M-S-Function: '<S47>/S-Function' incorporates:
 811:HANcoder_E407_TTA_CombineModel.c ****        *  Constant: '<S11>/Constant10'
 812:HANcoder_E407_TTA_CombineModel.c ****        *  Constant: '<S26>/Constant'
 813:HANcoder_E407_TTA_CombineModel.c ****        *  Constant: '<S26>/Constant1'
 814:HANcoder_E407_TTA_CombineModel.c ****        *  Constant: '<S26>/Constant2'
 815:HANcoder_E407_TTA_CombineModel.c ****        *  Constant: '<S26>/Constant3'
 816:HANcoder_E407_TTA_CombineModel.c ****        *  Constant: '<S26>/Constant4'
 817:HANcoder_E407_TTA_CombineModel.c ****        *  Constant: '<S26>/Constant5'
 818:HANcoder_E407_TTA_CombineModel.c ****        *  Constant: '<S26>/Constant6'
 819:HANcoder_E407_TTA_CombineModel.c ****        */
 820:HANcoder_E407_TTA_CombineModel.c ****       {
 821:HANcoder_E407_TTA_CombineModel.c ****         /* prepare the data */
 822:HANcoder_E407_TTA_CombineModel.c ****         canTxData.uint8_T_info[0] = rtB.DataStoreRead;
 823:HANcoder_E407_TTA_CombineModel.c ****         canTxData.uint8_T_info[1] = ((uint8_T)1U);
 824:HANcoder_E407_TTA_CombineModel.c ****         canTxData.uint8_T_info[2] = ((uint8_T)0U);
 825:HANcoder_E407_TTA_CombineModel.c ****         canTxData.uint8_T_info[3] = ((uint8_T)0U);
 826:HANcoder_E407_TTA_CombineModel.c ****         canTxData.uint8_T_info[4] = ((uint8_T)0U);
 827:HANcoder_E407_TTA_CombineModel.c ****         canTxData.uint8_T_info[5] = ((uint8_T)0U);
 828:HANcoder_E407_TTA_CombineModel.c ****         canTxData.uint8_T_info[6] = ((uint8_T)0U);
 829:HANcoder_E407_TTA_CombineModel.c ****         canTxData.uint8_T_info[7] = ((uint8_T)1U);
 830:HANcoder_E407_TTA_CombineModel.c **** 
 831:HANcoder_E407_TTA_CombineModel.c ****         /* send the data */
 832:HANcoder_E407_TTA_CombineModel.c ****         CanTransmit(0, SYNC1_ID, 8, &canTxData.uint8_T_info[0]);
 833:HANcoder_E407_TTA_CombineModel.c ****       }
 834:HANcoder_E407_TTA_CombineModel.c ****     }
 835:HANcoder_E407_TTA_CombineModel.c **** 
 836:HANcoder_E407_TTA_CombineModel.c ****     rtPrevZCSigState.SYNC1_TX_Trig_ZCE = boolCan;
 998              		.loc 1 836 5 view .LVU356
 837:HANcoder_E407_TTA_CombineModel.c **** 
 838:HANcoder_E407_TTA_CombineModel.c ****     /* End of Outputs for SubSystem: '<S11>/SYNC1_TX' */
 839:HANcoder_E407_TTA_CombineModel.c **** 
 840:HANcoder_E407_TTA_CombineModel.c ****     /* RelationalOperator: '<S11>/Equal6' incorporates:
 841:HANcoder_E407_TTA_CombineModel.c ****      *  Constant: '<S11>/Constant7'
 842:HANcoder_E407_TTA_CombineModel.c ****      */
 843:HANcoder_E407_TTA_CombineModel.c ****     rtb_Equal14 = (slotSelected == 6.0);
 999              		.loc 1 843 33 is_stmt 0 view .LVU357
 1000 0124 07EE903A 		vmov	s15, r3	@ int
 1001 0128 F8EEE77A 		vcvt.f32.s32	s15, s15
 844:HANcoder_E407_TTA_CombineModel.c **** 
 845:HANcoder_E407_TTA_CombineModel.c ****     /* M-S-Function: '<S8>/Level-2 M-file S-Function' incorporates:
 846:HANcoder_E407_TTA_CombineModel.c ****      *  Constant: '<S11>/Constant6'
 847:HANcoder_E407_TTA_CombineModel.c ****      *  DataStoreRead: '<S1>/Data Store Read'
 848:HANcoder_E407_TTA_CombineModel.c ****      *  RelationalOperator: '<S11>/Equal5'
 849:HANcoder_E407_TTA_CombineModel.c ****      */
 850:HANcoder_E407_TTA_CombineModel.c ****     rtb_Level2MfileSFunction_j = (rtDWork.nodeRole_i == 2.0);
 851:HANcoder_E407_TTA_CombineModel.c **** 
 852:HANcoder_E407_TTA_CombineModel.c ****     /* Logic: '<S11>/AND9' incorporates:
 853:HANcoder_E407_TTA_CombineModel.c ****      *  Logic: '<S11>/NOT4'
 854:HANcoder_E407_TTA_CombineModel.c ****      */
 855:HANcoder_E407_TTA_CombineModel.c ****     AND9 = (rtb_Equal14 && (!rtb_Level2MfileSFunction_j));
 1002              		.loc 1 855 25 view .LVU358
 1003 012c F1EE086A 		vmov.f32	s13, #6.0e+0
 850:HANcoder_E407_TTA_CombineModel.c **** 
 1004              		.loc 1 850 54 view .LVU359
 1005 0130 07EE102A 		vmov	s14, r2	@ int
 1006              		.loc 1 855 25 view .LVU360
 1007 0134 F4EE667A 		vcmp.f32	s15, s13
 1008 0138 F1EE10FA 		vmrs	APSR_nzcv, FPSCR
 850:HANcoder_E407_TTA_CombineModel.c **** 
 1009              		.loc 1 850 54 view .LVU361
 1010 013c B8EEC77A 		vcvt.f32.s32	s14, s14
 836:HANcoder_E407_TTA_CombineModel.c **** 
 1011              		.loc 1 836 40 view .LVU362
 1012 0140 2972     		strb	r1, [r5, #8]
 843:HANcoder_E407_TTA_CombineModel.c **** 
 1013              		.loc 1 843 5 is_stmt 1 view .LVU363
 1014              	.LVL62:
 850:HANcoder_E407_TTA_CombineModel.c **** 
 1015              		.loc 1 850 5 view .LVU364
 1016              		.loc 1 855 5 view .LVU365
 1017              		.loc 1 855 25 is_stmt 0 view .LVU366
 1018 0142 40F0A984 		bne	.L78
 1019              		.loc 1 855 25 discriminator 1 view .LVU367
 1020 0146 F0EE007A 		vmov.f32	s15, #2.0e+0
 1021 014a B4EE677A 		vcmp.f32	s14, s15
 1022 014e F1EE10FA 		vmrs	APSR_nzcv, FPSCR
 1023 0152 00F01D81 		beq	.L266
 1024              	.LVL63:
 856:HANcoder_E407_TTA_CombineModel.c **** 
 857:HANcoder_E407_TTA_CombineModel.c ****     /* Outputs for Enabled SubSystem: '<S11>/TRCK1_ID2_RX' */
 858:HANcoder_E407_TTA_CombineModel.c ****     /* Constant: '<S11>/Constant5' */
 859:HANcoder_E407_TTA_CombineModel.c ****     MMBS1_RX(AND9, TRCK1_ID2, &rtB.TRCK1_ID2_RX, &rtDWork.TRCK1_ID2_RX);
 1025              		.loc 1 859 5 is_stmt 1 view .LVU368
 1026 0156 824B     		ldr	r3, .L280+52
 1027              	.LVL64:
 1028              		.loc 1 859 5 is_stmt 0 view .LVU369
 1029 0158 824A     		ldr	r2, .L280+56
 1030 015a 1968     		ldr	r1, [r3]
 1031 015c 824B     		ldr	r3, .L280+60
 1032 015e 0120     		movs	r0, #1
 1033 0160 FFF7FEFF 		bl	MMBS1_RX
 1034              	.LVL65:
 860:HANcoder_E407_TTA_CombineModel.c **** 
 861:HANcoder_E407_TTA_CombineModel.c ****     /* End of Outputs for SubSystem: '<S11>/TRCK1_ID2_RX' */
 862:HANcoder_E407_TTA_CombineModel.c **** 
 863:HANcoder_E407_TTA_CombineModel.c ****     /* Logic: '<S11>/AND8' */
 864:HANcoder_E407_TTA_CombineModel.c ****     rtb_AND8 = (rtb_Equal14 && rtb_Level2MfileSFunction_j);
 1035              		.loc 1 864 5 is_stmt 1 view .LVU370
 865:HANcoder_E407_TTA_CombineModel.c **** 
 866:HANcoder_E407_TTA_CombineModel.c ****     /* Outputs for Triggered SubSystem: '<S11>/TRCK1_ID2_TX' */
 867:HANcoder_E407_TTA_CombineModel.c ****     /* Constant: '<S11>/Constant5' */
 868:HANcoder_E407_TTA_CombineModel.c ****     MMBS1_TX(rtb_AND8, TRCK1_ID2, &rtPrevZCSigState.TRCK1_ID2_TX);
 1036              		.loc 1 868 5 view .LVU371
 1037              	.LBB110:
 1038              	.LBI110:
 410:HANcoder_E407_TTA_CombineModel.c **** {
 1039              		.loc 1 410 6 view .LVU372
 1040              	.LBB111:
 415:HANcoder_E407_TTA_CombineModel.c ****     /* Update for M-S-Function: '<S41>/S-Function' */
 1041              		.loc 1 415 3 view .LVU373
 1042              	.LBE111:
 1043              	.LBE110:
 864:HANcoder_E407_TTA_CombineModel.c **** 
 1044              		.loc 1 864 14 is_stmt 0 view .LVU374
 1045 0164 0023     		movs	r3, #0
 1046              	.LVL66:
 1047              	.L146:
 1048              	.LBB115:
 1049              	.LBB112:
 426:HANcoder_E407_TTA_CombineModel.c **** 
 1050              		.loc 1 426 3 is_stmt 1 view .LVU375
 426:HANcoder_E407_TTA_CombineModel.c **** 
 1051              		.loc 1 426 31 is_stmt 0 view .LVU376
 1052 0166 EB71     		strb	r3, [r5, #7]
 1053              	.LBE112:
 1054              	.LBE115:
 869:HANcoder_E407_TTA_CombineModel.c **** 
 870:HANcoder_E407_TTA_CombineModel.c ****     /* End of Outputs for SubSystem: '<S11>/TRCK1_ID2_TX' */
 871:HANcoder_E407_TTA_CombineModel.c **** 
 872:HANcoder_E407_TTA_CombineModel.c ****     /* RelationalOperator: '<S11>/Equal14' incorporates:
 873:HANcoder_E407_TTA_CombineModel.c ****      *  Constant: '<S11>/Constant20'
 874:HANcoder_E407_TTA_CombineModel.c ****      */
 875:HANcoder_E407_TTA_CombineModel.c ****     rtb_Equal14 = (slotSelected == 7.0);
 1055              		.loc 1 875 5 is_stmt 1 view .LVU377
 1056              		.loc 1 875 33 is_stmt 0 view .LVU378
 1057 0168 3378     		ldrb	r3, [r6]	@ zero_extendqisi2
 1058 016a 08EE103A 		vmov	s16, r3	@ int
 876:HANcoder_E407_TTA_CombineModel.c **** 
 877:HANcoder_E407_TTA_CombineModel.c ****     /* M-S-Function: '<S8>/Level-2 M-file S-Function' incorporates:
 878:HANcoder_E407_TTA_CombineModel.c ****      *  Constant: '<S11>/Constant19'
 879:HANcoder_E407_TTA_CombineModel.c ****      *  DataStoreRead: '<S1>/Data Store Read'
 880:HANcoder_E407_TTA_CombineModel.c ****      *  RelationalOperator: '<S11>/Equal7'
 881:HANcoder_E407_TTA_CombineModel.c ****      */
 882:HANcoder_E407_TTA_CombineModel.c ****     rtb_Level2MfileSFunction_j = (rtDWork.nodeRole_i == 3.0);
 1059              		.loc 1 882 42 view .LVU379
 1060 016e 94F8C830 		ldrb	r3, [r4, #200]	@ zero_extendqisi2
 875:HANcoder_E407_TTA_CombineModel.c **** 
 1061              		.loc 1 875 33 view .LVU380
 1062 0172 B8EEC88A 		vcvt.f32.s32	s16, s16
 1063              	.LVL67:
 1064              		.loc 1 882 5 is_stmt 1 view .LVU381
 883:HANcoder_E407_TTA_CombineModel.c **** 
 884:HANcoder_E407_TTA_CombineModel.c ****     /* Logic: '<S11>/AND10' */
 885:HANcoder_E407_TTA_CombineModel.c ****     rtb_AND10 = (rtb_Equal14 && rtb_Level2MfileSFunction_j);
 1065              		.loc 1 885 30 is_stmt 0 view .LVU382
 1066 0176 F1EE0C7A 		vmov.f32	s15, #7.0e+0
 882:HANcoder_E407_TTA_CombineModel.c **** 
 1067              		.loc 1 882 42 view .LVU383
 1068 017a 08EE903A 		vmov	s17, r3	@ int
 1069              		.loc 1 885 30 view .LVU384
 1070 017e B4EE678A 		vcmp.f32	s16, s15
 1071 0182 F1EE10FA 		vmrs	APSR_nzcv, FPSCR
 882:HANcoder_E407_TTA_CombineModel.c **** 
 1072              		.loc 1 882 54 view .LVU385
 1073 0186 F8EEE88A 		vcvt.f32.s32	s17, s17
 1074              	.LVL68:
 1075              		.loc 1 885 5 is_stmt 1 view .LVU386
 1076              		.loc 1 885 30 is_stmt 0 view .LVU387
 1077 018a 40F04E84 		bne	.L175
 1078              		.loc 1 885 30 discriminator 1 view .LVU388
 1079 018e F0EE087A 		vmov.f32	s15, #3.0e+0
 1080 0192 F4EE678A 		vcmp.f32	s17, s15
 1081 0196 F1EE10FA 		vmrs	APSR_nzcv, FPSCR
 1082 019a 40F07185 		bne	.L267
 1083              	.LVL69:
 886:HANcoder_E407_TTA_CombineModel.c **** 
 887:HANcoder_E407_TTA_CombineModel.c ****     /* Outputs for Triggered SubSystem: '<S11>/TRCK1_ID3_TX' */
 888:HANcoder_E407_TTA_CombineModel.c ****     /* Constant: '<S11>/Constant26' */
 889:HANcoder_E407_TTA_CombineModel.c ****     MMBS1_TX(rtb_AND10, TRCK1_ID3, &rtPrevZCSigState.TRCK1_ID3_TX);
 1084              		.loc 1 889 5 is_stmt 1 view .LVU389
 1085              	.LBB116:
 1086              	.LBI116:
 410:HANcoder_E407_TTA_CombineModel.c **** {
 1087              		.loc 1 410 6 view .LVU390
 1088              	.LBB117:
 415:HANcoder_E407_TTA_CombineModel.c ****     /* Update for M-S-Function: '<S41>/S-Function' */
 1089              		.loc 1 415 3 view .LVU391
 415:HANcoder_E407_TTA_CombineModel.c ****     /* Update for M-S-Function: '<S41>/S-Function' */
 1090              		.loc 1 415 31 is_stmt 0 view .LVU392
 1091 019e AB79     		ldrb	r3, [r5, #6]	@ zero_extendqisi2
 415:HANcoder_E407_TTA_CombineModel.c ****     /* Update for M-S-Function: '<S41>/S-Function' */
 1092              		.loc 1 415 19 view .LVU393
 1093 01a0 012B     		cmp	r3, #1
 1094 01a2 40F09385 		bne	.L268
 1095              	.LVL70:
 1096              	.L83:
 426:HANcoder_E407_TTA_CombineModel.c **** 
 1097              		.loc 1 426 3 is_stmt 1 view .LVU394
 426:HANcoder_E407_TTA_CombineModel.c **** 
 1098              		.loc 1 426 31 is_stmt 0 view .LVU395
 1099 01a6 AB71     		strb	r3, [r5, #6]
 1100              	.LBE117:
 1101              	.LBE116:
 890:HANcoder_E407_TTA_CombineModel.c **** 
 891:HANcoder_E407_TTA_CombineModel.c ****     /* End of Outputs for SubSystem: '<S11>/TRCK1_ID3_TX' */
 892:HANcoder_E407_TTA_CombineModel.c **** 
 893:HANcoder_E407_TTA_CombineModel.c ****     /* RelationalOperator: '<S11>/Equal13' incorporates:
 894:HANcoder_E407_TTA_CombineModel.c ****      *  Constant: '<S11>/Constant17'
 895:HANcoder_E407_TTA_CombineModel.c ****      */
 896:HANcoder_E407_TTA_CombineModel.c ****     rtb_Equal16 = (slotSelected == 4.0);
 1102              		.loc 1 896 5 is_stmt 1 view .LVU396
 1103              	.LVL71:
 897:HANcoder_E407_TTA_CombineModel.c **** 
 898:HANcoder_E407_TTA_CombineModel.c ****     /* RelationalOperator: '<S11>/Equal3' incorporates:
 899:HANcoder_E407_TTA_CombineModel.c ****      *  Constant: '<S11>/Constant16'
 900:HANcoder_E407_TTA_CombineModel.c ****      *  DataStoreRead: '<S1>/Data Store Read'
 901:HANcoder_E407_TTA_CombineModel.c ****      */
 902:HANcoder_E407_TTA_CombineModel.c ****     rtb_Equal17 = (rtDWork.nodeRole_i == 1.0);
 1104              		.loc 1 902 5 view .LVU397
 903:HANcoder_E407_TTA_CombineModel.c **** 
 904:HANcoder_E407_TTA_CombineModel.c ****     /* Logic: '<S11>/AND7' incorporates:
 905:HANcoder_E407_TTA_CombineModel.c ****      *  Logic: '<S11>/NOT3'
 906:HANcoder_E407_TTA_CombineModel.c ****      */
 907:HANcoder_E407_TTA_CombineModel.c ****     AND7 = (rtb_Equal16 && (!rtb_Equal17));
 1105              		.loc 1 907 5 view .LVU398
 1106              	.L84:
 908:HANcoder_E407_TTA_CombineModel.c **** 
 909:HANcoder_E407_TTA_CombineModel.c ****     /* Outputs for Enabled SubSystem: '<S11>/TRCK1_RX' */
 910:HANcoder_E407_TTA_CombineModel.c ****     /* Constant: '<S11>/Constant3' */
 911:HANcoder_E407_TTA_CombineModel.c ****     MMBS1_RX(AND7, TRCK1_ID1, &rtB.TRCK1_RX, &rtDWork.TRCK1_RX);
 1107              		.loc 1 911 5 view .LVU399
 1108 01a8 704B     		ldr	r3, .L280+64
 1109 01aa 714A     		ldr	r2, .L280+68
 1110 01ac 1968     		ldr	r1, [r3]
 1111 01ae 714B     		ldr	r3, .L280+72
 1112 01b0 0020     		movs	r0, #0
 1113 01b2 FFF7FEFF 		bl	MMBS1_RX
 1114              	.LVL72:
 912:HANcoder_E407_TTA_CombineModel.c **** 
 913:HANcoder_E407_TTA_CombineModel.c ****     /* End of Outputs for SubSystem: '<S11>/TRCK1_RX' */
 914:HANcoder_E407_TTA_CombineModel.c **** 
 915:HANcoder_E407_TTA_CombineModel.c ****     /* Logic: '<S11>/AND6' */
 916:HANcoder_E407_TTA_CombineModel.c ****     rtb_AND6 = (rtb_Equal16 && rtb_Equal17);
 1115              		.loc 1 916 5 view .LVU400
 1116              	.L162:
 917:HANcoder_E407_TTA_CombineModel.c **** 
 918:HANcoder_E407_TTA_CombineModel.c ****     /* Outputs for Triggered SubSystem: '<S11>/TRCK1_TX' */
 919:HANcoder_E407_TTA_CombineModel.c ****     /* Constant: '<S11>/Constant3' */
 920:HANcoder_E407_TTA_CombineModel.c ****     MMBS1_TX(rtb_AND6, TRCK1_ID1, &rtPrevZCSigState.TRCK1_TX);
 1117              		.loc 1 920 5 view .LVU401
 1118              	.LBB122:
 1119              	.LBI122:
 410:HANcoder_E407_TTA_CombineModel.c **** {
 1120              		.loc 1 410 6 view .LVU402
 1121              	.LBB123:
 415:HANcoder_E407_TTA_CombineModel.c ****     /* Update for M-S-Function: '<S41>/S-Function' */
 1122              		.loc 1 415 3 view .LVU403
 1123              	.LBE123:
 1124              	.LBE122:
 916:HANcoder_E407_TTA_CombineModel.c **** 
 1125              		.loc 1 916 14 is_stmt 0 view .LVU404
 1126 01b6 0023     		movs	r3, #0
 1127              	.LVL73:
 1128              	.L144:
 1129              	.LBB127:
 1130              	.LBB124:
 426:HANcoder_E407_TTA_CombineModel.c **** 
 1131              		.loc 1 426 3 is_stmt 1 view .LVU405
 1132              	.LBE124:
 1133              	.LBE127:
 921:HANcoder_E407_TTA_CombineModel.c **** 
 922:HANcoder_E407_TTA_CombineModel.c ****     /* End of Outputs for SubSystem: '<S11>/TRCK1_TX' */
 923:HANcoder_E407_TTA_CombineModel.c **** 
 924:HANcoder_E407_TTA_CombineModel.c ****     /* Outputs for Enabled SubSystem: '<S11>/TRCK_ID3_RX' incorporates:
 925:HANcoder_E407_TTA_CombineModel.c ****      *  EnablePort: '<S34>/Enable'
 926:HANcoder_E407_TTA_CombineModel.c ****      */
 927:HANcoder_E407_TTA_CombineModel.c ****     /* Logic: '<S11>/AND11' incorporates:
 928:HANcoder_E407_TTA_CombineModel.c ****      *  Logic: '<S11>/NOT5'
 929:HANcoder_E407_TTA_CombineModel.c ****      */
 930:HANcoder_E407_TTA_CombineModel.c ****     if (rtb_Equal14 && (!rtb_Level2MfileSFunction_j)) {
 1134              		.loc 1 930 8 is_stmt 0 view .LVU406
 1135 01b8 F1EE0C7A 		vmov.f32	s15, #7.0e+0
 1136 01bc B4EE678A 		vcmp.f32	s16, s15
 1137 01c0 F1EE10FA 		vmrs	APSR_nzcv, FPSCR
 1138              	.LBB128:
 1139              	.LBB125:
 426:HANcoder_E407_TTA_CombineModel.c **** 
 1140              		.loc 1 426 31 view .LVU407
 1141 01c4 6B71     		strb	r3, [r5, #5]
 1142              	.LBE125:
 1143              	.LBE128:
 1144              		.loc 1 930 5 is_stmt 1 view .LVU408
 1145              		.loc 1 930 8 is_stmt 0 view .LVU409
 1146 01c6 07D1     		bne	.L87
 1147              		.loc 1 930 21 discriminator 1 view .LVU410
 1148 01c8 F0EE087A 		vmov.f32	s15, #3.0e+0
 1149 01cc F4EE678A 		vcmp.f32	s17, s15
 1150 01d0 F1EE10FA 		vmrs	APSR_nzcv, FPSCR
 1151 01d4 40F08F85 		bne	.L269
 1152              	.L87:
 931:HANcoder_E407_TTA_CombineModel.c ****       rtDWork.TRCK_ID3_RX_MODE = true;
 932:HANcoder_E407_TTA_CombineModel.c **** 
 933:HANcoder_E407_TTA_CombineModel.c ****       /* M-S-Function: '<S55>/S-Function' incorporates:
 934:HANcoder_E407_TTA_CombineModel.c ****        *  Constant: '<S11>/Constant26'
 935:HANcoder_E407_TTA_CombineModel.c ****        */
 936:HANcoder_E407_TTA_CombineModel.c **** 
 937:HANcoder_E407_TTA_CombineModel.c ****       /* read the message data and store the new parameter */
 938:HANcoder_E407_TTA_CombineModel.c ****       rtb_SFunction_o1_k1 = CanIoGetMessage(0, TRCK1_ID3, NULL,
 939:HANcoder_E407_TTA_CombineModel.c ****         &canRxData_0_TRCK1_ID3.uint8_T_info[0], NULL);
 940:HANcoder_E407_TTA_CombineModel.c **** 
 941:HANcoder_E407_TTA_CombineModel.c ****       /* process the message data */
 942:HANcoder_E407_TTA_CombineModel.c ****       if (rtb_SFunction_o1_k1 > 0) {
 943:HANcoder_E407_TTA_CombineModel.c ****         /* read the data */
 944:HANcoder_E407_TTA_CombineModel.c ****         rtb_SFunction_o2_j = canRxData_0_TRCK1_ID3.uint8_T_info[0];
 945:HANcoder_E407_TTA_CombineModel.c ****         rtb_SFunction_o3_a = canRxData_0_TRCK1_ID3.uint8_T_info[1];
 946:HANcoder_E407_TTA_CombineModel.c ****         rtb_SFunction_o4_i = canRxData_0_TRCK1_ID3.uint8_T_info[2];
 947:HANcoder_E407_TTA_CombineModel.c ****         rtb_SFunction_o5_k = canRxData_0_TRCK1_ID3.uint8_T_info[3];
 948:HANcoder_E407_TTA_CombineModel.c ****         rtb_SFunction_o6_c = canRxData_0_TRCK1_ID3.uint8_T_info[4];
 949:HANcoder_E407_TTA_CombineModel.c ****         rtb_SFunction_o7_d = canRxData_0_TRCK1_ID3.uint8_T_info[5];
 950:HANcoder_E407_TTA_CombineModel.c ****         rtb_SFunction_o8_h = canRxData_0_TRCK1_ID3.uint8_T_info[6];
 951:HANcoder_E407_TTA_CombineModel.c ****         rtb_SFunction_o9_b = canRxData_0_TRCK1_ID3.uint8_T_info[7];
 952:HANcoder_E407_TTA_CombineModel.c ****       }
 953:HANcoder_E407_TTA_CombineModel.c **** 
 954:HANcoder_E407_TTA_CombineModel.c ****       /* Outputs for Enabled SubSystem: '<S55>/Enabled Subsystem' */
 955:HANcoder_E407_TTA_CombineModel.c ****       EnabledSubsystem(rtb_SFunction_o1_k1, rtb_SFunction_o2_j,
 956:HANcoder_E407_TTA_CombineModel.c ****                        rtb_SFunction_o3_a, rtb_SFunction_o4_i,
 957:HANcoder_E407_TTA_CombineModel.c ****                        rtb_SFunction_o5_k, rtb_SFunction_o6_c,
 958:HANcoder_E407_TTA_CombineModel.c ****                        rtb_SFunction_o7_d, rtb_SFunction_o8_h,
 959:HANcoder_E407_TTA_CombineModel.c ****                        rtb_SFunction_o9_b, &rtB.EnabledSubsystem_b);
 960:HANcoder_E407_TTA_CombineModel.c **** 
 961:HANcoder_E407_TTA_CombineModel.c ****       /* End of Outputs for SubSystem: '<S55>/Enabled Subsystem' */
 962:HANcoder_E407_TTA_CombineModel.c ****     } else if (rtDWork.TRCK_ID3_RX_MODE) {
 1153              		.loc 1 962 12 is_stmt 1 view .LVU411
 1154              		.loc 1 962 15 is_stmt 0 view .LVU412
 1155 01d8 94F8D030 		ldrb	r3, [r4, #208]	@ zero_extendqisi2
 1156 01dc 13B1     		cbz	r3, .L89
 963:HANcoder_E407_TTA_CombineModel.c ****       rtDWork.TRCK_ID3_RX_MODE = false;
 1157              		.loc 1 963 7 is_stmt 1 view .LVU413
 1158              		.loc 1 963 32 is_stmt 0 view .LVU414
 1159 01de 0023     		movs	r3, #0
 1160 01e0 84F8D030 		strb	r3, [r4, #208]
 1161              	.L89:
 964:HANcoder_E407_TTA_CombineModel.c ****     }
 965:HANcoder_E407_TTA_CombineModel.c **** 
 966:HANcoder_E407_TTA_CombineModel.c ****     /* End of Logic: '<S11>/AND11' */
 967:HANcoder_E407_TTA_CombineModel.c ****     /* End of Outputs for SubSystem: '<S11>/TRCK_ID3_RX' */
 968:HANcoder_E407_TTA_CombineModel.c **** 
 969:HANcoder_E407_TTA_CombineModel.c ****     /* RelationalOperator: '<S11>/Equal15' incorporates:
 970:HANcoder_E407_TTA_CombineModel.c ****      *  Constant: '<S11>/Constant22'
 971:HANcoder_E407_TTA_CombineModel.c ****      */
 972:HANcoder_E407_TTA_CombineModel.c ****     rtb_Equal17 = (slotSelected == 8.0);
 1162              		.loc 1 972 5 is_stmt 1 view .LVU415
 1163              		.loc 1 972 33 is_stmt 0 view .LVU416
 1164 01e4 3378     		ldrb	r3, [r6]	@ zero_extendqisi2
 973:HANcoder_E407_TTA_CombineModel.c **** 
 974:HANcoder_E407_TTA_CombineModel.c ****     /* RelationalOperator: '<S11>/Equal8' incorporates:
 975:HANcoder_E407_TTA_CombineModel.c ****      *  Constant: '<S11>/Constant21'
 976:HANcoder_E407_TTA_CombineModel.c ****      *  DataStoreRead: '<S1>/Data Store Read'
 977:HANcoder_E407_TTA_CombineModel.c ****      */
 978:HANcoder_E407_TTA_CombineModel.c ****     rtb_Equal16 = (rtDWork.nodeRole_i == 4.0);
 1165              		.loc 1 978 27 view .LVU417
 1166 01e6 94F8C820 		ldrb	r2, [r4, #200]	@ zero_extendqisi2
 972:HANcoder_E407_TTA_CombineModel.c **** 
 1167              		.loc 1 972 33 view .LVU418
 1168 01ea 07EE903A 		vmov	s15, r3	@ int
 1169 01ee B8EEE77A 		vcvt.f32.s32	s14, s15
 1170              	.LVL74:
 1171              		.loc 1 978 5 is_stmt 1 view .LVU419
 979:HANcoder_E407_TTA_CombineModel.c **** 
 980:HANcoder_E407_TTA_CombineModel.c ****     /* Logic: '<S11>/AND13' incorporates:
 981:HANcoder_E407_TTA_CombineModel.c ****      *  Logic: '<S11>/NOT6'
 982:HANcoder_E407_TTA_CombineModel.c ****      */
 983:HANcoder_E407_TTA_CombineModel.c ****     rtb_AND13 = (rtb_Equal17 && (!rtb_Equal16));
 1172              		.loc 1 983 30 is_stmt 0 view .LVU420
 1173 01f2 F2EE006A 		vmov.f32	s13, #8.0e+0
 978:HANcoder_E407_TTA_CombineModel.c **** 
 1174              		.loc 1 978 27 view .LVU421
 1175 01f6 07EE902A 		vmov	s15, r2	@ int
 1176              		.loc 1 983 30 view .LVU422
 1177 01fa B4EE667A 		vcmp.f32	s14, s13
 1178 01fe F1EE10FA 		vmrs	APSR_nzcv, FPSCR
 978:HANcoder_E407_TTA_CombineModel.c **** 
 1179              		.loc 1 978 39 view .LVU423
 1180 0202 F8EEE77A 		vcvt.f32.s32	s15, s15
 1181              	.LVL75:
 1182              		.loc 1 983 5 is_stmt 1 view .LVU424
 1183              		.loc 1 983 30 is_stmt 0 view .LVU425
 1184 0206 40F09A84 		bne	.L91
 1185              		.loc 1 983 30 discriminator 1 view .LVU426
 1186 020a F1EE006A 		vmov.f32	s13, #4.0e+0
 1187 020e F4EE667A 		vcmp.f32	s15, s13
 1188 0212 F1EE10FA 		vmrs	APSR_nzcv, FPSCR
 1189 0216 00F03685 		beq	.L270
 1190              	.LVL76:
 984:HANcoder_E407_TTA_CombineModel.c **** 
 985:HANcoder_E407_TTA_CombineModel.c ****     /* Outputs for Enabled SubSystem: '<S11>/TRLS_ID4_RX' incorporates:
 986:HANcoder_E407_TTA_CombineModel.c ****      *  EnablePort: '<S35>/Enable'
 987:HANcoder_E407_TTA_CombineModel.c ****      */
 988:HANcoder_E407_TTA_CombineModel.c ****     if (rtb_AND13) {
 1191              		.loc 1 988 5 is_stmt 1 view .LVU427
 989:HANcoder_E407_TTA_CombineModel.c ****       rtDWork.TRLS_ID4_RX_MODE = true;
 1192              		.loc 1 989 7 view .LVU428
 990:HANcoder_E407_TTA_CombineModel.c **** 
 991:HANcoder_E407_TTA_CombineModel.c ****       /* M-S-Function: '<S58>/S-Function' incorporates:
 992:HANcoder_E407_TTA_CombineModel.c ****        *  Constant: '<S11>/Constant8'
 993:HANcoder_E407_TTA_CombineModel.c ****        */
 994:HANcoder_E407_TTA_CombineModel.c **** 
 995:HANcoder_E407_TTA_CombineModel.c ****       /* read the message data and store the new parameter */
 996:HANcoder_E407_TTA_CombineModel.c ****       rtb_SFunction_o1_k = CanIoGetMessage(0, TRLS1_ID4, NULL,
 1193              		.loc 1 996 28 is_stmt 0 view .LVU429
 1194 021a 574B     		ldr	r3, .L280+76
 1195 021c DFF86881 		ldr	r8, .L280+92
 1196 0220 1968     		ldr	r1, [r3]
 1197 0222 0022     		movs	r2, #0
 989:HANcoder_E407_TTA_CombineModel.c ****       rtDWork.TRLS_ID4_RX_MODE = true;
 1198              		.loc 1 989 32 view .LVU430
 1199 0224 0123     		movs	r3, #1
 1200 0226 84F8CF30 		strb	r3, [r4, #207]
 1201              		.loc 1 996 7 is_stmt 1 view .LVU431
 1202              		.loc 1 996 28 is_stmt 0 view .LVU432
 1203 022a 0092     		str	r2, [sp]
 1204 022c 4346     		mov	r3, r8
 1205 022e 1046     		mov	r0, r2
 1206 0230 FFF7FEFF 		bl	CanIoGetMessage
 1207              	.LVL77:
 997:HANcoder_E407_TTA_CombineModel.c ****         &canRxData_0_TRLS1_ID4.uint8_T_info[0], NULL);
 998:HANcoder_E407_TTA_CombineModel.c **** 
 999:HANcoder_E407_TTA_CombineModel.c ****       /* process the message data */
1000:HANcoder_E407_TTA_CombineModel.c ****       if (rtb_SFunction_o1_k > 0) {
 1208              		.loc 1 1000 7 is_stmt 1 view .LVU433
 1209              		.loc 1 1000 10 is_stmt 0 view .LVU434
 1210 0234 0028     		cmp	r0, #0
 1211 0236 40F3DA85 		ble	.L271
1001:HANcoder_E407_TTA_CombineModel.c ****         /* read the data */
1002:HANcoder_E407_TTA_CombineModel.c ****         rtb_SFunction_o2_e = canRxData_0_TRLS1_ID4.uint8_T_info[0];
 1212              		.loc 1 1002 9 is_stmt 1 view .LVU435
 1213              		.loc 1 1002 28 is_stmt 0 view .LVU436
 1214 023a 98F80020 		ldrb	r2, [r8]	@ zero_extendqisi2
 1215              	.LVL78:
1003:HANcoder_E407_TTA_CombineModel.c ****         rtb_SFunction_o3_p = canRxData_0_TRLS1_ID4.uint8_T_info[1];
 1216              		.loc 1 1003 9 is_stmt 1 view .LVU437
 1217              		.loc 1 1003 28 is_stmt 0 view .LVU438
 1218 023e 98F80110 		ldrb	r1, [r8, #1]	@ zero_extendqisi2
 1219              	.LVL79:
1004:HANcoder_E407_TTA_CombineModel.c ****         rtb_SFunction_o4_c = canRxData_0_TRLS1_ID4.uint8_T_info[2];
 1220              		.loc 1 1004 9 is_stmt 1 view .LVU439
1005:HANcoder_E407_TTA_CombineModel.c ****         rtb_SFunction_o5_c = canRxData_0_TRLS1_ID4.uint8_T_info[3];
 1221              		.loc 1 1005 9 view .LVU440
1006:HANcoder_E407_TTA_CombineModel.c ****         rtb_SFunction_o6_e = canRxData_0_TRLS1_ID4.uint8_T_info[4];
 1222              		.loc 1 1006 9 view .LVU441
1007:HANcoder_E407_TTA_CombineModel.c ****         rtb_SFunction_o7_l = canRxData_0_TRLS1_ID4.uint8_T_info[5];
 1223              		.loc 1 1007 9 view .LVU442
1008:HANcoder_E407_TTA_CombineModel.c ****         rtb_SFunction_o8_f = canRxData_0_TRLS1_ID4.uint8_T_info[6];
 1224              		.loc 1 1008 9 view .LVU443
1009:HANcoder_E407_TTA_CombineModel.c ****         rtb_SFunction_o9_h = canRxData_0_TRLS1_ID4.uint8_T_info[7];
 1225              		.loc 1 1009 9 view .LVU444
1010:HANcoder_E407_TTA_CombineModel.c ****       }
1011:HANcoder_E407_TTA_CombineModel.c **** 
1012:HANcoder_E407_TTA_CombineModel.c ****       /* Outputs for Enabled SubSystem: '<S58>/Enabled Subsystem' */
1013:HANcoder_E407_TTA_CombineModel.c ****       EnabledSubsystem(rtb_SFunction_o1_k, rtb_SFunction_o2_e,
 1226              		.loc 1 1013 7 view .LVU445
 1227              	.LBB129:
 1228              	.LBI129:
 270:HANcoder_E407_TTA_CombineModel.c ****                       uint8_T rtu_In3, uint8_T rtu_In4, uint8_T rtu_In5, uint8_T
 1229              		.loc 1 270 6 view .LVU446
 1230              	.LBB130:
 275:HANcoder_E407_TTA_CombineModel.c ****   uint8_T rtb_In4_c;
 1231              		.loc 1 275 3 view .LVU447
 276:HANcoder_E407_TTA_CombineModel.c ****   uint8_T rtb_In5_a;
 1232              		.loc 1 276 3 view .LVU448
 277:HANcoder_E407_TTA_CombineModel.c ****   uint8_T rtb_In6_j;
 1233              		.loc 1 277 3 view .LVU449
 278:HANcoder_E407_TTA_CombineModel.c ****   uint8_T rtb_In7_h;
 1234              		.loc 1 278 3 view .LVU450
 279:HANcoder_E407_TTA_CombineModel.c ****   uint8_T rtb_In8_m;
 1235              		.loc 1 279 3 view .LVU451
 280:HANcoder_E407_TTA_CombineModel.c **** 
 1236              		.loc 1 280 3 view .LVU452
 285:HANcoder_E407_TTA_CombineModel.c ****     /* SignalConversion generated from: '<S40>/In1' */
 1237              		.loc 1 285 3 view .LVU453
 287:HANcoder_E407_TTA_CombineModel.c **** 
 1238              		.loc 1 287 5 view .LVU454
 287:HANcoder_E407_TTA_CombineModel.c **** 
 1239              		.loc 1 287 17 is_stmt 0 view .LVU455
 1240 0242 3A74     		strb	r2, [r7, #16]
 290:HANcoder_E407_TTA_CombineModel.c **** 
 1241              		.loc 1 290 5 is_stmt 1 view .LVU456
 290:HANcoder_E407_TTA_CombineModel.c **** 
 1242              		.loc 1 290 17 is_stmt 0 view .LVU457
 1243 0244 7974     		strb	r1, [r7, #17]
 293:HANcoder_E407_TTA_CombineModel.c **** 
 1244              		.loc 1 293 5 is_stmt 1 view .LVU458
 296:HANcoder_E407_TTA_CombineModel.c **** 
 1245              		.loc 1 296 5 view .LVU459
 299:HANcoder_E407_TTA_CombineModel.c **** 
 1246              		.loc 1 299 5 view .LVU460
 302:HANcoder_E407_TTA_CombineModel.c **** 
 1247              		.loc 1 302 5 view .LVU461
 305:HANcoder_E407_TTA_CombineModel.c **** 
 1248              		.loc 1 305 5 view .LVU462
 308:HANcoder_E407_TTA_CombineModel.c ****   }
 1249              		.loc 1 308 5 view .LVU463
 1250              	.LVL80:
 1251              	.L143:
 308:HANcoder_E407_TTA_CombineModel.c ****   }
 1252              		.loc 1 308 5 is_stmt 0 view .LVU464
 1253              	.LBE130:
 1254              	.LBE129:
1014:HANcoder_E407_TTA_CombineModel.c ****                        rtb_SFunction_o3_p, rtb_SFunction_o4_c,
1015:HANcoder_E407_TTA_CombineModel.c ****                        rtb_SFunction_o5_c, rtb_SFunction_o6_e,
1016:HANcoder_E407_TTA_CombineModel.c ****                        rtb_SFunction_o7_l, rtb_SFunction_o8_f,
1017:HANcoder_E407_TTA_CombineModel.c ****                        rtb_SFunction_o9_h, &rtB.EnabledSubsystem_g);
1018:HANcoder_E407_TTA_CombineModel.c **** 
1019:HANcoder_E407_TTA_CombineModel.c ****       /* End of Outputs for SubSystem: '<S58>/Enabled Subsystem' */
1020:HANcoder_E407_TTA_CombineModel.c **** 
1021:HANcoder_E407_TTA_CombineModel.c ****       /* DataTypeConversion: '<S57>/Cast' */
1022:HANcoder_E407_TTA_CombineModel.c ****       rtb_Cast_le = rtB.EnabledSubsystem_g.In1;
 1255              		.loc 1 1022 7 is_stmt 1 view .LVU465
1023:HANcoder_E407_TTA_CombineModel.c **** 
1024:HANcoder_E407_TTA_CombineModel.c ****       /* Outputs for Atomic SubSystem: '<S57>/Bit Shift' */
1025:HANcoder_E407_TTA_CombineModel.c ****       BitShift(rtb_Cast_le, &rtB.BitShift_j);
 1256              		.loc 1 1025 7 view .LVU466
 1257              	.LBB131:
 1258              	.LBI131:
 436:HANcoder_E407_TTA_CombineModel.c **** {
 1259              		.loc 1 436 6 view .LVU467
 1260              	.LBB132:
 441:HANcoder_E407_TTA_CombineModel.c **** }
 1261              		.loc 1 441 3 view .LVU468
 441:HANcoder_E407_TTA_CombineModel.c **** }
 1262              		.loc 1 441 15 is_stmt 0 view .LVU469
 1263 0246 1302     		lsls	r3, r2, #8
 1264              	.LBE132:
 1265              	.LBE131:
1026:HANcoder_E407_TTA_CombineModel.c **** 
1027:HANcoder_E407_TTA_CombineModel.c ****       /* End of Outputs for SubSystem: '<S57>/Bit Shift' */
1028:HANcoder_E407_TTA_CombineModel.c **** 
1029:HANcoder_E407_TTA_CombineModel.c ****       /* Switch: '<S79>/Switch1' incorporates:
1030:HANcoder_E407_TTA_CombineModel.c ****        *  DataTypeConversion: '<S57>/Cast1'
1031:HANcoder_E407_TTA_CombineModel.c ****        */
1032:HANcoder_E407_TTA_CombineModel.c ****       rtb_Switch1 = rtB.EnabledSubsystem_g.In2;
1033:HANcoder_E407_TTA_CombineModel.c **** 
1034:HANcoder_E407_TTA_CombineModel.c ****       /* Sum: '<S57>/Add' incorporates:
1035:HANcoder_E407_TTA_CombineModel.c ****        *  DataStoreWrite: '<S35>/Data Store Write'
1036:HANcoder_E407_TTA_CombineModel.c ****        */
1037:HANcoder_E407_TTA_CombineModel.c ****       rtDWork.trailerOneAngle = (uint16_T)((uint32_T)rtB.BitShift_j.y +
 1266              		.loc 1 1037 33 view .LVU470
 1267 0248 1944     		add	r1, r1, r3
 1268              	.LBB134:
 1269              	.LBB133:
 441:HANcoder_E407_TTA_CombineModel.c **** }
 1270              		.loc 1 441 13 view .LVU471
 1271 024a 7B82     		strh	r3, [r7, #18]	@ movhi
 1272              	.LVL81:
 441:HANcoder_E407_TTA_CombineModel.c **** }
 1273              		.loc 1 441 13 view .LVU472
 1274              	.LBE133:
 1275              	.LBE134:
1032:HANcoder_E407_TTA_CombineModel.c **** 
 1276              		.loc 1 1032 7 is_stmt 1 view .LVU473
 1277              		.loc 1 1037 7 view .LVU474
1038:HANcoder_E407_TTA_CombineModel.c ****         rtb_Switch1);
1039:HANcoder_E407_TTA_CombineModel.c ****     } else if (rtDWork.TRLS_ID4_RX_MODE) {
1040:HANcoder_E407_TTA_CombineModel.c ****       rtDWork.TRLS_ID4_RX_MODE = false;
1041:HANcoder_E407_TTA_CombineModel.c ****     }
1042:HANcoder_E407_TTA_CombineModel.c **** 
1043:HANcoder_E407_TTA_CombineModel.c ****     /* End of Outputs for SubSystem: '<S11>/TRLS_ID4_RX' */
1044:HANcoder_E407_TTA_CombineModel.c **** 
1045:HANcoder_E407_TTA_CombineModel.c ****     /* Logic: '<S11>/AND12' */
1046:HANcoder_E407_TTA_CombineModel.c ****     rtb_Equal14 = (rtb_Equal17 && rtb_Equal16);
1047:HANcoder_E407_TTA_CombineModel.c **** 
1048:HANcoder_E407_TTA_CombineModel.c ****     /* Outputs for Triggered SubSystem: '<S11>/TRLS_ID4_TX' incorporates:
1049:HANcoder_E407_TTA_CombineModel.c ****      *  TriggerPort: '<S36>/Trigger'
1050:HANcoder_E407_TTA_CombineModel.c ****      */
1051:HANcoder_E407_TTA_CombineModel.c ****     if (rtb_Equal14 && (rtPrevZCSigState.TRLS_ID4_TX_Trig_ZCE != POS_ZCSIG)) {
1052:HANcoder_E407_TTA_CombineModel.c ****       /* Outputs for Atomic SubSystem: '<S63>/Bit Shift' */
1053:HANcoder_E407_TTA_CombineModel.c ****       /* DataTypeConversion: '<S63>/Cast' incorporates:
1054:HANcoder_E407_TTA_CombineModel.c ****        *  DataStoreRead: '<S36>/Data Store Read'
1055:HANcoder_E407_TTA_CombineModel.c ****        *  MATLAB Function: '<S64>/bit_shift'
1056:HANcoder_E407_TTA_CombineModel.c ****        */
1057:HANcoder_E407_TTA_CombineModel.c ****       /* MATLAB Function 'Logic and Bit Operations/Bit Shift/bit_shift': '<S65>:1' */
1058:HANcoder_E407_TTA_CombineModel.c ****       /* '<S65>:1:8' */
1059:HANcoder_E407_TTA_CombineModel.c ****       rtB.Cast = (uint8_T)((uint32_T)rtDWork.trailerOneAngle >> 8);
1060:HANcoder_E407_TTA_CombineModel.c **** 
1061:HANcoder_E407_TTA_CombineModel.c ****       /* End of Outputs for SubSystem: '<S63>/Bit Shift' */
1062:HANcoder_E407_TTA_CombineModel.c **** 
1063:HANcoder_E407_TTA_CombineModel.c ****       /* DataTypeConversion: '<S63>/Cast1' incorporates:
1064:HANcoder_E407_TTA_CombineModel.c ****        *  DataStoreRead: '<S36>/Data Store Read'
1065:HANcoder_E407_TTA_CombineModel.c ****        */
1066:HANcoder_E407_TTA_CombineModel.c ****       rtB.Cast1 = (uint8_T)rtDWork.trailerOneAngle;
1067:HANcoder_E407_TTA_CombineModel.c **** 
1068:HANcoder_E407_TTA_CombineModel.c ****       /* Update for M-S-Function: '<S62>/S-Function' incorporates:
1069:HANcoder_E407_TTA_CombineModel.c ****        *  Constant: '<S11>/Constant8'
1070:HANcoder_E407_TTA_CombineModel.c ****        */
1071:HANcoder_E407_TTA_CombineModel.c ****       {
1072:HANcoder_E407_TTA_CombineModel.c ****         /* prepare the data */
1073:HANcoder_E407_TTA_CombineModel.c ****         canTxData.uint8_T_info[0] = rtB.Cast;
1074:HANcoder_E407_TTA_CombineModel.c ****         canTxData.uint8_T_info[1] = rtB.Cast1;
1075:HANcoder_E407_TTA_CombineModel.c **** 
1076:HANcoder_E407_TTA_CombineModel.c ****         /* send the data */
1077:HANcoder_E407_TTA_CombineModel.c ****         CanTransmit(0, TRLS1_ID4, 2, &canTxData.uint8_T_info[0]);
1078:HANcoder_E407_TTA_CombineModel.c ****       }
1079:HANcoder_E407_TTA_CombineModel.c ****     }
1080:HANcoder_E407_TTA_CombineModel.c **** 
1081:HANcoder_E407_TTA_CombineModel.c ****     rtPrevZCSigState.TRLS_ID4_TX_Trig_ZCE = rtb_Equal14;
1082:HANcoder_E407_TTA_CombineModel.c **** 
1083:HANcoder_E407_TTA_CombineModel.c ****     /* End of Outputs for SubSystem: '<S11>/TRLS_ID4_TX' */
1084:HANcoder_E407_TTA_CombineModel.c **** 
1085:HANcoder_E407_TTA_CombineModel.c ****     /* RelationalOperator: '<S11>/Equal17' incorporates:
1086:HANcoder_E407_TTA_CombineModel.c ****      *  Constant: '<S11>/Constant25'
1087:HANcoder_E407_TTA_CombineModel.c ****      */
1088:HANcoder_E407_TTA_CombineModel.c ****     rtb_Equal17 = (slotSelected == 9.0);
 1278              		.loc 1 1088 33 is_stmt 0 view .LVU475
 1279 024c 3378     		ldrb	r3, [r6]	@ zero_extendqisi2
1089:HANcoder_E407_TTA_CombineModel.c **** 
1090:HANcoder_E407_TTA_CombineModel.c ****     /* RelationalOperator: '<S11>/Equal16' incorporates:
1091:HANcoder_E407_TTA_CombineModel.c ****      *  Constant: '<S11>/Constant24'
1092:HANcoder_E407_TTA_CombineModel.c ****      *  DataStoreRead: '<S1>/Data Store Read'
1093:HANcoder_E407_TTA_CombineModel.c ****      */
1094:HANcoder_E407_TTA_CombineModel.c ****     rtb_Equal16 = (rtDWork.nodeRole_i == 5.0);
 1280              		.loc 1 1094 27 view .LVU476
 1281 024e 94F8C820 		ldrb	r2, [r4, #200]	@ zero_extendqisi2
 1282              	.LVL82:
1037:HANcoder_E407_TTA_CombineModel.c ****         rtb_Switch1);
 1283              		.loc 1 1037 31 view .LVU477
 1284 0252 A4F8C210 		strh	r1, [r4, #194]	@ movhi
1046:HANcoder_E407_TTA_CombineModel.c **** 
 1285              		.loc 1 1046 5 is_stmt 1 view .LVU478
1088:HANcoder_E407_TTA_CombineModel.c **** 
 1286              		.loc 1 1088 33 is_stmt 0 view .LVU479
 1287 0256 07EE903A 		vmov	s15, r3	@ int
 1288 025a B8EEE77A 		vcvt.f32.s32	s14, s15
 1289              		.loc 1 1094 27 view .LVU480
 1290 025e 07EE902A 		vmov	s15, r2	@ int
 1291              		.loc 1 1094 39 view .LVU481
 1292 0262 F8EEE77A 		vcvt.f32.s32	s15, s15
 1293              	.LVL83:
 1294              	.L94:
1051:HANcoder_E407_TTA_CombineModel.c ****       /* Outputs for Atomic SubSystem: '<S63>/Bit Shift' */
 1295              		.loc 1 1051 5 is_stmt 1 view .LVU482
1046:HANcoder_E407_TTA_CombineModel.c **** 
 1296              		.loc 1 1046 17 is_stmt 0 view .LVU483
 1297 0266 0022     		movs	r2, #0
 1298              	.LVL84:
 1299              	.L141:
1081:HANcoder_E407_TTA_CombineModel.c **** 
 1300              		.loc 1 1081 5 is_stmt 1 view .LVU484
1095:HANcoder_E407_TTA_CombineModel.c **** 
1096:HANcoder_E407_TTA_CombineModel.c ****     /* Logic: '<S11>/AND15' incorporates:
1097:HANcoder_E407_TTA_CombineModel.c ****      *  Logic: '<S11>/NOT7'
1098:HANcoder_E407_TTA_CombineModel.c ****      */
1099:HANcoder_E407_TTA_CombineModel.c ****     rtb_AND15 = (rtb_Equal17 && (!rtb_Equal16));
 1301              		.loc 1 1099 30 is_stmt 0 view .LVU485
 1302 0268 F2EE026A 		vmov.f32	s13, #9.0e+0
 1303 026c B4EE667A 		vcmp.f32	s14, s13
 1304 0270 F1EE10FA 		vmrs	APSR_nzcv, FPSCR
1081:HANcoder_E407_TTA_CombineModel.c **** 
 1305              		.loc 1 1081 43 view .LVU486
 1306 0274 2A71     		strb	r2, [r5, #4]
1088:HANcoder_E407_TTA_CombineModel.c **** 
 1307              		.loc 1 1088 5 is_stmt 1 view .LVU487
 1308              	.LVL85:
1094:HANcoder_E407_TTA_CombineModel.c **** 
 1309              		.loc 1 1094 5 view .LVU488
 1310              		.loc 1 1099 5 view .LVU489
 1311              		.loc 1 1099 30 is_stmt 0 view .LVU490
 1312 0276 00F06C84 		beq	.L272
 1313              	.LVL86:
1100:HANcoder_E407_TTA_CombineModel.c **** 
1101:HANcoder_E407_TTA_CombineModel.c ****     /* Outputs for Enabled SubSystem: '<S11>/TRLS_ID5_RX' incorporates:
1102:HANcoder_E407_TTA_CombineModel.c ****      *  EnablePort: '<S37>/Enable'
1103:HANcoder_E407_TTA_CombineModel.c ****      */
1104:HANcoder_E407_TTA_CombineModel.c ****     if (rtb_AND15) {
 1314              		.loc 1 1104 5 is_stmt 1 view .LVU491
1105:HANcoder_E407_TTA_CombineModel.c ****       rtDWork.TRLS_ID5_RX_MODE = true;
1106:HANcoder_E407_TTA_CombineModel.c **** 
1107:HANcoder_E407_TTA_CombineModel.c ****       /* M-S-Function: '<S67>/S-Function' incorporates:
1108:HANcoder_E407_TTA_CombineModel.c ****        *  Constant: '<S11>/Constant18'
1109:HANcoder_E407_TTA_CombineModel.c ****        */
1110:HANcoder_E407_TTA_CombineModel.c **** 
1111:HANcoder_E407_TTA_CombineModel.c ****       /* read the message data and store the new parameter */
1112:HANcoder_E407_TTA_CombineModel.c ****       rtb_SFunction_o1_n = CanIoGetMessage(0, TRLS1_ID5, NULL,
1113:HANcoder_E407_TTA_CombineModel.c ****         &canRxData_0_TRLS1_ID5.uint8_T_info[0], NULL);
1114:HANcoder_E407_TTA_CombineModel.c **** 
1115:HANcoder_E407_TTA_CombineModel.c ****       /* process the message data */
1116:HANcoder_E407_TTA_CombineModel.c ****       if (rtb_SFunction_o1_n > 0) {
1117:HANcoder_E407_TTA_CombineModel.c ****         /* read the data */
1118:HANcoder_E407_TTA_CombineModel.c ****         rtb_SFunction_o2_l = canRxData_0_TRLS1_ID5.uint8_T_info[0];
1119:HANcoder_E407_TTA_CombineModel.c ****         rtb_SFunction_o3_m = canRxData_0_TRLS1_ID5.uint8_T_info[1];
1120:HANcoder_E407_TTA_CombineModel.c ****         rtb_SFunction_o4_b = canRxData_0_TRLS1_ID5.uint8_T_info[2];
1121:HANcoder_E407_TTA_CombineModel.c ****         rtb_SFunction_o5_o = canRxData_0_TRLS1_ID5.uint8_T_info[3];
1122:HANcoder_E407_TTA_CombineModel.c ****         rtb_SFunction_o6_i = canRxData_0_TRLS1_ID5.uint8_T_info[4];
1123:HANcoder_E407_TTA_CombineModel.c ****         rtb_SFunction_o7_f = canRxData_0_TRLS1_ID5.uint8_T_info[5];
1124:HANcoder_E407_TTA_CombineModel.c ****         rtb_SFunction_o8_p = canRxData_0_TRLS1_ID5.uint8_T_info[6];
1125:HANcoder_E407_TTA_CombineModel.c ****         rtb_SFunction_o9_l = canRxData_0_TRLS1_ID5.uint8_T_info[7];
1126:HANcoder_E407_TTA_CombineModel.c ****       }
1127:HANcoder_E407_TTA_CombineModel.c **** 
1128:HANcoder_E407_TTA_CombineModel.c ****       /* Outputs for Enabled SubSystem: '<S67>/Enabled Subsystem' */
1129:HANcoder_E407_TTA_CombineModel.c ****       EnabledSubsystem(rtb_SFunction_o1_n, rtb_SFunction_o2_l,
1130:HANcoder_E407_TTA_CombineModel.c ****                        rtb_SFunction_o3_m, rtb_SFunction_o4_b,
1131:HANcoder_E407_TTA_CombineModel.c ****                        rtb_SFunction_o5_o, rtb_SFunction_o6_i,
1132:HANcoder_E407_TTA_CombineModel.c ****                        rtb_SFunction_o7_f, rtb_SFunction_o8_p,
1133:HANcoder_E407_TTA_CombineModel.c ****                        rtb_SFunction_o9_l, &rtB.EnabledSubsystem_e);
1134:HANcoder_E407_TTA_CombineModel.c **** 
1135:HANcoder_E407_TTA_CombineModel.c ****       /* End of Outputs for SubSystem: '<S67>/Enabled Subsystem' */
1136:HANcoder_E407_TTA_CombineModel.c **** 
1137:HANcoder_E407_TTA_CombineModel.c ****       /* DataTypeConversion: '<S66>/Cast' */
1138:HANcoder_E407_TTA_CombineModel.c ****       rtb_Cast_b = rtB.EnabledSubsystem_e.In1;
1139:HANcoder_E407_TTA_CombineModel.c **** 
1140:HANcoder_E407_TTA_CombineModel.c ****       /* Outputs for Atomic SubSystem: '<S66>/Bit Shift' */
1141:HANcoder_E407_TTA_CombineModel.c ****       BitShift(rtb_Cast_b, &rtB.BitShift_c);
1142:HANcoder_E407_TTA_CombineModel.c **** 
1143:HANcoder_E407_TTA_CombineModel.c ****       /* End of Outputs for SubSystem: '<S66>/Bit Shift' */
1144:HANcoder_E407_TTA_CombineModel.c **** 
1145:HANcoder_E407_TTA_CombineModel.c ****       /* Switch: '<S79>/Switch1' incorporates:
1146:HANcoder_E407_TTA_CombineModel.c ****        *  DataTypeConversion: '<S66>/Cast1'
1147:HANcoder_E407_TTA_CombineModel.c ****        */
1148:HANcoder_E407_TTA_CombineModel.c ****       rtb_Switch1 = rtB.EnabledSubsystem_e.In2;
1149:HANcoder_E407_TTA_CombineModel.c **** 
1150:HANcoder_E407_TTA_CombineModel.c ****       /* Sum: '<S66>/Add' incorporates:
1151:HANcoder_E407_TTA_CombineModel.c ****        *  DataStoreWrite: '<S37>/Data Store Write1'
1152:HANcoder_E407_TTA_CombineModel.c ****        */
1153:HANcoder_E407_TTA_CombineModel.c ****       rtDWork.trailerTwoAngle = (uint16_T)((uint32_T)rtB.BitShift_c.y +
1154:HANcoder_E407_TTA_CombineModel.c ****         rtb_Switch1);
1155:HANcoder_E407_TTA_CombineModel.c ****     } else if (rtDWork.TRLS_ID5_RX_MODE) {
 1315              		.loc 1 1155 12 view .LVU492
 1316              		.loc 1 1155 15 is_stmt 0 view .LVU493
 1317 027a 94F8CE20 		ldrb	r2, [r4, #206]	@ zero_extendqisi2
 1318 027e 12B1     		cbz	r2, .L98
1156:HANcoder_E407_TTA_CombineModel.c ****       rtDWork.TRLS_ID5_RX_MODE = false;
 1319              		.loc 1 1156 7 is_stmt 1 view .LVU494
 1320              		.loc 1 1156 32 is_stmt 0 view .LVU495
 1321 0280 0022     		movs	r2, #0
 1322 0282 84F8CE20 		strb	r2, [r4, #206]
1157:HANcoder_E407_TTA_CombineModel.c ****     }
1158:HANcoder_E407_TTA_CombineModel.c **** 
1159:HANcoder_E407_TTA_CombineModel.c ****     /* End of Outputs for SubSystem: '<S11>/TRLS_ID5_RX' */
1160:HANcoder_E407_TTA_CombineModel.c **** 
1161:HANcoder_E407_TTA_CombineModel.c ****     /* Logic: '<S11>/AND14' */
1162:HANcoder_E407_TTA_CombineModel.c ****     rtb_AND14 = (rtb_Equal17 && rtb_Equal16);
 1323              		.loc 1 1162 5 is_stmt 1 view .LVU496
 1324              	.L98:
 1325              	.LVL87:
1163:HANcoder_E407_TTA_CombineModel.c **** 
1164:HANcoder_E407_TTA_CombineModel.c ****     /* Outputs for Triggered SubSystem: '<S11>/TRLS_ID5_TX' */
1165:HANcoder_E407_TTA_CombineModel.c ****     /* Constant: '<S11>/Constant18' */
1166:HANcoder_E407_TTA_CombineModel.c ****     MMBS1_TX(rtb_AND14, TRLS1_ID5, &rtPrevZCSigState.TRLS_ID5_TX);
 1326              		.loc 1 1166 5 view .LVU497
 1327              	.LBB135:
 1328              	.LBI135:
 410:HANcoder_E407_TTA_CombineModel.c **** {
 1329              		.loc 1 410 6 view .LVU498
 1330              	.LBB136:
 415:HANcoder_E407_TTA_CombineModel.c ****     /* Update for M-S-Function: '<S41>/S-Function' */
 1331              		.loc 1 415 3 view .LVU499
 1332              	.LBE136:
 1333              	.LBE135:
1162:HANcoder_E407_TTA_CombineModel.c **** 
 1334              		.loc 1 1162 15 is_stmt 0 view .LVU500
 1335 0286 0022     		movs	r2, #0
 1336              	.LVL88:
 1337              	.L136:
 1338              	.LBB143:
 1339              	.LBB137:
 426:HANcoder_E407_TTA_CombineModel.c **** 
 1340              		.loc 1 426 3 is_stmt 1 view .LVU501
 426:HANcoder_E407_TTA_CombineModel.c **** 
 1341              		.loc 1 426 31 is_stmt 0 view .LVU502
 1342 0288 EA70     		strb	r2, [r5, #3]
 429:HANcoder_E407_TTA_CombineModel.c **** 
 1343              		.loc 1 429 1 view .LVU503
 1344 028a E1E0     		b	.L99
 1345              	.LVL89:
 1346              	.L262:
 429:HANcoder_E407_TTA_CombineModel.c **** 
 1347              		.loc 1 429 1 view .LVU504
 1348              	.LBE137:
 1349              	.LBE143:
 564:HANcoder_E407_TTA_CombineModel.c ****   }
 1350              		.loc 1 564 5 is_stmt 1 view .LVU505
 564:HANcoder_E407_TTA_CombineModel.c ****   }
 1351              		.loc 1 564 42 is_stmt 0 view .LVU506
 1352 028c 84F8D200 		strb	r0, [r4, #210]
 1353 0290 CAE6     		b	.L58
 1354              	.LVL90:
 1355              	.L263:
 687:HANcoder_E407_TTA_CombineModel.c **** 
 1356              		.loc 1 687 5 is_stmt 1 view .LVU507
 1357 0292 DFF8B090 		ldr	r9, .L280+24
 1358 0296 2D4B     		ldr	r3, .L280+32
 1359 0298 2B4A     		ldr	r2, .L280+28
 1360 029a D9F80010 		ldr	r1, [r9]
 1361 029e 0020     		movs	r0, #0
 1362 02a0 FFF7FEFF 		bl	MMBS1_RX
 1363              	.LVL91:
 692:HANcoder_E407_TTA_CombineModel.c **** 
 1364              		.loc 1 692 5 view .LVU508
 696:HANcoder_E407_TTA_CombineModel.c **** 
 1365              		.loc 1 696 5 view .LVU509
 1366              	.LBB144:
 410:HANcoder_E407_TTA_CombineModel.c **** {
 1367              		.loc 1 410 6 view .LVU510
 1368              	.LBB100:
 415:HANcoder_E407_TTA_CombineModel.c ****     /* Update for M-S-Function: '<S41>/S-Function' */
 1369              		.loc 1 415 3 view .LVU511
 415:HANcoder_E407_TTA_CombineModel.c ****     /* Update for M-S-Function: '<S41>/S-Function' */
 1370              		.loc 1 415 31 is_stmt 0 view .LVU512
 1371 02a4 AB7A     		ldrb	r3, [r5, #10]	@ zero_extendqisi2
 415:HANcoder_E407_TTA_CombineModel.c ****     /* Update for M-S-Function: '<S41>/S-Function' */
 1372              		.loc 1 415 19 view .LVU513
 1373 02a6 012B     		cmp	r3, #1
 1374 02a8 3FF409AF 		beq	.L152
 419:HANcoder_E407_TTA_CombineModel.c **** 
 1375              		.loc 1 419 7 is_stmt 1 view .LVU514
 419:HANcoder_E407_TTA_CombineModel.c **** 
 1376              		.loc 1 419 33 is_stmt 0 view .LVU515
 1377 02ac 334B     		ldr	r3, .L280+80
 422:HANcoder_E407_TTA_CombineModel.c ****     }
 1378              		.loc 1 422 7 view .LVU516
 1379 02ae D9F80010 		ldr	r1, [r9]
 419:HANcoder_E407_TTA_CombineModel.c **** 
 1380              		.loc 1 419 33 view .LVU517
 1381 02b2 0020     		movs	r0, #0
 1382 02b4 1870     		strb	r0, [r3]
 422:HANcoder_E407_TTA_CombineModel.c ****     }
 1383              		.loc 1 422 7 is_stmt 1 view .LVU518
 1384 02b6 4246     		mov	r2, r8
 1385 02b8 FFF7FEFF 		bl	CanTransmit
 1386              	.LVL92:
 422:HANcoder_E407_TTA_CombineModel.c ****     }
 1387              		.loc 1 422 7 is_stmt 0 view .LVU519
 1388              	.LBE100:
 1389              	.LBE144:
 692:HANcoder_E407_TTA_CombineModel.c **** 
 1390              		.loc 1 692 14 view .LVU520
 1391 02bc 4346     		mov	r3, r8
 1392 02be FEE6     		b	.L152
 1393              	.LVL93:
 1394              	.L264:
 719:HANcoder_E407_TTA_CombineModel.c **** 
 1395              		.loc 1 719 5 is_stmt 1 view .LVU521
 1396 02c0 DFF88C80 		ldr	r8, .L280+36
 1397 02c4 244B     		ldr	r3, .L280+44
 1398 02c6 234A     		ldr	r2, .L280+40
 1399 02c8 D8F80010 		ldr	r1, [r8]
 1400 02cc 0020     		movs	r0, #0
 1401 02ce FFF7FEFF 		bl	MMBS1_RX
 1402              	.LVL94:
 724:HANcoder_E407_TTA_CombineModel.c **** 
 1403              		.loc 1 724 5 view .LVU522
 728:HANcoder_E407_TTA_CombineModel.c **** 
 1404              		.loc 1 728 5 view .LVU523
 1405              	.LBB145:
 410:HANcoder_E407_TTA_CombineModel.c **** {
 1406              		.loc 1 410 6 view .LVU524
 1407              	.LBB106:
 415:HANcoder_E407_TTA_CombineModel.c ****     /* Update for M-S-Function: '<S41>/S-Function' */
 1408              		.loc 1 415 3 view .LVU525
 415:HANcoder_E407_TTA_CombineModel.c ****     /* Update for M-S-Function: '<S41>/S-Function' */
 1409              		.loc 1 415 31 is_stmt 0 view .LVU526
 1410 02d2 6B7A     		ldrb	r3, [r5, #9]	@ zero_extendqisi2
 415:HANcoder_E407_TTA_CombineModel.c ****     /* Update for M-S-Function: '<S41>/S-Function' */
 1411              		.loc 1 415 19 view .LVU527
 1412 02d4 012B     		cmp	r3, #1
 1413 02d6 3FF416AF 		beq	.L151
 419:HANcoder_E407_TTA_CombineModel.c **** 
 1414              		.loc 1 419 7 is_stmt 1 view .LVU528
 419:HANcoder_E407_TTA_CombineModel.c **** 
 1415              		.loc 1 419 33 is_stmt 0 view .LVU529
 1416 02da 284B     		ldr	r3, .L280+80
 422:HANcoder_E407_TTA_CombineModel.c ****     }
 1417              		.loc 1 422 7 view .LVU530
 1418 02dc D8F80010 		ldr	r1, [r8]
 419:HANcoder_E407_TTA_CombineModel.c **** 
 1419              		.loc 1 419 33 view .LVU531
 1420 02e0 0020     		movs	r0, #0
 1421 02e2 1870     		strb	r0, [r3]
 422:HANcoder_E407_TTA_CombineModel.c ****     }
 1422              		.loc 1 422 7 is_stmt 1 view .LVU532
 1423 02e4 0122     		movs	r2, #1
 1424 02e6 FFF7FEFF 		bl	CanTransmit
 1425              	.LVL95:
 422:HANcoder_E407_TTA_CombineModel.c ****     }
 1426              		.loc 1 422 7 is_stmt 0 view .LVU533
 1427              	.LBE106:
 1428              	.LBE145:
 724:HANcoder_E407_TTA_CombineModel.c **** 
 1429              		.loc 1 724 14 view .LVU534
 1430 02ea 0123     		movs	r3, #1
 1431              	.LVL96:
 1432              	.LBB146:
 1433              	.LBB107:
 426:HANcoder_E407_TTA_CombineModel.c **** 
 1434              		.loc 1 426 3 is_stmt 1 view .LVU535
 426:HANcoder_E407_TTA_CombineModel.c **** 
 1435              		.loc 1 426 31 is_stmt 0 view .LVU536
 1436 02ec 6B72     		strb	r3, [r5, #9]
 1437              	.LBE107:
 1438              	.LBE146:
 735:HANcoder_E407_TTA_CombineModel.c **** 
 1439              		.loc 1 735 5 is_stmt 1 view .LVU537
 735:HANcoder_E407_TTA_CombineModel.c **** 
 1440              		.loc 1 735 33 is_stmt 0 view .LVU538
 1441 02ee 3378     		ldrb	r3, [r6]	@ zero_extendqisi2
 1442              	.LVL97:
 742:HANcoder_E407_TTA_CombineModel.c **** 
 1443              		.loc 1 742 5 is_stmt 1 view .LVU539
 742:HANcoder_E407_TTA_CombineModel.c **** 
 1444              		.loc 1 742 42 is_stmt 0 view .LVU540
 1445 02f0 94F8C820 		ldrb	r2, [r4, #200]	@ zero_extendqisi2
 1446              	.LVL98:
 747:HANcoder_E407_TTA_CombineModel.c **** 
 1447              		.loc 1 747 5 is_stmt 1 view .LVU541
 747:HANcoder_E407_TTA_CombineModel.c **** 
 1448              		.loc 1 747 29 is_stmt 0 view .LVU542
 1449 02f4 012B     		cmp	r3, #1
 1450 02f6 7FF40DAF 		bne	.L74
 1451              	.LVL99:
 1452              	.L265:
 747:HANcoder_E407_TTA_CombineModel.c **** 
 1453              		.loc 1 747 29 discriminator 1 view .LVU543
 1454 02fa 012A     		cmp	r2, #1
 1455 02fc 00F08685 		beq	.L273
 1456              	.LVL100:
 752:HANcoder_E407_TTA_CombineModel.c ****       rtDWork.SYNC1_RX_MODE = true;
 1457              		.loc 1 752 5 is_stmt 1 view .LVU544
 753:HANcoder_E407_TTA_CombineModel.c **** 
 1458              		.loc 1 753 7 view .LVU545
 753:HANcoder_E407_TTA_CombineModel.c **** 
 1459              		.loc 1 753 29 is_stmt 0 view .LVU546
 1460 0300 84F8D130 		strb	r3, [r4, #209]
 760:HANcoder_E407_TTA_CombineModel.c ****         &canRxData_0_SYNC1_ID.uint8_T_info[0], NULL);
 1461              		.loc 1 760 7 is_stmt 1 view .LVU547
 760:HANcoder_E407_TTA_CombineModel.c ****         &canRxData_0_SYNC1_ID.uint8_T_info[0], NULL);
 1462              		.loc 1 760 28 is_stmt 0 view .LVU548
 1463 0304 DFF88480 		ldr	r8, .L280+96
 1464 0308 1D4B     		ldr	r3, .L280+84
 1465 030a 0022     		movs	r2, #0
 1466 030c 1968     		ldr	r1, [r3]
 1467 030e 0092     		str	r2, [sp]
 1468 0310 4346     		mov	r3, r8
 1469 0312 1046     		mov	r0, r2
 1470 0314 FFF7FEFF 		bl	CanIoGetMessage
 1471              	.LVL101:
 764:HANcoder_E407_TTA_CombineModel.c ****         /* read the data */
 1472              		.loc 1 764 7 is_stmt 1 view .LVU549
 764:HANcoder_E407_TTA_CombineModel.c ****         /* read the data */
 1473              		.loc 1 764 10 is_stmt 0 view .LVU550
 1474 0318 0028     		cmp	r0, #0
 1475 031a 03DD     		ble	.L77
 766:HANcoder_E407_TTA_CombineModel.c ****         rtb_SFunction_o3_g = canRxData_0_SYNC1_ID.uint8_T_info[1];
 1476              		.loc 1 766 9 is_stmt 1 view .LVU551
 1477              	.LVL102:
 767:HANcoder_E407_TTA_CombineModel.c ****         rtb_SFunction_o4_j = canRxData_0_SYNC1_ID.uint8_T_info[2];
 1478              		.loc 1 767 9 view .LVU552
 768:HANcoder_E407_TTA_CombineModel.c ****         rtb_SFunction_o5_f = canRxData_0_SYNC1_ID.uint8_T_info[3];
 1479              		.loc 1 768 9 view .LVU553
 769:HANcoder_E407_TTA_CombineModel.c ****         rtb_SFunction_o6_g = canRxData_0_SYNC1_ID.uint8_T_info[4];
 1480              		.loc 1 769 9 view .LVU554
 770:HANcoder_E407_TTA_CombineModel.c ****         rtb_SFunction_o7_k = canRxData_0_SYNC1_ID.uint8_T_info[5];
 1481              		.loc 1 770 9 view .LVU555
 771:HANcoder_E407_TTA_CombineModel.c ****         rtb_SFunction_o8_n = canRxData_0_SYNC1_ID.uint8_T_info[6];
 1482              		.loc 1 771 9 view .LVU556
 772:HANcoder_E407_TTA_CombineModel.c ****         rtb_SFunction_o9_b1 = canRxData_0_SYNC1_ID.uint8_T_info[7];
 1483              		.loc 1 772 9 view .LVU557
 773:HANcoder_E407_TTA_CombineModel.c ****       }
 1484              		.loc 1 773 9 view .LVU558
 779:HANcoder_E407_TTA_CombineModel.c ****         /* SignalConversion generated from: '<S46>/In1' */
 1485              		.loc 1 779 7 view .LVU559
 781:HANcoder_E407_TTA_CombineModel.c ****       }
 1486              		.loc 1 781 9 view .LVU560
 781:HANcoder_E407_TTA_CombineModel.c ****       }
 1487              		.loc 1 781 17 is_stmt 0 view .LVU561
 1488 031c 194B     		ldr	r3, .L280+88
 1489 031e 98F80020 		ldrb	r2, [r8]	@ zero_extendqisi2
 1490 0322 1A70     		strb	r2, [r3]
 1491              	.LVL103:
 1492              	.L77:
 792:HANcoder_E407_TTA_CombineModel.c **** 
 1493              		.loc 1 792 5 is_stmt 1 view .LVU562
 843:HANcoder_E407_TTA_CombineModel.c **** 
 1494              		.loc 1 843 33 is_stmt 0 view .LVU563
 1495 0324 3378     		ldrb	r3, [r6]	@ zero_extendqisi2
 850:HANcoder_E407_TTA_CombineModel.c **** 
 1496              		.loc 1 850 42 view .LVU564
 1497 0326 94F8C820 		ldrb	r2, [r4, #200]	@ zero_extendqisi2
 1498 032a F8E6     		b	.L164
 1499              	.L281:
 1500              		.align	2
 1501              	.L280:
 1502 032c 00000000 		.word	.LANCHOR2
 1503 0330 00000000 		.word	.LANCHOR10
 1504 0334 00000000 		.word	.LANCHOR0
 1505 0338 00000000 		.word	.LANCHOR5
 1506 033c 00000000 		.word	.LANCHOR1
 1507 0340 00000000 		.word	.LANCHOR7
 1508 0344 00000000 		.word	.LANCHOR13
 1509 0348 1C000000 		.word	.LANCHOR0+28
 1510 034c D6000000 		.word	.LANCHOR2+214
 1511 0350 00000000 		.word	.LANCHOR14
 1512 0354 1A000000 		.word	.LANCHOR0+26
 1513 0358 D5000000 		.word	.LANCHOR2+213
 1514 035c 00000000 		.word	.LANCHOR17
 1515 0360 00000000 		.word	.LANCHOR18
 1516 0364 18000000 		.word	.LANCHOR0+24
 1517 0368 D4000000 		.word	.LANCHOR2+212
 1518 036c 00000000 		.word	.LANCHOR20
 1519 0370 16000000 		.word	.LANCHOR0+22
 1520 0374 D3000000 		.word	.LANCHOR2+211
 1521 0378 00000000 		.word	.LANCHOR23
 1522 037c 00000000 		.word	.LANCHOR9
 1523 0380 00000000 		.word	.LANCHOR12
 1524 0384 00000000 		.word	.LANCHOR15
 1525 0388 00000000 		.word	.LANCHOR22
 1526 038c 00000000 		.word	.LANCHOR11
 1527              	.LVL104:
 1528              	.L266:
 859:HANcoder_E407_TTA_CombineModel.c **** 
 1529              		.loc 1 859 5 is_stmt 1 view .LVU565
 1530 0390 DFF88881 		ldr	r8, .L282+64
 1531 0394 514B     		ldr	r3, .L282
 1532              	.LVL105:
 859:HANcoder_E407_TTA_CombineModel.c **** 
 1533              		.loc 1 859 5 is_stmt 0 view .LVU566
 1534 0396 524A     		ldr	r2, .L282+4
 1535 0398 D8F80010 		ldr	r1, [r8]
 1536 039c 0020     		movs	r0, #0
 1537 039e FFF7FEFF 		bl	MMBS1_RX
 1538              	.LVL106:
 864:HANcoder_E407_TTA_CombineModel.c **** 
 1539              		.loc 1 864 5 is_stmt 1 view .LVU567
 868:HANcoder_E407_TTA_CombineModel.c **** 
 1540              		.loc 1 868 5 view .LVU568
 1541              	.LBB147:
 410:HANcoder_E407_TTA_CombineModel.c **** {
 1542              		.loc 1 410 6 view .LVU569
 1543              	.LBB113:
 415:HANcoder_E407_TTA_CombineModel.c ****     /* Update for M-S-Function: '<S41>/S-Function' */
 1544              		.loc 1 415 3 view .LVU570
 415:HANcoder_E407_TTA_CombineModel.c ****     /* Update for M-S-Function: '<S41>/S-Function' */
 1545              		.loc 1 415 31 is_stmt 0 view .LVU571
 1546 03a2 EB79     		ldrb	r3, [r5, #7]	@ zero_extendqisi2
 415:HANcoder_E407_TTA_CombineModel.c ****     /* Update for M-S-Function: '<S41>/S-Function' */
 1547              		.loc 1 415 19 view .LVU572
 1548 03a4 012B     		cmp	r3, #1
 1549 03a6 3FF4DEAE 		beq	.L146
 419:HANcoder_E407_TTA_CombineModel.c **** 
 1550              		.loc 1 419 7 is_stmt 1 view .LVU573
 419:HANcoder_E407_TTA_CombineModel.c **** 
 1551              		.loc 1 419 33 is_stmt 0 view .LVU574
 1552 03aa 4E4B     		ldr	r3, .L282+8
 422:HANcoder_E407_TTA_CombineModel.c ****     }
 1553              		.loc 1 422 7 view .LVU575
 1554 03ac D8F80010 		ldr	r1, [r8]
 419:HANcoder_E407_TTA_CombineModel.c **** 
 1555              		.loc 1 419 33 view .LVU576
 1556 03b0 0020     		movs	r0, #0
 1557 03b2 1870     		strb	r0, [r3]
 422:HANcoder_E407_TTA_CombineModel.c ****     }
 1558              		.loc 1 422 7 is_stmt 1 view .LVU577
 1559 03b4 0122     		movs	r2, #1
 1560 03b6 FFF7FEFF 		bl	CanTransmit
 1561              	.LVL107:
 422:HANcoder_E407_TTA_CombineModel.c ****     }
 1562              		.loc 1 422 7 is_stmt 0 view .LVU578
 1563              	.LBE113:
 1564              	.LBE147:
 864:HANcoder_E407_TTA_CombineModel.c **** 
 1565              		.loc 1 864 14 view .LVU579
 1566 03ba 0123     		movs	r3, #1
 1567 03bc D3E6     		b	.L146
 1568              	.LVL108:
 1569              	.L60:
 587:HANcoder_E407_TTA_CombineModel.c **** 
 1570              		.loc 1 587 5 is_stmt 1 view .LVU580
 594:HANcoder_E407_TTA_CombineModel.c ****       &canRxData_0_SYNC1_ID.uint8_T_info[0], NULL);
 1571              		.loc 1 594 24 is_stmt 0 view .LVU581
 1572 03be 4A4B     		ldr	r3, .L282+12
 1573 03c0 4A4D     		ldr	r5, .L282+16
 1574 03c2 1968     		ldr	r1, [r3]
 1575 03c4 0022     		movs	r2, #0
 587:HANcoder_E407_TTA_CombineModel.c **** 
 1576              		.loc 1 587 29 view .LVU582
 1577 03c6 0123     		movs	r3, #1
 1578 03c8 84F8CC30 		strb	r3, [r4, #204]
 594:HANcoder_E407_TTA_CombineModel.c ****       &canRxData_0_SYNC1_ID.uint8_T_info[0], NULL);
 1579              		.loc 1 594 5 is_stmt 1 view .LVU583
 594:HANcoder_E407_TTA_CombineModel.c ****       &canRxData_0_SYNC1_ID.uint8_T_info[0], NULL);
 1580              		.loc 1 594 24 is_stmt 0 view .LVU584
 1581 03cc 0092     		str	r2, [sp]
 1582 03ce 2B46     		mov	r3, r5
 1583 03d0 1046     		mov	r0, r2
 1584 03d2 FFF7FEFF 		bl	CanIoGetMessage
 1585              	.LVL109:
 598:HANcoder_E407_TTA_CombineModel.c ****       /* read the data */
 1586              		.loc 1 598 5 is_stmt 1 view .LVU585
 598:HANcoder_E407_TTA_CombineModel.c ****       /* read the data */
 1587              		.loc 1 598 8 is_stmt 0 view .LVU586
 1588 03d6 0028     		cmp	r0, #0
 1589              	.LVL110:
 598:HANcoder_E407_TTA_CombineModel.c ****       /* read the data */
 1590              		.loc 1 598 8 view .LVU587
 1591 03d8 40F3E483 		ble	.L63
 600:HANcoder_E407_TTA_CombineModel.c ****       rtb_SFunction_o3 = canRxData_0_SYNC1_ID.uint8_T_info[1];
 1592              		.loc 1 600 7 is_stmt 1 view .LVU588
 1593              	.LBB148:
 1594              	.LBB149:
 287:HANcoder_E407_TTA_CombineModel.c **** 
 1595              		.loc 1 287 17 is_stmt 0 view .LVU589
 1596 03dc 444F     		ldr	r7, .L282+20
 1597              	.LBE149:
 1598              	.LBE148:
 600:HANcoder_E407_TTA_CombineModel.c ****       rtb_SFunction_o3 = canRxData_0_SYNC1_ID.uint8_T_info[1];
 1599              		.loc 1 600 24 view .LVU590
 1600 03de 2B78     		ldrb	r3, [r5]	@ zero_extendqisi2
 1601              	.LVL111:
 601:HANcoder_E407_TTA_CombineModel.c ****     }
 1602              		.loc 1 601 7 is_stmt 1 view .LVU591
 601:HANcoder_E407_TTA_CombineModel.c ****     }
 1603              		.loc 1 601 24 is_stmt 0 view .LVU592
 1604 03e0 6A78     		ldrb	r2, [r5, #1]	@ zero_extendqisi2
 1605              	.LVL112:
 605:HANcoder_E407_TTA_CombineModel.c ****                      rtb_SFunction_o4, rtb_SFunction_o5, rtb_SFunction_o6,
 1606              		.loc 1 605 5 is_stmt 1 view .LVU593
 1607              	.LBB153:
 1608              	.LBI148:
 270:HANcoder_E407_TTA_CombineModel.c ****                       uint8_T rtu_In3, uint8_T rtu_In4, uint8_T rtu_In5, uint8_T
 1609              		.loc 1 270 6 view .LVU594
 1610              	.LBB150:
 275:HANcoder_E407_TTA_CombineModel.c ****   uint8_T rtb_In4_c;
 1611              		.loc 1 275 3 view .LVU595
 276:HANcoder_E407_TTA_CombineModel.c ****   uint8_T rtb_In5_a;
 1612              		.loc 1 276 3 view .LVU596
 277:HANcoder_E407_TTA_CombineModel.c ****   uint8_T rtb_In6_j;
 1613              		.loc 1 277 3 view .LVU597
 278:HANcoder_E407_TTA_CombineModel.c ****   uint8_T rtb_In7_h;
 1614              		.loc 1 278 3 view .LVU598
 279:HANcoder_E407_TTA_CombineModel.c ****   uint8_T rtb_In8_m;
 1615              		.loc 1 279 3 view .LVU599
 280:HANcoder_E407_TTA_CombineModel.c **** 
 1616              		.loc 1 280 3 view .LVU600
 285:HANcoder_E407_TTA_CombineModel.c ****     /* SignalConversion generated from: '<S40>/In1' */
 1617              		.loc 1 285 3 view .LVU601
 287:HANcoder_E407_TTA_CombineModel.c **** 
 1618              		.loc 1 287 5 view .LVU602
 1619              	.LBE150:
 1620              	.LBE153:
 613:HANcoder_E407_TTA_CombineModel.c **** 
 1621              		.loc 1 613 22 is_stmt 0 view .LVU603
 1622 03e2 84F8C930 		strb	r3, [r4, #201]
 1623              	.LBB154:
 1624              	.LBB151:
 287:HANcoder_E407_TTA_CombineModel.c **** 
 1625              		.loc 1 287 17 view .LVU604
 1626 03e6 7B72     		strb	r3, [r7, #9]
 290:HANcoder_E407_TTA_CombineModel.c **** 
 1627              		.loc 1 290 5 is_stmt 1 view .LVU605
 290:HANcoder_E407_TTA_CombineModel.c **** 
 1628              		.loc 1 290 17 is_stmt 0 view .LVU606
 1629 03e8 BA72     		strb	r2, [r7, #10]
 293:HANcoder_E407_TTA_CombineModel.c **** 
 1630              		.loc 1 293 5 is_stmt 1 view .LVU607
 296:HANcoder_E407_TTA_CombineModel.c **** 
 1631              		.loc 1 296 5 view .LVU608
 299:HANcoder_E407_TTA_CombineModel.c **** 
 1632              		.loc 1 299 5 view .LVU609
 302:HANcoder_E407_TTA_CombineModel.c **** 
 1633              		.loc 1 302 5 view .LVU610
 305:HANcoder_E407_TTA_CombineModel.c **** 
 1634              		.loc 1 305 5 view .LVU611
 308:HANcoder_E407_TTA_CombineModel.c ****   }
 1635              		.loc 1 308 5 view .LVU612
 1636              	.LVL113:
 308:HANcoder_E407_TTA_CombineModel.c ****   }
 1637              		.loc 1 308 5 is_stmt 0 view .LVU613
 1638              	.LBE151:
 1639              	.LBE154:
 613:HANcoder_E407_TTA_CombineModel.c **** 
 1640              		.loc 1 613 5 is_stmt 1 view .LVU614
 618:HANcoder_E407_TTA_CombineModel.c ****          != POS_ZCSIG)) {
 1641              		.loc 1 618 5 view .LVU615
 1642              	.L154:
 618:HANcoder_E407_TTA_CombineModel.c ****          != POS_ZCSIG)) {
 1643              		.loc 1 618 53 is_stmt 0 discriminator 1 view .LVU616
 1644 03ea 424D     		ldr	r5, .L282+24
 618:HANcoder_E407_TTA_CombineModel.c ****          != POS_ZCSIG)) {
 1645              		.loc 1 618 33 discriminator 1 view .LVU617
 1646 03ec 6B78     		ldrb	r3, [r5, #1]	@ zero_extendqisi2
 1647 03ee 012B     		cmp	r3, #1
 1648 03f0 02D0     		beq	.L64
 623:HANcoder_E407_TTA_CombineModel.c ****     }
 1649              		.loc 1 623 7 is_stmt 1 view .LVU618
 623:HANcoder_E407_TTA_CombineModel.c ****     }
 1650              		.loc 1 623 27 is_stmt 0 view .LVU619
 1651 03f2 0023     		movs	r3, #0
 1652 03f4 A4F8C030 		strh	r3, [r4, #192]	@ movhi
 1653              	.L64:
 626:HANcoder_E407_TTA_CombineModel.c ****       != 0);
 1654              		.loc 1 626 5 is_stmt 1 view .LVU620
 626:HANcoder_E407_TTA_CombineModel.c ****       != 0);
 1655              		.loc 1 626 52 is_stmt 0 view .LVU621
 1656 03f8 0038     		subs	r0, r0, #0
 1657 03fa 18BF     		it	ne
 1658 03fc 0120     		movne	r0, #1
 635:HANcoder_E407_TTA_CombineModel.c **** 
 1659              		.loc 1 635 32 view .LVU622
 1660 03fe 94F8CB30 		ldrb	r3, [r4, #203]	@ zero_extendqisi2
 626:HANcoder_E407_TTA_CombineModel.c ****       != 0);
 1661              		.loc 1 626 52 view .LVU623
 1662 0402 6870     		strb	r0, [r5, #1]
 635:HANcoder_E407_TTA_CombineModel.c **** 
 1663              		.loc 1 635 5 is_stmt 1 view .LVU624
 1664              	.LVL114:
 640:HANcoder_E407_TTA_CombineModel.c ****       rtb_Level2MfileSFunction_j;
 1665              		.loc 1 640 5 view .LVU625
 640:HANcoder_E407_TTA_CombineModel.c ****       rtb_Level2MfileSFunction_j;
 1666              		.loc 1 640 66 is_stmt 0 view .LVU626
 1667 0404 0420     		movs	r0, #4
 1668              	.L153:
 640:HANcoder_E407_TTA_CombineModel.c ****       rtb_Level2MfileSFunction_j;
 1669              		.loc 1 640 12 discriminator 4 view .LVU627
 1670 0406 1844     		add	r0, r0, r3
 1671              	.LVL115:
 642:HANcoder_E407_TTA_CombineModel.c ****     rtB.Logic[1U] = rtConstP.Logic_table[rowIdx + 8U];
 1672              		.loc 1 642 5 is_stmt 1 discriminator 4 view .LVU628
 642:HANcoder_E407_TTA_CombineModel.c ****     rtB.Logic[1U] = rtConstP.Logic_table[rowIdx + 8U];
 1673              		.loc 1 642 41 is_stmt 0 discriminator 4 view .LVU629
 1674 0408 3B4B     		ldr	r3, .L282+28
 1675              	.LVL116:
 643:HANcoder_E407_TTA_CombineModel.c **** 
 1676              		.loc 1 643 41 discriminator 4 view .LVU630
 1677 040a 1A18     		adds	r2, r3, r0
 642:HANcoder_E407_TTA_CombineModel.c ****     rtB.Logic[1U] = rtConstP.Logic_table[rowIdx + 8U];
 1678              		.loc 1 642 41 discriminator 4 view .LVU631
 1679 040c 1B5C     		ldrb	r3, [r3, r0]	@ zero_extendqisi2
 643:HANcoder_E407_TTA_CombineModel.c **** 
 1680              		.loc 1 643 19 discriminator 4 view .LVU632
 1681 040e 127A     		ldrb	r2, [r2, #8]	@ zero_extendqisi2
 642:HANcoder_E407_TTA_CombineModel.c ****     rtB.Logic[1U] = rtConstP.Logic_table[rowIdx + 8U];
 1682              		.loc 1 642 19 discriminator 4 view .LVU633
 1683 0410 FB71     		strb	r3, [r7, #7]
 643:HANcoder_E407_TTA_CombineModel.c **** 
 1684              		.loc 1 643 5 is_stmt 1 discriminator 4 view .LVU634
 643:HANcoder_E407_TTA_CombineModel.c **** 
 1685              		.loc 1 643 19 is_stmt 0 discriminator 4 view .LVU635
 1686 0412 3A72     		strb	r2, [r7, #8]
 646:HANcoder_E407_TTA_CombineModel.c ****   } else if (rtDWork.Subsystem1_MODE) {
 1687              		.loc 1 646 5 is_stmt 1 discriminator 4 view .LVU636
 646:HANcoder_E407_TTA_CombineModel.c ****   } else if (rtDWork.Subsystem1_MODE) {
 1688              		.loc 1 646 34 is_stmt 0 discriminator 4 view .LVU637
 1689 0414 84F8CB30 		strb	r3, [r4, #203]
 655:HANcoder_E407_TTA_CombineModel.c **** 
 1690              		.loc 1 655 3 is_stmt 1 discriminator 4 view .LVU638
 1691 0418 1CE6     		b	.L65
 1692              	.LVL117:
 1693              	.L59:
 576:HANcoder_E407_TTA_CombineModel.c **** 
 1694              		.loc 1 576 31 is_stmt 0 discriminator 1 view .LVU639
 1695 041a 032B     		cmp	r3, #3
 1696 041c CFD8     		bhi	.L60
 1697              	.LVL118:
 647:HANcoder_E407_TTA_CombineModel.c ****     rtDWork.Subsystem1_MODE = false;
 1698              		.loc 1 647 10 is_stmt 1 view .LVU640
 647:HANcoder_E407_TTA_CombineModel.c ****     rtDWork.Subsystem1_MODE = false;
 1699              		.loc 1 647 13 is_stmt 0 view .LVU641
 1700 041e 94F8CC30 		ldrb	r3, [r4, #204]	@ zero_extendqisi2
 1701 0422 002B     		cmp	r3, #0
 1702 0424 00F02584 		beq	.L174
 648:HANcoder_E407_TTA_CombineModel.c ****   }
 1703              		.loc 1 648 5 is_stmt 1 view .LVU642
 1704 0428 314F     		ldr	r7, .L282+20
 1705 042a 324D     		ldr	r5, .L282+24
 648:HANcoder_E407_TTA_CombineModel.c ****   }
 1706              		.loc 1 648 29 is_stmt 0 view .LVU643
 1707 042c 84F8CC00 		strb	r0, [r4, #204]
 655:HANcoder_E407_TTA_CombineModel.c **** 
 1708              		.loc 1 655 3 is_stmt 1 view .LVU644
 576:HANcoder_E407_TTA_CombineModel.c **** 
 1709              		.loc 1 576 31 is_stmt 0 view .LVU645
 1710 0430 0123     		movs	r3, #1
 1711 0432 0493     		str	r3, [sp, #16]
 576:HANcoder_E407_TTA_CombineModel.c **** 
 1712              		.loc 1 576 11 view .LVU646
 1713 0434 0593     		str	r3, [sp, #20]
 655:HANcoder_E407_TTA_CombineModel.c **** 
 1714              		.loc 1 655 10 view .LVU647
 1715 0436 7B71     		strb	r3, [r7, #5]
 665:HANcoder_E407_TTA_CombineModel.c ****     rtDWork.Messageselector_MODE = true;
 1716              		.loc 1 665 3 is_stmt 1 view .LVU648
 665:HANcoder_E407_TTA_CombineModel.c ****     rtDWork.Messageselector_MODE = true;
 1717              		.loc 1 665 7 is_stmt 0 view .LVU649
 1718 0438 304B     		ldr	r3, .L282+32
 665:HANcoder_E407_TTA_CombineModel.c ****     rtDWork.Messageselector_MODE = true;
 1719              		.loc 1 665 6 view .LVU650
 1720 043a 1B78     		ldrb	r3, [r3]	@ zero_extendqisi2
 1721 043c 002B     		cmp	r3, #0
 1722 043e 7FF416AE 		bne	.L274
 1723              	.LVL119:
 1724              	.L67:
1167:HANcoder_E407_TTA_CombineModel.c **** 
1168:HANcoder_E407_TTA_CombineModel.c ****     /* End of Outputs for SubSystem: '<S11>/TRLS_ID5_TX' */
1169:HANcoder_E407_TTA_CombineModel.c ****   } else if (rtDWork.Messageselector_MODE) {
 1725              		.loc 1 1169 10 is_stmt 1 view .LVU651
 1726              		.loc 1 1169 13 is_stmt 0 view .LVU652
 1727 0442 94F8CD20 		ldrb	r2, [r4, #205]	@ zero_extendqisi2
 1728 0446 002A     		cmp	r2, #0
 1729 0448 40F03A83 		bne	.L100
1170:HANcoder_E407_TTA_CombineModel.c ****     /* Disable for Enabled SubSystem: '<S11>/MMBS1_RX' */
1171:HANcoder_E407_TTA_CombineModel.c ****     if (rtDWork.MMBS1_RX_j.MMBS1_RX_MODE) {
1172:HANcoder_E407_TTA_CombineModel.c ****       /* Constant: '<S11>/Constant12' */
1173:HANcoder_E407_TTA_CombineModel.c ****       MMBS1_RX_Disable(&rtDWork.MMBS1_RX_j);
1174:HANcoder_E407_TTA_CombineModel.c ****     }
1175:HANcoder_E407_TTA_CombineModel.c **** 
1176:HANcoder_E407_TTA_CombineModel.c ****     /* End of Disable for SubSystem: '<S11>/MMBS1_RX' */
1177:HANcoder_E407_TTA_CombineModel.c **** 
1178:HANcoder_E407_TTA_CombineModel.c ****     /* Disable for Triggered SubSystem: '<S11>/MMBS1_TX' */
1179:HANcoder_E407_TTA_CombineModel.c ****     /* Constant: '<S11>/Constant12' */
1180:HANcoder_E407_TTA_CombineModel.c ****     /* Disable for Enabled SubSystem: '<S11>/SSTM1_RX' */
1181:HANcoder_E407_TTA_CombineModel.c ****     if (rtDWork.SSTM1_RX.MMBS1_RX_MODE) {
1182:HANcoder_E407_TTA_CombineModel.c ****       /* Constant: '<S11>/Constant14' */
1183:HANcoder_E407_TTA_CombineModel.c ****       MMBS1_RX_Disable(&rtDWork.SSTM1_RX);
1184:HANcoder_E407_TTA_CombineModel.c ****     }
1185:HANcoder_E407_TTA_CombineModel.c **** 
1186:HANcoder_E407_TTA_CombineModel.c ****     /* End of Disable for SubSystem: '<S11>/SSTM1_RX' */
1187:HANcoder_E407_TTA_CombineModel.c **** 
1188:HANcoder_E407_TTA_CombineModel.c ****     /* Disable for Triggered SubSystem: '<S11>/SSTM1_TX' */
1189:HANcoder_E407_TTA_CombineModel.c ****     /* Constant: '<S11>/Constant14' */
1190:HANcoder_E407_TTA_CombineModel.c ****     /* Disable for Enabled SubSystem: '<S11>/SYNC1_RX' */
1191:HANcoder_E407_TTA_CombineModel.c ****     if (rtDWork.SYNC1_RX_MODE) {
1192:HANcoder_E407_TTA_CombineModel.c ****       rtDWork.SYNC1_RX_MODE = false;
1193:HANcoder_E407_TTA_CombineModel.c ****     }
1194:HANcoder_E407_TTA_CombineModel.c **** 
1195:HANcoder_E407_TTA_CombineModel.c ****     /* End of Disable for SubSystem: '<S11>/SYNC1_RX' */
1196:HANcoder_E407_TTA_CombineModel.c ****     /* Disable for Enabled SubSystem: '<S11>/TRCK1_ID2_RX' */
1197:HANcoder_E407_TTA_CombineModel.c ****     if (rtDWork.TRCK1_ID2_RX.MMBS1_RX_MODE) {
1198:HANcoder_E407_TTA_CombineModel.c ****       /* Constant: '<S11>/Constant5' */
1199:HANcoder_E407_TTA_CombineModel.c ****       MMBS1_RX_Disable(&rtDWork.TRCK1_ID2_RX);
1200:HANcoder_E407_TTA_CombineModel.c ****     }
1201:HANcoder_E407_TTA_CombineModel.c **** 
1202:HANcoder_E407_TTA_CombineModel.c ****     /* End of Disable for SubSystem: '<S11>/TRCK1_ID2_RX' */
1203:HANcoder_E407_TTA_CombineModel.c **** 
1204:HANcoder_E407_TTA_CombineModel.c ****     /* Disable for Triggered SubSystem: '<S11>/TRCK1_ID2_TX' */
1205:HANcoder_E407_TTA_CombineModel.c ****     /* Constant: '<S11>/Constant5' */
1206:HANcoder_E407_TTA_CombineModel.c ****     /* Disable for Triggered SubSystem: '<S11>/TRCK1_ID3_TX' */
1207:HANcoder_E407_TTA_CombineModel.c ****     /* Constant: '<S11>/Constant26' */
1208:HANcoder_E407_TTA_CombineModel.c ****     /* Disable for Enabled SubSystem: '<S11>/TRCK1_RX' */
1209:HANcoder_E407_TTA_CombineModel.c ****     if (rtDWork.TRCK1_RX.MMBS1_RX_MODE) {
1210:HANcoder_E407_TTA_CombineModel.c ****       /* Constant: '<S11>/Constant3' */
1211:HANcoder_E407_TTA_CombineModel.c ****       MMBS1_RX_Disable(&rtDWork.TRCK1_RX);
1212:HANcoder_E407_TTA_CombineModel.c ****     }
1213:HANcoder_E407_TTA_CombineModel.c **** 
1214:HANcoder_E407_TTA_CombineModel.c ****     /* End of Disable for SubSystem: '<S11>/TRCK1_RX' */
1215:HANcoder_E407_TTA_CombineModel.c **** 
1216:HANcoder_E407_TTA_CombineModel.c ****     /* Disable for Triggered SubSystem: '<S11>/TRCK1_TX' */
1217:HANcoder_E407_TTA_CombineModel.c ****     /* Constant: '<S11>/Constant3' */
1218:HANcoder_E407_TTA_CombineModel.c ****     /* Disable for Enabled SubSystem: '<S11>/TRCK_ID3_RX' */
1219:HANcoder_E407_TTA_CombineModel.c ****     if (rtDWork.TRCK_ID3_RX_MODE) {
1220:HANcoder_E407_TTA_CombineModel.c ****       rtDWork.TRCK_ID3_RX_MODE = false;
1221:HANcoder_E407_TTA_CombineModel.c ****     }
1222:HANcoder_E407_TTA_CombineModel.c **** 
1223:HANcoder_E407_TTA_CombineModel.c ****     /* End of Disable for SubSystem: '<S11>/TRCK_ID3_RX' */
1224:HANcoder_E407_TTA_CombineModel.c **** 
1225:HANcoder_E407_TTA_CombineModel.c ****     /* Disable for Enabled SubSystem: '<S11>/TRLS_ID4_RX' */
1226:HANcoder_E407_TTA_CombineModel.c ****     if (rtDWork.TRLS_ID4_RX_MODE) {
1227:HANcoder_E407_TTA_CombineModel.c ****       rtDWork.TRLS_ID4_RX_MODE = false;
1228:HANcoder_E407_TTA_CombineModel.c ****     }
1229:HANcoder_E407_TTA_CombineModel.c **** 
1230:HANcoder_E407_TTA_CombineModel.c ****     /* End of Disable for SubSystem: '<S11>/TRLS_ID4_RX' */
1231:HANcoder_E407_TTA_CombineModel.c ****     /* Disable for Enabled SubSystem: '<S11>/TRLS_ID5_RX' */
1232:HANcoder_E407_TTA_CombineModel.c ****     if (rtDWork.TRLS_ID5_RX_MODE) {
1233:HANcoder_E407_TTA_CombineModel.c ****       rtDWork.TRLS_ID5_RX_MODE = false;
1234:HANcoder_E407_TTA_CombineModel.c ****     }
1235:HANcoder_E407_TTA_CombineModel.c **** 
1236:HANcoder_E407_TTA_CombineModel.c ****     /* End of Disable for SubSystem: '<S11>/TRLS_ID5_RX' */
1237:HANcoder_E407_TTA_CombineModel.c **** 
1238:HANcoder_E407_TTA_CombineModel.c ****     /* Disable for Triggered SubSystem: '<S11>/TRLS_ID5_TX' */
1239:HANcoder_E407_TTA_CombineModel.c ****     /* Constant: '<S11>/Constant18' */
1240:HANcoder_E407_TTA_CombineModel.c ****     rtDWork.Messageselector_MODE = false;
1241:HANcoder_E407_TTA_CombineModel.c ****   }
1242:HANcoder_E407_TTA_CombineModel.c **** 
1243:HANcoder_E407_TTA_CombineModel.c ****   /* End of Outputs for SubSystem: '<S1>/Message selector' */
1244:HANcoder_E407_TTA_CombineModel.c **** 
1245:HANcoder_E407_TTA_CombineModel.c ****   /* RelationalOperator: '<S1>/Equal' incorporates:
1246:HANcoder_E407_TTA_CombineModel.c ****    *  Constant: '<S1>/Constant1'
1247:HANcoder_E407_TTA_CombineModel.c ****    */
1248:HANcoder_E407_TTA_CombineModel.c ****   rtb_Equal14 = (slotSelected == ((uint8_T)5U));
 1730              		.loc 1 1248 31 view .LVU653
 1731 044c 2C4B     		ldr	r3, .L282+36
 1732 044e 1B78     		ldrb	r3, [r3]	@ zero_extendqisi2
 1733              	.L99:
 1734              		.loc 1 1248 3 is_stmt 1 view .LVU654
 1735              		.loc 1 1248 31 is_stmt 0 view .LVU655
 1736 0450 052B     		cmp	r3, #5
 1737              		.loc 1 1248 15 view .LVU656
 1738 0452 0CBF     		ite	eq
 1739 0454 0123     		moveq	r3, #1
 1740 0456 0023     		movne	r3, #0
 1741 0458 0393     		str	r3, [sp, #12]
 1742              	.LVL120:
1249:HANcoder_E407_TTA_CombineModel.c **** 
1250:HANcoder_E407_TTA_CombineModel.c ****   /* Outputs for Triggered SubSystem: '<S1>/Slot 5 execution' incorporates:
1251:HANcoder_E407_TTA_CombineModel.c ****    *  TriggerPort: '<S14>/Trigger'
1252:HANcoder_E407_TTA_CombineModel.c ****    */
1253:HANcoder_E407_TTA_CombineModel.c ****   if (rtb_Equal14 && (rtPrevZCSigState.Slot5execution_Trig_ZCE != POS_ZCSIG)) {
 1743              		.loc 1 1253 3 is_stmt 1 view .LVU657
 1744              		.loc 1 1253 6 is_stmt 0 view .LVU658
 1745 045a 61D0     		beq	.L251
 1746 045c 294E     		ldr	r6, .L282+40
 1747              	.L109:
1254:HANcoder_E407_TTA_CombineModel.c ****     rowIdx = rtM->Timing.clockTick0;
1255:HANcoder_E407_TTA_CombineModel.c ****     Slot5execution_ELAPS_T[0] = rowIdx - rtDWork.Slot5execution_PREV_T[0];
1256:HANcoder_E407_TTA_CombineModel.c ****     rtDWork.Slot5execution_PREV_T[0] = rowIdx;
1257:HANcoder_E407_TTA_CombineModel.c ****     rtDWork.Slot5execution_PREV_T[1] = rtM->Timing.clockTickH0;
1258:HANcoder_E407_TTA_CombineModel.c **** 
1259:HANcoder_E407_TTA_CombineModel.c ****     /* Product: '<S140>/Product' incorporates:
1260:HANcoder_E407_TTA_CombineModel.c ****      *  Constant: '<S79>/Constant2'
1261:HANcoder_E407_TTA_CombineModel.c ****      *  Constant: '<S80>/TrailUnitWheelbase'
1262:HANcoder_E407_TTA_CombineModel.c ****      *  Gain: '<S79>/Gain'
1263:HANcoder_E407_TTA_CombineModel.c ****      *  Trigonometry: '<S140>/tan '
1264:HANcoder_E407_TTA_CombineModel.c ****      */
1265:HANcoder_E407_TTA_CombineModel.c ****     rtb_Sum = tan(0.015001500150015003 * desiredAngle) * rtConstB.Abs / 4.0;
1266:HANcoder_E407_TTA_CombineModel.c **** 
1267:HANcoder_E407_TTA_CombineModel.c ****     /* M-S-Function: '<S136>/Level-2 M-file S-Function' */
1268:HANcoder_E407_TTA_CombineModel.c ****     /* read from analog input for filtered inputs*/
1269:HANcoder_E407_TTA_CombineModel.c ****     rtb_Level2MfileSFunction_g = AninGet(ANIN_PORTF_PIN7,0);
1270:HANcoder_E407_TTA_CombineModel.c **** 
1271:HANcoder_E407_TTA_CombineModel.c ****     /* RelationalOperator: '<S79>/Equal' incorporates:
1272:HANcoder_E407_TTA_CombineModel.c ****      *  Constant: '<S14>/Constant1'
1273:HANcoder_E407_TTA_CombineModel.c ****      *  Constant: '<S79>/Constant'
1274:HANcoder_E407_TTA_CombineModel.c ****      */
1275:HANcoder_E407_TTA_CombineModel.c ****     rtb_Equal16 = (nodeRole == ((uint8_T)4U));
1276:HANcoder_E407_TTA_CombineModel.c **** 
1277:HANcoder_E407_TTA_CombineModel.c ****     /* Switch: '<S79>/Switch' */
1278:HANcoder_E407_TTA_CombineModel.c ****     if (rtb_Equal16) {
1279:HANcoder_E407_TTA_CombineModel.c ****       /* Switch: '<S79>/Switch1' */
1280:HANcoder_E407_TTA_CombineModel.c ****       rtb_Switch1 = rtb_Level2MfileSFunction_g;
1281:HANcoder_E407_TTA_CombineModel.c ****     } else {
1282:HANcoder_E407_TTA_CombineModel.c ****       /* Switch: '<S79>/Switch1' incorporates:
1283:HANcoder_E407_TTA_CombineModel.c ****        *  DataStoreRead: '<S14>/Data Store Read'
1284:HANcoder_E407_TTA_CombineModel.c ****        */
1285:HANcoder_E407_TTA_CombineModel.c ****       rtb_Switch1 = rtDWork.trailerOneAngle;
1286:HANcoder_E407_TTA_CombineModel.c ****     }
1287:HANcoder_E407_TTA_CombineModel.c **** 
1288:HANcoder_E407_TTA_CombineModel.c ****     /* End of Switch: '<S79>/Switch' */
1289:HANcoder_E407_TTA_CombineModel.c **** 
1290:HANcoder_E407_TTA_CombineModel.c ****     /* Gain: '<S79>/Gain2' */
1291:HANcoder_E407_TTA_CombineModel.c ****     rtb_Integrator = (real_T)((uint16_T)62921U) * 2.384185791015625E-7 * (real_T)
1292:HANcoder_E407_TTA_CombineModel.c ****       rtb_Switch1;
1293:HANcoder_E407_TTA_CombineModel.c **** 
1294:HANcoder_E407_TTA_CombineModel.c ****     /* Sum: '<S80>/Sum2' incorporates:
1295:HANcoder_E407_TTA_CombineModel.c ****      *  Constant: '<S14>/Constant2'
1296:HANcoder_E407_TTA_CombineModel.c ****      */
1297:HANcoder_E407_TTA_CombineModel.c ****     Gamma2 = rtb_Integrator - 0.0;
1298:HANcoder_E407_TTA_CombineModel.c **** 
1299:HANcoder_E407_TTA_CombineModel.c ****     /* Trigonometry: '<S138>/tan 1' incorporates:
1300:HANcoder_E407_TTA_CombineModel.c ****      *  Trigonometry: '<S139>/tan '
1301:HANcoder_E407_TTA_CombineModel.c ****      */
1302:HANcoder_E407_TTA_CombineModel.c ****     z = sin(Gamma2);
1303:HANcoder_E407_TTA_CombineModel.c **** 
1304:HANcoder_E407_TTA_CombineModel.c ****     /* Trigonometry: '<S138>/tan 2' incorporates:
1305:HANcoder_E407_TTA_CombineModel.c ****      *  Trigonometry: '<S139>/tan 1'
1306:HANcoder_E407_TTA_CombineModel.c ****      */
1307:HANcoder_E407_TTA_CombineModel.c ****     rtb_Uk1_tmp = cos(Gamma2);
1308:HANcoder_E407_TTA_CombineModel.c **** 
1309:HANcoder_E407_TTA_CombineModel.c ****     /* Sum: '<S138>/Add' incorporates:
1310:HANcoder_E407_TTA_CombineModel.c ****      *  Constant: '<S79>/Velocity on exale'
1311:HANcoder_E407_TTA_CombineModel.c ****      *  Constant: '<S80>/TrailUnitWheelbase'
1312:HANcoder_E407_TTA_CombineModel.c ****      *  Product: '<S138>/Product1'
1313:HANcoder_E407_TTA_CombineModel.c ****      *  Product: '<S138>/Product2'
1314:HANcoder_E407_TTA_CombineModel.c ****      *  Trigonometry: '<S138>/tan 1'
1315:HANcoder_E407_TTA_CombineModel.c ****      *  Trigonometry: '<S138>/tan 2'
1316:HANcoder_E407_TTA_CombineModel.c ****      */
1317:HANcoder_E407_TTA_CombineModel.c ****     rtb_Uk1 = rtb_Sum * 4.0 * z + rtb_Uk1_tmp * 1.3889;
1318:HANcoder_E407_TTA_CombineModel.c **** 
1319:HANcoder_E407_TTA_CombineModel.c ****     /* Sum: '<S80>/Sum1' incorporates:
1320:HANcoder_E407_TTA_CombineModel.c ****      *  Constant: '<S14>/Constant2'
1321:HANcoder_E407_TTA_CombineModel.c ****      */
1322:HANcoder_E407_TTA_CombineModel.c ****     Gamma1 = 0.0 - rtb_Integrator;
1323:HANcoder_E407_TTA_CombineModel.c **** 
1324:HANcoder_E407_TTA_CombineModel.c ****     /* Product: '<S139>/Product' incorporates:
1325:HANcoder_E407_TTA_CombineModel.c ****      *  Constant: '<S79>/Velocity on exale'
1326:HANcoder_E407_TTA_CombineModel.c ****      *  Constant: '<S80>/RearAxleToHitch'
1327:HANcoder_E407_TTA_CombineModel.c ****      *  Constant: '<S80>/TrailUnitWheelbase'
1328:HANcoder_E407_TTA_CombineModel.c ****      *  Gain: '<S139>/Gain'
1329:HANcoder_E407_TTA_CombineModel.c ****      *  Product: '<S139>/Product1'
1330:HANcoder_E407_TTA_CombineModel.c ****      *  Product: '<S139>/Product3'
1331:HANcoder_E407_TTA_CombineModel.c ****      *  Sum: '<S139>/Add'
1332:HANcoder_E407_TTA_CombineModel.c ****      */
1333:HANcoder_E407_TTA_CombineModel.c ****     rtb_Integrator = (1.3889 / 1.0 * z * (-1.0) + rtb_Uk1_tmp / 1.0 * 4.0 *
1334:HANcoder_E407_TTA_CombineModel.c ****                       rtb_Sum) * (rtConstB.signV2 * rtConstB.signL0b);
1335:HANcoder_E407_TTA_CombineModel.c **** 
1336:HANcoder_E407_TTA_CombineModel.c ****     /* Trigonometry: '<S143>/tan ' incorporates:
1337:HANcoder_E407_TTA_CombineModel.c ****      *  Trigonometry: '<S142>/tan 1'
1338:HANcoder_E407_TTA_CombineModel.c ****      */
1339:HANcoder_E407_TTA_CombineModel.c ****     rtb_Sum = sin(Gamma1);
1340:HANcoder_E407_TTA_CombineModel.c **** 
1341:HANcoder_E407_TTA_CombineModel.c ****     /* Trigonometry: '<S143>/tan 1' incorporates:
1342:HANcoder_E407_TTA_CombineModel.c ****      *  Trigonometry: '<S142>/tan 2'
1343:HANcoder_E407_TTA_CombineModel.c ****      */
1344:HANcoder_E407_TTA_CombineModel.c ****     z = cos(Gamma1);
1345:HANcoder_E407_TTA_CombineModel.c **** 
1346:HANcoder_E407_TTA_CombineModel.c ****     /* Signum: '<S143>/Sign' */
1347:HANcoder_E407_TTA_CombineModel.c ****     if (rtb_Uk1 < 0.0) {
1348:HANcoder_E407_TTA_CombineModel.c ****       rtb_Uk1_tmp = -1.0;
1349:HANcoder_E407_TTA_CombineModel.c ****     } else {
1350:HANcoder_E407_TTA_CombineModel.c ****       rtb_Uk1_tmp = (rtb_Uk1 > 0.0);
1351:HANcoder_E407_TTA_CombineModel.c ****     }
1352:HANcoder_E407_TTA_CombineModel.c **** 
1353:HANcoder_E407_TTA_CombineModel.c ****     /* Gain: '<S78>/Gain2' incorporates:
1354:HANcoder_E407_TTA_CombineModel.c ****      *  Constant: '<S80>/RearAxleToHitch'
1355:HANcoder_E407_TTA_CombineModel.c ****      *  Constant: '<S80>/TractorWheelbase'
1356:HANcoder_E407_TTA_CombineModel.c ****      *  Constant: '<S80>/TrailUnitWheelbase'
1357:HANcoder_E407_TTA_CombineModel.c ****      *  Gain: '<S143>/Gain'
1358:HANcoder_E407_TTA_CombineModel.c ****      *  Product: '<S141>/Product1'
1359:HANcoder_E407_TTA_CombineModel.c ****      *  Product: '<S142>/Product1'
1360:HANcoder_E407_TTA_CombineModel.c ****      *  Product: '<S142>/Product2'
1361:HANcoder_E407_TTA_CombineModel.c ****      *  Product: '<S143>/Product'
1362:HANcoder_E407_TTA_CombineModel.c ****      *  Product: '<S143>/Product1'
1363:HANcoder_E407_TTA_CombineModel.c ****      *  Product: '<S143>/Product3'
1364:HANcoder_E407_TTA_CombineModel.c ****      *  Signum: '<S143>/Sign'
1365:HANcoder_E407_TTA_CombineModel.c ****      *  Sum: '<S142>/Add'
1366:HANcoder_E407_TTA_CombineModel.c ****      *  Sum: '<S143>/Add'
1367:HANcoder_E407_TTA_CombineModel.c ****      *  Trigonometry: '<S141>/tan 1'
1368:HANcoder_E407_TTA_CombineModel.c ****      *  Trigonometry: '<S143>/tan '
1369:HANcoder_E407_TTA_CombineModel.c ****      *  Trigonometry: '<S143>/tan 1'
1370:HANcoder_E407_TTA_CombineModel.c ****      */
1371:HANcoder_E407_TTA_CombineModel.c ****     steering = atan((rtb_Uk1 / 1.0 * rtb_Sum * (-1.0) + z / 1.0 * 4.0 *
1372:HANcoder_E407_TTA_CombineModel.c ****                      rtb_Integrator) * (rtb_Uk1_tmp * rtConstB.signL0b_o) * 3.0 /
1373:HANcoder_E407_TTA_CombineModel.c ****                     (rtb_Integrator * 4.0 * rtb_Sum + z * rtb_Uk1)) * 45.6;
1374:HANcoder_E407_TTA_CombineModel.c **** 
1375:HANcoder_E407_TTA_CombineModel.c ****     /* M-S-Function: '<S83>/Level-2 M-file S-Function' */
1376:HANcoder_E407_TTA_CombineModel.c ****     /* determine if the counter needs a reset  */
1377:HANcoder_E407_TTA_CombineModel.c ****     if (rtB.DataTypeConversion > 0) {
1378:HANcoder_E407_TTA_CombineModel.c ****       QuadEncResetCounter(QUADENC_TIM3_PA6_PB5);
1379:HANcoder_E407_TTA_CombineModel.c ****     }
1380:HANcoder_E407_TTA_CombineModel.c **** 
1381:HANcoder_E407_TTA_CombineModel.c ****     /* read counter from the quadrature encoder module */
1382:HANcoder_E407_TTA_CombineModel.c ****     rtb_Level2MfileSFunction_k = QuadEncGetCounter(QUADENC_TIM3_PA6_PB5);
1383:HANcoder_E407_TTA_CombineModel.c **** 
1384:HANcoder_E407_TTA_CombineModel.c ****     /* MATLABSystem: '<S78>/Moving Average' incorporates:
1385:HANcoder_E407_TTA_CombineModel.c ****      *  DataTypeConversion: '<S78>/Cast2'
1386:HANcoder_E407_TTA_CombineModel.c ****      */
1387:HANcoder_E407_TTA_CombineModel.c ****     if (rtDWork.obj.TunablePropsChanged) {
1388:HANcoder_E407_TTA_CombineModel.c ****       rtDWork.obj.TunablePropsChanged = false;
1389:HANcoder_E407_TTA_CombineModel.c ****     }
1390:HANcoder_E407_TTA_CombineModel.c **** 
1391:HANcoder_E407_TTA_CombineModel.c ****     obj = rtDWork.obj.pStatistic;
1392:HANcoder_E407_TTA_CombineModel.c ****     if (obj->isInitialized != 1) {
1393:HANcoder_E407_TTA_CombineModel.c ****       obj->isSetupComplete = false;
1394:HANcoder_E407_TTA_CombineModel.c ****       obj->isInitialized = 1;
1395:HANcoder_E407_TTA_CombineModel.c ****       obj->pCumSum = 0.0;
1396:HANcoder_E407_TTA_CombineModel.c ****       obj->pCumSumRev[0] = 0.0;
1397:HANcoder_E407_TTA_CombineModel.c ****       obj->pCumSumRev[1] = 0.0;
1398:HANcoder_E407_TTA_CombineModel.c ****       obj->pCumSumRev[2] = 0.0;
1399:HANcoder_E407_TTA_CombineModel.c ****       obj->pCumRevIndex = 1.0;
1400:HANcoder_E407_TTA_CombineModel.c ****       obj->pModValueRev = 0.0;
1401:HANcoder_E407_TTA_CombineModel.c ****       obj->isSetupComplete = true;
1402:HANcoder_E407_TTA_CombineModel.c ****       obj->pCumSum = 0.0;
1403:HANcoder_E407_TTA_CombineModel.c ****       obj->pCumSumRev[0] = 0.0;
1404:HANcoder_E407_TTA_CombineModel.c ****       obj->pCumSumRev[1] = 0.0;
1405:HANcoder_E407_TTA_CombineModel.c ****       obj->pCumSumRev[2] = 0.0;
1406:HANcoder_E407_TTA_CombineModel.c ****       obj->pCumRevIndex = 1.0;
1407:HANcoder_E407_TTA_CombineModel.c ****       obj->pModValueRev = 0.0;
1408:HANcoder_E407_TTA_CombineModel.c ****     }
1409:HANcoder_E407_TTA_CombineModel.c **** 
1410:HANcoder_E407_TTA_CombineModel.c ****     rtb_Integrator = obj->pCumRevIndex;
1411:HANcoder_E407_TTA_CombineModel.c ****     rtb_Uk1 = obj->pCumSum;
1412:HANcoder_E407_TTA_CombineModel.c ****     csumrev[0] = obj->pCumSumRev[0];
1413:HANcoder_E407_TTA_CombineModel.c ****     csumrev[1] = obj->pCumSumRev[1];
1414:HANcoder_E407_TTA_CombineModel.c ****     csumrev[2] = obj->pCumSumRev[2];
1415:HANcoder_E407_TTA_CombineModel.c ****     rtb_Sum = obj->pModValueRev;
1416:HANcoder_E407_TTA_CombineModel.c ****     z = 0.0;
1417:HANcoder_E407_TTA_CombineModel.c ****     rtb_Uk1_tmp = 0.0;
1418:HANcoder_E407_TTA_CombineModel.c ****     rtb_Uk1 += (real_T)rtb_Level2MfileSFunction_k;
1419:HANcoder_E407_TTA_CombineModel.c ****     if (rtb_Sum == 0.0) {
1420:HANcoder_E407_TTA_CombineModel.c ****       z = csumrev[(int32_T)rtb_Integrator - 1] + rtb_Uk1;
1421:HANcoder_E407_TTA_CombineModel.c ****     }
1422:HANcoder_E407_TTA_CombineModel.c **** 
1423:HANcoder_E407_TTA_CombineModel.c ****     csumrev[(int32_T)rtb_Integrator - 1] = rtb_Level2MfileSFunction_k;
1424:HANcoder_E407_TTA_CombineModel.c ****     if (rtb_Integrator != 3.0) {
1425:HANcoder_E407_TTA_CombineModel.c ****       rtb_Integrator++;
1426:HANcoder_E407_TTA_CombineModel.c ****     } else {
1427:HANcoder_E407_TTA_CombineModel.c ****       rtb_Integrator = 1.0;
1428:HANcoder_E407_TTA_CombineModel.c ****       rtb_Uk1 = 0.0;
1429:HANcoder_E407_TTA_CombineModel.c ****       csumrev[1] += csumrev[2];
1430:HANcoder_E407_TTA_CombineModel.c ****       csumrev[0] += csumrev[1];
1431:HANcoder_E407_TTA_CombineModel.c ****     }
1432:HANcoder_E407_TTA_CombineModel.c **** 
1433:HANcoder_E407_TTA_CombineModel.c ****     if (rtb_Sum == 0.0) {
1434:HANcoder_E407_TTA_CombineModel.c ****       rtb_Uk1_tmp = z / 4.0;
1435:HANcoder_E407_TTA_CombineModel.c ****     }
1436:HANcoder_E407_TTA_CombineModel.c **** 
1437:HANcoder_E407_TTA_CombineModel.c ****     obj->pCumSum = rtb_Uk1;
1438:HANcoder_E407_TTA_CombineModel.c ****     obj->pCumSumRev[0] = csumrev[0];
1439:HANcoder_E407_TTA_CombineModel.c ****     obj->pCumSumRev[1] = csumrev[1];
1440:HANcoder_E407_TTA_CombineModel.c ****     obj->pCumSumRev[2] = csumrev[2];
1441:HANcoder_E407_TTA_CombineModel.c ****     obj->pCumRevIndex = rtb_Integrator;
1442:HANcoder_E407_TTA_CombineModel.c ****     if (rtb_Sum > 0.0) {
1443:HANcoder_E407_TTA_CombineModel.c ****       obj->pModValueRev = rtb_Sum - 1.0;
1444:HANcoder_E407_TTA_CombineModel.c ****     } else {
1445:HANcoder_E407_TTA_CombineModel.c ****       obj->pModValueRev = 0.0;
1446:HANcoder_E407_TTA_CombineModel.c ****     }
1447:HANcoder_E407_TTA_CombineModel.c **** 
1448:HANcoder_E407_TTA_CombineModel.c ****     /* Gain: '<S78>/Gain1' incorporates:
1449:HANcoder_E407_TTA_CombineModel.c ****      *  MATLABSystem: '<S78>/Moving Average'
1450:HANcoder_E407_TTA_CombineModel.c ****      */
1451:HANcoder_E407_TTA_CombineModel.c ****     position = 0.021459227467811159 * rtb_Uk1_tmp;
1452:HANcoder_E407_TTA_CombineModel.c **** 
1453:HANcoder_E407_TTA_CombineModel.c ****     /* Sum: '<S78>/Sum' incorporates:
1454:HANcoder_E407_TTA_CombineModel.c ****      *  Rounding: '<S78>/Round'
1455:HANcoder_E407_TTA_CombineModel.c ****      *  Rounding: '<S78>/Round1'
1456:HANcoder_E407_TTA_CombineModel.c ****      */
1457:HANcoder_E407_TTA_CombineModel.c ****     control = floor(steering) - floor(position);
1458:HANcoder_E407_TTA_CombineModel.c **** 
1459:HANcoder_E407_TTA_CombineModel.c ****     /* Abs: '<S78>/Abs' */
1460:HANcoder_E407_TTA_CombineModel.c ****     rtb_Uk1 = fabs(control);
1461:HANcoder_E407_TTA_CombineModel.c **** 
1462:HANcoder_E407_TTA_CombineModel.c ****     /* Switch: '<S79>/Switch1' incorporates:
1463:HANcoder_E407_TTA_CombineModel.c ****      *  DataTypeConversion: '<S78>/Cast'
1464:HANcoder_E407_TTA_CombineModel.c ****      *  DiscreteIntegrator: '<S115>/Integrator'
1465:HANcoder_E407_TTA_CombineModel.c ****      *  Gain: '<S120>/Proportional Gain'
1466:HANcoder_E407_TTA_CombineModel.c ****      *  Sum: '<S124>/Sum'
1467:HANcoder_E407_TTA_CombineModel.c ****      */
1468:HANcoder_E407_TTA_CombineModel.c ****     rtb_Switch1 = (uint16_T)(propVal * rtb_Uk1 + rtDWork.Integrator_DSTATE);
1469:HANcoder_E407_TTA_CombineModel.c **** 
1470:HANcoder_E407_TTA_CombineModel.c ****     /* Sum: '<S78>/Add' incorporates:
1471:HANcoder_E407_TTA_CombineModel.c ****      *  Constant: '<S78>/Motor dead zone'
1472:HANcoder_E407_TTA_CombineModel.c ****      */
1473:HANcoder_E407_TTA_CombineModel.c ****     mospeed = (uint16_T)((uint32_T)((uint16_T)300U) + rtb_Switch1);
1474:HANcoder_E407_TTA_CombineModel.c **** 
1475:HANcoder_E407_TTA_CombineModel.c ****     /* M-S-Function: '<S8>/Level-2 M-file S-Function' incorporates:
1476:HANcoder_E407_TTA_CombineModel.c ****      *  Constant: '<S78>/Constant1'
1477:HANcoder_E407_TTA_CombineModel.c ****      *  RelationalOperator: '<S78>/GreaterThan'
1478:HANcoder_E407_TTA_CombineModel.c ****      */
1479:HANcoder_E407_TTA_CombineModel.c ****     rtb_Level2MfileSFunction_j = (control > 0.0);
1480:HANcoder_E407_TTA_CombineModel.c **** 
1481:HANcoder_E407_TTA_CombineModel.c ****     /* DataTypeConversion: '<S78>/Cast1' */
1482:HANcoder_E407_TTA_CombineModel.c ****     cw = rtb_Level2MfileSFunction_j;
1483:HANcoder_E407_TTA_CombineModel.c **** 
1484:HANcoder_E407_TTA_CombineModel.c ****     /* Logic: '<S78>/NOT' */
1485:HANcoder_E407_TTA_CombineModel.c ****     ccw = !cw;
1486:HANcoder_E407_TTA_CombineModel.c **** 
1487:HANcoder_E407_TTA_CombineModel.c ****     /* DataTypeConversion: '<S83>/Data Type Conversion' incorporates:
1488:HANcoder_E407_TTA_CombineModel.c ****      *  RelationalOperator: '<S132>/FixPt Relational Operator'
1489:HANcoder_E407_TTA_CombineModel.c ****      *  UnitDelay: '<S132>/Delay Input1'
1490:HANcoder_E407_TTA_CombineModel.c ****      *
1491:HANcoder_E407_TTA_CombineModel.c ****      * Block description for '<S132>/Delay Input1':
1492:HANcoder_E407_TTA_CombineModel.c ****      *
1493:HANcoder_E407_TTA_CombineModel.c ****      *  Store in Global RAM
1494:HANcoder_E407_TTA_CombineModel.c ****      */
1495:HANcoder_E407_TTA_CombineModel.c ****     rtB.DataTypeConversion = (rtDWork.DelayInput1_DSTATE < 0.0);
1496:HANcoder_E407_TTA_CombineModel.c **** 
1497:HANcoder_E407_TTA_CombineModel.c ****     /* M-S-Function: '<S135>/Level-2 M-file S-Function' */
1498:HANcoder_E407_TTA_CombineModel.c ****     /* read from analog input for filtered inputs*/
1499:HANcoder_E407_TTA_CombineModel.c ****     rtb_Switch1 = AninGet(ANIN_PORTF_PIN10,0);
1500:HANcoder_E407_TTA_CombineModel.c **** 
1501:HANcoder_E407_TTA_CombineModel.c ****     /* M-S-Function: '<S137>/Level-2 M-file S-Function' */
1502:HANcoder_E407_TTA_CombineModel.c ****     /* read from analog input for filtered inputs*/
1503:HANcoder_E407_TTA_CombineModel.c ****     rtb_Level2MfileSFunction_d = AninGet(ANIN_PORTF_PIN8,0);
1504:HANcoder_E407_TTA_CombineModel.c **** 
1505:HANcoder_E407_TTA_CombineModel.c ****     /* Outputs for Enabled SubSystem: '<S79>/Subsystem' incorporates:
1506:HANcoder_E407_TTA_CombineModel.c ****      *  EnablePort: '<S133>/Enable'
1507:HANcoder_E407_TTA_CombineModel.c ****      */
1508:HANcoder_E407_TTA_CombineModel.c ****     /* Switch: '<S79>/Switch1' incorporates:
1509:HANcoder_E407_TTA_CombineModel.c ****      *  Constant: '<S14>/Constant1'
1510:HANcoder_E407_TTA_CombineModel.c ****      *  Constant: '<S79>/Constant1'
1511:HANcoder_E407_TTA_CombineModel.c ****      *  RelationalOperator: '<S79>/Equal1'
1512:HANcoder_E407_TTA_CombineModel.c ****      */
1513:HANcoder_E407_TTA_CombineModel.c ****     if (nodeRole == ((uint8_T)5U)) {
1514:HANcoder_E407_TTA_CombineModel.c ****       /* DataStoreWrite: '<S133>/Data Store Write' */
1515:HANcoder_E407_TTA_CombineModel.c ****       rtDWork.trailerTwoAngle = rtb_Level2MfileSFunction_d;
1516:HANcoder_E407_TTA_CombineModel.c **** 
1517:HANcoder_E407_TTA_CombineModel.c ****       /* Switch: '<S79>/Switch1' */
1518:HANcoder_E407_TTA_CombineModel.c ****       rtb_Switch1 = rtb_Level2MfileSFunction_d;
1519:HANcoder_E407_TTA_CombineModel.c ****     } else {
1520:HANcoder_E407_TTA_CombineModel.c ****       /* Switch: '<S79>/Switch1' incorporates:
1521:HANcoder_E407_TTA_CombineModel.c ****        *  DataStoreRead: '<S14>/Data Store Read1'
1522:HANcoder_E407_TTA_CombineModel.c ****        */
1523:HANcoder_E407_TTA_CombineModel.c ****       rtb_Switch1 = rtDWork.trailerTwoAngle;
1524:HANcoder_E407_TTA_CombineModel.c ****     }
1525:HANcoder_E407_TTA_CombineModel.c **** 
1526:HANcoder_E407_TTA_CombineModel.c ****     /* End of Switch: '<S79>/Switch1' */
1527:HANcoder_E407_TTA_CombineModel.c ****     /* End of Outputs for SubSystem: '<S79>/Subsystem' */
1528:HANcoder_E407_TTA_CombineModel.c **** 
1529:HANcoder_E407_TTA_CombineModel.c ****     /* Outputs for Enabled SubSystem: '<S79>/Subsystem1' incorporates:
1530:HANcoder_E407_TTA_CombineModel.c ****      *  EnablePort: '<S134>/Enable'
1531:HANcoder_E407_TTA_CombineModel.c ****      */
1532:HANcoder_E407_TTA_CombineModel.c ****     if (rtb_Equal16) {
1533:HANcoder_E407_TTA_CombineModel.c ****       /* DataStoreWrite: '<S134>/Data Store Write' */
1534:HANcoder_E407_TTA_CombineModel.c ****       rtDWork.trailerOneAngle = rtb_Level2MfileSFunction_g;
1535:HANcoder_E407_TTA_CombineModel.c ****     }
1536:HANcoder_E407_TTA_CombineModel.c **** 
1537:HANcoder_E407_TTA_CombineModel.c ****     /* End of Outputs for SubSystem: '<S79>/Subsystem1' */
1538:HANcoder_E407_TTA_CombineModel.c **** 
1539:HANcoder_E407_TTA_CombineModel.c ****     /* Update for M-S-Function: '<S146>/Level-2 M-file S-Function' */
1540:HANcoder_E407_TTA_CombineModel.c ****     /* set the new duty cycle */
1541:HANcoder_E407_TTA_CombineModel.c ****     PwmoutSet(PWMOUT_TIM14_PIN_PF9, mospeed);
1542:HANcoder_E407_TTA_CombineModel.c **** 
1543:HANcoder_E407_TTA_CombineModel.c ****     /* Update for M-S-Function: '<S144>/Level-2 M-file S-Function' */
1544:HANcoder_E407_TTA_CombineModel.c ****     /* update digital output */
1545:HANcoder_E407_TTA_CombineModel.c ****     if (cw == 0) {
1546:HANcoder_E407_TTA_CombineModel.c ****       DigoutSet(DIGOUT_PORTE_PIN5, DIGOUT_LOW);
1547:HANcoder_E407_TTA_CombineModel.c ****     } else {
1548:HANcoder_E407_TTA_CombineModel.c ****       DigoutSet(DIGOUT_PORTE_PIN5, DIGOUT_HIGH);
1549:HANcoder_E407_TTA_CombineModel.c ****     }
1550:HANcoder_E407_TTA_CombineModel.c **** 
1551:HANcoder_E407_TTA_CombineModel.c ****     /* Update for M-S-Function: '<S145>/Level-2 M-file S-Function' */
1552:HANcoder_E407_TTA_CombineModel.c ****     /* update digital output */
1553:HANcoder_E407_TTA_CombineModel.c ****     if (ccw == 0) {
1554:HANcoder_E407_TTA_CombineModel.c ****       DigoutSet(DIGOUT_PORTE_PIN6, DIGOUT_LOW);
1555:HANcoder_E407_TTA_CombineModel.c ****     } else {
1556:HANcoder_E407_TTA_CombineModel.c ****       DigoutSet(DIGOUT_PORTE_PIN6, DIGOUT_HIGH);
1557:HANcoder_E407_TTA_CombineModel.c ****     }
1558:HANcoder_E407_TTA_CombineModel.c **** 
1559:HANcoder_E407_TTA_CombineModel.c ****     /* Update for DiscreteIntegrator: '<S115>/Integrator' incorporates:
1560:HANcoder_E407_TTA_CombineModel.c ****      *  Gain: '<S112>/Integral Gain'
1561:HANcoder_E407_TTA_CombineModel.c ****      */
1562:HANcoder_E407_TTA_CombineModel.c ****     rtDWork.Integrator_DSTATE += 0.01 * (real_T)Slot5execution_ELAPS_T[0] *
1563:HANcoder_E407_TTA_CombineModel.c ****       (intVal * rtb_Uk1);
1564:HANcoder_E407_TTA_CombineModel.c **** 
1565:HANcoder_E407_TTA_CombineModel.c ****     /* Update for UnitDelay: '<S132>/Delay Input1'
1566:HANcoder_E407_TTA_CombineModel.c ****      *
1567:HANcoder_E407_TTA_CombineModel.c ****      * Block description for '<S132>/Delay Input1':
1568:HANcoder_E407_TTA_CombineModel.c ****      *
1569:HANcoder_E407_TTA_CombineModel.c ****      *  Store in Global RAM
1570:HANcoder_E407_TTA_CombineModel.c ****      */
1571:HANcoder_E407_TTA_CombineModel.c ****     rtDWork.DelayInput1_DSTATE = 0.0;
1572:HANcoder_E407_TTA_CombineModel.c ****   }
1573:HANcoder_E407_TTA_CombineModel.c **** 
1574:HANcoder_E407_TTA_CombineModel.c ****   rtPrevZCSigState.Slot5execution_Trig_ZCE = rtb_Equal14;
 1748              		.loc 1 1574 3 is_stmt 1 view .LVU659
 1749              		.loc 1 1574 44 is_stmt 0 view .LVU660
 1750 045e 039B     		ldr	r3, [sp, #12]
 1751 0460 2B70     		strb	r3, [r5]
1575:HANcoder_E407_TTA_CombineModel.c **** 
1576:HANcoder_E407_TTA_CombineModel.c ****   /* End of Outputs for SubSystem: '<S1>/Slot 5 execution' */
1577:HANcoder_E407_TTA_CombineModel.c **** 
1578:HANcoder_E407_TTA_CombineModel.c ****   /* Outputs for Triggered SubSystem: '<S13>/Subsystem' incorporates:
1579:HANcoder_E407_TTA_CombineModel.c ****    *  TriggerPort: '<S72>/Trigger'
1580:HANcoder_E407_TTA_CombineModel.c ****    */
1581:HANcoder_E407_TTA_CombineModel.c ****   if (rtb_AND && (rtPrevZCSigState.Subsystem_Trig_ZCE != POS_ZCSIG)) {
 1752              		.loc 1 1581 3 is_stmt 1 view .LVU661
 1753              		.loc 1 1581 6 is_stmt 0 view .LVU662
 1754 0462 049B     		ldr	r3, [sp, #16]
 1755 0464 4BB1     		cbz	r3, .L132
 1756              		.loc 1 1581 15 discriminator 1 view .LVU663
 1757 0466 AB78     		ldrb	r3, [r5, #2]	@ zero_extendqisi2
 1758 0468 012B     		cmp	r3, #1
 1759 046a 06D0     		beq	.L132
1582:HANcoder_E407_TTA_CombineModel.c ****     /* DataStoreWrite: '<S72>/Data Store Write1' incorporates:
1583:HANcoder_E407_TTA_CombineModel.c ****      *  Constant: '<S72>/Constant1'
1584:HANcoder_E407_TTA_CombineModel.c ****      */
1585:HANcoder_E407_TTA_CombineModel.c ****     rtDWork.Local_Ticks = ((uint16_T)0U);
 1760              		.loc 1 1585 5 is_stmt 1 view .LVU664
 1761              		.loc 1 1585 25 is_stmt 0 view .LVU665
 1762 046c 0023     		movs	r3, #0
 1763 046e A4F8C030 		strh	r3, [r4, #192]	@ movhi
1586:HANcoder_E407_TTA_CombineModel.c **** 
1587:HANcoder_E407_TTA_CombineModel.c ****     /* DataStoreWrite: '<S72>/Data Store Write' incorporates:
1588:HANcoder_E407_TTA_CombineModel.c ****      *  Constant: '<S72>/Constant3'
1589:HANcoder_E407_TTA_CombineModel.c ****      */
1590:HANcoder_E407_TTA_CombineModel.c ****     rtDWork.SlotTime = slotTime;
 1764              		.loc 1 1590 5 is_stmt 1 view .LVU666
 1765              		.loc 1 1590 22 is_stmt 0 view .LVU667
 1766 0472 254B     		ldr	r3, .L282+44
 1767 0474 1B78     		ldrb	r3, [r3]	@ zero_extendqisi2
 1768 0476 84F8C930 		strb	r3, [r4, #201]
 1769              	.L132:
1591:HANcoder_E407_TTA_CombineModel.c ****   }
1592:HANcoder_E407_TTA_CombineModel.c **** 
1593:HANcoder_E407_TTA_CombineModel.c ****   rtPrevZCSigState.Subsystem_Trig_ZCE = rtb_AND;
 1770              		.loc 1 1593 3 is_stmt 1 view .LVU668
 1771              		.loc 1 1593 39 is_stmt 0 view .LVU669
 1772 047a 059B     		ldr	r3, [sp, #20]
 1773 047c AB70     		strb	r3, [r5, #2]
1594:HANcoder_E407_TTA_CombineModel.c **** 
1595:HANcoder_E407_TTA_CombineModel.c ****   /* End of Outputs for SubSystem: '<S13>/Subsystem' */
1596:HANcoder_E407_TTA_CombineModel.c **** 
1597:HANcoder_E407_TTA_CombineModel.c ****   /* M-S-Function: '<S6>/Level-2 M-file S-Function' */
1598:HANcoder_E407_TTA_CombineModel.c ****   /* read from digital input */
1599:HANcoder_E407_TTA_CombineModel.c ****   rtb_Level2MfileSFunction_j = DiginGet(DIGIN_PORTG_PIN12);
 1774              		.loc 1 1599 3 is_stmt 1 view .LVU670
 1775              		.loc 1 1599 32 is_stmt 0 view .LVU671
 1776 047e 0E20     		movs	r0, #14
 1777 0480 FFF7FEFF 		bl	DiginGet
 1778              	.LVL121:
 1779 0484 0546     		mov	r5, r0
 1780              	.LVL122:
1600:HANcoder_E407_TTA_CombineModel.c **** 
1601:HANcoder_E407_TTA_CombineModel.c ****   /* Gain: '<S1>/Multiply' */
1602:HANcoder_E407_TTA_CombineModel.c ****   rtb_Multiply = (uint8_T)(rtb_Level2MfileSFunction_j ? (int32_T)((uint32_T)
 1781              		.loc 1 1602 3 is_stmt 1 view .LVU672
 1782              		.loc 1 1602 18 is_stmt 0 view .LVU673
 1783 0486 003D     		subs	r5, r5, #0
 1784              	.LVL123:
1603:HANcoder_E407_TTA_CombineModel.c ****     ((uint8_T)128U) >> 7) : 0);
1604:HANcoder_E407_TTA_CombineModel.c **** 
1605:HANcoder_E407_TTA_CombineModel.c ****   /* M-S-Function: '<S7>/Level-2 M-file S-Function' */
1606:HANcoder_E407_TTA_CombineModel.c ****   /* read from digital input */
1607:HANcoder_E407_TTA_CombineModel.c ****   rtb_Level2MfileSFunction_j = DiginGet(DIGIN_PORTG_PIN15);
 1785              		.loc 1 1607 32 view .LVU674
 1786 0488 4FF00F00 		mov	r0, #15
1602:HANcoder_E407_TTA_CombineModel.c ****     ((uint8_T)128U) >> 7) : 0);
 1787              		.loc 1 1602 18 view .LVU675
 1788 048c 18BF     		it	ne
 1789 048e 0125     		movne	r5, #1
 1790              	.LVL124:
 1791              		.loc 1 1607 3 is_stmt 1 view .LVU676
 1792              		.loc 1 1607 32 is_stmt 0 view .LVU677
 1793 0490 FFF7FEFF 		bl	DiginGet
 1794              	.LVL125:
1608:HANcoder_E407_TTA_CombineModel.c **** 
1609:HANcoder_E407_TTA_CombineModel.c ****   /* Gain: '<S1>/Multiply1' */
1610:HANcoder_E407_TTA_CombineModel.c ****   rtb_Multiply1 = (uint8_T)(rtb_Level2MfileSFunction_j ? (int32_T)((uint32_T)
 1795              		.loc 1 1610 3 is_stmt 1 view .LVU678
 1796              		.loc 1 1610 19 is_stmt 0 view .LVU679
 1797 0494 00B1     		cbz	r0, .L133
1611:HANcoder_E407_TTA_CombineModel.c ****     ((uint8_T)128U) >> 6) : 0);
1612:HANcoder_E407_TTA_CombineModel.c **** 
1613:HANcoder_E407_TTA_CombineModel.c ****   /* M-S-Function: '<S8>/Level-2 M-file S-Function' */
1614:HANcoder_E407_TTA_CombineModel.c ****   /* read from digital input */
1615:HANcoder_E407_TTA_CombineModel.c ****   rtb_Level2MfileSFunction_j = DiginGet(DIGIN_PORTA_PIN4);
1616:HANcoder_E407_TTA_CombineModel.c **** 
1617:HANcoder_E407_TTA_CombineModel.c ****   /* Sum: '<S1>/Add' incorporates:
1618:HANcoder_E407_TTA_CombineModel.c ****    *  DataStoreWrite: '<S1>/Data Store Write'
1619:HANcoder_E407_TTA_CombineModel.c ****    *  Gain: '<S1>/Multiply2'
1620:HANcoder_E407_TTA_CombineModel.c ****    */
1621:HANcoder_E407_TTA_CombineModel.c ****   rtDWork.nodeRole_i = (uint8_T)(((uint32_T)rtb_Multiply + rtb_Multiply1) +
 1798              		.loc 1 1621 58 view .LVU680
 1799 0496 0235     		adds	r5, r5, #2
 1800              	.LVL126:
 1801              	.L133:
1615:HANcoder_E407_TTA_CombineModel.c **** 
 1802              		.loc 1 1615 3 is_stmt 1 discriminator 4 view .LVU681
1615:HANcoder_E407_TTA_CombineModel.c **** 
 1803              		.loc 1 1615 32 is_stmt 0 discriminator 4 view .LVU682
 1804 0498 1020     		movs	r0, #16
 1805              	.LVL127:
1615:HANcoder_E407_TTA_CombineModel.c **** 
 1806              		.loc 1 1615 32 discriminator 4 view .LVU683
 1807 049a FFF7FEFF 		bl	DiginGet
 1808              	.LVL128:
 1809              		.loc 1 1621 3 is_stmt 1 discriminator 4 view .LVU684
 1810              		.loc 1 1621 24 is_stmt 0 discriminator 4 view .LVU685
 1811 049e 08B1     		cbz	r0, .L134
 1812              		.loc 1 1621 24 view .LVU686
 1813 04a0 0435     		adds	r5, r5, #4
 1814 04a2 EDB2     		uxtb	r5, r5
 1815              	.L134:
 1816              		.loc 1 1621 22 discriminator 4 view .LVU687
 1817 04a4 84F8C850 		strb	r5, [r4, #200]
1622:HANcoder_E407_TTA_CombineModel.c ****     (uint32_T)(rtb_Level2MfileSFunction_j ? (int32_T)((uint32_T)((uint8_T)128U) >>
1623:HANcoder_E407_TTA_CombineModel.c ****     5) : 0));
1624:HANcoder_E407_TTA_CombineModel.c **** 
1625:HANcoder_E407_TTA_CombineModel.c ****   /* M-S-Function: '<S148>/Level-2 M-file S-Function' */
1626:HANcoder_E407_TTA_CombineModel.c ****   /* read the current CPU load */
1627:HANcoder_E407_TTA_CombineModel.c ****   SI_CPUload = OsGetCpuLoad();
 1818              		.loc 1 1627 3 is_stmt 1 discriminator 4 view .LVU688
 1819              		.loc 1 1627 16 is_stmt 0 discriminator 4 view .LVU689
 1820 04a8 FFF7FEFF 		bl	OsGetCpuLoad
 1821              	.LVL129:
 1822              		.loc 1 1627 14 discriminator 4 view .LVU690
 1823 04ac 174B     		ldr	r3, .L282+48
 1824 04ae 1870     		strb	r0, [r3]
1628:HANcoder_E407_TTA_CombineModel.c **** 
1629:HANcoder_E407_TTA_CombineModel.c ****   /* M-S-Function: '<S149>/Level-2 M-file S-Function' */
1630:HANcoder_E407_TTA_CombineModel.c ****   /* read the free heap size */
1631:HANcoder_E407_TTA_CombineModel.c ****   SI_FreeHeap = OsGetFreeHeapSize();
 1825              		.loc 1 1631 3 is_stmt 1 discriminator 4 view .LVU691
 1826              		.loc 1 1631 17 is_stmt 0 discriminator 4 view .LVU692
 1827 04b0 FFF7FEFF 		bl	OsGetFreeHeapSize
 1828              	.LVL130:
 1829              		.loc 1 1631 15 discriminator 4 view .LVU693
 1830 04b4 164B     		ldr	r3, .L282+52
 1831              		.loc 1 1631 17 discriminator 4 view .LVU694
 1832 04b6 0246     		mov	r2, r0
1632:HANcoder_E407_TTA_CombineModel.c **** 
1633:HANcoder_E407_TTA_CombineModel.c ****   /* M-S-Function: '<S150>/Level-2 M-file S-Function' */
1634:HANcoder_E407_TTA_CombineModel.c ****   /* read the task's free stack size */
1635:HANcoder_E407_TTA_CombineModel.c ****   SI_FreeStack = OsGetTaskFreeStackSize("AppCtrlTask");
 1833              		.loc 1 1635 18 discriminator 4 view .LVU695
 1834 04b8 1648     		ldr	r0, .L282+56
1631:HANcoder_E407_TTA_CombineModel.c **** 
 1835              		.loc 1 1631 15 discriminator 4 view .LVU696
 1836 04ba 1A60     		str	r2, [r3]
 1837              		.loc 1 1635 3 is_stmt 1 discriminator 4 view .LVU697
 1838              		.loc 1 1635 18 is_stmt 0 discriminator 4 view .LVU698
 1839 04bc FFF7FEFF 		bl	OsGetTaskFreeStackSize
 1840              	.LVL131:
1636:HANcoder_E407_TTA_CombineModel.c **** 
1637:HANcoder_E407_TTA_CombineModel.c ****   /* Update absolute time for base rate */
1638:HANcoder_E407_TTA_CombineModel.c ****   /* The "clockTick0" counts the number of times the code of this task has
1639:HANcoder_E407_TTA_CombineModel.c ****    * been executed. The resolution of this integer timer is 0.01, which is the step size
1640:HANcoder_E407_TTA_CombineModel.c ****    * of the task. Size of "clockTick0" ensures timer will not overflow during the
1641:HANcoder_E407_TTA_CombineModel.c ****    * application lifespan selected.
1642:HANcoder_E407_TTA_CombineModel.c ****    * Timer of this task consists of two 32 bit unsigned integers.
1643:HANcoder_E407_TTA_CombineModel.c ****    * The two integers represent the low bits Timing.clockTick0 and the high bits
1644:HANcoder_E407_TTA_CombineModel.c ****    * Timing.clockTickH0. When the low bit overflows to 0, the high bits increment.
1645:HANcoder_E407_TTA_CombineModel.c ****    */
1646:HANcoder_E407_TTA_CombineModel.c ****   rtM->Timing.clockTick0++;
 1841              		.loc 1 1646 25 discriminator 4 view .LVU699
 1842 04c0 3368     		ldr	r3, [r6]
1635:HANcoder_E407_TTA_CombineModel.c **** 
 1843              		.loc 1 1635 16 discriminator 4 view .LVU700
 1844 04c2 154A     		ldr	r2, .L282+60
 1845              		.loc 1 1646 25 discriminator 4 view .LVU701
 1846 04c4 0133     		adds	r3, r3, #1
1635:HANcoder_E407_TTA_CombineModel.c **** 
 1847              		.loc 1 1635 16 discriminator 4 view .LVU702
 1848 04c6 1060     		str	r0, [r2]
 1849              		.loc 1 1646 3 is_stmt 1 discriminator 4 view .LVU703
 1850              		.loc 1 1646 25 is_stmt 0 discriminator 4 view .LVU704
 1851 04c8 3360     		str	r3, [r6]
1647:HANcoder_E407_TTA_CombineModel.c ****   if (!rtM->Timing.clockTick0) {
 1852              		.loc 1 1647 3 is_stmt 1 discriminator 4 view .LVU705
 1853              		.loc 1 1647 6 is_stmt 0 discriminator 4 view .LVU706
 1854 04ca 13B9     		cbnz	r3, .L55
1648:HANcoder_E407_TTA_CombineModel.c ****     rtM->Timing.clockTickH0++;
 1855              		.loc 1 1648 5 is_stmt 1 view .LVU707
 1856              		.loc 1 1648 28 is_stmt 0 view .LVU708
 1857 04cc 7368     		ldr	r3, [r6, #4]
 1858 04ce 0133     		adds	r3, r3, #1
 1859 04d0 7360     		str	r3, [r6, #4]
 1860              	.L55:
1649:HANcoder_E407_TTA_CombineModel.c ****   }
1650:HANcoder_E407_TTA_CombineModel.c **** }
 1861              		.loc 1 1650 1 view .LVU709
 1862 04d2 1BB0     		add	sp, sp, #108
 1863              		.cfi_remember_state
 1864              		.cfi_def_cfa_offset 84
 1865              		@ sp needed
 1866 04d4 BDEC0C8B 		vldm	sp!, {d8-d13}
 1867              		.cfi_restore 90
 1868              		.cfi_restore 91
 1869              		.cfi_restore 88
 1870              		.cfi_restore 89
 1871              		.cfi_restore 86
 1872              		.cfi_restore 87
 1873              		.cfi_restore 84
 1874              		.cfi_restore 85
 1875              		.cfi_restore 82
 1876              		.cfi_restore 83
 1877              		.cfi_restore 80
 1878              		.cfi_restore 81
 1879              		.cfi_def_cfa_offset 36
 1880 04d8 BDE8F08F 		pop	{r4, r5, r6, r7, r8, r9, r10, fp, pc}
 1881              	.LVL132:
 1882              	.L283:
 1883              		.loc 1 1650 1 view .LVU710
 1884              		.align	2
 1885              	.L282:
 1886 04dc D4000000 		.word	.LANCHOR2+212
 1887 04e0 18000000 		.word	.LANCHOR0+24
 1888 04e4 00000000 		.word	.LANCHOR9
 1889 04e8 00000000 		.word	.LANCHOR12
 1890 04ec 00000000 		.word	.LANCHOR11
 1891 04f0 00000000 		.word	.LANCHOR0
 1892 04f4 00000000 		.word	.LANCHOR5
 1893 04f8 00000000 		.word	rtConstP
 1894 04fc 00000000 		.word	.LANCHOR1
 1895 0500 00000000 		.word	.LANCHOR7
 1896 0504 00000000 		.word	.LANCHOR26
 1897 0508 00000000 		.word	.LANCHOR39
 1898 050c 00000000 		.word	.LANCHOR40
 1899 0510 00000000 		.word	.LANCHOR41
 1900 0514 00000000 		.word	.LC0
 1901 0518 00000000 		.word	.LANCHOR42
 1902 051c 00000000 		.word	.LANCHOR18
 1903              	.LVL133:
 1904              	.L251:
 1905              		.cfi_restore_state
1253:HANcoder_E407_TTA_CombineModel.c ****     rowIdx = rtM->Timing.clockTick0;
 1906              		.loc 1 1253 19 discriminator 1 view .LVU711
 1907 0520 2B78     		ldrb	r3, [r5]	@ zero_extendqisi2
1254:HANcoder_E407_TTA_CombineModel.c ****     Slot5execution_ELAPS_T[0] = rowIdx - rtDWork.Slot5execution_PREV_T[0];
 1908              		.loc 1 1254 12 discriminator 1 view .LVU712
 1909 0522 D54E     		ldr	r6, .L284+40
1253:HANcoder_E407_TTA_CombineModel.c ****     rowIdx = rtM->Timing.clockTick0;
 1910              		.loc 1 1253 19 discriminator 1 view .LVU713
 1911 0524 012B     		cmp	r3, #1
 1912 0526 9AD0     		beq	.L109
1254:HANcoder_E407_TTA_CombineModel.c ****     Slot5execution_ELAPS_T[0] = rowIdx - rtDWork.Slot5execution_PREV_T[0];
 1913              		.loc 1 1254 5 is_stmt 1 view .LVU714
1255:HANcoder_E407_TTA_CombineModel.c ****     rtDWork.Slot5execution_PREV_T[0] = rowIdx;
 1914              		.loc 1 1255 40 is_stmt 0 view .LVU715
 1915 0528 D4F8B810 		ldr	r1, [r4, #184]
1254:HANcoder_E407_TTA_CombineModel.c ****     Slot5execution_ELAPS_T[0] = rowIdx - rtDWork.Slot5execution_PREV_T[0];
 1916              		.loc 1 1254 12 view .LVU716
 1917 052c 3368     		ldr	r3, [r6]
 1918              	.LVL134:
1255:HANcoder_E407_TTA_CombineModel.c ****     rtDWork.Slot5execution_PREV_T[0] = rowIdx;
 1919              		.loc 1 1255 5 is_stmt 1 view .LVU717
1265:HANcoder_E407_TTA_CombineModel.c **** 
 1920              		.loc 1 1265 15 is_stmt 0 view .LVU718
 1921 052e D34A     		ldr	r2, .L284+44
1256:HANcoder_E407_TTA_CombineModel.c ****     rtDWork.Slot5execution_PREV_T[1] = rtM->Timing.clockTickH0;
 1922              		.loc 1 1256 38 view .LVU719
 1923 0530 C4F8B830 		str	r3, [r4, #184]
1255:HANcoder_E407_TTA_CombineModel.c ****     rtDWork.Slot5execution_PREV_T[0] = rowIdx;
 1924              		.loc 1 1255 40 view .LVU720
 1925 0534 5B1A     		subs	r3, r3, r1
 1926              	.LVL135:
1255:HANcoder_E407_TTA_CombineModel.c ****     rtDWork.Slot5execution_PREV_T[0] = rowIdx;
 1927              		.loc 1 1255 40 view .LVU721
 1928 0536 0CEE103A 		vmov	s24, r3	@ int
 1929              	.LVL136:
1256:HANcoder_E407_TTA_CombineModel.c ****     rtDWork.Slot5execution_PREV_T[1] = rtM->Timing.clockTickH0;
 1930              		.loc 1 1256 5 is_stmt 1 view .LVU722
1257:HANcoder_E407_TTA_CombineModel.c **** 
 1931              		.loc 1 1257 5 view .LVU723
1257:HANcoder_E407_TTA_CombineModel.c **** 
 1932              		.loc 1 1257 38 is_stmt 0 view .LVU724
 1933 053a 7368     		ldr	r3, [r6, #4]
 1934              	.LVL137:
1257:HANcoder_E407_TTA_CombineModel.c **** 
 1935              		.loc 1 1257 38 view .LVU725
 1936 053c C4F8BC30 		str	r3, [r4, #188]
1265:HANcoder_E407_TTA_CombineModel.c **** 
 1937              		.loc 1 1265 5 is_stmt 1 view .LVU726
1265:HANcoder_E407_TTA_CombineModel.c **** 
 1938              		.loc 1 1265 15 is_stmt 0 view .LVU727
 1939 0540 D2E90001 		ldrd	r0, [r2]
 1940 0544 C2A3     		adr	r3, .L284
 1941 0546 D3E90023 		ldrd	r2, [r3]
 1942 054a FFF7FEFF 		bl	__aeabi_dmul
 1943              	.LVL138:
1265:HANcoder_E407_TTA_CombineModel.c **** 
 1944              		.loc 1 1265 15 view .LVU728
 1945 054e FFF7FEFF 		bl	tan
 1946              	.LVL139:
1265:HANcoder_E407_TTA_CombineModel.c **** 
 1947              		.loc 1 1265 56 view .LVU729
 1948 0552 CB4B     		ldr	r3, .L284+48
 1949 0554 D3E90423 		ldrd	r2, [r3, #16]
 1950 0558 FFF7FEFF 		bl	__aeabi_dmul
 1951              	.LVL140:
1265:HANcoder_E407_TTA_CombineModel.c **** 
 1952              		.loc 1 1265 13 view .LVU730
 1953 055c 0022     		movs	r2, #0
 1954 055e C94B     		ldr	r3, .L284+52
 1955 0560 FFF7FEFF 		bl	__aeabi_dmul
 1956              	.LVL141:
 1957 0564 8046     		mov	r8, r0
 1958 0566 8946     		mov	r9, r1
 1959              	.LVL142:
1269:HANcoder_E407_TTA_CombineModel.c **** 
 1960              		.loc 1 1269 5 is_stmt 1 view .LVU731
1269:HANcoder_E407_TTA_CombineModel.c **** 
 1961              		.loc 1 1269 34 is_stmt 0 view .LVU732
 1962 0568 0420     		movs	r0, #4
 1963 056a 0021     		movs	r1, #0
 1964 056c FFF7FEFF 		bl	AninGet
 1965              	.LVL143:
1275:HANcoder_E407_TTA_CombineModel.c **** 
 1966              		.loc 1 1275 29 view .LVU733
 1967 0570 C54B     		ldr	r3, .L284+56
1269:HANcoder_E407_TTA_CombineModel.c **** 
 1968              		.loc 1 1269 34 view .LVU734
 1969 0572 1390     		str	r0, [sp, #76]
 1970              	.LVL144:
1275:HANcoder_E407_TTA_CombineModel.c **** 
 1971              		.loc 1 1275 5 is_stmt 1 view .LVU735
1275:HANcoder_E407_TTA_CombineModel.c **** 
 1972              		.loc 1 1275 29 is_stmt 0 view .LVU736
 1973 0574 1B78     		ldrb	r3, [r3]	@ zero_extendqisi2
 1974 0576 1293     		str	r3, [sp, #72]
 1975              	.LVL145:
1278:HANcoder_E407_TTA_CombineModel.c ****       /* Switch: '<S79>/Switch1' */
 1976              		.loc 1 1278 5 is_stmt 1 view .LVU737
1278:HANcoder_E407_TTA_CombineModel.c ****       /* Switch: '<S79>/Switch1' */
 1977              		.loc 1 1278 8 is_stmt 0 view .LVU738
 1978 0578 042B     		cmp	r3, #4
1285:HANcoder_E407_TTA_CombineModel.c ****     }
 1979              		.loc 1 1285 7 is_stmt 1 view .LVU739
1285:HANcoder_E407_TTA_CombineModel.c ****     }
 1980              		.loc 1 1285 19 is_stmt 0 view .LVU740
 1981 057a 14BF     		ite	ne
 1982 057c B4F8C200 		ldrhne	r0, [r4, #194]
 1983              	.LVL146:
1280:HANcoder_E407_TTA_CombineModel.c ****     } else {
 1984              		.loc 1 1280 19 view .LVU741
 1985 0580 1398     		ldreq	r0, [sp, #76]
 1986              	.LVL147:
1291:HANcoder_E407_TTA_CombineModel.c ****       rtb_Switch1;
 1987              		.loc 1 1291 5 is_stmt 1 view .LVU742
1291:HANcoder_E407_TTA_CombineModel.c ****       rtb_Switch1;
 1988              		.loc 1 1291 74 is_stmt 0 view .LVU743
 1989 0582 FFF7FEFF 		bl	__aeabi_ui2d
 1990              	.LVL148:
1291:HANcoder_E407_TTA_CombineModel.c ****       rtb_Switch1;
 1991              		.loc 1 1291 20 view .LVU744
 1992 0586 B4A3     		adr	r3, .L284+8
 1993 0588 D3E90023 		ldrd	r2, [r3]
 1994 058c FFF7FEFF 		bl	__aeabi_dmul
 1995              	.LVL149:
1297:HANcoder_E407_TTA_CombineModel.c **** 
 1996              		.loc 1 1297 12 view .LVU745
 1997 0590 BE4B     		ldr	r3, .L284+60
1291:HANcoder_E407_TTA_CombineModel.c ****       rtb_Switch1;
 1998              		.loc 1 1291 20 view .LVU746
 1999 0592 8246     		mov	r10, r0
 2000 0594 8B46     		mov	fp, r1
 2001              	.LVL150:
1297:HANcoder_E407_TTA_CombineModel.c **** 
 2002              		.loc 1 1297 5 is_stmt 1 view .LVU747
1297:HANcoder_E407_TTA_CombineModel.c **** 
 2003              		.loc 1 1297 12 is_stmt 0 view .LVU748
 2004 0596 C3E900AB 		strd	r10, [r3]
1302:HANcoder_E407_TTA_CombineModel.c **** 
 2005              		.loc 1 1302 5 is_stmt 1 view .LVU749
1302:HANcoder_E407_TTA_CombineModel.c **** 
 2006              		.loc 1 1302 9 is_stmt 0 view .LVU750
 2007 059a FFF7FEFF 		bl	sin
 2008              	.LVL151:
 2009 059e 41EC1B0B 		vmov	d11, r0, r1
 2010              	.LVL152:
1307:HANcoder_E407_TTA_CombineModel.c **** 
 2011              		.loc 1 1307 5 is_stmt 1 view .LVU751
1307:HANcoder_E407_TTA_CombineModel.c **** 
 2012              		.loc 1 1307 19 is_stmt 0 view .LVU752
 2013 05a2 5046     		mov	r0, r10
 2014              	.LVL153:
1307:HANcoder_E407_TTA_CombineModel.c **** 
 2015              		.loc 1 1307 19 view .LVU753
 2016 05a4 5946     		mov	r1, fp
 2017 05a6 FFF7FEFF 		bl	cos
 2018              	.LVL154:
1317:HANcoder_E407_TTA_CombineModel.c **** 
 2019              		.loc 1 1317 23 view .LVU754
 2020 05aa B94B     		ldr	r3, .L284+64
1307:HANcoder_E407_TTA_CombineModel.c **** 
 2021              		.loc 1 1307 19 view .LVU755
 2022 05ac 41EC1A0B 		vmov	d10, r0, r1
 2023              	.LVL155:
1317:HANcoder_E407_TTA_CombineModel.c **** 
 2024              		.loc 1 1317 5 is_stmt 1 view .LVU756
1317:HANcoder_E407_TTA_CombineModel.c **** 
 2025              		.loc 1 1317 23 is_stmt 0 view .LVU757
 2026 05b0 0022     		movs	r2, #0
 2027 05b2 4046     		mov	r0, r8
 2028              	.LVL156:
1317:HANcoder_E407_TTA_CombineModel.c **** 
 2029              		.loc 1 1317 23 view .LVU758
 2030 05b4 4946     		mov	r1, r9
 2031 05b6 FFF7FEFF 		bl	__aeabi_dmul
 2032              	.LVL157:
1317:HANcoder_E407_TTA_CombineModel.c **** 
 2033              		.loc 1 1317 29 view .LVU759
 2034 05ba 53EC1B2B 		vmov	r2, r3, d11
 2035 05be FFF7FEFF 		bl	__aeabi_dmul
 2036              	.LVL158:
1317:HANcoder_E407_TTA_CombineModel.c **** 
 2037              		.loc 1 1317 47 view .LVU760
 2038 05c2 A7A3     		adr	r3, .L284+16
 2039 05c4 D3E90023 		ldrd	r2, [r3]
1317:HANcoder_E407_TTA_CombineModel.c **** 
 2040              		.loc 1 1317 29 view .LVU761
 2041 05c8 41EC180B 		vmov	d8, r0, r1
1317:HANcoder_E407_TTA_CombineModel.c **** 
 2042              		.loc 1 1317 47 view .LVU762
 2043 05cc 51EC1A0B 		vmov	r0, r1, d10
 2044 05d0 FFF7FEFF 		bl	__aeabi_dmul
 2045              	.LVL159:
 2046 05d4 0246     		mov	r2, r0
 2047 05d6 0B46     		mov	r3, r1
1317:HANcoder_E407_TTA_CombineModel.c **** 
 2048              		.loc 1 1317 13 view .LVU763
 2049 05d8 51EC180B 		vmov	r0, r1, d8
 2050 05dc FFF7FEFF 		bl	__aeabi_dadd
 2051              	.LVL160:
1322:HANcoder_E407_TTA_CombineModel.c **** 
 2052              		.loc 1 1322 18 view .LVU764
 2053 05e0 5246     		mov	r2, r10
1317:HANcoder_E407_TTA_CombineModel.c **** 
 2054              		.loc 1 1317 13 view .LVU765
 2055 05e2 41EC190B 		vmov	d9, r0, r1
1322:HANcoder_E407_TTA_CombineModel.c **** 
 2056              		.loc 1 1322 18 view .LVU766
 2057 05e6 5B46     		mov	r3, fp
1317:HANcoder_E407_TTA_CombineModel.c **** 
 2058              		.loc 1 1317 13 view .LVU767
 2059 05e8 41EC1D0B 		vmov	d13, r0, r1
 2060              	.LVL161:
1322:HANcoder_E407_TTA_CombineModel.c **** 
 2061              		.loc 1 1322 5 is_stmt 1 view .LVU768
1322:HANcoder_E407_TTA_CombineModel.c **** 
 2062              		.loc 1 1322 18 is_stmt 0 view .LVU769
 2063 05ec 0020     		movs	r0, #0
 2064              	.LVL162:
1322:HANcoder_E407_TTA_CombineModel.c **** 
 2065              		.loc 1 1322 18 view .LVU770
 2066 05ee 0021     		movs	r1, #0
 2067 05f0 FFF7FEFF 		bl	__aeabi_dsub
 2068              	.LVL163:
1322:HANcoder_E407_TTA_CombineModel.c **** 
 2069              		.loc 1 1322 12 view .LVU771
 2070 05f4 A74B     		ldr	r3, .L284+68
 2071 05f6 C3E90001 		strd	r0, [r3]
1333:HANcoder_E407_TTA_CombineModel.c ****                       rtb_Sum) * (rtConstB.signV2 * rtConstB.signL0b);
 2072              		.loc 1 1333 5 is_stmt 1 view .LVU772
1334:HANcoder_E407_TTA_CombineModel.c **** 
 2073              		.loc 1 1334 51 is_stmt 0 view .LVU773
 2074 05fa A14B     		ldr	r3, .L284+48
1322:HANcoder_E407_TTA_CombineModel.c **** 
 2075              		.loc 1 1322 18 view .LVU774
 2076 05fc 41EC180B 		vmov	d8, r0, r1
1334:HANcoder_E407_TTA_CombineModel.c **** 
 2077              		.loc 1 1334 51 view .LVU775
 2078 0600 1946     		mov	r1, r3
 2079 0602 D1E90001 		ldrd	r0, [r1]
 2080 0606 D3E90223 		ldrd	r2, [r3, #8]
 2081 060a FFF7FEFF 		bl	__aeabi_dmul
 2082              	.LVL164:
1333:HANcoder_E407_TTA_CombineModel.c ****                       rtb_Sum) * (rtConstB.signV2 * rtConstB.signL0b);
 2083              		.loc 1 1333 69 view .LVU776
 2084 060e A04B     		ldr	r3, .L284+64
1334:HANcoder_E407_TTA_CombineModel.c **** 
 2085              		.loc 1 1334 51 view .LVU777
 2086 0610 8246     		mov	r10, r0
 2087              	.LVL165:
1334:HANcoder_E407_TTA_CombineModel.c **** 
 2088              		.loc 1 1334 51 view .LVU778
 2089 0612 8B46     		mov	fp, r1
1333:HANcoder_E407_TTA_CombineModel.c ****                       rtb_Sum) * (rtConstB.signV2 * rtConstB.signL0b);
 2090              		.loc 1 1333 69 view .LVU779
 2091 0614 0022     		movs	r2, #0
 2092 0616 51EC1A0B 		vmov	r0, r1, d10
 2093 061a FFF7FEFF 		bl	__aeabi_dmul
 2094              	.LVL166:
1333:HANcoder_E407_TTA_CombineModel.c ****                       rtb_Sum) * (rtConstB.signV2 * rtConstB.signL0b);
 2095              		.loc 1 1333 75 view .LVU780
 2096 061e 4246     		mov	r2, r8
 2097 0620 4B46     		mov	r3, r9
 2098 0622 FFF7FEFF 		bl	__aeabi_dmul
 2099              	.LVL167:
1333:HANcoder_E407_TTA_CombineModel.c ****                       rtb_Sum) * (rtConstB.signV2 * rtConstB.signL0b);
 2100              		.loc 1 1333 36 view .LVU781
 2101 0626 8EA3     		adr	r3, .L284+16
 2102 0628 D3E90023 		ldrd	r2, [r3]
1333:HANcoder_E407_TTA_CombineModel.c ****                       rtb_Sum) * (rtConstB.signV2 * rtConstB.signL0b);
 2103              		.loc 1 1333 75 view .LVU782
 2104 062c 8046     		mov	r8, r0
 2105              	.LVL168:
1333:HANcoder_E407_TTA_CombineModel.c ****                       rtb_Sum) * (rtConstB.signV2 * rtConstB.signL0b);
 2106              		.loc 1 1333 75 view .LVU783
 2107 062e 8946     		mov	r9, r1
1333:HANcoder_E407_TTA_CombineModel.c ****                       rtb_Sum) * (rtConstB.signV2 * rtConstB.signL0b);
 2108              		.loc 1 1333 36 view .LVU784
 2109 0630 51EC1B0B 		vmov	r0, r1, d11
 2110 0634 FFF7FEFF 		bl	__aeabi_dmul
 2111              	.LVL169:
 2112 0638 0246     		mov	r2, r0
 2113 063a 0B46     		mov	r3, r1
1333:HANcoder_E407_TTA_CombineModel.c ****                       rtb_Sum) * (rtConstB.signV2 * rtConstB.signL0b);
 2114              		.loc 1 1333 49 view .LVU785
 2115 063c 4046     		mov	r0, r8
 2116 063e 4946     		mov	r1, r9
 2117 0640 FFF7FEFF 		bl	__aeabi_dsub
 2118              	.LVL170:
 2119 0644 0246     		mov	r2, r0
 2120 0646 0B46     		mov	r3, r1
1333:HANcoder_E407_TTA_CombineModel.c ****                       rtb_Sum) * (rtConstB.signV2 * rtConstB.signL0b);
 2121              		.loc 1 1333 20 view .LVU786
 2122 0648 5046     		mov	r0, r10
 2123 064a 5946     		mov	r1, fp
 2124 064c FFF7FEFF 		bl	__aeabi_dmul
 2125              	.LVL171:
 2126 0650 8046     		mov	r8, r0
 2127 0652 8946     		mov	r9, r1
 2128              	.LVL172:
1339:HANcoder_E407_TTA_CombineModel.c **** 
 2129              		.loc 1 1339 5 is_stmt 1 view .LVU787
1339:HANcoder_E407_TTA_CombineModel.c **** 
 2130              		.loc 1 1339 15 is_stmt 0 view .LVU788
 2131 0654 51EC180B 		vmov	r0, r1, d8
 2132 0658 FFF7FEFF 		bl	sin
 2133              	.LVL173:
 2134 065c 0246     		mov	r2, r0
 2135 065e 0B46     		mov	r3, r1
1344:HANcoder_E407_TTA_CombineModel.c **** 
 2136              		.loc 1 1344 9 view .LVU789
 2137 0660 51EC180B 		vmov	r0, r1, d8
1339:HANcoder_E407_TTA_CombineModel.c **** 
 2138              		.loc 1 1339 15 view .LVU790
 2139 0664 43EC182B 		vmov	d8, r2, r3
 2140              	.LVL174:
1344:HANcoder_E407_TTA_CombineModel.c **** 
 2141              		.loc 1 1344 5 is_stmt 1 view .LVU791
1344:HANcoder_E407_TTA_CombineModel.c **** 
 2142              		.loc 1 1344 9 is_stmt 0 view .LVU792
 2143 0668 FFF7FEFF 		bl	cos
 2144              	.LVL175:
1347:HANcoder_E407_TTA_CombineModel.c ****       rtb_Uk1_tmp = -1.0;
 2145              		.loc 1 1347 8 view .LVU793
 2146 066c 0022     		movs	r2, #0
1344:HANcoder_E407_TTA_CombineModel.c **** 
 2147              		.loc 1 1344 9 view .LVU794
 2148 066e 41EC1A0B 		vmov	d10, r0, r1
 2149              	.LVL176:
1347:HANcoder_E407_TTA_CombineModel.c ****       rtb_Uk1_tmp = -1.0;
 2150              		.loc 1 1347 5 is_stmt 1 view .LVU795
1347:HANcoder_E407_TTA_CombineModel.c ****       rtb_Uk1_tmp = -1.0;
 2151              		.loc 1 1347 8 is_stmt 0 view .LVU796
 2152 0672 0023     		movs	r3, #0
 2153 0674 51EC190B 		vmov	r0, r1, d9
 2154              	.LVL177:
1347:HANcoder_E407_TTA_CombineModel.c ****       rtb_Uk1_tmp = -1.0;
 2155              		.loc 1 1347 8 view .LVU797
 2156 0678 FFF7FEFF 		bl	__aeabi_dcmplt
 2157              	.LVL178:
 2158 067c 0028     		cmp	r0, #0
 2159 067e 40F0AE83 		bne	.L177
1350:HANcoder_E407_TTA_CombineModel.c ****     }
 2160              		.loc 1 1350 7 is_stmt 1 view .LVU798
1350:HANcoder_E407_TTA_CombineModel.c ****     }
 2161              		.loc 1 1350 19 is_stmt 0 view .LVU799
 2162 0682 51EC190B 		vmov	r0, r1, d9
 2163 0686 0022     		movs	r2, #0
 2164 0688 0023     		movs	r3, #0
 2165 068a FFF7FEFF 		bl	__aeabi_dcmpgt
 2166              	.LVL179:
 2167 068e 4FF0000A 		mov	r10, #0
 2168 0692 0028     		cmp	r0, #0
 2169 0694 00F0B783 		beq	.L275
 2170 0698 DFF804B2 		ldr	fp, .L284+80
 2171              	.L111:
 2172              	.LVL180:
1371:HANcoder_E407_TTA_CombineModel.c ****                      rtb_Integrator) * (rtb_Uk1_tmp * rtConstB.signL0b_o) * 3.0 /
 2173              		.loc 1 1371 5 is_stmt 1 view .LVU800
1371:HANcoder_E407_TTA_CombineModel.c ****                      rtb_Integrator) * (rtb_Uk1_tmp * rtConstB.signL0b_o) * 3.0 /
 2174              		.loc 1 1371 65 is_stmt 0 view .LVU801
 2175 069c 7C4B     		ldr	r3, .L284+64
 2176 069e B0EE4ABA 		vmov.f32	s22, s20
 2177 06a2 F0EE6ABA 		vmov.f32	s23, s21
 2178 06a6 51EC1A0B 		vmov	r0, r1, d10
 2179 06aa 0022     		movs	r2, #0
 2180 06ac FFF7FEFF 		bl	__aeabi_dmul
 2181              	.LVL181:
1371:HANcoder_E407_TTA_CombineModel.c ****                      rtb_Integrator) * (rtb_Uk1_tmp * rtConstB.signL0b_o) * 3.0 /
 2182              		.loc 1 1371 71 view .LVU802
 2183 06b0 4246     		mov	r2, r8
 2184 06b2 4B46     		mov	r3, r9
 2185 06b4 FFF7FEFF 		bl	__aeabi_dmul
 2186              	.LVL182:
 2187 06b8 49EC1A8B 		vmov	d10, r8, r9
 2188              	.LVL183:
1371:HANcoder_E407_TTA_CombineModel.c ****                      rtb_Integrator) * (rtb_Uk1_tmp * rtConstB.signL0b_o) * 3.0 /
 2189              		.loc 1 1371 36 view .LVU803
 2190 06bc 53EC182B 		vmov	r2, r3, d8
1371:HANcoder_E407_TTA_CombineModel.c ****                      rtb_Integrator) * (rtb_Uk1_tmp * rtConstB.signL0b_o) * 3.0 /
 2191              		.loc 1 1371 71 view .LVU804
 2192 06c0 8046     		mov	r8, r0
 2193              	.LVL184:
1371:HANcoder_E407_TTA_CombineModel.c ****                      rtb_Integrator) * (rtb_Uk1_tmp * rtConstB.signL0b_o) * 3.0 /
 2194              		.loc 1 1371 71 view .LVU805
 2195 06c2 8946     		mov	r9, r1
1371:HANcoder_E407_TTA_CombineModel.c ****                      rtb_Integrator) * (rtb_Uk1_tmp * rtConstB.signL0b_o) * 3.0 /
 2196              		.loc 1 1371 36 view .LVU806
 2197 06c4 51EC1D0B 		vmov	r0, r1, d13
 2198 06c8 FFF7FEFF 		bl	__aeabi_dmul
 2199              	.LVL185:
 2200 06cc 0246     		mov	r2, r0
 2201 06ce 0B46     		mov	r3, r1
1371:HANcoder_E407_TTA_CombineModel.c ****                      rtb_Integrator) * (rtb_Uk1_tmp * rtConstB.signL0b_o) * 3.0 /
 2202              		.loc 1 1371 55 view .LVU807
 2203 06d0 4046     		mov	r0, r8
 2204 06d2 4946     		mov	r1, r9
 2205 06d4 FFF7FEFF 		bl	__aeabi_dsub
 2206              	.LVL186:
1372:HANcoder_E407_TTA_CombineModel.c ****                     (rtb_Integrator * 4.0 * rtb_Sum + z * rtb_Uk1)) * 45.6;
 2207              		.loc 1 1372 53 view .LVU808
 2208 06d8 694B     		ldr	r3, .L284+48
1371:HANcoder_E407_TTA_CombineModel.c ****                      rtb_Integrator) * (rtb_Uk1_tmp * rtConstB.signL0b_o) * 3.0 /
 2209              		.loc 1 1371 55 view .LVU809
 2210 06da 8046     		mov	r8, r0
1372:HANcoder_E407_TTA_CombineModel.c ****                     (rtb_Integrator * 4.0 * rtb_Sum + z * rtb_Uk1)) * 45.6;
 2211              		.loc 1 1372 53 view .LVU810
 2212 06dc D3E90623 		ldrd	r2, [r3, #24]
1371:HANcoder_E407_TTA_CombineModel.c ****                      rtb_Integrator) * (rtb_Uk1_tmp * rtConstB.signL0b_o) * 3.0 /
 2213              		.loc 1 1371 55 view .LVU811
 2214 06e0 8946     		mov	r9, r1
1372:HANcoder_E407_TTA_CombineModel.c ****                     (rtb_Integrator * 4.0 * rtb_Sum + z * rtb_Uk1)) * 45.6;
 2215              		.loc 1 1372 53 view .LVU812
 2216 06e2 5046     		mov	r0, r10
 2217 06e4 5946     		mov	r1, fp
 2218 06e6 FFF7FEFF 		bl	__aeabi_dmul
 2219              	.LVL187:
 2220 06ea 0246     		mov	r2, r0
 2221 06ec 0B46     		mov	r3, r1
1372:HANcoder_E407_TTA_CombineModel.c ****                     (rtb_Integrator * 4.0 * rtb_Sum + z * rtb_Uk1)) * 45.6;
 2222              		.loc 1 1372 38 view .LVU813
 2223 06ee 4046     		mov	r0, r8
 2224 06f0 4946     		mov	r1, r9
 2225 06f2 FFF7FEFF 		bl	__aeabi_dmul
 2226              	.LVL188:
1372:HANcoder_E407_TTA_CombineModel.c ****                     (rtb_Integrator * 4.0 * rtb_Sum + z * rtb_Uk1)) * 45.6;
 2227              		.loc 1 1372 75 view .LVU814
 2228 06f6 684B     		ldr	r3, .L284+72
 2229 06f8 0022     		movs	r2, #0
 2230 06fa FFF7FEFF 		bl	__aeabi_dmul
 2231              	.LVL189:
1373:HANcoder_E407_TTA_CombineModel.c **** 
 2232              		.loc 1 1373 37 view .LVU815
 2233 06fe 644B     		ldr	r3, .L284+64
1372:HANcoder_E407_TTA_CombineModel.c ****                     (rtb_Integrator * 4.0 * rtb_Sum + z * rtb_Uk1)) * 45.6;
 2234              		.loc 1 1372 75 view .LVU816
 2235 0700 8246     		mov	r10, r0
 2236              	.LVL190:
1372:HANcoder_E407_TTA_CombineModel.c ****                     (rtb_Integrator * 4.0 * rtb_Sum + z * rtb_Uk1)) * 45.6;
 2237              		.loc 1 1372 75 view .LVU817
 2238 0702 8B46     		mov	fp, r1
1373:HANcoder_E407_TTA_CombineModel.c **** 
 2239              		.loc 1 1373 37 view .LVU818
 2240 0704 0022     		movs	r2, #0
 2241 0706 51EC1A0B 		vmov	r0, r1, d10
 2242 070a FFF7FEFF 		bl	__aeabi_dmul
 2243              	.LVL191:
1373:HANcoder_E407_TTA_CombineModel.c **** 
 2244              		.loc 1 1373 43 view .LVU819
 2245 070e 53EC182B 		vmov	r2, r3, d8
 2246 0712 FFF7FEFF 		bl	__aeabi_dmul
 2247              	.LVL192:
1373:HANcoder_E407_TTA_CombineModel.c **** 
 2248              		.loc 1 1373 57 view .LVU820
 2249 0716 53EC1B2B 		vmov	r2, r3, d11
1373:HANcoder_E407_TTA_CombineModel.c **** 
 2250              		.loc 1 1373 43 view .LVU821
 2251 071a 8046     		mov	r8, r0
 2252 071c 8946     		mov	r9, r1
1373:HANcoder_E407_TTA_CombineModel.c **** 
 2253              		.loc 1 1373 57 view .LVU822
 2254 071e 51EC1D0B 		vmov	r0, r1, d13
 2255 0722 FFF7FEFF 		bl	__aeabi_dmul
 2256              	.LVL193:
 2257 0726 0246     		mov	r2, r0
 2258 0728 0B46     		mov	r3, r1
1373:HANcoder_E407_TTA_CombineModel.c **** 
 2259              		.loc 1 1373 53 view .LVU823
 2260 072a 4046     		mov	r0, r8
 2261 072c 4946     		mov	r1, r9
 2262 072e FFF7FEFF 		bl	__aeabi_dadd
 2263              	.LVL194:
 2264 0732 0246     		mov	r2, r0
 2265 0734 0B46     		mov	r3, r1
1371:HANcoder_E407_TTA_CombineModel.c ****                      rtb_Integrator) * (rtb_Uk1_tmp * rtConstB.signL0b_o) * 3.0 /
 2266              		.loc 1 1371 16 view .LVU824
 2267 0736 5046     		mov	r0, r10
 2268 0738 5946     		mov	r1, fp
 2269 073a FFF7FEFF 		bl	__aeabi_ddiv
 2270              	.LVL195:
 2271 073e FFF7FEFF 		bl	atan
 2272              	.LVL196:
1373:HANcoder_E407_TTA_CombineModel.c **** 
 2273              		.loc 1 1373 69 view .LVU825
 2274 0742 49A3     		adr	r3, .L284+24
 2275 0744 D3E90023 		ldrd	r2, [r3]
 2276 0748 FFF7FEFF 		bl	__aeabi_dmul
 2277              	.LVL197:
1371:HANcoder_E407_TTA_CombineModel.c ****                      rtb_Integrator) * (rtb_Uk1_tmp * rtConstB.signL0b_o) * 3.0 /
 2278              		.loc 1 1371 14 view .LVU826
 2279 074c 534B     		ldr	r3, .L284+76
 2280 074e C3E90001 		strd	r0, [r3]
1377:HANcoder_E407_TTA_CombineModel.c ****       QuadEncResetCounter(QUADENC_TIM3_PA6_PB5);
 2281              		.loc 1 1377 5 is_stmt 1 view .LVU827
1377:HANcoder_E407_TTA_CombineModel.c ****       QuadEncResetCounter(QUADENC_TIM3_PA6_PB5);
 2282              		.loc 1 1377 8 is_stmt 0 view .LVU828
 2283 0752 BB79     		ldrb	r3, [r7, #6]	@ zero_extendqisi2
 2284 0754 002B     		cmp	r3, #0
 2285 0756 40F04E83 		bne	.L276
 2286              	.L112:
1382:HANcoder_E407_TTA_CombineModel.c **** 
 2287              		.loc 1 1382 5 is_stmt 1 view .LVU829
1382:HANcoder_E407_TTA_CombineModel.c **** 
 2288              		.loc 1 1382 34 is_stmt 0 view .LVU830
 2289 075a 0120     		movs	r0, #1
 2290 075c FFF7FEFF 		bl	QuadEncGetCounter
 2291              	.LVL198:
1387:HANcoder_E407_TTA_CombineModel.c ****       rtDWork.obj.TunablePropsChanged = false;
 2292              		.loc 1 1387 8 view .LVU831
 2293 0760 637A     		ldrb	r3, [r4, #9]	@ zero_extendqisi2
1382:HANcoder_E407_TTA_CombineModel.c **** 
 2294              		.loc 1 1382 34 view .LVU832
 2295 0762 8346     		mov	fp, r0
 2296              	.LVL199:
1387:HANcoder_E407_TTA_CombineModel.c ****       rtDWork.obj.TunablePropsChanged = false;
 2297              		.loc 1 1387 5 is_stmt 1 view .LVU833
1387:HANcoder_E407_TTA_CombineModel.c ****       rtDWork.obj.TunablePropsChanged = false;
 2298              		.loc 1 1387 8 is_stmt 0 view .LVU834
 2299 0764 0BB1     		cbz	r3, .L113
1388:HANcoder_E407_TTA_CombineModel.c ****     }
 2300              		.loc 1 1388 7 is_stmt 1 view .LVU835
1388:HANcoder_E407_TTA_CombineModel.c ****     }
 2301              		.loc 1 1388 39 is_stmt 0 view .LVU836
 2302 0766 0023     		movs	r3, #0
 2303 0768 6372     		strb	r3, [r4, #9]
 2304              	.L113:
1391:HANcoder_E407_TTA_CombineModel.c ****     if (obj->isInitialized != 1) {
 2305              		.loc 1 1391 5 is_stmt 1 view .LVU837
1391:HANcoder_E407_TTA_CombineModel.c ****     if (obj->isInitialized != 1) {
 2306              		.loc 1 1391 9 is_stmt 0 view .LVU838
 2307 076a D4F82CA0 		ldr	r10, [r4, #44]
 2308              	.LVL200:
1392:HANcoder_E407_TTA_CombineModel.c ****       obj->isSetupComplete = false;
 2309              		.loc 1 1392 5 is_stmt 1 view .LVU839
1392:HANcoder_E407_TTA_CombineModel.c ****       obj->isSetupComplete = false;
 2310              		.loc 1 1392 8 is_stmt 0 view .LVU840
 2311 076e DAF80030 		ldr	r3, [r10]
 2312 0772 012B     		cmp	r3, #1
 2313 0774 00F0F882 		beq	.L277
1393:HANcoder_E407_TTA_CombineModel.c ****       obj->isInitialized = 1;
 2314              		.loc 1 1393 7 is_stmt 1 view .LVU841
1394:HANcoder_E407_TTA_CombineModel.c ****       obj->pCumSum = 0.0;
 2315              		.loc 1 1394 7 view .LVU842
1394:HANcoder_E407_TTA_CombineModel.c ****       obj->pCumSum = 0.0;
 2316              		.loc 1 1394 26 is_stmt 0 view .LVU843
 2317 0778 0123     		movs	r3, #1
1412:HANcoder_E407_TTA_CombineModel.c ****     csumrev[1] = obj->pCumSumRev[1];
 2318              		.loc 1 1412 16 view .LVU844
 2319 077a 4FF00008 		mov	r8, #0
 2320 077e 4FF00009 		mov	r9, #0
1418:HANcoder_E407_TTA_CombineModel.c ****     if (rtb_Sum == 0.0) {
 2321              		.loc 1 1418 16 view .LVU845
 2322 0782 5846     		mov	r0, fp
 2323              	.LVL201:
1394:HANcoder_E407_TTA_CombineModel.c ****       obj->pCumSum = 0.0;
 2324              		.loc 1 1394 26 view .LVU846
 2325 0784 CAF80030 		str	r3, [r10]
1395:HANcoder_E407_TTA_CombineModel.c ****       obj->pCumSumRev[0] = 0.0;
 2326              		.loc 1 1395 7 is_stmt 1 view .LVU847
1396:HANcoder_E407_TTA_CombineModel.c ****       obj->pCumSumRev[1] = 0.0;
 2327              		.loc 1 1396 7 view .LVU848
1397:HANcoder_E407_TTA_CombineModel.c ****       obj->pCumSumRev[2] = 0.0;
 2328              		.loc 1 1397 7 view .LVU849
1398:HANcoder_E407_TTA_CombineModel.c ****       obj->pCumRevIndex = 1.0;
 2329              		.loc 1 1398 7 view .LVU850
1399:HANcoder_E407_TTA_CombineModel.c ****       obj->pModValueRev = 0.0;
 2330              		.loc 1 1399 7 view .LVU851
1400:HANcoder_E407_TTA_CombineModel.c ****       obj->isSetupComplete = true;
 2331              		.loc 1 1400 7 view .LVU852
1401:HANcoder_E407_TTA_CombineModel.c ****       obj->pCumSum = 0.0;
 2332              		.loc 1 1401 7 view .LVU853
1401:HANcoder_E407_TTA_CombineModel.c ****       obj->pCumSum = 0.0;
 2333              		.loc 1 1401 28 is_stmt 0 view .LVU854
 2334 0788 8AF80430 		strb	r3, [r10, #4]
1402:HANcoder_E407_TTA_CombineModel.c ****       obj->pCumSumRev[0] = 0.0;
 2335              		.loc 1 1402 7 is_stmt 1 view .LVU855
1403:HANcoder_E407_TTA_CombineModel.c ****       obj->pCumSumRev[1] = 0.0;
 2336              		.loc 1 1403 7 view .LVU856
1404:HANcoder_E407_TTA_CombineModel.c ****       obj->pCumSumRev[2] = 0.0;
 2337              		.loc 1 1404 7 view .LVU857
1405:HANcoder_E407_TTA_CombineModel.c ****       obj->pCumRevIndex = 1.0;
 2338              		.loc 1 1405 7 view .LVU858
1406:HANcoder_E407_TTA_CombineModel.c ****       obj->pModValueRev = 0.0;
 2339              		.loc 1 1406 7 view .LVU859
1407:HANcoder_E407_TTA_CombineModel.c ****     }
 2340              		.loc 1 1407 7 view .LVU860
1410:HANcoder_E407_TTA_CombineModel.c ****     rtb_Uk1 = obj->pCumSum;
 2341              		.loc 1 1410 5 view .LVU861
 2342              	.LVL202:
1411:HANcoder_E407_TTA_CombineModel.c ****     csumrev[0] = obj->pCumSumRev[0];
 2343              		.loc 1 1411 5 view .LVU862
1412:HANcoder_E407_TTA_CombineModel.c ****     csumrev[1] = obj->pCumSumRev[1];
 2344              		.loc 1 1412 5 view .LVU863
1412:HANcoder_E407_TTA_CombineModel.c ****     csumrev[1] = obj->pCumSumRev[1];
 2345              		.loc 1 1412 16 is_stmt 0 view .LVU864
 2346 078c CDE91489 		strd	r8, [sp, #80]
1413:HANcoder_E407_TTA_CombineModel.c ****     csumrev[2] = obj->pCumSumRev[2];
 2347              		.loc 1 1413 5 is_stmt 1 view .LVU865
1413:HANcoder_E407_TTA_CombineModel.c ****     csumrev[2] = obj->pCumSumRev[2];
 2348              		.loc 1 1413 16 is_stmt 0 view .LVU866
 2349 0790 CDE91689 		strd	r8, [sp, #88]
1414:HANcoder_E407_TTA_CombineModel.c ****     rtb_Sum = obj->pModValueRev;
 2350              		.loc 1 1414 5 is_stmt 1 view .LVU867
1414:HANcoder_E407_TTA_CombineModel.c ****     rtb_Sum = obj->pModValueRev;
 2351              		.loc 1 1414 16 is_stmt 0 view .LVU868
 2352 0794 CDE91889 		strd	r8, [sp, #96]
1415:HANcoder_E407_TTA_CombineModel.c ****     z = 0.0;
 2353              		.loc 1 1415 5 is_stmt 1 view .LVU869
 2354              	.LVL203:
1416:HANcoder_E407_TTA_CombineModel.c ****     rtb_Uk1_tmp = 0.0;
 2355              		.loc 1 1416 5 view .LVU870
1417:HANcoder_E407_TTA_CombineModel.c ****     rtb_Uk1 += (real_T)rtb_Level2MfileSFunction_k;
 2356              		.loc 1 1417 5 view .LVU871
1418:HANcoder_E407_TTA_CombineModel.c ****     if (rtb_Sum == 0.0) {
 2357              		.loc 1 1418 5 view .LVU872
1418:HANcoder_E407_TTA_CombineModel.c ****     if (rtb_Sum == 0.0) {
 2358              		.loc 1 1418 16 is_stmt 0 view .LVU873
 2359 0798 FFF7FEFF 		bl	__aeabi_i2d
 2360              	.LVL204:
1418:HANcoder_E407_TTA_CombineModel.c ****     if (rtb_Sum == 0.0) {
 2361              		.loc 1 1418 16 view .LVU874
 2362 079c 0246     		mov	r2, r0
 2363 079e 0B46     		mov	r3, r1
 2364 07a0 CDE90823 		strd	r2, [sp, #32]
1418:HANcoder_E407_TTA_CombineModel.c ****     if (rtb_Sum == 0.0) {
 2365              		.loc 1 1418 13 view .LVU875
 2366 07a4 4246     		mov	r2, r8
 2367 07a6 4B46     		mov	r3, r9
 2368 07a8 FFF7FEFF 		bl	__aeabi_dadd
 2369              	.LVL205:
 2370 07ac CDE90601 		strd	r0, [sp, #24]
 2371              	.LVL206:
1419:HANcoder_E407_TTA_CombineModel.c ****       z = csumrev[(int32_T)rtb_Integrator - 1] + rtb_Uk1;
 2372              		.loc 1 1419 5 is_stmt 1 view .LVU876
1418:HANcoder_E407_TTA_CombineModel.c ****     if (rtb_Sum == 0.0) {
 2373              		.loc 1 1418 13 is_stmt 0 view .LVU877
 2374 07b0 49EC188B 		vmov	d8, r8, r9
 2375 07b4 DFF8E890 		ldr	r9, .L284+80
 2376 07b8 4FF0000B 		mov	fp, #0
 2377              	.LVL207:
1418:HANcoder_E407_TTA_CombineModel.c ****     if (rtb_Sum == 0.0) {
 2378              		.loc 1 1418 13 view .LVU878
 2379 07bc 4FF00008 		mov	r8, #0
 2380              	.LVL208:
 2381              	.L115:
1420:HANcoder_E407_TTA_CombineModel.c ****     }
 2382              		.loc 1 1420 7 is_stmt 1 view .LVU879
1420:HANcoder_E407_TTA_CombineModel.c ****     }
 2383              		.loc 1 1420 18 is_stmt 0 view .LVU880
 2384 07c0 1AAB     		add	r3, sp, #104
 2385 07c2 03EBCB03 		add	r3, r3, fp, lsl #3
1420:HANcoder_E407_TTA_CombineModel.c ****     }
 2386              		.loc 1 1420 9 view .LVU881
 2387 07c6 53E90623 		ldrd	r2, [r3, #-24]
 2388 07ca DDE90601 		ldrd	r0, [sp, #24]
 2389 07ce FFF7FEFF 		bl	__aeabi_dadd
 2390              	.LVL209:
1420:HANcoder_E407_TTA_CombineModel.c ****     }
 2391              		.loc 1 1420 9 view .LVU882
 2392 07d2 CDE91001 		strd	r0, [sp, #64]
 2393              	.LVL210:
1420:HANcoder_E407_TTA_CombineModel.c ****     }
 2394              		.loc 1 1420 18 view .LVU883
 2395 07d6 4FEACB0B 		lsl	fp, fp, #3
 2396              	.LVL211:
 2397              	.L116:
1423:HANcoder_E407_TTA_CombineModel.c ****     if (rtb_Integrator != 3.0) {
 2398              		.loc 1 1423 5 is_stmt 1 view .LVU884
1423:HANcoder_E407_TTA_CombineModel.c ****     if (rtb_Integrator != 3.0) {
 2399              		.loc 1 1423 42 is_stmt 0 view .LVU885
 2400 07da 9DED087B 		vldr.64	d7, [sp, #32]
 2401 07de 0BF16803 		add	r3, fp, #104
 2402 07e2 0DEB030B 		add	fp, sp, r3
 2403 07e6 0BED067B 		vstr.64	d7, [fp, #-24]
1424:HANcoder_E407_TTA_CombineModel.c ****       rtb_Integrator++;
 2404              		.loc 1 1424 5 is_stmt 1 view .LVU886
1424:HANcoder_E407_TTA_CombineModel.c ****       rtb_Integrator++;
 2405              		.loc 1 1424 8 is_stmt 0 view .LVU887
 2406 07ea 2B4B     		ldr	r3, .L284+72
 2407 07ec 0022     		movs	r2, #0
 2408 07ee 4046     		mov	r0, r8
 2409 07f0 4946     		mov	r1, r9
 2410 07f2 FFF7FEFF 		bl	__aeabi_dcmpeq
 2411              	.LVL212:
 2412 07f6 0028     		cmp	r0, #0
 2413 07f8 40F09982 		bne	.L253
1425:HANcoder_E407_TTA_CombineModel.c ****     } else {
 2414              		.loc 1 1425 7 is_stmt 1 view .LVU888
1425:HANcoder_E407_TTA_CombineModel.c ****     } else {
 2415              		.loc 1 1425 21 is_stmt 0 view .LVU889
 2416 07fc 284B     		ldr	r3, .L284+80
 2417 07fe 4046     		mov	r0, r8
 2418 0800 4946     		mov	r1, r9
 2419 0802 0022     		movs	r2, #0
 2420 0804 FFF7FEFF 		bl	__aeabi_dadd
 2421              	.LVL213:
1429:HANcoder_E407_TTA_CombineModel.c ****       csumrev[0] += csumrev[1];
 2422              		.loc 1 1429 28 view .LVU890
 2423 0808 9DED187B 		vldr.64	d7, [sp, #96]
 2424 080c 8DED087B 		vstr.64	d7, [sp, #32]
1438:HANcoder_E407_TTA_CombineModel.c ****     obj->pCumSumRev[1] = csumrev[1];
 2425              		.loc 1 1438 33 view .LVU891
 2426 0810 9DED147B 		vldr.64	d7, [sp, #80]
 2427 0814 8DED0C7B 		vstr.64	d7, [sp, #48]
1439:HANcoder_E407_TTA_CombineModel.c ****     obj->pCumSumRev[2] = csumrev[2];
 2428              		.loc 1 1439 33 view .LVU892
 2429 0818 9DED167B 		vldr.64	d7, [sp, #88]
1425:HANcoder_E407_TTA_CombineModel.c ****     } else {
 2430              		.loc 1 1425 21 view .LVU893
 2431 081c CDE90A01 		strd	r0, [sp, #40]
 2432              	.LVL214:
1439:HANcoder_E407_TTA_CombineModel.c ****     obj->pCumSumRev[2] = csumrev[2];
 2433              		.loc 1 1439 33 view .LVU894
 2434 0820 8DED0E7B 		vstr.64	d7, [sp, #56]
 2435              	.LVL215:
 2436              	.L119:
1433:HANcoder_E407_TTA_CombineModel.c ****       rtb_Uk1_tmp = z / 4.0;
 2437              		.loc 1 1433 5 is_stmt 1 view .LVU895
1433:HANcoder_E407_TTA_CombineModel.c ****       rtb_Uk1_tmp = z / 4.0;
 2438              		.loc 1 1433 8 is_stmt 0 view .LVU896
 2439 0824 51EC180B 		vmov	r0, r1, d8
 2440 0828 0022     		movs	r2, #0
 2441 082a 0023     		movs	r3, #0
 2442 082c FFF7FEFF 		bl	__aeabi_dcmpeq
 2443              	.LVL216:
 2444 0830 0028     		cmp	r0, #0
 2445 0832 00F07582 		beq	.L254
1434:HANcoder_E407_TTA_CombineModel.c ****     }
 2446              		.loc 1 1434 7 is_stmt 1 view .LVU897
 2447              	.LVL217:
1434:HANcoder_E407_TTA_CombineModel.c ****     }
 2448              		.loc 1 1434 19 is_stmt 0 view .LVU898
 2449 0836 DDE91001 		ldrd	r0, [sp, #64]
 2450 083a 124B     		ldr	r3, .L284+52
 2451 083c 0022     		movs	r2, #0
 2452 083e FFF7FEFF 		bl	__aeabi_dmul
 2453              	.LVL218:
1451:HANcoder_E407_TTA_CombineModel.c **** 
 2454              		.loc 1 1451 37 view .LVU899
 2455 0842 0BA3     		adr	r3, .L284+32
 2456 0844 D3E90023 		ldrd	r2, [r3]
 2457 0848 FFF7FEFF 		bl	__aeabi_dmul
 2458              	.LVL219:
 2459 084c 2AE0     		b	.L285
 2460              	.L286:
 2461 084e 00BF     		.align	3
 2462              	.L284:
 2463 0850 00000040 		.word	1073741824
 2464 0854 1BB98E3F 		.word	1066318107
 2465 0858 00000000 		.word	0
 2466 085c 20B98E3F 		.word	1066318112
 2467 0860 00000040 		.word	1073741824
 2468 0864 EF38F63F 		.word	1073101039
 2469 0868 000000C0 		.word	-1073741824
 2470 086c CCCC4640 		.word	1078381772
 2471 0870 00000060 		.word	1610612736
 2472 0874 68F9953F 		.word	1066793320
 2473 0878 00000000 		.word	.LANCHOR26
 2474 087c 00000000 		.word	.LANCHOR27
 2475 0880 00000000 		.word	rtConstB
 2476 0884 0000D03F 		.word	1070596096
 2477 0888 00000000 		.word	.LANCHOR28
 2478 088c 00000000 		.word	.LANCHOR29
 2479 0890 00001040 		.word	1074790400
 2480 0894 00000000 		.word	.LANCHOR30
 2481 0898 00000840 		.word	1074266112
 2482 089c 00000000 		.word	.LANCHOR31
 2483 08a0 0000F03F 		.word	1072693248
 2484              	.L285:
 2485 08a4 0246     		mov	r2, r0
 2486 08a6 0B46     		mov	r3, r1
 2487 08a8 CDE91023 		strd	r2, [sp, #64]
 2488              	.LVL220:
1457:HANcoder_E407_TTA_CombineModel.c **** 
 2489              		.loc 1 1457 33 view .LVU900
 2490 08ac FFF7FEFF 		bl	floor
 2491              	.LVL221:
 2492 08b0 8046     		mov	r8, r0
 2493 08b2 8946     		mov	r9, r1
 2494              	.L120:
1437:HANcoder_E407_TTA_CombineModel.c ****     obj->pCumSumRev[0] = csumrev[0];
 2495              		.loc 1 1437 5 is_stmt 1 view .LVU901
1437:HANcoder_E407_TTA_CombineModel.c ****     obj->pCumSumRev[0] = csumrev[0];
 2496              		.loc 1 1437 18 is_stmt 0 view .LVU902
 2497 08b4 9DED067B 		vldr.64	d7, [sp, #24]
 2498 08b8 8AED027B 		vstr.64	d7, [r10, #8]
1438:HANcoder_E407_TTA_CombineModel.c ****     obj->pCumSumRev[1] = csumrev[1];
 2499              		.loc 1 1438 5 is_stmt 1 view .LVU903
1438:HANcoder_E407_TTA_CombineModel.c ****     obj->pCumSumRev[1] = csumrev[1];
 2500              		.loc 1 1438 24 is_stmt 0 view .LVU904
 2501 08bc 9DED0C7B 		vldr.64	d7, [sp, #48]
 2502 08c0 8AED047B 		vstr.64	d7, [r10, #16]
1439:HANcoder_E407_TTA_CombineModel.c ****     obj->pCumSumRev[2] = csumrev[2];
 2503              		.loc 1 1439 5 is_stmt 1 view .LVU905
1439:HANcoder_E407_TTA_CombineModel.c ****     obj->pCumSumRev[2] = csumrev[2];
 2504              		.loc 1 1439 24 is_stmt 0 view .LVU906
 2505 08c4 9DED0E7B 		vldr.64	d7, [sp, #56]
 2506 08c8 8AED067B 		vstr.64	d7, [r10, #24]
1440:HANcoder_E407_TTA_CombineModel.c ****     obj->pCumRevIndex = rtb_Integrator;
 2507              		.loc 1 1440 5 is_stmt 1 view .LVU907
1440:HANcoder_E407_TTA_CombineModel.c ****     obj->pCumRevIndex = rtb_Integrator;
 2508              		.loc 1 1440 24 is_stmt 0 view .LVU908
 2509 08cc 9DED087B 		vldr.64	d7, [sp, #32]
 2510 08d0 8AED087B 		vstr.64	d7, [r10, #32]
1441:HANcoder_E407_TTA_CombineModel.c ****     if (rtb_Sum > 0.0) {
 2511              		.loc 1 1441 5 is_stmt 1 view .LVU909
1441:HANcoder_E407_TTA_CombineModel.c ****     if (rtb_Sum > 0.0) {
 2512              		.loc 1 1441 23 is_stmt 0 view .LVU910
 2513 08d4 9DED0A7B 		vldr.64	d7, [sp, #40]
1442:HANcoder_E407_TTA_CombineModel.c ****       obj->pModValueRev = rtb_Sum - 1.0;
 2514              		.loc 1 1442 8 view .LVU911
 2515 08d8 51EC180B 		vmov	r0, r1, d8
1441:HANcoder_E407_TTA_CombineModel.c ****     if (rtb_Sum > 0.0) {
 2516              		.loc 1 1441 23 view .LVU912
 2517 08dc 8AED0A7B 		vstr.64	d7, [r10, #40]
1442:HANcoder_E407_TTA_CombineModel.c ****       obj->pModValueRev = rtb_Sum - 1.0;
 2518              		.loc 1 1442 5 is_stmt 1 view .LVU913
1442:HANcoder_E407_TTA_CombineModel.c ****       obj->pModValueRev = rtb_Sum - 1.0;
 2519              		.loc 1 1442 8 is_stmt 0 view .LVU914
 2520 08e0 0022     		movs	r2, #0
 2521 08e2 0023     		movs	r3, #0
 2522 08e4 FFF7FEFF 		bl	__aeabi_dcmpgt
 2523              	.LVL222:
 2524 08e8 0028     		cmp	r0, #0
 2525 08ea 00F07582 		beq	.L255
1443:HANcoder_E407_TTA_CombineModel.c ****     } else {
 2526              		.loc 1 1443 7 is_stmt 1 view .LVU915
1443:HANcoder_E407_TTA_CombineModel.c ****     } else {
 2527              		.loc 1 1443 35 is_stmt 0 view .LVU916
 2528 08ee 51EC180B 		vmov	r0, r1, d8
 2529 08f2 B54B     		ldr	r3, .L287+8
 2530 08f4 0022     		movs	r2, #0
 2531 08f6 FFF7FEFF 		bl	__aeabi_dsub
 2532              	.LVL223:
 2533              	.L122:
1451:HANcoder_E407_TTA_CombineModel.c **** 
 2534              		.loc 1 1451 14 view .LVU917
 2535 08fa 9DED107B 		vldr.64	d7, [sp, #64]
 2536 08fe B34B     		ldr	r3, .L287+12
 2537 0900 83ED007B 		vstr.64	d7, [r3]
1457:HANcoder_E407_TTA_CombineModel.c **** 
 2538              		.loc 1 1457 15 view .LVU918
 2539 0904 B24B     		ldr	r3, .L287+16
 2540 0906 CAE90C01 		strd	r0, [r10, #48]
1451:HANcoder_E407_TTA_CombineModel.c **** 
 2541              		.loc 1 1451 5 is_stmt 1 view .LVU919
1457:HANcoder_E407_TTA_CombineModel.c **** 
 2542              		.loc 1 1457 5 view .LVU920
1457:HANcoder_E407_TTA_CombineModel.c **** 
 2543              		.loc 1 1457 15 is_stmt 0 view .LVU921
 2544 090a D3E90001 		ldrd	r0, [r3]
 2545 090e FFF7FEFF 		bl	floor
 2546              	.LVL224:
1457:HANcoder_E407_TTA_CombineModel.c **** 
 2547              		.loc 1 1457 31 view .LVU922
 2548 0912 4246     		mov	r2, r8
 2549 0914 4B46     		mov	r3, r9
 2550 0916 FFF7FEFF 		bl	__aeabi_dsub
 2551              	.LVL225:
1457:HANcoder_E407_TTA_CombineModel.c **** 
 2552              		.loc 1 1457 13 view .LVU923
 2553 091a AE4A     		ldr	r2, .L287+20
1468:HANcoder_E407_TTA_CombineModel.c **** 
 2554              		.loc 1 1468 38 view .LVU924
 2555 091c AE4B     		ldr	r3, .L287+24
1457:HANcoder_E407_TTA_CombineModel.c **** 
 2556              		.loc 1 1457 31 view .LVU925
 2557 091e 8046     		mov	r8, r0
 2558 0920 8946     		mov	r9, r1
1460:HANcoder_E407_TTA_CombineModel.c **** 
 2559              		.loc 1 1460 13 view .LVU926
 2560 0922 21F0004B 		bic	fp, r1, #-2147483648
1457:HANcoder_E407_TTA_CombineModel.c **** 
 2561              		.loc 1 1457 13 view .LVU927
 2562 0926 C2E90089 		strd	r8, [r2]
1460:HANcoder_E407_TTA_CombineModel.c **** 
 2563              		.loc 1 1460 5 is_stmt 1 view .LVU928
1468:HANcoder_E407_TTA_CombineModel.c **** 
 2564              		.loc 1 1468 38 is_stmt 0 view .LVU929
 2565 092a 5946     		mov	r1, fp
 2566 092c D3E90023 		ldrd	r2, [r3]
1460:HANcoder_E407_TTA_CombineModel.c **** 
 2567              		.loc 1 1460 13 view .LVU930
 2568 0930 8246     		mov	r10, r0
 2569              	.LVL226:
1468:HANcoder_E407_TTA_CombineModel.c **** 
 2570              		.loc 1 1468 5 is_stmt 1 view .LVU931
1473:HANcoder_E407_TTA_CombineModel.c **** 
 2571              		.loc 1 1473 5 view .LVU932
1468:HANcoder_E407_TTA_CombineModel.c **** 
 2572              		.loc 1 1468 38 is_stmt 0 view .LVU933
 2573 0932 FFF7FEFF 		bl	__aeabi_dmul
 2574              	.LVL227:
1468:HANcoder_E407_TTA_CombineModel.c **** 
 2575              		.loc 1 1468 48 view .LVU934
 2576 0936 D4E91C23 		ldrd	r2, [r4, #112]
 2577 093a FFF7FEFF 		bl	__aeabi_dadd
 2578              	.LVL228:
1468:HANcoder_E407_TTA_CombineModel.c **** 
 2579              		.loc 1 1468 17 view .LVU935
 2580 093e FFF7FEFF 		bl	__aeabi_d2uiz
 2581              	.LVL229:
1473:HANcoder_E407_TTA_CombineModel.c **** 
 2582              		.loc 1 1473 13 view .LVU936
 2583 0942 A64B     		ldr	r3, .L287+28
1473:HANcoder_E407_TTA_CombineModel.c **** 
 2584              		.loc 1 1473 15 view .LVU937
 2585 0944 00F59670 		add	r0, r0, #300
1473:HANcoder_E407_TTA_CombineModel.c **** 
 2586              		.loc 1 1473 13 view .LVU938
 2587 0948 1880     		strh	r0, [r3]	@ movhi
1479:HANcoder_E407_TTA_CombineModel.c **** 
 2588              		.loc 1 1479 5 is_stmt 1 view .LVU939
1479:HANcoder_E407_TTA_CombineModel.c **** 
 2589              		.loc 1 1479 43 is_stmt 0 view .LVU940
 2590 094a 4946     		mov	r1, r9
 2591 094c 0022     		movs	r2, #0
 2592 094e 0023     		movs	r3, #0
 2593 0950 4046     		mov	r0, r8
 2594 0952 FFF7FEFF 		bl	__aeabi_dcmpgt
 2595              	.LVL230:
1482:HANcoder_E407_TTA_CombineModel.c **** 
 2596              		.loc 1 1482 8 view .LVU941
 2597 0956 A24B     		ldr	r3, .L287+32
1479:HANcoder_E407_TTA_CombineModel.c **** 
 2598              		.loc 1 1479 43 view .LVU942
 2599 0958 0038     		subs	r0, r0, #0
 2600 095a 18BF     		it	ne
 2601 095c 0120     		movne	r0, #1
 2602              	.LVL231:
1482:HANcoder_E407_TTA_CombineModel.c **** 
 2603              		.loc 1 1482 5 is_stmt 1 view .LVU943
1482:HANcoder_E407_TTA_CombineModel.c **** 
 2604              		.loc 1 1482 8 is_stmt 0 view .LVU944
 2605 095e 1870     		strb	r0, [r3]
1485:HANcoder_E407_TTA_CombineModel.c **** 
 2606              		.loc 1 1485 5 is_stmt 1 view .LVU945
1485:HANcoder_E407_TTA_CombineModel.c **** 
 2607              		.loc 1 1485 9 is_stmt 0 view .LVU946
 2608 0960 A04B     		ldr	r3, .L287+36
 2609 0962 80F00100 		eor	r0, r0, #1
 2610              	.LVL232:
1495:HANcoder_E407_TTA_CombineModel.c **** 
 2611              		.loc 1 1495 58 view .LVU947
 2612 0966 0022     		movs	r2, #0
1485:HANcoder_E407_TTA_CombineModel.c **** 
 2613              		.loc 1 1485 9 view .LVU948
 2614 0968 1870     		strb	r0, [r3]
1495:HANcoder_E407_TTA_CombineModel.c **** 
 2615              		.loc 1 1495 5 is_stmt 1 view .LVU949
1495:HANcoder_E407_TTA_CombineModel.c **** 
 2616              		.loc 1 1495 58 is_stmt 0 view .LVU950
 2617 096a 0023     		movs	r3, #0
 2618 096c D4E91E01 		ldrd	r0, [r4, #120]
 2619 0970 FFF7FEFF 		bl	__aeabi_dcmplt
 2620              	.LVL233:
1495:HANcoder_E407_TTA_CombineModel.c **** 
 2621              		.loc 1 1495 58 view .LVU951
 2622 0974 0038     		subs	r0, r0, #0
 2623 0976 18BF     		it	ne
 2624 0978 0120     		movne	r0, #1
1495:HANcoder_E407_TTA_CombineModel.c **** 
 2625              		.loc 1 1495 28 view .LVU952
 2626 097a B871     		strb	r0, [r7, #6]
1499:HANcoder_E407_TTA_CombineModel.c **** 
 2627              		.loc 1 1499 5 is_stmt 1 view .LVU953
1499:HANcoder_E407_TTA_CombineModel.c **** 
 2628              		.loc 1 1499 19 is_stmt 0 view .LVU954
 2629 097c 0021     		movs	r1, #0
 2630 097e 0720     		movs	r0, #7
 2631 0980 FFF7FEFF 		bl	AninGet
 2632              	.LVL234:
1503:HANcoder_E407_TTA_CombineModel.c **** 
 2633              		.loc 1 1503 5 is_stmt 1 view .LVU955
1503:HANcoder_E407_TTA_CombineModel.c **** 
 2634              		.loc 1 1503 34 is_stmt 0 view .LVU956
 2635 0984 0021     		movs	r1, #0
 2636 0986 0520     		movs	r0, #5
 2637 0988 FFF7FEFF 		bl	AninGet
 2638              	.LVL235:
1513:HANcoder_E407_TTA_CombineModel.c ****       /* DataStoreWrite: '<S133>/Data Store Write' */
 2639              		.loc 1 1513 8 view .LVU957
 2640 098c 964B     		ldr	r3, .L287+40
 2641 098e 1B78     		ldrb	r3, [r3]	@ zero_extendqisi2
 2642              	.LVL236:
1513:HANcoder_E407_TTA_CombineModel.c ****       /* DataStoreWrite: '<S133>/Data Store Write' */
 2643              		.loc 1 1513 5 is_stmt 1 view .LVU958
1513:HANcoder_E407_TTA_CombineModel.c ****       /* DataStoreWrite: '<S133>/Data Store Write' */
 2644              		.loc 1 1513 8 is_stmt 0 view .LVU959
 2645 0990 052B     		cmp	r3, #5
1515:HANcoder_E407_TTA_CombineModel.c **** 
 2646              		.loc 1 1515 7 is_stmt 1 view .LVU960
1532:HANcoder_E407_TTA_CombineModel.c ****       /* DataStoreWrite: '<S134>/Data Store Write' */
 2647              		.loc 1 1532 8 is_stmt 0 view .LVU961
 2648 0992 129B     		ldr	r3, [sp, #72]
1515:HANcoder_E407_TTA_CombineModel.c **** 
 2649              		.loc 1 1515 31 view .LVU962
 2650 0994 08BF     		it	eq
 2651 0996 A4F8C400 		strheq	r0, [r4, #196]	@ movhi
1518:HANcoder_E407_TTA_CombineModel.c ****     } else {
 2652              		.loc 1 1518 7 is_stmt 1 view .LVU963
 2653              	.LVL237:
1532:HANcoder_E407_TTA_CombineModel.c ****       /* DataStoreWrite: '<S134>/Data Store Write' */
 2654              		.loc 1 1532 5 view .LVU964
1532:HANcoder_E407_TTA_CombineModel.c ****       /* DataStoreWrite: '<S134>/Data Store Write' */
 2655              		.loc 1 1532 8 is_stmt 0 view .LVU965
 2656 099a 042B     		cmp	r3, #4
1534:HANcoder_E407_TTA_CombineModel.c ****     }
 2657              		.loc 1 1534 7 is_stmt 1 view .LVU966
1541:HANcoder_E407_TTA_CombineModel.c **** 
 2658              		.loc 1 1541 5 view .LVU967
1534:HANcoder_E407_TTA_CombineModel.c ****     }
 2659              		.loc 1 1534 31 is_stmt 0 view .LVU968
 2660 099c 04BF     		itt	eq
 2661 099e 139B     		ldreq	r3, [sp, #76]
 2662 09a0 A4F8C230 		strheq	r3, [r4, #194]	@ movhi
1541:HANcoder_E407_TTA_CombineModel.c **** 
 2663              		.loc 1 1541 5 view .LVU969
 2664 09a4 8D4B     		ldr	r3, .L287+28
 2665 09a6 1020     		movs	r0, #16
 2666              	.LVL238:
1541:HANcoder_E407_TTA_CombineModel.c **** 
 2667              		.loc 1 1541 5 view .LVU970
 2668 09a8 1988     		ldrh	r1, [r3]
 2669 09aa FFF7FEFF 		bl	PwmoutSet
 2670              	.LVL239:
1545:HANcoder_E407_TTA_CombineModel.c ****       DigoutSet(DIGOUT_PORTE_PIN5, DIGOUT_LOW);
 2671              		.loc 1 1545 5 is_stmt 1 view .LVU971
1545:HANcoder_E407_TTA_CombineModel.c ****       DigoutSet(DIGOUT_PORTE_PIN5, DIGOUT_LOW);
 2672              		.loc 1 1545 8 is_stmt 0 view .LVU972
 2673 09ae 8C4B     		ldr	r3, .L287+32
 2674 09b0 1978     		ldrb	r1, [r3]	@ zero_extendqisi2
 2675 09b2 01B1     		cbz	r1, .L259
1548:HANcoder_E407_TTA_CombineModel.c ****     }
 2676              		.loc 1 1548 7 is_stmt 1 view .LVU973
 2677 09b4 0121     		movs	r1, #1
 2678              	.L259:
 2679 09b6 0A20     		movs	r0, #10
 2680 09b8 FFF7FEFF 		bl	DigoutSet
 2681              	.LVL240:
1553:HANcoder_E407_TTA_CombineModel.c ****       DigoutSet(DIGOUT_PORTE_PIN6, DIGOUT_LOW);
 2682              		.loc 1 1553 5 view .LVU974
1553:HANcoder_E407_TTA_CombineModel.c ****       DigoutSet(DIGOUT_PORTE_PIN6, DIGOUT_LOW);
 2683              		.loc 1 1553 8 is_stmt 0 view .LVU975
 2684 09bc 894B     		ldr	r3, .L287+36
 2685 09be 1978     		ldrb	r1, [r3]	@ zero_extendqisi2
 2686 09c0 01B1     		cbz	r1, .L260
1556:HANcoder_E407_TTA_CombineModel.c ****     }
 2687              		.loc 1 1556 7 is_stmt 1 view .LVU976
 2688 09c2 0121     		movs	r1, #1
 2689              	.L260:
 2690 09c4 0B20     		movs	r0, #11
 2691 09c6 FFF7FEFF 		bl	DigoutSet
 2692              	.LVL241:
1562:HANcoder_E407_TTA_CombineModel.c ****       (intVal * rtb_Uk1);
 2693              		.loc 1 1562 5 view .LVU977
1563:HANcoder_E407_TTA_CombineModel.c **** 
 2694              		.loc 1 1563 15 is_stmt 0 view .LVU978
 2695 09ca 884B     		ldr	r3, .L287+44
 2696 09cc 5046     		mov	r0, r10
 2697 09ce D3E90023 		ldrd	r2, [r3]
 2698 09d2 5946     		mov	r1, fp
 2699 09d4 FFF7FEFF 		bl	__aeabi_dmul
 2700              	.LVL242:
 2701 09d8 8046     		mov	r8, r0
1562:HANcoder_E407_TTA_CombineModel.c ****       (intVal * rtb_Uk1);
 2702              		.loc 1 1562 41 view .LVU979
 2703 09da 1CEE100A 		vmov	r0, s24	@ int
1563:HANcoder_E407_TTA_CombineModel.c **** 
 2704              		.loc 1 1563 15 view .LVU980
 2705 09de 8946     		mov	r9, r1
1562:HANcoder_E407_TTA_CombineModel.c ****       (intVal * rtb_Uk1);
 2706              		.loc 1 1562 41 view .LVU981
 2707 09e0 FFF7FEFF 		bl	__aeabi_ui2d
 2708              	.LVL243:
1562:HANcoder_E407_TTA_CombineModel.c ****       (intVal * rtb_Uk1);
 2709              		.loc 1 1562 39 view .LVU982
 2710 09e4 76A3     		adr	r3, .L287
 2711 09e6 D3E90023 		ldrd	r2, [r3]
 2712 09ea FFF7FEFF 		bl	__aeabi_dmul
 2713              	.LVL244:
 2714 09ee 0246     		mov	r2, r0
 2715 09f0 0B46     		mov	r3, r1
1562:HANcoder_E407_TTA_CombineModel.c ****       (intVal * rtb_Uk1);
 2716              		.loc 1 1562 75 view .LVU983
 2717 09f2 4046     		mov	r0, r8
 2718 09f4 4946     		mov	r1, r9
 2719 09f6 FFF7FEFF 		bl	__aeabi_dmul
 2720              	.LVL245:
1562:HANcoder_E407_TTA_CombineModel.c ****       (intVal * rtb_Uk1);
 2721              		.loc 1 1562 31 view .LVU984
 2722 09fa D4E91C23 		ldrd	r2, [r4, #112]
 2723 09fe FFF7FEFF 		bl	__aeabi_dadd
 2724              	.LVL246:
1571:HANcoder_E407_TTA_CombineModel.c ****   }
 2725              		.loc 1 1571 32 view .LVU985
 2726 0a02 0022     		movs	r2, #0
 2727 0a04 0023     		movs	r3, #0
1562:HANcoder_E407_TTA_CombineModel.c ****       (intVal * rtb_Uk1);
 2728              		.loc 1 1562 31 view .LVU986
 2729 0a06 C4E91C01 		strd	r0, [r4, #112]
1571:HANcoder_E407_TTA_CombineModel.c ****   }
 2730              		.loc 1 1571 5 is_stmt 1 view .LVU987
1571:HANcoder_E407_TTA_CombineModel.c ****   }
 2731              		.loc 1 1571 32 is_stmt 0 view .LVU988
 2732 0a0a C4E91E23 		strd	r2, [r4, #120]
 2733 0a0e 26E5     		b	.L109
 2734              	.LVL247:
 2735              	.L261:
 549:HANcoder_E407_TTA_CombineModel.c **** 
 2736              		.loc 1 549 5 is_stmt 1 view .LVU989
 554:HANcoder_E407_TTA_CombineModel.c **** 
 2737              		.loc 1 554 24 is_stmt 0 view .LVU990
 2738 0a10 6D4F     		ldr	r7, .L287+8
 2739 0a12 0026     		movs	r6, #0
 549:HANcoder_E407_TTA_CombineModel.c **** 
 2740              		.loc 1 549 42 view .LVU991
 2741 0a14 0121     		movs	r1, #1
 561:HANcoder_E407_TTA_CombineModel.c ****       (tTimeoutAction)((uint8_T)3U));
 2742              		.loc 1 561 5 view .LVU992
 2743 0a16 0322     		movs	r2, #3
 2744 0a18 0720     		movs	r0, #7
 554:HANcoder_E407_TTA_CombineModel.c **** 
 2745              		.loc 1 554 24 view .LVU993
 2746 0a1a C4E92C67 		strd	r6, [r4, #176]
 549:HANcoder_E407_TTA_CombineModel.c **** 
 2747              		.loc 1 549 42 view .LVU994
 2748 0a1e 84F8D210 		strb	r1, [r4, #210]
 554:HANcoder_E407_TTA_CombineModel.c **** 
 2749              		.loc 1 554 5 is_stmt 1 view .LVU995
 561:HANcoder_E407_TTA_CombineModel.c ****       (tTimeoutAction)((uint8_T)3U));
 2750              		.loc 1 561 5 view .LVU996
 2751 0a22 FFF7FEFF 		bl	TimeoutScheduleCompareEvent
 2752              	.LVL248:
 2753 0a26 FFF7FFBA 		b	.L58
 2754              	.LVL249:
 2755              	.L175:
 561:HANcoder_E407_TTA_CombineModel.c ****       (tTimeoutAction)((uint8_T)3U));
 2756              		.loc 1 561 5 is_stmt 0 view .LVU997
 2757 0a2a F0EE687A 		vmov.f32	s15, s17
 2758 0a2e B0EE487A 		vmov.f32	s14, s16
 885:HANcoder_E407_TTA_CombineModel.c **** 
 2759              		.loc 1 885 15 view .LVU998
 2760 0a32 0023     		movs	r3, #0
 2761              	.L81:
 2762              	.LBB155:
 2763              	.LBB118:
 426:HANcoder_E407_TTA_CombineModel.c **** 
 2764              		.loc 1 426 3 is_stmt 1 view .LVU999
 2765              	.LBE118:
 2766              	.LBE155:
 907:HANcoder_E407_TTA_CombineModel.c **** 
 2767              		.loc 1 907 25 is_stmt 0 view .LVU1000
 2768 0a34 F1EE006A 		vmov.f32	s13, #4.0e+0
 2769 0a38 B4EE667A 		vcmp.f32	s14, s13
 2770 0a3c F1EE10FA 		vmrs	APSR_nzcv, FPSCR
 2771              	.LBB156:
 2772              	.LBB119:
 426:HANcoder_E407_TTA_CombineModel.c **** 
 2773              		.loc 1 426 31 view .LVU1001
 2774 0a40 AB71     		strb	r3, [r5, #6]
 2775              	.LBE119:
 2776              	.LBE156:
 896:HANcoder_E407_TTA_CombineModel.c **** 
 2777              		.loc 1 896 5 is_stmt 1 view .LVU1002
 2778              	.LVL250:
 902:HANcoder_E407_TTA_CombineModel.c **** 
 2779              		.loc 1 902 5 view .LVU1003
 907:HANcoder_E407_TTA_CombineModel.c **** 
 2780              		.loc 1 907 5 view .LVU1004
 907:HANcoder_E407_TTA_CombineModel.c **** 
 2781              		.loc 1 907 25 is_stmt 0 view .LVU1005
 2782 0a42 7FF4B1AB 		bne	.L84
 907:HANcoder_E407_TTA_CombineModel.c **** 
 2783              		.loc 1 907 25 discriminator 1 view .LVU1006
 2784 0a46 B7EE007A 		vmov.f32	s14, #1.0e+0
 2785 0a4a F4EE477A 		vcmp.f32	s15, s14
 2786 0a4e F1EE10FA 		vmrs	APSR_nzcv, FPSCR
 2787 0a52 08D0     		beq	.L278
 2788              	.LVL251:
 911:HANcoder_E407_TTA_CombineModel.c **** 
 2789              		.loc 1 911 5 is_stmt 1 view .LVU1007
 2790 0a54 664B     		ldr	r3, .L287+48
 2791 0a56 674A     		ldr	r2, .L287+52
 2792 0a58 1968     		ldr	r1, [r3]
 2793 0a5a 674B     		ldr	r3, .L287+56
 2794 0a5c 0120     		movs	r0, #1
 2795 0a5e FFF7FEFF 		bl	MMBS1_RX
 2796              	.LVL252:
 916:HANcoder_E407_TTA_CombineModel.c **** 
 2797              		.loc 1 916 5 view .LVU1008
 2798 0a62 FFF7A8BB 		b	.L162
 2799              	.LVL253:
 2800              	.L278:
 911:HANcoder_E407_TTA_CombineModel.c **** 
 2801              		.loc 1 911 5 view .LVU1009
 2802 0a66 DFF88881 		ldr	r8, .L287+48
 2803 0a6a 634B     		ldr	r3, .L287+56
 2804 0a6c 614A     		ldr	r2, .L287+52
 2805 0a6e D8F80010 		ldr	r1, [r8]
 2806 0a72 0020     		movs	r0, #0
 2807 0a74 FFF7FEFF 		bl	MMBS1_RX
 2808              	.LVL254:
 916:HANcoder_E407_TTA_CombineModel.c **** 
 2809              		.loc 1 916 5 view .LVU1010
 920:HANcoder_E407_TTA_CombineModel.c **** 
 2810              		.loc 1 920 5 view .LVU1011
 2811              	.LBB157:
 410:HANcoder_E407_TTA_CombineModel.c **** {
 2812              		.loc 1 410 6 view .LVU1012
 2813              	.LBB126:
 415:HANcoder_E407_TTA_CombineModel.c ****     /* Update for M-S-Function: '<S41>/S-Function' */
 2814              		.loc 1 415 3 view .LVU1013
 415:HANcoder_E407_TTA_CombineModel.c ****     /* Update for M-S-Function: '<S41>/S-Function' */
 2815              		.loc 1 415 31 is_stmt 0 view .LVU1014
 2816 0a78 6B79     		ldrb	r3, [r5, #5]	@ zero_extendqisi2
 415:HANcoder_E407_TTA_CombineModel.c ****     /* Update for M-S-Function: '<S41>/S-Function' */
 2817              		.loc 1 415 19 view .LVU1015
 2818 0a7a 012B     		cmp	r3, #1
 2819 0a7c 3FF49CAB 		beq	.L144
 419:HANcoder_E407_TTA_CombineModel.c **** 
 2820              		.loc 1 419 7 is_stmt 1 view .LVU1016
 419:HANcoder_E407_TTA_CombineModel.c **** 
 2821              		.loc 1 419 33 is_stmt 0 view .LVU1017
 2822 0a80 5E4B     		ldr	r3, .L287+60
 422:HANcoder_E407_TTA_CombineModel.c ****     }
 2823              		.loc 1 422 7 view .LVU1018
 2824 0a82 D8F80010 		ldr	r1, [r8]
 419:HANcoder_E407_TTA_CombineModel.c **** 
 2825              		.loc 1 419 33 view .LVU1019
 2826 0a86 0020     		movs	r0, #0
 2827 0a88 1870     		strb	r0, [r3]
 422:HANcoder_E407_TTA_CombineModel.c ****     }
 2828              		.loc 1 422 7 is_stmt 1 view .LVU1020
 2829 0a8a 0122     		movs	r2, #1
 2830 0a8c FFF7FEFF 		bl	CanTransmit
 2831              	.LVL255:
 422:HANcoder_E407_TTA_CombineModel.c ****     }
 2832              		.loc 1 422 7 is_stmt 0 view .LVU1021
 2833              	.LBE126:
 2834              	.LBE157:
 916:HANcoder_E407_TTA_CombineModel.c **** 
 2835              		.loc 1 916 14 view .LVU1022
 2836 0a90 0123     		movs	r3, #1
 2837 0a92 FFF791BB 		b	.L144
 2838              	.LVL256:
 2839              	.L256:
 836:HANcoder_E407_TTA_CombineModel.c **** 
 2840              		.loc 1 836 5 is_stmt 1 view .LVU1023
 836:HANcoder_E407_TTA_CombineModel.c **** 
 2841              		.loc 1 836 40 is_stmt 0 view .LVU1024
 2842 0a96 2B72     		strb	r3, [r5, #8]
 843:HANcoder_E407_TTA_CombineModel.c **** 
 2843              		.loc 1 843 5 is_stmt 1 view .LVU1025
 2844              	.LVL257:
 850:HANcoder_E407_TTA_CombineModel.c **** 
 2845              		.loc 1 850 5 view .LVU1026
 855:HANcoder_E407_TTA_CombineModel.c **** 
 2846              		.loc 1 855 5 view .LVU1027
 2847              	.L78:
 859:HANcoder_E407_TTA_CombineModel.c **** 
 2848              		.loc 1 859 5 view .LVU1028
 2849 0a98 594B     		ldr	r3, .L287+64
 2850 0a9a 5A4A     		ldr	r2, .L287+68
 2851 0a9c 1968     		ldr	r1, [r3]
 2852 0a9e 5A4B     		ldr	r3, .L287+72
 2853 0aa0 0020     		movs	r0, #0
 2854 0aa2 FFF7FEFF 		bl	MMBS1_RX
 2855              	.LVL258:
 864:HANcoder_E407_TTA_CombineModel.c **** 
 2856              		.loc 1 864 5 view .LVU1029
 868:HANcoder_E407_TTA_CombineModel.c **** 
 2857              		.loc 1 868 5 view .LVU1030
 2858              	.LBB158:
 410:HANcoder_E407_TTA_CombineModel.c **** {
 2859              		.loc 1 410 6 view .LVU1031
 2860              	.LBB114:
 415:HANcoder_E407_TTA_CombineModel.c ****     /* Update for M-S-Function: '<S41>/S-Function' */
 2861              		.loc 1 415 3 view .LVU1032
 2862              	.LBE114:
 2863              	.LBE158:
 864:HANcoder_E407_TTA_CombineModel.c **** 
 2864              		.loc 1 864 14 is_stmt 0 view .LVU1033
 2865 0aa6 0023     		movs	r3, #0
 2866 0aa8 FFF75DBB 		b	.L146
 2867              	.LVL259:
 2868              	.L71:
 719:HANcoder_E407_TTA_CombineModel.c **** 
 2869              		.loc 1 719 5 is_stmt 1 view .LVU1034
 2870 0aac 574B     		ldr	r3, .L287+76
 2871 0aae 584A     		ldr	r2, .L287+80
 2872 0ab0 1968     		ldr	r1, [r3]
 2873 0ab2 584B     		ldr	r3, .L287+84
 2874 0ab4 0020     		movs	r0, #0
 2875 0ab6 FFF7FEFF 		bl	MMBS1_RX
 2876              	.LVL260:
 724:HANcoder_E407_TTA_CombineModel.c **** 
 2877              		.loc 1 724 5 view .LVU1035
 728:HANcoder_E407_TTA_CombineModel.c **** 
 2878              		.loc 1 728 5 view .LVU1036
 2879              	.LBB159:
 410:HANcoder_E407_TTA_CombineModel.c **** {
 2880              		.loc 1 410 6 view .LVU1037
 2881              	.LBB108:
 415:HANcoder_E407_TTA_CombineModel.c ****     /* Update for M-S-Function: '<S41>/S-Function' */
 2882              		.loc 1 415 3 view .LVU1038
 2883              	.LBE108:
 2884              	.LBE159:
 724:HANcoder_E407_TTA_CombineModel.c **** 
 2885              		.loc 1 724 14 is_stmt 0 view .LVU1039
 2886 0aba 0023     		movs	r3, #0
 2887 0abc FFF723BB 		b	.L151
 2888              	.LVL261:
 2889              	.L100:
1171:HANcoder_E407_TTA_CombineModel.c ****       /* Constant: '<S11>/Constant12' */
 2890              		.loc 1 1171 5 is_stmt 1 view .LVU1040
1171:HANcoder_E407_TTA_CombineModel.c ****       /* Constant: '<S11>/Constant12' */
 2891              		.loc 1 1171 8 is_stmt 0 view .LVU1041
 2892 0ac0 94F8D620 		ldrb	r2, [r4, #214]	@ zero_extendqisi2
 2893 0ac4 0AB1     		cbz	r2, .L101
1173:HANcoder_E407_TTA_CombineModel.c ****     }
 2894              		.loc 1 1173 7 is_stmt 1 view .LVU1042
 2895              	.LVL262:
 2896              	.LBB160:
 2897              	.LBI160:
 321:HANcoder_E407_TTA_CombineModel.c **** {
 2898              		.loc 1 321 6 view .LVU1043
 2899              	.LBB161:
 323:HANcoder_E407_TTA_CombineModel.c **** }
 2900              		.loc 1 323 3 view .LVU1044
 323:HANcoder_E407_TTA_CombineModel.c **** }
 2901              		.loc 1 323 26 is_stmt 0 view .LVU1045
 2902 0ac6 84F8D630 		strb	r3, [r4, #214]
 2903              	.LVL263:
 2904              	.L101:
 323:HANcoder_E407_TTA_CombineModel.c **** }
 2905              		.loc 1 323 26 view .LVU1046
 2906              	.LBE161:
 2907              	.LBE160:
1181:HANcoder_E407_TTA_CombineModel.c ****       /* Constant: '<S11>/Constant14' */
 2908              		.loc 1 1181 5 is_stmt 1 view .LVU1047
1181:HANcoder_E407_TTA_CombineModel.c ****       /* Constant: '<S11>/Constant14' */
 2909              		.loc 1 1181 8 is_stmt 0 view .LVU1048
 2910 0aca 94F8D530 		ldrb	r3, [r4, #213]	@ zero_extendqisi2
 2911 0ace 13B1     		cbz	r3, .L102
1183:HANcoder_E407_TTA_CombineModel.c ****     }
 2912              		.loc 1 1183 7 is_stmt 1 view .LVU1049
 2913              	.LVL264:
 2914              	.LBB162:
 2915              	.LBI162:
 321:HANcoder_E407_TTA_CombineModel.c **** {
 2916              		.loc 1 321 6 view .LVU1050
 2917              	.LBB163:
 323:HANcoder_E407_TTA_CombineModel.c **** }
 2918              		.loc 1 323 3 view .LVU1051
 323:HANcoder_E407_TTA_CombineModel.c **** }
 2919              		.loc 1 323 26 is_stmt 0 view .LVU1052
 2920 0ad0 0023     		movs	r3, #0
 2921 0ad2 84F8D530 		strb	r3, [r4, #213]
 2922              	.LVL265:
 2923              	.L102:
 323:HANcoder_E407_TTA_CombineModel.c **** }
 2924              		.loc 1 323 26 view .LVU1053
 2925              	.LBE163:
 2926              	.LBE162:
1191:HANcoder_E407_TTA_CombineModel.c ****       rtDWork.SYNC1_RX_MODE = false;
 2927              		.loc 1 1191 5 is_stmt 1 view .LVU1054
1191:HANcoder_E407_TTA_CombineModel.c ****       rtDWork.SYNC1_RX_MODE = false;
 2928              		.loc 1 1191 8 is_stmt 0 view .LVU1055
 2929 0ad6 94F8D130 		ldrb	r3, [r4, #209]	@ zero_extendqisi2
 2930 0ada 13B1     		cbz	r3, .L103
1192:HANcoder_E407_TTA_CombineModel.c ****     }
 2931              		.loc 1 1192 7 is_stmt 1 view .LVU1056
1192:HANcoder_E407_TTA_CombineModel.c ****     }
 2932              		.loc 1 1192 29 is_stmt 0 view .LVU1057
 2933 0adc 0023     		movs	r3, #0
 2934 0ade 84F8D130 		strb	r3, [r4, #209]
 2935              	.L103:
1197:HANcoder_E407_TTA_CombineModel.c ****       /* Constant: '<S11>/Constant5' */
 2936              		.loc 1 1197 5 is_stmt 1 view .LVU1058
1197:HANcoder_E407_TTA_CombineModel.c ****       /* Constant: '<S11>/Constant5' */
 2937              		.loc 1 1197 8 is_stmt 0 view .LVU1059
 2938 0ae2 94F8D430 		ldrb	r3, [r4, #212]	@ zero_extendqisi2
 2939 0ae6 13B1     		cbz	r3, .L104
1199:HANcoder_E407_TTA_CombineModel.c ****     }
 2940              		.loc 1 1199 7 is_stmt 1 view .LVU1060
 2941              	.LVL266:
 2942              	.LBB164:
 2943              	.LBI164:
 321:HANcoder_E407_TTA_CombineModel.c **** {
 2944              		.loc 1 321 6 view .LVU1061
 2945              	.LBB165:
 323:HANcoder_E407_TTA_CombineModel.c **** }
 2946              		.loc 1 323 3 view .LVU1062
 323:HANcoder_E407_TTA_CombineModel.c **** }
 2947              		.loc 1 323 26 is_stmt 0 view .LVU1063
 2948 0ae8 0023     		movs	r3, #0
 2949 0aea 84F8D430 		strb	r3, [r4, #212]
 2950              	.LVL267:
 2951              	.L104:
 323:HANcoder_E407_TTA_CombineModel.c **** }
 2952              		.loc 1 323 26 view .LVU1064
 2953              	.LBE165:
 2954              	.LBE164:
1209:HANcoder_E407_TTA_CombineModel.c ****       /* Constant: '<S11>/Constant3' */
 2955              		.loc 1 1209 5 is_stmt 1 view .LVU1065
1209:HANcoder_E407_TTA_CombineModel.c ****       /* Constant: '<S11>/Constant3' */
 2956              		.loc 1 1209 8 is_stmt 0 view .LVU1066
 2957 0aee 94F8D330 		ldrb	r3, [r4, #211]	@ zero_extendqisi2
 2958 0af2 13B1     		cbz	r3, .L105
1211:HANcoder_E407_TTA_CombineModel.c ****     }
 2959              		.loc 1 1211 7 is_stmt 1 view .LVU1067
 2960              	.LVL268:
 2961              	.LBB166:
 2962              	.LBI166:
 321:HANcoder_E407_TTA_CombineModel.c **** {
 2963              		.loc 1 321 6 view .LVU1068
 2964              	.LBB167:
 323:HANcoder_E407_TTA_CombineModel.c **** }
 2965              		.loc 1 323 3 view .LVU1069
 323:HANcoder_E407_TTA_CombineModel.c **** }
 2966              		.loc 1 323 26 is_stmt 0 view .LVU1070
 2967 0af4 0023     		movs	r3, #0
 2968 0af6 84F8D330 		strb	r3, [r4, #211]
 2969              	.LVL269:
 2970              	.L105:
 323:HANcoder_E407_TTA_CombineModel.c **** }
 2971              		.loc 1 323 26 view .LVU1071
 2972              	.LBE167:
 2973              	.LBE166:
1219:HANcoder_E407_TTA_CombineModel.c ****       rtDWork.TRCK_ID3_RX_MODE = false;
 2974              		.loc 1 1219 5 is_stmt 1 view .LVU1072
1219:HANcoder_E407_TTA_CombineModel.c ****       rtDWork.TRCK_ID3_RX_MODE = false;
 2975              		.loc 1 1219 8 is_stmt 0 view .LVU1073
 2976 0afa 94F8D030 		ldrb	r3, [r4, #208]	@ zero_extendqisi2
 2977 0afe 13B1     		cbz	r3, .L106
1220:HANcoder_E407_TTA_CombineModel.c ****     }
 2978              		.loc 1 1220 7 is_stmt 1 view .LVU1074
1220:HANcoder_E407_TTA_CombineModel.c ****     }
 2979              		.loc 1 1220 32 is_stmt 0 view .LVU1075
 2980 0b00 0023     		movs	r3, #0
 2981 0b02 84F8D030 		strb	r3, [r4, #208]
 2982              	.L106:
1226:HANcoder_E407_TTA_CombineModel.c ****       rtDWork.TRLS_ID4_RX_MODE = false;
 2983              		.loc 1 1226 5 is_stmt 1 view .LVU1076
1226:HANcoder_E407_TTA_CombineModel.c ****       rtDWork.TRLS_ID4_RX_MODE = false;
 2984              		.loc 1 1226 8 is_stmt 0 view .LVU1077
 2985 0b06 94F8CF30 		ldrb	r3, [r4, #207]	@ zero_extendqisi2
 2986 0b0a 13B1     		cbz	r3, .L107
1227:HANcoder_E407_TTA_CombineModel.c ****     }
 2987              		.loc 1 1227 7 is_stmt 1 view .LVU1078
1227:HANcoder_E407_TTA_CombineModel.c ****     }
 2988              		.loc 1 1227 32 is_stmt 0 view .LVU1079
 2989 0b0c 0023     		movs	r3, #0
 2990 0b0e 84F8CF30 		strb	r3, [r4, #207]
 2991              	.L107:
1232:HANcoder_E407_TTA_CombineModel.c ****       rtDWork.TRLS_ID5_RX_MODE = false;
 2992              		.loc 1 1232 5 is_stmt 1 view .LVU1080
1232:HANcoder_E407_TTA_CombineModel.c ****       rtDWork.TRLS_ID5_RX_MODE = false;
 2993              		.loc 1 1232 8 is_stmt 0 view .LVU1081
 2994 0b12 94F8CE30 		ldrb	r3, [r4, #206]	@ zero_extendqisi2
 2995 0b16 13B1     		cbz	r3, .L108
1233:HANcoder_E407_TTA_CombineModel.c ****     }
 2996              		.loc 1 1233 7 is_stmt 1 view .LVU1082
1233:HANcoder_E407_TTA_CombineModel.c ****     }
 2997              		.loc 1 1233 32 is_stmt 0 view .LVU1083
 2998 0b18 0023     		movs	r3, #0
 2999 0b1a 84F8CE30 		strb	r3, [r4, #206]
 3000              	.L108:
1240:HANcoder_E407_TTA_CombineModel.c ****   }
 3001              		.loc 1 1240 5 is_stmt 1 view .LVU1084
1248:HANcoder_E407_TTA_CombineModel.c **** 
 3002              		.loc 1 1248 31 is_stmt 0 view .LVU1085
 3003 0b1e 3E4B     		ldr	r3, .L287+88
1240:HANcoder_E407_TTA_CombineModel.c ****   }
 3004              		.loc 1 1240 34 view .LVU1086
 3005 0b20 0022     		movs	r2, #0
1248:HANcoder_E407_TTA_CombineModel.c **** 
 3006              		.loc 1 1248 31 view .LVU1087
 3007 0b22 1B78     		ldrb	r3, [r3]	@ zero_extendqisi2
1240:HANcoder_E407_TTA_CombineModel.c ****   }
 3008              		.loc 1 1240 34 view .LVU1088
 3009 0b24 84F8CD20 		strb	r2, [r4, #205]
 3010 0b28 92E4     		b	.L99
 3011              	.LVL270:
 3012              	.L68:
 687:HANcoder_E407_TTA_CombineModel.c **** 
 3013              		.loc 1 687 5 is_stmt 1 view .LVU1089
 3014 0b2a 3C4B     		ldr	r3, .L287+92
 3015 0b2c 3C4A     		ldr	r2, .L287+96
 3016 0b2e 1968     		ldr	r1, [r3]
 3017 0b30 3C4B     		ldr	r3, .L287+100
 3018 0b32 0020     		movs	r0, #0
 3019 0b34 FFF7FEFF 		bl	MMBS1_RX
 3020              	.LVL271:
 692:HANcoder_E407_TTA_CombineModel.c **** 
 3021              		.loc 1 692 5 view .LVU1090
 696:HANcoder_E407_TTA_CombineModel.c **** 
 3022              		.loc 1 696 5 view .LVU1091
 3023              	.LBB168:
 410:HANcoder_E407_TTA_CombineModel.c **** {
 3024              		.loc 1 410 6 view .LVU1092
 3025              	.LBB101:
 415:HANcoder_E407_TTA_CombineModel.c ****     /* Update for M-S-Function: '<S41>/S-Function' */
 3026              		.loc 1 415 3 view .LVU1093
 3027              	.LBE101:
 3028              	.LBE168:
 692:HANcoder_E407_TTA_CombineModel.c **** 
 3029              		.loc 1 692 14 is_stmt 0 view .LVU1094
 3030 0b38 0023     		movs	r3, #0
 3031 0b3a FFF7C0BA 		b	.L152
 3032              	.LVL272:
 3033              	.L91:
 988:HANcoder_E407_TTA_CombineModel.c ****       rtDWork.TRLS_ID4_RX_MODE = true;
 3034              		.loc 1 988 5 is_stmt 1 view .LVU1095
1039:HANcoder_E407_TTA_CombineModel.c ****       rtDWork.TRLS_ID4_RX_MODE = false;
 3035              		.loc 1 1039 12 view .LVU1096
1039:HANcoder_E407_TTA_CombineModel.c ****       rtDWork.TRLS_ID4_RX_MODE = false;
 3036              		.loc 1 1039 15 is_stmt 0 view .LVU1097
 3037 0b3e 94F8CF20 		ldrb	r2, [r4, #207]	@ zero_extendqisi2
 3038 0b42 002A     		cmp	r2, #0
 3039 0b44 3FF48FAB 		beq	.L94
1040:HANcoder_E407_TTA_CombineModel.c ****     }
 3040              		.loc 1 1040 7 is_stmt 1 view .LVU1098
1040:HANcoder_E407_TTA_CombineModel.c ****     }
 3041              		.loc 1 1040 32 is_stmt 0 view .LVU1099
 3042 0b48 0022     		movs	r2, #0
 3043 0b4a 84F8CF20 		strb	r2, [r4, #207]
1046:HANcoder_E407_TTA_CombineModel.c **** 
 3044              		.loc 1 1046 5 is_stmt 1 view .LVU1100
 3045 0b4e FFF78ABB 		b	.L94
 3046              	.LVL273:
 3047              	.L272:
1099:HANcoder_E407_TTA_CombineModel.c **** 
 3048              		.loc 1 1099 30 is_stmt 0 discriminator 1 view .LVU1101
 3049 0b52 B1EE047A 		vmov.f32	s14, #5.0e+0
 3050 0b56 F4EE477A 		vcmp.f32	s15, s14
 3051 0b5a F1EE10FA 		vmrs	APSR_nzcv, FPSCR
 3052 0b5e 69D1     		bne	.L96
 3053              	.LVL274:
1104:HANcoder_E407_TTA_CombineModel.c ****       rtDWork.TRLS_ID5_RX_MODE = true;
 3054              		.loc 1 1104 5 is_stmt 1 view .LVU1102
1155:HANcoder_E407_TTA_CombineModel.c ****       rtDWork.TRLS_ID5_RX_MODE = false;
 3055              		.loc 1 1155 12 view .LVU1103
1155:HANcoder_E407_TTA_CombineModel.c ****       rtDWork.TRLS_ID5_RX_MODE = false;
 3056              		.loc 1 1155 15 is_stmt 0 view .LVU1104
 3057 0b60 94F8CE20 		ldrb	r2, [r4, #206]	@ zero_extendqisi2
 3058 0b64 12B1     		cbz	r2, .L158
1156:HANcoder_E407_TTA_CombineModel.c ****     }
 3059              		.loc 1 1156 7 is_stmt 1 view .LVU1105
1156:HANcoder_E407_TTA_CombineModel.c ****     }
 3060              		.loc 1 1156 32 is_stmt 0 view .LVU1106
 3061 0b66 0022     		movs	r2, #0
 3062 0b68 84F8CE20 		strb	r2, [r4, #206]
1162:HANcoder_E407_TTA_CombineModel.c **** 
 3063              		.loc 1 1162 5 is_stmt 1 view .LVU1107
 3064              	.L158:
 3065              	.LVL275:
1166:HANcoder_E407_TTA_CombineModel.c **** 
 3066              		.loc 1 1166 5 view .LVU1108
 3067              	.LBB169:
 410:HANcoder_E407_TTA_CombineModel.c **** {
 3068              		.loc 1 410 6 view .LVU1109
 3069              	.LBB138:
 415:HANcoder_E407_TTA_CombineModel.c ****     /* Update for M-S-Function: '<S41>/S-Function' */
 3070              		.loc 1 415 3 view .LVU1110
 415:HANcoder_E407_TTA_CombineModel.c ****     /* Update for M-S-Function: '<S41>/S-Function' */
 3071              		.loc 1 415 31 is_stmt 0 view .LVU1111
 3072 0b6c EA78     		ldrb	r2, [r5, #3]	@ zero_extendqisi2
 415:HANcoder_E407_TTA_CombineModel.c ****     /* Update for M-S-Function: '<S41>/S-Function' */
 3073              		.loc 1 415 19 view .LVU1112
 3074 0b6e 012A     		cmp	r2, #1
 3075 0b70 3FF48AAB 		beq	.L136
 419:HANcoder_E407_TTA_CombineModel.c **** 
 3076              		.loc 1 419 7 is_stmt 1 view .LVU1113
 419:HANcoder_E407_TTA_CombineModel.c **** 
 3077              		.loc 1 419 33 is_stmt 0 view .LVU1114
 3078 0b74 214B     		ldr	r3, .L287+60
 3079              	.LBE138:
 3080              	.LBE169:
1166:HANcoder_E407_TTA_CombineModel.c **** 
 3081              		.loc 1 1166 5 view .LVU1115
 3082 0b76 2C4A     		ldr	r2, .L287+104
 3083              	.LBB170:
 3084              	.LBB139:
 419:HANcoder_E407_TTA_CombineModel.c **** 
 3085              		.loc 1 419 33 view .LVU1116
 3086 0b78 0020     		movs	r0, #0
 422:HANcoder_E407_TTA_CombineModel.c ****     }
 3087              		.loc 1 422 7 view .LVU1117
 3088 0b7a 1168     		ldr	r1, [r2]
 419:HANcoder_E407_TTA_CombineModel.c **** 
 3089              		.loc 1 419 33 view .LVU1118
 3090 0b7c 1870     		strb	r0, [r3]
 422:HANcoder_E407_TTA_CombineModel.c ****     }
 3091              		.loc 1 422 7 is_stmt 1 view .LVU1119
 3092 0b7e 0122     		movs	r2, #1
 3093 0b80 FFF7FEFF 		bl	CanTransmit
 3094              	.LVL276:
 422:HANcoder_E407_TTA_CombineModel.c ****     }
 3095              		.loc 1 422 7 is_stmt 0 view .LVU1120
 3096              	.LBE139:
 3097              	.LBE170:
1162:HANcoder_E407_TTA_CombineModel.c **** 
 3098              		.loc 1 1162 15 view .LVU1121
 3099 0b84 0122     		movs	r2, #1
 3100              	.LVL277:
 3101              	.LBB171:
 3102              	.LBB140:
 426:HANcoder_E407_TTA_CombineModel.c **** 
 3103              		.loc 1 426 3 is_stmt 1 view .LVU1122
 3104              	.LBE140:
 3105              	.LBE171:
1248:HANcoder_E407_TTA_CombineModel.c **** 
 3106              		.loc 1 1248 31 is_stmt 0 view .LVU1123
 3107 0b86 3378     		ldrb	r3, [r6]	@ zero_extendqisi2
 3108              	.LBB172:
 3109              	.LBB141:
 426:HANcoder_E407_TTA_CombineModel.c **** 
 3110              		.loc 1 426 31 view .LVU1124
 3111 0b88 EA70     		strb	r2, [r5, #3]
 3112 0b8a 61E4     		b	.L99
 3113              	.LVL278:
 3114              	.L243:
 426:HANcoder_E407_TTA_CombineModel.c **** 
 3115              		.loc 1 426 31 view .LVU1125
 3116              	.LBE141:
 3117              	.LBE172:
 648:HANcoder_E407_TTA_CombineModel.c ****   }
 3118              		.loc 1 648 5 is_stmt 1 view .LVU1126
 648:HANcoder_E407_TTA_CombineModel.c ****   }
 3119              		.loc 1 648 29 is_stmt 0 view .LVU1127
 3120 0b8c 0023     		movs	r3, #0
 3121 0b8e 274F     		ldr	r7, .L287+108
 3122 0b90 274D     		ldr	r5, .L287+112
 3123 0b92 84F8CC30 		strb	r3, [r4, #204]
 655:HANcoder_E407_TTA_CombineModel.c **** 
 3124              		.loc 1 655 3 is_stmt 1 view .LVU1128
 3125 0b96 FFF75DBA 		b	.L65
 3126              	.LVL279:
 3127              	.L167:
 786:HANcoder_E407_TTA_CombineModel.c ****     }
 3128              		.loc 1 786 7 view .LVU1129
 786:HANcoder_E407_TTA_CombineModel.c ****     }
 3129              		.loc 1 786 29 is_stmt 0 view .LVU1130
 3130 0b9a 0021     		movs	r1, #0
 3131 0b9c 84F8D110 		strb	r1, [r4, #209]
 792:HANcoder_E407_TTA_CombineModel.c **** 
 3132              		.loc 1 792 5 is_stmt 1 view .LVU1131
 3133 0ba0 FFF7BDBA 		b	.L164
 3134              	.LVL280:
 3135              	.L63:
 605:HANcoder_E407_TTA_CombineModel.c ****                      rtb_SFunction_o4, rtb_SFunction_o5, rtb_SFunction_o6,
 3136              		.loc 1 605 5 view .LVU1132
 3137              	.LBB173:
 270:HANcoder_E407_TTA_CombineModel.c ****                       uint8_T rtu_In3, uint8_T rtu_In4, uint8_T rtu_In5, uint8_T
 3138              		.loc 1 270 6 view .LVU1133
 3139              	.LBB152:
 275:HANcoder_E407_TTA_CombineModel.c ****   uint8_T rtb_In4_c;
 3140              		.loc 1 275 3 view .LVU1134
 276:HANcoder_E407_TTA_CombineModel.c ****   uint8_T rtb_In5_a;
 3141              		.loc 1 276 3 view .LVU1135
 277:HANcoder_E407_TTA_CombineModel.c ****   uint8_T rtb_In6_j;
 3142              		.loc 1 277 3 view .LVU1136
 278:HANcoder_E407_TTA_CombineModel.c ****   uint8_T rtb_In7_h;
 3143              		.loc 1 278 3 view .LVU1137
 279:HANcoder_E407_TTA_CombineModel.c ****   uint8_T rtb_In8_m;
 3144              		.loc 1 279 3 view .LVU1138
 280:HANcoder_E407_TTA_CombineModel.c **** 
 3145              		.loc 1 280 3 view .LVU1139
 285:HANcoder_E407_TTA_CombineModel.c ****     /* SignalConversion generated from: '<S40>/In1' */
 3146              		.loc 1 285 3 view .LVU1140
 285:HANcoder_E407_TTA_CombineModel.c ****     /* SignalConversion generated from: '<S40>/In1' */
 3147              		.loc 1 285 3 is_stmt 0 view .LVU1141
 3148              	.LBE152:
 3149              	.LBE173:
 613:HANcoder_E407_TTA_CombineModel.c **** 
 3150              		.loc 1 613 5 is_stmt 1 view .LVU1142
 613:HANcoder_E407_TTA_CombineModel.c **** 
 3151              		.loc 1 613 47 is_stmt 0 view .LVU1143
 3152 0ba4 214F     		ldr	r7, .L287+108
 613:HANcoder_E407_TTA_CombineModel.c **** 
 3153              		.loc 1 613 22 view .LVU1144
 3154 0ba6 7B7A     		ldrb	r3, [r7, #9]	@ zero_extendqisi2
 3155 0ba8 84F8C930 		strb	r3, [r4, #201]
 618:HANcoder_E407_TTA_CombineModel.c ****          != POS_ZCSIG)) {
 3156              		.loc 1 618 5 is_stmt 1 view .LVU1145
 618:HANcoder_E407_TTA_CombineModel.c ****          != POS_ZCSIG)) {
 3157              		.loc 1 618 8 is_stmt 0 view .LVU1146
 3158 0bac 7FF41DAC 		bne	.L154
 626:HANcoder_E407_TTA_CombineModel.c ****       != 0);
 3159              		.loc 1 626 5 is_stmt 1 view .LVU1147
 626:HANcoder_E407_TTA_CombineModel.c ****       != 0);
 3160              		.loc 1 626 50 is_stmt 0 view .LVU1148
 3161 0bb0 1F4D     		ldr	r5, .L287+112
 635:HANcoder_E407_TTA_CombineModel.c **** 
 3162              		.loc 1 635 32 view .LVU1149
 3163 0bb2 94F8CB30 		ldrb	r3, [r4, #203]	@ zero_extendqisi2
 626:HANcoder_E407_TTA_CombineModel.c ****       != 0);
 3164              		.loc 1 626 50 view .LVU1150
 3165 0bb6 6870     		strb	r0, [r5, #1]
 635:HANcoder_E407_TTA_CombineModel.c **** 
 3166              		.loc 1 635 5 is_stmt 1 view .LVU1151
 3167              	.LVL281:
 640:HANcoder_E407_TTA_CombineModel.c ****       rtb_Level2MfileSFunction_j;
 3168              		.loc 1 640 5 view .LVU1152
 3169 0bb8 25E4     		b	.L153
 3170              	.L288:
 3171 0bba 00BFAFF3 		.align	3
 3171      0080
 3172              	.L287:
 3173 0bc0 00000040 		.word	1073741824
 3174 0bc4 E17A843F 		.word	1065646817
 3175 0bc8 0000F03F 		.word	1072693248
 3176 0bcc 00000000 		.word	.LANCHOR32
 3177 0bd0 00000000 		.word	.LANCHOR31
 3178 0bd4 00000000 		.word	.LANCHOR33
 3179 0bd8 00000000 		.word	.LANCHOR35
 3180 0bdc 00000000 		.word	.LANCHOR34
 3181 0be0 00000000 		.word	.LANCHOR36
 3182 0be4 00000000 		.word	.LANCHOR37
 3183 0be8 00000000 		.word	.LANCHOR28
 3184 0bec 00000000 		.word	.LANCHOR38
 3185 0bf0 00000000 		.word	.LANCHOR20
 3186 0bf4 16000000 		.word	.LANCHOR0+22
 3187 0bf8 D3000000 		.word	.LANCHOR2+211
 3188 0bfc 00000000 		.word	.LANCHOR9
 3189 0c00 00000000 		.word	.LANCHOR18
 3190 0c04 18000000 		.word	.LANCHOR0+24
 3191 0c08 D4000000 		.word	.LANCHOR2+212
 3192 0c0c 00000000 		.word	.LANCHOR14
 3193 0c10 1A000000 		.word	.LANCHOR0+26
 3194 0c14 D5000000 		.word	.LANCHOR2+213
 3195 0c18 00000000 		.word	.LANCHOR7
 3196 0c1c 00000000 		.word	.LANCHOR13
 3197 0c20 1C000000 		.word	.LANCHOR0+28
 3198 0c24 D6000000 		.word	.LANCHOR2+214
 3199 0c28 00000000 		.word	.LANCHOR25
 3200 0c2c 00000000 		.word	.LANCHOR0
 3201 0c30 00000000 		.word	.LANCHOR5
 3202              	.LVL282:
 3203              	.L96:
1104:HANcoder_E407_TTA_CombineModel.c ****       rtDWork.TRLS_ID5_RX_MODE = true;
 3204              		.loc 1 1104 5 view .LVU1153
1105:HANcoder_E407_TTA_CombineModel.c **** 
 3205              		.loc 1 1105 7 view .LVU1154
1112:HANcoder_E407_TTA_CombineModel.c ****         &canRxData_0_TRLS1_ID5.uint8_T_info[0], NULL);
 3206              		.loc 1 1112 28 is_stmt 0 view .LVU1155
 3207 0c34 924B     		ldr	r3, .L289+16
 3208 0c36 DFF86482 		ldr	r8, .L289+44
 3209 0c3a 1968     		ldr	r1, [r3]
 3210 0c3c 0022     		movs	r2, #0
1105:HANcoder_E407_TTA_CombineModel.c **** 
 3211              		.loc 1 1105 32 view .LVU1156
 3212 0c3e 0123     		movs	r3, #1
 3213 0c40 84F8CE30 		strb	r3, [r4, #206]
1112:HANcoder_E407_TTA_CombineModel.c ****         &canRxData_0_TRLS1_ID5.uint8_T_info[0], NULL);
 3214              		.loc 1 1112 7 is_stmt 1 view .LVU1157
1112:HANcoder_E407_TTA_CombineModel.c ****         &canRxData_0_TRLS1_ID5.uint8_T_info[0], NULL);
 3215              		.loc 1 1112 28 is_stmt 0 view .LVU1158
 3216 0c44 0092     		str	r2, [sp]
 3217 0c46 4346     		mov	r3, r8
 3218 0c48 1046     		mov	r0, r2
 3219 0c4a FFF7FEFF 		bl	CanIoGetMessage
 3220              	.LVL283:
1116:HANcoder_E407_TTA_CombineModel.c ****         /* read the data */
 3221              		.loc 1 1116 7 is_stmt 1 view .LVU1159
1116:HANcoder_E407_TTA_CombineModel.c ****         /* read the data */
 3222              		.loc 1 1116 10 is_stmt 0 view .LVU1160
 3223 0c4e 0028     		cmp	r0, #0
 3224 0c50 40F3CA80 		ble	.L279
1118:HANcoder_E407_TTA_CombineModel.c ****         rtb_SFunction_o3_m = canRxData_0_TRLS1_ID5.uint8_T_info[1];
 3225              		.loc 1 1118 9 is_stmt 1 view .LVU1161
1118:HANcoder_E407_TTA_CombineModel.c ****         rtb_SFunction_o3_m = canRxData_0_TRLS1_ID5.uint8_T_info[1];
 3226              		.loc 1 1118 28 is_stmt 0 view .LVU1162
 3227 0c54 98F80020 		ldrb	r2, [r8]	@ zero_extendqisi2
 3228              	.LVL284:
1119:HANcoder_E407_TTA_CombineModel.c ****         rtb_SFunction_o4_b = canRxData_0_TRLS1_ID5.uint8_T_info[2];
 3229              		.loc 1 1119 9 is_stmt 1 view .LVU1163
1119:HANcoder_E407_TTA_CombineModel.c ****         rtb_SFunction_o4_b = canRxData_0_TRLS1_ID5.uint8_T_info[2];
 3230              		.loc 1 1119 28 is_stmt 0 view .LVU1164
 3231 0c58 98F80110 		ldrb	r1, [r8, #1]	@ zero_extendqisi2
 3232              	.LVL285:
1120:HANcoder_E407_TTA_CombineModel.c ****         rtb_SFunction_o5_o = canRxData_0_TRLS1_ID5.uint8_T_info[3];
 3233              		.loc 1 1120 9 is_stmt 1 view .LVU1165
1121:HANcoder_E407_TTA_CombineModel.c ****         rtb_SFunction_o6_i = canRxData_0_TRLS1_ID5.uint8_T_info[4];
 3234              		.loc 1 1121 9 view .LVU1166
1122:HANcoder_E407_TTA_CombineModel.c ****         rtb_SFunction_o7_f = canRxData_0_TRLS1_ID5.uint8_T_info[5];
 3235              		.loc 1 1122 9 view .LVU1167
1123:HANcoder_E407_TTA_CombineModel.c ****         rtb_SFunction_o8_p = canRxData_0_TRLS1_ID5.uint8_T_info[6];
 3236              		.loc 1 1123 9 view .LVU1168
1124:HANcoder_E407_TTA_CombineModel.c ****         rtb_SFunction_o9_l = canRxData_0_TRLS1_ID5.uint8_T_info[7];
 3237              		.loc 1 1124 9 view .LVU1169
1125:HANcoder_E407_TTA_CombineModel.c ****       }
 3238              		.loc 1 1125 9 view .LVU1170
1129:HANcoder_E407_TTA_CombineModel.c ****                        rtb_SFunction_o3_m, rtb_SFunction_o4_b,
 3239              		.loc 1 1129 7 view .LVU1171
 3240              	.LBB174:
 3241              	.LBI174:
 270:HANcoder_E407_TTA_CombineModel.c ****                       uint8_T rtu_In3, uint8_T rtu_In4, uint8_T rtu_In5, uint8_T
 3242              		.loc 1 270 6 view .LVU1172
 3243              	.LBB175:
 275:HANcoder_E407_TTA_CombineModel.c ****   uint8_T rtb_In4_c;
 3244              		.loc 1 275 3 view .LVU1173
 276:HANcoder_E407_TTA_CombineModel.c ****   uint8_T rtb_In5_a;
 3245              		.loc 1 276 3 view .LVU1174
 277:HANcoder_E407_TTA_CombineModel.c ****   uint8_T rtb_In6_j;
 3246              		.loc 1 277 3 view .LVU1175
 278:HANcoder_E407_TTA_CombineModel.c ****   uint8_T rtb_In7_h;
 3247              		.loc 1 278 3 view .LVU1176
 279:HANcoder_E407_TTA_CombineModel.c ****   uint8_T rtb_In8_m;
 3248              		.loc 1 279 3 view .LVU1177
 280:HANcoder_E407_TTA_CombineModel.c **** 
 3249              		.loc 1 280 3 view .LVU1178
 285:HANcoder_E407_TTA_CombineModel.c ****     /* SignalConversion generated from: '<S40>/In1' */
 3250              		.loc 1 285 3 view .LVU1179
 287:HANcoder_E407_TTA_CombineModel.c **** 
 3251              		.loc 1 287 5 view .LVU1180
 287:HANcoder_E407_TTA_CombineModel.c **** 
 3252              		.loc 1 287 17 is_stmt 0 view .LVU1181
 3253 0c5c FA72     		strb	r2, [r7, #11]
 290:HANcoder_E407_TTA_CombineModel.c **** 
 3254              		.loc 1 290 5 is_stmt 1 view .LVU1182
 290:HANcoder_E407_TTA_CombineModel.c **** 
 3255              		.loc 1 290 17 is_stmt 0 view .LVU1183
 3256 0c5e 3973     		strb	r1, [r7, #12]
 293:HANcoder_E407_TTA_CombineModel.c **** 
 3257              		.loc 1 293 5 is_stmt 1 view .LVU1184
 296:HANcoder_E407_TTA_CombineModel.c **** 
 3258              		.loc 1 296 5 view .LVU1185
 299:HANcoder_E407_TTA_CombineModel.c **** 
 3259              		.loc 1 299 5 view .LVU1186
 302:HANcoder_E407_TTA_CombineModel.c **** 
 3260              		.loc 1 302 5 view .LVU1187
 305:HANcoder_E407_TTA_CombineModel.c **** 
 3261              		.loc 1 305 5 view .LVU1188
 308:HANcoder_E407_TTA_CombineModel.c ****   }
 3262              		.loc 1 308 5 view .LVU1189
 3263              	.LVL286:
 3264              	.L139:
 308:HANcoder_E407_TTA_CombineModel.c ****   }
 3265              		.loc 1 308 5 is_stmt 0 view .LVU1190
 3266              	.LBE175:
 3267              	.LBE174:
1138:HANcoder_E407_TTA_CombineModel.c **** 
 3268              		.loc 1 1138 7 is_stmt 1 view .LVU1191
1141:HANcoder_E407_TTA_CombineModel.c **** 
 3269              		.loc 1 1141 7 view .LVU1192
 3270              	.LBB176:
 3271              	.LBI176:
 436:HANcoder_E407_TTA_CombineModel.c **** {
 3272              		.loc 1 436 6 view .LVU1193
 3273              	.LBB177:
 441:HANcoder_E407_TTA_CombineModel.c **** }
 3274              		.loc 1 441 3 view .LVU1194
 441:HANcoder_E407_TTA_CombineModel.c **** }
 3275              		.loc 1 441 15 is_stmt 0 view .LVU1195
 3276 0c60 1302     		lsls	r3, r2, #8
 3277              	.LBE177:
 3278              	.LBE176:
1153:HANcoder_E407_TTA_CombineModel.c ****         rtb_Switch1);
 3279              		.loc 1 1153 33 view .LVU1196
 3280 0c62 1944     		add	r1, r1, r3
 3281              	.LBB179:
 3282              	.LBB178:
 441:HANcoder_E407_TTA_CombineModel.c **** }
 3283              		.loc 1 441 13 view .LVU1197
 3284 0c64 FB81     		strh	r3, [r7, #14]	@ movhi
 3285              	.LVL287:
 441:HANcoder_E407_TTA_CombineModel.c **** }
 3286              		.loc 1 441 13 view .LVU1198
 3287              	.LBE178:
 3288              	.LBE179:
1148:HANcoder_E407_TTA_CombineModel.c **** 
 3289              		.loc 1 1148 7 is_stmt 1 view .LVU1199
1153:HANcoder_E407_TTA_CombineModel.c ****         rtb_Switch1);
 3290              		.loc 1 1153 7 view .LVU1200
1153:HANcoder_E407_TTA_CombineModel.c ****         rtb_Switch1);
 3291              		.loc 1 1153 31 is_stmt 0 view .LVU1201
 3292 0c66 A4F8C410 		strh	r1, [r4, #196]	@ movhi
1162:HANcoder_E407_TTA_CombineModel.c **** 
 3293              		.loc 1 1162 5 is_stmt 1 view .LVU1202
1248:HANcoder_E407_TTA_CombineModel.c **** 
 3294              		.loc 1 1248 31 is_stmt 0 view .LVU1203
 3295 0c6a 3378     		ldrb	r3, [r6]	@ zero_extendqisi2
 3296              	.LVL288:
1166:HANcoder_E407_TTA_CombineModel.c **** 
 3297              		.loc 1 1166 5 is_stmt 1 view .LVU1204
 3298              	.LBB180:
 410:HANcoder_E407_TTA_CombineModel.c **** {
 3299              		.loc 1 410 6 view .LVU1205
 3300              	.LBB142:
 415:HANcoder_E407_TTA_CombineModel.c ****     /* Update for M-S-Function: '<S41>/S-Function' */
 3301              		.loc 1 415 3 view .LVU1206
 3302              	.LBE142:
 3303              	.LBE180:
1162:HANcoder_E407_TTA_CombineModel.c **** 
 3304              		.loc 1 1162 15 is_stmt 0 view .LVU1207
 3305 0c6c 0022     		movs	r2, #0
 3306              	.LVL289:
1162:HANcoder_E407_TTA_CombineModel.c **** 
 3307              		.loc 1 1162 15 view .LVU1208
 3308 0c6e FFF70BBB 		b	.L136
 3309              	.LVL290:
 3310              	.L174:
 647:HANcoder_E407_TTA_CombineModel.c ****     rtDWork.Subsystem1_MODE = false;
 3311              		.loc 1 647 13 view .LVU1209
 3312 0c72 0123     		movs	r3, #1
 3313 0c74 834F     		ldr	r7, .L289+20
 3314 0c76 844D     		ldr	r5, .L289+24
 3315 0c78 0493     		str	r3, [sp, #16]
 576:HANcoder_E407_TTA_CombineModel.c **** 
 3316              		.loc 1 576 11 view .LVU1210
 3317 0c7a 0593     		str	r3, [sp, #20]
 3318 0c7c FFF7F1B9 		b	.L66
 3319              	.LVL291:
 3320              	.L267:
 885:HANcoder_E407_TTA_CombineModel.c **** 
 3321              		.loc 1 885 15 view .LVU1211
 3322 0c80 0023     		movs	r3, #0
 3323 0c82 FFF790BA 		b	.L83
 3324              	.LVL292:
 3325              	.L270:
 988:HANcoder_E407_TTA_CombineModel.c ****       rtDWork.TRLS_ID4_RX_MODE = true;
 3326              		.loc 1 988 5 is_stmt 1 view .LVU1212
1039:HANcoder_E407_TTA_CombineModel.c ****       rtDWork.TRLS_ID4_RX_MODE = false;
 3327              		.loc 1 1039 12 view .LVU1213
1039:HANcoder_E407_TTA_CombineModel.c ****       rtDWork.TRLS_ID4_RX_MODE = false;
 3328              		.loc 1 1039 15 is_stmt 0 view .LVU1214
 3329 0c86 94F8CF20 		ldrb	r2, [r4, #207]	@ zero_extendqisi2
 3330 0c8a 002A     		cmp	r2, #0
 3331 0c8c 40F0B780 		bne	.L159
 3332              	.L160:
 3333              	.LVL293:
1051:HANcoder_E407_TTA_CombineModel.c ****       /* Outputs for Atomic SubSystem: '<S63>/Bit Shift' */
 3334              		.loc 1 1051 5 is_stmt 1 view .LVU1215
1051:HANcoder_E407_TTA_CombineModel.c ****       /* Outputs for Atomic SubSystem: '<S63>/Bit Shift' */
 3335              		.loc 1 1051 41 is_stmt 0 view .LVU1216
 3336 0c90 2A79     		ldrb	r2, [r5, #4]	@ zero_extendqisi2
1051:HANcoder_E407_TTA_CombineModel.c ****       /* Outputs for Atomic SubSystem: '<S63>/Bit Shift' */
 3337              		.loc 1 1051 21 view .LVU1217
 3338 0c92 012A     		cmp	r2, #1
 3339 0c94 3FF4E8AA 		beq	.L141
1059:HANcoder_E407_TTA_CombineModel.c **** 
 3340              		.loc 1 1059 7 is_stmt 1 view .LVU1218
 3341 0c98 B4F8C220 		ldrh	r2, [r4, #194]
1073:HANcoder_E407_TTA_CombineModel.c ****         canTxData.uint8_T_info[1] = rtB.Cast1;
 3342              		.loc 1 1073 35 is_stmt 0 view .LVU1219
 3343 0c9c 7B4B     		ldr	r3, .L289+28
 3344 0c9e 52BA     		rev16	r2, r2
1066:HANcoder_E407_TTA_CombineModel.c **** 
 3345              		.loc 1 1066 7 is_stmt 1 view .LVU1220
1073:HANcoder_E407_TTA_CombineModel.c ****         canTxData.uint8_T_info[1] = rtB.Cast1;
 3346              		.loc 1 1073 35 is_stmt 0 view .LVU1221
 3347 0ca0 1A80     		strh	r2, [r3]	@ movhi
1059:HANcoder_E407_TTA_CombineModel.c **** 
 3348              		.loc 1 1059 16 view .LVU1222
 3349 0ca2 7A80     		strh	r2, [r7, #2]	@ movhi
1073:HANcoder_E407_TTA_CombineModel.c ****         canTxData.uint8_T_info[1] = rtB.Cast1;
 3350              		.loc 1 1073 9 is_stmt 1 view .LVU1223
1074:HANcoder_E407_TTA_CombineModel.c **** 
 3351              		.loc 1 1074 9 view .LVU1224
1077:HANcoder_E407_TTA_CombineModel.c ****       }
 3352              		.loc 1 1077 9 view .LVU1225
 3353 0ca4 7A4A     		ldr	r2, .L289+32
 3354 0ca6 0020     		movs	r0, #0
 3355 0ca8 1168     		ldr	r1, [r2]
 3356 0caa 0222     		movs	r2, #2
 3357 0cac FFF7FEFF 		bl	CanTransmit
 3358              	.LVL294:
1088:HANcoder_E407_TTA_CombineModel.c **** 
 3359              		.loc 1 1088 33 is_stmt 0 view .LVU1226
 3360 0cb0 3378     		ldrb	r3, [r6]	@ zero_extendqisi2
1094:HANcoder_E407_TTA_CombineModel.c **** 
 3361              		.loc 1 1094 27 view .LVU1227
 3362 0cb2 94F8C820 		ldrb	r2, [r4, #200]	@ zero_extendqisi2
1088:HANcoder_E407_TTA_CombineModel.c **** 
 3363              		.loc 1 1088 33 view .LVU1228
 3364 0cb6 07EE903A 		vmov	s15, r3	@ int
 3365 0cba B8EEE77A 		vcvt.f32.s32	s14, s15
1094:HANcoder_E407_TTA_CombineModel.c **** 
 3366              		.loc 1 1094 27 view .LVU1229
 3367 0cbe 07EE902A 		vmov	s15, r2	@ int
1046:HANcoder_E407_TTA_CombineModel.c **** 
 3368              		.loc 1 1046 17 view .LVU1230
 3369 0cc2 0122     		movs	r2, #1
1094:HANcoder_E407_TTA_CombineModel.c **** 
 3370              		.loc 1 1094 39 view .LVU1231
 3371 0cc4 F8EEE77A 		vcvt.f32.s32	s15, s15
 3372 0cc8 FFF7CEBA 		b	.L141
 3373              	.LVL295:
 3374              	.L268:
 3375              	.LBB181:
 3376              	.LBB120:
 419:HANcoder_E407_TTA_CombineModel.c **** 
 3377              		.loc 1 419 7 is_stmt 1 view .LVU1232
 419:HANcoder_E407_TTA_CombineModel.c **** 
 3378              		.loc 1 419 33 is_stmt 0 view .LVU1233
 3379 0ccc 6F4B     		ldr	r3, .L289+28
 3380              	.LBE120:
 3381              	.LBE181:
 889:HANcoder_E407_TTA_CombineModel.c **** 
 3382              		.loc 1 889 5 view .LVU1234
 3383 0cce 714A     		ldr	r2, .L289+36
 3384              	.LBB182:
 3385              	.LBB121:
 419:HANcoder_E407_TTA_CombineModel.c **** 
 3386              		.loc 1 419 33 view .LVU1235
 3387 0cd0 0020     		movs	r0, #0
 422:HANcoder_E407_TTA_CombineModel.c ****     }
 3388              		.loc 1 422 7 view .LVU1236
 3389 0cd2 1168     		ldr	r1, [r2]
 419:HANcoder_E407_TTA_CombineModel.c **** 
 3390              		.loc 1 419 33 view .LVU1237
 3391 0cd4 1870     		strb	r0, [r3]
 422:HANcoder_E407_TTA_CombineModel.c ****     }
 3392              		.loc 1 422 7 is_stmt 1 view .LVU1238
 3393 0cd6 0122     		movs	r2, #1
 3394 0cd8 FFF7FEFF 		bl	CanTransmit
 3395              	.LVL296:
 422:HANcoder_E407_TTA_CombineModel.c ****     }
 3396              		.loc 1 422 7 is_stmt 0 view .LVU1239
 3397              	.LBE121:
 3398              	.LBE182:
 896:HANcoder_E407_TTA_CombineModel.c **** 
 3399              		.loc 1 896 33 view .LVU1240
 3400 0cdc 3378     		ldrb	r3, [r6]	@ zero_extendqisi2
 3401 0cde 07EE103A 		vmov	s14, r3	@ int
 902:HANcoder_E407_TTA_CombineModel.c **** 
 3402              		.loc 1 902 27 view .LVU1241
 3403 0ce2 94F8C830 		ldrb	r3, [r4, #200]	@ zero_extendqisi2
 3404 0ce6 07EE903A 		vmov	s15, r3	@ int
 896:HANcoder_E407_TTA_CombineModel.c **** 
 3405              		.loc 1 896 33 view .LVU1242
 3406 0cea B8EEC77A 		vcvt.f32.s32	s14, s14
 902:HANcoder_E407_TTA_CombineModel.c **** 
 3407              		.loc 1 902 39 view .LVU1243
 3408 0cee F8EEE77A 		vcvt.f32.s32	s15, s15
 885:HANcoder_E407_TTA_CombineModel.c **** 
 3409              		.loc 1 885 15 view .LVU1244
 3410 0cf2 0123     		movs	r3, #1
 3411 0cf4 9EE6     		b	.L81
 3412              	.LVL297:
 3413              	.L269:
 931:HANcoder_E407_TTA_CombineModel.c **** 
 3414              		.loc 1 931 7 is_stmt 1 view .LVU1245
 938:HANcoder_E407_TTA_CombineModel.c ****         &canRxData_0_TRCK1_ID3.uint8_T_info[0], NULL);
 3415              		.loc 1 938 29 is_stmt 0 view .LVU1246
 3416 0cf6 674B     		ldr	r3, .L289+36
 3417 0cf8 DFF8A481 		ldr	r8, .L289+48
 3418 0cfc 1968     		ldr	r1, [r3]
 3419 0cfe 0022     		movs	r2, #0
 931:HANcoder_E407_TTA_CombineModel.c **** 
 3420              		.loc 1 931 32 view .LVU1247
 3421 0d00 0123     		movs	r3, #1
 3422 0d02 84F8D030 		strb	r3, [r4, #208]
 938:HANcoder_E407_TTA_CombineModel.c ****         &canRxData_0_TRCK1_ID3.uint8_T_info[0], NULL);
 3423              		.loc 1 938 7 is_stmt 1 view .LVU1248
 938:HANcoder_E407_TTA_CombineModel.c ****         &canRxData_0_TRCK1_ID3.uint8_T_info[0], NULL);
 3424              		.loc 1 938 29 is_stmt 0 view .LVU1249
 3425 0d06 0092     		str	r2, [sp]
 3426 0d08 4346     		mov	r3, r8
 3427 0d0a 1046     		mov	r0, r2
 3428 0d0c FFF7FEFF 		bl	CanIoGetMessage
 3429              	.LVL298:
 942:HANcoder_E407_TTA_CombineModel.c ****         /* read the data */
 3430              		.loc 1 942 7 is_stmt 1 view .LVU1250
 942:HANcoder_E407_TTA_CombineModel.c ****         /* read the data */
 3431              		.loc 1 942 10 is_stmt 0 view .LVU1251
 3432 0d10 0028     		cmp	r0, #0
 3433 0d12 7FF767AA 		ble	.L89
 944:HANcoder_E407_TTA_CombineModel.c ****         rtb_SFunction_o3_a = canRxData_0_TRCK1_ID3.uint8_T_info[1];
 3434              		.loc 1 944 9 is_stmt 1 view .LVU1252
 3435              	.LVL299:
 945:HANcoder_E407_TTA_CombineModel.c ****         rtb_SFunction_o4_i = canRxData_0_TRCK1_ID3.uint8_T_info[2];
 3436              		.loc 1 945 9 view .LVU1253
 946:HANcoder_E407_TTA_CombineModel.c ****         rtb_SFunction_o5_k = canRxData_0_TRCK1_ID3.uint8_T_info[3];
 3437              		.loc 1 946 9 view .LVU1254
 947:HANcoder_E407_TTA_CombineModel.c ****         rtb_SFunction_o6_c = canRxData_0_TRCK1_ID3.uint8_T_info[4];
 3438              		.loc 1 947 9 view .LVU1255
 948:HANcoder_E407_TTA_CombineModel.c ****         rtb_SFunction_o7_d = canRxData_0_TRCK1_ID3.uint8_T_info[5];
 3439              		.loc 1 948 9 view .LVU1256
 949:HANcoder_E407_TTA_CombineModel.c ****         rtb_SFunction_o8_h = canRxData_0_TRCK1_ID3.uint8_T_info[6];
 3440              		.loc 1 949 9 view .LVU1257
 950:HANcoder_E407_TTA_CombineModel.c ****         rtb_SFunction_o9_b = canRxData_0_TRCK1_ID3.uint8_T_info[7];
 3441              		.loc 1 950 9 view .LVU1258
 951:HANcoder_E407_TTA_CombineModel.c ****       }
 3442              		.loc 1 951 9 view .LVU1259
 955:HANcoder_E407_TTA_CombineModel.c ****                        rtb_SFunction_o3_a, rtb_SFunction_o4_i,
 3443              		.loc 1 955 7 view .LVU1260
 3444              	.LBB183:
 3445              	.LBI183:
 270:HANcoder_E407_TTA_CombineModel.c ****                       uint8_T rtu_In3, uint8_T rtu_In4, uint8_T rtu_In5, uint8_T
 3446              		.loc 1 270 6 view .LVU1261
 3447              	.LBB184:
 275:HANcoder_E407_TTA_CombineModel.c ****   uint8_T rtb_In4_c;
 3448              		.loc 1 275 3 view .LVU1262
 276:HANcoder_E407_TTA_CombineModel.c ****   uint8_T rtb_In5_a;
 3449              		.loc 1 276 3 view .LVU1263
 277:HANcoder_E407_TTA_CombineModel.c ****   uint8_T rtb_In6_j;
 3450              		.loc 1 277 3 view .LVU1264
 278:HANcoder_E407_TTA_CombineModel.c ****   uint8_T rtb_In7_h;
 3451              		.loc 1 278 3 view .LVU1265
 279:HANcoder_E407_TTA_CombineModel.c ****   uint8_T rtb_In8_m;
 3452              		.loc 1 279 3 view .LVU1266
 280:HANcoder_E407_TTA_CombineModel.c **** 
 3453              		.loc 1 280 3 view .LVU1267
 285:HANcoder_E407_TTA_CombineModel.c ****     /* SignalConversion generated from: '<S40>/In1' */
 3454              		.loc 1 285 3 view .LVU1268
 287:HANcoder_E407_TTA_CombineModel.c **** 
 3455              		.loc 1 287 5 view .LVU1269
 290:HANcoder_E407_TTA_CombineModel.c **** 
 3456              		.loc 1 290 5 view .LVU1270
 287:HANcoder_E407_TTA_CombineModel.c **** 
 3457              		.loc 1 287 17 is_stmt 0 view .LVU1271
 3458 0d16 B8F80030 		ldrh	r3, [r8]
 3459 0d1a BB82     		strh	r3, [r7, #20]	@ movhi
 293:HANcoder_E407_TTA_CombineModel.c **** 
 3460              		.loc 1 293 5 is_stmt 1 view .LVU1272
 296:HANcoder_E407_TTA_CombineModel.c **** 
 3461              		.loc 1 296 5 view .LVU1273
 299:HANcoder_E407_TTA_CombineModel.c **** 
 3462              		.loc 1 299 5 view .LVU1274
 302:HANcoder_E407_TTA_CombineModel.c **** 
 3463              		.loc 1 302 5 view .LVU1275
 305:HANcoder_E407_TTA_CombineModel.c **** 
 3464              		.loc 1 305 5 view .LVU1276
 308:HANcoder_E407_TTA_CombineModel.c ****   }
 3465              		.loc 1 308 5 view .LVU1277
 3466 0d1c FFF762BA 		b	.L89
 3467              	.LVL300:
 3468              	.L254:
 308:HANcoder_E407_TTA_CombineModel.c ****   }
 3469              		.loc 1 308 5 is_stmt 0 view .LVU1278
 3470              	.LBE184:
 3471              	.LBE183:
 3472 0d20 4FF00008 		mov	r8, #0
 3473 0d24 4FF00009 		mov	r9, #0
 3474 0d28 CDE91089 		strd	r8, [sp, #64]
 3475              	.LVL301:
 308:HANcoder_E407_TTA_CombineModel.c ****   }
 3476              		.loc 1 308 5 view .LVU1279
 3477 0d2c C2E5     		b	.L120
 3478              	.LVL302:
 3479              	.L253:
1427:HANcoder_E407_TTA_CombineModel.c ****       rtb_Uk1 = 0.0;
 3480              		.loc 1 1427 7 is_stmt 1 view .LVU1280
1428:HANcoder_E407_TTA_CombineModel.c ****       csumrev[1] += csumrev[2];
 3481              		.loc 1 1428 7 view .LVU1281
1429:HANcoder_E407_TTA_CombineModel.c ****       csumrev[0] += csumrev[1];
 3482              		.loc 1 1429 7 view .LVU1282
1429:HANcoder_E407_TTA_CombineModel.c ****       csumrev[0] += csumrev[1];
 3483              		.loc 1 1429 28 is_stmt 0 view .LVU1283
 3484 0d2e 9DED187B 		vldr.64	d7, [sp, #96]
 3485 0d32 8DED087B 		vstr.64	d7, [sp, #32]
1428:HANcoder_E407_TTA_CombineModel.c ****       csumrev[1] += csumrev[2];
 3486              		.loc 1 1428 15 view .LVU1284
 3487 0d36 9FED4E7B 		vldr.64	d7, .L289
1429:HANcoder_E407_TTA_CombineModel.c ****       csumrev[0] += csumrev[1];
 3488              		.loc 1 1429 18 view .LVU1285
 3489 0d3a DDE91623 		ldrd	r2, [sp, #88]
 3490 0d3e DDE90801 		ldrd	r0, [sp, #32]
1428:HANcoder_E407_TTA_CombineModel.c ****       csumrev[1] += csumrev[2];
 3491              		.loc 1 1428 15 view .LVU1286
 3492 0d42 8DED067B 		vstr.64	d7, [sp, #24]
1429:HANcoder_E407_TTA_CombineModel.c ****       csumrev[0] += csumrev[1];
 3493              		.loc 1 1429 18 view .LVU1287
 3494 0d46 FFF7FEFF 		bl	__aeabi_dadd
 3495              	.LVL303:
 3496 0d4a 0246     		mov	r2, r0
 3497 0d4c 0B46     		mov	r3, r1
 3498 0d4e CDE90E23 		strd	r2, [sp, #56]
1430:HANcoder_E407_TTA_CombineModel.c ****     }
 3499              		.loc 1 1430 7 is_stmt 1 view .LVU1288
1430:HANcoder_E407_TTA_CombineModel.c ****     }
 3500              		.loc 1 1430 18 is_stmt 0 view .LVU1289
 3501 0d52 DDE91423 		ldrd	r2, [sp, #80]
 3502 0d56 FFF7FEFF 		bl	__aeabi_dadd
 3503              	.LVL304:
1427:HANcoder_E407_TTA_CombineModel.c ****       rtb_Uk1 = 0.0;
 3504              		.loc 1 1427 22 view .LVU1290
 3505 0d5a 9FED477B 		vldr.64	d7, .L289+8
1430:HANcoder_E407_TTA_CombineModel.c ****     }
 3506              		.loc 1 1430 18 view .LVU1291
 3507 0d5e CDE90C01 		strd	r0, [sp, #48]
1427:HANcoder_E407_TTA_CombineModel.c ****       rtb_Uk1 = 0.0;
 3508              		.loc 1 1427 22 view .LVU1292
 3509 0d62 8DED0A7B 		vstr.64	d7, [sp, #40]
 3510 0d66 5DE5     		b	.L119
 3511              	.LVL305:
 3512              	.L277:
1410:HANcoder_E407_TTA_CombineModel.c ****     rtb_Uk1 = obj->pCumSum;
 3513              		.loc 1 1410 20 view .LVU1293
 3514 0d68 DAE90A89 		ldrd	r8, [r10, #40]
1420:HANcoder_E407_TTA_CombineModel.c ****     }
 3515              		.loc 1 1420 19 view .LVU1294
 3516 0d6c 4946     		mov	r1, r9
 3517 0d6e 4046     		mov	r0, r8
 3518              	.LVL306:
1420:HANcoder_E407_TTA_CombineModel.c ****     }
 3519              		.loc 1 1420 19 view .LVU1295
 3520 0d70 FFF7FEFF 		bl	__aeabi_d2iz
 3521              	.LVL307:
 3522 0d74 0346     		mov	r3, r0
1414:HANcoder_E407_TTA_CombineModel.c ****     rtb_Sum = obj->pModValueRev;
 3523              		.loc 1 1414 33 view .LVU1296
 3524 0d76 9AED088B 		vldr.64	d8, [r10, #32]
 3525              	.LVL308:
1418:HANcoder_E407_TTA_CombineModel.c ****     if (rtb_Sum == 0.0) {
 3526              		.loc 1 1418 16 view .LVU1297
 3527 0d7a 5846     		mov	r0, fp
1413:HANcoder_E407_TTA_CombineModel.c ****     csumrev[2] = obj->pCumSumRev[2];
 3528              		.loc 1 1413 33 view .LVU1298
 3529 0d7c 9AED069B 		vldr.64	d9, [r10, #24]
 3530              	.LVL309:
1420:HANcoder_E407_TTA_CombineModel.c ****     }
 3531              		.loc 1 1420 43 view .LVU1299
 3532 0d80 03F1FF3B 		add	fp, r3, #-1
 3533              	.LVL310:
1410:HANcoder_E407_TTA_CombineModel.c ****     rtb_Uk1 = obj->pCumSum;
 3534              		.loc 1 1410 5 is_stmt 1 view .LVU1300
1411:HANcoder_E407_TTA_CombineModel.c ****     csumrev[0] = obj->pCumSumRev[0];
 3535              		.loc 1 1411 5 view .LVU1301
1412:HANcoder_E407_TTA_CombineModel.c ****     csumrev[1] = obj->pCumSumRev[1];
 3536              		.loc 1 1412 5 view .LVU1302
1412:HANcoder_E407_TTA_CombineModel.c ****     csumrev[1] = obj->pCumSumRev[1];
 3537              		.loc 1 1412 16 is_stmt 0 view .LVU1303
 3538 0d84 DAE90423 		ldrd	r2, [r10, #16]
1414:HANcoder_E407_TTA_CombineModel.c ****     rtb_Sum = obj->pModValueRev;
 3539              		.loc 1 1414 16 view .LVU1304
 3540 0d88 8DED188B 		vstr.64	d8, [sp, #96]
1412:HANcoder_E407_TTA_CombineModel.c ****     csumrev[1] = obj->pCumSumRev[1];
 3541              		.loc 1 1412 16 view .LVU1305
 3542 0d8c CDE91423 		strd	r2, [sp, #80]
1413:HANcoder_E407_TTA_CombineModel.c ****     csumrev[2] = obj->pCumSumRev[2];
 3543              		.loc 1 1413 5 is_stmt 1 view .LVU1306
1414:HANcoder_E407_TTA_CombineModel.c ****     rtb_Sum = obj->pModValueRev;
 3544              		.loc 1 1414 5 view .LVU1307
1415:HANcoder_E407_TTA_CombineModel.c ****     z = 0.0;
 3545              		.loc 1 1415 5 view .LVU1308
 3546              	.LVL311:
1416:HANcoder_E407_TTA_CombineModel.c ****     rtb_Uk1_tmp = 0.0;
 3547              		.loc 1 1416 5 view .LVU1309
1417:HANcoder_E407_TTA_CombineModel.c ****     rtb_Uk1 += (real_T)rtb_Level2MfileSFunction_k;
 3548              		.loc 1 1417 5 view .LVU1310
1418:HANcoder_E407_TTA_CombineModel.c ****     if (rtb_Sum == 0.0) {
 3549              		.loc 1 1418 5 view .LVU1311
1413:HANcoder_E407_TTA_CombineModel.c ****     csumrev[2] = obj->pCumSumRev[2];
 3550              		.loc 1 1413 16 is_stmt 0 view .LVU1312
 3551 0d90 8DED169B 		vstr.64	d9, [sp, #88]
1418:HANcoder_E407_TTA_CombineModel.c ****     if (rtb_Sum == 0.0) {
 3552              		.loc 1 1418 16 view .LVU1313
 3553 0d94 FFF7FEFF 		bl	__aeabi_i2d
 3554              	.LVL312:
1418:HANcoder_E407_TTA_CombineModel.c ****     if (rtb_Sum == 0.0) {
 3555              		.loc 1 1418 16 view .LVU1314
 3556 0d98 0246     		mov	r2, r0
 3557 0d9a 0B46     		mov	r3, r1
 3558 0d9c CDE90823 		strd	r2, [sp, #32]
1411:HANcoder_E407_TTA_CombineModel.c ****     csumrev[0] = obj->pCumSumRev[0];
 3559              		.loc 1 1411 13 view .LVU1315
 3560 0da0 DAE90223 		ldrd	r2, [r10, #8]
 3561              	.LVL313:
1418:HANcoder_E407_TTA_CombineModel.c ****     if (rtb_Sum == 0.0) {
 3562              		.loc 1 1418 13 view .LVU1316
 3563 0da4 FFF7FEFF 		bl	__aeabi_dadd
 3564              	.LVL314:
1415:HANcoder_E407_TTA_CombineModel.c ****     z = 0.0;
 3565              		.loc 1 1415 13 view .LVU1317
 3566 0da8 9AED0C7B 		vldr.64	d7, [r10, #48]
 3567              	.LVL315:
1418:HANcoder_E407_TTA_CombineModel.c ****     if (rtb_Sum == 0.0) {
 3568              		.loc 1 1418 13 view .LVU1318
 3569 0dac CDE90601 		strd	r0, [sp, #24]
 3570              	.LVL316:
1419:HANcoder_E407_TTA_CombineModel.c ****       z = csumrev[(int32_T)rtb_Integrator - 1] + rtb_Uk1;
 3571              		.loc 1 1419 5 is_stmt 1 view .LVU1319
1415:HANcoder_E407_TTA_CombineModel.c ****     z = 0.0;
 3572              		.loc 1 1415 13 is_stmt 0 view .LVU1320
 3573 0db0 B0EE478A 		vmov.f32	s16, s14
 3574 0db4 F0EE678A 		vmov.f32	s17, s15
1419:HANcoder_E407_TTA_CombineModel.c ****       z = csumrev[(int32_T)rtb_Integrator - 1] + rtb_Uk1;
 3575              		.loc 1 1419 8 view .LVU1321
 3576 0db8 51EC170B 		vmov	r0, r1, d7
 3577              	.LVL317:
1419:HANcoder_E407_TTA_CombineModel.c ****       z = csumrev[(int32_T)rtb_Integrator - 1] + rtb_Uk1;
 3578              		.loc 1 1419 8 view .LVU1322
 3579 0dbc 0022     		movs	r2, #0
 3580 0dbe 0023     		movs	r3, #0
 3581 0dc0 FFF7FEFF 		bl	__aeabi_dcmpeq
 3582              	.LVL318:
1419:HANcoder_E407_TTA_CombineModel.c ****       z = csumrev[(int32_T)rtb_Integrator - 1] + rtb_Uk1;
 3583              		.loc 1 1419 8 view .LVU1323
 3584 0dc4 0028     		cmp	r0, #0
 3585 0dc6 7FF4FBAC 		bne	.L115
1416:HANcoder_E407_TTA_CombineModel.c ****     rtb_Uk1_tmp = 0.0;
 3586              		.loc 1 1416 7 view .LVU1324
 3587 0dca 9FED297B 		vldr.64	d7, .L289
 3588 0dce 4FEACB0B 		lsl	fp, fp, #3
 3589 0dd2 8DED107B 		vstr.64	d7, [sp, #64]
 3590 0dd6 00E5     		b	.L116
 3591              	.LVL319:
 3592              	.L255:
1445:HANcoder_E407_TTA_CombineModel.c ****     }
 3593              		.loc 1 1445 25 view .LVU1325
 3594 0dd8 0020     		movs	r0, #0
 3595 0dda 0021     		movs	r1, #0
 3596 0ddc 8DE5     		b	.L122
 3597              	.LVL320:
 3598              	.L177:
1348:HANcoder_E407_TTA_CombineModel.c ****     } else {
 3599              		.loc 1 1348 19 view .LVU1326
 3600 0dde DFF8C4B0 		ldr	fp, .L289+52
 3601 0de2 4FF0000A 		mov	r10, #0
 3602 0de6 59E4     		b	.L111
 3603              	.LVL321:
 3604              	.L279:
1138:HANcoder_E407_TTA_CombineModel.c **** 
 3605              		.loc 1 1138 42 view .LVU1327
 3606 0de8 FA7A     		ldrb	r2, [r7, #11]	@ zero_extendqisi2
1148:HANcoder_E407_TTA_CombineModel.c **** 
 3607              		.loc 1 1148 43 view .LVU1328
 3608 0dea 397B     		ldrb	r1, [r7, #12]	@ zero_extendqisi2
 3609 0dec 38E7     		b	.L139
 3610              	.LVL322:
 3611              	.L271:
1022:HANcoder_E407_TTA_CombineModel.c **** 
 3612              		.loc 1 1022 43 view .LVU1329
 3613 0dee 3A7C     		ldrb	r2, [r7, #16]	@ zero_extendqisi2
1032:HANcoder_E407_TTA_CombineModel.c **** 
 3614              		.loc 1 1032 43 view .LVU1330
 3615 0df0 797C     		ldrb	r1, [r7, #17]	@ zero_extendqisi2
 3616 0df2 FFF728BA 		b	.L143
 3617              	.LVL323:
 3618              	.L276:
1378:HANcoder_E407_TTA_CombineModel.c ****     }
 3619              		.loc 1 1378 7 is_stmt 1 view .LVU1331
 3620 0df6 0120     		movs	r0, #1
 3621 0df8 FFF7FEFF 		bl	QuadEncResetCounter
 3622              	.LVL324:
 3623 0dfc ADE4     		b	.L112
 3624              	.LVL325:
 3625              	.L159:
1040:HANcoder_E407_TTA_CombineModel.c ****     }
 3626              		.loc 1 1040 7 view .LVU1332
1040:HANcoder_E407_TTA_CombineModel.c ****     }
 3627              		.loc 1 1040 32 is_stmt 0 view .LVU1333
 3628 0dfe 0022     		movs	r2, #0
 3629 0e00 84F8CF20 		strb	r2, [r4, #207]
1046:HANcoder_E407_TTA_CombineModel.c **** 
 3630              		.loc 1 1046 5 is_stmt 1 view .LVU1334
 3631 0e04 44E7     		b	.L160
 3632              	.LVL326:
 3633              	.L275:
1350:HANcoder_E407_TTA_CombineModel.c ****     }
 3634              		.loc 1 1350 19 is_stmt 0 view .LVU1335
 3635 0e06 4FF0000B 		mov	fp, #0
 3636 0e0a 47E4     		b	.L111
 3637              	.LVL327:
 3638              	.L273:
 752:HANcoder_E407_TTA_CombineModel.c ****       rtDWork.SYNC1_RX_MODE = true;
 3639              		.loc 1 752 5 is_stmt 1 view .LVU1336
 785:HANcoder_E407_TTA_CombineModel.c ****       rtDWork.SYNC1_RX_MODE = false;
 3640              		.loc 1 785 12 view .LVU1337
 785:HANcoder_E407_TTA_CombineModel.c ****       rtDWork.SYNC1_RX_MODE = false;
 3641              		.loc 1 785 15 is_stmt 0 view .LVU1338
 3642 0e0c 94F8D130 		ldrb	r3, [r4, #209]	@ zero_extendqisi2
 3643 0e10 13B1     		cbz	r3, .L166
 786:HANcoder_E407_TTA_CombineModel.c ****     }
 3644              		.loc 1 786 7 is_stmt 1 view .LVU1339
 786:HANcoder_E407_TTA_CombineModel.c ****     }
 3645              		.loc 1 786 29 is_stmt 0 view .LVU1340
 3646 0e12 0023     		movs	r3, #0
 3647 0e14 84F8D130 		strb	r3, [r4, #209]
 792:HANcoder_E407_TTA_CombineModel.c **** 
 3648              		.loc 1 792 5 is_stmt 1 view .LVU1341
 3649              	.L166:
 797:HANcoder_E407_TTA_CombineModel.c ****       /* DataStoreRead: '<S26>/Data Store Read1' */
 3650              		.loc 1 797 17 is_stmt 0 view .LVU1342
 3651 0e18 2B7A     		ldrb	r3, [r5, #8]	@ zero_extendqisi2
 792:HANcoder_E407_TTA_CombineModel.c **** 
 3652              		.loc 1 792 13 view .LVU1343
 3653 0e1a DFF88C80 		ldr	r8, .L289+56
 3654 0e1e 0122     		movs	r2, #1
 797:HANcoder_E407_TTA_CombineModel.c ****       /* DataStoreRead: '<S26>/Data Store Read1' */
 3655              		.loc 1 797 17 view .LVU1344
 3656 0e20 9342     		cmp	r3, r2
 792:HANcoder_E407_TTA_CombineModel.c **** 
 3657              		.loc 1 792 13 view .LVU1345
 3658 0e22 88F80020 		strb	r2, [r8]
 797:HANcoder_E407_TTA_CombineModel.c ****       /* DataStoreRead: '<S26>/Data Store Read1' */
 3659              		.loc 1 797 5 is_stmt 1 view .LVU1346
 797:HANcoder_E407_TTA_CombineModel.c ****       /* DataStoreRead: '<S26>/Data Store Read1' */
 3660              		.loc 1 797 17 is_stmt 0 view .LVU1347
 3661 0e26 3FF436AE 		beq	.L256
 799:HANcoder_E407_TTA_CombineModel.c **** 
 3662              		.loc 1 799 7 is_stmt 1 view .LVU1348
 822:HANcoder_E407_TTA_CombineModel.c ****         canTxData.uint8_T_info[1] = ((uint8_T)1U);
 3663              		.loc 1 822 35 is_stmt 0 view .LVU1349
 3664 0e2a 184B     		ldr	r3, .L289+28
 799:HANcoder_E407_TTA_CombineModel.c **** 
 3665              		.loc 1 799 19 view .LVU1350
 3666 0e2c DFF87CC0 		ldr	ip, .L289+60
 823:HANcoder_E407_TTA_CombineModel.c ****         canTxData.uint8_T_info[2] = ((uint8_T)0U);
 3667              		.loc 1 823 35 view .LVU1351
 3668 0e30 5A70     		strb	r2, [r3, #1]
 799:HANcoder_E407_TTA_CombineModel.c **** 
 3669              		.loc 1 799 28 view .LVU1352
 3670 0e32 B4F8C620 		ldrh	r2, [r4, #198]
 799:HANcoder_E407_TTA_CombineModel.c **** 
 3671              		.loc 1 799 19 view .LVU1353
 3672 0e36 ACF80020 		strh	r2, [ip]	@ movhi
 805:HANcoder_E407_TTA_CombineModel.c **** 
 3673              		.loc 1 805 7 is_stmt 1 view .LVU1354
 805:HANcoder_E407_TTA_CombineModel.c **** 
 3674              		.loc 1 805 27 is_stmt 0 view .LVU1355
 3675 0e3a 0132     		adds	r2, r2, #1
 805:HANcoder_E407_TTA_CombineModel.c **** 
 3676              		.loc 1 805 25 view .LVU1356
 3677 0e3c A4F8C620 		strh	r2, [r4, #198]	@ movhi
 808:HANcoder_E407_TTA_CombineModel.c **** 
 3678              		.loc 1 808 7 is_stmt 1 view .LVU1357
 832:HANcoder_E407_TTA_CombineModel.c ****       }
 3679              		.loc 1 832 9 is_stmt 0 view .LVU1358
 3680 0e40 1549     		ldr	r1, .L289+40
 808:HANcoder_E407_TTA_CombineModel.c **** 
 3681              		.loc 1 808 34 view .LVU1359
 3682 0e42 94F8C920 		ldrb	r2, [r4, #201]	@ zero_extendqisi2
 822:HANcoder_E407_TTA_CombineModel.c ****         canTxData.uint8_T_info[1] = ((uint8_T)1U);
 3683              		.loc 1 822 35 view .LVU1360
 3684 0e46 1A70     		strb	r2, [r3]
 824:HANcoder_E407_TTA_CombineModel.c ****         canTxData.uint8_T_info[3] = ((uint8_T)0U);
 3685              		.loc 1 824 35 view .LVU1361
 3686 0e48 0020     		movs	r0, #0
 808:HANcoder_E407_TTA_CombineModel.c **** 
 3687              		.loc 1 808 25 view .LVU1362
 3688 0e4a 3A71     		strb	r2, [r7, #4]
 822:HANcoder_E407_TTA_CombineModel.c ****         canTxData.uint8_T_info[1] = ((uint8_T)1U);
 3689              		.loc 1 822 9 is_stmt 1 view .LVU1363
 823:HANcoder_E407_TTA_CombineModel.c ****         canTxData.uint8_T_info[2] = ((uint8_T)0U);
 3690              		.loc 1 823 9 view .LVU1364
 824:HANcoder_E407_TTA_CombineModel.c ****         canTxData.uint8_T_info[3] = ((uint8_T)0U);
 3691              		.loc 1 824 9 view .LVU1365
 825:HANcoder_E407_TTA_CombineModel.c ****         canTxData.uint8_T_info[4] = ((uint8_T)0U);
 3692              		.loc 1 825 9 view .LVU1366
 826:HANcoder_E407_TTA_CombineModel.c ****         canTxData.uint8_T_info[5] = ((uint8_T)0U);
 3693              		.loc 1 826 9 view .LVU1367
 827:HANcoder_E407_TTA_CombineModel.c ****         canTxData.uint8_T_info[6] = ((uint8_T)0U);
 3694              		.loc 1 827 9 view .LVU1368
 828:HANcoder_E407_TTA_CombineModel.c ****         canTxData.uint8_T_info[7] = ((uint8_T)1U);
 3695              		.loc 1 828 9 view .LVU1369
 829:HANcoder_E407_TTA_CombineModel.c **** 
 3696              		.loc 1 829 9 view .LVU1370
 826:HANcoder_E407_TTA_CombineModel.c ****         canTxData.uint8_T_info[5] = ((uint8_T)0U);
 3697              		.loc 1 826 35 is_stmt 0 view .LVU1371
 3698 0e4c 4FF08072 		mov	r2, #16777216
 3699 0e50 5A60     		str	r2, [r3, #4]
 832:HANcoder_E407_TTA_CombineModel.c ****       }
 3700              		.loc 1 832 9 is_stmt 1 view .LVU1372
 3701 0e52 0968     		ldr	r1, [r1]
 824:HANcoder_E407_TTA_CombineModel.c ****         canTxData.uint8_T_info[3] = ((uint8_T)0U);
 3702              		.loc 1 824 35 is_stmt 0 view .LVU1373
 3703 0e54 5880     		strh	r0, [r3, #2]	@ movhi
 832:HANcoder_E407_TTA_CombineModel.c ****       }
 3704              		.loc 1 832 9 view .LVU1374
 3705 0e56 0822     		movs	r2, #8
 3706 0e58 FFF7FEFF 		bl	CanTransmit
 3707              	.LVL328:
 836:HANcoder_E407_TTA_CombineModel.c **** 
 3708              		.loc 1 836 40 view .LVU1375
 3709 0e5c 98F80010 		ldrb	r1, [r8]	@ zero_extendqisi2
 843:HANcoder_E407_TTA_CombineModel.c **** 
 3710              		.loc 1 843 33 view .LVU1376
 3711 0e60 3378     		ldrb	r3, [r6]	@ zero_extendqisi2
 850:HANcoder_E407_TTA_CombineModel.c **** 
 3712              		.loc 1 850 42 view .LVU1377
 3713 0e62 94F8C820 		ldrb	r2, [r4, #200]	@ zero_extendqisi2
 3714 0e66 FFF75DB9 		b	.L149
 3715              	.L290:
 3716 0e6a 00BFAFF3 		.align	3
 3716      0080
 3717              	.L289:
 3718 0e70 00000000 		.word	0
 3719 0e74 00000000 		.word	0
 3720 0e78 00000000 		.word	0
 3721 0e7c 0000F03F 		.word	1072693248
 3722 0e80 00000000 		.word	.LANCHOR25
 3723 0e84 00000000 		.word	.LANCHOR0
 3724 0e88 00000000 		.word	.LANCHOR5
 3725 0e8c 00000000 		.word	.LANCHOR9
 3726 0e90 00000000 		.word	.LANCHOR23
 3727 0e94 00000000 		.word	.LANCHOR19
 3728 0e98 00000000 		.word	.LANCHOR12
 3729 0e9c 00000000 		.word	.LANCHOR24
 3730 0ea0 00000000 		.word	.LANCHOR21
 3731 0ea4 0000F0BF 		.word	-1074790400
 3732 0ea8 00000000 		.word	.LANCHOR17
 3733 0eac 00000000 		.word	.LANCHOR16
 3734              		.cfi_endproc
 3735              	.LFE123:
 3737              		.section	.rodata.HANcoder_E407_TTA_CombineModel_initialize.str1.4,"aMS",%progbits,1
 3738              		.align	2
 3739              	.LC1:
 3740 0000 48414E63 		.ascii	"HANcoder_E407_TTA_CombineModel.c\000"
 3740      6F646572 
 3740      5F453430 
 3740      375F5454 
 3740      415F436F 
 3741              		.section	.text.HANcoder_E407_TTA_CombineModel_initialize,"ax",%progbits
 3742              		.align	1
 3743              		.p2align 2,,3
 3744              		.global	HANcoder_E407_TTA_CombineModel_initialize
 3745              		.syntax unified
 3746              		.thumb
 3747              		.thumb_func
 3749              	HANcoder_E407_TTA_CombineModel_initialize:
 3750              	.LFB124:
1651:HANcoder_E407_TTA_CombineModel.c **** 
1652:HANcoder_E407_TTA_CombineModel.c **** /* Model initialize function */
1653:HANcoder_E407_TTA_CombineModel.c **** void HANcoder_E407_TTA_CombineModel_initialize(void)
1654:HANcoder_E407_TTA_CombineModel.c **** {
 3751              		.loc 1 1654 1 is_stmt 1 view -0
 3752              		.cfi_startproc
 3753              		@ args = 0, pretend = 0, frame = 16
 3754              		@ frame_needed = 0, uses_anonymous_args = 0
 3755              	.LBB185:
1655:HANcoder_E407_TTA_CombineModel.c ****   {
1656:HANcoder_E407_TTA_CombineModel.c ****     g_dsp_internal_SlidingWindowAve *obj;
 3756              		.loc 1 1656 5 view .LVU1379
 3757              	.LBB186:
1657:HANcoder_E407_TTA_CombineModel.c **** 
1658:HANcoder_E407_TTA_CombineModel.c ****     {
1659:HANcoder_E407_TTA_CombineModel.c ****       /* user code (Start function Header) */
1660:HANcoder_E407_TTA_CombineModel.c ****       uint8_t canResult1;
 3758              		.loc 1 1660 7 view .LVU1380
1661:HANcoder_E407_TTA_CombineModel.c ****       tCanFilter canFilter1;
 3759              		.loc 1 1661 7 view .LVU1381
1662:HANcoder_E407_TTA_CombineModel.c **** 
1663:HANcoder_E407_TTA_CombineModel.c ****       /* user code (Start function Body) */
1664:HANcoder_E407_TTA_CombineModel.c **** 
1665:HANcoder_E407_TTA_CombineModel.c ****       /* initialize the CAN driver. */
1666:HANcoder_E407_TTA_CombineModel.c ****       CanInit(64, 8);
 3760              		.loc 1 1666 7 view .LVU1382
 3761              	.LBE186:
 3762              	.LBE185:
1654:HANcoder_E407_TTA_CombineModel.c ****   {
 3763              		.loc 1 1654 1 is_stmt 0 view .LVU1383
 3764 0000 30B5     		push	{r4, r5, lr}
 3765              		.cfi_def_cfa_offset 12
 3766              		.cfi_offset 4, -12
 3767              		.cfi_offset 5, -8
 3768              		.cfi_offset 14, -4
 3769              	.LBB211:
 3770              	.LBB209:
 3771              		.loc 1 1666 7 view .LVU1384
 3772 0002 0821     		movs	r1, #8
 3773              	.LBE209:
 3774              	.LBE211:
1654:HANcoder_E407_TTA_CombineModel.c ****   {
 3775              		.loc 1 1654 1 view .LVU1385
 3776 0004 85B0     		sub	sp, sp, #20
 3777              		.cfi_def_cfa_offset 32
 3778              	.LBB212:
 3779              	.LBB210:
 3780              		.loc 1 1666 7 view .LVU1386
 3781 0006 4020     		movs	r0, #64
 3782 0008 FFF7FEFF 		bl	CanInit
 3783              	.LVL329:
1667:HANcoder_E407_TTA_CombineModel.c **** 
1668:HANcoder_E407_TTA_CombineModel.c ****       /* initialize the CAN I/O module for channel 1 */
1669:HANcoder_E407_TTA_CombineModel.c ****       CanIoInit(0);
 3784              		.loc 1 1669 7 is_stmt 1 view .LVU1387
1670:HANcoder_E407_TTA_CombineModel.c **** 
1671:HANcoder_E407_TTA_CombineModel.c ****       /* initialize the timer module for output compare. */
1672:HANcoder_E407_TTA_CombineModel.c ****       TimeoutInitModule(TIMEOUT_MODULE_TIM4, 1000000);
1673:HANcoder_E407_TTA_CombineModel.c **** 
1674:HANcoder_E407_TTA_CombineModel.c ****       /* Start for Enabled SubSystem: '<S13>/Subsystem1' */
1675:HANcoder_E407_TTA_CombineModel.c ****       /* Start for M-S-Function: '<S74>/S-Function' incorporates:
1676:HANcoder_E407_TTA_CombineModel.c ****        *  Constant: '<S73>/Constant1'
1677:HANcoder_E407_TTA_CombineModel.c ****        */
1678:HANcoder_E407_TTA_CombineModel.c **** 
1679:HANcoder_E407_TTA_CombineModel.c ****       /* register a CAN storage buffer for the message with this ID */
1680:HANcoder_E407_TTA_CombineModel.c ****       CanIoCreateMessageReceivedStorage(0, SYNC1_ID);
 3785              		.loc 1 1680 7 is_stmt 0 view .LVU1388
 3786 000c 5D4C     		ldr	r4, .L298
1669:HANcoder_E407_TTA_CombineModel.c **** 
 3787              		.loc 1 1669 7 view .LVU1389
 3788 000e 0020     		movs	r0, #0
 3789 0010 FFF7FEFF 		bl	CanIoInit
 3790              	.LVL330:
1672:HANcoder_E407_TTA_CombineModel.c **** 
 3791              		.loc 1 1672 7 is_stmt 1 view .LVU1390
 3792 0014 5C49     		ldr	r1, .L298+4
 3793 0016 0320     		movs	r0, #3
 3794 0018 FFF7FEFF 		bl	TimeoutInitModule
 3795              	.LVL331:
 3796              		.loc 1 1680 7 view .LVU1391
 3797 001c 2168     		ldr	r1, [r4]
 3798 001e 0020     		movs	r0, #0
 3799 0020 FFF7FEFF 		bl	CanIoCreateMessageReceivedStorage
 3800              	.LVL332:
1681:HANcoder_E407_TTA_CombineModel.c **** 
1682:HANcoder_E407_TTA_CombineModel.c ****       /* End of Start for SubSystem: '<S13>/Subsystem1' */
1683:HANcoder_E407_TTA_CombineModel.c **** 
1684:HANcoder_E407_TTA_CombineModel.c ****       /* register the callback handler */
1685:HANcoder_E407_TTA_CombineModel.c ****       TimeoutRegisterCompareEventCallback(TIMEOUT_TIM4_PIN_PD12,
 3801              		.loc 1 1685 7 view .LVU1392
 3802 0024 5949     		ldr	r1, .L298+8
 3803 0026 0720     		movs	r0, #7
 3804 0028 FFF7FEFF 		bl	TimeoutRegisterCompareEventCallback
 3805              	.LVL333:
1686:HANcoder_E407_TTA_CombineModel.c ****         TimeoutEventIRQ_TIMEOUT_TIM4_PIN_PD12);
1687:HANcoder_E407_TTA_CombineModel.c **** 
1688:HANcoder_E407_TTA_CombineModel.c ****       /* End of Start for S-Function (sfcn_timeout_event_irq): '<S4>/S-Function' */
1689:HANcoder_E407_TTA_CombineModel.c **** 
1690:HANcoder_E407_TTA_CombineModel.c ****       /* Start for Enabled SubSystem: '<S1>/Message selector'
1691:HANcoder_E407_TTA_CombineModel.c ****        *
1692:HANcoder_E407_TTA_CombineModel.c ****        * Block description for '<S1>/Message selector':
1693:HANcoder_E407_TTA_CombineModel.c ****        *  Truck 1
1694:HANcoder_E407_TTA_CombineModel.c ****        */
1695:HANcoder_E407_TTA_CombineModel.c ****       /* Start for Enabled SubSystem: '<S11>/MMBS1_RX' */
1696:HANcoder_E407_TTA_CombineModel.c ****       /* Constant: '<S11>/Constant12' */
1697:HANcoder_E407_TTA_CombineModel.c ****       MMBS1_RX_Start(MMBS1_ID);
 3806              		.loc 1 1697 7 view .LVU1393
 3807              	.LBB187:
 3808              	.LBI187:
 333:HANcoder_E407_TTA_CombineModel.c **** {
 3809              		.loc 1 333 6 view .LVU1394
 3810              	.LBB188:
 338:HANcoder_E407_TTA_CombineModel.c **** }
 3811              		.loc 1 338 3 view .LVU1395
 3812              	.LBE188:
 3813              	.LBE187:
 3814              		.loc 1 1697 7 is_stmt 0 view .LVU1396
 3815 002c 584B     		ldr	r3, .L298+12
 3816              	.LBB190:
 3817              	.LBB189:
 338:HANcoder_E407_TTA_CombineModel.c **** }
 3818              		.loc 1 338 3 view .LVU1397
 3819 002e 0020     		movs	r0, #0
 3820 0030 1968     		ldr	r1, [r3]
 3821 0032 FFF7FEFF 		bl	CanIoCreateMessageReceivedStorage
 3822              	.LVL334:
 338:HANcoder_E407_TTA_CombineModel.c **** }
 3823              		.loc 1 338 3 view .LVU1398
 3824              	.LBE189:
 3825              	.LBE190:
1698:HANcoder_E407_TTA_CombineModel.c **** 
1699:HANcoder_E407_TTA_CombineModel.c ****       /* End of Start for SubSystem: '<S11>/MMBS1_RX' */
1700:HANcoder_E407_TTA_CombineModel.c **** 
1701:HANcoder_E407_TTA_CombineModel.c ****       /* Start for Enabled SubSystem: '<S11>/SSTM1_RX' */
1702:HANcoder_E407_TTA_CombineModel.c ****       /* Constant: '<S11>/Constant14' */
1703:HANcoder_E407_TTA_CombineModel.c ****       MMBS1_RX_Start(SSTM1_ID);
 3826              		.loc 1 1703 7 is_stmt 1 view .LVU1399
 3827              	.LBB191:
 3828              	.LBI191:
 333:HANcoder_E407_TTA_CombineModel.c **** {
 3829              		.loc 1 333 6 view .LVU1400
 3830              	.LBB192:
 338:HANcoder_E407_TTA_CombineModel.c **** }
 3831              		.loc 1 338 3 view .LVU1401
 3832              	.LBE192:
 3833              	.LBE191:
 3834              		.loc 1 1703 7 is_stmt 0 view .LVU1402
 3835 0036 574B     		ldr	r3, .L298+16
 3836              	.LBB194:
 3837              	.LBB193:
 338:HANcoder_E407_TTA_CombineModel.c **** }
 3838              		.loc 1 338 3 view .LVU1403
 3839 0038 0020     		movs	r0, #0
 3840 003a 1968     		ldr	r1, [r3]
 3841 003c FFF7FEFF 		bl	CanIoCreateMessageReceivedStorage
 3842              	.LVL335:
 338:HANcoder_E407_TTA_CombineModel.c **** }
 3843              		.loc 1 338 3 view .LVU1404
 3844              	.LBE193:
 3845              	.LBE194:
1704:HANcoder_E407_TTA_CombineModel.c **** 
1705:HANcoder_E407_TTA_CombineModel.c ****       /* End of Start for SubSystem: '<S11>/SSTM1_RX' */
1706:HANcoder_E407_TTA_CombineModel.c **** 
1707:HANcoder_E407_TTA_CombineModel.c ****       /* Start for Enabled SubSystem: '<S11>/SYNC1_RX' */
1708:HANcoder_E407_TTA_CombineModel.c ****       /* Start for M-S-Function: '<S45>/S-Function' incorporates:
1709:HANcoder_E407_TTA_CombineModel.c ****        *  Constant: '<S11>/Constant10'
1710:HANcoder_E407_TTA_CombineModel.c ****        */
1711:HANcoder_E407_TTA_CombineModel.c **** 
1712:HANcoder_E407_TTA_CombineModel.c ****       /* register a CAN storage buffer for the message with this ID */
1713:HANcoder_E407_TTA_CombineModel.c ****       CanIoCreateMessageReceivedStorage(0, SYNC1_ID);
 3846              		.loc 1 1713 7 is_stmt 1 view .LVU1405
 3847 0040 2168     		ldr	r1, [r4]
1714:HANcoder_E407_TTA_CombineModel.c **** 
1715:HANcoder_E407_TTA_CombineModel.c ****       /* End of Start for SubSystem: '<S11>/SYNC1_RX' */
1716:HANcoder_E407_TTA_CombineModel.c **** 
1717:HANcoder_E407_TTA_CombineModel.c ****       /* Start for Enabled SubSystem: '<S11>/TRCK1_ID2_RX' */
1718:HANcoder_E407_TTA_CombineModel.c ****       /* Constant: '<S11>/Constant5' */
1719:HANcoder_E407_TTA_CombineModel.c ****       MMBS1_RX_Start(TRCK1_ID2);
1720:HANcoder_E407_TTA_CombineModel.c **** 
1721:HANcoder_E407_TTA_CombineModel.c ****       /* End of Start for SubSystem: '<S11>/TRCK1_ID2_RX' */
1722:HANcoder_E407_TTA_CombineModel.c **** 
1723:HANcoder_E407_TTA_CombineModel.c ****       /* Start for Enabled SubSystem: '<S11>/TRCK1_RX' */
1724:HANcoder_E407_TTA_CombineModel.c ****       /* Constant: '<S11>/Constant3' */
1725:HANcoder_E407_TTA_CombineModel.c ****       MMBS1_RX_Start(TRCK1_ID1);
1726:HANcoder_E407_TTA_CombineModel.c **** 
1727:HANcoder_E407_TTA_CombineModel.c ****       /* End of Start for SubSystem: '<S11>/TRCK1_RX' */
1728:HANcoder_E407_TTA_CombineModel.c **** 
1729:HANcoder_E407_TTA_CombineModel.c ****       /* Start for Enabled SubSystem: '<S11>/TRCK_ID3_RX' */
1730:HANcoder_E407_TTA_CombineModel.c ****       /* Start for M-S-Function: '<S55>/S-Function' incorporates:
1731:HANcoder_E407_TTA_CombineModel.c ****        *  Constant: '<S11>/Constant26'
1732:HANcoder_E407_TTA_CombineModel.c ****        */
1733:HANcoder_E407_TTA_CombineModel.c **** 
1734:HANcoder_E407_TTA_CombineModel.c ****       /* register a CAN storage buffer for the message with this ID */
1735:HANcoder_E407_TTA_CombineModel.c ****       CanIoCreateMessageReceivedStorage(0, TRCK1_ID3);
1736:HANcoder_E407_TTA_CombineModel.c **** 
1737:HANcoder_E407_TTA_CombineModel.c ****       /* End of Start for SubSystem: '<S11>/TRCK_ID3_RX' */
1738:HANcoder_E407_TTA_CombineModel.c **** 
1739:HANcoder_E407_TTA_CombineModel.c ****       /* Start for Enabled SubSystem: '<S11>/TRLS_ID4_RX' */
1740:HANcoder_E407_TTA_CombineModel.c ****       /* Start for M-S-Function: '<S58>/S-Function' incorporates:
1741:HANcoder_E407_TTA_CombineModel.c ****        *  Constant: '<S11>/Constant8'
1742:HANcoder_E407_TTA_CombineModel.c ****        */
1743:HANcoder_E407_TTA_CombineModel.c **** 
1744:HANcoder_E407_TTA_CombineModel.c ****       /* register a CAN storage buffer for the message with this ID */
1745:HANcoder_E407_TTA_CombineModel.c ****       CanIoCreateMessageReceivedStorage(0, TRLS1_ID4);
1746:HANcoder_E407_TTA_CombineModel.c **** 
1747:HANcoder_E407_TTA_CombineModel.c ****       /* End of Start for SubSystem: '<S11>/TRLS_ID4_RX' */
1748:HANcoder_E407_TTA_CombineModel.c **** 
1749:HANcoder_E407_TTA_CombineModel.c ****       /* Start for Enabled SubSystem: '<S11>/TRLS_ID5_RX' */
1750:HANcoder_E407_TTA_CombineModel.c ****       /* Start for M-S-Function: '<S67>/S-Function' incorporates:
1751:HANcoder_E407_TTA_CombineModel.c ****        *  Constant: '<S11>/Constant18'
1752:HANcoder_E407_TTA_CombineModel.c ****        */
1753:HANcoder_E407_TTA_CombineModel.c **** 
1754:HANcoder_E407_TTA_CombineModel.c ****       /* register a CAN storage buffer for the message with this ID */
1755:HANcoder_E407_TTA_CombineModel.c ****       CanIoCreateMessageReceivedStorage(0, TRLS1_ID5);
1756:HANcoder_E407_TTA_CombineModel.c **** 
1757:HANcoder_E407_TTA_CombineModel.c ****       /* End of Start for SubSystem: '<S11>/TRLS_ID5_RX' */
1758:HANcoder_E407_TTA_CombineModel.c ****       /* End of Start for SubSystem: '<S1>/Message selector' */
1759:HANcoder_E407_TTA_CombineModel.c ****       /* Start for M-S-Function: '<S144>/Level-2 M-file S-Function' */
1760:HANcoder_E407_TTA_CombineModel.c **** 
1761:HANcoder_E407_TTA_CombineModel.c ****       /* configure the digital output */
1762:HANcoder_E407_TTA_CombineModel.c ****       DigoutConfigure(DIGOUT_PORTE_PIN5, DIGOUT_CFG_PUSHPULL);
1763:HANcoder_E407_TTA_CombineModel.c **** 
1764:HANcoder_E407_TTA_CombineModel.c ****       /* Start for M-S-Function: '<S145>/Level-2 M-file S-Function' */
1765:HANcoder_E407_TTA_CombineModel.c **** 
1766:HANcoder_E407_TTA_CombineModel.c ****       /* configure the digital output */
1767:HANcoder_E407_TTA_CombineModel.c ****       DigoutConfigure(DIGOUT_PORTE_PIN6, DIGOUT_CFG_PUSHPULL);
1768:HANcoder_E407_TTA_CombineModel.c **** 
1769:HANcoder_E407_TTA_CombineModel.c ****       /* Start for S-Function (sfcn_pwmout_init): '<S147>/S-Function' */
1770:HANcoder_E407_TTA_CombineModel.c **** 
1771:HANcoder_E407_TTA_CombineModel.c ****       /* initialize the PWM module and register the callback handler */
1772:HANcoder_E407_TTA_CombineModel.c ****       PwmoutInit(PWMOUT_MODULE_TIM14, 10253, PWMOUT_EDGE_ALIGNMENT);
1773:HANcoder_E407_TTA_CombineModel.c ****       PwmoutRegisterPeriodCompleteCallback(PWMOUT_MODULE_TIM14,
1774:HANcoder_E407_TTA_CombineModel.c ****         PwmoutIRQ_PWMOUT_MODULE_TIM14);
1775:HANcoder_E407_TTA_CombineModel.c **** 
1776:HANcoder_E407_TTA_CombineModel.c ****       /* configures channel 1 */
1777:HANcoder_E407_TTA_CombineModel.c ****       PwmoutConfigure(PWMOUT_TIM14_PIN_PF9, PWMOUT_ACTIVE_HIGH,
1778:HANcoder_E407_TTA_CombineModel.c ****                       PWMOUT_INVERTED_OUTPUT_OFF);
1779:HANcoder_E407_TTA_CombineModel.c **** 
1780:HANcoder_E407_TTA_CombineModel.c ****       /* Start for M-S-Function: '<S136>/Level-2 M-file S-Function' */
1781:HANcoder_E407_TTA_CombineModel.c **** 
1782:HANcoder_E407_TTA_CombineModel.c ****       /* configure the analog input for filtered inputs */
1783:HANcoder_E407_TTA_CombineModel.c ****       AninConfigure(ANIN_PORTF_PIN7,0);
1784:HANcoder_E407_TTA_CombineModel.c **** 
1785:HANcoder_E407_TTA_CombineModel.c ****       /* Start for M-S-Function: '<S83>/Level-2 M-file S-Function' */
1786:HANcoder_E407_TTA_CombineModel.c **** 
1787:HANcoder_E407_TTA_CombineModel.c ****       /* configure the quadrature encoder module */
1788:HANcoder_E407_TTA_CombineModel.c ****       QuadEncConfigure(QUADENC_TIM3_PA6_PB5, QUADENC_CFG_FLOATING);
1789:HANcoder_E407_TTA_CombineModel.c **** 
1790:HANcoder_E407_TTA_CombineModel.c ****       /* Start for MATLABSystem: '<S78>/Moving Average' */
1791:HANcoder_E407_TTA_CombineModel.c ****       rtDWork.obj.isInitialized = 0;
1792:HANcoder_E407_TTA_CombineModel.c ****       rtDWork.obj.NumChannels = -1;
1793:HANcoder_E407_TTA_CombineModel.c ****       rtDWork.obj.FrameLength = -1;
1794:HANcoder_E407_TTA_CombineModel.c ****       rtDWork.obj.matlabCodegenIsDeleted = false;
 3848              		.loc 1 1794 42 is_stmt 0 view .LVU1406
 3849 0042 554C     		ldr	r4, .L298+20
1713:HANcoder_E407_TTA_CombineModel.c **** 
 3850              		.loc 1 1713 7 view .LVU1407
 3851 0044 0020     		movs	r0, #0
 3852 0046 FFF7FEFF 		bl	CanIoCreateMessageReceivedStorage
 3853              	.LVL336:
1719:HANcoder_E407_TTA_CombineModel.c **** 
 3854              		.loc 1 1719 7 is_stmt 1 view .LVU1408
 3855              	.LBB195:
 3856              	.LBI195:
 333:HANcoder_E407_TTA_CombineModel.c **** {
 3857              		.loc 1 333 6 view .LVU1409
 3858              	.LBB196:
 338:HANcoder_E407_TTA_CombineModel.c **** }
 3859              		.loc 1 338 3 view .LVU1410
 3860              	.LBE196:
 3861              	.LBE195:
1719:HANcoder_E407_TTA_CombineModel.c **** 
 3862              		.loc 1 1719 7 is_stmt 0 view .LVU1411
 3863 004a 544B     		ldr	r3, .L298+24
 3864              	.LBB198:
 3865              	.LBB197:
 338:HANcoder_E407_TTA_CombineModel.c **** }
 3866              		.loc 1 338 3 view .LVU1412
 3867 004c 0020     		movs	r0, #0
 3868 004e 1968     		ldr	r1, [r3]
 3869 0050 FFF7FEFF 		bl	CanIoCreateMessageReceivedStorage
 3870              	.LVL337:
 338:HANcoder_E407_TTA_CombineModel.c **** }
 3871              		.loc 1 338 3 view .LVU1413
 3872              	.LBE197:
 3873              	.LBE198:
1725:HANcoder_E407_TTA_CombineModel.c **** 
 3874              		.loc 1 1725 7 is_stmt 1 view .LVU1414
 3875              	.LBB199:
 3876              	.LBI199:
 333:HANcoder_E407_TTA_CombineModel.c **** {
 3877              		.loc 1 333 6 view .LVU1415
 3878              	.LBB200:
 338:HANcoder_E407_TTA_CombineModel.c **** }
 3879              		.loc 1 338 3 view .LVU1416
 3880              	.LBE200:
 3881              	.LBE199:
1725:HANcoder_E407_TTA_CombineModel.c **** 
 3882              		.loc 1 1725 7 is_stmt 0 view .LVU1417
 3883 0054 524B     		ldr	r3, .L298+28
 3884              	.LBB202:
 3885              	.LBB201:
 338:HANcoder_E407_TTA_CombineModel.c **** }
 3886              		.loc 1 338 3 view .LVU1418
 3887 0056 0020     		movs	r0, #0
 3888 0058 1968     		ldr	r1, [r3]
 3889 005a FFF7FEFF 		bl	CanIoCreateMessageReceivedStorage
 3890              	.LVL338:
 338:HANcoder_E407_TTA_CombineModel.c **** }
 3891              		.loc 1 338 3 view .LVU1419
 3892              	.LBE201:
 3893              	.LBE202:
1735:HANcoder_E407_TTA_CombineModel.c **** 
 3894              		.loc 1 1735 7 is_stmt 1 view .LVU1420
 3895 005e 514B     		ldr	r3, .L298+32
 3896 0060 0020     		movs	r0, #0
 3897 0062 1968     		ldr	r1, [r3]
 3898 0064 FFF7FEFF 		bl	CanIoCreateMessageReceivedStorage
 3899              	.LVL339:
1745:HANcoder_E407_TTA_CombineModel.c **** 
 3900              		.loc 1 1745 7 view .LVU1421
 3901 0068 4F4B     		ldr	r3, .L298+36
 3902 006a 0020     		movs	r0, #0
 3903 006c 1968     		ldr	r1, [r3]
 3904 006e FFF7FEFF 		bl	CanIoCreateMessageReceivedStorage
 3905              	.LVL340:
1755:HANcoder_E407_TTA_CombineModel.c **** 
 3906              		.loc 1 1755 7 view .LVU1422
 3907 0072 4E4B     		ldr	r3, .L298+40
 3908 0074 0020     		movs	r0, #0
 3909 0076 1968     		ldr	r1, [r3]
 3910 0078 FFF7FEFF 		bl	CanIoCreateMessageReceivedStorage
 3911              	.LVL341:
1762:HANcoder_E407_TTA_CombineModel.c **** 
 3912              		.loc 1 1762 7 view .LVU1423
 3913 007c 0121     		movs	r1, #1
 3914 007e 0A20     		movs	r0, #10
 3915 0080 FFF7FEFF 		bl	DigoutConfigure
 3916              	.LVL342:
1767:HANcoder_E407_TTA_CombineModel.c **** 
 3917              		.loc 1 1767 7 view .LVU1424
 3918 0084 0121     		movs	r1, #1
 3919 0086 0B20     		movs	r0, #11
 3920 0088 FFF7FEFF 		bl	DigoutConfigure
 3921              	.LVL343:
1772:HANcoder_E407_TTA_CombineModel.c ****       PwmoutRegisterPeriodCompleteCallback(PWMOUT_MODULE_TIM14,
 3922              		.loc 1 1772 7 view .LVU1425
 3923 008c 0022     		movs	r2, #0
 3924 008e 42F60D01 		movw	r1, #10253
 3925 0092 0920     		movs	r0, #9
 3926 0094 FFF7FEFF 		bl	PwmoutInit
 3927              	.LVL344:
1773:HANcoder_E407_TTA_CombineModel.c ****         PwmoutIRQ_PWMOUT_MODULE_TIM14);
 3928              		.loc 1 1773 7 view .LVU1426
 3929 0098 4549     		ldr	r1, .L298+44
 3930 009a 0920     		movs	r0, #9
 3931 009c FFF7FEFF 		bl	PwmoutRegisterPeriodCompleteCallback
 3932              	.LVL345:
1777:HANcoder_E407_TTA_CombineModel.c ****                       PWMOUT_INVERTED_OUTPUT_OFF);
 3933              		.loc 1 1777 7 view .LVU1427
 3934 00a0 0022     		movs	r2, #0
 3935 00a2 1146     		mov	r1, r2
 3936 00a4 1020     		movs	r0, #16
 3937 00a6 FFF7FEFF 		bl	PwmoutConfigure
 3938              	.LVL346:
1783:HANcoder_E407_TTA_CombineModel.c **** 
 3939              		.loc 1 1783 7 view .LVU1428
 3940 00aa 0021     		movs	r1, #0
 3941 00ac 0420     		movs	r0, #4
 3942 00ae FFF7FEFF 		bl	AninConfigure
 3943              	.LVL347:
1788:HANcoder_E407_TTA_CombineModel.c **** 
 3944              		.loc 1 1788 7 view .LVU1429
 3945 00b2 0021     		movs	r1, #0
 3946 00b4 0120     		movs	r0, #1
 3947 00b6 FFF7FEFF 		bl	QuadEncConfigure
 3948              	.LVL348:
1791:HANcoder_E407_TTA_CombineModel.c ****       rtDWork.obj.NumChannels = -1;
 3949              		.loc 1 1791 7 view .LVU1430
1792:HANcoder_E407_TTA_CombineModel.c ****       rtDWork.obj.FrameLength = -1;
 3950              		.loc 1 1792 7 view .LVU1431
1793:HANcoder_E407_TTA_CombineModel.c ****       rtDWork.obj.matlabCodegenIsDeleted = false;
 3951              		.loc 1 1793 7 view .LVU1432
 3952              		.loc 1 1794 7 view .LVU1433
 3953              	.LBB203:
 3954              	.LBB204:
 450:HANcoder_E407_TTA_CombineModel.c ****   obj->_pobj0.isInitialized = 0;
 3955              		.loc 1 450 29 is_stmt 0 view .LVU1434
 3956 00ba 2246     		mov	r2, r4
 3957              	.LBE204:
 3958              	.LBE203:
 3959              		.loc 1 1794 42 view .LVU1435
 3960 00bc 0025     		movs	r5, #0
 3961              	.LBB207:
 3962              	.LBB205:
 450:HANcoder_E407_TTA_CombineModel.c ****   obj->_pobj0.isInitialized = 0;
 3963              		.loc 1 450 29 view .LVU1436
 3964 00be 42F8385F 		str	r5, [r2, #56]!
 448:HANcoder_E407_TTA_CombineModel.c ****   obj->FrameLength = 1;
 3965              		.loc 1 448 20 view .LVU1437
 3966 00c2 0123     		movs	r3, #1
 449:HANcoder_E407_TTA_CombineModel.c ****   obj->_pobj0.isInitialized = 0;
 3967              		.loc 1 449 20 view .LVU1438
 3968 00c4 C4E90C33 		strd	r3, r3, [r4, #48]
 452:HANcoder_E407_TTA_CombineModel.c ****   obj->isSetupComplete = true;
 3969              		.loc 1 452 19 view .LVU1439
 3970 00c8 E262     		str	r2, [r4, #44]
 447:HANcoder_E407_TTA_CombineModel.c ****   obj->NumChannels = 1;
 3971              		.loc 1 447 22 view .LVU1440
 3972 00ca 6360     		str	r3, [r4, #4]
 453:HANcoder_E407_TTA_CombineModel.c ****   obj->TunablePropsChanged = false;
 3973              		.loc 1 453 24 view .LVU1441
 3974 00cc 2381     		strh	r3, [r4, #8]	@ movhi
 3975              	.LBE205:
 3976              	.LBE207:
1795:HANcoder_E407_TTA_CombineModel.c ****       SystemCore_setup(&rtDWork.obj);
1796:HANcoder_E407_TTA_CombineModel.c **** 
1797:HANcoder_E407_TTA_CombineModel.c ****       /* Start for M-S-Function: '<S135>/Level-2 M-file S-Function' */
1798:HANcoder_E407_TTA_CombineModel.c **** 
1799:HANcoder_E407_TTA_CombineModel.c ****       /* configure the analog input for filtered inputs */
1800:HANcoder_E407_TTA_CombineModel.c ****       AninConfigure(ANIN_PORTF_PIN10,0);
 3977              		.loc 1 1800 7 view .LVU1442
 3978 00ce 2946     		mov	r1, r5
 3979 00d0 0720     		movs	r0, #7
1794:HANcoder_E407_TTA_CombineModel.c ****       SystemCore_setup(&rtDWork.obj);
 3980              		.loc 1 1794 42 view .LVU1443
 3981 00d2 2570     		strb	r5, [r4]
1795:HANcoder_E407_TTA_CombineModel.c ****       SystemCore_setup(&rtDWork.obj);
 3982              		.loc 1 1795 7 is_stmt 1 view .LVU1444
 3983              	.LVL349:
 3984              	.LBB208:
 3985              	.LBI203:
 444:HANcoder_E407_TTA_CombineModel.c **** {
 3986              		.loc 1 444 13 view .LVU1445
 3987              	.LBB206:
 446:HANcoder_E407_TTA_CombineModel.c ****   obj->isInitialized = 1;
 3988              		.loc 1 446 3 view .LVU1446
 447:HANcoder_E407_TTA_CombineModel.c ****   obj->NumChannels = 1;
 3989              		.loc 1 447 3 view .LVU1447
 448:HANcoder_E407_TTA_CombineModel.c ****   obj->FrameLength = 1;
 3990              		.loc 1 448 3 view .LVU1448
 450:HANcoder_E407_TTA_CombineModel.c ****   obj->_pobj0.isInitialized = 0;
 3991              		.loc 1 450 3 view .LVU1449
 451:HANcoder_E407_TTA_CombineModel.c ****   obj->pStatistic = &obj->_pobj0;
 3992              		.loc 1 451 3 view .LVU1450
 452:HANcoder_E407_TTA_CombineModel.c ****   obj->isSetupComplete = true;
 3993              		.loc 1 452 3 view .LVU1451
 453:HANcoder_E407_TTA_CombineModel.c ****   obj->TunablePropsChanged = false;
 3994              		.loc 1 453 3 view .LVU1452
 454:HANcoder_E407_TTA_CombineModel.c **** }
 3995              		.loc 1 454 3 view .LVU1453
 454:HANcoder_E407_TTA_CombineModel.c **** }
 3996              		.loc 1 454 3 is_stmt 0 view .LVU1454
 3997              	.LBE206:
 3998              	.LBE208:
 3999              		.loc 1 1800 7 is_stmt 1 view .LVU1455
 4000 00d4 FFF7FEFF 		bl	AninConfigure
 4001              	.LVL350:
1801:HANcoder_E407_TTA_CombineModel.c **** 
1802:HANcoder_E407_TTA_CombineModel.c ****       /* Start for M-S-Function: '<S137>/Level-2 M-file S-Function' */
1803:HANcoder_E407_TTA_CombineModel.c **** 
1804:HANcoder_E407_TTA_CombineModel.c ****       /* configure the analog input for filtered inputs */
1805:HANcoder_E407_TTA_CombineModel.c ****       AninConfigure(ANIN_PORTF_PIN8,0);
 4002              		.loc 1 1805 7 view .LVU1456
 4003 00d8 2946     		mov	r1, r5
 4004 00da 0520     		movs	r0, #5
 4005 00dc FFF7FEFF 		bl	AninConfigure
 4006              	.LVL351:
1806:HANcoder_E407_TTA_CombineModel.c **** 
1807:HANcoder_E407_TTA_CombineModel.c ****       /* End of Start for SubSystem: '<S1>/Slot 5 execution' */
1808:HANcoder_E407_TTA_CombineModel.c **** 
1809:HANcoder_E407_TTA_CombineModel.c ****       /* Start for M-S-Function: '<S6>/Level-2 M-file S-Function' */
1810:HANcoder_E407_TTA_CombineModel.c **** 
1811:HANcoder_E407_TTA_CombineModel.c ****       /* configure the digital input */
1812:HANcoder_E407_TTA_CombineModel.c ****       DiginConfigure(DIGIN_PORTG_PIN12, DIGIN_CFG_PULLDOWN);
 4007              		.loc 1 1812 7 view .LVU1457
 4008 00e0 0221     		movs	r1, #2
 4009 00e2 0E20     		movs	r0, #14
 4010 00e4 FFF7FEFF 		bl	DiginConfigure
 4011              	.LVL352:
1813:HANcoder_E407_TTA_CombineModel.c **** 
1814:HANcoder_E407_TTA_CombineModel.c ****       /* Start for M-S-Function: '<S7>/Level-2 M-file S-Function' */
1815:HANcoder_E407_TTA_CombineModel.c **** 
1816:HANcoder_E407_TTA_CombineModel.c ****       /* configure the digital input */
1817:HANcoder_E407_TTA_CombineModel.c ****       DiginConfigure(DIGIN_PORTG_PIN15, DIGIN_CFG_PULLDOWN);
 4012              		.loc 1 1817 7 view .LVU1458
 4013 00e8 0221     		movs	r1, #2
 4014 00ea 0F20     		movs	r0, #15
 4015 00ec FFF7FEFF 		bl	DiginConfigure
 4016              	.LVL353:
1818:HANcoder_E407_TTA_CombineModel.c **** 
1819:HANcoder_E407_TTA_CombineModel.c ****       /* Start for M-S-Function: '<S8>/Level-2 M-file S-Function' */
1820:HANcoder_E407_TTA_CombineModel.c **** 
1821:HANcoder_E407_TTA_CombineModel.c ****       /* configure the digital input */
1822:HANcoder_E407_TTA_CombineModel.c ****       DiginConfigure(DIGIN_PORTA_PIN4, DIGIN_CFG_PULLDOWN);
 4017              		.loc 1 1822 7 view .LVU1459
 4018 00f0 0221     		movs	r1, #2
 4019 00f2 1020     		movs	r0, #16
 4020 00f4 FFF7FEFF 		bl	DiginConfigure
 4021              	.LVL354:
1823:HANcoder_E407_TTA_CombineModel.c **** 
1824:HANcoder_E407_TTA_CombineModel.c ****       /* Start for M-S-Function: '<S2>/Level-2 M-file S-Function' */
1825:HANcoder_E407_TTA_CombineModel.c **** 
1826:HANcoder_E407_TTA_CombineModel.c ****       /* configure the stack size for the task that executes the model */
1827:HANcoder_E407_TTA_CombineModel.c ****       AppCtrlTaskSetStackSize((configMINIMAL_STACK_SIZE*sizeof(portBASE_TYPE)) +
 4022              		.loc 1 1827 7 view .LVU1460
 4023 00f8 4FF41970 		mov	r0, #612
 4024 00fc FFF7FEFF 		bl	AppCtrlTaskSetStackSize
 4025              	.LVL355:
1828:HANcoder_E407_TTA_CombineModel.c ****         100);
1829:HANcoder_E407_TTA_CombineModel.c **** 
1830:HANcoder_E407_TTA_CombineModel.c ****       /* configure the sample time of the model in microseconds */
1831:HANcoder_E407_TTA_CombineModel.c ****       AppCtrlTaskSetPeriod(10000);
 4026              		.loc 1 1831 7 view .LVU1461
 4027 0100 42F21070 		movw	r0, #10000
 4028 0104 FFF7FEFF 		bl	AppCtrlTaskSetPeriod
 4029              	.LVL356:
1832:HANcoder_E407_TTA_CombineModel.c **** 
1833:HANcoder_E407_TTA_CombineModel.c ****       /* Run the ADC conversions ten times faster than the Simulink model */
1834:HANcoder_E407_TTA_CombineModel.c ****       ADCconversionTaskSetPeriod(10000/10);
 4030              		.loc 1 1834 7 view .LVU1462
 4031 0108 4FF47A70 		mov	r0, #1000
 4032 010c FFF7FEFF 		bl	ADCconversionTaskSetPeriod
 4033              	.LVL357:
1835:HANcoder_E407_TTA_CombineModel.c **** 
1836:HANcoder_E407_TTA_CombineModel.c ****       /* Start for M-S-Function: '<S3>/Level-2 M-file S-Function' */
1837:HANcoder_E407_TTA_CombineModel.c **** 
1838:HANcoder_E407_TTA_CombineModel.c ****       /* store the CAN controller's filter configuration */
1839:HANcoder_E407_TTA_CombineModel.c ****       canFilter1.mask = 0x00000000;
 4034              		.loc 1 1839 7 view .LVU1463
1840:HANcoder_E407_TTA_CombineModel.c ****       canFilter1.code = 0x00000000;
1841:HANcoder_E407_TTA_CombineModel.c ****       canFilter1.mode = CAN_FILTER_MODE_STDID_ONLY;
1842:HANcoder_E407_TTA_CombineModel.c **** 
1843:HANcoder_E407_TTA_CombineModel.c ****       /* connect and synchronize the CAN bus */
1844:HANcoder_E407_TTA_CombineModel.c ****       canResult1 = CanConnect(0, 250000, &canFilter1);
 4035              		.loc 1 1844 20 is_stmt 0 view .LVU1464
 4036 0110 2849     		ldr	r1, .L298+48
1841:HANcoder_E407_TTA_CombineModel.c **** 
 4037              		.loc 1 1841 23 view .LVU1465
 4038 0112 8DF80C50 		strb	r5, [sp, #12]
 4039              		.loc 1 1844 20 view .LVU1466
 4040 0116 01AA     		add	r2, sp, #4
 4041 0118 2846     		mov	r0, r5
1840:HANcoder_E407_TTA_CombineModel.c ****       canFilter1.code = 0x00000000;
 4042              		.loc 1 1840 23 view .LVU1467
 4043 011a CDE90155 		strd	r5, r5, [sp, #4]
1841:HANcoder_E407_TTA_CombineModel.c **** 
 4044              		.loc 1 1841 7 is_stmt 1 view .LVU1468
 4045              		.loc 1 1844 7 view .LVU1469
 4046              		.loc 1 1844 20 is_stmt 0 view .LVU1470
 4047 011e FFF7FEFF 		bl	CanConnect
 4048              	.LVL358:
1845:HANcoder_E407_TTA_CombineModel.c ****       configASSERT(canResult1 == TRUE);
 4049              		.loc 1 1845 7 is_stmt 1 view .LVU1471
 4050 0122 0128     		cmp	r0, #1
 4051 0124 04D0     		beq	.L292
 4052              		.loc 1 1845 7 discriminator 2 view .LVU1472
 4053 0126 2448     		ldr	r0, .L298+52
 4054              	.LVL359:
 4055              		.loc 1 1845 7 is_stmt 0 discriminator 2 view .LVU1473
 4056 0128 40F23571 		movw	r1, #1845
 4057 012c FFF7FEFF 		bl	AssertFailure
 4058              	.LVL360:
 4059              	.L292:
1846:HANcoder_E407_TTA_CombineModel.c **** 
1847:HANcoder_E407_TTA_CombineModel.c ****       /* Start for S-Function (sfcn_timeout_init): '<S12>/S-Function' */
1848:HANcoder_E407_TTA_CombineModel.c **** 
1849:HANcoder_E407_TTA_CombineModel.c ****       /* register the free running counter overflow callback handler */
1850:HANcoder_E407_TTA_CombineModel.c ****       TimeoutRegisterOverflowCallback(TIMEOUT_MODULE_TIM4,
 4060              		.loc 1 1850 7 is_stmt 1 view .LVU1474
 4061 0130 2249     		ldr	r1, .L298+56
 4062 0132 0320     		movs	r0, #3
 4063 0134 FFF7FEFF 		bl	TimeoutRegisterOverflowCallback
 4064              	.LVL361:
1851:HANcoder_E407_TTA_CombineModel.c ****         TimeoutOverflowIRQ_TIMEOUT_MODULE_TIM4);
1852:HANcoder_E407_TTA_CombineModel.c **** 
1853:HANcoder_E407_TTA_CombineModel.c ****       /* Start for M-S-Function: '<S16>/Level-2 M-file S-Function' */
1854:HANcoder_E407_TTA_CombineModel.c **** 
1855:HANcoder_E407_TTA_CombineModel.c ****       /* initialize the measurement and calibration interface */
1856:HANcoder_E407_TTA_CombineModel.c ****       MacUsbComInit();
 4065              		.loc 1 1856 7 view .LVU1475
 4066 0138 FFF7FEFF 		bl	MacUsbComInit
 4067              	.LVL362:
1857:HANcoder_E407_TTA_CombineModel.c ****       MacInit();
 4068              		.loc 1 1857 7 view .LVU1476
 4069 013c FFF7FEFF 		bl	MacInit
 4070              	.LVL363:
 4071              	.LBE210:
1858:HANcoder_E407_TTA_CombineModel.c ****     }
1859:HANcoder_E407_TTA_CombineModel.c **** 
1860:HANcoder_E407_TTA_CombineModel.c ****     rtPrevZCSigState.EnabledSubsystem_Trig_ZCE = POS_ZCSIG;
 4072              		.loc 1 1860 5 view .LVU1477
1861:HANcoder_E407_TTA_CombineModel.c ****     rtPrevZCSigState.SYNC1_TX_Trig_ZCE = POS_ZCSIG;
 4073              		.loc 1 1861 5 view .LVU1478
1862:HANcoder_E407_TTA_CombineModel.c ****     rtPrevZCSigState.TRLS_ID4_TX_Trig_ZCE = POS_ZCSIG;
 4074              		.loc 1 1862 5 view .LVU1479
1863:HANcoder_E407_TTA_CombineModel.c ****     rtPrevZCSigState.Subsystem_Trig_ZCE = POS_ZCSIG;
 4075              		.loc 1 1863 5 view .LVU1480
1864:HANcoder_E407_TTA_CombineModel.c ****     rtPrevZCSigState.TriggeredSubsystem_Trig_ZCE = POS_ZCSIG;
 4076              		.loc 1 1864 5 view .LVU1481
1865:HANcoder_E407_TTA_CombineModel.c ****     rtPrevZCSigState.Slot5execution_Trig_ZCE = POS_ZCSIG;
 4077              		.loc 1 1865 5 view .LVU1482
1866:HANcoder_E407_TTA_CombineModel.c ****     rtPrevZCSigState.TRLS_ID5_TX.MMBS1_TX_Trig_ZCE = POS_ZCSIG;
 4078              		.loc 1 1866 5 view .LVU1483
1867:HANcoder_E407_TTA_CombineModel.c ****     rtPrevZCSigState.TRCK1_TX.MMBS1_TX_Trig_ZCE = POS_ZCSIG;
 4079              		.loc 1 1867 5 view .LVU1484
1868:HANcoder_E407_TTA_CombineModel.c ****     rtPrevZCSigState.TRCK1_ID3_TX.MMBS1_TX_Trig_ZCE = POS_ZCSIG;
 4080              		.loc 1 1868 5 view .LVU1485
1869:HANcoder_E407_TTA_CombineModel.c ****     rtPrevZCSigState.TRCK1_ID2_TX.MMBS1_TX_Trig_ZCE = POS_ZCSIG;
 4081              		.loc 1 1869 5 view .LVU1486
1870:HANcoder_E407_TTA_CombineModel.c ****     rtPrevZCSigState.SSTM1_TX.MMBS1_TX_Trig_ZCE = POS_ZCSIG;
 4082              		.loc 1 1870 5 view .LVU1487
1871:HANcoder_E407_TTA_CombineModel.c ****     rtPrevZCSigState.MMBS1_TX_a.MMBS1_TX_Trig_ZCE = POS_ZCSIG;
 4083              		.loc 1 1871 5 view .LVU1488
1865:HANcoder_E407_TTA_CombineModel.c ****     rtPrevZCSigState.TRLS_ID5_TX.MMBS1_TX_Trig_ZCE = POS_ZCSIG;
 4084              		.loc 1 1865 46 is_stmt 0 view .LVU1489
 4085 0140 1F4B     		ldr	r3, .L298+60
1872:HANcoder_E407_TTA_CombineModel.c **** 
1873:HANcoder_E407_TTA_CombineModel.c ****     /* SystemInitialize for Triggered SubSystem: '<S1>/Slot 5 execution' */
1874:HANcoder_E407_TTA_CombineModel.c ****     rtDWork.Slot5execution_PREV_T[0] = rtM->Timing.clockTick0;
 4086              		.loc 1 1874 51 view .LVU1490
 4087 0142 2049     		ldr	r1, .L298+64
1865:HANcoder_E407_TTA_CombineModel.c ****     rtPrevZCSigState.TRLS_ID5_TX.MMBS1_TX_Trig_ZCE = POS_ZCSIG;
 4088              		.loc 1 1865 46 view .LVU1491
 4089 0144 4FF00132 		mov	r2, #16843009
1862:HANcoder_E407_TTA_CombineModel.c ****     rtPrevZCSigState.Subsystem_Trig_ZCE = POS_ZCSIG;
 4090              		.loc 1 1862 43 view .LVU1492
 4091 0148 C3E90022 		strd	r2, r2, [r3]
1861:HANcoder_E407_TTA_CombineModel.c ****     rtPrevZCSigState.TRLS_ID4_TX_Trig_ZCE = POS_ZCSIG;
 4092              		.loc 1 1861 40 view .LVU1493
 4093 014c 9A60     		str	r2, [r3, #8]
 4094              		.loc 1 1874 5 is_stmt 1 view .LVU1494
1875:HANcoder_E407_TTA_CombineModel.c ****     rtDWork.Slot5execution_PREV_T[1] = rtM->Timing.clockTickH0;
1876:HANcoder_E407_TTA_CombineModel.c **** 
1877:HANcoder_E407_TTA_CombineModel.c ****     /* InitializeConditions for MATLABSystem: '<S78>/Moving Average' */
1878:HANcoder_E407_TTA_CombineModel.c ****     obj = rtDWork.obj.pStatistic;
 4095              		.loc 1 1878 9 is_stmt 0 view .LVU1495
 4096 014e E36A     		ldr	r3, [r4, #44]
1874:HANcoder_E407_TTA_CombineModel.c ****     rtDWork.Slot5execution_PREV_T[1] = rtM->Timing.clockTickH0;
 4097              		.loc 1 1874 38 view .LVU1496
 4098 0150 0868     		ldr	r0, [r1]
1879:HANcoder_E407_TTA_CombineModel.c ****     if (obj->isInitialized == 1) {
 4099              		.loc 1 1879 8 view .LVU1497
 4100 0152 1A68     		ldr	r2, [r3]
1875:HANcoder_E407_TTA_CombineModel.c ****     rtDWork.Slot5execution_PREV_T[1] = rtM->Timing.clockTickH0;
 4101              		.loc 1 1875 38 view .LVU1498
 4102 0154 4968     		ldr	r1, [r1, #4]
 4103              		.loc 1 1879 8 view .LVU1499
 4104 0156 012A     		cmp	r2, #1
1875:HANcoder_E407_TTA_CombineModel.c ****     rtDWork.Slot5execution_PREV_T[1] = rtM->Timing.clockTickH0;
 4105              		.loc 1 1875 38 view .LVU1500
 4106 0158 C4E92E01 		strd	r0, r1, [r4, #184]
1878:HANcoder_E407_TTA_CombineModel.c ****     if (obj->isInitialized == 1) {
 4107              		.loc 1 1878 5 is_stmt 1 view .LVU1501
 4108              	.LVL364:
 4109              		.loc 1 1879 5 view .LVU1502
 4110              		.loc 1 1879 8 is_stmt 0 view .LVU1503
 4111 015c 0FD1     		bne	.L291
1880:HANcoder_E407_TTA_CombineModel.c ****       obj->pCumSum = 0.0;
 4112              		.loc 1 1880 7 is_stmt 1 view .LVU1504
1881:HANcoder_E407_TTA_CombineModel.c ****       obj->pCumSumRev[0] = 0.0;
1882:HANcoder_E407_TTA_CombineModel.c ****       obj->pCumSumRev[1] = 0.0;
1883:HANcoder_E407_TTA_CombineModel.c ****       obj->pCumSumRev[2] = 0.0;
1884:HANcoder_E407_TTA_CombineModel.c ****       obj->pCumRevIndex = 1.0;
 4113              		.loc 1 1884 25 is_stmt 0 view .LVU1505
 4114 015e 1A4D     		ldr	r5, .L298+68
1880:HANcoder_E407_TTA_CombineModel.c ****       obj->pCumSum = 0.0;
 4115              		.loc 1 1880 20 view .LVU1506
 4116 0160 0020     		movs	r0, #0
 4117 0162 0021     		movs	r1, #0
 4118              		.loc 1 1884 25 view .LVU1507
 4119 0164 0024     		movs	r4, #0
1880:HANcoder_E407_TTA_CombineModel.c ****       obj->pCumSum = 0.0;
 4120              		.loc 1 1880 20 view .LVU1508
 4121 0166 C3E90201 		strd	r0, [r3, #8]
1881:HANcoder_E407_TTA_CombineModel.c ****       obj->pCumSumRev[0] = 0.0;
 4122              		.loc 1 1881 7 is_stmt 1 view .LVU1509
1881:HANcoder_E407_TTA_CombineModel.c ****       obj->pCumSumRev[0] = 0.0;
 4123              		.loc 1 1881 26 is_stmt 0 view .LVU1510
 4124 016a C3E90401 		strd	r0, [r3, #16]
1882:HANcoder_E407_TTA_CombineModel.c ****       obj->pCumSumRev[2] = 0.0;
 4125              		.loc 1 1882 7 is_stmt 1 view .LVU1511
1882:HANcoder_E407_TTA_CombineModel.c ****       obj->pCumSumRev[2] = 0.0;
 4126              		.loc 1 1882 26 is_stmt 0 view .LVU1512
 4127 016e C3E90601 		strd	r0, [r3, #24]
1883:HANcoder_E407_TTA_CombineModel.c ****       obj->pCumRevIndex = 1.0;
 4128              		.loc 1 1883 7 is_stmt 1 view .LVU1513
1883:HANcoder_E407_TTA_CombineModel.c ****       obj->pCumRevIndex = 1.0;
 4129              		.loc 1 1883 26 is_stmt 0 view .LVU1514
 4130 0172 C3E90801 		strd	r0, [r3, #32]
 4131              		.loc 1 1884 7 is_stmt 1 view .LVU1515
 4132              		.loc 1 1884 25 is_stmt 0 view .LVU1516
 4133 0176 C3E90A45 		strd	r4, [r3, #40]
1885:HANcoder_E407_TTA_CombineModel.c ****       obj->pModValueRev = 0.0;
 4134              		.loc 1 1885 7 is_stmt 1 view .LVU1517
 4135              		.loc 1 1885 25 is_stmt 0 view .LVU1518
 4136 017a C3E90C01 		strd	r0, [r3, #48]
 4137              	.L291:
 4138              	.LBE212:
1886:HANcoder_E407_TTA_CombineModel.c ****     }
1887:HANcoder_E407_TTA_CombineModel.c **** 
1888:HANcoder_E407_TTA_CombineModel.c ****     /* End of InitializeConditions for MATLABSystem: '<S78>/Moving Average' */
1889:HANcoder_E407_TTA_CombineModel.c ****     /* End of SystemInitialize for SubSystem: '<S1>/Slot 5 execution' */
1890:HANcoder_E407_TTA_CombineModel.c ****   }
1891:HANcoder_E407_TTA_CombineModel.c **** }
 4139              		.loc 1 1891 1 view .LVU1519
 4140 017e 05B0     		add	sp, sp, #20
 4141              		.cfi_def_cfa_offset 12
 4142              		@ sp needed
 4143 0180 30BD     		pop	{r4, r5, pc}
 4144              	.L299:
 4145 0182 00BF     		.align	2
 4146              	.L298:
 4147 0184 00000000 		.word	.LANCHOR12
 4148 0188 40420F00 		.word	1000000
 4149 018c 00000000 		.word	TimeoutEventIRQ_TIMEOUT_TIM4_PIN_PD12
 4150 0190 00000000 		.word	.LANCHOR13
 4151 0194 00000000 		.word	.LANCHOR14
 4152 0198 00000000 		.word	.LANCHOR2
 4153 019c 00000000 		.word	.LANCHOR18
 4154 01a0 00000000 		.word	.LANCHOR20
 4155 01a4 00000000 		.word	.LANCHOR19
 4156 01a8 00000000 		.word	.LANCHOR23
 4157 01ac 00000000 		.word	.LANCHOR25
 4158 01b0 00000000 		.word	PwmoutIRQ_PWMOUT_MODULE_TIM14
 4159 01b4 90D00300 		.word	250000
 4160 01b8 00000000 		.word	.LC1
 4161 01bc 00000000 		.word	TimeoutOverflowIRQ_TIMEOUT_MODULE_TIM4
 4162 01c0 00000000 		.word	.LANCHOR5
 4163 01c4 00000000 		.word	.LANCHOR26
 4164 01c8 0000F03F 		.word	1072693248
 4165              		.cfi_endproc
 4166              	.LFE124:
 4168              		.global	rtM
 4169              		.global	rtPrevZCSigState
 4170              		.global	rtDWork
 4171              		.global	rtB
 4172              		.global	slotTime
 4173              		.global	nodeRole
 4174              		.global	TRLS1_ID5
 4175              		.global	TRLS1_ID4
 4176              		.global	TRCK1_ID3
 4177              		.global	TRCK1_ID2
 4178              		.global	TRCK1_ID1
 4179              		.global	SYNC1_ID
 4180              		.global	SSTM1_ID
 4181              		.global	MMBS1_ID
 4182              		.global	propVal
 4183              		.global	matrixRows
 4184              		.global	intVal
 4185              		.global	desiredAngle
 4186              		.global	ClockOn
 4187              		.global	canActive
 4188              		.global	boolCan
 4189              		.global	ccw
 4190              		.global	cw
 4191              		.global	slotSelected
 4192              		.global	setSlotTime
 4193              		.global	dataArx
 4194              		.global	SI_CPUload
 4195              		.global	local_ticks_interrupt
 4196              		.global	testCounter
 4197              		.global	mospeed
 4198              		.global	SI_FreeStack
 4199              		.global	SI_FreeHeap
 4200              		.global	control
 4201              		.global	position
 4202              		.global	steering
 4203              		.global	Gamma1
 4204              		.global	Gamma2
 4205              		.section	.bss.Gamma1,"aw",%nobits
 4206              		.align	3
 4207              		.set	.LANCHOR30,. + 0
 4210              	Gamma1:
 4211 0000 00000000 		.space	8
 4211      00000000 
 4212              		.section	.bss.Gamma2,"aw",%nobits
 4213              		.align	3
 4214              		.set	.LANCHOR29,. + 0
 4217              	Gamma2:
 4218 0000 00000000 		.space	8
 4218      00000000 
 4219              		.section	.bss.SI_CPUload,"aw",%nobits
 4220              		.set	.LANCHOR40,. + 0
 4223              	SI_CPUload:
 4224 0000 00       		.space	1
 4225              		.section	.bss.SI_FreeHeap,"aw",%nobits
 4226              		.align	2
 4227              		.set	.LANCHOR41,. + 0
 4230              	SI_FreeHeap:
 4231 0000 00000000 		.space	4
 4232              		.section	.bss.SI_FreeStack,"aw",%nobits
 4233              		.align	2
 4234              		.set	.LANCHOR42,. + 0
 4237              	SI_FreeStack:
 4238 0000 00000000 		.space	4
 4239              		.section	.bss.boolCan,"aw",%nobits
 4240              		.set	.LANCHOR17,. + 0
 4243              	boolCan:
 4244 0000 00       		.space	1
 4245              		.section	.bss.canActive,"aw",%nobits
 4246              		.set	.LANCHOR1,. + 0
 4249              	canActive:
 4250 0000 00       		.space	1
 4251              		.section	.bss.canRxData_0_SYNC1_ID,"aw",%nobits
 4252              		.align	2
 4253              		.set	.LANCHOR11,. + 0
 4256              	canRxData_0_SYNC1_ID:
 4257 0000 00000000 		.space	8
 4257      00000000 
 4258              		.section	.bss.canRxData_0_TRCK1_ID3,"aw",%nobits
 4259              		.align	2
 4260              		.set	.LANCHOR21,. + 0
 4263              	canRxData_0_TRCK1_ID3:
 4264 0000 00000000 		.space	8
 4264      00000000 
 4265              		.section	.bss.canRxData_0_TRLS1_ID4,"aw",%nobits
 4266              		.align	2
 4267              		.set	.LANCHOR22,. + 0
 4270              	canRxData_0_TRLS1_ID4:
 4271 0000 00000000 		.space	8
 4271      00000000 
 4272              		.section	.bss.canRxData_0_TRLS1_ID5,"aw",%nobits
 4273              		.align	2
 4274              		.set	.LANCHOR24,. + 0
 4277              	canRxData_0_TRLS1_ID5:
 4278 0000 00000000 		.space	8
 4278      00000000 
 4279              		.section	.bss.canRxData_0_rtu_In1,"aw",%nobits
 4280              		.align	2
 4281              		.set	.LANCHOR8,. + 0
 4284              	canRxData_0_rtu_In1:
 4285 0000 00000000 		.space	8
 4285      00000000 
 4286              		.section	.bss.canTxData,"aw",%nobits
 4287              		.align	2
 4288              		.set	.LANCHOR9,. + 0
 4291              	canTxData:
 4292 0000 00000000 		.space	8
 4292      00000000 
 4293              		.section	.bss.ccw,"aw",%nobits
 4294              		.set	.LANCHOR37,. + 0
 4297              	ccw:
 4298 0000 00       		.space	1
 4299              		.section	.bss.control,"aw",%nobits
 4300              		.align	3
 4301              		.set	.LANCHOR33,. + 0
 4304              	control:
 4305 0000 00000000 		.space	8
 4305      00000000 
 4306              		.section	.bss.cw,"aw",%nobits
 4307              		.set	.LANCHOR36,. + 0
 4310              	cw:
 4311 0000 00       		.space	1
 4312              		.section	.bss.dataArx,"aw",%nobits
 4313              		.set	.LANCHOR15,. + 0
 4316              	dataArx:
 4317 0000 00       		.space	1
 4318              		.section	.bss.local_ticks_interrupt,"aw",%nobits
 4319              		.align	1
 4320              		.set	.LANCHOR3,. + 0
 4323              	local_ticks_interrupt:
 4324 0000 0000     		.space	2
 4325              		.section	.bss.mospeed,"aw",%nobits
 4326              		.align	1
 4327              		.set	.LANCHOR34,. + 0
 4330              	mospeed:
 4331 0000 0000     		.space	2
 4332              		.section	.bss.position,"aw",%nobits
 4333              		.align	3
 4334              		.set	.LANCHOR32,. + 0
 4337              	position:
 4338 0000 00000000 		.space	8
 4338      00000000 
 4339              		.section	.bss.rtB,"aw",%nobits
 4340              		.align	2
 4341              		.set	.LANCHOR0,. + 0
 4344              	rtB:
 4345 0000 00000000 		.space	30
 4345      00000000 
 4345      00000000 
 4345      00000000 
 4345      00000000 
 4346              		.section	.bss.rtDWork,"aw",%nobits
 4347              		.align	3
 4348              		.set	.LANCHOR2,. + 0
 4351              	rtDWork:
 4352 0000 00000000 		.space	216
 4352      00000000 
 4352      00000000 
 4352      00000000 
 4352      00000000 
 4353              		.section	.bss.rtM_,"aw",%nobits
 4354              		.align	2
 4355              		.set	.LANCHOR26,. + 0
 4358              	rtM_:
 4359 0000 00000000 		.space	8
 4359      00000000 
 4360              		.section	.bss.rtPrevZCSigState,"aw",%nobits
 4361              		.align	2
 4362              		.set	.LANCHOR5,. + 0
 4365              	rtPrevZCSigState:
 4366 0000 00000000 		.space	12
 4366      00000000 
 4366      00000000 
 4367              		.section	.bss.setSlotTime,"aw",%nobits
 4368              		.set	.LANCHOR4,. + 0
 4371              	setSlotTime:
 4372 0000 00       		.space	1
 4373              		.section	.bss.slotSelected,"aw",%nobits
 4374              		.set	.LANCHOR7,. + 0
 4377              	slotSelected:
 4378 0000 00       		.space	1
 4379              		.section	.bss.steering,"aw",%nobits
 4380              		.align	3
 4381              		.set	.LANCHOR31,. + 0
 4384              	steering:
 4385 0000 00000000 		.space	8
 4385      00000000 
 4386              		.section	.bss.testCounter,"aw",%nobits
 4387              		.align	1
 4388              		.set	.LANCHOR16,. + 0
 4391              	testCounter:
 4392 0000 0000     		.space	2
 4393              		.section	.data.ClockOn,"aw"
 4394              		.align	3
 4395              		.set	.LANCHOR10,. + 0
 4398              	ClockOn:
 4399 0000 00000000 		.space	8
 4399      00000000 
 4400              		.section	.data.MMBS1_ID,"aw"
 4401              		.align	2
 4402              		.set	.LANCHOR13,. + 0
 4405              	MMBS1_ID:
 4406 0000 0C000000 		.word	12
 4407              		.section	.data.SSTM1_ID,"aw"
 4408              		.align	2
 4409              		.set	.LANCHOR14,. + 0
 4412              	SSTM1_ID:
 4413 0000 0D000000 		.word	13
 4414              		.section	.data.SYNC1_ID,"aw"
 4415              		.align	2
 4416              		.set	.LANCHOR12,. + 0
 4419              	SYNC1_ID:
 4420 0000 0B000000 		.word	11
 4421              		.section	.data.TRCK1_ID1,"aw"
 4422              		.align	2
 4423              		.set	.LANCHOR20,. + 0
 4426              	TRCK1_ID1:
 4427 0000 0E000000 		.word	14
 4428              		.section	.data.TRCK1_ID2,"aw"
 4429              		.align	2
 4430              		.set	.LANCHOR18,. + 0
 4433              	TRCK1_ID2:
 4434 0000 1A000000 		.word	26
 4435              		.section	.data.TRCK1_ID3,"aw"
 4436              		.align	2
 4437              		.set	.LANCHOR19,. + 0
 4440              	TRCK1_ID3:
 4441 0000 25000000 		.word	37
 4442              		.section	.data.TRLS1_ID4,"aw"
 4443              		.align	2
 4444              		.set	.LANCHOR23,. + 0
 4447              	TRLS1_ID4:
 4448 0000 30000000 		.word	48
 4449              		.section	.data.TRLS1_ID5,"aw"
 4450              		.align	2
 4451              		.set	.LANCHOR25,. + 0
 4454              	TRLS1_ID5:
 4455 0000 3B000000 		.word	59
 4456              		.section	.data.desiredAngle,"aw"
 4457              		.align	3
 4458              		.set	.LANCHOR27,. + 0
 4461              	desiredAngle:
 4462 0000 00000000 		.space	8
 4462      00000000 
 4463              		.section	.data.intVal,"aw"
 4464              		.align	3
 4465              		.set	.LANCHOR38,. + 0
 4468              	intVal:
 4469 0000 00000000 		.space	8
 4469      00000000 
 4470              		.section	.data.matrixRows,"aw"
 4471              		.align	3
 4472              		.set	.LANCHOR6,. + 0
 4475              	matrixRows:
 4476 0000 00000000 		.word	0
 4477 0004 00002440 		.word	1076101120
 4478              		.section	.data.nodeRole,"aw"
 4479              		.set	.LANCHOR28,. + 0
 4482              	nodeRole:
 4483 0000 01       		.byte	1
 4484              		.section	.data.propVal,"aw"
 4485              		.align	3
 4486              		.set	.LANCHOR35,. + 0
 4489              	propVal:
 4490 0000 00000000 		.space	8
 4490      00000000 
 4491              		.section	.data.slotTime,"aw"
 4492              		.set	.LANCHOR39,. + 0
 4495              	slotTime:
 4496 0000 32       		.byte	50
 4497              		.section	.rodata.rtM,"a"
 4498              		.align	2
 4501              	rtM:
 4502 0000 00000000 		.word	rtM_
 4503              		.text
 4504              	.Letext0:
 4505              		.file 2 "rtwtypes.h"
 4506              		.file 3 "c:\\program files (x86)\\gnu arm embedded toolchain\\10 2021.10\\arm-none-eabi\\include\\
 4507              		.file 4 "c:\\program files (x86)\\gnu arm embedded toolchain\\10 2021.10\\arm-none-eabi\\include\\
 4508              		.file 5 "../blockset/rtw/STM32/inc/STM32_E407/timeout.h"
 4509              		.file 6 "../blockset/rtw/STM32/inc/STM32_E407/can.h"
 4510              		.file 7 "../blockset/rtw/STM32/inc/STM32_E407/pwmout.h"
 4511              		.file 8 "../blockset/rtw/STM32/inc/STM32_E407/digout.h"
 4512              		.file 9 "../blockset/rtw/STM32/inc/STM32_E407/quadencoder.h"
 4513              		.file 10 "../blockset/rtw/STM32/inc/STM32_E407/digin.h"
 4514              		.file 11 "c:\\program files (x86)\\gnu arm embedded toolchain\\10 2021.10\\lib\\gcc\\arm-none-eabi
 4515              		.file 12 "HANcoder_E407_TTA_CombineModel_types.h"
 4516              		.file 13 "HANcoder_E407_TTA_CombineModel.h"
 4517              		.file 14 "zero_crossing_types.h"
 4518              		.file 15 "../blockset/rtw/STM32/inc/STM32_E407/canio.h"
 4519              		.file 16 "../blockset/rtw/STM32/inc/STM32_E407/anin.h"
 4520              		.file 17 "../blockset/rtw/STM32/inc/app.h"
 4521              		.file 18 "../blockset/rtw/STM32/inc/STM32_E407/FreeRTOSConfig.h"
 4522              		.file 19 "../blockset/rtw/STM32/inc/STM32_E407/mac.h"
 4523              		.file 20 "../blockset/rtw/STM32/inc/os.h"
 4524              		.file 21 "c:\\program files (x86)\\gnu arm embedded toolchain\\10 2021.10\\arm-none-eabi\\include\
DEFINED SYMBOLS
                            *ABS*:00000000 HANcoder_E407_TTA_CombineModel.c
C:\Users\ADMIN~1.CVA\AppData\Local\Temp\ccDq6ULR.s:19     .text.PwmoutIRQ_PWMOUT_MODULE_TIM14:00000000 $t
C:\Users\ADMIN~1.CVA\AppData\Local\Temp\ccDq6ULR.s:26     .text.PwmoutIRQ_PWMOUT_MODULE_TIM14:00000000 PwmoutIRQ_PWMOUT_MODULE_TIM14
C:\Users\ADMIN~1.CVA\AppData\Local\Temp\ccDq6ULR.s:41     .text.TimeoutEventIRQ_TIMEOUT_TIM4_PIN_PD12:00000000 $t
C:\Users\ADMIN~1.CVA\AppData\Local\Temp\ccDq6ULR.s:48     .text.TimeoutEventIRQ_TIMEOUT_TIM4_PIN_PD12:00000000 TimeoutEventIRQ_TIMEOUT_TIM4_PIN_PD12
C:\Users\ADMIN~1.CVA\AppData\Local\Temp\ccDq6ULR.s:188    .text.TimeoutEventIRQ_TIMEOUT_TIM4_PIN_PD12:0000008c $d
C:\Users\ADMIN~1.CVA\AppData\Local\Temp\ccDq6ULR.s:201    .text.TimeoutOverflowIRQ_TIMEOUT_MODULE_TIM4:00000000 $t
C:\Users\ADMIN~1.CVA\AppData\Local\Temp\ccDq6ULR.s:208    .text.TimeoutOverflowIRQ_TIMEOUT_MODULE_TIM4:00000000 TimeoutOverflowIRQ_TIMEOUT_MODULE_TIM4
C:\Users\ADMIN~1.CVA\AppData\Local\Temp\ccDq6ULR.s:219    .text.ByteSwap_x:00000000 $t
C:\Users\ADMIN~1.CVA\AppData\Local\Temp\ccDq6ULR.s:226    .text.ByteSwap_x:00000000 ByteSwap_x
C:\Users\ADMIN~1.CVA\AppData\Local\Temp\ccDq6ULR.s:304    .text.EnabledSubsystem:00000000 $t
C:\Users\ADMIN~1.CVA\AppData\Local\Temp\ccDq6ULR.s:311    .text.EnabledSubsystem:00000000 EnabledSubsystem
C:\Users\ADMIN~1.CVA\AppData\Local\Temp\ccDq6ULR.s:351    .text.MMBS1_RX_Disable:00000000 $t
C:\Users\ADMIN~1.CVA\AppData\Local\Temp\ccDq6ULR.s:358    .text.MMBS1_RX_Disable:00000000 MMBS1_RX_Disable
C:\Users\ADMIN~1.CVA\AppData\Local\Temp\ccDq6ULR.s:376    .text.MMBS1_RX_Start:00000000 $t
C:\Users\ADMIN~1.CVA\AppData\Local\Temp\ccDq6ULR.s:383    .text.MMBS1_RX_Start:00000000 MMBS1_RX_Start
C:\Users\ADMIN~1.CVA\AppData\Local\Temp\ccDq6ULR.s:405    .text.MMBS1_RX:00000000 $t
C:\Users\ADMIN~1.CVA\AppData\Local\Temp\ccDq6ULR.s:412    .text.MMBS1_RX:00000000 MMBS1_RX
C:\Users\ADMIN~1.CVA\AppData\Local\Temp\ccDq6ULR.s:553    .text.MMBS1_RX:00000034 $d
C:\Users\ADMIN~1.CVA\AppData\Local\Temp\ccDq6ULR.s:558    .text.MMBS1_TX:00000000 $t
C:\Users\ADMIN~1.CVA\AppData\Local\Temp\ccDq6ULR.s:565    .text.MMBS1_TX:00000000 MMBS1_TX
C:\Users\ADMIN~1.CVA\AppData\Local\Temp\ccDq6ULR.s:619    .text.MMBS1_TX:00000024 $d
C:\Users\ADMIN~1.CVA\AppData\Local\Temp\ccDq6ULR.s:624    .text.BitShift:00000000 $t
C:\Users\ADMIN~1.CVA\AppData\Local\Temp\ccDq6ULR.s:631    .text.BitShift:00000000 BitShift
C:\Users\ADMIN~1.CVA\AppData\Local\Temp\ccDq6ULR.s:661    .rodata.HANcoder_E407_TTA_CombineModel_step.str1.4:00000000 $d
C:\Users\ADMIN~1.CVA\AppData\Local\Temp\ccDq6ULR.s:665    .text.HANcoder_E407_TTA_CombineModel_step:00000000 $t
C:\Users\ADMIN~1.CVA\AppData\Local\Temp\ccDq6ULR.s:672    .text.HANcoder_E407_TTA_CombineModel_step:00000000 HANcoder_E407_TTA_CombineModel_step
C:\Users\ADMIN~1.CVA\AppData\Local\Temp\ccDq6ULR.s:1502   .text.HANcoder_E407_TTA_CombineModel_step:0000032c $d
C:\Users\ADMIN~1.CVA\AppData\Local\Temp\ccDq6ULR.s:1530   .text.HANcoder_E407_TTA_CombineModel_step:00000390 $t
C:\Users\ADMIN~1.CVA\AppData\Local\Temp\ccDq6ULR.s:1886   .text.HANcoder_E407_TTA_CombineModel_step:000004dc $d
C:\Users\ADMIN~1.CVA\AppData\Local\Temp\ccDq6ULR.s:1907   .text.HANcoder_E407_TTA_CombineModel_step:00000520 $t
C:\Users\ADMIN~1.CVA\AppData\Local\Temp\ccDq6ULR.s:2463   .text.HANcoder_E407_TTA_CombineModel_step:00000850 $d
C:\Users\ADMIN~1.CVA\AppData\Local\Temp\ccDq6ULR.s:2485   .text.HANcoder_E407_TTA_CombineModel_step:000008a4 $t
C:\Users\ADMIN~1.CVA\AppData\Local\Temp\ccDq6ULR.s:3173   .text.HANcoder_E407_TTA_CombineModel_step:00000bc0 $d
C:\Users\ADMIN~1.CVA\AppData\Local\Temp\ccDq6ULR.s:3207   .text.HANcoder_E407_TTA_CombineModel_step:00000c34 $t
C:\Users\ADMIN~1.CVA\AppData\Local\Temp\ccDq6ULR.s:3718   .text.HANcoder_E407_TTA_CombineModel_step:00000e70 $d
C:\Users\ADMIN~1.CVA\AppData\Local\Temp\ccDq6ULR.s:3738   .rodata.HANcoder_E407_TTA_CombineModel_initialize.str1.4:00000000 $d
C:\Users\ADMIN~1.CVA\AppData\Local\Temp\ccDq6ULR.s:3742   .text.HANcoder_E407_TTA_CombineModel_initialize:00000000 $t
C:\Users\ADMIN~1.CVA\AppData\Local\Temp\ccDq6ULR.s:3749   .text.HANcoder_E407_TTA_CombineModel_initialize:00000000 HANcoder_E407_TTA_CombineModel_initialize
C:\Users\ADMIN~1.CVA\AppData\Local\Temp\ccDq6ULR.s:4147   .text.HANcoder_E407_TTA_CombineModel_initialize:00000184 $d
C:\Users\ADMIN~1.CVA\AppData\Local\Temp\ccDq6ULR.s:4501   .rodata.rtM:00000000 rtM
C:\Users\ADMIN~1.CVA\AppData\Local\Temp\ccDq6ULR.s:4365   .bss.rtPrevZCSigState:00000000 rtPrevZCSigState
C:\Users\ADMIN~1.CVA\AppData\Local\Temp\ccDq6ULR.s:4351   .bss.rtDWork:00000000 rtDWork
C:\Users\ADMIN~1.CVA\AppData\Local\Temp\ccDq6ULR.s:4344   .bss.rtB:00000000 rtB
C:\Users\ADMIN~1.CVA\AppData\Local\Temp\ccDq6ULR.s:4495   .data.slotTime:00000000 slotTime
C:\Users\ADMIN~1.CVA\AppData\Local\Temp\ccDq6ULR.s:4482   .data.nodeRole:00000000 nodeRole
C:\Users\ADMIN~1.CVA\AppData\Local\Temp\ccDq6ULR.s:4454   .data.TRLS1_ID5:00000000 TRLS1_ID5
C:\Users\ADMIN~1.CVA\AppData\Local\Temp\ccDq6ULR.s:4447   .data.TRLS1_ID4:00000000 TRLS1_ID4
C:\Users\ADMIN~1.CVA\AppData\Local\Temp\ccDq6ULR.s:4440   .data.TRCK1_ID3:00000000 TRCK1_ID3
C:\Users\ADMIN~1.CVA\AppData\Local\Temp\ccDq6ULR.s:4433   .data.TRCK1_ID2:00000000 TRCK1_ID2
C:\Users\ADMIN~1.CVA\AppData\Local\Temp\ccDq6ULR.s:4426   .data.TRCK1_ID1:00000000 TRCK1_ID1
C:\Users\ADMIN~1.CVA\AppData\Local\Temp\ccDq6ULR.s:4419   .data.SYNC1_ID:00000000 SYNC1_ID
C:\Users\ADMIN~1.CVA\AppData\Local\Temp\ccDq6ULR.s:4412   .data.SSTM1_ID:00000000 SSTM1_ID
C:\Users\ADMIN~1.CVA\AppData\Local\Temp\ccDq6ULR.s:4405   .data.MMBS1_ID:00000000 MMBS1_ID
C:\Users\ADMIN~1.CVA\AppData\Local\Temp\ccDq6ULR.s:4489   .data.propVal:00000000 propVal
C:\Users\ADMIN~1.CVA\AppData\Local\Temp\ccDq6ULR.s:4475   .data.matrixRows:00000000 matrixRows
C:\Users\ADMIN~1.CVA\AppData\Local\Temp\ccDq6ULR.s:4468   .data.intVal:00000000 intVal
C:\Users\ADMIN~1.CVA\AppData\Local\Temp\ccDq6ULR.s:4461   .data.desiredAngle:00000000 desiredAngle
C:\Users\ADMIN~1.CVA\AppData\Local\Temp\ccDq6ULR.s:4398   .data.ClockOn:00000000 ClockOn
C:\Users\ADMIN~1.CVA\AppData\Local\Temp\ccDq6ULR.s:4249   .bss.canActive:00000000 canActive
C:\Users\ADMIN~1.CVA\AppData\Local\Temp\ccDq6ULR.s:4243   .bss.boolCan:00000000 boolCan
C:\Users\ADMIN~1.CVA\AppData\Local\Temp\ccDq6ULR.s:4297   .bss.ccw:00000000 ccw
C:\Users\ADMIN~1.CVA\AppData\Local\Temp\ccDq6ULR.s:4310   .bss.cw:00000000 cw
C:\Users\ADMIN~1.CVA\AppData\Local\Temp\ccDq6ULR.s:4377   .bss.slotSelected:00000000 slotSelected
C:\Users\ADMIN~1.CVA\AppData\Local\Temp\ccDq6ULR.s:4371   .bss.setSlotTime:00000000 setSlotTime
C:\Users\ADMIN~1.CVA\AppData\Local\Temp\ccDq6ULR.s:4316   .bss.dataArx:00000000 dataArx
C:\Users\ADMIN~1.CVA\AppData\Local\Temp\ccDq6ULR.s:4223   .bss.SI_CPUload:00000000 SI_CPUload
C:\Users\ADMIN~1.CVA\AppData\Local\Temp\ccDq6ULR.s:4323   .bss.local_ticks_interrupt:00000000 local_ticks_interrupt
C:\Users\ADMIN~1.CVA\AppData\Local\Temp\ccDq6ULR.s:4391   .bss.testCounter:00000000 testCounter
C:\Users\ADMIN~1.CVA\AppData\Local\Temp\ccDq6ULR.s:4330   .bss.mospeed:00000000 mospeed
C:\Users\ADMIN~1.CVA\AppData\Local\Temp\ccDq6ULR.s:4237   .bss.SI_FreeStack:00000000 SI_FreeStack
C:\Users\ADMIN~1.CVA\AppData\Local\Temp\ccDq6ULR.s:4230   .bss.SI_FreeHeap:00000000 SI_FreeHeap
C:\Users\ADMIN~1.CVA\AppData\Local\Temp\ccDq6ULR.s:4304   .bss.control:00000000 control
C:\Users\ADMIN~1.CVA\AppData\Local\Temp\ccDq6ULR.s:4337   .bss.position:00000000 position
C:\Users\ADMIN~1.CVA\AppData\Local\Temp\ccDq6ULR.s:4384   .bss.steering:00000000 steering
C:\Users\ADMIN~1.CVA\AppData\Local\Temp\ccDq6ULR.s:4210   .bss.Gamma1:00000000 Gamma1
C:\Users\ADMIN~1.CVA\AppData\Local\Temp\ccDq6ULR.s:4217   .bss.Gamma2:00000000 Gamma2
C:\Users\ADMIN~1.CVA\AppData\Local\Temp\ccDq6ULR.s:4206   .bss.Gamma1:00000000 $d
C:\Users\ADMIN~1.CVA\AppData\Local\Temp\ccDq6ULR.s:4213   .bss.Gamma2:00000000 $d
C:\Users\ADMIN~1.CVA\AppData\Local\Temp\ccDq6ULR.s:4224   .bss.SI_CPUload:00000000 $d
C:\Users\ADMIN~1.CVA\AppData\Local\Temp\ccDq6ULR.s:4226   .bss.SI_FreeHeap:00000000 $d
C:\Users\ADMIN~1.CVA\AppData\Local\Temp\ccDq6ULR.s:4233   .bss.SI_FreeStack:00000000 $d
C:\Users\ADMIN~1.CVA\AppData\Local\Temp\ccDq6ULR.s:4244   .bss.boolCan:00000000 $d
C:\Users\ADMIN~1.CVA\AppData\Local\Temp\ccDq6ULR.s:4250   .bss.canActive:00000000 $d
C:\Users\ADMIN~1.CVA\AppData\Local\Temp\ccDq6ULR.s:4252   .bss.canRxData_0_SYNC1_ID:00000000 $d
C:\Users\ADMIN~1.CVA\AppData\Local\Temp\ccDq6ULR.s:4256   .bss.canRxData_0_SYNC1_ID:00000000 canRxData_0_SYNC1_ID
C:\Users\ADMIN~1.CVA\AppData\Local\Temp\ccDq6ULR.s:4259   .bss.canRxData_0_TRCK1_ID3:00000000 $d
C:\Users\ADMIN~1.CVA\AppData\Local\Temp\ccDq6ULR.s:4263   .bss.canRxData_0_TRCK1_ID3:00000000 canRxData_0_TRCK1_ID3
C:\Users\ADMIN~1.CVA\AppData\Local\Temp\ccDq6ULR.s:4266   .bss.canRxData_0_TRLS1_ID4:00000000 $d
C:\Users\ADMIN~1.CVA\AppData\Local\Temp\ccDq6ULR.s:4270   .bss.canRxData_0_TRLS1_ID4:00000000 canRxData_0_TRLS1_ID4
C:\Users\ADMIN~1.CVA\AppData\Local\Temp\ccDq6ULR.s:4273   .bss.canRxData_0_TRLS1_ID5:00000000 $d
C:\Users\ADMIN~1.CVA\AppData\Local\Temp\ccDq6ULR.s:4277   .bss.canRxData_0_TRLS1_ID5:00000000 canRxData_0_TRLS1_ID5
C:\Users\ADMIN~1.CVA\AppData\Local\Temp\ccDq6ULR.s:4280   .bss.canRxData_0_rtu_In1:00000000 $d
C:\Users\ADMIN~1.CVA\AppData\Local\Temp\ccDq6ULR.s:4284   .bss.canRxData_0_rtu_In1:00000000 canRxData_0_rtu_In1
C:\Users\ADMIN~1.CVA\AppData\Local\Temp\ccDq6ULR.s:4287   .bss.canTxData:00000000 $d
C:\Users\ADMIN~1.CVA\AppData\Local\Temp\ccDq6ULR.s:4291   .bss.canTxData:00000000 canTxData
C:\Users\ADMIN~1.CVA\AppData\Local\Temp\ccDq6ULR.s:4298   .bss.ccw:00000000 $d
C:\Users\ADMIN~1.CVA\AppData\Local\Temp\ccDq6ULR.s:4300   .bss.control:00000000 $d
C:\Users\ADMIN~1.CVA\AppData\Local\Temp\ccDq6ULR.s:4311   .bss.cw:00000000 $d
C:\Users\ADMIN~1.CVA\AppData\Local\Temp\ccDq6ULR.s:4317   .bss.dataArx:00000000 $d
C:\Users\ADMIN~1.CVA\AppData\Local\Temp\ccDq6ULR.s:4319   .bss.local_ticks_interrupt:00000000 $d
C:\Users\ADMIN~1.CVA\AppData\Local\Temp\ccDq6ULR.s:4326   .bss.mospeed:00000000 $d
C:\Users\ADMIN~1.CVA\AppData\Local\Temp\ccDq6ULR.s:4333   .bss.position:00000000 $d
C:\Users\ADMIN~1.CVA\AppData\Local\Temp\ccDq6ULR.s:4340   .bss.rtB:00000000 $d
C:\Users\ADMIN~1.CVA\AppData\Local\Temp\ccDq6ULR.s:4347   .bss.rtDWork:00000000 $d
C:\Users\ADMIN~1.CVA\AppData\Local\Temp\ccDq6ULR.s:4354   .bss.rtM_:00000000 $d
C:\Users\ADMIN~1.CVA\AppData\Local\Temp\ccDq6ULR.s:4358   .bss.rtM_:00000000 rtM_
C:\Users\ADMIN~1.CVA\AppData\Local\Temp\ccDq6ULR.s:4361   .bss.rtPrevZCSigState:00000000 $d
C:\Users\ADMIN~1.CVA\AppData\Local\Temp\ccDq6ULR.s:4372   .bss.setSlotTime:00000000 $d
C:\Users\ADMIN~1.CVA\AppData\Local\Temp\ccDq6ULR.s:4378   .bss.slotSelected:00000000 $d
C:\Users\ADMIN~1.CVA\AppData\Local\Temp\ccDq6ULR.s:4380   .bss.steering:00000000 $d
C:\Users\ADMIN~1.CVA\AppData\Local\Temp\ccDq6ULR.s:4387   .bss.testCounter:00000000 $d
C:\Users\ADMIN~1.CVA\AppData\Local\Temp\ccDq6ULR.s:4394   .data.ClockOn:00000000 $d
C:\Users\ADMIN~1.CVA\AppData\Local\Temp\ccDq6ULR.s:4401   .data.MMBS1_ID:00000000 $d
C:\Users\ADMIN~1.CVA\AppData\Local\Temp\ccDq6ULR.s:4408   .data.SSTM1_ID:00000000 $d
C:\Users\ADMIN~1.CVA\AppData\Local\Temp\ccDq6ULR.s:4415   .data.SYNC1_ID:00000000 $d
C:\Users\ADMIN~1.CVA\AppData\Local\Temp\ccDq6ULR.s:4422   .data.TRCK1_ID1:00000000 $d
C:\Users\ADMIN~1.CVA\AppData\Local\Temp\ccDq6ULR.s:4429   .data.TRCK1_ID2:00000000 $d
C:\Users\ADMIN~1.CVA\AppData\Local\Temp\ccDq6ULR.s:4436   .data.TRCK1_ID3:00000000 $d
C:\Users\ADMIN~1.CVA\AppData\Local\Temp\ccDq6ULR.s:4443   .data.TRLS1_ID4:00000000 $d
C:\Users\ADMIN~1.CVA\AppData\Local\Temp\ccDq6ULR.s:4450   .data.TRLS1_ID5:00000000 $d
C:\Users\ADMIN~1.CVA\AppData\Local\Temp\ccDq6ULR.s:4457   .data.desiredAngle:00000000 $d
C:\Users\ADMIN~1.CVA\AppData\Local\Temp\ccDq6ULR.s:4464   .data.intVal:00000000 $d
C:\Users\ADMIN~1.CVA\AppData\Local\Temp\ccDq6ULR.s:4471   .data.matrixRows:00000000 $d
C:\Users\ADMIN~1.CVA\AppData\Local\Temp\ccDq6ULR.s:4485   .data.propVal:00000000 $d
C:\Users\ADMIN~1.CVA\AppData\Local\Temp\ccDq6ULR.s:4498   .rodata.rtM:00000000 $d

UNDEFINED SYMBOLS
__aeabi_d2uiz
TimeoutGetLastEventCounter
TimeoutScheduleCompareEvent
CanIoCreateMessageReceivedStorage
CanIoGetMessage
CanTransmit
__aeabi_dcmpeq
__aeabi_dmul
__aeabi_ui2d
__aeabi_dadd
__aeabi_dsub
__aeabi_dcmplt
__aeabi_dcmpgt
__aeabi_ddiv
__aeabi_d2iz
__aeabi_i2d
DiginGet
OsGetCpuLoad
OsGetFreeHeapSize
OsGetTaskFreeStackSize
rtConstP
tan
AninGet
sin
cos
atan
QuadEncGetCounter
rtConstB
floor
PwmoutSet
DigoutSet
QuadEncResetCounter
CanInit
CanIoInit
TimeoutInitModule
TimeoutRegisterCompareEventCallback
DigoutConfigure
PwmoutInit
PwmoutRegisterPeriodCompleteCallback
PwmoutConfigure
AninConfigure
QuadEncConfigure
DiginConfigure
AppCtrlTaskSetStackSize
AppCtrlTaskSetPeriod
ADCconversionTaskSetPeriod
CanConnect
AssertFailure
TimeoutRegisterOverflowCallback
MacUsbComInit
MacInit
